; Listing generated by Microsoft (R) Optimizing Compiler Version 19.15.26730.0 

	TITLE	C:\Users\Utilisateur\Documents\GitHub\8IAR125-ProjetRaven\VS2015\Buckland_Chapter7 to 10_Raven\goals\AttackTargetGoal_Evaluator.cpp
	.686P
	.XMM
	include listing.inc
	.model	flat

INCLUDELIB LIBCMTD
INCLUDELIB OLDNAMES

CONST	SEGMENT
?colors@@3QBKB DD 0ffH					; colors
	DD	0ff0000H
	DD	0ff00H
	DD	00H
	DD	0c8c8ffH
	DD	0c8c8c8H
	DD	0ffffH
	DD	0aaffH
	DD	0aa00ffH
	DD	05a85H
	DD	0ffffffH
	DD	06400H
	DD	0ffff00H
	DD	0c8c8c8H
	DD	0e6e6ffH
$SG152888 DB	'AT: ', 00H
	ORG $+3
$SG152889 DB	', ', 00H
CONST	ENDS
PUBLIC	?__empty_global_delete@@YAXPAX@Z		; __empty_global_delete
PUBLIC	?__empty_global_delete@@YAXPAXI@Z		; __empty_global_delete
PUBLIC	??2@YAPAXIPAX@Z					; operator new
PUBLIC	_fabsl
PUBLIC	_frexpl
PUBLIC	___local_stdio_printf_options
PUBLIC	?max@?$numeric_limits@H@std@@SAHXZ		; std::numeric_limits<int>::max
PUBLIC	?min@?$numeric_limits@M@std@@SAMXZ		; std::numeric_limits<float>::min
PUBLIC	?max@?$numeric_limits@M@std@@SAMXZ		; std::numeric_limits<float>::max
PUBLIC	?min@?$numeric_limits@N@std@@SANXZ		; std::numeric_limits<double>::min
PUBLIC	?max@?$numeric_limits@N@std@@SANXZ		; std::numeric_limits<double>::max
PUBLIC	??0exception@std@@QAE@QBD@Z			; std::exception::exception
PUBLIC	??0exception@std@@QAE@QBDH@Z			; std::exception::exception
PUBLIC	??0exception@std@@QAE@ABV01@@Z			; std::exception::exception
PUBLIC	??1exception@std@@UAE@XZ			; std::exception::~exception
PUBLIC	?what@exception@std@@UBEPBDXZ			; std::exception::what
PUBLIC	??_Gexception@std@@UAEPAXI@Z			; std::exception::`scalar deleting destructor'
PUBLIC	__vsprintf_s_l
PUBLIC	_sprintf_s
PUBLIC	?length@?$char_traits@D@std@@SAIQBD@Z		; std::char_traits<char>::length
PUBLIC	?copy@?$char_traits@D@std@@SAPADQADQBDI@Z	; std::char_traits<char>::copy
PUBLIC	?move@?$char_traits@D@std@@SAPADQADQBDI@Z	; std::char_traits<char>::move
PUBLIC	?assign@?$char_traits@D@std@@SAPADQADID@Z	; std::char_traits<char>::assign
PUBLIC	?assign@?$char_traits@D@std@@SAXAADABD@Z	; std::char_traits<char>::assign
PUBLIC	?eq@?$char_traits@D@std@@SA_NABD0@Z		; std::char_traits<char>::eq
PUBLIC	?to_char_type@?$char_traits@D@std@@SADABH@Z	; std::char_traits<char>::to_char_type
PUBLIC	?to_int_type@?$char_traits@D@std@@SAHABD@Z	; std::char_traits<char>::to_int_type
PUBLIC	?eq_int_type@?$char_traits@D@std@@SA_NABH0@Z	; std::char_traits<char>::eq_int_type
PUBLIC	?not_eof@?$char_traits@D@std@@SAHABH@Z		; std::char_traits<char>::not_eof
PUBLIC	?eof@?$char_traits@D@std@@SAHXZ			; std::char_traits<char>::eof
PUBLIC	??0_Container_proxy@std@@QAE@XZ			; std::_Container_proxy::_Container_proxy
PUBLIC	??0_Container_base12@std@@QAE@XZ		; std::_Container_base12::_Container_base12
PUBLIC	?_Orphan_all@_Container_base12@std@@QAEXXZ	; std::_Container_base12::_Orphan_all
PUBLIC	?_Swap_all@_Container_base12@std@@QAEXAAU12@@Z	; std::_Container_base12::_Swap_all
PUBLIC	??$_Get_size_of_n@$00@std@@YAII@Z		; std::_Get_size_of_n<1>
PUBLIC	?_Allocate@_Default_allocate_traits@std@@SAPAXI@Z ; std::_Default_allocate_traits::_Allocate
PUBLIC	?_Adjust_manually_vector_aligned@std@@YAXAAPAXAAI@Z ; std::_Adjust_manually_vector_aligned
PUBLIC	??$_Convert_size@I@std@@YAII@Z			; std::_Convert_size<unsigned int>
PUBLIC	??0?$allocator@D@std@@QAE@XZ			; std::allocator<char>::allocator<char>
PUBLIC	?deallocate@?$allocator@D@std@@QAEXQADI@Z	; std::allocator<char>::deallocate
PUBLIC	?allocate@?$allocator@D@std@@QAEPADI@Z		; std::allocator<char>::allocate
PUBLIC	?max_size@?$_Default_allocator_traits@V?$allocator@D@std@@@std@@SAIABV?$allocator@D@2@@Z ; std::_Default_allocator_traits<std::allocator<char> >::max_size
PUBLIC	?select_on_container_copy_construction@?$_Default_allocator_traits@V?$allocator@D@std@@@std@@SA?AV?$allocator@D@2@ABV32@@Z ; std::_Default_allocator_traits<std::allocator<char> >::select_on_container_copy_construction
PUBLIC	??0?$_String_val@U?$_Simple_types@D@std@@@std@@QAE@XZ ; std::_String_val<std::_Simple_types<char> >::_String_val<std::_Simple_types<char> >
PUBLIC	?_Myptr@?$_String_val@U?$_Simple_types@D@std@@@std@@QAEPADXZ ; std::_String_val<std::_Simple_types<char> >::_Myptr
PUBLIC	?_Myptr@?$_String_val@U?$_Simple_types@D@std@@@std@@QBEPBDXZ ; std::_String_val<std::_Simple_types<char> >::_Myptr
PUBLIC	?_Large_string_engaged@?$_String_val@U?$_Simple_types@D@std@@@std@@QBE_NXZ ; std::_String_val<std::_Simple_types<char> >::_Large_string_engaged
PUBLIC	?_Check_offset@?$_String_val@U?$_Simple_types@D@std@@@std@@QBEXI@Z ; std::_String_val<std::_Simple_types<char> >::_Check_offset
PUBLIC	?_Xran@?$_String_val@U?$_Simple_types@D@std@@@std@@SAXXZ ; std::_String_val<std::_Simple_types<char> >::_Xran
PUBLIC	??0_Bxty@?$_String_val@U?$_Simple_types@D@std@@@std@@QAE@XZ ; std::_String_val<std::_Simple_types<char> >::_Bxty::_Bxty
PUBLIC	??1_Bxty@?$_String_val@U?$_Simple_types@D@std@@@std@@QAE@XZ ; std::_String_val<std::_Simple_types<char> >::_Bxty::~_Bxty
PUBLIC	??1?$_String_val@U?$_Simple_types@D@std@@@std@@QAE@XZ ; std::_String_val<std::_Simple_types<char> >::~_String_val<std::_Simple_types<char> >
PUBLIC	??0?$_String_alloc@U?$_String_base_types@DV?$allocator@D@std@@@std@@@std@@QAE@XZ ; std::_String_alloc<std::_String_base_types<char,std::allocator<char> > >::_String_alloc<std::_String_base_types<char,std::allocator<char> > >
PUBLIC	??1?$_String_alloc@U?$_String_base_types@DV?$allocator@D@std@@@std@@@std@@QAE@XZ ; std::_String_alloc<std::_String_base_types<char,std::allocator<char> > >::~_String_alloc<std::_String_base_types<char,std::allocator<char> > >
PUBLIC	?_Move_alloc@?$_String_alloc@U?$_String_base_types@DV?$allocator@D@std@@@std@@@std@@QAEXAAV?$allocator@D@2@@Z ; std::_String_alloc<std::_String_base_types<char,std::allocator<char> > >::_Move_alloc
PUBLIC	?_Alloc_proxy@?$_String_alloc@U?$_String_base_types@DV?$allocator@D@std@@@std@@@std@@QAEXXZ ; std::_String_alloc<std::_String_base_types<char,std::allocator<char> > >::_Alloc_proxy
PUBLIC	?_Free_proxy@?$_String_alloc@U?$_String_base_types@DV?$allocator@D@std@@@std@@@std@@QAEXXZ ; std::_String_alloc<std::_String_base_types<char,std::allocator<char> > >::_Free_proxy
PUBLIC	?_Myproxy@?$_String_alloc@U?$_String_base_types@DV?$allocator@D@std@@@std@@@std@@QAEAAPAU_Container_proxy@2@XZ ; std::_String_alloc<std::_String_base_types<char,std::allocator<char> > >::_Myproxy
PUBLIC	?_Orphan_all@?$_String_alloc@U?$_String_base_types@DV?$allocator@D@std@@@std@@@std@@QAEXXZ ; std::_String_alloc<std::_String_base_types<char,std::allocator<char> > >::_Orphan_all
PUBLIC	?_Swap_all@?$_String_alloc@U?$_String_base_types@DV?$allocator@D@std@@@std@@@std@@QAEXAAV12@@Z ; std::_String_alloc<std::_String_base_types<char,std::allocator<char> > >::_Swap_all
PUBLIC	?_Getal@?$_String_alloc@U?$_String_base_types@DV?$allocator@D@std@@@std@@@std@@QAEAAV?$allocator@D@2@XZ ; std::_String_alloc<std::_String_base_types<char,std::allocator<char> > >::_Getal
PUBLIC	?_Getal@?$_String_alloc@U?$_String_base_types@DV?$allocator@D@std@@@std@@@std@@QBEABV?$allocator@D@2@XZ ; std::_String_alloc<std::_String_base_types<char,std::allocator<char> > >::_Getal
PUBLIC	?_Get_data@?$_String_alloc@U?$_String_base_types@DV?$allocator@D@std@@@std@@@std@@QAEAAV?$_String_val@U?$_Simple_types@D@std@@@2@XZ ; std::_String_alloc<std::_String_base_types<char,std::allocator<char> > >::_Get_data
PUBLIC	?_Get_data@?$_String_alloc@U?$_String_base_types@DV?$allocator@D@std@@@std@@@std@@QBEABV?$_String_val@U?$_Simple_types@D@std@@@2@XZ ; std::_String_alloc<std::_String_base_types<char,std::allocator<char> > >::_Get_data
PUBLIC	?_Get_first@?$_Compressed_pair@V?$allocator@D@std@@V?$_String_val@U?$_Simple_types@D@std@@@2@$00@std@@QAEAAV?$allocator@D@2@XZ ; std::_Compressed_pair<std::allocator<char>,std::_String_val<std::_Simple_types<char> >,1>::_Get_first
PUBLIC	?_Get_first@?$_Compressed_pair@V?$allocator@D@std@@V?$_String_val@U?$_Simple_types@D@std@@@2@$00@std@@QBEABV?$allocator@D@2@XZ ; std::_Compressed_pair<std::allocator<char>,std::_String_val<std::_Simple_types<char> >,1>::_Get_first
PUBLIC	?_Get_second@?$_Compressed_pair@V?$allocator@D@std@@V?$_String_val@U?$_Simple_types@D@std@@@2@$00@std@@QAEAAV?$_String_val@U?$_Simple_types@D@std@@@2@XZ ; std::_Compressed_pair<std::allocator<char>,std::_String_val<std::_Simple_types<char> >,1>::_Get_second
PUBLIC	?_Get_second@?$_Compressed_pair@V?$allocator@D@std@@V?$_String_val@U?$_Simple_types@D@std@@@2@$00@std@@QBEABV?$_String_val@U?$_Simple_types@D@std@@@2@XZ ; std::_Compressed_pair<std::allocator<char>,std::_String_val<std::_Simple_types<char> >,1>::_Get_second
PUBLIC	??1?$_Compressed_pair@V?$allocator@D@std@@V?$_String_val@U?$_Simple_types@D@std@@@2@$00@std@@QAE@XZ ; std::_Compressed_pair<std::allocator<char>,std::_String_val<std::_Simple_types<char> >,1>::~_Compressed_pair<std::allocator<char>,std::_String_val<std::_Simple_types<char> >,1>
PUBLIC	??0?$basic_string@DU?$char_traits@D@std@@V?$allocator@D@2@@std@@QAE@ABV01@@Z ; std::basic_string<char,std::char_traits<char>,std::allocator<char> >::basic_string<char,std::char_traits<char>,std::allocator<char> >
PUBLIC	??0?$basic_string@DU?$char_traits@D@std@@V?$allocator@D@2@@std@@QAE@XZ ; std::basic_string<char,std::char_traits<char>,std::allocator<char> >::basic_string<char,std::char_traits<char>,std::allocator<char> >
PUBLIC	??0?$basic_string@DU?$char_traits@D@std@@V?$allocator@D@2@@std@@QAE@ABV?$allocator@D@1@@Z ; std::basic_string<char,std::char_traits<char>,std::allocator<char> >::basic_string<char,std::char_traits<char>,std::allocator<char> >
PUBLIC	??0?$basic_string@DU?$char_traits@D@std@@V?$allocator@D@2@@std@@QAE@QBD@Z ; std::basic_string<char,std::char_traits<char>,std::allocator<char> >::basic_string<char,std::char_traits<char>,std::allocator<char> >
PUBLIC	??0?$basic_string@DU?$char_traits@D@std@@V?$allocator@D@2@@std@@QAE@ID@Z ; std::basic_string<char,std::char_traits<char>,std::allocator<char> >::basic_string<char,std::char_traits<char>,std::allocator<char> >
PUBLIC	??0?$basic_string@DU?$char_traits@D@std@@V?$allocator@D@2@@std@@QAE@$$QAV01@@Z ; std::basic_string<char,std::char_traits<char>,std::allocator<char> >::basic_string<char,std::char_traits<char>,std::allocator<char> >
PUBLIC	??4?$basic_string@DU?$char_traits@D@std@@V?$allocator@D@2@@std@@QAEAAV01@$$QAV01@@Z ; std::basic_string<char,std::char_traits<char>,std::allocator<char> >::operator=
PUBLIC	?assign@?$basic_string@DU?$char_traits@D@std@@V?$allocator@D@2@@std@@QAEAAV12@$$QAV12@@Z ; std::basic_string<char,std::char_traits<char>,std::allocator<char> >::assign
PUBLIC	?_Assign_rv_contents@?$basic_string@DU?$char_traits@D@std@@V?$allocator@D@2@@std@@QAEX$$QAV12@U?$integral_constant@_N$00@2@@Z ; std::basic_string<char,std::char_traits<char>,std::allocator<char> >::_Assign_rv_contents
PUBLIC	?_Assign_rv_contents_with_alloc_always_equal@?$basic_string@DU?$char_traits@D@std@@V?$allocator@D@2@@std@@QAEX$$QAV12@U?$integral_constant@_N$00@2@@Z ; std::basic_string<char,std::char_traits<char>,std::allocator<char> >::_Assign_rv_contents_with_alloc_always_equal
PUBLIC	?_Construct_lv_contents@?$basic_string@DU?$char_traits@D@std@@V?$allocator@D@2@@std@@QAEXABV12@@Z ; std::basic_string<char,std::char_traits<char>,std::allocator<char> >::_Construct_lv_contents
PUBLIC	??1?$basic_string@DU?$char_traits@D@std@@V?$allocator@D@2@@std@@QAE@XZ ; std::basic_string<char,std::char_traits<char>,std::allocator<char> >::~basic_string<char,std::char_traits<char>,std::allocator<char> >
PUBLIC	?append@?$basic_string@DU?$char_traits@D@std@@V?$allocator@D@2@@std@@QAEAAV12@ABV12@@Z ; std::basic_string<char,std::char_traits<char>,std::allocator<char> >::append
PUBLIC	?append@?$basic_string@DU?$char_traits@D@std@@V?$allocator@D@2@@std@@QAEAAV12@QBDI@Z ; std::basic_string<char,std::char_traits<char>,std::allocator<char> >::append
PUBLIC	?append@?$basic_string@DU?$char_traits@D@std@@V?$allocator@D@2@@std@@QAEAAV12@QBD@Z ; std::basic_string<char,std::char_traits<char>,std::allocator<char> >::append
PUBLIC	?append@?$basic_string@DU?$char_traits@D@std@@V?$allocator@D@2@@std@@QAEAAV12@ID@Z ; std::basic_string<char,std::char_traits<char>,std::allocator<char> >::append
PUBLIC	?assign@?$basic_string@DU?$char_traits@D@std@@V?$allocator@D@2@@std@@QAEAAV12@QBDI@Z ; std::basic_string<char,std::char_traits<char>,std::allocator<char> >::assign
PUBLIC	?assign@?$basic_string@DU?$char_traits@D@std@@V?$allocator@D@2@@std@@QAEAAV12@QBD@Z ; std::basic_string<char,std::char_traits<char>,std::allocator<char> >::assign
PUBLIC	?assign@?$basic_string@DU?$char_traits@D@std@@V?$allocator@D@2@@std@@QAEAAV12@ID@Z ; std::basic_string<char,std::char_traits<char>,std::allocator<char> >::assign
PUBLIC	?insert@?$basic_string@DU?$char_traits@D@std@@V?$allocator@D@2@@std@@QAEAAV12@IABV12@@Z ; std::basic_string<char,std::char_traits<char>,std::allocator<char> >::insert
PUBLIC	?insert@?$basic_string@DU?$char_traits@D@std@@V?$allocator@D@2@@std@@QAEAAV12@IQBDI@Z ; std::basic_string<char,std::char_traits<char>,std::allocator<char> >::insert
PUBLIC	?insert@?$basic_string@DU?$char_traits@D@std@@V?$allocator@D@2@@std@@QAEAAV12@IQBD@Z ; std::basic_string<char,std::char_traits<char>,std::allocator<char> >::insert
PUBLIC	?insert@?$basic_string@DU?$char_traits@D@std@@V?$allocator@D@2@@std@@QAEAAV12@IID@Z ; std::basic_string<char,std::char_traits<char>,std::allocator<char> >::insert
PUBLIC	??A?$basic_string@DU?$char_traits@D@std@@V?$allocator@D@2@@std@@QAEAADI@Z ; std::basic_string<char,std::char_traits<char>,std::allocator<char> >::operator[]
PUBLIC	??A?$basic_string@DU?$char_traits@D@std@@V?$allocator@D@2@@std@@QBEABDI@Z ; std::basic_string<char,std::char_traits<char>,std::allocator<char> >::operator[]
PUBLIC	?c_str@?$basic_string@DU?$char_traits@D@std@@V?$allocator@D@2@@std@@QBEPBDXZ ; std::basic_string<char,std::char_traits<char>,std::allocator<char> >::c_str
PUBLIC	?size@?$basic_string@DU?$char_traits@D@std@@V?$allocator@D@2@@std@@QBEIXZ ; std::basic_string<char,std::char_traits<char>,std::allocator<char> >::size
PUBLIC	?max_size@?$basic_string@DU?$char_traits@D@std@@V?$allocator@D@2@@std@@QBEIXZ ; std::basic_string<char,std::char_traits<char>,std::allocator<char> >::max_size
PUBLIC	?resize@?$basic_string@DU?$char_traits@D@std@@V?$allocator@D@2@@std@@QAEXID@Z ; std::basic_string<char,std::char_traits<char>,std::allocator<char> >::resize
PUBLIC	?capacity@?$basic_string@DU?$char_traits@D@std@@V?$allocator@D@2@@std@@QBEIXZ ; std::basic_string<char,std::char_traits<char>,std::allocator<char> >::capacity
PUBLIC	?empty@?$basic_string@DU?$char_traits@D@std@@V?$allocator@D@2@@std@@QBE_NXZ ; std::basic_string<char,std::char_traits<char>,std::allocator<char> >::empty
PUBLIC	?_Calculate_growth@?$basic_string@DU?$char_traits@D@std@@V?$allocator@D@2@@std@@QBEII@Z ; std::basic_string<char,std::char_traits<char>,std::allocator<char> >::_Calculate_growth
PUBLIC	?_Eos@?$basic_string@DU?$char_traits@D@std@@V?$allocator@D@2@@std@@QAEXI@Z ; std::basic_string<char,std::char_traits<char>,std::allocator<char> >::_Eos
PUBLIC	?_Tidy_init@?$basic_string@DU?$char_traits@D@std@@V?$allocator@D@2@@std@@QAEXXZ ; std::basic_string<char,std::char_traits<char>,std::allocator<char> >::_Tidy_init
PUBLIC	?_Tidy_deallocate@?$basic_string@DU?$char_traits@D@std@@V?$allocator@D@2@@std@@QAEXXZ ; std::basic_string<char,std::char_traits<char>,std::allocator<char> >::_Tidy_deallocate
PUBLIC	?_Xlen@?$basic_string@DU?$char_traits@D@std@@V?$allocator@D@2@@std@@SAXXZ ; std::basic_string<char,std::char_traits<char>,std::allocator<char> >::_Xlen
PUBLIC	??0runtime_error@std@@QAE@ABV?$basic_string@DU?$char_traits@D@std@@V?$allocator@D@2@@1@@Z ; std::runtime_error::runtime_error
PUBLIC	??0runtime_error@std@@QAE@PBD@Z			; std::runtime_error::runtime_error
PUBLIC	??1runtime_error@std@@UAE@XZ			; std::runtime_error::~runtime_error
PUBLIC	??0runtime_error@std@@QAE@ABV01@@Z		; std::runtime_error::runtime_error
PUBLIC	??_Gruntime_error@std@@UAEPAXI@Z		; std::runtime_error::`scalar deleting destructor'
PUBLIC	??0bad_cast@std@@QAE@XZ				; std::bad_cast::bad_cast
PUBLIC	??1bad_cast@std@@UAE@XZ				; std::bad_cast::~bad_cast
PUBLIC	??0bad_cast@std@@QAE@ABV01@@Z			; std::bad_cast::bad_cast
PUBLIC	??_Gbad_cast@std@@UAEPAXI@Z			; std::bad_cast::`scalar deleting destructor'
PUBLIC	??0_Locinfo@std@@QAE@PBD@Z			; std::_Locinfo::_Locinfo
PUBLIC	??1_Locinfo@std@@QAE@XZ				; std::_Locinfo::~_Locinfo
PUBLIC	?_Getctype@_Locinfo@std@@QBE?AU_Ctypevec@@XZ	; std::_Locinfo::_Getctype
PUBLIC	?_Getcvt@_Locinfo@std@@QBE?AU_Cvtvec@@XZ	; std::_Locinfo::_Getcvt
PUBLIC	?_Getlconv@_Locinfo@std@@QBEPBUlconv@@XZ	; std::_Locinfo::_Getlconv
PUBLIC	?_Getfalse@_Locinfo@std@@QBEPBDXZ		; std::_Locinfo::_Getfalse
PUBLIC	?_Gettrue@_Locinfo@std@@QBEPBDXZ		; std::_Locinfo::_Gettrue
PUBLIC	??0?$_Yarn@D@std@@QAE@XZ			; std::_Yarn<char>::_Yarn<char>
PUBLIC	??1?$_Yarn@D@std@@QAE@XZ			; std::_Yarn<char>::~_Yarn<char>
PUBLIC	?c_str@?$_Yarn@D@std@@QBEPBDXZ			; std::_Yarn<char>::c_str
PUBLIC	?_Tidy@?$_Yarn@D@std@@AAEXXZ			; std::_Yarn<char>::_Tidy
PUBLIC	??0?$_Yarn@_W@std@@QAE@XZ			; std::_Yarn<wchar_t>::_Yarn<wchar_t>
PUBLIC	??1?$_Yarn@_W@std@@QAE@XZ			; std::_Yarn<wchar_t>::~_Yarn<wchar_t>
PUBLIC	?_Tidy@?$_Yarn@_W@std@@AAEXXZ			; std::_Yarn<wchar_t>::_Tidy
PUBLIC	??1_Facet_base@std@@UAE@XZ			; std::_Facet_base::~_Facet_base
PUBLIC	??0_Facet_base@std@@QAE@XZ			; std::_Facet_base::_Facet_base
PUBLIC	??_G_Facet_base@std@@UAEPAXI@Z			; std::_Facet_base::`scalar deleting destructor'
PUBLIC	??2_Crt_new_delete@std@@SAPAXI@Z		; std::_Crt_new_delete::operator new
PUBLIC	??2_Crt_new_delete@std@@SAPAXIABUnothrow_t@1@@Z	; std::_Crt_new_delete::operator new
PUBLIC	??3_Crt_new_delete@std@@SAXPAX@Z		; std::_Crt_new_delete::operator delete
PUBLIC	??0id@locale@std@@QAE@I@Z			; std::locale::id::id
PUBLIC	??Bid@locale@std@@QAEIXZ			; std::locale::id::operator unsigned int
PUBLIC	?_Incref@facet@locale@std@@UAEXXZ		; std::locale::facet::_Incref
PUBLIC	?_Decref@facet@locale@std@@UAEPAV_Facet_base@3@XZ ; std::locale::facet::_Decref
PUBLIC	??0facet@locale@std@@IAE@I@Z			; std::locale::facet::facet
PUBLIC	??1facet@locale@std@@MAE@XZ			; std::locale::facet::~facet
PUBLIC	??_Gfacet@locale@std@@MAEPAXI@Z			; std::locale::facet::`scalar deleting destructor'
PUBLIC	??0locale@std@@QAE@ABV01@@Z			; std::locale::locale
PUBLIC	??0locale@std@@QAE@XZ				; std::locale::locale
PUBLIC	??1locale@std@@QAE@XZ				; std::locale::~locale
PUBLIC	?c_str@locale@std@@QBEPBDXZ			; std::locale::c_str
PUBLIC	?_Getfacet@locale@std@@QBEPBVfacet@12@I@Z	; std::locale::_Getfacet
PUBLIC	??_Glocale@std@@QAEPAXI@Z			; std::locale::`scalar deleting destructor'
PUBLIC	??$_Adl_verify_range@PBDPBD@std@@YAXABQBD0@Z	; std::_Adl_verify_range<char const *,char const *>
PUBLIC	??0ctype_base@std@@QAE@I@Z			; std::ctype_base::ctype_base
PUBLIC	??1ctype_base@std@@UAE@XZ			; std::ctype_base::~ctype_base
PUBLIC	??_Gctype_base@std@@UAEPAXI@Z			; std::ctype_base::`scalar deleting destructor'
PUBLIC	?widen@?$ctype@D@std@@QBEDD@Z			; std::ctype<char>::widen
PUBLIC	?widen@?$ctype@D@std@@QBEPBDPBD0PAD@Z		; std::ctype<char>::widen
PUBLIC	??0?$ctype@D@std@@QAE@ABV_Locinfo@1@I@Z		; std::ctype<char>::ctype<char>
PUBLIC	?_Getcat@?$ctype@D@std@@SAIPAPBVfacet@locale@2@PBV42@@Z ; std::ctype<char>::_Getcat
PUBLIC	??1?$ctype@D@std@@MAE@XZ			; std::ctype<char>::~ctype<char>
PUBLIC	?_Init@?$ctype@D@std@@IAEXABV_Locinfo@2@@Z	; std::ctype<char>::_Init
PUBLIC	?_Tidy@?$ctype@D@std@@IAEXXZ			; std::ctype<char>::_Tidy
PUBLIC	?do_tolower@?$ctype@D@std@@MBEDD@Z		; std::ctype<char>::do_tolower
PUBLIC	?do_tolower@?$ctype@D@std@@MBEPBDPADPBD@Z	; std::ctype<char>::do_tolower
PUBLIC	?do_toupper@?$ctype@D@std@@MBEDD@Z		; std::ctype<char>::do_toupper
PUBLIC	?do_toupper@?$ctype@D@std@@MBEPBDPADPBD@Z	; std::ctype<char>::do_toupper
PUBLIC	?do_widen@?$ctype@D@std@@MBEDD@Z		; std::ctype<char>::do_widen
PUBLIC	?do_widen@?$ctype@D@std@@MBEPBDPBD0PAD@Z	; std::ctype<char>::do_widen
PUBLIC	?do_narrow@?$ctype@D@std@@MBEDDD@Z		; std::ctype<char>::do_narrow
PUBLIC	?do_narrow@?$ctype@D@std@@MBEPBDPBD0DPAD@Z	; std::ctype<char>::do_narrow
PUBLIC	??_G?$ctype@D@std@@MAEPAXI@Z			; std::ctype<char>::`scalar deleting destructor'
PUBLIC	??$use_facet@V?$ctype@D@std@@@std@@YAABV?$ctype@D@0@ABVlocale@0@@Z ; std::use_facet<std::ctype<char> >
PUBLIC	?make_error_code@std@@YA?AVerror_code@1@W4io_errc@1@@Z ; std::make_error_code
PUBLIC	?iostream_category@std@@YAABVerror_category@1@XZ ; std::iostream_category
PUBLIC	??0error_category@std@@QAE@XZ			; std::error_category::error_category
PUBLIC	??1error_category@std@@UAE@XZ			; std::error_category::~error_category
PUBLIC	?default_error_condition@error_category@std@@UBE?AVerror_condition@2@H@Z ; std::error_category::default_error_condition
PUBLIC	?equivalent@error_category@std@@UBE_NHABVerror_condition@2@@Z ; std::error_category::equivalent
PUBLIC	?equivalent@error_category@std@@UBE_NABVerror_code@2@H@Z ; std::error_category::equivalent
PUBLIC	??8error_category@std@@QBE_NABV01@@Z		; std::error_category::operator==
PUBLIC	??0error_code@std@@QAE@HABVerror_category@1@@Z	; std::error_code::error_code
PUBLIC	?value@error_code@std@@QBEHXZ			; std::error_code::value
PUBLIC	?category@error_code@std@@QBEABVerror_category@2@XZ ; std::error_code::category
PUBLIC	?message@error_code@std@@QBE?AV?$basic_string@DU?$char_traits@D@std@@V?$allocator@D@2@@2@XZ ; std::error_code::message
PUBLIC	??0error_condition@std@@QAE@HABVerror_category@1@@Z ; std::error_condition::error_condition
PUBLIC	?value@error_condition@std@@QBEHXZ		; std::error_condition::value
PUBLIC	?category@error_condition@std@@QBEABVerror_category@2@XZ ; std::error_condition::category
PUBLIC	??8std@@YA_NABVerror_condition@0@0@Z		; std::operator==
PUBLIC	?_Makestr@_System_error@std@@CA?AV?$basic_string@DU?$char_traits@D@std@@V?$allocator@D@2@@2@Verror_code@2@V32@@Z ; std::_System_error::_Makestr
PUBLIC	??0_System_error@std@@IAE@Verror_code@1@ABV?$basic_string@DU?$char_traits@D@std@@V?$allocator@D@2@@1@@Z ; std::_System_error::_System_error
PUBLIC	??1_System_error@std@@UAE@XZ			; std::_System_error::~_System_error
PUBLIC	??0_System_error@std@@QAE@ABV01@@Z		; std::_System_error::_System_error
PUBLIC	??_G_System_error@std@@UAEPAXI@Z		; std::_System_error::`scalar deleting destructor'
PUBLIC	??0system_error@std@@QAE@Verror_code@1@PBD@Z	; std::system_error::system_error
PUBLIC	??1system_error@std@@UAE@XZ			; std::system_error::~system_error
PUBLIC	??0system_error@std@@QAE@ABV01@@Z		; std::system_error::system_error
PUBLIC	??_Gsystem_error@std@@UAEPAXI@Z			; std::system_error::`scalar deleting destructor'
PUBLIC	??0_Generic_error_category@std@@QAE@XZ		; std::_Generic_error_category::_Generic_error_category
PUBLIC	?name@_Generic_error_category@std@@UBEPBDXZ	; std::_Generic_error_category::name
PUBLIC	?message@_Generic_error_category@std@@UBE?AV?$basic_string@DU?$char_traits@D@std@@V?$allocator@D@2@@2@H@Z ; std::_Generic_error_category::message
PUBLIC	??1_Generic_error_category@std@@UAE@XZ		; std::_Generic_error_category::~_Generic_error_category
PUBLIC	??_G_Generic_error_category@std@@UAEPAXI@Z	; std::_Generic_error_category::`scalar deleting destructor'
PUBLIC	??0_Iostream_error_category@std@@QAE@XZ		; std::_Iostream_error_category::_Iostream_error_category
PUBLIC	?name@_Iostream_error_category@std@@UBEPBDXZ	; std::_Iostream_error_category::name
PUBLIC	?message@_Iostream_error_category@std@@UBE?AV?$basic_string@DU?$char_traits@D@std@@V?$allocator@D@2@@2@H@Z ; std::_Iostream_error_category::message
PUBLIC	??1_Iostream_error_category@std@@UAE@XZ		; std::_Iostream_error_category::~_Iostream_error_category
PUBLIC	??_G_Iostream_error_category@std@@UAEPAXI@Z	; std::_Iostream_error_category::`scalar deleting destructor'
PUBLIC	??$_Immortalize@V_Iostream_error_category@std@@@std@@YAAAV_Iostream_error_category@0@XZ ; std::_Immortalize<std::_Iostream_error_category>
PUBLIC	??0failure@ios_base@std@@QAE@PBDABVerror_code@2@@Z ; std::ios_base::failure::failure
PUBLIC	??1failure@ios_base@std@@UAE@XZ			; std::ios_base::failure::~failure
PUBLIC	??0failure@ios_base@std@@QAE@ABV012@@Z		; std::ios_base::failure::failure
PUBLIC	??_Gfailure@ios_base@std@@UAEPAXI@Z		; std::ios_base::failure::`scalar deleting destructor'
PUBLIC	?clear@ios_base@std@@QAEXH_N@Z			; std::ios_base::clear
PUBLIC	?clear@ios_base@std@@QAEXH@Z			; std::ios_base::clear
PUBLIC	?rdstate@ios_base@std@@QBEHXZ			; std::ios_base::rdstate
PUBLIC	?good@ios_base@std@@QBE_NXZ			; std::ios_base::good
PUBLIC	?flags@ios_base@std@@QBEHXZ			; std::ios_base::flags
PUBLIC	?setf@ios_base@std@@QAEHHH@Z			; std::ios_base::setf
PUBLIC	?precision@ios_base@std@@QBE_JXZ		; std::ios_base::precision
PUBLIC	?width@ios_base@std@@QBE_JXZ			; std::ios_base::width
PUBLIC	?width@ios_base@std@@QAE_J_J@Z			; std::ios_base::width
PUBLIC	?getloc@ios_base@std@@QBE?AVlocale@2@XZ		; std::ios_base::getloc
PUBLIC	??1ios_base@std@@UAE@XZ				; std::ios_base::~ios_base
PUBLIC	??0ios_base@std@@IAE@XZ				; std::ios_base::ios_base
PUBLIC	?_Init@ios_base@std@@IAEXXZ			; std::ios_base::_Init
PUBLIC	??_Gios_base@std@@UAEPAXI@Z			; std::ios_base::`scalar deleting destructor'
PUBLIC	?fixed@std@@YAAAVios_base@1@AAV21@@Z		; std::fixed
PUBLIC	??0Vector2D@@QAE@NN@Z				; Vector2D::Vector2D
PUBLIC	??H@YA?AUVector2D@@ABU0@0@Z			; operator+
PUBLIC	?isTargetPresent@Raven_TargetingSystem@@QBE_NXZ	; Raven_TargetingSystem::isTargetPresent
PUBLIC	?GetBrain@Raven_Bot@@QAEQAVGoal_Think@@XZ	; Raven_Bot::GetBrain
PUBLIC	?GetTargetSys@Raven_Bot@@QAEQAVRaven_TargetingSystem@@XZ ; Raven_Bot::GetTargetSys
PUBLIC	?CalculateDesirability@AttackTargetGoal_Evaluator@@UAENPAVRaven_Bot@@@Z ; AttackTargetGoal_Evaluator::CalculateDesirability
PUBLIC	?SetGoal@AttackTargetGoal_Evaluator@@UAEXPAVRaven_Bot@@@Z ; AttackTargetGoal_Evaluator::SetGoal
PUBLIC	?RenderInfo@AttackTargetGoal_Evaluator@@UAEXUVector2D@@PAVRaven_Bot@@@Z ; AttackTargetGoal_Evaluator::RenderInfo
PUBLIC	?TextAtPos@Cgdi@@QAEXUVector2D@@ABV?$basic_string@DU?$char_traits@D@std@@V?$allocator@D@2@@std@@@Z ; Cgdi::TextAtPos
PUBLIC	??$ttos@N@@YA?AV?$basic_string@DU?$char_traits@D@std@@V?$allocator@D@2@@std@@ABNH@Z ; ttos<double>
PUBLIC	??$?HDU?$char_traits@D@std@@V?$allocator@D@1@@std@@YA?AV?$basic_string@DU?$char_traits@D@std@@V?$allocator@D@2@@0@QBD$$QAV10@@Z ; std::operator+<char,std::char_traits<char>,std::allocator<char> >
PUBLIC	??$?HDU?$char_traits@D@std@@V?$allocator@D@1@@std@@YA?AV?$basic_string@DU?$char_traits@D@std@@V?$allocator@D@2@@0@$$QAV10@QBD@Z ; std::operator+<char,std::char_traits<char>,std::allocator<char> >
PUBLIC	??$?HDU?$char_traits@D@std@@V?$allocator@D@1@@std@@YA?AV?$basic_string@DU?$char_traits@D@std@@V?$allocator@D@2@@0@$$QAV10@0@Z ; std::operator+<char,std::char_traits<char>,std::allocator<char> >
PUBLIC	??$_Min_value@I@std@@YAABIABI0@Z		; std::_Min_value<unsigned int>
PUBLIC	??$_Unfancy@D@std@@YAPADPAD@Z			; std::_Unfancy<char>
PUBLIC	??$move@AAV?$allocator@D@std@@@std@@YA$$QAV?$allocator@D@0@AAV10@@Z ; std::move<std::allocator<char> &>
PUBLIC	??$?0V?$allocator@D@std@@X@?$_String_alloc@U?$_String_base_types@DV?$allocator@D@std@@@std@@@std@@QAE@$$QAV?$allocator@D@1@@Z ; std::_String_alloc<std::_String_base_types<char,std::allocator<char> > >::_String_alloc<std::_String_base_types<char,std::allocator<char> > ><std::allocator<char>,void>
PUBLIC	??$move@AAV?$basic_string@DU?$char_traits@D@std@@V?$allocator@D@2@@std@@@std@@YA$$QAV?$basic_string@DU?$char_traits@D@std@@V?$allocator@D@2@@0@AAV10@@Z ; std::move<std::basic_string<char,std::char_traits<char>,std::allocator<char> > &>
PUBLIC	??$?0$$V@?$_Compressed_pair@V?$allocator@D@std@@V?$_String_val@U?$_Simple_types@D@std@@@2@$00@std@@QAE@U_Zero_then_variadic_args_t@1@@Z ; std::_Compressed_pair<std::allocator<char>,std::_String_val<std::_Simple_types<char> >,1>::_Compressed_pair<std::allocator<char>,std::_String_val<std::_Simple_types<char> >,1><>
PUBLIC	??$addressof@PAD@std@@YAPAPADAAPAD@Z		; std::addressof<char *>
PUBLIC	??$destroy@PAD@?$_Default_allocator_traits@V?$allocator@D@std@@@std@@SAXAAV?$allocator@D@1@QAPAD@Z ; std::_Default_allocator_traits<std::allocator<char> >::destroy<char *>
PUBLIC	??$_Max_value@I@std@@YAABIABI0@Z		; std::_Max_value<unsigned int>
PUBLIC	??R<lambda_c6753c90be971fc9cc00b4f35f237a75>@@QBE@QADID@Z ; <lambda_c6753c90be971fc9cc00b4f35f237a75>::operator()
PUBLIC	??$_Reallocate_for@V<lambda_c6753c90be971fc9cc00b4f35f237a75>@@D@?$basic_string@DU?$char_traits@D@std@@V?$allocator@D@2@@std@@QAEAAV01@IV<lambda_c6753c90be971fc9cc00b4f35f237a75>@@D@Z ; std::basic_string<char,std::char_traits<char>,std::allocator<char> >::_Reallocate_for<<lambda_c6753c90be971fc9cc00b4f35f237a75>,char>
PUBLIC	??R<lambda_9366063389c5f42a00a5088cf24e69de>@@QBE@QADIQBD@Z ; <lambda_9366063389c5f42a00a5088cf24e69de>::operator()
PUBLIC	??$_Reallocate_for@V<lambda_9366063389c5f42a00a5088cf24e69de>@@PBD@?$basic_string@DU?$char_traits@D@std@@V?$allocator@D@2@@std@@QAEAAV01@IV<lambda_9366063389c5f42a00a5088cf24e69de>@@PBD@Z ; std::basic_string<char,std::char_traits<char>,std::allocator<char> >::_Reallocate_for<<lambda_9366063389c5f42a00a5088cf24e69de>,char const *>
PUBLIC	??R<lambda_c1b8c41cb4019640539cfd828748c4d4>@@QBE@QADQBDIID@Z ; <lambda_c1b8c41cb4019640539cfd828748c4d4>::operator()
PUBLIC	??$_Reallocate_grow_by@V<lambda_c1b8c41cb4019640539cfd828748c4d4>@@ID@?$basic_string@DU?$char_traits@D@std@@V?$allocator@D@2@@std@@QAEAAV01@IV<lambda_c1b8c41cb4019640539cfd828748c4d4>@@ID@Z ; std::basic_string<char,std::char_traits<char>,std::allocator<char> >::_Reallocate_grow_by<<lambda_c1b8c41cb4019640539cfd828748c4d4>,unsigned int,char>
PUBLIC	??R<lambda_ab246b20b9526e2ef7792587e4298a77>@@QBE@QADQBDI1I@Z ; <lambda_ab246b20b9526e2ef7792587e4298a77>::operator()
PUBLIC	??$_Reallocate_grow_by@V<lambda_ab246b20b9526e2ef7792587e4298a77>@@PBDI@?$basic_string@DU?$char_traits@D@std@@V?$allocator@D@2@@std@@QAEAAV01@IV<lambda_ab246b20b9526e2ef7792587e4298a77>@@PBDI@Z ; std::basic_string<char,std::char_traits<char>,std::allocator<char> >::_Reallocate_grow_by<<lambda_ab246b20b9526e2ef7792587e4298a77>,char const *,unsigned int>
PUBLIC	??$construct@PADABQAD@?$_Default_allocator_traits@V?$allocator@D@std@@@std@@SAXAAV?$allocator@D@1@QAPADABQAD@Z ; std::_Default_allocator_traits<std::allocator<char> >::construct<char *,char * const &>
PUBLIC	??$addressof@V?$_String_val@U?$_Simple_types@D@std@@@std@@@std@@YAPAV?$_String_val@U?$_Simple_types@D@std@@@0@AAV10@@Z ; std::addressof<std::_String_val<std::_Simple_types<char> > >
PUBLIC	??$_Allocate@$07U_Default_allocate_traits@std@@$0A@@std@@YAPAXI@Z ; std::_Allocate<8,std::_Default_allocate_traits,0>
PUBLIC	??$_Deallocate@$07$0A@@std@@YAXPAXI@Z		; std::_Deallocate<8,0>
PUBLIC	?allocate@?$allocator@U_Container_proxy@std@@@std@@QAEPAU_Container_proxy@2@I@Z ; std::allocator<std::_Container_proxy>::allocate
PUBLIC	?deallocate@?$_Default_allocator_traits@V?$allocator@U_Container_proxy@std@@@std@@@std@@SAXAAV?$allocator@U_Container_proxy@std@@@2@QAU_Container_proxy@2@I@Z ; std::_Default_allocator_traits<std::allocator<std::_Container_proxy> >::deallocate
PUBLIC	??$destroy@U_Container_proxy@std@@@?$_Default_allocator_traits@V?$allocator@U_Container_proxy@std@@@std@@@std@@SAXAAV?$allocator@U_Container_proxy@std@@@1@QAU_Container_proxy@1@@Z ; std::_Default_allocator_traits<std::allocator<std::_Container_proxy> >::destroy<std::_Container_proxy>
PUBLIC	??$_Deallocate_plain@V?$allocator@U_Container_proxy@std@@@std@@$0A@@std@@YAXAAV?$allocator@U_Container_proxy@std@@@0@QAU_Container_proxy@0@@Z ; std::_Deallocate_plain<std::allocator<std::_Container_proxy>,0>
PUBLIC	??$_Unfancy@U_Container_proxy@std@@@std@@YAPAU_Container_proxy@0@PAU10@@Z ; std::_Unfancy<std::_Container_proxy>
PUBLIC	??$construct@U_Container_proxy@std@@U12@@?$_Default_allocator_traits@V?$allocator@U_Container_proxy@std@@@std@@@std@@SAXAAV?$allocator@U_Container_proxy@std@@@1@QAU_Container_proxy@1@$$QAU31@@Z ; std::_Default_allocator_traits<std::allocator<std::_Container_proxy> >::construct<std::_Container_proxy,std::_Container_proxy>
PUBLIC	??$?0D@?$allocator@U_Container_proxy@std@@@std@@QAE@ABV?$allocator@D@1@@Z ; std::allocator<std::_Container_proxy>::allocator<std::_Container_proxy><char>
PUBLIC	??$_Get_size_of_n@$07@std@@YAII@Z		; std::_Get_size_of_n<8>
PUBLIC	??$_Verify_range@D@std@@YAXQBD0@Z		; std::_Verify_range<char>
PUBLIC	??$_Adl_verify_range1@PBDPBD@std@@YAXABQBD0U?$integral_constant@_N$00@0@@Z ; std::_Adl_verify_range1<char const *,char const *>
PUBLIC	??R?$default_delete@V_Facet_base@std@@@std@@QBEXPAV_Facet_base@1@@Z ; std::default_delete<std::_Facet_base>::operator()
PUBLIC	?get_deleter@?$_Unique_ptr_base@V_Facet_base@std@@U?$default_delete@V_Facet_base@std@@@2@@std@@QAEAAU?$default_delete@V_Facet_base@std@@@2@XZ ; std::_Unique_ptr_base<std::_Facet_base,std::default_delete<std::_Facet_base> >::get_deleter
PUBLIC	?_Myptr@?$_Unique_ptr_base@V_Facet_base@std@@U?$default_delete@V_Facet_base@std@@@2@@std@@QAEAAPAV_Facet_base@2@XZ ; std::_Unique_ptr_base<std::_Facet_base,std::default_delete<std::_Facet_base> >::_Myptr
PUBLIC	?_Myptr@?$_Unique_ptr_base@V_Facet_base@std@@U?$default_delete@V_Facet_base@std@@@2@@std@@QBEABQAV_Facet_base@2@XZ ; std::_Unique_ptr_base<std::_Facet_base,std::default_delete<std::_Facet_base> >::_Myptr
PUBLIC	?_Get_first@?$_Compressed_pair@U?$default_delete@V_Facet_base@std@@@std@@PAV_Facet_base@2@$00@std@@QAEAAU?$default_delete@V_Facet_base@std@@@2@XZ ; std::_Compressed_pair<std::default_delete<std::_Facet_base>,std::_Facet_base *,1>::_Get_first
PUBLIC	?_Get_second@?$_Compressed_pair@U?$default_delete@V_Facet_base@std@@@std@@PAV_Facet_base@2@$00@std@@QAEAAPAV_Facet_base@2@XZ ; std::_Compressed_pair<std::default_delete<std::_Facet_base>,std::_Facet_base *,1>::_Get_second
PUBLIC	?_Get_second@?$_Compressed_pair@U?$default_delete@V_Facet_base@std@@@std@@PAV_Facet_base@2@$00@std@@QBEABQAV_Facet_base@2@XZ ; std::_Compressed_pair<std::default_delete<std::_Facet_base>,std::_Facet_base *,1>::_Get_second
PUBLIC	??1?$unique_ptr@V_Facet_base@std@@U?$default_delete@V_Facet_base@std@@@2@@std@@QAE@XZ ; std::unique_ptr<std::_Facet_base,std::default_delete<std::_Facet_base> >::~unique_ptr<std::_Facet_base,std::default_delete<std::_Facet_base> >
PUBLIC	?get@?$unique_ptr@V_Facet_base@std@@U?$default_delete@V_Facet_base@std@@@2@@std@@QBEPAV_Facet_base@2@XZ ; std::unique_ptr<std::_Facet_base,std::default_delete<std::_Facet_base> >::get
PUBLIC	?release@?$unique_ptr@V_Facet_base@std@@U?$default_delete@V_Facet_base@std@@@2@@std@@QAEPAV_Facet_base@2@XZ ; std::unique_ptr<std::_Facet_base,std::default_delete<std::_Facet_base> >::release
PUBLIC	??$?0U?$default_delete@V_Facet_base@std@@@std@@$0A@@?$unique_ptr@V_Facet_base@std@@U?$default_delete@V_Facet_base@std@@@2@@std@@QAE@PAV_Facet_base@1@@Z ; std::unique_ptr<std::_Facet_base,std::default_delete<std::_Facet_base> >::unique_ptr<std::_Facet_base,std::default_delete<std::_Facet_base> ><std::default_delete<std::_Facet_base>,0>
PUBLIC	??$_Immortalize_impl@V_Iostream_error_category@std@@@std@@YGHPAX0PAPAX@Z ; std::_Immortalize_impl<std::_Iostream_error_category>
PUBLIC	??1?$basic_ios@DU?$char_traits@D@std@@@std@@UAE@XZ ; std::basic_ios<char,std::char_traits<char> >::~basic_ios<char,std::char_traits<char> >
PUBLIC	?clear@?$basic_ios@DU?$char_traits@D@std@@@std@@QAEXH_N@Z ; std::basic_ios<char,std::char_traits<char> >::clear
PUBLIC	?setstate@?$basic_ios@DU?$char_traits@D@std@@@std@@QAEXH_N@Z ; std::basic_ios<char,std::char_traits<char> >::setstate
PUBLIC	?tie@?$basic_ios@DU?$char_traits@D@std@@@std@@QBEPAV?$basic_ostream@DU?$char_traits@D@std@@@2@XZ ; std::basic_ios<char,std::char_traits<char> >::tie
PUBLIC	?rdbuf@?$basic_ios@DU?$char_traits@D@std@@@std@@QBEPAV?$basic_streambuf@DU?$char_traits@D@std@@@2@XZ ; std::basic_ios<char,std::char_traits<char> >::rdbuf
PUBLIC	?fill@?$basic_ios@DU?$char_traits@D@std@@@std@@QBEDXZ ; std::basic_ios<char,std::char_traits<char> >::fill
PUBLIC	?widen@?$basic_ios@DU?$char_traits@D@std@@@std@@QBEDD@Z ; std::basic_ios<char,std::char_traits<char> >::widen
PUBLIC	?init@?$basic_ios@DU?$char_traits@D@std@@@std@@IAEXPAV?$basic_streambuf@DU?$char_traits@D@std@@@2@_N@Z ; std::basic_ios<char,std::char_traits<char> >::init
PUBLIC	??0?$basic_ios@DU?$char_traits@D@std@@@std@@IAE@XZ ; std::basic_ios<char,std::char_traits<char> >::basic_ios<char,std::char_traits<char> >
PUBLIC	??_G?$basic_ios@DU?$char_traits@D@std@@@std@@UAEPAXI@Z ; std::basic_ios<char,std::char_traits<char> >::`scalar deleting destructor'
PUBLIC	??0?$basic_ostream@DU?$char_traits@D@std@@@std@@QAE@PAV?$basic_streambuf@DU?$char_traits@D@std@@@1@_N@Z ; std::basic_ostream<char,std::char_traits<char> >::basic_ostream<char,std::char_traits<char> >
PUBLIC	??1?$basic_ostream@DU?$char_traits@D@std@@@std@@UAE@XZ ; std::basic_ostream<char,std::char_traits<char> >::~basic_ostream<char,std::char_traits<char> >
PUBLIC	?_Osfx@?$basic_ostream@DU?$char_traits@D@std@@@std@@QAEXXZ ; std::basic_ostream<char,std::char_traits<char> >::_Osfx
PUBLIC	??6?$basic_ostream@DU?$char_traits@D@std@@@std@@QAEAAV01@P6AAAVios_base@1@AAV21@@Z@Z ; std::basic_ostream<char,std::char_traits<char> >::operator<<
PUBLIC	??6?$basic_ostream@DU?$char_traits@D@std@@@std@@QAEAAV01@N@Z ; std::basic_ostream<char,std::char_traits<char> >::operator<<
PUBLIC	?flush@?$basic_ostream@DU?$char_traits@D@std@@@std@@QAEAAV12@XZ ; std::basic_ostream<char,std::char_traits<char> >::flush
PUBLIC	??_G?$basic_ostream@DU?$char_traits@D@std@@@std@@UAEPAXI@Z ; std::basic_ostream<char,std::char_traits<char> >::`scalar deleting destructor'
PUBLIC	??_D?$basic_ostream@DU?$char_traits@D@std@@@std@@QAEXXZ ; std::basic_ostream<char,std::char_traits<char> >::`vbase destructor'
PUBLIC	??0?$basic_ostringstream@DU?$char_traits@D@std@@V?$allocator@D@2@@std@@QAE@H@Z ; std::basic_ostringstream<char,std::char_traits<char>,std::allocator<char> >::basic_ostringstream<char,std::char_traits<char>,std::allocator<char> >
PUBLIC	??1?$basic_ostringstream@DU?$char_traits@D@std@@V?$allocator@D@2@@std@@UAE@XZ ; std::basic_ostringstream<char,std::char_traits<char>,std::allocator<char> >::~basic_ostringstream<char,std::char_traits<char>,std::allocator<char> >
PUBLIC	?str@?$basic_ostringstream@DU?$char_traits@D@std@@V?$allocator@D@2@@std@@QBE?AV?$basic_string@DU?$char_traits@D@std@@V?$allocator@D@2@@2@XZ ; std::basic_ostringstream<char,std::char_traits<char>,std::allocator<char> >::str
PUBLIC	??0?$basic_streambuf@DU?$char_traits@D@std@@@std@@IAE@XZ ; std::basic_streambuf<char,std::char_traits<char> >::basic_streambuf<char,std::char_traits<char> >
PUBLIC	??1?$basic_streambuf@DU?$char_traits@D@std@@@std@@UAE@XZ ; std::basic_streambuf<char,std::char_traits<char> >::~basic_streambuf<char,std::char_traits<char> >
PUBLIC	?pubsync@?$basic_streambuf@DU?$char_traits@D@std@@@std@@QAEHXZ ; std::basic_streambuf<char,std::char_traits<char> >::pubsync
PUBLIC	?sputc@?$basic_streambuf@DU?$char_traits@D@std@@@std@@QAEHD@Z ; std::basic_streambuf<char,std::char_traits<char> >::sputc
PUBLIC	?_Lock@?$basic_streambuf@DU?$char_traits@D@std@@@std@@UAEXXZ ; std::basic_streambuf<char,std::char_traits<char> >::_Lock
PUBLIC	?_Unlock@?$basic_streambuf@DU?$char_traits@D@std@@@std@@UAEXXZ ; std::basic_streambuf<char,std::char_traits<char> >::_Unlock
PUBLIC	?eback@?$basic_streambuf@DU?$char_traits@D@std@@@std@@IBEPADXZ ; std::basic_streambuf<char,std::char_traits<char> >::eback
PUBLIC	?gptr@?$basic_streambuf@DU?$char_traits@D@std@@@std@@IBEPADXZ ; std::basic_streambuf<char,std::char_traits<char> >::gptr
PUBLIC	?pbase@?$basic_streambuf@DU?$char_traits@D@std@@@std@@IBEPADXZ ; std::basic_streambuf<char,std::char_traits<char> >::pbase
PUBLIC	?pptr@?$basic_streambuf@DU?$char_traits@D@std@@@std@@IBEPADXZ ; std::basic_streambuf<char,std::char_traits<char> >::pptr
PUBLIC	?egptr@?$basic_streambuf@DU?$char_traits@D@std@@@std@@IBEPADXZ ; std::basic_streambuf<char,std::char_traits<char> >::egptr
PUBLIC	?gbump@?$basic_streambuf@DU?$char_traits@D@std@@@std@@IAEXH@Z ; std::basic_streambuf<char,std::char_traits<char> >::gbump
PUBLIC	?setg@?$basic_streambuf@DU?$char_traits@D@std@@@std@@IAEXPAD00@Z ; std::basic_streambuf<char,std::char_traits<char> >::setg
PUBLIC	?epptr@?$basic_streambuf@DU?$char_traits@D@std@@@std@@IBEPADXZ ; std::basic_streambuf<char,std::char_traits<char> >::epptr
PUBLIC	?_Gninc@?$basic_streambuf@DU?$char_traits@D@std@@@std@@IAEPADXZ ; std::basic_streambuf<char,std::char_traits<char> >::_Gninc
PUBLIC	?_Gnavail@?$basic_streambuf@DU?$char_traits@D@std@@@std@@IBE_JXZ ; std::basic_streambuf<char,std::char_traits<char> >::_Gnavail
PUBLIC	?pbump@?$basic_streambuf@DU?$char_traits@D@std@@@std@@IAEXH@Z ; std::basic_streambuf<char,std::char_traits<char> >::pbump
PUBLIC	?setp@?$basic_streambuf@DU?$char_traits@D@std@@@std@@IAEXPAD0@Z ; std::basic_streambuf<char,std::char_traits<char> >::setp
PUBLIC	?setp@?$basic_streambuf@DU?$char_traits@D@std@@@std@@IAEXPAD00@Z ; std::basic_streambuf<char,std::char_traits<char> >::setp
PUBLIC	?_Pninc@?$basic_streambuf@DU?$char_traits@D@std@@@std@@IAEPADXZ ; std::basic_streambuf<char,std::char_traits<char> >::_Pninc
PUBLIC	?_Pnavail@?$basic_streambuf@DU?$char_traits@D@std@@@std@@IBE_JXZ ; std::basic_streambuf<char,std::char_traits<char> >::_Pnavail
PUBLIC	?_Init@?$basic_streambuf@DU?$char_traits@D@std@@@std@@IAEXXZ ; std::basic_streambuf<char,std::char_traits<char> >::_Init
PUBLIC	?overflow@?$basic_streambuf@DU?$char_traits@D@std@@@std@@MAEHH@Z ; std::basic_streambuf<char,std::char_traits<char> >::overflow
PUBLIC	?pbackfail@?$basic_streambuf@DU?$char_traits@D@std@@@std@@MAEHH@Z ; std::basic_streambuf<char,std::char_traits<char> >::pbackfail
PUBLIC	?showmanyc@?$basic_streambuf@DU?$char_traits@D@std@@@std@@MAE_JXZ ; std::basic_streambuf<char,std::char_traits<char> >::showmanyc
PUBLIC	?underflow@?$basic_streambuf@DU?$char_traits@D@std@@@std@@MAEHXZ ; std::basic_streambuf<char,std::char_traits<char> >::underflow
PUBLIC	?uflow@?$basic_streambuf@DU?$char_traits@D@std@@@std@@MAEHXZ ; std::basic_streambuf<char,std::char_traits<char> >::uflow
PUBLIC	?xsgetn@?$basic_streambuf@DU?$char_traits@D@std@@@std@@MAE_JPAD_J@Z ; std::basic_streambuf<char,std::char_traits<char> >::xsgetn
PUBLIC	?xsputn@?$basic_streambuf@DU?$char_traits@D@std@@@std@@MAE_JPBD_J@Z ; std::basic_streambuf<char,std::char_traits<char> >::xsputn
PUBLIC	?seekoff@?$basic_streambuf@DU?$char_traits@D@std@@@std@@MAE?AV?$fpos@U_Mbstatet@@@2@_JHH@Z ; std::basic_streambuf<char,std::char_traits<char> >::seekoff
PUBLIC	?seekpos@?$basic_streambuf@DU?$char_traits@D@std@@@std@@MAE?AV?$fpos@U_Mbstatet@@@2@V32@H@Z ; std::basic_streambuf<char,std::char_traits<char> >::seekpos
PUBLIC	?setbuf@?$basic_streambuf@DU?$char_traits@D@std@@@std@@MAEPAV12@PAD_J@Z ; std::basic_streambuf<char,std::char_traits<char> >::setbuf
PUBLIC	?sync@?$basic_streambuf@DU?$char_traits@D@std@@@std@@MAEHXZ ; std::basic_streambuf<char,std::char_traits<char> >::sync
PUBLIC	?imbue@?$basic_streambuf@DU?$char_traits@D@std@@@std@@MAEXABVlocale@2@@Z ; std::basic_streambuf<char,std::char_traits<char> >::imbue
PUBLIC	??_G?$basic_streambuf@DU?$char_traits@D@std@@@std@@UAEPAXI@Z ; std::basic_streambuf<char,std::char_traits<char> >::`scalar deleting destructor'
PUBLIC	??0?$basic_stringbuf@DU?$char_traits@D@std@@V?$allocator@D@2@@std@@QAE@H@Z ; std::basic_stringbuf<char,std::char_traits<char>,std::allocator<char> >::basic_stringbuf<char,std::char_traits<char>,std::allocator<char> >
PUBLIC	??1?$basic_stringbuf@DU?$char_traits@D@std@@V?$allocator@D@2@@std@@UAE@XZ ; std::basic_stringbuf<char,std::char_traits<char>,std::allocator<char> >::~basic_stringbuf<char,std::char_traits<char>,std::allocator<char> >
PUBLIC	?str@?$basic_stringbuf@DU?$char_traits@D@std@@V?$allocator@D@2@@std@@QBE?AV?$basic_string@DU?$char_traits@D@std@@V?$allocator@D@2@@2@XZ ; std::basic_stringbuf<char,std::char_traits<char>,std::allocator<char> >::str
PUBLIC	?overflow@?$basic_stringbuf@DU?$char_traits@D@std@@V?$allocator@D@2@@std@@MAEHH@Z ; std::basic_stringbuf<char,std::char_traits<char>,std::allocator<char> >::overflow
PUBLIC	?pbackfail@?$basic_stringbuf@DU?$char_traits@D@std@@V?$allocator@D@2@@std@@MAEHH@Z ; std::basic_stringbuf<char,std::char_traits<char>,std::allocator<char> >::pbackfail
PUBLIC	?underflow@?$basic_stringbuf@DU?$char_traits@D@std@@V?$allocator@D@2@@std@@MAEHXZ ; std::basic_stringbuf<char,std::char_traits<char>,std::allocator<char> >::underflow
PUBLIC	?seekoff@?$basic_stringbuf@DU?$char_traits@D@std@@V?$allocator@D@2@@std@@MAE?AV?$fpos@U_Mbstatet@@@2@_JHH@Z ; std::basic_stringbuf<char,std::char_traits<char>,std::allocator<char> >::seekoff
PUBLIC	?seekpos@?$basic_stringbuf@DU?$char_traits@D@std@@V?$allocator@D@2@@std@@MAE?AV?$fpos@U_Mbstatet@@@2@V32@H@Z ; std::basic_stringbuf<char,std::char_traits<char>,std::allocator<char> >::seekpos
PUBLIC	?_Tidy@?$basic_stringbuf@DU?$char_traits@D@std@@V?$allocator@D@2@@std@@IAEXXZ ; std::basic_stringbuf<char,std::char_traits<char>,std::allocator<char> >::_Tidy
PUBLIC	?_Getstate@?$basic_stringbuf@DU?$char_traits@D@std@@V?$allocator@D@2@@std@@CAHH@Z ; std::basic_stringbuf<char,std::char_traits<char>,std::allocator<char> >::_Getstate
PUBLIC	??_G?$basic_stringbuf@DU?$char_traits@D@std@@V?$allocator@D@2@@std@@UAEPAXI@Z ; std::basic_stringbuf<char,std::char_traits<char>,std::allocator<char> >::`scalar deleting destructor'
PUBLIC	??_G?$basic_ostringstream@DU?$char_traits@D@std@@V?$allocator@D@2@@std@@UAEPAXI@Z ; std::basic_ostringstream<char,std::char_traits<char>,std::allocator<char> >::`scalar deleting destructor'
PUBLIC	??_D?$basic_ostringstream@DU?$char_traits@D@std@@V?$allocator@D@2@@std@@QAEXXZ ; std::basic_ostringstream<char,std::char_traits<char>,std::allocator<char> >::`vbase destructor'
PUBLIC	??$?6DU?$char_traits@D@std@@_J@std@@YAAAV?$basic_ostream@DU?$char_traits@D@std@@@0@AAV10@ABU?$_Smanip@_J@0@@Z ; std::operator<<<char,std::char_traits<char>,__int64>
PUBLIC	??$forward@V?$allocator@D@std@@@std@@YA$$QAV?$allocator@D@0@AAV10@@Z ; std::forward<std::allocator<char> >
PUBLIC	??$?0V?$allocator@D@std@@$$V@?$_Compressed_pair@V?$allocator@D@std@@V?$_String_val@U?$_Simple_types@D@std@@@2@$00@std@@QAE@U_One_then_variadic_args_t@1@$$QAV?$allocator@D@1@@Z ; std::_Compressed_pair<std::allocator<char>,std::_String_val<std::_Simple_types<char> >,1>::_Compressed_pair<std::allocator<char>,std::_String_val<std::_Simple_types<char> >,1><std::allocator<char> >
PUBLIC	??$forward@ABQAD@std@@YAABQADABQAD@Z		; std::forward<char * const &>
PUBLIC	??$_Allocate_manually_vector_aligned@U_Default_allocate_traits@std@@@std@@YAPAXI@Z ; std::_Allocate_manually_vector_aligned<std::_Default_allocate_traits>
PUBLIC	??$forward@U_Container_proxy@std@@@std@@YA$$QAU_Container_proxy@0@AAU10@@Z ; std::forward<std::_Container_proxy>
PUBLIC	??0?$fpos@U_Mbstatet@@@std@@QAE@_J@Z		; std::fpos<_Mbstatet>::fpos<_Mbstatet>
PUBLIC	??B?$fpos@U_Mbstatet@@@std@@QBE_JXZ		; std::fpos<_Mbstatet>::operator __int64
PUBLIC	??$_Max_value@PAD@std@@YAABQADABQAD0@Z		; std::_Max_value<char *>
PUBLIC	?pointer_to@?$pointer_traits@PAD@std@@SAPADAAD@Z ; std::pointer_traits<char *>::pointer_to
PUBLIC	??0_Sentry_base@?$basic_ostream@DU?$char_traits@D@std@@@std@@QAE@AAV12@@Z ; std::basic_ostream<char,std::char_traits<char> >::_Sentry_base::_Sentry_base
PUBLIC	??1_Sentry_base@?$basic_ostream@DU?$char_traits@D@std@@@std@@QAE@XZ ; std::basic_ostream<char,std::char_traits<char> >::_Sentry_base::~_Sentry_base
PUBLIC	??0sentry@?$basic_ostream@DU?$char_traits@D@std@@@std@@QAE@AAV12@@Z ; std::basic_ostream<char,std::char_traits<char> >::sentry::sentry
PUBLIC	??1sentry@?$basic_ostream@DU?$char_traits@D@std@@@std@@QAE@XZ ; std::basic_ostream<char,std::char_traits<char> >::sentry::~sentry
PUBLIC	??Bsentry@?$basic_ostream@DU?$char_traits@D@std@@@std@@QBE_NXZ ; std::basic_ostream<char,std::char_traits<char> >::sentry::operator bool
PUBLIC	??$use_facet@V?$num_put@DV?$ostreambuf_iterator@DU?$char_traits@D@std@@@std@@@std@@@std@@YAABV?$num_put@DV?$ostreambuf_iterator@DU?$char_traits@D@std@@@std@@@0@ABVlocale@0@@Z ; std::use_facet<std::num_put<char,std::ostreambuf_iterator<char,std::char_traits<char> > > >
PUBLIC	?_Getcat@?$num_put@DV?$ostreambuf_iterator@DU?$char_traits@D@std@@@std@@@std@@SAIPAPBVfacet@locale@2@PBV42@@Z ; std::num_put<char,std::ostreambuf_iterator<char,std::char_traits<char> > >::_Getcat
PUBLIC	??1?$num_put@DV?$ostreambuf_iterator@DU?$char_traits@D@std@@@std@@@std@@MAE@XZ ; std::num_put<char,std::ostreambuf_iterator<char,std::char_traits<char> > >::~num_put<char,std::ostreambuf_iterator<char,std::char_traits<char> > >
PUBLIC	?_Init@?$num_put@DV?$ostreambuf_iterator@DU?$char_traits@D@std@@@std@@@std@@IAEXABV_Locinfo@2@@Z ; std::num_put<char,std::ostreambuf_iterator<char,std::char_traits<char> > >::_Init
PUBLIC	??0?$num_put@DV?$ostreambuf_iterator@DU?$char_traits@D@std@@@std@@@std@@QAE@ABV_Locinfo@1@I@Z ; std::num_put<char,std::ostreambuf_iterator<char,std::char_traits<char> > >::num_put<char,std::ostreambuf_iterator<char,std::char_traits<char> > >
PUBLIC	?put@?$num_put@DV?$ostreambuf_iterator@DU?$char_traits@D@std@@@std@@@std@@QBE?AV?$ostreambuf_iterator@DU?$char_traits@D@std@@@2@V32@AAVios_base@2@DN@Z ; std::num_put<char,std::ostreambuf_iterator<char,std::char_traits<char> > >::put
PUBLIC	?do_put@?$num_put@DV?$ostreambuf_iterator@DU?$char_traits@D@std@@@std@@@std@@MBE?AV?$ostreambuf_iterator@DU?$char_traits@D@std@@@2@V32@AAVios_base@2@D_N@Z ; std::num_put<char,std::ostreambuf_iterator<char,std::char_traits<char> > >::do_put
PUBLIC	?do_put@?$num_put@DV?$ostreambuf_iterator@DU?$char_traits@D@std@@@std@@@std@@MBE?AV?$ostreambuf_iterator@DU?$char_traits@D@std@@@2@V32@AAVios_base@2@DJ@Z ; std::num_put<char,std::ostreambuf_iterator<char,std::char_traits<char> > >::do_put
PUBLIC	?do_put@?$num_put@DV?$ostreambuf_iterator@DU?$char_traits@D@std@@@std@@@std@@MBE?AV?$ostreambuf_iterator@DU?$char_traits@D@std@@@2@V32@AAVios_base@2@DK@Z ; std::num_put<char,std::ostreambuf_iterator<char,std::char_traits<char> > >::do_put
PUBLIC	?do_put@?$num_put@DV?$ostreambuf_iterator@DU?$char_traits@D@std@@@std@@@std@@MBE?AV?$ostreambuf_iterator@DU?$char_traits@D@std@@@2@V32@AAVios_base@2@D_J@Z ; std::num_put<char,std::ostreambuf_iterator<char,std::char_traits<char> > >::do_put
PUBLIC	?do_put@?$num_put@DV?$ostreambuf_iterator@DU?$char_traits@D@std@@@std@@@std@@MBE?AV?$ostreambuf_iterator@DU?$char_traits@D@std@@@2@V32@AAVios_base@2@D_K@Z ; std::num_put<char,std::ostreambuf_iterator<char,std::char_traits<char> > >::do_put
PUBLIC	?do_put@?$num_put@DV?$ostreambuf_iterator@DU?$char_traits@D@std@@@std@@@std@@MBE?AV?$ostreambuf_iterator@DU?$char_traits@D@std@@@2@V32@AAVios_base@2@DN@Z ; std::num_put<char,std::ostreambuf_iterator<char,std::char_traits<char> > >::do_put
PUBLIC	?do_put@?$num_put@DV?$ostreambuf_iterator@DU?$char_traits@D@std@@@std@@@std@@MBE?AV?$ostreambuf_iterator@DU?$char_traits@D@std@@@2@V32@AAVios_base@2@DO@Z ; std::num_put<char,std::ostreambuf_iterator<char,std::char_traits<char> > >::do_put
PUBLIC	?do_put@?$num_put@DV?$ostreambuf_iterator@DU?$char_traits@D@std@@@std@@@std@@MBE?AV?$ostreambuf_iterator@DU?$char_traits@D@std@@@2@V32@AAVios_base@2@DPBX@Z ; std::num_put<char,std::ostreambuf_iterator<char,std::char_traits<char> > >::do_put
PUBLIC	?_Ffmt@?$num_put@DV?$ostreambuf_iterator@DU?$char_traits@D@std@@@std@@@std@@ABAPADPADDH@Z ; std::num_put<char,std::ostreambuf_iterator<char,std::char_traits<char> > >::_Ffmt
PUBLIC	?_Fput@?$num_put@DV?$ostreambuf_iterator@DU?$char_traits@D@std@@@std@@@std@@ABA?AV?$ostreambuf_iterator@DU?$char_traits@D@std@@@2@V32@AAVios_base@2@DPBDI@Z ; std::num_put<char,std::ostreambuf_iterator<char,std::char_traits<char> > >::_Fput
PUBLIC	?_Ifmt@?$num_put@DV?$ostreambuf_iterator@DU?$char_traits@D@std@@@std@@@std@@ABAPADPADPBDH@Z ; std::num_put<char,std::ostreambuf_iterator<char,std::char_traits<char> > >::_Ifmt
PUBLIC	?_Iput@?$num_put@DV?$ostreambuf_iterator@DU?$char_traits@D@std@@@std@@@std@@ABA?AV?$ostreambuf_iterator@DU?$char_traits@D@std@@@2@V32@AAVios_base@2@DPADI@Z ; std::num_put<char,std::ostreambuf_iterator<char,std::char_traits<char> > >::_Iput
PUBLIC	?_Put@?$num_put@DV?$ostreambuf_iterator@DU?$char_traits@D@std@@@std@@@std@@ABA?AV?$ostreambuf_iterator@DU?$char_traits@D@std@@@2@V32@PBDI@Z ; std::num_put<char,std::ostreambuf_iterator<char,std::char_traits<char> > >::_Put
PUBLIC	?_Rep@?$num_put@DV?$ostreambuf_iterator@DU?$char_traits@D@std@@@std@@@std@@ABA?AV?$ostreambuf_iterator@DU?$char_traits@D@std@@@2@V32@DI@Z ; std::num_put<char,std::ostreambuf_iterator<char,std::char_traits<char> > >::_Rep
PUBLIC	??_G?$num_put@DV?$ostreambuf_iterator@DU?$char_traits@D@std@@@std@@@std@@MAEPAXI@Z ; std::num_put<char,std::ostreambuf_iterator<char,std::char_traits<char> > >::`scalar deleting destructor'
PUBLIC	??0?$ostreambuf_iterator@DU?$char_traits@D@std@@@std@@QAE@PAV?$basic_streambuf@DU?$char_traits@D@std@@@1@@Z ; std::ostreambuf_iterator<char,std::char_traits<char> >::ostreambuf_iterator<char,std::char_traits<char> >
PUBLIC	??4?$ostreambuf_iterator@DU?$char_traits@D@std@@@std@@QAEAAV01@D@Z ; std::ostreambuf_iterator<char,std::char_traits<char> >::operator=
PUBLIC	??D?$ostreambuf_iterator@DU?$char_traits@D@std@@@std@@QAEAAV01@XZ ; std::ostreambuf_iterator<char,std::char_traits<char> >::operator*
PUBLIC	??E?$ostreambuf_iterator@DU?$char_traits@D@std@@@std@@QAEAAV01@XZ ; std::ostreambuf_iterator<char,std::char_traits<char> >::operator++
PUBLIC	?failed@?$ostreambuf_iterator@DU?$char_traits@D@std@@@std@@QBE_NXZ ; std::ostreambuf_iterator<char,std::char_traits<char> >::failed
PUBLIC	??$addressof@D@std@@YAPADAAD@Z			; std::addressof<char>
PUBLIC	??$use_facet@V?$numpunct@D@std@@@std@@YAABV?$numpunct@D@0@ABVlocale@0@@Z ; std::use_facet<std::numpunct<char> >
PUBLIC	?decimal_point@?$numpunct@D@std@@QBEDXZ		; std::numpunct<char>::decimal_point
PUBLIC	?thousands_sep@?$numpunct@D@std@@QBEDXZ		; std::numpunct<char>::thousands_sep
PUBLIC	?grouping@?$numpunct@D@std@@QBE?AV?$basic_string@DU?$char_traits@D@std@@V?$allocator@D@2@@2@XZ ; std::numpunct<char>::grouping
PUBLIC	?falsename@?$numpunct@D@std@@QBE?AV?$basic_string@DU?$char_traits@D@std@@V?$allocator@D@2@@2@XZ ; std::numpunct<char>::falsename
PUBLIC	?truename@?$numpunct@D@std@@QBE?AV?$basic_string@DU?$char_traits@D@std@@V?$allocator@D@2@@2@XZ ; std::numpunct<char>::truename
PUBLIC	??0?$numpunct@D@std@@QAE@ABV_Locinfo@1@I_N@Z	; std::numpunct<char>::numpunct<char>
PUBLIC	?_Getcat@?$numpunct@D@std@@SAIPAPBVfacet@locale@2@PBV42@@Z ; std::numpunct<char>::_Getcat
PUBLIC	??1?$numpunct@D@std@@MAE@XZ			; std::numpunct<char>::~numpunct<char>
PUBLIC	?_Init@?$numpunct@D@std@@IAEXABV_Locinfo@2@_N@Z	; std::numpunct<char>::_Init
PUBLIC	?do_decimal_point@?$numpunct@D@std@@MBEDXZ	; std::numpunct<char>::do_decimal_point
PUBLIC	?do_thousands_sep@?$numpunct@D@std@@MBEDXZ	; std::numpunct<char>::do_thousands_sep
PUBLIC	?do_grouping@?$numpunct@D@std@@MBE?AV?$basic_string@DU?$char_traits@D@std@@V?$allocator@D@2@@2@XZ ; std::numpunct<char>::do_grouping
PUBLIC	?do_falsename@?$numpunct@D@std@@MBE?AV?$basic_string@DU?$char_traits@D@std@@V?$allocator@D@2@@2@XZ ; std::numpunct<char>::do_falsename
PUBLIC	?do_truename@?$numpunct@D@std@@MBE?AV?$basic_string@DU?$char_traits@D@std@@V?$allocator@D@2@@2@XZ ; std::numpunct<char>::do_truename
PUBLIC	?_Tidy@?$numpunct@D@std@@AAEXXZ			; std::numpunct<char>::_Tidy
PUBLIC	??_G?$numpunct@D@std@@MAEPAXI@Z			; std::numpunct<char>::`scalar deleting destructor'
PUBLIC	??R<lambda_4d79bb85f269e6e8002a4599002d832c>@@QBE@QADQBDII1I@Z ; <lambda_4d79bb85f269e6e8002a4599002d832c>::operator()
PUBLIC	??$_Reallocate_grow_by@V<lambda_4d79bb85f269e6e8002a4599002d832c>@@IPBDI@?$basic_string@DU?$char_traits@D@std@@V?$allocator@D@2@@std@@QAEAAV01@IV<lambda_4d79bb85f269e6e8002a4599002d832c>@@IPBDI@Z ; std::basic_string<char,std::char_traits<char>,std::allocator<char> >::_Reallocate_grow_by<<lambda_4d79bb85f269e6e8002a4599002d832c>,unsigned int,char const *,unsigned int>
PUBLIC	??$?0ABV?$allocator@D@std@@X@?$_String_alloc@U?$_String_base_types@DV?$allocator@D@std@@@std@@@std@@QAE@ABV?$allocator@D@1@@Z ; std::_String_alloc<std::_String_base_types<char,std::allocator<char> > >::_String_alloc<std::_String_base_types<char,std::allocator<char> > ><std::allocator<char> const &,void>
PUBLIC	??R<lambda_6607a66f2a10a1261ff9db96cba1015b>@@QBE@QADQBDIIID@Z ; <lambda_6607a66f2a10a1261ff9db96cba1015b>::operator()
PUBLIC	??$_Reallocate_grow_by@V<lambda_6607a66f2a10a1261ff9db96cba1015b>@@IID@?$basic_string@DU?$char_traits@D@std@@V?$allocator@D@2@@std@@QAEAAV01@IV<lambda_6607a66f2a10a1261ff9db96cba1015b>@@IID@Z ; std::basic_string<char,std::char_traits<char>,std::allocator<char> >::_Reallocate_grow_by<<lambda_6607a66f2a10a1261ff9db96cba1015b>,unsigned int,unsigned int,char>
PUBLIC	??$addressof@V?$basic_string@DU?$char_traits@D@std@@V?$allocator@D@2@@std@@@std@@YAPAV?$basic_string@DU?$char_traits@D@std@@V?$allocator@D@2@@0@AAV10@@Z ; std::addressof<std::basic_string<char,std::char_traits<char>,std::allocator<char> > >
PUBLIC	??$?9DD@std@@YA_NABV?$allocator@D@0@0@Z		; std::operator!=<char,char>
PUBLIC	??$_Pocma@V?$allocator@D@std@@@std@@YAXAAV?$allocator@D@0@0@Z ; std::_Pocma<std::allocator<char> >
PUBLIC	??$?0PAV_Facet_base@std@@@?$_Unique_ptr_base@V_Facet_base@std@@U?$default_delete@V_Facet_base@std@@@2@@std@@QAE@PAV_Facet_base@1@@Z ; std::_Unique_ptr_base<std::_Facet_base,std::default_delete<std::_Facet_base> >::_Unique_ptr_base<std::_Facet_base,std::default_delete<std::_Facet_base> ><std::_Facet_base *>
PUBLIC	??$forward@ABV?$allocator@D@std@@@std@@YAABV?$allocator@D@0@ABV10@@Z ; std::forward<std::allocator<char> const &>
PUBLIC	??$?0ABV?$allocator@D@std@@$$V@?$_Compressed_pair@V?$allocator@D@std@@V?$_String_val@U?$_Simple_types@D@std@@@2@$00@std@@QAE@U_One_then_variadic_args_t@1@ABV?$allocator@D@1@@Z ; std::_Compressed_pair<std::allocator<char>,std::_String_val<std::_Simple_types<char> >,1>::_Compressed_pair<std::allocator<char>,std::_String_val<std::_Simple_types<char> >,1><std::allocator<char> const &>
PUBLIC	??$_Pocma@V?$allocator@D@std@@@std@@YAXAAV?$allocator@D@0@0U?$integral_constant@_N$00@0@@Z ; std::_Pocma<std::allocator<char> >
PUBLIC	??$_Maklocstr@D@std@@YAPADPBDPADABU_Cvtvec@@@Z	; std::_Maklocstr<char>
PUBLIC	??$_Maklocchr@D@std@@YADDPADABU_Cvtvec@@@Z	; std::_Maklocchr<char>
PUBLIC	??$_Getvals@D@?$numpunct@D@std@@IAEXDPBUlconv@@U_Cvtvec@@@Z ; std::numpunct<char>::_Getvals<char>
PUBLIC	??$?0AAPAV_Facet_base@std@@@?$_Compressed_pair@U?$default_delete@V_Facet_base@std@@@std@@PAV_Facet_base@2@$00@std@@QAE@U_Zero_then_variadic_args_t@1@AAPAV_Facet_base@1@@Z ; std::_Compressed_pair<std::default_delete<std::_Facet_base>,std::_Facet_base *,1>::_Compressed_pair<std::default_delete<std::_Facet_base>,std::_Facet_base *,1><std::_Facet_base * &>
PUBLIC	??$forward@AAPAV_Facet_base@std@@@std@@YAAAPAV_Facet_base@0@AAPAV10@@Z ; std::forward<std::_Facet_base * &>
PUBLIC	??_E?$basic_ostream@DU?$char_traits@D@std@@@std@@$4PPPPPPPM@A@AEPAXI@Z ; std::basic_ostream<char,std::char_traits<char> >::`vector deleting destructor'
PUBLIC	??_E?$basic_ostringstream@DU?$char_traits@D@std@@V?$allocator@D@2@@std@@$4PPPPPPPM@A@AEPAXI@Z ; std::basic_ostringstream<char,std::char_traits<char>,std::allocator<char> >::`vector deleting destructor'
PUBLIC	?_OptionsStorage@?1??__local_stdio_printf_options@@9@4_KA ; `__local_stdio_printf_options'::`2'::_OptionsStorage
PUBLIC	??_7exception@std@@6B@				; std::exception::`vftable'
PUBLIC	??_C@_0BC@EOODALEL@Unknown?5exception@		; `string'
PUBLIC	??_C@_0BB@FCMFBGOM@invalid?5argument@		; `string'
PUBLIC	??_C@_02DKCKIIND@?$CFs@				; `string'
PUBLIC	??_C@_1CG@JNLFBNGN@?$AA?$CC?$AAi?$AAn?$AAv?$AAa?$AAl?$AAi?$AAd?$AA?5?$AAa?$AAr?$AAg?$AAu?$AAm?$AAe@ ; `string'
PUBLIC	??_C@_0GJ@DMCEMOMH@c?3?2program?5files?5?$CIx86?$CJ?2microsof@ ; `string'
PUBLIC	??_C@_1NC@HPHBFJCM@?$AAc?$AA?3?$AA?2?$AAp?$AAr?$AAo?$AAg?$AAr?$AAa?$AAm?$AA?5?$AAf?$AAi?$AAl?$AAe@ ; `string'
PUBLIC	??_C@_0GJ@CAJJPMGE@c?3?2program?5files?5?$CIx86?$CJ?2microsof@ ; `string'
PUBLIC	??_C@_1NC@ICJKIMIP@?$AAc?$AA?3?$AA?2?$AAp?$AAr?$AAo?$AAg?$AAr?$AAa?$AAm?$AA?5?$AAf?$AAi?$AAl?$AAe@ ; `string'
PUBLIC	??_C@_1EK@NIFDJFDG@?$AAs?$AAt?$AAd?$AA?3?$AA?3?$AA_?$AAA?$AAd?$AAj?$AAu?$AAs?$AAt?$AA_?$AAm?$AAa@ ; `string'
PUBLIC	??_7runtime_error@std@@6B@			; std::runtime_error::`vftable'
PUBLIC	??_7bad_cast@std@@6B@				; std::bad_cast::`vftable'
PUBLIC	??_C@_08EPJLHIJG@bad?5cast@			; `string'
PUBLIC	__TI2?AVruntime_error@std@@
PUBLIC	__CTA2?AVruntime_error@std@@
PUBLIC	??_R0?AVruntime_error@std@@@8			; std::runtime_error `RTTI Type Descriptor'
PUBLIC	__CT??_R0?AVruntime_error@std@@@8??0runtime_error@std@@QAE@ABV01@@Z12
PUBLIC	??_R0?AVexception@std@@@8			; std::exception `RTTI Type Descriptor'
PUBLIC	__CT??_R0?AVexception@std@@@8??0exception@std@@QAE@ABV01@@Z12
PUBLIC	??_C@_0BA@ELKIONDK@bad?5locale?5name@		; `string'
PUBLIC	??_C@_05LAPONLG@false@				; `string'
PUBLIC	??_C@_04LOAJBDKD@true@				; `string'
PUBLIC	??_7_Facet_base@std@@6B@			; std::_Facet_base::`vftable'
PUBLIC	??_C@_0GI@HIGMNFHO@c?3?2program?5files?5?$CIx86?$CJ?2microsof@ ; `string'
PUBLIC	??_7facet@locale@std@@6B@			; std::locale::facet::`vftable'
PUBLIC	??_C@_00CNPNBAHC@@				; `string'
PUBLIC	??_7ctype_base@std@@6B@				; std::ctype_base::`vftable'
PUBLIC	??_7?$ctype@D@std@@6B@				; std::ctype<char>::`vftable'
PUBLIC	??_7_System_error@std@@6B@			; std::_System_error::`vftable'
PUBLIC	??_C@_02LMMGGCAJ@?3?5@				; `string'
PUBLIC	??_7system_error@std@@6B@			; std::system_error::`vftable'
PUBLIC	??_7_Generic_error_category@std@@6B@		; std::_Generic_error_category::`vftable'
PUBLIC	??_C@_07DCLBNMLN@generic@			; `string'
PUBLIC	??_7_Iostream_error_category@std@@6B@		; std::_Iostream_error_category::`vftable'
PUBLIC	??_C@_08LLGCOLLL@iostream@			; `string'
PUBLIC	??_C@_0BG@PADBLCHM@iostream?5stream?5error@	; `string'
PUBLIC	??_7failure@ios_base@std@@6B@			; std::ios_base::failure::`vftable'
PUBLIC	??_7ios_base@std@@6B@				; std::ios_base::`vftable'
PUBLIC	??_C@_0BF@PHHKMMFD@ios_base?3?3badbit?5set@	; `string'
PUBLIC	??_C@_0BG@FMKFHCIL@ios_base?3?3failbit?5set@	; `string'
PUBLIC	??_C@_0BF@OOHOMBOF@ios_base?3?3eofbit?5set@	; `string'
PUBLIC	__TI5?AVfailure@ios_base@std@@
PUBLIC	__CTA5?AVfailure@ios_base@std@@
PUBLIC	??_R0?AVfailure@ios_base@std@@@8		; std::ios_base::failure `RTTI Type Descriptor'
PUBLIC	__CT??_R0?AVfailure@ios_base@std@@@8??0failure@ios_base@std@@QAE@ABV012@@Z20
PUBLIC	??_R0?AVsystem_error@std@@@8			; std::system_error `RTTI Type Descriptor'
PUBLIC	__CT??_R0?AVsystem_error@std@@@8??0system_error@std@@QAE@ABV01@@Z20
PUBLIC	??_R0?AV_System_error@std@@@8			; std::_System_error `RTTI Type Descriptor'
PUBLIC	__CT??_R0?AV_System_error@std@@@8??0_System_error@std@@QAE@ABV01@@Z20
PUBLIC	??_C@_0BO@LFGPDMIB@string?5subscript?5out?5of?5range@ ; `string'
PUBLIC	??_C@_0GI@CJGNOLDA@c?3?2program?5files?5?$CIx86?$CJ?2microsof@ ; `string'
PUBLIC	??_C@_1NA@JLAKACOO@?$AAc?$AA?3?$AA?2?$AAp?$AAr?$AAo?$AAg?$AAr?$AAa?$AAm?$AA?5?$AAf?$AAi?$AAl?$AAe@ ; `string'
PUBLIC	??_C@_1LO@NPPEKPAI@?$AAs?$AAt?$AAd?$AA?3?$AA?3?$AAb?$AAa?$AAs?$AAi?$AAc?$AA_?$AAs?$AAt?$AAr?$AAi@ ; `string'
PUBLIC	??_C@_1EA@OADAPGGK@?$AA?$CC?$AAs?$AAt?$AAr?$AAi?$AAn?$AAg?$AA?5?$AAs?$AAu?$AAb?$AAs?$AAc?$AAr?$AAi@ ; `string'
PUBLIC	?_Psave@?$_Facetptr@V?$ctype@D@std@@@std@@2PBVfacet@locale@2@B ; std::_Facetptr<std::ctype<char> >::_Psave
PUBLIC	__TI2?AVbad_cast@std@@
PUBLIC	__CTA2?AVbad_cast@std@@
PUBLIC	??_R0?AVbad_cast@std@@@8			; std::bad_cast `RTTI Type Descriptor'
PUBLIC	__CT??_R0?AVbad_cast@std@@@8??0bad_cast@std@@QAE@ABV01@@Z12
PUBLIC	?_Flag@?1???$_Immortalize@V_Iostream_error_category@std@@@std@@YAAAV_Iostream_error_category@1@XZ@4PAXA ; `std::_Immortalize<std::_Iostream_error_category>'::`2'::_Flag
PUBLIC	?_Storage@?1???$_Immortalize@V_Iostream_error_category@std@@@std@@YAAAV_Iostream_error_category@1@XZ@4T?$_Align_type@H$07@1@A ; `std::_Immortalize<std::_Iostream_error_category>'::`2'::_Storage
PUBLIC	??_7?$basic_ios@DU?$char_traits@D@std@@@std@@6B@ ; std::basic_ios<char,std::char_traits<char> >::`vftable'
PUBLIC	??_7?$basic_ostream@DU?$char_traits@D@std@@@std@@6B@ ; std::basic_ostream<char,std::char_traits<char> >::`vftable'
PUBLIC	??_8?$basic_ostream@DU?$char_traits@D@std@@@std@@7B@ ; std::basic_ostream<char,std::char_traits<char> >::`vbtable'
PUBLIC	??_7?$basic_streambuf@DU?$char_traits@D@std@@@std@@6B@ ; std::basic_streambuf<char,std::char_traits<char> >::`vftable'
PUBLIC	??_7?$basic_stringbuf@DU?$char_traits@D@std@@V?$allocator@D@2@@std@@6B@ ; std::basic_stringbuf<char,std::char_traits<char>,std::allocator<char> >::`vftable'
PUBLIC	??_7?$basic_ostringstream@DU?$char_traits@D@std@@V?$allocator@D@2@@std@@6B@ ; std::basic_ostringstream<char,std::char_traits<char>,std::allocator<char> >::`vftable'
PUBLIC	??_8?$basic_ostringstream@DU?$char_traits@D@std@@V?$allocator@D@2@@std@@7B@ ; std::basic_ostringstream<char,std::char_traits<char>,std::allocator<char> >::`vbtable'
PUBLIC	??_C@_0BA@JFNIOLAK@string?5too?5long@		; `string'
PUBLIC	?id@?$num_put@DV?$ostreambuf_iterator@DU?$char_traits@D@std@@@std@@@std@@2V0locale@2@A ; std::num_put<char,std::ostreambuf_iterator<char,std::char_traits<char> > >::id
PUBLIC	??_7?$num_put@DV?$ostreambuf_iterator@DU?$char_traits@D@std@@@std@@@std@@6B@ ; std::num_put<char,std::ostreambuf_iterator<char,std::char_traits<char> > >::`vftable'
PUBLIC	??_C@_02BBAHNLBA@?$CFp@				; `string'
PUBLIC	??_C@_02CLHGNPPK@Lu@				; `string'
PUBLIC	??_C@_02HIKPPMOK@Ld@				; `string'
PUBLIC	??_C@_02BDDLJJBK@lu@				; `string'
PUBLIC	??_C@_02EAOCLKAK@ld@				; `string'
PUBLIC	?id@?$numpunct@D@std@@2V0locale@2@A		; std::numpunct<char>::id
PUBLIC	??_7?$numpunct@D@std@@6B@			; std::numpunct<char>::`vftable'
PUBLIC	??_C@_02MDKMJEGG@eE@				; `string'
PUBLIC	??_C@_02OOPEBDOJ@pP@				; `string'
PUBLIC	??_C@_01LFCBOECM@?4@				; `string'
PUBLIC	??_C@_0BI@CFPLBAOH@invalid?5string?5position@	; `string'
PUBLIC	??_C@_1EO@GFNCMDLA@?$AAs?$AAt?$AAd?$AA?3?$AA?3?$AA_?$AAA?$AAl?$AAl?$AAo?$AAc?$AAa?$AAt?$AAe?$AA_@ ; `string'
PUBLIC	?_Psave@?$_Facetptr@V?$num_put@DV?$ostreambuf_iterator@DU?$char_traits@D@std@@@std@@@std@@@std@@2PBVfacet@locale@2@B ; std::_Facetptr<std::num_put<char,std::ostreambuf_iterator<char,std::char_traits<char> > > >::_Psave
PUBLIC	?_Psave@?$_Facetptr@V?$numpunct@D@std@@@std@@2PBVfacet@locale@2@B ; std::_Facetptr<std::numpunct<char> >::_Psave
PUBLIC	??_C@_0BJ@HAJGEHKO@transposed?5pointer?5range@	; `string'
PUBLIC	??_C@_1CG@LJCPDKEJ@?$AAs?$AAt?$AAd?$AA?3?$AA?3?$AA_?$AAV?$AAe?$AAr?$AAi?$AAf?$AAy?$AA_?$AAr?$AAa@ ; `string'
PUBLIC	??_C@_1DG@FJIKMGFD@?$AA?$CC?$AAt?$AAr?$AAa?$AAn?$AAs?$AAp?$AAo?$AAs?$AAe?$AAd?$AA?5?$AAp?$AAo?$AAi@ ; `string'
PUBLIC	??_R4exception@std@@6B@				; std::exception::`RTTI Complete Object Locator'
PUBLIC	??_R3exception@std@@8				; std::exception::`RTTI Class Hierarchy Descriptor'
PUBLIC	??_R2exception@std@@8				; std::exception::`RTTI Base Class Array'
PUBLIC	??_R1A@?0A@EA@exception@std@@8			; std::exception::`RTTI Base Class Descriptor at (0,-1,0,64)'
PUBLIC	??_R4ios_base@std@@6B@				; std::ios_base::`RTTI Complete Object Locator'
PUBLIC	??_R0?AVios_base@std@@@8			; std::ios_base `RTTI Type Descriptor'
PUBLIC	??_R3ios_base@std@@8				; std::ios_base::`RTTI Class Hierarchy Descriptor'
PUBLIC	??_R2ios_base@std@@8				; std::ios_base::`RTTI Base Class Array'
PUBLIC	??_R1A@?0A@EA@ios_base@std@@8			; std::ios_base::`RTTI Base Class Descriptor at (0,-1,0,64)'
PUBLIC	??_R17?0A@EA@?$_Iosb@H@std@@8			; std::_Iosb<int>::`RTTI Base Class Descriptor at (8,-1,0,64)'
PUBLIC	??_R0?AV?$_Iosb@H@std@@@8			; std::_Iosb<int> `RTTI Type Descriptor'
PUBLIC	??_R3?$_Iosb@H@std@@8				; std::_Iosb<int>::`RTTI Class Hierarchy Descriptor'
PUBLIC	??_R2?$_Iosb@H@std@@8				; std::_Iosb<int>::`RTTI Base Class Array'
PUBLIC	??_R1A@?0A@EA@?$_Iosb@H@std@@8			; std::_Iosb<int>::`RTTI Base Class Descriptor at (0,-1,0,64)'
PUBLIC	??_R4?$basic_ios@DU?$char_traits@D@std@@@std@@6B@ ; std::basic_ios<char,std::char_traits<char> >::`RTTI Complete Object Locator'
PUBLIC	??_R0?AV?$basic_ios@DU?$char_traits@D@std@@@std@@@8 ; std::basic_ios<char,std::char_traits<char> > `RTTI Type Descriptor'
PUBLIC	??_R3?$basic_ios@DU?$char_traits@D@std@@@std@@8	; std::basic_ios<char,std::char_traits<char> >::`RTTI Class Hierarchy Descriptor'
PUBLIC	??_R2?$basic_ios@DU?$char_traits@D@std@@@std@@8	; std::basic_ios<char,std::char_traits<char> >::`RTTI Base Class Array'
PUBLIC	??_R1A@?0A@EA@?$basic_ios@DU?$char_traits@D@std@@@std@@8 ; std::basic_ios<char,std::char_traits<char> >::`RTTI Base Class Descriptor at (0,-1,0,64)'
PUBLIC	??_R4?$basic_streambuf@DU?$char_traits@D@std@@@std@@6B@ ; std::basic_streambuf<char,std::char_traits<char> >::`RTTI Complete Object Locator'
PUBLIC	??_R0?AV?$basic_streambuf@DU?$char_traits@D@std@@@std@@@8 ; std::basic_streambuf<char,std::char_traits<char> > `RTTI Type Descriptor'
PUBLIC	??_R3?$basic_streambuf@DU?$char_traits@D@std@@@std@@8 ; std::basic_streambuf<char,std::char_traits<char> >::`RTTI Class Hierarchy Descriptor'
PUBLIC	??_R2?$basic_streambuf@DU?$char_traits@D@std@@@std@@8 ; std::basic_streambuf<char,std::char_traits<char> >::`RTTI Base Class Array'
PUBLIC	??_R1A@?0A@EA@?$basic_streambuf@DU?$char_traits@D@std@@@std@@8 ; std::basic_streambuf<char,std::char_traits<char> >::`RTTI Base Class Descriptor at (0,-1,0,64)'
PUBLIC	??_R4?$basic_ostream@DU?$char_traits@D@std@@@std@@6B@ ; std::basic_ostream<char,std::char_traits<char> >::`RTTI Complete Object Locator'
PUBLIC	??_R0?AV?$basic_ostream@DU?$char_traits@D@std@@@std@@@8 ; std::basic_ostream<char,std::char_traits<char> > `RTTI Type Descriptor'
PUBLIC	??_R3?$basic_ostream@DU?$char_traits@D@std@@@std@@8 ; std::basic_ostream<char,std::char_traits<char> >::`RTTI Class Hierarchy Descriptor'
PUBLIC	??_R2?$basic_ostream@DU?$char_traits@D@std@@@std@@8 ; std::basic_ostream<char,std::char_traits<char> >::`RTTI Base Class Array'
PUBLIC	??_R1A@?0A@EA@?$basic_ostream@DU?$char_traits@D@std@@@std@@8 ; std::basic_ostream<char,std::char_traits<char> >::`RTTI Base Class Descriptor at (0,-1,0,64)'
PUBLIC	??_R1A@A@3FA@?$basic_ios@DU?$char_traits@D@std@@@std@@8 ; std::basic_ios<char,std::char_traits<char> >::`RTTI Base Class Descriptor at (0,0,4,80)'
PUBLIC	??_R1A@A@3EA@ios_base@std@@8			; std::ios_base::`RTTI Base Class Descriptor at (0,0,4,64)'
PUBLIC	??_R17A@3EA@?$_Iosb@H@std@@8			; std::_Iosb<int>::`RTTI Base Class Descriptor at (8,0,4,64)'
PUBLIC	??_R4?$basic_stringbuf@DU?$char_traits@D@std@@V?$allocator@D@2@@std@@6B@ ; std::basic_stringbuf<char,std::char_traits<char>,std::allocator<char> >::`RTTI Complete Object Locator'
PUBLIC	??_R0?AV?$basic_stringbuf@DU?$char_traits@D@std@@V?$allocator@D@2@@std@@@8 ; std::basic_stringbuf<char,std::char_traits<char>,std::allocator<char> > `RTTI Type Descriptor'
PUBLIC	??_R3?$basic_stringbuf@DU?$char_traits@D@std@@V?$allocator@D@2@@std@@8 ; std::basic_stringbuf<char,std::char_traits<char>,std::allocator<char> >::`RTTI Class Hierarchy Descriptor'
PUBLIC	??_R2?$basic_stringbuf@DU?$char_traits@D@std@@V?$allocator@D@2@@std@@8 ; std::basic_stringbuf<char,std::char_traits<char>,std::allocator<char> >::`RTTI Base Class Array'
PUBLIC	??_R1A@?0A@EA@?$basic_stringbuf@DU?$char_traits@D@std@@V?$allocator@D@2@@std@@8 ; std::basic_stringbuf<char,std::char_traits<char>,std::allocator<char> >::`RTTI Base Class Descriptor at (0,-1,0,64)'
PUBLIC	??_R4?$basic_ostringstream@DU?$char_traits@D@std@@V?$allocator@D@2@@std@@6B@ ; std::basic_ostringstream<char,std::char_traits<char>,std::allocator<char> >::`RTTI Complete Object Locator'
PUBLIC	??_R0?AV?$basic_ostringstream@DU?$char_traits@D@std@@V?$allocator@D@2@@std@@@8 ; std::basic_ostringstream<char,std::char_traits<char>,std::allocator<char> > `RTTI Type Descriptor'
PUBLIC	??_R3?$basic_ostringstream@DU?$char_traits@D@std@@V?$allocator@D@2@@std@@8 ; std::basic_ostringstream<char,std::char_traits<char>,std::allocator<char> >::`RTTI Class Hierarchy Descriptor'
PUBLIC	??_R2?$basic_ostringstream@DU?$char_traits@D@std@@V?$allocator@D@2@@std@@8 ; std::basic_ostringstream<char,std::char_traits<char>,std::allocator<char> >::`RTTI Base Class Array'
PUBLIC	??_R1A@?0A@EA@?$basic_ostringstream@DU?$char_traits@D@std@@V?$allocator@D@2@@std@@8 ; std::basic_ostringstream<char,std::char_traits<char>,std::allocator<char> >::`RTTI Base Class Descriptor at (0,-1,0,64)'
PUBLIC	??_R4runtime_error@std@@6B@			; std::runtime_error::`RTTI Complete Object Locator'
PUBLIC	??_R3runtime_error@std@@8			; std::runtime_error::`RTTI Class Hierarchy Descriptor'
PUBLIC	??_R2runtime_error@std@@8			; std::runtime_error::`RTTI Base Class Array'
PUBLIC	??_R1A@?0A@EA@runtime_error@std@@8		; std::runtime_error::`RTTI Base Class Descriptor at (0,-1,0,64)'
PUBLIC	??_R4bad_cast@std@@6B@				; std::bad_cast::`RTTI Complete Object Locator'
PUBLIC	??_R3bad_cast@std@@8				; std::bad_cast::`RTTI Class Hierarchy Descriptor'
PUBLIC	??_R2bad_cast@std@@8				; std::bad_cast::`RTTI Base Class Array'
PUBLIC	??_R1A@?0A@EA@bad_cast@std@@8			; std::bad_cast::`RTTI Base Class Descriptor at (0,-1,0,64)'
PUBLIC	??_R4_Facet_base@std@@6B@			; std::_Facet_base::`RTTI Complete Object Locator'
PUBLIC	??_R0?AV_Facet_base@std@@@8			; std::_Facet_base `RTTI Type Descriptor'
PUBLIC	??_R3_Facet_base@std@@8				; std::_Facet_base::`RTTI Class Hierarchy Descriptor'
PUBLIC	??_R2_Facet_base@std@@8				; std::_Facet_base::`RTTI Base Class Array'
PUBLIC	??_R1A@?0A@EA@_Facet_base@std@@8		; std::_Facet_base::`RTTI Base Class Descriptor at (0,-1,0,64)'
PUBLIC	??_R1A@?0A@EA@facet@locale@std@@8		; std::locale::facet::`RTTI Base Class Descriptor at (0,-1,0,64)'
PUBLIC	??_R0?AVfacet@locale@std@@@8			; std::locale::facet `RTTI Type Descriptor'
PUBLIC	??_R3facet@locale@std@@8			; std::locale::facet::`RTTI Class Hierarchy Descriptor'
PUBLIC	??_R2facet@locale@std@@8			; std::locale::facet::`RTTI Base Class Array'
PUBLIC	??_R13?0A@EA@_Crt_new_delete@std@@8		; std::_Crt_new_delete::`RTTI Base Class Descriptor at (4,-1,0,64)'
PUBLIC	??_R0?AU_Crt_new_delete@std@@@8			; std::_Crt_new_delete `RTTI Type Descriptor'
PUBLIC	??_R3_Crt_new_delete@std@@8			; std::_Crt_new_delete::`RTTI Class Hierarchy Descriptor'
PUBLIC	??_R2_Crt_new_delete@std@@8			; std::_Crt_new_delete::`RTTI Base Class Array'
PUBLIC	??_R1A@?0A@EA@_Crt_new_delete@std@@8		; std::_Crt_new_delete::`RTTI Base Class Descriptor at (0,-1,0,64)'
PUBLIC	??_R4facet@locale@std@@6B@			; std::locale::facet::`RTTI Complete Object Locator'
PUBLIC	??_R4ctype_base@std@@6B@			; std::ctype_base::`RTTI Complete Object Locator'
PUBLIC	??_R0?AUctype_base@std@@@8			; std::ctype_base `RTTI Type Descriptor'
PUBLIC	??_R3ctype_base@std@@8				; std::ctype_base::`RTTI Class Hierarchy Descriptor'
PUBLIC	??_R2ctype_base@std@@8				; std::ctype_base::`RTTI Base Class Array'
PUBLIC	??_R1A@?0A@EA@ctype_base@std@@8			; std::ctype_base::`RTTI Base Class Descriptor at (0,-1,0,64)'
PUBLIC	??_R4?$ctype@D@std@@6B@				; std::ctype<char>::`RTTI Complete Object Locator'
PUBLIC	??_R0?AV?$ctype@D@std@@@8			; std::ctype<char> `RTTI Type Descriptor'
PUBLIC	??_R3?$ctype@D@std@@8				; std::ctype<char>::`RTTI Class Hierarchy Descriptor'
PUBLIC	??_R2?$ctype@D@std@@8				; std::ctype<char>::`RTTI Base Class Array'
PUBLIC	??_R1A@?0A@EA@?$ctype@D@std@@8			; std::ctype<char>::`RTTI Base Class Descriptor at (0,-1,0,64)'
PUBLIC	??_R0?AVerror_category@std@@@8			; std::error_category `RTTI Type Descriptor'
PUBLIC	??_R3error_category@std@@8			; std::error_category::`RTTI Class Hierarchy Descriptor'
PUBLIC	??_R2error_category@std@@8			; std::error_category::`RTTI Base Class Array'
PUBLIC	??_R1A@?0A@EA@error_category@std@@8		; std::error_category::`RTTI Base Class Descriptor at (0,-1,0,64)'
PUBLIC	??_R4_System_error@std@@6B@			; std::_System_error::`RTTI Complete Object Locator'
PUBLIC	??_R3_System_error@std@@8			; std::_System_error::`RTTI Class Hierarchy Descriptor'
PUBLIC	??_R2_System_error@std@@8			; std::_System_error::`RTTI Base Class Array'
PUBLIC	??_R1A@?0A@EA@_System_error@std@@8		; std::_System_error::`RTTI Base Class Descriptor at (0,-1,0,64)'
PUBLIC	??_R4system_error@std@@6B@			; std::system_error::`RTTI Complete Object Locator'
PUBLIC	??_R3system_error@std@@8			; std::system_error::`RTTI Class Hierarchy Descriptor'
PUBLIC	??_R2system_error@std@@8			; std::system_error::`RTTI Base Class Array'
PUBLIC	??_R1A@?0A@EA@system_error@std@@8		; std::system_error::`RTTI Base Class Descriptor at (0,-1,0,64)'
PUBLIC	??_R4_Generic_error_category@std@@6B@		; std::_Generic_error_category::`RTTI Complete Object Locator'
PUBLIC	??_R0?AV_Generic_error_category@std@@@8		; std::_Generic_error_category `RTTI Type Descriptor'
PUBLIC	??_R3_Generic_error_category@std@@8		; std::_Generic_error_category::`RTTI Class Hierarchy Descriptor'
PUBLIC	??_R2_Generic_error_category@std@@8		; std::_Generic_error_category::`RTTI Base Class Array'
PUBLIC	??_R1A@?0A@EA@_Generic_error_category@std@@8	; std::_Generic_error_category::`RTTI Base Class Descriptor at (0,-1,0,64)'
PUBLIC	??_R4_Iostream_error_category@std@@6B@		; std::_Iostream_error_category::`RTTI Complete Object Locator'
PUBLIC	??_R0?AV_Iostream_error_category@std@@@8	; std::_Iostream_error_category `RTTI Type Descriptor'
PUBLIC	??_R3_Iostream_error_category@std@@8		; std::_Iostream_error_category::`RTTI Class Hierarchy Descriptor'
PUBLIC	??_R2_Iostream_error_category@std@@8		; std::_Iostream_error_category::`RTTI Base Class Array'
PUBLIC	??_R1A@?0A@EA@_Iostream_error_category@std@@8	; std::_Iostream_error_category::`RTTI Base Class Descriptor at (0,-1,0,64)'
PUBLIC	??_R4failure@ios_base@std@@6B@			; std::ios_base::failure::`RTTI Complete Object Locator'
PUBLIC	??_R3failure@ios_base@std@@8			; std::ios_base::failure::`RTTI Class Hierarchy Descriptor'
PUBLIC	??_R2failure@ios_base@std@@8			; std::ios_base::failure::`RTTI Base Class Array'
PUBLIC	??_R1A@?0A@EA@failure@ios_base@std@@8		; std::ios_base::failure::`RTTI Base Class Descriptor at (0,-1,0,64)'
PUBLIC	??_R4?$num_put@DV?$ostreambuf_iterator@DU?$char_traits@D@std@@@std@@@std@@6B@ ; std::num_put<char,std::ostreambuf_iterator<char,std::char_traits<char> > >::`RTTI Complete Object Locator'
PUBLIC	??_R0?AV?$num_put@DV?$ostreambuf_iterator@DU?$char_traits@D@std@@@std@@@std@@@8 ; std::num_put<char,std::ostreambuf_iterator<char,std::char_traits<char> > > `RTTI Type Descriptor'
PUBLIC	??_R3?$num_put@DV?$ostreambuf_iterator@DU?$char_traits@D@std@@@std@@@std@@8 ; std::num_put<char,std::ostreambuf_iterator<char,std::char_traits<char> > >::`RTTI Class Hierarchy Descriptor'
PUBLIC	??_R2?$num_put@DV?$ostreambuf_iterator@DU?$char_traits@D@std@@@std@@@std@@8 ; std::num_put<char,std::ostreambuf_iterator<char,std::char_traits<char> > >::`RTTI Base Class Array'
PUBLIC	??_R1A@?0A@EA@?$num_put@DV?$ostreambuf_iterator@DU?$char_traits@D@std@@@std@@@std@@8 ; std::num_put<char,std::ostreambuf_iterator<char,std::char_traits<char> > >::`RTTI Base Class Descriptor at (0,-1,0,64)'
PUBLIC	??_R4?$numpunct@D@std@@6B@			; std::numpunct<char>::`RTTI Complete Object Locator'
PUBLIC	??_R0?AV?$numpunct@D@std@@@8			; std::numpunct<char> `RTTI Type Descriptor'
PUBLIC	??_R3?$numpunct@D@std@@8			; std::numpunct<char>::`RTTI Class Hierarchy Descriptor'
PUBLIC	??_R2?$numpunct@D@std@@8			; std::numpunct<char>::`RTTI Base Class Array'
PUBLIC	??_R1A@?0A@EA@?$numpunct@D@std@@8		; std::numpunct<char>::`RTTI Base Class Descriptor at (0,-1,0,64)'
PUBLIC	__real@0010000000000000
PUBLIC	__real@00800000
PUBLIC	__real@3ff0000000000000
PUBLIC	__real@4028000000000000
PUBLIC	__real@4202a05f20000000
PUBLIC	__real@7f7fffff
PUBLIC	__real@7fefffffffffffff
EXTRN	__purecall:PROC
EXTRN	??2@YAPAXI@Z:PROC				; operator new
EXTRN	??3@YAXPAXI@Z:PROC				; operator delete
EXTRN	?__global_delete@@YAXPAXI@Z:PROC		; __global_delete
EXTRN	??_V@YAXPAX@Z:PROC				; operator delete[]
EXTRN	__invalid_parameter:PROC
EXTRN	__calloc_dbg:PROC
EXTRN	__free_dbg:PROC
EXTRN	__malloc_dbg:PROC
EXTRN	__CrtDbgReport:PROC
EXTRN	??0_Lockit@std@@QAE@H@Z:PROC			; std::_Lockit::_Lockit
EXTRN	??1_Lockit@std@@QAE@XZ:PROC			; std::_Lockit::~_Lockit
EXTRN	_free:PROC
EXTRN	_abs:PROC
EXTRN	_fabs:PROC
EXTRN	_frexp:PROC
EXTRN	_memcpy:PROC
EXTRN	_memmove:PROC
EXTRN	_memset:PROC
EXTRN	?uncaught_exception@std@@YA_NXZ:PROC		; std::uncaught_exception
EXTRN	_terminate:PROC
EXTRN	___std_exception_copy:PROC
EXTRN	___std_exception_destroy:PROC
EXTRN	??_Eexception@std@@UAEPAXI@Z:PROC		; std::exception::`vector deleting destructor'
EXTRN	___stdio_common_vsprintf_s:PROC
EXTRN	_strcspn:PROC
EXTRN	_strlen:PROC
EXTRN	?_Xbad_alloc@std@@YAXXZ:PROC			; std::_Xbad_alloc
EXTRN	?_Xlength_error@std@@YAXPBD@Z:PROC		; std::_Xlength_error
EXTRN	?_Xout_of_range@std@@YAXPBD@Z:PROC		; std::_Xout_of_range
EXTRN	??_Eruntime_error@std@@UAEPAXI@Z:PROC		; std::runtime_error::`vector deleting destructor'
EXTRN	__imp__TextOutA@20:PROC
EXTRN	??_Ebad_cast@std@@UAEPAXI@Z:PROC		; std::bad_cast::`vector deleting destructor'
EXTRN	_localeconv:PROC
EXTRN	__Getctype:PROC
EXTRN	__Getcvt:PROC
EXTRN	__Tolower:PROC
EXTRN	__Toupper:PROC
EXTRN	?_Locinfo_ctor@_Locinfo@std@@SAXPAV12@PBD@Z:PROC ; std::_Locinfo::_Locinfo_ctor
EXTRN	?_Locinfo_dtor@_Locinfo@std@@SAXPAV12@@Z:PROC	; std::_Locinfo::_Locinfo_dtor
EXTRN	??_E_Facet_base@std@@UAEPAXI@Z:PROC		; std::_Facet_base::`vector deleting destructor'
EXTRN	?_Facet_Register@std@@YAXPAV_Facet_base@1@@Z:PROC ; std::_Facet_Register
EXTRN	??_Efacet@locale@std@@MAEPAXI@Z:PROC		; std::locale::facet::`vector deleting destructor'
EXTRN	?_Init@locale@std@@CAPAV_Locimp@12@_N@Z:PROC	; std::locale::_Init
EXTRN	?_Getgloballocale@locale@std@@CAPAV_Locimp@12@XZ:PROC ; std::locale::_Getgloballocale
EXTRN	??_Ectype_base@std@@UAEPAXI@Z:PROC		; std::ctype_base::`vector deleting destructor'
EXTRN	??_E?$ctype@D@std@@MAEPAXI@Z:PROC		; std::ctype<char>::`vector deleting destructor'
EXTRN	?_Execute_once@std@@YAHAAUonce_flag@1@P6GHPAX1PAPAX@Z1@Z:PROC ; std::_Execute_once
EXTRN	??_E_System_error@std@@UAEPAXI@Z:PROC		; std::_System_error::`vector deleting destructor'
EXTRN	??_Esystem_error@std@@UAEPAXI@Z:PROC		; std::system_error::`vector deleting destructor'
EXTRN	?_Syserror_map@std@@YAPBDH@Z:PROC		; std::_Syserror_map
EXTRN	??_E_Generic_error_category@std@@UAEPAXI@Z:PROC	; std::_Generic_error_category::`vector deleting destructor'
EXTRN	??_E_Iostream_error_category@std@@UAEPAXI@Z:PROC ; std::_Iostream_error_category::`vector deleting destructor'
EXTRN	??_Efailure@ios_base@std@@UAEPAXI@Z:PROC	; std::ios_base::failure::`vector deleting destructor'
EXTRN	?_Addstd@ios_base@std@@SAXPAV12@@Z:PROC		; std::ios_base::_Addstd
EXTRN	?_Ios_base_dtor@ios_base@std@@CAXPAV12@@Z:PROC	; std::ios_base::_Ios_base_dtor
EXTRN	??_Eios_base@std@@UAEPAXI@Z:PROC		; std::ios_base::`vector deleting destructor'
EXTRN	?setprecision@std@@YA?AU?$_Smanip@_J@1@_J@Z:PROC ; std::setprecision
EXTRN	?Instance@Cgdi@@SAPAV1@XZ:PROC			; Cgdi::Instance
EXTRN	?AddGoal_AttackTarget@Goal_Think@@QAEXXZ:PROC	; Goal_Think::AddGoal_AttackTarget
EXTRN	?Health@Raven_Feature@@SANPAVRaven_Bot@@@Z:PROC	; Raven_Feature::Health
EXTRN	?TotalWeaponStrength@Raven_Feature@@SANPAVRaven_Bot@@@Z:PROC ; Raven_Feature::TotalWeaponStrength
EXTRN	??_E?$basic_ios@DU?$char_traits@D@std@@@std@@UAEPAXI@Z:PROC ; std::basic_ios<char,std::char_traits<char> >::`vector deleting destructor'
EXTRN	??_E?$basic_ostream@DU?$char_traits@D@std@@@std@@UAEPAXI@Z:PROC ; std::basic_ostream<char,std::char_traits<char> >::`vector deleting destructor'
EXTRN	??_E?$basic_streambuf@DU?$char_traits@D@std@@@std@@UAEPAXI@Z:PROC ; std::basic_streambuf<char,std::char_traits<char> >::`vector deleting destructor'
EXTRN	??_E?$basic_stringbuf@DU?$char_traits@D@std@@V?$allocator@D@2@@std@@UAEPAXI@Z:PROC ; std::basic_stringbuf<char,std::char_traits<char>,std::allocator<char> >::`vector deleting destructor'
EXTRN	??_E?$basic_ostringstream@DU?$char_traits@D@std@@V?$allocator@D@2@@std@@UAEPAXI@Z:PROC ; std::basic_ostringstream<char,std::char_traits<char>,std::allocator<char> >::`vector deleting destructor'
EXTRN	??_E?$num_put@DV?$ostreambuf_iterator@DU?$char_traits@D@std@@@std@@@std@@MAEPAXI@Z:PROC ; std::num_put<char,std::ostreambuf_iterator<char,std::char_traits<char> > >::`vector deleting destructor'
EXTRN	??_E?$numpunct@D@std@@MAEPAXI@Z:PROC		; std::numpunct<char>::`vector deleting destructor'
EXTRN	@_RTC_CheckStackVars@8:PROC
EXTRN	@__security_check_cookie@4:PROC
EXTRN	__CxxThrowException@8:PROC
EXTRN	__RTC_CheckEsp:PROC
EXTRN	__RTC_InitBase:PROC
EXTRN	__RTC_Shutdown:PROC
EXTRN	___CxxFrameHandler3:PROC
EXTRN	?nothrow@std@@3Unothrow_t@1@B:BYTE		; std::nothrow
EXTRN	??_7type_info@@6B@:QWORD			; type_info::`vftable'
EXTRN	?_Id_cnt@id@locale@std@@0HA:DWORD		; std::locale::id::_Id_cnt
EXTRN	?id@?$ctype@D@std@@2V0locale@2@A:DWORD		; std::ctype<char>::id
EXTRN	___security_cookie:DWORD
EXTRN	__fltused:DWORD
;	COMDAT ?_OptionsStorage@?1??__local_stdio_printf_options@@9@4_KA
_BSS	SEGMENT
?_OptionsStorage@?1??__local_stdio_printf_options@@9@4_KA DQ 01H DUP (?) ; `__local_stdio_printf_options'::`2'::_OptionsStorage
_BSS	ENDS
_BSS	SEGMENT
?MaxInt@@3HB DD	01H DUP (?)				; MaxInt
	ALIGN	8

?MaxDouble@@3NB DQ 01H DUP (?)				; MaxDouble
?MinDouble@@3NB DQ 01H DUP (?)				; MinDouble
?MaxFloat@@3MB DD 01H DUP (?)				; MaxFloat
?MinFloat@@3MB DD 01H DUP (?)				; MinFloat
_BSS	ENDS
;	COMDAT ?_Psave@?$_Facetptr@V?$ctype@D@std@@@std@@2PBVfacet@locale@2@B
_BSS	SEGMENT
?_Psave@?$_Facetptr@V?$ctype@D@std@@@std@@2PBVfacet@locale@2@B DD 01H DUP (?) ; std::_Facetptr<std::ctype<char> >::_Psave
_BSS	ENDS
;	COMDAT ?_Flag@?1???$_Immortalize@V_Iostream_error_category@std@@@std@@YAAAV_Iostream_error_category@1@XZ@4PAXA
_BSS	SEGMENT
?_Flag@?1???$_Immortalize@V_Iostream_error_category@std@@@std@@YAAAV_Iostream_error_category@1@XZ@4PAXA DD 01H DUP (?) ; `std::_Immortalize<std::_Iostream_error_category>'::`2'::_Flag
_BSS	ENDS
;	COMDAT ?_Storage@?1???$_Immortalize@V_Iostream_error_category@std@@@std@@YAAAV_Iostream_error_category@1@XZ@4T?$_Align_type@H$07@1@A
_BSS	SEGMENT
?_Storage@?1???$_Immortalize@V_Iostream_error_category@std@@@std@@YAAAV_Iostream_error_category@1@XZ@4T?$_Align_type@H$07@1@A DQ 01H DUP (?) ; `std::_Immortalize<std::_Iostream_error_category>'::`2'::_Storage
_BSS	ENDS
;	COMDAT ?id@?$num_put@DV?$ostreambuf_iterator@DU?$char_traits@D@std@@@std@@@std@@2V0locale@2@A
_BSS	SEGMENT
?id@?$num_put@DV?$ostreambuf_iterator@DU?$char_traits@D@std@@@std@@@std@@2V0locale@2@A DD 01H DUP (?) ; std::num_put<char,std::ostreambuf_iterator<char,std::char_traits<char> > >::id
_BSS	ENDS
;	COMDAT ?id@?$numpunct@D@std@@2V0locale@2@A
_BSS	SEGMENT
?id@?$numpunct@D@std@@2V0locale@2@A DD 01H DUP (?)	; std::numpunct<char>::id
_BSS	ENDS
;	COMDAT ?_Psave@?$_Facetptr@V?$num_put@DV?$ostreambuf_iterator@DU?$char_traits@D@std@@@std@@@std@@@std@@2PBVfacet@locale@2@B
_BSS	SEGMENT
?_Psave@?$_Facetptr@V?$num_put@DV?$ostreambuf_iterator@DU?$char_traits@D@std@@@std@@@std@@@std@@2PBVfacet@locale@2@B DD 01H DUP (?) ; std::_Facetptr<std::num_put<char,std::ostreambuf_iterator<char,std::char_traits<char> > > >::_Psave
_BSS	ENDS
;	COMDAT ?_Psave@?$_Facetptr@V?$numpunct@D@std@@@std@@2PBVfacet@locale@2@B
_BSS	SEGMENT
?_Psave@?$_Facetptr@V?$numpunct@D@std@@@std@@2PBVfacet@locale@2@B DD 01H DUP (?) ; std::_Facetptr<std::numpunct<char> >::_Psave
_BSS	ENDS
CRT$XCU	SEGMENT
?MaxInt$initializer$@@3P6AXXZA DD FLAT:??__EMaxInt@@YAXXZ ; MaxInt$initializer$
CRT$XCU	ENDS
;	COMDAT __real@7fefffffffffffff
CONST	SEGMENT
__real@7fefffffffffffff DQ 07fefffffffffffffr	; 1.79769e+308
CONST	ENDS
;	COMDAT __real@7f7fffff
CONST	SEGMENT
__real@7f7fffff DD 07f7fffffr			; 3.40282e+38
CONST	ENDS
;	COMDAT __real@4202a05f20000000
CONST	SEGMENT
__real@4202a05f20000000 DQ 04202a05f20000000r	; 1e+10
CONST	ENDS
;	COMDAT __real@4028000000000000
CONST	SEGMENT
__real@4028000000000000 DQ 04028000000000000r	; 12
CONST	ENDS
;	COMDAT __real@3ff0000000000000
CONST	SEGMENT
__real@3ff0000000000000 DQ 03ff0000000000000r	; 1
CONST	ENDS
;	COMDAT __real@00800000
CONST	SEGMENT
__real@00800000 DD 000800000r			; 1.17549e-38
CONST	ENDS
;	COMDAT __real@0010000000000000
CONST	SEGMENT
__real@0010000000000000 DQ 00010000000000000r	; 2.22507e-308
CONST	ENDS
;	COMDAT rtc$TMZ
rtc$TMZ	SEGMENT
__RTC_Shutdown.rtc$TMZ DD FLAT:__RTC_Shutdown
rtc$TMZ	ENDS
;	COMDAT rtc$IMZ
rtc$IMZ	SEGMENT
__RTC_InitBase.rtc$IMZ DD FLAT:__RTC_InitBase
rtc$IMZ	ENDS
;	COMDAT ??_R1A@?0A@EA@?$numpunct@D@std@@8
rdata$r	SEGMENT
??_R1A@?0A@EA@?$numpunct@D@std@@8 DD FLAT:??_R0?AV?$numpunct@D@std@@@8 ; std::numpunct<char>::`RTTI Base Class Descriptor at (0,-1,0,64)'
	DD	03H
	DD	00H
	DD	0ffffffffH
	DD	00H
	DD	040H
	DD	FLAT:??_R3?$numpunct@D@std@@8
rdata$r	ENDS
;	COMDAT ??_R2?$numpunct@D@std@@8
rdata$r	SEGMENT
??_R2?$numpunct@D@std@@8 DD FLAT:??_R1A@?0A@EA@?$numpunct@D@std@@8 ; std::numpunct<char>::`RTTI Base Class Array'
	DD	FLAT:??_R1A@?0A@EA@facet@locale@std@@8
	DD	FLAT:??_R1A@?0A@EA@_Facet_base@std@@8
	DD	FLAT:??_R13?0A@EA@_Crt_new_delete@std@@8
rdata$r	ENDS
;	COMDAT ??_R3?$numpunct@D@std@@8
rdata$r	SEGMENT
??_R3?$numpunct@D@std@@8 DD 00H				; std::numpunct<char>::`RTTI Class Hierarchy Descriptor'
	DD	01H
	DD	04H
	DD	FLAT:??_R2?$numpunct@D@std@@8
rdata$r	ENDS
;	COMDAT ??_R0?AV?$numpunct@D@std@@@8
data$r	SEGMENT
??_R0?AV?$numpunct@D@std@@@8 DD FLAT:??_7type_info@@6B@	; std::numpunct<char> `RTTI Type Descriptor'
	DD	00H
	DB	'.?AV?$numpunct@D@std@@', 00H
data$r	ENDS
;	COMDAT ??_R4?$numpunct@D@std@@6B@
rdata$r	SEGMENT
??_R4?$numpunct@D@std@@6B@ DD 00H			; std::numpunct<char>::`RTTI Complete Object Locator'
	DD	00H
	DD	00H
	DD	FLAT:??_R0?AV?$numpunct@D@std@@@8
	DD	FLAT:??_R3?$numpunct@D@std@@8
rdata$r	ENDS
;	COMDAT ??_R1A@?0A@EA@?$num_put@DV?$ostreambuf_iterator@DU?$char_traits@D@std@@@std@@@std@@8
rdata$r	SEGMENT
??_R1A@?0A@EA@?$num_put@DV?$ostreambuf_iterator@DU?$char_traits@D@std@@@std@@@std@@8 DD FLAT:??_R0?AV?$num_put@DV?$ostreambuf_iterator@DU?$char_traits@D@std@@@std@@@std@@@8 ; std::num_put<char,std::ostreambuf_iterator<char,std::char_traits<char> > >::`RTTI Base Class Descriptor at (0,-1,0,64)'
	DD	03H
	DD	00H
	DD	0ffffffffH
	DD	00H
	DD	040H
	DD	FLAT:??_R3?$num_put@DV?$ostreambuf_iterator@DU?$char_traits@D@std@@@std@@@std@@8
rdata$r	ENDS
;	COMDAT ??_R2?$num_put@DV?$ostreambuf_iterator@DU?$char_traits@D@std@@@std@@@std@@8
rdata$r	SEGMENT
??_R2?$num_put@DV?$ostreambuf_iterator@DU?$char_traits@D@std@@@std@@@std@@8 DD FLAT:??_R1A@?0A@EA@?$num_put@DV?$ostreambuf_iterator@DU?$char_traits@D@std@@@std@@@std@@8 ; std::num_put<char,std::ostreambuf_iterator<char,std::char_traits<char> > >::`RTTI Base Class Array'
	DD	FLAT:??_R1A@?0A@EA@facet@locale@std@@8
	DD	FLAT:??_R1A@?0A@EA@_Facet_base@std@@8
	DD	FLAT:??_R13?0A@EA@_Crt_new_delete@std@@8
rdata$r	ENDS
;	COMDAT ??_R3?$num_put@DV?$ostreambuf_iterator@DU?$char_traits@D@std@@@std@@@std@@8
rdata$r	SEGMENT
??_R3?$num_put@DV?$ostreambuf_iterator@DU?$char_traits@D@std@@@std@@@std@@8 DD 00H ; std::num_put<char,std::ostreambuf_iterator<char,std::char_traits<char> > >::`RTTI Class Hierarchy Descriptor'
	DD	01H
	DD	04H
	DD	FLAT:??_R2?$num_put@DV?$ostreambuf_iterator@DU?$char_traits@D@std@@@std@@@std@@8
rdata$r	ENDS
;	COMDAT ??_R0?AV?$num_put@DV?$ostreambuf_iterator@DU?$char_traits@D@std@@@std@@@std@@@8
data$r	SEGMENT
??_R0?AV?$num_put@DV?$ostreambuf_iterator@DU?$char_traits@D@std@@@std@@@std@@@8 DD FLAT:??_7type_info@@6B@ ; std::num_put<char,std::ostreambuf_iterator<char,std::char_traits<char> > > `RTTI Type Descriptor'
	DD	00H
	DB	'.?AV?$num_put@DV?$ostreambuf_iterator@DU?$char_traits@D@'
	DB	'std@@@std@@@std@@', 00H
data$r	ENDS
;	COMDAT ??_R4?$num_put@DV?$ostreambuf_iterator@DU?$char_traits@D@std@@@std@@@std@@6B@
rdata$r	SEGMENT
??_R4?$num_put@DV?$ostreambuf_iterator@DU?$char_traits@D@std@@@std@@@std@@6B@ DD 00H ; std::num_put<char,std::ostreambuf_iterator<char,std::char_traits<char> > >::`RTTI Complete Object Locator'
	DD	00H
	DD	00H
	DD	FLAT:??_R0?AV?$num_put@DV?$ostreambuf_iterator@DU?$char_traits@D@std@@@std@@@std@@@8
	DD	FLAT:??_R3?$num_put@DV?$ostreambuf_iterator@DU?$char_traits@D@std@@@std@@@std@@8
rdata$r	ENDS
;	COMDAT ??_R1A@?0A@EA@failure@ios_base@std@@8
rdata$r	SEGMENT
??_R1A@?0A@EA@failure@ios_base@std@@8 DD FLAT:??_R0?AVfailure@ios_base@std@@@8 ; std::ios_base::failure::`RTTI Base Class Descriptor at (0,-1,0,64)'
	DD	04H
	DD	00H
	DD	0ffffffffH
	DD	00H
	DD	040H
	DD	FLAT:??_R3failure@ios_base@std@@8
rdata$r	ENDS
;	COMDAT ??_R2failure@ios_base@std@@8
rdata$r	SEGMENT
??_R2failure@ios_base@std@@8 DD FLAT:??_R1A@?0A@EA@failure@ios_base@std@@8 ; std::ios_base::failure::`RTTI Base Class Array'
	DD	FLAT:??_R1A@?0A@EA@system_error@std@@8
	DD	FLAT:??_R1A@?0A@EA@_System_error@std@@8
	DD	FLAT:??_R1A@?0A@EA@runtime_error@std@@8
	DD	FLAT:??_R1A@?0A@EA@exception@std@@8
rdata$r	ENDS
;	COMDAT ??_R3failure@ios_base@std@@8
rdata$r	SEGMENT
??_R3failure@ios_base@std@@8 DD 00H			; std::ios_base::failure::`RTTI Class Hierarchy Descriptor'
	DD	00H
	DD	05H
	DD	FLAT:??_R2failure@ios_base@std@@8
rdata$r	ENDS
;	COMDAT ??_R4failure@ios_base@std@@6B@
rdata$r	SEGMENT
??_R4failure@ios_base@std@@6B@ DD 00H			; std::ios_base::failure::`RTTI Complete Object Locator'
	DD	00H
	DD	00H
	DD	FLAT:??_R0?AVfailure@ios_base@std@@@8
	DD	FLAT:??_R3failure@ios_base@std@@8
rdata$r	ENDS
;	COMDAT ??_R1A@?0A@EA@_Iostream_error_category@std@@8
rdata$r	SEGMENT
??_R1A@?0A@EA@_Iostream_error_category@std@@8 DD FLAT:??_R0?AV_Iostream_error_category@std@@@8 ; std::_Iostream_error_category::`RTTI Base Class Descriptor at (0,-1,0,64)'
	DD	02H
	DD	00H
	DD	0ffffffffH
	DD	00H
	DD	040H
	DD	FLAT:??_R3_Iostream_error_category@std@@8
rdata$r	ENDS
;	COMDAT ??_R2_Iostream_error_category@std@@8
rdata$r	SEGMENT
??_R2_Iostream_error_category@std@@8 DD FLAT:??_R1A@?0A@EA@_Iostream_error_category@std@@8 ; std::_Iostream_error_category::`RTTI Base Class Array'
	DD	FLAT:??_R1A@?0A@EA@_Generic_error_category@std@@8
	DD	FLAT:??_R1A@?0A@EA@error_category@std@@8
rdata$r	ENDS
;	COMDAT ??_R3_Iostream_error_category@std@@8
rdata$r	SEGMENT
??_R3_Iostream_error_category@std@@8 DD 00H		; std::_Iostream_error_category::`RTTI Class Hierarchy Descriptor'
	DD	00H
	DD	03H
	DD	FLAT:??_R2_Iostream_error_category@std@@8
rdata$r	ENDS
;	COMDAT ??_R0?AV_Iostream_error_category@std@@@8
data$r	SEGMENT
??_R0?AV_Iostream_error_category@std@@@8 DD FLAT:??_7type_info@@6B@ ; std::_Iostream_error_category `RTTI Type Descriptor'
	DD	00H
	DB	'.?AV_Iostream_error_category@std@@', 00H
data$r	ENDS
;	COMDAT ??_R4_Iostream_error_category@std@@6B@
rdata$r	SEGMENT
??_R4_Iostream_error_category@std@@6B@ DD 00H		; std::_Iostream_error_category::`RTTI Complete Object Locator'
	DD	00H
	DD	00H
	DD	FLAT:??_R0?AV_Iostream_error_category@std@@@8
	DD	FLAT:??_R3_Iostream_error_category@std@@8
rdata$r	ENDS
;	COMDAT ??_R1A@?0A@EA@_Generic_error_category@std@@8
rdata$r	SEGMENT
??_R1A@?0A@EA@_Generic_error_category@std@@8 DD FLAT:??_R0?AV_Generic_error_category@std@@@8 ; std::_Generic_error_category::`RTTI Base Class Descriptor at (0,-1,0,64)'
	DD	01H
	DD	00H
	DD	0ffffffffH
	DD	00H
	DD	040H
	DD	FLAT:??_R3_Generic_error_category@std@@8
rdata$r	ENDS
;	COMDAT ??_R2_Generic_error_category@std@@8
rdata$r	SEGMENT
??_R2_Generic_error_category@std@@8 DD FLAT:??_R1A@?0A@EA@_Generic_error_category@std@@8 ; std::_Generic_error_category::`RTTI Base Class Array'
	DD	FLAT:??_R1A@?0A@EA@error_category@std@@8
rdata$r	ENDS
;	COMDAT ??_R3_Generic_error_category@std@@8
rdata$r	SEGMENT
??_R3_Generic_error_category@std@@8 DD 00H		; std::_Generic_error_category::`RTTI Class Hierarchy Descriptor'
	DD	00H
	DD	02H
	DD	FLAT:??_R2_Generic_error_category@std@@8
rdata$r	ENDS
;	COMDAT ??_R0?AV_Generic_error_category@std@@@8
data$r	SEGMENT
??_R0?AV_Generic_error_category@std@@@8 DD FLAT:??_7type_info@@6B@ ; std::_Generic_error_category `RTTI Type Descriptor'
	DD	00H
	DB	'.?AV_Generic_error_category@std@@', 00H
data$r	ENDS
;	COMDAT ??_R4_Generic_error_category@std@@6B@
rdata$r	SEGMENT
??_R4_Generic_error_category@std@@6B@ DD 00H		; std::_Generic_error_category::`RTTI Complete Object Locator'
	DD	00H
	DD	00H
	DD	FLAT:??_R0?AV_Generic_error_category@std@@@8
	DD	FLAT:??_R3_Generic_error_category@std@@8
rdata$r	ENDS
;	COMDAT ??_R1A@?0A@EA@system_error@std@@8
rdata$r	SEGMENT
??_R1A@?0A@EA@system_error@std@@8 DD FLAT:??_R0?AVsystem_error@std@@@8 ; std::system_error::`RTTI Base Class Descriptor at (0,-1,0,64)'
	DD	03H
	DD	00H
	DD	0ffffffffH
	DD	00H
	DD	040H
	DD	FLAT:??_R3system_error@std@@8
rdata$r	ENDS
;	COMDAT ??_R2system_error@std@@8
rdata$r	SEGMENT
??_R2system_error@std@@8 DD FLAT:??_R1A@?0A@EA@system_error@std@@8 ; std::system_error::`RTTI Base Class Array'
	DD	FLAT:??_R1A@?0A@EA@_System_error@std@@8
	DD	FLAT:??_R1A@?0A@EA@runtime_error@std@@8
	DD	FLAT:??_R1A@?0A@EA@exception@std@@8
rdata$r	ENDS
;	COMDAT ??_R3system_error@std@@8
rdata$r	SEGMENT
??_R3system_error@std@@8 DD 00H				; std::system_error::`RTTI Class Hierarchy Descriptor'
	DD	00H
	DD	04H
	DD	FLAT:??_R2system_error@std@@8
rdata$r	ENDS
;	COMDAT ??_R4system_error@std@@6B@
rdata$r	SEGMENT
??_R4system_error@std@@6B@ DD 00H			; std::system_error::`RTTI Complete Object Locator'
	DD	00H
	DD	00H
	DD	FLAT:??_R0?AVsystem_error@std@@@8
	DD	FLAT:??_R3system_error@std@@8
rdata$r	ENDS
;	COMDAT ??_R1A@?0A@EA@_System_error@std@@8
rdata$r	SEGMENT
??_R1A@?0A@EA@_System_error@std@@8 DD FLAT:??_R0?AV_System_error@std@@@8 ; std::_System_error::`RTTI Base Class Descriptor at (0,-1,0,64)'
	DD	02H
	DD	00H
	DD	0ffffffffH
	DD	00H
	DD	040H
	DD	FLAT:??_R3_System_error@std@@8
rdata$r	ENDS
;	COMDAT ??_R2_System_error@std@@8
rdata$r	SEGMENT
??_R2_System_error@std@@8 DD FLAT:??_R1A@?0A@EA@_System_error@std@@8 ; std::_System_error::`RTTI Base Class Array'
	DD	FLAT:??_R1A@?0A@EA@runtime_error@std@@8
	DD	FLAT:??_R1A@?0A@EA@exception@std@@8
rdata$r	ENDS
;	COMDAT ??_R3_System_error@std@@8
rdata$r	SEGMENT
??_R3_System_error@std@@8 DD 00H			; std::_System_error::`RTTI Class Hierarchy Descriptor'
	DD	00H
	DD	03H
	DD	FLAT:??_R2_System_error@std@@8
rdata$r	ENDS
;	COMDAT ??_R4_System_error@std@@6B@
rdata$r	SEGMENT
??_R4_System_error@std@@6B@ DD 00H			; std::_System_error::`RTTI Complete Object Locator'
	DD	00H
	DD	00H
	DD	FLAT:??_R0?AV_System_error@std@@@8
	DD	FLAT:??_R3_System_error@std@@8
rdata$r	ENDS
;	COMDAT ??_R1A@?0A@EA@error_category@std@@8
rdata$r	SEGMENT
??_R1A@?0A@EA@error_category@std@@8 DD FLAT:??_R0?AVerror_category@std@@@8 ; std::error_category::`RTTI Base Class Descriptor at (0,-1,0,64)'
	DD	00H
	DD	00H
	DD	0ffffffffH
	DD	00H
	DD	040H
	DD	FLAT:??_R3error_category@std@@8
rdata$r	ENDS
;	COMDAT ??_R2error_category@std@@8
rdata$r	SEGMENT
??_R2error_category@std@@8 DD FLAT:??_R1A@?0A@EA@error_category@std@@8 ; std::error_category::`RTTI Base Class Array'
rdata$r	ENDS
;	COMDAT ??_R3error_category@std@@8
rdata$r	SEGMENT
??_R3error_category@std@@8 DD 00H			; std::error_category::`RTTI Class Hierarchy Descriptor'
	DD	00H
	DD	01H
	DD	FLAT:??_R2error_category@std@@8
rdata$r	ENDS
;	COMDAT ??_R0?AVerror_category@std@@@8
data$r	SEGMENT
??_R0?AVerror_category@std@@@8 DD FLAT:??_7type_info@@6B@ ; std::error_category `RTTI Type Descriptor'
	DD	00H
	DB	'.?AVerror_category@std@@', 00H
data$r	ENDS
;	COMDAT ??_R1A@?0A@EA@?$ctype@D@std@@8
rdata$r	SEGMENT
??_R1A@?0A@EA@?$ctype@D@std@@8 DD FLAT:??_R0?AV?$ctype@D@std@@@8 ; std::ctype<char>::`RTTI Base Class Descriptor at (0,-1,0,64)'
	DD	04H
	DD	00H
	DD	0ffffffffH
	DD	00H
	DD	040H
	DD	FLAT:??_R3?$ctype@D@std@@8
rdata$r	ENDS
;	COMDAT ??_R2?$ctype@D@std@@8
rdata$r	SEGMENT
??_R2?$ctype@D@std@@8 DD FLAT:??_R1A@?0A@EA@?$ctype@D@std@@8 ; std::ctype<char>::`RTTI Base Class Array'
	DD	FLAT:??_R1A@?0A@EA@ctype_base@std@@8
	DD	FLAT:??_R1A@?0A@EA@facet@locale@std@@8
	DD	FLAT:??_R1A@?0A@EA@_Facet_base@std@@8
	DD	FLAT:??_R13?0A@EA@_Crt_new_delete@std@@8
rdata$r	ENDS
;	COMDAT ??_R3?$ctype@D@std@@8
rdata$r	SEGMENT
??_R3?$ctype@D@std@@8 DD 00H				; std::ctype<char>::`RTTI Class Hierarchy Descriptor'
	DD	01H
	DD	05H
	DD	FLAT:??_R2?$ctype@D@std@@8
rdata$r	ENDS
;	COMDAT ??_R0?AV?$ctype@D@std@@@8
data$r	SEGMENT
??_R0?AV?$ctype@D@std@@@8 DD FLAT:??_7type_info@@6B@	; std::ctype<char> `RTTI Type Descriptor'
	DD	00H
	DB	'.?AV?$ctype@D@std@@', 00H
data$r	ENDS
;	COMDAT ??_R4?$ctype@D@std@@6B@
rdata$r	SEGMENT
??_R4?$ctype@D@std@@6B@ DD 00H				; std::ctype<char>::`RTTI Complete Object Locator'
	DD	00H
	DD	00H
	DD	FLAT:??_R0?AV?$ctype@D@std@@@8
	DD	FLAT:??_R3?$ctype@D@std@@8
rdata$r	ENDS
;	COMDAT ??_R1A@?0A@EA@ctype_base@std@@8
rdata$r	SEGMENT
??_R1A@?0A@EA@ctype_base@std@@8 DD FLAT:??_R0?AUctype_base@std@@@8 ; std::ctype_base::`RTTI Base Class Descriptor at (0,-1,0,64)'
	DD	03H
	DD	00H
	DD	0ffffffffH
	DD	00H
	DD	040H
	DD	FLAT:??_R3ctype_base@std@@8
rdata$r	ENDS
;	COMDAT ??_R2ctype_base@std@@8
rdata$r	SEGMENT
??_R2ctype_base@std@@8 DD FLAT:??_R1A@?0A@EA@ctype_base@std@@8 ; std::ctype_base::`RTTI Base Class Array'
	DD	FLAT:??_R1A@?0A@EA@facet@locale@std@@8
	DD	FLAT:??_R1A@?0A@EA@_Facet_base@std@@8
	DD	FLAT:??_R13?0A@EA@_Crt_new_delete@std@@8
rdata$r	ENDS
;	COMDAT ??_R3ctype_base@std@@8
rdata$r	SEGMENT
??_R3ctype_base@std@@8 DD 00H				; std::ctype_base::`RTTI Class Hierarchy Descriptor'
	DD	01H
	DD	04H
	DD	FLAT:??_R2ctype_base@std@@8
rdata$r	ENDS
;	COMDAT ??_R0?AUctype_base@std@@@8
data$r	SEGMENT
??_R0?AUctype_base@std@@@8 DD FLAT:??_7type_info@@6B@	; std::ctype_base `RTTI Type Descriptor'
	DD	00H
	DB	'.?AUctype_base@std@@', 00H
data$r	ENDS
;	COMDAT ??_R4ctype_base@std@@6B@
rdata$r	SEGMENT
??_R4ctype_base@std@@6B@ DD 00H				; std::ctype_base::`RTTI Complete Object Locator'
	DD	00H
	DD	00H
	DD	FLAT:??_R0?AUctype_base@std@@@8
	DD	FLAT:??_R3ctype_base@std@@8
rdata$r	ENDS
;	COMDAT ??_R4facet@locale@std@@6B@
rdata$r	SEGMENT
??_R4facet@locale@std@@6B@ DD 00H			; std::locale::facet::`RTTI Complete Object Locator'
	DD	00H
	DD	00H
	DD	FLAT:??_R0?AVfacet@locale@std@@@8
	DD	FLAT:??_R3facet@locale@std@@8
rdata$r	ENDS
;	COMDAT ??_R1A@?0A@EA@_Crt_new_delete@std@@8
rdata$r	SEGMENT
??_R1A@?0A@EA@_Crt_new_delete@std@@8 DD FLAT:??_R0?AU_Crt_new_delete@std@@@8 ; std::_Crt_new_delete::`RTTI Base Class Descriptor at (0,-1,0,64)'
	DD	00H
	DD	00H
	DD	0ffffffffH
	DD	00H
	DD	040H
	DD	FLAT:??_R3_Crt_new_delete@std@@8
rdata$r	ENDS
;	COMDAT ??_R2_Crt_new_delete@std@@8
rdata$r	SEGMENT
??_R2_Crt_new_delete@std@@8 DD FLAT:??_R1A@?0A@EA@_Crt_new_delete@std@@8 ; std::_Crt_new_delete::`RTTI Base Class Array'
rdata$r	ENDS
;	COMDAT ??_R3_Crt_new_delete@std@@8
rdata$r	SEGMENT
??_R3_Crt_new_delete@std@@8 DD 00H			; std::_Crt_new_delete::`RTTI Class Hierarchy Descriptor'
	DD	00H
	DD	01H
	DD	FLAT:??_R2_Crt_new_delete@std@@8
rdata$r	ENDS
;	COMDAT ??_R0?AU_Crt_new_delete@std@@@8
data$r	SEGMENT
??_R0?AU_Crt_new_delete@std@@@8 DD FLAT:??_7type_info@@6B@ ; std::_Crt_new_delete `RTTI Type Descriptor'
	DD	00H
	DB	'.?AU_Crt_new_delete@std@@', 00H
data$r	ENDS
;	COMDAT ??_R13?0A@EA@_Crt_new_delete@std@@8
rdata$r	SEGMENT
??_R13?0A@EA@_Crt_new_delete@std@@8 DD FLAT:??_R0?AU_Crt_new_delete@std@@@8 ; std::_Crt_new_delete::`RTTI Base Class Descriptor at (4,-1,0,64)'
	DD	00H
	DD	04H
	DD	0ffffffffH
	DD	00H
	DD	040H
	DD	FLAT:??_R3_Crt_new_delete@std@@8
rdata$r	ENDS
;	COMDAT ??_R2facet@locale@std@@8
rdata$r	SEGMENT
??_R2facet@locale@std@@8 DD FLAT:??_R1A@?0A@EA@facet@locale@std@@8 ; std::locale::facet::`RTTI Base Class Array'
	DD	FLAT:??_R1A@?0A@EA@_Facet_base@std@@8
	DD	FLAT:??_R13?0A@EA@_Crt_new_delete@std@@8
rdata$r	ENDS
;	COMDAT ??_R3facet@locale@std@@8
rdata$r	SEGMENT
??_R3facet@locale@std@@8 DD 00H				; std::locale::facet::`RTTI Class Hierarchy Descriptor'
	DD	01H
	DD	03H
	DD	FLAT:??_R2facet@locale@std@@8
rdata$r	ENDS
;	COMDAT ??_R0?AVfacet@locale@std@@@8
data$r	SEGMENT
??_R0?AVfacet@locale@std@@@8 DD FLAT:??_7type_info@@6B@	; std::locale::facet `RTTI Type Descriptor'
	DD	00H
	DB	'.?AVfacet@locale@std@@', 00H
data$r	ENDS
;	COMDAT ??_R1A@?0A@EA@facet@locale@std@@8
rdata$r	SEGMENT
??_R1A@?0A@EA@facet@locale@std@@8 DD FLAT:??_R0?AVfacet@locale@std@@@8 ; std::locale::facet::`RTTI Base Class Descriptor at (0,-1,0,64)'
	DD	02H
	DD	00H
	DD	0ffffffffH
	DD	00H
	DD	040H
	DD	FLAT:??_R3facet@locale@std@@8
rdata$r	ENDS
;	COMDAT ??_R1A@?0A@EA@_Facet_base@std@@8
rdata$r	SEGMENT
??_R1A@?0A@EA@_Facet_base@std@@8 DD FLAT:??_R0?AV_Facet_base@std@@@8 ; std::_Facet_base::`RTTI Base Class Descriptor at (0,-1,0,64)'
	DD	00H
	DD	00H
	DD	0ffffffffH
	DD	00H
	DD	040H
	DD	FLAT:??_R3_Facet_base@std@@8
rdata$r	ENDS
;	COMDAT ??_R2_Facet_base@std@@8
rdata$r	SEGMENT
??_R2_Facet_base@std@@8 DD FLAT:??_R1A@?0A@EA@_Facet_base@std@@8 ; std::_Facet_base::`RTTI Base Class Array'
rdata$r	ENDS
;	COMDAT ??_R3_Facet_base@std@@8
rdata$r	SEGMENT
??_R3_Facet_base@std@@8 DD 00H				; std::_Facet_base::`RTTI Class Hierarchy Descriptor'
	DD	00H
	DD	01H
	DD	FLAT:??_R2_Facet_base@std@@8
rdata$r	ENDS
;	COMDAT ??_R0?AV_Facet_base@std@@@8
data$r	SEGMENT
??_R0?AV_Facet_base@std@@@8 DD FLAT:??_7type_info@@6B@	; std::_Facet_base `RTTI Type Descriptor'
	DD	00H
	DB	'.?AV_Facet_base@std@@', 00H
data$r	ENDS
;	COMDAT ??_R4_Facet_base@std@@6B@
rdata$r	SEGMENT
??_R4_Facet_base@std@@6B@ DD 00H			; std::_Facet_base::`RTTI Complete Object Locator'
	DD	00H
	DD	00H
	DD	FLAT:??_R0?AV_Facet_base@std@@@8
	DD	FLAT:??_R3_Facet_base@std@@8
rdata$r	ENDS
;	COMDAT ??_R1A@?0A@EA@bad_cast@std@@8
rdata$r	SEGMENT
??_R1A@?0A@EA@bad_cast@std@@8 DD FLAT:??_R0?AVbad_cast@std@@@8 ; std::bad_cast::`RTTI Base Class Descriptor at (0,-1,0,64)'
	DD	01H
	DD	00H
	DD	0ffffffffH
	DD	00H
	DD	040H
	DD	FLAT:??_R3bad_cast@std@@8
rdata$r	ENDS
;	COMDAT ??_R2bad_cast@std@@8
rdata$r	SEGMENT
??_R2bad_cast@std@@8 DD FLAT:??_R1A@?0A@EA@bad_cast@std@@8 ; std::bad_cast::`RTTI Base Class Array'
	DD	FLAT:??_R1A@?0A@EA@exception@std@@8
rdata$r	ENDS
;	COMDAT ??_R3bad_cast@std@@8
rdata$r	SEGMENT
??_R3bad_cast@std@@8 DD 00H				; std::bad_cast::`RTTI Class Hierarchy Descriptor'
	DD	00H
	DD	02H
	DD	FLAT:??_R2bad_cast@std@@8
rdata$r	ENDS
;	COMDAT ??_R4bad_cast@std@@6B@
rdata$r	SEGMENT
??_R4bad_cast@std@@6B@ DD 00H				; std::bad_cast::`RTTI Complete Object Locator'
	DD	00H
	DD	00H
	DD	FLAT:??_R0?AVbad_cast@std@@@8
	DD	FLAT:??_R3bad_cast@std@@8
rdata$r	ENDS
;	COMDAT ??_R1A@?0A@EA@runtime_error@std@@8
rdata$r	SEGMENT
??_R1A@?0A@EA@runtime_error@std@@8 DD FLAT:??_R0?AVruntime_error@std@@@8 ; std::runtime_error::`RTTI Base Class Descriptor at (0,-1,0,64)'
	DD	01H
	DD	00H
	DD	0ffffffffH
	DD	00H
	DD	040H
	DD	FLAT:??_R3runtime_error@std@@8
rdata$r	ENDS
;	COMDAT ??_R2runtime_error@std@@8
rdata$r	SEGMENT
??_R2runtime_error@std@@8 DD FLAT:??_R1A@?0A@EA@runtime_error@std@@8 ; std::runtime_error::`RTTI Base Class Array'
	DD	FLAT:??_R1A@?0A@EA@exception@std@@8
rdata$r	ENDS
;	COMDAT ??_R3runtime_error@std@@8
rdata$r	SEGMENT
??_R3runtime_error@std@@8 DD 00H			; std::runtime_error::`RTTI Class Hierarchy Descriptor'
	DD	00H
	DD	02H
	DD	FLAT:??_R2runtime_error@std@@8
rdata$r	ENDS
;	COMDAT ??_R4runtime_error@std@@6B@
rdata$r	SEGMENT
??_R4runtime_error@std@@6B@ DD 00H			; std::runtime_error::`RTTI Complete Object Locator'
	DD	00H
	DD	00H
	DD	FLAT:??_R0?AVruntime_error@std@@@8
	DD	FLAT:??_R3runtime_error@std@@8
rdata$r	ENDS
;	COMDAT ??_R1A@?0A@EA@?$basic_ostringstream@DU?$char_traits@D@std@@V?$allocator@D@2@@std@@8
rdata$r	SEGMENT
??_R1A@?0A@EA@?$basic_ostringstream@DU?$char_traits@D@std@@V?$allocator@D@2@@std@@8 DD FLAT:??_R0?AV?$basic_ostringstream@DU?$char_traits@D@std@@V?$allocator@D@2@@std@@@8 ; std::basic_ostringstream<char,std::char_traits<char>,std::allocator<char> >::`RTTI Base Class Descriptor at (0,-1,0,64)'
	DD	04H
	DD	00H
	DD	0ffffffffH
	DD	00H
	DD	040H
	DD	FLAT:??_R3?$basic_ostringstream@DU?$char_traits@D@std@@V?$allocator@D@2@@std@@8
rdata$r	ENDS
;	COMDAT ??_R2?$basic_ostringstream@DU?$char_traits@D@std@@V?$allocator@D@2@@std@@8
rdata$r	SEGMENT
??_R2?$basic_ostringstream@DU?$char_traits@D@std@@V?$allocator@D@2@@std@@8 DD FLAT:??_R1A@?0A@EA@?$basic_ostringstream@DU?$char_traits@D@std@@V?$allocator@D@2@@std@@8 ; std::basic_ostringstream<char,std::char_traits<char>,std::allocator<char> >::`RTTI Base Class Array'
	DD	FLAT:??_R1A@?0A@EA@?$basic_ostream@DU?$char_traits@D@std@@@std@@8
	DD	FLAT:??_R1A@A@3FA@?$basic_ios@DU?$char_traits@D@std@@@std@@8
	DD	FLAT:??_R1A@A@3EA@ios_base@std@@8
	DD	FLAT:??_R17A@3EA@?$_Iosb@H@std@@8
rdata$r	ENDS
;	COMDAT ??_R3?$basic_ostringstream@DU?$char_traits@D@std@@V?$allocator@D@2@@std@@8
rdata$r	SEGMENT
??_R3?$basic_ostringstream@DU?$char_traits@D@std@@V?$allocator@D@2@@std@@8 DD 00H ; std::basic_ostringstream<char,std::char_traits<char>,std::allocator<char> >::`RTTI Class Hierarchy Descriptor'
	DD	00H
	DD	05H
	DD	FLAT:??_R2?$basic_ostringstream@DU?$char_traits@D@std@@V?$allocator@D@2@@std@@8
rdata$r	ENDS
;	COMDAT ??_R0?AV?$basic_ostringstream@DU?$char_traits@D@std@@V?$allocator@D@2@@std@@@8
data$r	SEGMENT
??_R0?AV?$basic_ostringstream@DU?$char_traits@D@std@@V?$allocator@D@2@@std@@@8 DD FLAT:??_7type_info@@6B@ ; std::basic_ostringstream<char,std::char_traits<char>,std::allocator<char> > `RTTI Type Descriptor'
	DD	00H
	DB	'.?AV?$basic_ostringstream@DU?$char_traits@D@std@@V?$allo'
	DB	'cator@D@2@@std@@', 00H
data$r	ENDS
;	COMDAT ??_R4?$basic_ostringstream@DU?$char_traits@D@std@@V?$allocator@D@2@@std@@6B@
rdata$r	SEGMENT
??_R4?$basic_ostringstream@DU?$char_traits@D@std@@V?$allocator@D@2@@std@@6B@ DD 00H ; std::basic_ostringstream<char,std::char_traits<char>,std::allocator<char> >::`RTTI Complete Object Locator'
	DD	050H
	DD	04H
	DD	FLAT:??_R0?AV?$basic_ostringstream@DU?$char_traits@D@std@@V?$allocator@D@2@@std@@@8
	DD	FLAT:??_R3?$basic_ostringstream@DU?$char_traits@D@std@@V?$allocator@D@2@@std@@8
rdata$r	ENDS
;	COMDAT ??_R1A@?0A@EA@?$basic_stringbuf@DU?$char_traits@D@std@@V?$allocator@D@2@@std@@8
rdata$r	SEGMENT
??_R1A@?0A@EA@?$basic_stringbuf@DU?$char_traits@D@std@@V?$allocator@D@2@@std@@8 DD FLAT:??_R0?AV?$basic_stringbuf@DU?$char_traits@D@std@@V?$allocator@D@2@@std@@@8 ; std::basic_stringbuf<char,std::char_traits<char>,std::allocator<char> >::`RTTI Base Class Descriptor at (0,-1,0,64)'
	DD	01H
	DD	00H
	DD	0ffffffffH
	DD	00H
	DD	040H
	DD	FLAT:??_R3?$basic_stringbuf@DU?$char_traits@D@std@@V?$allocator@D@2@@std@@8
rdata$r	ENDS
;	COMDAT ??_R2?$basic_stringbuf@DU?$char_traits@D@std@@V?$allocator@D@2@@std@@8
rdata$r	SEGMENT
??_R2?$basic_stringbuf@DU?$char_traits@D@std@@V?$allocator@D@2@@std@@8 DD FLAT:??_R1A@?0A@EA@?$basic_stringbuf@DU?$char_traits@D@std@@V?$allocator@D@2@@std@@8 ; std::basic_stringbuf<char,std::char_traits<char>,std::allocator<char> >::`RTTI Base Class Array'
	DD	FLAT:??_R1A@?0A@EA@?$basic_streambuf@DU?$char_traits@D@std@@@std@@8
rdata$r	ENDS
;	COMDAT ??_R3?$basic_stringbuf@DU?$char_traits@D@std@@V?$allocator@D@2@@std@@8
rdata$r	SEGMENT
??_R3?$basic_stringbuf@DU?$char_traits@D@std@@V?$allocator@D@2@@std@@8 DD 00H ; std::basic_stringbuf<char,std::char_traits<char>,std::allocator<char> >::`RTTI Class Hierarchy Descriptor'
	DD	00H
	DD	02H
	DD	FLAT:??_R2?$basic_stringbuf@DU?$char_traits@D@std@@V?$allocator@D@2@@std@@8
rdata$r	ENDS
;	COMDAT ??_R0?AV?$basic_stringbuf@DU?$char_traits@D@std@@V?$allocator@D@2@@std@@@8
data$r	SEGMENT
??_R0?AV?$basic_stringbuf@DU?$char_traits@D@std@@V?$allocator@D@2@@std@@@8 DD FLAT:??_7type_info@@6B@ ; std::basic_stringbuf<char,std::char_traits<char>,std::allocator<char> > `RTTI Type Descriptor'
	DD	00H
	DB	'.?AV?$basic_stringbuf@DU?$char_traits@D@std@@V?$allocato'
	DB	'r@D@2@@std@@', 00H
data$r	ENDS
;	COMDAT ??_R4?$basic_stringbuf@DU?$char_traits@D@std@@V?$allocator@D@2@@std@@6B@
rdata$r	SEGMENT
??_R4?$basic_stringbuf@DU?$char_traits@D@std@@V?$allocator@D@2@@std@@6B@ DD 00H ; std::basic_stringbuf<char,std::char_traits<char>,std::allocator<char> >::`RTTI Complete Object Locator'
	DD	00H
	DD	00H
	DD	FLAT:??_R0?AV?$basic_stringbuf@DU?$char_traits@D@std@@V?$allocator@D@2@@std@@@8
	DD	FLAT:??_R3?$basic_stringbuf@DU?$char_traits@D@std@@V?$allocator@D@2@@std@@8
rdata$r	ENDS
;	COMDAT ??_R17A@3EA@?$_Iosb@H@std@@8
rdata$r	SEGMENT
??_R17A@3EA@?$_Iosb@H@std@@8 DD FLAT:??_R0?AV?$_Iosb@H@std@@@8 ; std::_Iosb<int>::`RTTI Base Class Descriptor at (8,0,4,64)'
	DD	00H
	DD	08H
	DD	00H
	DD	04H
	DD	040H
	DD	FLAT:??_R3?$_Iosb@H@std@@8
rdata$r	ENDS
;	COMDAT ??_R1A@A@3EA@ios_base@std@@8
rdata$r	SEGMENT
??_R1A@A@3EA@ios_base@std@@8 DD FLAT:??_R0?AVios_base@std@@@8 ; std::ios_base::`RTTI Base Class Descriptor at (0,0,4,64)'
	DD	01H
	DD	00H
	DD	00H
	DD	04H
	DD	040H
	DD	FLAT:??_R3ios_base@std@@8
rdata$r	ENDS
;	COMDAT ??_R1A@A@3FA@?$basic_ios@DU?$char_traits@D@std@@@std@@8
rdata$r	SEGMENT
??_R1A@A@3FA@?$basic_ios@DU?$char_traits@D@std@@@std@@8 DD FLAT:??_R0?AV?$basic_ios@DU?$char_traits@D@std@@@std@@@8 ; std::basic_ios<char,std::char_traits<char> >::`RTTI Base Class Descriptor at (0,0,4,80)'
	DD	02H
	DD	00H
	DD	00H
	DD	04H
	DD	050H
	DD	FLAT:??_R3?$basic_ios@DU?$char_traits@D@std@@@std@@8
rdata$r	ENDS
;	COMDAT ??_R1A@?0A@EA@?$basic_ostream@DU?$char_traits@D@std@@@std@@8
rdata$r	SEGMENT
??_R1A@?0A@EA@?$basic_ostream@DU?$char_traits@D@std@@@std@@8 DD FLAT:??_R0?AV?$basic_ostream@DU?$char_traits@D@std@@@std@@@8 ; std::basic_ostream<char,std::char_traits<char> >::`RTTI Base Class Descriptor at (0,-1,0,64)'
	DD	03H
	DD	00H
	DD	0ffffffffH
	DD	00H
	DD	040H
	DD	FLAT:??_R3?$basic_ostream@DU?$char_traits@D@std@@@std@@8
rdata$r	ENDS
;	COMDAT ??_R2?$basic_ostream@DU?$char_traits@D@std@@@std@@8
rdata$r	SEGMENT
??_R2?$basic_ostream@DU?$char_traits@D@std@@@std@@8 DD FLAT:??_R1A@?0A@EA@?$basic_ostream@DU?$char_traits@D@std@@@std@@8 ; std::basic_ostream<char,std::char_traits<char> >::`RTTI Base Class Array'
	DD	FLAT:??_R1A@A@3FA@?$basic_ios@DU?$char_traits@D@std@@@std@@8
	DD	FLAT:??_R1A@A@3EA@ios_base@std@@8
	DD	FLAT:??_R17A@3EA@?$_Iosb@H@std@@8
rdata$r	ENDS
;	COMDAT ??_R3?$basic_ostream@DU?$char_traits@D@std@@@std@@8
rdata$r	SEGMENT
??_R3?$basic_ostream@DU?$char_traits@D@std@@@std@@8 DD 00H ; std::basic_ostream<char,std::char_traits<char> >::`RTTI Class Hierarchy Descriptor'
	DD	00H
	DD	04H
	DD	FLAT:??_R2?$basic_ostream@DU?$char_traits@D@std@@@std@@8
rdata$r	ENDS
;	COMDAT ??_R0?AV?$basic_ostream@DU?$char_traits@D@std@@@std@@@8
data$r	SEGMENT
??_R0?AV?$basic_ostream@DU?$char_traits@D@std@@@std@@@8 DD FLAT:??_7type_info@@6B@ ; std::basic_ostream<char,std::char_traits<char> > `RTTI Type Descriptor'
	DD	00H
	DB	'.?AV?$basic_ostream@DU?$char_traits@D@std@@@std@@', 00H
data$r	ENDS
;	COMDAT ??_R4?$basic_ostream@DU?$char_traits@D@std@@@std@@6B@
rdata$r	SEGMENT
??_R4?$basic_ostream@DU?$char_traits@D@std@@@std@@6B@ DD 00H ; std::basic_ostream<char,std::char_traits<char> >::`RTTI Complete Object Locator'
	DD	08H
	DD	04H
	DD	FLAT:??_R0?AV?$basic_ostream@DU?$char_traits@D@std@@@std@@@8
	DD	FLAT:??_R3?$basic_ostream@DU?$char_traits@D@std@@@std@@8
rdata$r	ENDS
;	COMDAT ??_R1A@?0A@EA@?$basic_streambuf@DU?$char_traits@D@std@@@std@@8
rdata$r	SEGMENT
??_R1A@?0A@EA@?$basic_streambuf@DU?$char_traits@D@std@@@std@@8 DD FLAT:??_R0?AV?$basic_streambuf@DU?$char_traits@D@std@@@std@@@8 ; std::basic_streambuf<char,std::char_traits<char> >::`RTTI Base Class Descriptor at (0,-1,0,64)'
	DD	00H
	DD	00H
	DD	0ffffffffH
	DD	00H
	DD	040H
	DD	FLAT:??_R3?$basic_streambuf@DU?$char_traits@D@std@@@std@@8
rdata$r	ENDS
;	COMDAT ??_R2?$basic_streambuf@DU?$char_traits@D@std@@@std@@8
rdata$r	SEGMENT
??_R2?$basic_streambuf@DU?$char_traits@D@std@@@std@@8 DD FLAT:??_R1A@?0A@EA@?$basic_streambuf@DU?$char_traits@D@std@@@std@@8 ; std::basic_streambuf<char,std::char_traits<char> >::`RTTI Base Class Array'
rdata$r	ENDS
;	COMDAT ??_R3?$basic_streambuf@DU?$char_traits@D@std@@@std@@8
rdata$r	SEGMENT
??_R3?$basic_streambuf@DU?$char_traits@D@std@@@std@@8 DD 00H ; std::basic_streambuf<char,std::char_traits<char> >::`RTTI Class Hierarchy Descriptor'
	DD	00H
	DD	01H
	DD	FLAT:??_R2?$basic_streambuf@DU?$char_traits@D@std@@@std@@8
rdata$r	ENDS
;	COMDAT ??_R0?AV?$basic_streambuf@DU?$char_traits@D@std@@@std@@@8
data$r	SEGMENT
??_R0?AV?$basic_streambuf@DU?$char_traits@D@std@@@std@@@8 DD FLAT:??_7type_info@@6B@ ; std::basic_streambuf<char,std::char_traits<char> > `RTTI Type Descriptor'
	DD	00H
	DB	'.?AV?$basic_streambuf@DU?$char_traits@D@std@@@std@@', 00H
data$r	ENDS
;	COMDAT ??_R4?$basic_streambuf@DU?$char_traits@D@std@@@std@@6B@
rdata$r	SEGMENT
??_R4?$basic_streambuf@DU?$char_traits@D@std@@@std@@6B@ DD 00H ; std::basic_streambuf<char,std::char_traits<char> >::`RTTI Complete Object Locator'
	DD	00H
	DD	00H
	DD	FLAT:??_R0?AV?$basic_streambuf@DU?$char_traits@D@std@@@std@@@8
	DD	FLAT:??_R3?$basic_streambuf@DU?$char_traits@D@std@@@std@@8
rdata$r	ENDS
;	COMDAT ??_R1A@?0A@EA@?$basic_ios@DU?$char_traits@D@std@@@std@@8
rdata$r	SEGMENT
??_R1A@?0A@EA@?$basic_ios@DU?$char_traits@D@std@@@std@@8 DD FLAT:??_R0?AV?$basic_ios@DU?$char_traits@D@std@@@std@@@8 ; std::basic_ios<char,std::char_traits<char> >::`RTTI Base Class Descriptor at (0,-1,0,64)'
	DD	02H
	DD	00H
	DD	0ffffffffH
	DD	00H
	DD	040H
	DD	FLAT:??_R3?$basic_ios@DU?$char_traits@D@std@@@std@@8
rdata$r	ENDS
;	COMDAT ??_R2?$basic_ios@DU?$char_traits@D@std@@@std@@8
rdata$r	SEGMENT
??_R2?$basic_ios@DU?$char_traits@D@std@@@std@@8 DD FLAT:??_R1A@?0A@EA@?$basic_ios@DU?$char_traits@D@std@@@std@@8 ; std::basic_ios<char,std::char_traits<char> >::`RTTI Base Class Array'
	DD	FLAT:??_R1A@?0A@EA@ios_base@std@@8
	DD	FLAT:??_R17?0A@EA@?$_Iosb@H@std@@8
rdata$r	ENDS
;	COMDAT ??_R3?$basic_ios@DU?$char_traits@D@std@@@std@@8
rdata$r	SEGMENT
??_R3?$basic_ios@DU?$char_traits@D@std@@@std@@8 DD 00H	; std::basic_ios<char,std::char_traits<char> >::`RTTI Class Hierarchy Descriptor'
	DD	00H
	DD	03H
	DD	FLAT:??_R2?$basic_ios@DU?$char_traits@D@std@@@std@@8
rdata$r	ENDS
;	COMDAT ??_R0?AV?$basic_ios@DU?$char_traits@D@std@@@std@@@8
data$r	SEGMENT
??_R0?AV?$basic_ios@DU?$char_traits@D@std@@@std@@@8 DD FLAT:??_7type_info@@6B@ ; std::basic_ios<char,std::char_traits<char> > `RTTI Type Descriptor'
	DD	00H
	DB	'.?AV?$basic_ios@DU?$char_traits@D@std@@@std@@', 00H
data$r	ENDS
;	COMDAT ??_R4?$basic_ios@DU?$char_traits@D@std@@@std@@6B@
rdata$r	SEGMENT
??_R4?$basic_ios@DU?$char_traits@D@std@@@std@@6B@ DD 00H ; std::basic_ios<char,std::char_traits<char> >::`RTTI Complete Object Locator'
	DD	00H
	DD	00H
	DD	FLAT:??_R0?AV?$basic_ios@DU?$char_traits@D@std@@@std@@@8
	DD	FLAT:??_R3?$basic_ios@DU?$char_traits@D@std@@@std@@8
rdata$r	ENDS
;	COMDAT ??_R1A@?0A@EA@?$_Iosb@H@std@@8
rdata$r	SEGMENT
??_R1A@?0A@EA@?$_Iosb@H@std@@8 DD FLAT:??_R0?AV?$_Iosb@H@std@@@8 ; std::_Iosb<int>::`RTTI Base Class Descriptor at (0,-1,0,64)'
	DD	00H
	DD	00H
	DD	0ffffffffH
	DD	00H
	DD	040H
	DD	FLAT:??_R3?$_Iosb@H@std@@8
rdata$r	ENDS
;	COMDAT ??_R2?$_Iosb@H@std@@8
rdata$r	SEGMENT
??_R2?$_Iosb@H@std@@8 DD FLAT:??_R1A@?0A@EA@?$_Iosb@H@std@@8 ; std::_Iosb<int>::`RTTI Base Class Array'
rdata$r	ENDS
;	COMDAT ??_R3?$_Iosb@H@std@@8
rdata$r	SEGMENT
??_R3?$_Iosb@H@std@@8 DD 00H				; std::_Iosb<int>::`RTTI Class Hierarchy Descriptor'
	DD	00H
	DD	01H
	DD	FLAT:??_R2?$_Iosb@H@std@@8
rdata$r	ENDS
;	COMDAT ??_R0?AV?$_Iosb@H@std@@@8
data$r	SEGMENT
??_R0?AV?$_Iosb@H@std@@@8 DD FLAT:??_7type_info@@6B@	; std::_Iosb<int> `RTTI Type Descriptor'
	DD	00H
	DB	'.?AV?$_Iosb@H@std@@', 00H
data$r	ENDS
;	COMDAT ??_R17?0A@EA@?$_Iosb@H@std@@8
rdata$r	SEGMENT
??_R17?0A@EA@?$_Iosb@H@std@@8 DD FLAT:??_R0?AV?$_Iosb@H@std@@@8 ; std::_Iosb<int>::`RTTI Base Class Descriptor at (8,-1,0,64)'
	DD	00H
	DD	08H
	DD	0ffffffffH
	DD	00H
	DD	040H
	DD	FLAT:??_R3?$_Iosb@H@std@@8
rdata$r	ENDS
;	COMDAT ??_R1A@?0A@EA@ios_base@std@@8
rdata$r	SEGMENT
??_R1A@?0A@EA@ios_base@std@@8 DD FLAT:??_R0?AVios_base@std@@@8 ; std::ios_base::`RTTI Base Class Descriptor at (0,-1,0,64)'
	DD	01H
	DD	00H
	DD	0ffffffffH
	DD	00H
	DD	040H
	DD	FLAT:??_R3ios_base@std@@8
rdata$r	ENDS
;	COMDAT ??_R2ios_base@std@@8
rdata$r	SEGMENT
??_R2ios_base@std@@8 DD FLAT:??_R1A@?0A@EA@ios_base@std@@8 ; std::ios_base::`RTTI Base Class Array'
	DD	FLAT:??_R17?0A@EA@?$_Iosb@H@std@@8
rdata$r	ENDS
;	COMDAT ??_R3ios_base@std@@8
rdata$r	SEGMENT
??_R3ios_base@std@@8 DD 00H				; std::ios_base::`RTTI Class Hierarchy Descriptor'
	DD	00H
	DD	02H
	DD	FLAT:??_R2ios_base@std@@8
rdata$r	ENDS
;	COMDAT ??_R0?AVios_base@std@@@8
data$r	SEGMENT
??_R0?AVios_base@std@@@8 DD FLAT:??_7type_info@@6B@	; std::ios_base `RTTI Type Descriptor'
	DD	00H
	DB	'.?AVios_base@std@@', 00H
data$r	ENDS
;	COMDAT ??_R4ios_base@std@@6B@
rdata$r	SEGMENT
??_R4ios_base@std@@6B@ DD 00H				; std::ios_base::`RTTI Complete Object Locator'
	DD	00H
	DD	00H
	DD	FLAT:??_R0?AVios_base@std@@@8
	DD	FLAT:??_R3ios_base@std@@8
rdata$r	ENDS
;	COMDAT ??_R1A@?0A@EA@exception@std@@8
rdata$r	SEGMENT
??_R1A@?0A@EA@exception@std@@8 DD FLAT:??_R0?AVexception@std@@@8 ; std::exception::`RTTI Base Class Descriptor at (0,-1,0,64)'
	DD	00H
	DD	00H
	DD	0ffffffffH
	DD	00H
	DD	040H
	DD	FLAT:??_R3exception@std@@8
rdata$r	ENDS
;	COMDAT ??_R2exception@std@@8
rdata$r	SEGMENT
??_R2exception@std@@8 DD FLAT:??_R1A@?0A@EA@exception@std@@8 ; std::exception::`RTTI Base Class Array'
rdata$r	ENDS
;	COMDAT ??_R3exception@std@@8
rdata$r	SEGMENT
??_R3exception@std@@8 DD 00H				; std::exception::`RTTI Class Hierarchy Descriptor'
	DD	00H
	DD	01H
	DD	FLAT:??_R2exception@std@@8
rdata$r	ENDS
;	COMDAT ??_R4exception@std@@6B@
rdata$r	SEGMENT
??_R4exception@std@@6B@ DD 00H				; std::exception::`RTTI Complete Object Locator'
	DD	00H
	DD	00H
	DD	FLAT:??_R0?AVexception@std@@@8
	DD	FLAT:??_R3exception@std@@8
rdata$r	ENDS
;	COMDAT ??_C@_1DG@FJIKMGFD@?$AA?$CC?$AAt?$AAr?$AAa?$AAn?$AAs?$AAp?$AAo?$AAs?$AAe?$AAd?$AA?5?$AAp?$AAo?$AAi@
CONST	SEGMENT
??_C@_1DG@FJIKMGFD@?$AA?$CC?$AAt?$AAr?$AAa?$AAn?$AAs?$AAp?$AAo?$AAs?$AAe?$AAd?$AA?5?$AAp?$AAo?$AAi@ DB '"'
	DB	00H, 't', 00H, 'r', 00H, 'a', 00H, 'n', 00H, 's', 00H, 'p', 00H
	DB	'o', 00H, 's', 00H, 'e', 00H, 'd', 00H, ' ', 00H, 'p', 00H, 'o'
	DB	00H, 'i', 00H, 'n', 00H, 't', 00H, 'e', 00H, 'r', 00H, ' ', 00H
	DB	'r', 00H, 'a', 00H, 'n', 00H, 'g', 00H, 'e', 00H, '"', 00H, 00H
	DB	00H						; `string'
CONST	ENDS
;	COMDAT ??_C@_1CG@LJCPDKEJ@?$AAs?$AAt?$AAd?$AA?3?$AA?3?$AA_?$AAV?$AAe?$AAr?$AAi?$AAf?$AAy?$AA_?$AAr?$AAa@
CONST	SEGMENT
??_C@_1CG@LJCPDKEJ@?$AAs?$AAt?$AAd?$AA?3?$AA?3?$AA_?$AAV?$AAe?$AAr?$AAi?$AAf?$AAy?$AA_?$AAr?$AAa@ DB 's'
	DB	00H, 't', 00H, 'd', 00H, ':', 00H, ':', 00H, '_', 00H, 'V', 00H
	DB	'e', 00H, 'r', 00H, 'i', 00H, 'f', 00H, 'y', 00H, '_', 00H, 'r'
	DB	00H, 'a', 00H, 'n', 00H, 'g', 00H, 'e', 00H, 00H, 00H ; `string'
CONST	ENDS
;	COMDAT ??_C@_0BJ@HAJGEHKO@transposed?5pointer?5range@
CONST	SEGMENT
??_C@_0BJ@HAJGEHKO@transposed?5pointer?5range@ DB 'transposed pointer ran'
	DB	'ge', 00H					; `string'
CONST	ENDS
;	COMDAT ??_C@_1EO@GFNCMDLA@?$AAs?$AAt?$AAd?$AA?3?$AA?3?$AA_?$AAA?$AAl?$AAl?$AAo?$AAc?$AAa?$AAt?$AAe?$AA_@
CONST	SEGMENT
??_C@_1EO@GFNCMDLA@?$AAs?$AAt?$AAd?$AA?3?$AA?3?$AA_?$AAA?$AAl?$AAl?$AAo?$AAc?$AAa?$AAt?$AAe?$AA_@ DB 's'
	DB	00H, 't', 00H, 'd', 00H, ':', 00H, ':', 00H, '_', 00H, 'A', 00H
	DB	'l', 00H, 'l', 00H, 'o', 00H, 'c', 00H, 'a', 00H, 't', 00H, 'e'
	DB	00H, '_', 00H, 'm', 00H, 'a', 00H, 'n', 00H, 'u', 00H, 'a', 00H
	DB	'l', 00H, 'l', 00H, 'y', 00H, '_', 00H, 'v', 00H, 'e', 00H, 'c'
	DB	00H, 't', 00H, 'o', 00H, 'r', 00H, '_', 00H, 'a', 00H, 'l', 00H
	DB	'i', 00H, 'g', 00H, 'n', 00H, 'e', 00H, 'd', 00H, 00H, 00H ; `string'
CONST	ENDS
;	COMDAT ??_C@_0BI@CFPLBAOH@invalid?5string?5position@
CONST	SEGMENT
??_C@_0BI@CFPLBAOH@invalid?5string?5position@ DB 'invalid string position'
	DB	00H						; `string'
CONST	ENDS
;	COMDAT ??_C@_01LFCBOECM@?4@
CONST	SEGMENT
??_C@_01LFCBOECM@?4@ DB '.', 00H			; `string'
CONST	ENDS
;	COMDAT ??_C@_02OOPEBDOJ@pP@
CONST	SEGMENT
??_C@_02OOPEBDOJ@pP@ DB 'pP', 00H			; `string'
CONST	ENDS
;	COMDAT ??_C@_02MDKMJEGG@eE@
CONST	SEGMENT
??_C@_02MDKMJEGG@eE@ DB 'eE', 00H			; `string'
CONST	ENDS
;	COMDAT ??_7?$numpunct@D@std@@6B@
CONST	SEGMENT
??_7?$numpunct@D@std@@6B@ DD FLAT:??_R4?$numpunct@D@std@@6B@ ; std::numpunct<char>::`vftable'
	DD	FLAT:??_E?$numpunct@D@std@@MAEPAXI@Z
	DD	FLAT:?_Incref@facet@locale@std@@UAEXXZ
	DD	FLAT:?_Decref@facet@locale@std@@UAEPAV_Facet_base@3@XZ
	DD	FLAT:?do_decimal_point@?$numpunct@D@std@@MBEDXZ
	DD	FLAT:?do_thousands_sep@?$numpunct@D@std@@MBEDXZ
	DD	FLAT:?do_grouping@?$numpunct@D@std@@MBE?AV?$basic_string@DU?$char_traits@D@std@@V?$allocator@D@2@@2@XZ
	DD	FLAT:?do_falsename@?$numpunct@D@std@@MBE?AV?$basic_string@DU?$char_traits@D@std@@V?$allocator@D@2@@2@XZ
	DD	FLAT:?do_truename@?$numpunct@D@std@@MBE?AV?$basic_string@DU?$char_traits@D@std@@V?$allocator@D@2@@2@XZ
CONST	ENDS
;	COMDAT ??_C@_02EAOCLKAK@ld@
CONST	SEGMENT
??_C@_02EAOCLKAK@ld@ DB 'ld', 00H			; `string'
CONST	ENDS
;	COMDAT ??_C@_02BDDLJJBK@lu@
CONST	SEGMENT
??_C@_02BDDLJJBK@lu@ DB 'lu', 00H			; `string'
CONST	ENDS
;	COMDAT ??_C@_02HIKPPMOK@Ld@
CONST	SEGMENT
??_C@_02HIKPPMOK@Ld@ DB 'Ld', 00H			; `string'
CONST	ENDS
;	COMDAT ??_C@_02CLHGNPPK@Lu@
CONST	SEGMENT
??_C@_02CLHGNPPK@Lu@ DB 'Lu', 00H			; `string'
CONST	ENDS
;	COMDAT ??_C@_02BBAHNLBA@?$CFp@
CONST	SEGMENT
??_C@_02BBAHNLBA@?$CFp@ DB '%p', 00H			; `string'
CONST	ENDS
;	COMDAT ??_7?$num_put@DV?$ostreambuf_iterator@DU?$char_traits@D@std@@@std@@@std@@6B@
CONST	SEGMENT
??_7?$num_put@DV?$ostreambuf_iterator@DU?$char_traits@D@std@@@std@@@std@@6B@ DD FLAT:??_R4?$num_put@DV?$ostreambuf_iterator@DU?$char_traits@D@std@@@std@@@std@@6B@ ; std::num_put<char,std::ostreambuf_iterator<char,std::char_traits<char> > >::`vftable'
	DD	FLAT:??_E?$num_put@DV?$ostreambuf_iterator@DU?$char_traits@D@std@@@std@@@std@@MAEPAXI@Z
	DD	FLAT:?_Incref@facet@locale@std@@UAEXXZ
	DD	FLAT:?_Decref@facet@locale@std@@UAEPAV_Facet_base@3@XZ
	DD	FLAT:?do_put@?$num_put@DV?$ostreambuf_iterator@DU?$char_traits@D@std@@@std@@@std@@MBE?AV?$ostreambuf_iterator@DU?$char_traits@D@std@@@2@V32@AAVios_base@2@DPBX@Z
	DD	FLAT:?do_put@?$num_put@DV?$ostreambuf_iterator@DU?$char_traits@D@std@@@std@@@std@@MBE?AV?$ostreambuf_iterator@DU?$char_traits@D@std@@@2@V32@AAVios_base@2@DO@Z
	DD	FLAT:?do_put@?$num_put@DV?$ostreambuf_iterator@DU?$char_traits@D@std@@@std@@@std@@MBE?AV?$ostreambuf_iterator@DU?$char_traits@D@std@@@2@V32@AAVios_base@2@DN@Z
	DD	FLAT:?do_put@?$num_put@DV?$ostreambuf_iterator@DU?$char_traits@D@std@@@std@@@std@@MBE?AV?$ostreambuf_iterator@DU?$char_traits@D@std@@@2@V32@AAVios_base@2@D_K@Z
	DD	FLAT:?do_put@?$num_put@DV?$ostreambuf_iterator@DU?$char_traits@D@std@@@std@@@std@@MBE?AV?$ostreambuf_iterator@DU?$char_traits@D@std@@@2@V32@AAVios_base@2@D_J@Z
	DD	FLAT:?do_put@?$num_put@DV?$ostreambuf_iterator@DU?$char_traits@D@std@@@std@@@std@@MBE?AV?$ostreambuf_iterator@DU?$char_traits@D@std@@@2@V32@AAVios_base@2@DK@Z
	DD	FLAT:?do_put@?$num_put@DV?$ostreambuf_iterator@DU?$char_traits@D@std@@@std@@@std@@MBE?AV?$ostreambuf_iterator@DU?$char_traits@D@std@@@2@V32@AAVios_base@2@DJ@Z
	DD	FLAT:?do_put@?$num_put@DV?$ostreambuf_iterator@DU?$char_traits@D@std@@@std@@@std@@MBE?AV?$ostreambuf_iterator@DU?$char_traits@D@std@@@2@V32@AAVios_base@2@D_N@Z
CONST	ENDS
;	COMDAT ??_C@_0BA@JFNIOLAK@string?5too?5long@
CONST	SEGMENT
??_C@_0BA@JFNIOLAK@string?5too?5long@ DB 'string too long', 00H ; `string'
CONST	ENDS
;	COMDAT ??_8?$basic_ostringstream@DU?$char_traits@D@std@@V?$allocator@D@2@@std@@7B@
CONST	SEGMENT
??_8?$basic_ostringstream@DU?$char_traits@D@std@@V?$allocator@D@2@@std@@7B@ DD 00H ; std::basic_ostringstream<char,std::char_traits<char>,std::allocator<char> >::`vbtable'
	DD	050H
CONST	ENDS
;	COMDAT ??_7?$basic_ostringstream@DU?$char_traits@D@std@@V?$allocator@D@2@@std@@6B@
CONST	SEGMENT
??_7?$basic_ostringstream@DU?$char_traits@D@std@@V?$allocator@D@2@@std@@6B@ DD FLAT:??_R4?$basic_ostringstream@DU?$char_traits@D@std@@V?$allocator@D@2@@std@@6B@ ; std::basic_ostringstream<char,std::char_traits<char>,std::allocator<char> >::`vftable'
	DD	FLAT:??_E?$basic_ostringstream@DU?$char_traits@D@std@@V?$allocator@D@2@@std@@$4PPPPPPPM@A@AEPAXI@Z
CONST	ENDS
;	COMDAT ??_7?$basic_stringbuf@DU?$char_traits@D@std@@V?$allocator@D@2@@std@@6B@
CONST	SEGMENT
??_7?$basic_stringbuf@DU?$char_traits@D@std@@V?$allocator@D@2@@std@@6B@ DD FLAT:??_R4?$basic_stringbuf@DU?$char_traits@D@std@@V?$allocator@D@2@@std@@6B@ ; std::basic_stringbuf<char,std::char_traits<char>,std::allocator<char> >::`vftable'
	DD	FLAT:??_E?$basic_stringbuf@DU?$char_traits@D@std@@V?$allocator@D@2@@std@@UAEPAXI@Z
	DD	FLAT:?_Lock@?$basic_streambuf@DU?$char_traits@D@std@@@std@@UAEXXZ
	DD	FLAT:?_Unlock@?$basic_streambuf@DU?$char_traits@D@std@@@std@@UAEXXZ
	DD	FLAT:?overflow@?$basic_stringbuf@DU?$char_traits@D@std@@V?$allocator@D@2@@std@@MAEHH@Z
	DD	FLAT:?pbackfail@?$basic_stringbuf@DU?$char_traits@D@std@@V?$allocator@D@2@@std@@MAEHH@Z
	DD	FLAT:?showmanyc@?$basic_streambuf@DU?$char_traits@D@std@@@std@@MAE_JXZ
	DD	FLAT:?underflow@?$basic_stringbuf@DU?$char_traits@D@std@@V?$allocator@D@2@@std@@MAEHXZ
	DD	FLAT:?uflow@?$basic_streambuf@DU?$char_traits@D@std@@@std@@MAEHXZ
	DD	FLAT:?xsgetn@?$basic_streambuf@DU?$char_traits@D@std@@@std@@MAE_JPAD_J@Z
	DD	FLAT:?xsputn@?$basic_streambuf@DU?$char_traits@D@std@@@std@@MAE_JPBD_J@Z
	DD	FLAT:?seekoff@?$basic_stringbuf@DU?$char_traits@D@std@@V?$allocator@D@2@@std@@MAE?AV?$fpos@U_Mbstatet@@@2@_JHH@Z
	DD	FLAT:?seekpos@?$basic_stringbuf@DU?$char_traits@D@std@@V?$allocator@D@2@@std@@MAE?AV?$fpos@U_Mbstatet@@@2@V32@H@Z
	DD	FLAT:?setbuf@?$basic_streambuf@DU?$char_traits@D@std@@@std@@MAEPAV12@PAD_J@Z
	DD	FLAT:?sync@?$basic_streambuf@DU?$char_traits@D@std@@@std@@MAEHXZ
	DD	FLAT:?imbue@?$basic_streambuf@DU?$char_traits@D@std@@@std@@MAEXABVlocale@2@@Z
CONST	ENDS
;	COMDAT ??_7?$basic_streambuf@DU?$char_traits@D@std@@@std@@6B@
CONST	SEGMENT
??_7?$basic_streambuf@DU?$char_traits@D@std@@@std@@6B@ DD FLAT:??_R4?$basic_streambuf@DU?$char_traits@D@std@@@std@@6B@ ; std::basic_streambuf<char,std::char_traits<char> >::`vftable'
	DD	FLAT:??_E?$basic_streambuf@DU?$char_traits@D@std@@@std@@UAEPAXI@Z
	DD	FLAT:?_Lock@?$basic_streambuf@DU?$char_traits@D@std@@@std@@UAEXXZ
	DD	FLAT:?_Unlock@?$basic_streambuf@DU?$char_traits@D@std@@@std@@UAEXXZ
	DD	FLAT:?overflow@?$basic_streambuf@DU?$char_traits@D@std@@@std@@MAEHH@Z
	DD	FLAT:?pbackfail@?$basic_streambuf@DU?$char_traits@D@std@@@std@@MAEHH@Z
	DD	FLAT:?showmanyc@?$basic_streambuf@DU?$char_traits@D@std@@@std@@MAE_JXZ
	DD	FLAT:?underflow@?$basic_streambuf@DU?$char_traits@D@std@@@std@@MAEHXZ
	DD	FLAT:?uflow@?$basic_streambuf@DU?$char_traits@D@std@@@std@@MAEHXZ
	DD	FLAT:?xsgetn@?$basic_streambuf@DU?$char_traits@D@std@@@std@@MAE_JPAD_J@Z
	DD	FLAT:?xsputn@?$basic_streambuf@DU?$char_traits@D@std@@@std@@MAE_JPBD_J@Z
	DD	FLAT:?seekoff@?$basic_streambuf@DU?$char_traits@D@std@@@std@@MAE?AV?$fpos@U_Mbstatet@@@2@_JHH@Z
	DD	FLAT:?seekpos@?$basic_streambuf@DU?$char_traits@D@std@@@std@@MAE?AV?$fpos@U_Mbstatet@@@2@V32@H@Z
	DD	FLAT:?setbuf@?$basic_streambuf@DU?$char_traits@D@std@@@std@@MAEPAV12@PAD_J@Z
	DD	FLAT:?sync@?$basic_streambuf@DU?$char_traits@D@std@@@std@@MAEHXZ
	DD	FLAT:?imbue@?$basic_streambuf@DU?$char_traits@D@std@@@std@@MAEXABVlocale@2@@Z
CONST	ENDS
;	COMDAT ??_8?$basic_ostream@DU?$char_traits@D@std@@@std@@7B@
CONST	SEGMENT
??_8?$basic_ostream@DU?$char_traits@D@std@@@std@@7B@ DD 00H ; std::basic_ostream<char,std::char_traits<char> >::`vbtable'
	DD	08H
CONST	ENDS
;	COMDAT ??_7?$basic_ostream@DU?$char_traits@D@std@@@std@@6B@
CONST	SEGMENT
??_7?$basic_ostream@DU?$char_traits@D@std@@@std@@6B@ DD FLAT:??_R4?$basic_ostream@DU?$char_traits@D@std@@@std@@6B@ ; std::basic_ostream<char,std::char_traits<char> >::`vftable'
	DD	FLAT:??_E?$basic_ostream@DU?$char_traits@D@std@@@std@@$4PPPPPPPM@A@AEPAXI@Z
CONST	ENDS
;	COMDAT ??_7?$basic_ios@DU?$char_traits@D@std@@@std@@6B@
CONST	SEGMENT
??_7?$basic_ios@DU?$char_traits@D@std@@@std@@6B@ DD FLAT:??_R4?$basic_ios@DU?$char_traits@D@std@@@std@@6B@ ; std::basic_ios<char,std::char_traits<char> >::`vftable'
	DD	FLAT:??_E?$basic_ios@DU?$char_traits@D@std@@@std@@UAEPAXI@Z
CONST	ENDS
;	COMDAT __CT??_R0?AVbad_cast@std@@@8??0bad_cast@std@@QAE@ABV01@@Z12
xdata$x	SEGMENT
__CT??_R0?AVbad_cast@std@@@8??0bad_cast@std@@QAE@ABV01@@Z12 DD 00H
	DD	FLAT:??_R0?AVbad_cast@std@@@8
	DD	00H
	DD	0ffffffffH
	ORG $+4
	DD	0cH
	DD	FLAT:??0bad_cast@std@@QAE@ABV01@@Z
xdata$x	ENDS
;	COMDAT ??_R0?AVbad_cast@std@@@8
data$r	SEGMENT
??_R0?AVbad_cast@std@@@8 DD FLAT:??_7type_info@@6B@	; std::bad_cast `RTTI Type Descriptor'
	DD	00H
	DB	'.?AVbad_cast@std@@', 00H
data$r	ENDS
;	COMDAT __CTA2?AVbad_cast@std@@
xdata$x	SEGMENT
__CTA2?AVbad_cast@std@@ DD 02H
	DD	FLAT:__CT??_R0?AVbad_cast@std@@@8??0bad_cast@std@@QAE@ABV01@@Z12
	DD	FLAT:__CT??_R0?AVexception@std@@@8??0exception@std@@QAE@ABV01@@Z12
xdata$x	ENDS
;	COMDAT __TI2?AVbad_cast@std@@
xdata$x	SEGMENT
__TI2?AVbad_cast@std@@ DD 00H
	DD	FLAT:??1bad_cast@std@@UAE@XZ
	DD	00H
	DD	FLAT:__CTA2?AVbad_cast@std@@
xdata$x	ENDS
;	COMDAT ??_C@_1EA@OADAPGGK@?$AA?$CC?$AAs?$AAt?$AAr?$AAi?$AAn?$AAg?$AA?5?$AAs?$AAu?$AAb?$AAs?$AAc?$AAr?$AAi@
CONST	SEGMENT
??_C@_1EA@OADAPGGK@?$AA?$CC?$AAs?$AAt?$AAr?$AAi?$AAn?$AAg?$AA?5?$AAs?$AAu?$AAb?$AAs?$AAc?$AAr?$AAi@ DB '"'
	DB	00H, 's', 00H, 't', 00H, 'r', 00H, 'i', 00H, 'n', 00H, 'g', 00H
	DB	' ', 00H, 's', 00H, 'u', 00H, 'b', 00H, 's', 00H, 'c', 00H, 'r'
	DB	00H, 'i', 00H, 'p', 00H, 't', 00H, ' ', 00H, 'o', 00H, 'u', 00H
	DB	't', 00H, ' ', 00H, 'o', 00H, 'f', 00H, ' ', 00H, 'r', 00H, 'a'
	DB	00H, 'n', 00H, 'g', 00H, 'e', 00H, '"', 00H, 00H, 00H ; `string'
CONST	ENDS
;	COMDAT ??_C@_1LO@NPPEKPAI@?$AAs?$AAt?$AAd?$AA?3?$AA?3?$AAb?$AAa?$AAs?$AAi?$AAc?$AA_?$AAs?$AAt?$AAr?$AAi@
CONST	SEGMENT
??_C@_1LO@NPPEKPAI@?$AAs?$AAt?$AAd?$AA?3?$AA?3?$AAb?$AAa?$AAs?$AAi?$AAc?$AA_?$AAs?$AAt?$AAr?$AAi@ DB 's'
	DB	00H, 't', 00H, 'd', 00H, ':', 00H, ':', 00H, 'b', 00H, 'a', 00H
	DB	's', 00H, 'i', 00H, 'c', 00H, '_', 00H, 's', 00H, 't', 00H, 'r'
	DB	00H, 'i', 00H, 'n', 00H, 'g', 00H, '<', 00H, 'c', 00H, 'h', 00H
	DB	'a', 00H, 'r', 00H, ',', 00H, 's', 00H, 't', 00H, 'r', 00H, 'u'
	DB	00H, 'c', 00H, 't', 00H, ' ', 00H, 's', 00H, 't', 00H, 'd', 00H
	DB	':', 00H, ':', 00H, 'c', 00H, 'h', 00H, 'a', 00H, 'r', 00H, '_'
	DB	00H, 't', 00H, 'r', 00H, 'a', 00H, 'i', 00H, 't', 00H, 's', 00H
	DB	'<', 00H, 'c', 00H, 'h', 00H, 'a', 00H, 'r', 00H, '>', 00H, ','
	DB	00H, 'c', 00H, 'l', 00H, 'a', 00H, 's', 00H, 's', 00H, ' ', 00H
	DB	's', 00H, 't', 00H, 'd', 00H, ':', 00H, ':', 00H, 'a', 00H, 'l'
	DB	00H, 'l', 00H, 'o', 00H, 'c', 00H, 'a', 00H, 't', 00H, 'o', 00H
	DB	'r', 00H, '<', 00H, 'c', 00H, 'h', 00H, 'a', 00H, 'r', 00H, '>'
	DB	00H, ' ', 00H, '>', 00H, ':', 00H, ':', 00H, 'o', 00H, 'p', 00H
	DB	'e', 00H, 'r', 00H, 'a', 00H, 't', 00H, 'o', 00H, 'r', 00H, ' '
	DB	00H, '[', 00H, ']', 00H, 00H, 00H		; `string'
CONST	ENDS
;	COMDAT ??_C@_1NA@JLAKACOO@?$AAc?$AA?3?$AA?2?$AAp?$AAr?$AAo?$AAg?$AAr?$AAa?$AAm?$AA?5?$AAf?$AAi?$AAl?$AAe@
CONST	SEGMENT
??_C@_1NA@JLAKACOO@?$AAc?$AA?3?$AA?2?$AAp?$AAr?$AAo?$AAg?$AAr?$AAa?$AAm?$AA?5?$AAf?$AAi?$AAl?$AAe@ DB 'c'
	DB	00H, ':', 00H, '\', 00H, 'p', 00H, 'r', 00H, 'o', 00H, 'g', 00H
	DB	'r', 00H, 'a', 00H, 'm', 00H, ' ', 00H, 'f', 00H, 'i', 00H, 'l'
	DB	00H, 'e', 00H, 's', 00H, ' ', 00H, '(', 00H, 'x', 00H, '8', 00H
	DB	'6', 00H, ')', 00H, '\', 00H, 'm', 00H, 'i', 00H, 'c', 00H, 'r'
	DB	00H, 'o', 00H, 's', 00H, 'o', 00H, 'f', 00H, 't', 00H, ' ', 00H
	DB	'v', 00H, 'i', 00H, 's', 00H, 'u', 00H, 'a', 00H, 'l', 00H, ' '
	DB	00H, 's', 00H, 't', 00H, 'u', 00H, 'd', 00H, 'i', 00H, 'o', 00H
	DB	'\', 00H, '2', 00H, '0', 00H, '1', 00H, '7', 00H, '\', 00H, 'c'
	DB	00H, 'o', 00H, 'm', 00H, 'm', 00H, 'u', 00H, 'n', 00H, 'i', 00H
	DB	't', 00H, 'y', 00H, '\', 00H, 'v', 00H, 'c', 00H, '\', 00H, 't'
	DB	00H, 'o', 00H, 'o', 00H, 'l', 00H, 's', 00H, '\', 00H, 'm', 00H
	DB	's', 00H, 'v', 00H, 'c', 00H, '\', 00H, '1', 00H, '4', 00H, '.'
	DB	00H, '1', 00H, '5', 00H, '.', 00H, '2', 00H, '6', 00H, '7', 00H
	DB	'2', 00H, '6', 00H, '\', 00H, 'i', 00H, 'n', 00H, 'c', 00H, 'l'
	DB	00H, 'u', 00H, 'd', 00H, 'e', 00H, '\', 00H, 'x', 00H, 's', 00H
	DB	't', 00H, 'r', 00H, 'i', 00H, 'n', 00H, 'g', 00H, 00H, 00H ; `string'
CONST	ENDS
;	COMDAT ??_C@_0GI@CJGNOLDA@c?3?2program?5files?5?$CIx86?$CJ?2microsof@
CONST	SEGMENT
??_C@_0GI@CJGNOLDA@c?3?2program?5files?5?$CIx86?$CJ?2microsof@ DB 'c:\pro'
	DB	'gram files (x86)\microsoft visual studio\2017\community\vc\to'
	DB	'ols\msvc\14.15.26726\include\xstring', 00H	; `string'
CONST	ENDS
;	COMDAT ??_C@_0BO@LFGPDMIB@string?5subscript?5out?5of?5range@
CONST	SEGMENT
??_C@_0BO@LFGPDMIB@string?5subscript?5out?5of?5range@ DB 'string subscrip'
	DB	't out of range', 00H			; `string'
CONST	ENDS
;	COMDAT __CT??_R0?AV_System_error@std@@@8??0_System_error@std@@QAE@ABV01@@Z20
xdata$x	SEGMENT
__CT??_R0?AV_System_error@std@@@8??0_System_error@std@@QAE@ABV01@@Z20 DD 00H
	DD	FLAT:??_R0?AV_System_error@std@@@8
	DD	00H
	DD	0ffffffffH
	ORG $+4
	DD	014H
	DD	FLAT:??0_System_error@std@@QAE@ABV01@@Z
xdata$x	ENDS
;	COMDAT ??_R0?AV_System_error@std@@@8
data$r	SEGMENT
??_R0?AV_System_error@std@@@8 DD FLAT:??_7type_info@@6B@ ; std::_System_error `RTTI Type Descriptor'
	DD	00H
	DB	'.?AV_System_error@std@@', 00H
data$r	ENDS
;	COMDAT __CT??_R0?AVsystem_error@std@@@8??0system_error@std@@QAE@ABV01@@Z20
xdata$x	SEGMENT
__CT??_R0?AVsystem_error@std@@@8??0system_error@std@@QAE@ABV01@@Z20 DD 00H
	DD	FLAT:??_R0?AVsystem_error@std@@@8
	DD	00H
	DD	0ffffffffH
	ORG $+4
	DD	014H
	DD	FLAT:??0system_error@std@@QAE@ABV01@@Z
xdata$x	ENDS
;	COMDAT ??_R0?AVsystem_error@std@@@8
data$r	SEGMENT
??_R0?AVsystem_error@std@@@8 DD FLAT:??_7type_info@@6B@	; std::system_error `RTTI Type Descriptor'
	DD	00H
	DB	'.?AVsystem_error@std@@', 00H
data$r	ENDS
;	COMDAT __CT??_R0?AVfailure@ios_base@std@@@8??0failure@ios_base@std@@QAE@ABV012@@Z20
xdata$x	SEGMENT
__CT??_R0?AVfailure@ios_base@std@@@8??0failure@ios_base@std@@QAE@ABV012@@Z20 DD 00H
	DD	FLAT:??_R0?AVfailure@ios_base@std@@@8
	DD	00H
	DD	0ffffffffH
	ORG $+4
	DD	014H
	DD	FLAT:??0failure@ios_base@std@@QAE@ABV012@@Z
xdata$x	ENDS
;	COMDAT ??_R0?AVfailure@ios_base@std@@@8
data$r	SEGMENT
??_R0?AVfailure@ios_base@std@@@8 DD FLAT:??_7type_info@@6B@ ; std::ios_base::failure `RTTI Type Descriptor'
	DD	00H
	DB	'.?AVfailure@ios_base@std@@', 00H
data$r	ENDS
;	COMDAT __CTA5?AVfailure@ios_base@std@@
xdata$x	SEGMENT
__CTA5?AVfailure@ios_base@std@@ DD 05H
	DD	FLAT:__CT??_R0?AVfailure@ios_base@std@@@8??0failure@ios_base@std@@QAE@ABV012@@Z20
	DD	FLAT:__CT??_R0?AVsystem_error@std@@@8??0system_error@std@@QAE@ABV01@@Z20
	DD	FLAT:__CT??_R0?AV_System_error@std@@@8??0_System_error@std@@QAE@ABV01@@Z20
	DD	FLAT:__CT??_R0?AVruntime_error@std@@@8??0runtime_error@std@@QAE@ABV01@@Z12
	DD	FLAT:__CT??_R0?AVexception@std@@@8??0exception@std@@QAE@ABV01@@Z12
xdata$x	ENDS
;	COMDAT __TI5?AVfailure@ios_base@std@@
xdata$x	SEGMENT
__TI5?AVfailure@ios_base@std@@ DD 00H
	DD	FLAT:??1failure@ios_base@std@@UAE@XZ
	DD	00H
	DD	FLAT:__CTA5?AVfailure@ios_base@std@@
xdata$x	ENDS
;	COMDAT ??_C@_0BF@OOHOMBOF@ios_base?3?3eofbit?5set@
CONST	SEGMENT
??_C@_0BF@OOHOMBOF@ios_base?3?3eofbit?5set@ DB 'ios_base::eofbit set', 00H ; `string'
CONST	ENDS
;	COMDAT ??_C@_0BG@FMKFHCIL@ios_base?3?3failbit?5set@
CONST	SEGMENT
??_C@_0BG@FMKFHCIL@ios_base?3?3failbit?5set@ DB 'ios_base::failbit set', 00H ; `string'
CONST	ENDS
;	COMDAT ??_C@_0BF@PHHKMMFD@ios_base?3?3badbit?5set@
CONST	SEGMENT
??_C@_0BF@PHHKMMFD@ios_base?3?3badbit?5set@ DB 'ios_base::badbit set', 00H ; `string'
CONST	ENDS
;	COMDAT ??_7ios_base@std@@6B@
CONST	SEGMENT
??_7ios_base@std@@6B@ DD FLAT:??_R4ios_base@std@@6B@	; std::ios_base::`vftable'
	DD	FLAT:??_Eios_base@std@@UAEPAXI@Z
CONST	ENDS
;	COMDAT ??_7failure@ios_base@std@@6B@
CONST	SEGMENT
??_7failure@ios_base@std@@6B@ DD FLAT:??_R4failure@ios_base@std@@6B@ ; std::ios_base::failure::`vftable'
	DD	FLAT:??_Efailure@ios_base@std@@UAEPAXI@Z
	DD	FLAT:?what@exception@std@@UBEPBDXZ
CONST	ENDS
;	COMDAT ??_C@_0BG@PADBLCHM@iostream?5stream?5error@
CONST	SEGMENT
??_C@_0BG@PADBLCHM@iostream?5stream?5error@ DB 'iostream stream error', 00H ; `string'
CONST	ENDS
;	COMDAT ??_C@_08LLGCOLLL@iostream@
CONST	SEGMENT
??_C@_08LLGCOLLL@iostream@ DB 'iostream', 00H		; `string'
CONST	ENDS
;	COMDAT ??_7_Iostream_error_category@std@@6B@
CONST	SEGMENT
??_7_Iostream_error_category@std@@6B@ DD FLAT:??_R4_Iostream_error_category@std@@6B@ ; std::_Iostream_error_category::`vftable'
	DD	FLAT:??_E_Iostream_error_category@std@@UAEPAXI@Z
	DD	FLAT:?name@_Iostream_error_category@std@@UBEPBDXZ
	DD	FLAT:?message@_Iostream_error_category@std@@UBE?AV?$basic_string@DU?$char_traits@D@std@@V?$allocator@D@2@@2@H@Z
	DD	FLAT:?default_error_condition@error_category@std@@UBE?AVerror_condition@2@H@Z
	DD	FLAT:?equivalent@error_category@std@@UBE_NABVerror_code@2@H@Z
	DD	FLAT:?equivalent@error_category@std@@UBE_NHABVerror_condition@2@@Z
CONST	ENDS
;	COMDAT ??_C@_07DCLBNMLN@generic@
CONST	SEGMENT
??_C@_07DCLBNMLN@generic@ DB 'generic', 00H		; `string'
CONST	ENDS
;	COMDAT ??_7_Generic_error_category@std@@6B@
CONST	SEGMENT
??_7_Generic_error_category@std@@6B@ DD FLAT:??_R4_Generic_error_category@std@@6B@ ; std::_Generic_error_category::`vftable'
	DD	FLAT:??_E_Generic_error_category@std@@UAEPAXI@Z
	DD	FLAT:?name@_Generic_error_category@std@@UBEPBDXZ
	DD	FLAT:?message@_Generic_error_category@std@@UBE?AV?$basic_string@DU?$char_traits@D@std@@V?$allocator@D@2@@2@H@Z
	DD	FLAT:?default_error_condition@error_category@std@@UBE?AVerror_condition@2@H@Z
	DD	FLAT:?equivalent@error_category@std@@UBE_NABVerror_code@2@H@Z
	DD	FLAT:?equivalent@error_category@std@@UBE_NHABVerror_condition@2@@Z
CONST	ENDS
;	COMDAT ??_7system_error@std@@6B@
CONST	SEGMENT
??_7system_error@std@@6B@ DD FLAT:??_R4system_error@std@@6B@ ; std::system_error::`vftable'
	DD	FLAT:??_Esystem_error@std@@UAEPAXI@Z
	DD	FLAT:?what@exception@std@@UBEPBDXZ
CONST	ENDS
;	COMDAT ??_C@_02LMMGGCAJ@?3?5@
CONST	SEGMENT
??_C@_02LMMGGCAJ@?3?5@ DB ': ', 00H			; `string'
CONST	ENDS
;	COMDAT ??_7_System_error@std@@6B@
CONST	SEGMENT
??_7_System_error@std@@6B@ DD FLAT:??_R4_System_error@std@@6B@ ; std::_System_error::`vftable'
	DD	FLAT:??_E_System_error@std@@UAEPAXI@Z
	DD	FLAT:?what@exception@std@@UBEPBDXZ
CONST	ENDS
;	COMDAT ??_7?$ctype@D@std@@6B@
CONST	SEGMENT
??_7?$ctype@D@std@@6B@ DD FLAT:??_R4?$ctype@D@std@@6B@	; std::ctype<char>::`vftable'
	DD	FLAT:??_E?$ctype@D@std@@MAEPAXI@Z
	DD	FLAT:?_Incref@facet@locale@std@@UAEXXZ
	DD	FLAT:?_Decref@facet@locale@std@@UAEPAV_Facet_base@3@XZ
	DD	FLAT:?do_tolower@?$ctype@D@std@@MBEPBDPADPBD@Z
	DD	FLAT:?do_tolower@?$ctype@D@std@@MBEDD@Z
	DD	FLAT:?do_toupper@?$ctype@D@std@@MBEPBDPADPBD@Z
	DD	FLAT:?do_toupper@?$ctype@D@std@@MBEDD@Z
	DD	FLAT:?do_widen@?$ctype@D@std@@MBEPBDPBD0PAD@Z
	DD	FLAT:?do_widen@?$ctype@D@std@@MBEDD@Z
	DD	FLAT:?do_narrow@?$ctype@D@std@@MBEPBDPBD0DPAD@Z
	DD	FLAT:?do_narrow@?$ctype@D@std@@MBEDDD@Z
CONST	ENDS
;	COMDAT ??_7ctype_base@std@@6B@
CONST	SEGMENT
??_7ctype_base@std@@6B@ DD FLAT:??_R4ctype_base@std@@6B@ ; std::ctype_base::`vftable'
	DD	FLAT:??_Ectype_base@std@@UAEPAXI@Z
	DD	FLAT:?_Incref@facet@locale@std@@UAEXXZ
	DD	FLAT:?_Decref@facet@locale@std@@UAEPAV_Facet_base@3@XZ
CONST	ENDS
;	COMDAT ??_C@_00CNPNBAHC@@
CONST	SEGMENT
??_C@_00CNPNBAHC@@ DB 00H				; `string'
CONST	ENDS
;	COMDAT ??_7facet@locale@std@@6B@
CONST	SEGMENT
??_7facet@locale@std@@6B@ DD FLAT:??_R4facet@locale@std@@6B@ ; std::locale::facet::`vftable'
	DD	FLAT:??_Efacet@locale@std@@MAEPAXI@Z
	DD	FLAT:?_Incref@facet@locale@std@@UAEXXZ
	DD	FLAT:?_Decref@facet@locale@std@@UAEPAV_Facet_base@3@XZ
CONST	ENDS
;	COMDAT ??_C@_0GI@HIGMNFHO@c?3?2program?5files?5?$CIx86?$CJ?2microsof@
CONST	SEGMENT
??_C@_0GI@HIGMNFHO@c?3?2program?5files?5?$CIx86?$CJ?2microsof@ DB 'c:\pro'
	DB	'gram files (x86)\microsoft visual studio\2017\community\vc\to'
	DB	'ols\msvc\14.15.26726\include\xlocale', 00H	; `string'
CONST	ENDS
;	COMDAT ??_7_Facet_base@std@@6B@
CONST	SEGMENT
??_7_Facet_base@std@@6B@ DD FLAT:??_R4_Facet_base@std@@6B@ ; std::_Facet_base::`vftable'
	DD	FLAT:??_E_Facet_base@std@@UAEPAXI@Z
	DD	FLAT:__purecall
	DD	FLAT:__purecall
CONST	ENDS
;	COMDAT ??_C@_04LOAJBDKD@true@
CONST	SEGMENT
??_C@_04LOAJBDKD@true@ DB 'true', 00H			; `string'
CONST	ENDS
;	COMDAT ??_C@_05LAPONLG@false@
CONST	SEGMENT
??_C@_05LAPONLG@false@ DB 'false', 00H			; `string'
CONST	ENDS
;	COMDAT ??_C@_0BA@ELKIONDK@bad?5locale?5name@
CONST	SEGMENT
??_C@_0BA@ELKIONDK@bad?5locale?5name@ DB 'bad locale name', 00H ; `string'
CONST	ENDS
;	COMDAT __CT??_R0?AVexception@std@@@8??0exception@std@@QAE@ABV01@@Z12
xdata$x	SEGMENT
__CT??_R0?AVexception@std@@@8??0exception@std@@QAE@ABV01@@Z12 DD 00H
	DD	FLAT:??_R0?AVexception@std@@@8
	DD	00H
	DD	0ffffffffH
	ORG $+4
	DD	0cH
	DD	FLAT:??0exception@std@@QAE@ABV01@@Z
xdata$x	ENDS
;	COMDAT ??_R0?AVexception@std@@@8
data$r	SEGMENT
??_R0?AVexception@std@@@8 DD FLAT:??_7type_info@@6B@	; std::exception `RTTI Type Descriptor'
	DD	00H
	DB	'.?AVexception@std@@', 00H
data$r	ENDS
;	COMDAT __CT??_R0?AVruntime_error@std@@@8??0runtime_error@std@@QAE@ABV01@@Z12
xdata$x	SEGMENT
__CT??_R0?AVruntime_error@std@@@8??0runtime_error@std@@QAE@ABV01@@Z12 DD 00H
	DD	FLAT:??_R0?AVruntime_error@std@@@8
	DD	00H
	DD	0ffffffffH
	ORG $+4
	DD	0cH
	DD	FLAT:??0runtime_error@std@@QAE@ABV01@@Z
xdata$x	ENDS
;	COMDAT ??_R0?AVruntime_error@std@@@8
data$r	SEGMENT
??_R0?AVruntime_error@std@@@8 DD FLAT:??_7type_info@@6B@ ; std::runtime_error `RTTI Type Descriptor'
	DD	00H
	DB	'.?AVruntime_error@std@@', 00H
data$r	ENDS
;	COMDAT __CTA2?AVruntime_error@std@@
xdata$x	SEGMENT
__CTA2?AVruntime_error@std@@ DD 02H
	DD	FLAT:__CT??_R0?AVruntime_error@std@@@8??0runtime_error@std@@QAE@ABV01@@Z12
	DD	FLAT:__CT??_R0?AVexception@std@@@8??0exception@std@@QAE@ABV01@@Z12
xdata$x	ENDS
;	COMDAT __TI2?AVruntime_error@std@@
xdata$x	SEGMENT
__TI2?AVruntime_error@std@@ DD 00H
	DD	FLAT:??1runtime_error@std@@UAE@XZ
	DD	00H
	DD	FLAT:__CTA2?AVruntime_error@std@@
xdata$x	ENDS
;	COMDAT ??_C@_08EPJLHIJG@bad?5cast@
CONST	SEGMENT
??_C@_08EPJLHIJG@bad?5cast@ DB 'bad cast', 00H		; `string'
CONST	ENDS
;	COMDAT ??_7bad_cast@std@@6B@
CONST	SEGMENT
??_7bad_cast@std@@6B@ DD FLAT:??_R4bad_cast@std@@6B@	; std::bad_cast::`vftable'
	DD	FLAT:??_Ebad_cast@std@@UAEPAXI@Z
	DD	FLAT:?what@exception@std@@UBEPBDXZ
CONST	ENDS
;	COMDAT ??_7runtime_error@std@@6B@
CONST	SEGMENT
??_7runtime_error@std@@6B@ DD FLAT:??_R4runtime_error@std@@6B@ ; std::runtime_error::`vftable'
	DD	FLAT:??_Eruntime_error@std@@UAEPAXI@Z
	DD	FLAT:?what@exception@std@@UBEPBDXZ
CONST	ENDS
;	COMDAT ??_C@_1EK@NIFDJFDG@?$AAs?$AAt?$AAd?$AA?3?$AA?3?$AA_?$AAA?$AAd?$AAj?$AAu?$AAs?$AAt?$AA_?$AAm?$AAa@
CONST	SEGMENT
??_C@_1EK@NIFDJFDG@?$AAs?$AAt?$AAd?$AA?3?$AA?3?$AA_?$AAA?$AAd?$AAj?$AAu?$AAs?$AAt?$AA_?$AAm?$AAa@ DB 's'
	DB	00H, 't', 00H, 'd', 00H, ':', 00H, ':', 00H, '_', 00H, 'A', 00H
	DB	'd', 00H, 'j', 00H, 'u', 00H, 's', 00H, 't', 00H, '_', 00H, 'm'
	DB	00H, 'a', 00H, 'n', 00H, 'u', 00H, 'a', 00H, 'l', 00H, 'l', 00H
	DB	'y', 00H, '_', 00H, 'v', 00H, 'e', 00H, 'c', 00H, 't', 00H, 'o'
	DB	00H, 'r', 00H, '_', 00H, 'a', 00H, 'l', 00H, 'i', 00H, 'g', 00H
	DB	'n', 00H, 'e', 00H, 'd', 00H, 00H, 00H	; `string'
CONST	ENDS
;	COMDAT ??_C@_1NC@ICJKIMIP@?$AAc?$AA?3?$AA?2?$AAp?$AAr?$AAo?$AAg?$AAr?$AAa?$AAm?$AA?5?$AAf?$AAi?$AAl?$AAe@
CONST	SEGMENT
??_C@_1NC@ICJKIMIP@?$AAc?$AA?3?$AA?2?$AAp?$AAr?$AAo?$AAg?$AAr?$AAa?$AAm?$AA?5?$AAf?$AAi?$AAl?$AAe@ DB 'c'
	DB	00H, ':', 00H, '\', 00H, 'p', 00H, 'r', 00H, 'o', 00H, 'g', 00H
	DB	'r', 00H, 'a', 00H, 'm', 00H, ' ', 00H, 'f', 00H, 'i', 00H, 'l'
	DB	00H, 'e', 00H, 's', 00H, ' ', 00H, '(', 00H, 'x', 00H, '8', 00H
	DB	'6', 00H, ')', 00H, '\', 00H, 'm', 00H, 'i', 00H, 'c', 00H, 'r'
	DB	00H, 'o', 00H, 's', 00H, 'o', 00H, 'f', 00H, 't', 00H, ' ', 00H
	DB	'v', 00H, 'i', 00H, 's', 00H, 'u', 00H, 'a', 00H, 'l', 00H, ' '
	DB	00H, 's', 00H, 't', 00H, 'u', 00H, 'd', 00H, 'i', 00H, 'o', 00H
	DB	'\', 00H, '2', 00H, '0', 00H, '1', 00H, '7', 00H, '\', 00H, 'c'
	DB	00H, 'o', 00H, 'm', 00H, 'm', 00H, 'u', 00H, 'n', 00H, 'i', 00H
	DB	't', 00H, 'y', 00H, '\', 00H, 'v', 00H, 'c', 00H, '\', 00H, 't'
	DB	00H, 'o', 00H, 'o', 00H, 'l', 00H, 's', 00H, '\', 00H, 'm', 00H
	DB	's', 00H, 'v', 00H, 'c', 00H, '\', 00H, '1', 00H, '4', 00H, '.'
	DB	00H, '1', 00H, '5', 00H, '.', 00H, '2', 00H, '6', 00H, '7', 00H
	DB	'2', 00H, '6', 00H, '\', 00H, 'i', 00H, 'n', 00H, 'c', 00H, 'l'
	DB	00H, 'u', 00H, 'd', 00H, 'e', 00H, '\', 00H, 'x', 00H, 'm', 00H
	DB	'e', 00H, 'm', 00H, 'o', 00H, 'r', 00H, 'y', 00H, '0', 00H, 00H
	DB	00H						; `string'
CONST	ENDS
;	COMDAT ??_C@_0GJ@CAJJPMGE@c?3?2program?5files?5?$CIx86?$CJ?2microsof@
CONST	SEGMENT
??_C@_0GJ@CAJJPMGE@c?3?2program?5files?5?$CIx86?$CJ?2microsof@ DB 'c:\pro'
	DB	'gram files (x86)\microsoft visual studio\2017\community\vc\to'
	DB	'ols\msvc\14.15.26726\include\xmemory0', 00H	; `string'
CONST	ENDS
;	COMDAT ??_C@_1NC@HPHBFJCM@?$AAc?$AA?3?$AA?2?$AAp?$AAr?$AAo?$AAg?$AAr?$AAa?$AAm?$AA?5?$AAf?$AAi?$AAl?$AAe@
CONST	SEGMENT
??_C@_1NC@HPHBFJCM@?$AAc?$AA?3?$AA?2?$AAp?$AAr?$AAo?$AAg?$AAr?$AAa?$AAm?$AA?5?$AAf?$AAi?$AAl?$AAe@ DB 'c'
	DB	00H, ':', 00H, '\', 00H, 'p', 00H, 'r', 00H, 'o', 00H, 'g', 00H
	DB	'r', 00H, 'a', 00H, 'm', 00H, ' ', 00H, 'f', 00H, 'i', 00H, 'l'
	DB	00H, 'e', 00H, 's', 00H, ' ', 00H, '(', 00H, 'x', 00H, '8', 00H
	DB	'6', 00H, ')', 00H, '\', 00H, 'm', 00H, 'i', 00H, 'c', 00H, 'r'
	DB	00H, 'o', 00H, 's', 00H, 'o', 00H, 'f', 00H, 't', 00H, ' ', 00H
	DB	'v', 00H, 'i', 00H, 's', 00H, 'u', 00H, 'a', 00H, 'l', 00H, ' '
	DB	00H, 's', 00H, 't', 00H, 'u', 00H, 'd', 00H, 'i', 00H, 'o', 00H
	DB	'\', 00H, '2', 00H, '0', 00H, '1', 00H, '7', 00H, '\', 00H, 'c'
	DB	00H, 'o', 00H, 'm', 00H, 'm', 00H, 'u', 00H, 'n', 00H, 'i', 00H
	DB	't', 00H, 'y', 00H, '\', 00H, 'v', 00H, 'c', 00H, '\', 00H, 't'
	DB	00H, 'o', 00H, 'o', 00H, 'l', 00H, 's', 00H, '\', 00H, 'm', 00H
	DB	's', 00H, 'v', 00H, 'c', 00H, '\', 00H, '1', 00H, '4', 00H, '.'
	DB	00H, '1', 00H, '5', 00H, '.', 00H, '2', 00H, '6', 00H, '7', 00H
	DB	'2', 00H, '6', 00H, '\', 00H, 'i', 00H, 'n', 00H, 'c', 00H, 'l'
	DB	00H, 'u', 00H, 'd', 00H, 'e', 00H, '\', 00H, 'x', 00H, 'u', 00H
	DB	't', 00H, 'i', 00H, 'l', 00H, 'i', 00H, 't', 00H, 'y', 00H, 00H
	DB	00H						; `string'
CONST	ENDS
;	COMDAT ??_C@_0GJ@DMCEMOMH@c?3?2program?5files?5?$CIx86?$CJ?2microsof@
CONST	SEGMENT
??_C@_0GJ@DMCEMOMH@c?3?2program?5files?5?$CIx86?$CJ?2microsof@ DB 'c:\pro'
	DB	'gram files (x86)\microsoft visual studio\2017\community\vc\to'
	DB	'ols\msvc\14.15.26726\include\xutility', 00H	; `string'
CONST	ENDS
;	COMDAT ??_C@_1CG@JNLFBNGN@?$AA?$CC?$AAi?$AAn?$AAv?$AAa?$AAl?$AAi?$AAd?$AA?5?$AAa?$AAr?$AAg?$AAu?$AAm?$AAe@
CONST	SEGMENT
??_C@_1CG@JNLFBNGN@?$AA?$CC?$AAi?$AAn?$AAv?$AAa?$AAl?$AAi?$AAd?$AA?5?$AAa?$AAr?$AAg?$AAu?$AAm?$AAe@ DB '"'
	DB	00H, 'i', 00H, 'n', 00H, 'v', 00H, 'a', 00H, 'l', 00H, 'i', 00H
	DB	'd', 00H, ' ', 00H, 'a', 00H, 'r', 00H, 'g', 00H, 'u', 00H, 'm'
	DB	00H, 'e', 00H, 'n', 00H, 't', 00H, '"', 00H, 00H, 00H ; `string'
CONST	ENDS
;	COMDAT ??_C@_02DKCKIIND@?$CFs@
CONST	SEGMENT
??_C@_02DKCKIIND@?$CFs@ DB '%s', 00H			; `string'
CONST	ENDS
;	COMDAT ??_C@_0BB@FCMFBGOM@invalid?5argument@
CONST	SEGMENT
??_C@_0BB@FCMFBGOM@invalid?5argument@ DB 'invalid argument', 00H ; `string'
CONST	ENDS
;	COMDAT ??_C@_0BC@EOODALEL@Unknown?5exception@
CONST	SEGMENT
??_C@_0BC@EOODALEL@Unknown?5exception@ DB 'Unknown exception', 00H ; `string'
CONST	ENDS
;	COMDAT ??_7exception@std@@6B@
CONST	SEGMENT
??_7exception@std@@6B@ DD FLAT:??_R4exception@std@@6B@	; std::exception::`vftable'
	DD	FLAT:??_Eexception@std@@UAEPAXI@Z
	DD	FLAT:?what@exception@std@@UBEPBDXZ
CONST	ENDS
;	COMDAT xdata$x
xdata$x	SEGMENT
__unwindtable$??$?0ABV?$allocator@D@std@@X@?$_String_alloc@U?$_String_base_types@DV?$allocator@D@std@@@std@@@std@@QAE@ABV?$allocator@D@1@@Z DD 0ffffffffH
	DD	FLAT:__unwindfunclet$??$?0ABV?$allocator@D@std@@X@?$_String_alloc@U?$_String_base_types@DV?$allocator@D@std@@@std@@@std@@QAE@ABV?$allocator@D@1@@Z$0
__ehfuncinfo$??$?0ABV?$allocator@D@std@@X@?$_String_alloc@U?$_String_base_types@DV?$allocator@D@std@@@std@@@std@@QAE@ABV?$allocator@D@1@@Z DD 019930522H
	DD	01H
	DD	FLAT:__unwindtable$??$?0ABV?$allocator@D@std@@X@?$_String_alloc@U?$_String_base_types@DV?$allocator@D@std@@@std@@@std@@QAE@ABV?$allocator@D@1@@Z
	DD	2 DUP(00H)
	DD	2 DUP(00H)
	DD	00H
	DD	01H
xdata$x	ENDS
;	COMDAT xdata$x
xdata$x	SEGMENT
__catchsym$?_Init@?$numpunct@D@std@@IAEXABV_Locinfo@2@_N@Z$2 DD 040H
	DD	00H
	DD	00H
	DD	FLAT:__catch$?_Init@?$numpunct@D@std@@IAEXABV_Locinfo@2@_N@Z$0
__unwindtable$?_Init@?$numpunct@D@std@@IAEXABV_Locinfo@2@_N@Z DD 0ffffffffH
	DD	00H
	DD	0ffffffffH
	DD	00H
__tryblocktable$?_Init@?$numpunct@D@std@@IAEXABV_Locinfo@2@_N@Z DD 00H
	DD	00H
	DD	01H
	DD	01H
	DD	FLAT:__catchsym$?_Init@?$numpunct@D@std@@IAEXABV_Locinfo@2@_N@Z$2
__ehfuncinfo$?_Init@?$numpunct@D@std@@IAEXABV_Locinfo@2@_N@Z DD 019930522H
	DD	02H
	DD	FLAT:__unwindtable$?_Init@?$numpunct@D@std@@IAEXABV_Locinfo@2@_N@Z
	DD	01H
	DD	FLAT:__tryblocktable$?_Init@?$numpunct@D@std@@IAEXABV_Locinfo@2@_N@Z
	DD	2 DUP(00H)
	DD	00H
	DD	01H
xdata$x	ENDS
;	COMDAT xdata$x
xdata$x	SEGMENT
__ehfuncinfo$??1?$numpunct@D@std@@MAE@XZ DD 019930522H
	DD	00H
	DD	00H
	DD	2 DUP(00H)
	DD	2 DUP(00H)
	DD	00H
	DD	05H
xdata$x	ENDS
;	COMDAT xdata$x
xdata$x	SEGMENT
__unwindtable$?_Getcat@?$numpunct@D@std@@SAIPAPBVfacet@locale@2@PBV42@@Z DD 0ffffffffH
	DD	FLAT:__unwindfunclet$?_Getcat@?$numpunct@D@std@@SAIPAPBVfacet@locale@2@PBV42@@Z$0
	DD	00H
	DD	FLAT:__unwindfunclet$?_Getcat@?$numpunct@D@std@@SAIPAPBVfacet@locale@2@PBV42@@Z$1
	DD	0ffffffffH
	DD	FLAT:__unwindfunclet$?_Getcat@?$numpunct@D@std@@SAIPAPBVfacet@locale@2@PBV42@@Z$1
__ehfuncinfo$?_Getcat@?$numpunct@D@std@@SAIPAPBVfacet@locale@2@PBV42@@Z DD 019930522H
	DD	03H
	DD	FLAT:__unwindtable$?_Getcat@?$numpunct@D@std@@SAIPAPBVfacet@locale@2@PBV42@@Z
	DD	2 DUP(00H)
	DD	2 DUP(00H)
	DD	00H
	DD	01H
xdata$x	ENDS
;	COMDAT xdata$x
xdata$x	SEGMENT
__unwindtable$??0?$numpunct@D@std@@QAE@ABV_Locinfo@1@I_N@Z DD 0ffffffffH
	DD	FLAT:__unwindfunclet$??0?$numpunct@D@std@@QAE@ABV_Locinfo@1@I_N@Z$0
__ehfuncinfo$??0?$numpunct@D@std@@QAE@ABV_Locinfo@1@I_N@Z DD 019930522H
	DD	01H
	DD	FLAT:__unwindtable$??0?$numpunct@D@std@@QAE@ABV_Locinfo@1@I_N@Z
	DD	2 DUP(00H)
	DD	2 DUP(00H)
	DD	00H
	DD	01H
xdata$x	ENDS
;	COMDAT xdata$x
xdata$x	SEGMENT
__unwindtable$??$use_facet@V?$numpunct@D@std@@@std@@YAABV?$numpunct@D@0@ABVlocale@0@@Z DD 0ffffffffH
	DD	FLAT:__unwindfunclet$??$use_facet@V?$numpunct@D@std@@@std@@YAABV?$numpunct@D@0@ABVlocale@0@@Z$0
	DD	00H
	DD	FLAT:__unwindfunclet$??$use_facet@V?$numpunct@D@std@@@std@@YAABV?$numpunct@D@0@ABVlocale@0@@Z$1
__ehfuncinfo$??$use_facet@V?$numpunct@D@std@@@std@@YAABV?$numpunct@D@0@ABVlocale@0@@Z DD 019930522H
	DD	02H
	DD	FLAT:__unwindtable$??$use_facet@V?$numpunct@D@std@@@std@@YAABV?$numpunct@D@0@ABVlocale@0@@Z
	DD	2 DUP(00H)
	DD	2 DUP(00H)
	DD	00H
	DD	01H
xdata$x	ENDS
;	COMDAT xdata$x
xdata$x	SEGMENT
__unwindtable$?_Iput@?$num_put@DV?$ostreambuf_iterator@DU?$char_traits@D@std@@@std@@@std@@ABA?AV?$ostreambuf_iterator@DU?$char_traits@D@std@@@2@V32@AAVios_base@2@DPADI@Z DD 0ffffffffH
	DD	FLAT:__unwindfunclet$?_Iput@?$num_put@DV?$ostreambuf_iterator@DU?$char_traits@D@std@@@std@@@std@@ABA?AV?$ostreambuf_iterator@DU?$char_traits@D@std@@@2@V32@AAVios_base@2@DPADI@Z$0
	DD	0ffffffffH
	DD	FLAT:__unwindfunclet$?_Iput@?$num_put@DV?$ostreambuf_iterator@DU?$char_traits@D@std@@@std@@@std@@ABA?AV?$ostreambuf_iterator@DU?$char_traits@D@std@@@2@V32@AAVios_base@2@DPADI@Z$1
	DD	01H
	DD	FLAT:__unwindfunclet$?_Iput@?$num_put@DV?$ostreambuf_iterator@DU?$char_traits@D@std@@@std@@@std@@ABA?AV?$ostreambuf_iterator@DU?$char_traits@D@std@@@2@V32@AAVios_base@2@DPADI@Z$2
	DD	01H
	DD	FLAT:__unwindfunclet$?_Iput@?$num_put@DV?$ostreambuf_iterator@DU?$char_traits@D@std@@@std@@@std@@ABA?AV?$ostreambuf_iterator@DU?$char_traits@D@std@@@2@V32@AAVios_base@2@DPADI@Z$3
__ehfuncinfo$?_Iput@?$num_put@DV?$ostreambuf_iterator@DU?$char_traits@D@std@@@std@@@std@@ABA?AV?$ostreambuf_iterator@DU?$char_traits@D@std@@@2@V32@AAVios_base@2@DPADI@Z DD 019930522H
	DD	04H
	DD	FLAT:__unwindtable$?_Iput@?$num_put@DV?$ostreambuf_iterator@DU?$char_traits@D@std@@@std@@@std@@ABA?AV?$ostreambuf_iterator@DU?$char_traits@D@std@@@2@V32@AAVios_base@2@DPADI@Z
	DD	2 DUP(00H)
	DD	2 DUP(00H)
	DD	00H
	DD	01H
xdata$x	ENDS
;	COMDAT xdata$x
xdata$x	SEGMENT
__unwindtable$?_Fput@?$num_put@DV?$ostreambuf_iterator@DU?$char_traits@D@std@@@std@@@std@@ABA?AV?$ostreambuf_iterator@DU?$char_traits@D@std@@@2@V32@AAVios_base@2@DPBDI@Z DD 0ffffffffH
	DD	FLAT:__unwindfunclet$?_Fput@?$num_put@DV?$ostreambuf_iterator@DU?$char_traits@D@std@@@std@@@std@@ABA?AV?$ostreambuf_iterator@DU?$char_traits@D@std@@@2@V32@AAVios_base@2@DPBDI@Z$0
	DD	0ffffffffH
	DD	FLAT:__unwindfunclet$?_Fput@?$num_put@DV?$ostreambuf_iterator@DU?$char_traits@D@std@@@std@@@std@@ABA?AV?$ostreambuf_iterator@DU?$char_traits@D@std@@@2@V32@AAVios_base@2@DPBDI@Z$1
	DD	01H
	DD	FLAT:__unwindfunclet$?_Fput@?$num_put@DV?$ostreambuf_iterator@DU?$char_traits@D@std@@@std@@@std@@ABA?AV?$ostreambuf_iterator@DU?$char_traits@D@std@@@2@V32@AAVios_base@2@DPBDI@Z$2
	DD	01H
	DD	FLAT:__unwindfunclet$?_Fput@?$num_put@DV?$ostreambuf_iterator@DU?$char_traits@D@std@@@std@@@std@@ABA?AV?$ostreambuf_iterator@DU?$char_traits@D@std@@@2@V32@AAVios_base@2@DPBDI@Z$3
__ehfuncinfo$?_Fput@?$num_put@DV?$ostreambuf_iterator@DU?$char_traits@D@std@@@std@@@std@@ABA?AV?$ostreambuf_iterator@DU?$char_traits@D@std@@@2@V32@AAVios_base@2@DPBDI@Z DD 019930522H
	DD	04H
	DD	FLAT:__unwindtable$?_Fput@?$num_put@DV?$ostreambuf_iterator@DU?$char_traits@D@std@@@std@@@std@@ABA?AV?$ostreambuf_iterator@DU?$char_traits@D@std@@@2@V32@AAVios_base@2@DPBDI@Z
	DD	2 DUP(00H)
	DD	2 DUP(00H)
	DD	00H
	DD	01H
xdata$x	ENDS
;	COMDAT xdata$x
xdata$x	SEGMENT
__unwindtable$?do_put@?$num_put@DV?$ostreambuf_iterator@DU?$char_traits@D@std@@@std@@@std@@MBE?AV?$ostreambuf_iterator@DU?$char_traits@D@std@@@2@V32@AAVios_base@2@DO@Z DD 0ffffffffH
	DD	FLAT:__unwindfunclet$?do_put@?$num_put@DV?$ostreambuf_iterator@DU?$char_traits@D@std@@@std@@@std@@MBE?AV?$ostreambuf_iterator@DU?$char_traits@D@std@@@2@V32@AAVios_base@2@DO@Z$0
__ehfuncinfo$?do_put@?$num_put@DV?$ostreambuf_iterator@DU?$char_traits@D@std@@@std@@@std@@MBE?AV?$ostreambuf_iterator@DU?$char_traits@D@std@@@2@V32@AAVios_base@2@DO@Z DD 019930522H
	DD	01H
	DD	FLAT:__unwindtable$?do_put@?$num_put@DV?$ostreambuf_iterator@DU?$char_traits@D@std@@@std@@@std@@MBE?AV?$ostreambuf_iterator@DU?$char_traits@D@std@@@2@V32@AAVios_base@2@DO@Z
	DD	2 DUP(00H)
	DD	2 DUP(00H)
	DD	00H
	DD	01H
xdata$x	ENDS
;	COMDAT xdata$x
xdata$x	SEGMENT
__unwindtable$?do_put@?$num_put@DV?$ostreambuf_iterator@DU?$char_traits@D@std@@@std@@@std@@MBE?AV?$ostreambuf_iterator@DU?$char_traits@D@std@@@2@V32@AAVios_base@2@DN@Z DD 0ffffffffH
	DD	FLAT:__unwindfunclet$?do_put@?$num_put@DV?$ostreambuf_iterator@DU?$char_traits@D@std@@@std@@@std@@MBE?AV?$ostreambuf_iterator@DU?$char_traits@D@std@@@2@V32@AAVios_base@2@DN@Z$0
__ehfuncinfo$?do_put@?$num_put@DV?$ostreambuf_iterator@DU?$char_traits@D@std@@@std@@@std@@MBE?AV?$ostreambuf_iterator@DU?$char_traits@D@std@@@2@V32@AAVios_base@2@DN@Z DD 019930522H
	DD	01H
	DD	FLAT:__unwindtable$?do_put@?$num_put@DV?$ostreambuf_iterator@DU?$char_traits@D@std@@@std@@@std@@MBE?AV?$ostreambuf_iterator@DU?$char_traits@D@std@@@2@V32@AAVios_base@2@DN@Z
	DD	2 DUP(00H)
	DD	2 DUP(00H)
	DD	00H
	DD	01H
xdata$x	ENDS
;	COMDAT xdata$x
xdata$x	SEGMENT
__unwindtable$?do_put@?$num_put@DV?$ostreambuf_iterator@DU?$char_traits@D@std@@@std@@@std@@MBE?AV?$ostreambuf_iterator@DU?$char_traits@D@std@@@2@V32@AAVios_base@2@D_N@Z DD 0ffffffffH
	DD	FLAT:__unwindfunclet$?do_put@?$num_put@DV?$ostreambuf_iterator@DU?$char_traits@D@std@@@std@@@std@@MBE?AV?$ostreambuf_iterator@DU?$char_traits@D@std@@@2@V32@AAVios_base@2@D_N@Z$0
	DD	0ffffffffH
	DD	FLAT:__unwindfunclet$?do_put@?$num_put@DV?$ostreambuf_iterator@DU?$char_traits@D@std@@@std@@@std@@MBE?AV?$ostreambuf_iterator@DU?$char_traits@D@std@@@2@V32@AAVios_base@2@D_N@Z$1
__ehfuncinfo$?do_put@?$num_put@DV?$ostreambuf_iterator@DU?$char_traits@D@std@@@std@@@std@@MBE?AV?$ostreambuf_iterator@DU?$char_traits@D@std@@@2@V32@AAVios_base@2@D_N@Z DD 019930522H
	DD	02H
	DD	FLAT:__unwindtable$?do_put@?$num_put@DV?$ostreambuf_iterator@DU?$char_traits@D@std@@@std@@@std@@MBE?AV?$ostreambuf_iterator@DU?$char_traits@D@std@@@2@V32@AAVios_base@2@D_N@Z
	DD	2 DUP(00H)
	DD	2 DUP(00H)
	DD	00H
	DD	01H
xdata$x	ENDS
;	COMDAT xdata$x
xdata$x	SEGMENT
__unwindtable$??0?$num_put@DV?$ostreambuf_iterator@DU?$char_traits@D@std@@@std@@@std@@QAE@ABV_Locinfo@1@I@Z DD 0ffffffffH
	DD	FLAT:__unwindfunclet$??0?$num_put@DV?$ostreambuf_iterator@DU?$char_traits@D@std@@@std@@@std@@QAE@ABV_Locinfo@1@I@Z$0
__ehfuncinfo$??0?$num_put@DV?$ostreambuf_iterator@DU?$char_traits@D@std@@@std@@@std@@QAE@ABV_Locinfo@1@I@Z DD 019930522H
	DD	01H
	DD	FLAT:__unwindtable$??0?$num_put@DV?$ostreambuf_iterator@DU?$char_traits@D@std@@@std@@@std@@QAE@ABV_Locinfo@1@I@Z
	DD	2 DUP(00H)
	DD	2 DUP(00H)
	DD	00H
	DD	01H
xdata$x	ENDS
;	COMDAT xdata$x
xdata$x	SEGMENT
__unwindtable$?_Getcat@?$num_put@DV?$ostreambuf_iterator@DU?$char_traits@D@std@@@std@@@std@@SAIPAPBVfacet@locale@2@PBV42@@Z DD 0ffffffffH
	DD	FLAT:__unwindfunclet$?_Getcat@?$num_put@DV?$ostreambuf_iterator@DU?$char_traits@D@std@@@std@@@std@@SAIPAPBVfacet@locale@2@PBV42@@Z$0
	DD	00H
	DD	FLAT:__unwindfunclet$?_Getcat@?$num_put@DV?$ostreambuf_iterator@DU?$char_traits@D@std@@@std@@@std@@SAIPAPBVfacet@locale@2@PBV42@@Z$1
	DD	0ffffffffH
	DD	FLAT:__unwindfunclet$?_Getcat@?$num_put@DV?$ostreambuf_iterator@DU?$char_traits@D@std@@@std@@@std@@SAIPAPBVfacet@locale@2@PBV42@@Z$1
__ehfuncinfo$?_Getcat@?$num_put@DV?$ostreambuf_iterator@DU?$char_traits@D@std@@@std@@@std@@SAIPAPBVfacet@locale@2@PBV42@@Z DD 019930522H
	DD	03H
	DD	FLAT:__unwindtable$?_Getcat@?$num_put@DV?$ostreambuf_iterator@DU?$char_traits@D@std@@@std@@@std@@SAIPAPBVfacet@locale@2@PBV42@@Z
	DD	2 DUP(00H)
	DD	2 DUP(00H)
	DD	00H
	DD	01H
xdata$x	ENDS
;	COMDAT xdata$x
xdata$x	SEGMENT
__unwindtable$??$use_facet@V?$num_put@DV?$ostreambuf_iterator@DU?$char_traits@D@std@@@std@@@std@@@std@@YAABV?$num_put@DV?$ostreambuf_iterator@DU?$char_traits@D@std@@@std@@@0@ABVlocale@0@@Z DD 0ffffffffH
	DD	FLAT:__unwindfunclet$??$use_facet@V?$num_put@DV?$ostreambuf_iterator@DU?$char_traits@D@std@@@std@@@std@@@std@@YAABV?$num_put@DV?$ostreambuf_iterator@DU?$char_traits@D@std@@@std@@@0@ABVlocale@0@@Z$0
	DD	00H
	DD	FLAT:__unwindfunclet$??$use_facet@V?$num_put@DV?$ostreambuf_iterator@DU?$char_traits@D@std@@@std@@@std@@@std@@YAABV?$num_put@DV?$ostreambuf_iterator@DU?$char_traits@D@std@@@std@@@0@ABVlocale@0@@Z$1
__ehfuncinfo$??$use_facet@V?$num_put@DV?$ostreambuf_iterator@DU?$char_traits@D@std@@@std@@@std@@@std@@YAABV?$num_put@DV?$ostreambuf_iterator@DU?$char_traits@D@std@@@std@@@0@ABVlocale@0@@Z DD 019930522H
	DD	02H
	DD	FLAT:__unwindtable$??$use_facet@V?$num_put@DV?$ostreambuf_iterator@DU?$char_traits@D@std@@@std@@@std@@@std@@YAABV?$num_put@DV?$ostreambuf_iterator@DU?$char_traits@D@std@@@std@@@0@ABVlocale@0@@Z
	DD	2 DUP(00H)
	DD	2 DUP(00H)
	DD	00H
	DD	01H
xdata$x	ENDS
;	COMDAT xdata$x
xdata$x	SEGMENT
__ehfuncinfo$??1sentry@?$basic_ostream@DU?$char_traits@D@std@@@std@@QAE@XZ DD 019930522H
	DD	00H
	DD	00H
	DD	2 DUP(00H)
	DD	2 DUP(00H)
	DD	00H
	DD	05H
xdata$x	ENDS
;	COMDAT xdata$x
xdata$x	SEGMENT
__unwindtable$??0sentry@?$basic_ostream@DU?$char_traits@D@std@@@std@@QAE@AAV12@@Z DD 0ffffffffH
	DD	FLAT:__unwindfunclet$??0sentry@?$basic_ostream@DU?$char_traits@D@std@@@std@@QAE@AAV12@@Z$0
__ehfuncinfo$??0sentry@?$basic_ostream@DU?$char_traits@D@std@@@std@@QAE@AAV12@@Z DD 019930522H
	DD	01H
	DD	FLAT:__unwindtable$??0sentry@?$basic_ostream@DU?$char_traits@D@std@@@std@@QAE@AAV12@@Z
	DD	2 DUP(00H)
	DD	2 DUP(00H)
	DD	00H
	DD	01H
xdata$x	ENDS
;	COMDAT xdata$x
xdata$x	SEGMENT
__ehfuncinfo$??1_Sentry_base@?$basic_ostream@DU?$char_traits@D@std@@@std@@QAE@XZ DD 019930522H
	DD	00H
	DD	00H
	DD	2 DUP(00H)
	DD	2 DUP(00H)
	DD	00H
	DD	05H
xdata$x	ENDS
;	COMDAT xdata$x
xdata$x	SEGMENT
__unwindtable$?str@?$basic_stringbuf@DU?$char_traits@D@std@@V?$allocator@D@2@@std@@QBE?AV?$basic_string@DU?$char_traits@D@std@@V?$allocator@D@2@@2@XZ DD 0ffffffffH
	DD	FLAT:__unwindfunclet$?str@?$basic_stringbuf@DU?$char_traits@D@std@@V?$allocator@D@2@@std@@QBE?AV?$basic_string@DU?$char_traits@D@std@@V?$allocator@D@2@@2@XZ$0
__ehfuncinfo$?str@?$basic_stringbuf@DU?$char_traits@D@std@@V?$allocator@D@2@@std@@QBE?AV?$basic_string@DU?$char_traits@D@std@@V?$allocator@D@2@@2@XZ DD 019930522H
	DD	01H
	DD	FLAT:__unwindtable$?str@?$basic_stringbuf@DU?$char_traits@D@std@@V?$allocator@D@2@@std@@QBE?AV?$basic_string@DU?$char_traits@D@std@@V?$allocator@D@2@@2@XZ
	DD	2 DUP(00H)
	DD	2 DUP(00H)
	DD	00H
	DD	01H
xdata$x	ENDS
;	COMDAT xdata$x
xdata$x	SEGMENT
__ehfuncinfo$??1?$basic_stringbuf@DU?$char_traits@D@std@@V?$allocator@D@2@@std@@UAE@XZ DD 019930522H
	DD	00H
	DD	00H
	DD	2 DUP(00H)
	DD	2 DUP(00H)
	DD	00H
	DD	05H
xdata$x	ENDS
;	COMDAT xdata$x
xdata$x	SEGMENT
__unwindtable$??0?$basic_stringbuf@DU?$char_traits@D@std@@V?$allocator@D@2@@std@@QAE@H@Z DD 0ffffffffH
	DD	FLAT:__unwindfunclet$??0?$basic_stringbuf@DU?$char_traits@D@std@@V?$allocator@D@2@@std@@QAE@H@Z$0
__ehfuncinfo$??0?$basic_stringbuf@DU?$char_traits@D@std@@V?$allocator@D@2@@std@@QAE@H@Z DD 019930522H
	DD	01H
	DD	FLAT:__unwindtable$??0?$basic_stringbuf@DU?$char_traits@D@std@@V?$allocator@D@2@@std@@QAE@H@Z
	DD	2 DUP(00H)
	DD	2 DUP(00H)
	DD	00H
	DD	01H
xdata$x	ENDS
;	COMDAT xdata$x
xdata$x	SEGMENT
__unwindtable$??0?$basic_ostringstream@DU?$char_traits@D@std@@V?$allocator@D@2@@std@@QAE@H@Z DD 0ffffffffH
	DD	FLAT:__unwindfunclet$??0?$basic_ostringstream@DU?$char_traits@D@std@@V?$allocator@D@2@@std@@QAE@H@Z$0
	DD	00H
	DD	FLAT:__unwindfunclet$??0?$basic_ostringstream@DU?$char_traits@D@std@@V?$allocator@D@2@@std@@QAE@H@Z$1
__ehfuncinfo$??0?$basic_ostringstream@DU?$char_traits@D@std@@V?$allocator@D@2@@std@@QAE@H@Z DD 019930522H
	DD	02H
	DD	FLAT:__unwindtable$??0?$basic_ostringstream@DU?$char_traits@D@std@@V?$allocator@D@2@@std@@QAE@H@Z
	DD	2 DUP(00H)
	DD	2 DUP(00H)
	DD	00H
	DD	01H
xdata$x	ENDS
;	COMDAT xdata$x
xdata$x	SEGMENT
__unwindtable$?flush@?$basic_ostream@DU?$char_traits@D@std@@@std@@QAEAAV12@XZ DD 0ffffffffH
	DD	FLAT:__unwindfunclet$?flush@?$basic_ostream@DU?$char_traits@D@std@@@std@@QAEAAV12@XZ$0
__ehfuncinfo$?flush@?$basic_ostream@DU?$char_traits@D@std@@@std@@QAEAAV12@XZ DD 019930522H
	DD	01H
	DD	FLAT:__unwindtable$?flush@?$basic_ostream@DU?$char_traits@D@std@@@std@@QAEAAV12@XZ
	DD	2 DUP(00H)
	DD	2 DUP(00H)
	DD	00H
	DD	01H
xdata$x	ENDS
;	COMDAT xdata$x
xdata$x	SEGMENT
__catchsym$??6?$basic_ostream@DU?$char_traits@D@std@@@std@@QAEAAV01@N@Z$4 DD 040H
	DD	00H
	DD	00H
	DD	FLAT:__catch$??6?$basic_ostream@DU?$char_traits@D@std@@@std@@QAEAAV01@N@Z$0
__tryblocktable$??6?$basic_ostream@DU?$char_traits@D@std@@@std@@QAEAAV01@N@Z DD 02H
	DD	02H
	DD	03H
	DD	01H
	DD	FLAT:__catchsym$??6?$basic_ostream@DU?$char_traits@D@std@@@std@@QAEAAV01@N@Z$4
__unwindtable$??6?$basic_ostream@DU?$char_traits@D@std@@@std@@QAEAAV01@N@Z DD 0ffffffffH
	DD	FLAT:__unwindfunclet$??6?$basic_ostream@DU?$char_traits@D@std@@@std@@QAEAAV01@N@Z$2
	DD	00H
	DD	FLAT:__unwindfunclet$??6?$basic_ostream@DU?$char_traits@D@std@@@std@@QAEAAV01@N@Z$3
	DD	00H
	DD	00H
	DD	00H
	DD	00H
__ehfuncinfo$??6?$basic_ostream@DU?$char_traits@D@std@@@std@@QAEAAV01@N@Z DD 019930522H
	DD	04H
	DD	FLAT:__unwindtable$??6?$basic_ostream@DU?$char_traits@D@std@@@std@@QAEAAV01@N@Z
	DD	01H
	DD	FLAT:__tryblocktable$??6?$basic_ostream@DU?$char_traits@D@std@@@std@@QAEAAV01@N@Z
	DD	2 DUP(00H)
	DD	00H
	DD	01H
xdata$x	ENDS
;	COMDAT xdata$x
xdata$x	SEGMENT
__catchsym$?_Osfx@?$basic_ostream@DU?$char_traits@D@std@@@std@@QAEXXZ$2 DD 040H
	DD	00H
	DD	00H
	DD	FLAT:__catch$?_Osfx@?$basic_ostream@DU?$char_traits@D@std@@@std@@QAEXXZ$0
__unwindtable$?_Osfx@?$basic_ostream@DU?$char_traits@D@std@@@std@@QAEXXZ DD 0ffffffffH
	DD	00H
	DD	0ffffffffH
	DD	00H
__tryblocktable$?_Osfx@?$basic_ostream@DU?$char_traits@D@std@@@std@@QAEXXZ DD 00H
	DD	00H
	DD	01H
	DD	01H
	DD	FLAT:__catchsym$?_Osfx@?$basic_ostream@DU?$char_traits@D@std@@@std@@QAEXXZ$2
__ehfuncinfo$?_Osfx@?$basic_ostream@DU?$char_traits@D@std@@@std@@QAEXXZ DD 019930522H
	DD	02H
	DD	FLAT:__unwindtable$?_Osfx@?$basic_ostream@DU?$char_traits@D@std@@@std@@QAEXXZ
	DD	01H
	DD	FLAT:__tryblocktable$?_Osfx@?$basic_ostream@DU?$char_traits@D@std@@@std@@QAEXXZ
	DD	2 DUP(00H)
	DD	00H
	DD	01H
xdata$x	ENDS
;	COMDAT xdata$x
xdata$x	SEGMENT
__unwindtable$??0?$basic_ostream@DU?$char_traits@D@std@@@std@@QAE@PAV?$basic_streambuf@DU?$char_traits@D@std@@@1@_N@Z DD 0ffffffffH
	DD	FLAT:__unwindfunclet$??0?$basic_ostream@DU?$char_traits@D@std@@@std@@QAE@PAV?$basic_streambuf@DU?$char_traits@D@std@@@1@_N@Z$0
__ehfuncinfo$??0?$basic_ostream@DU?$char_traits@D@std@@@std@@QAE@PAV?$basic_streambuf@DU?$char_traits@D@std@@@1@_N@Z DD 019930522H
	DD	01H
	DD	FLAT:__unwindtable$??0?$basic_ostream@DU?$char_traits@D@std@@@std@@QAE@PAV?$basic_streambuf@DU?$char_traits@D@std@@@1@_N@Z
	DD	2 DUP(00H)
	DD	2 DUP(00H)
	DD	00H
	DD	01H
xdata$x	ENDS
;	COMDAT xdata$x
xdata$x	SEGMENT
__unwindtable$?widen@?$basic_ios@DU?$char_traits@D@std@@@std@@QBEDD@Z DD 0ffffffffH
	DD	FLAT:__unwindfunclet$?widen@?$basic_ios@DU?$char_traits@D@std@@@std@@QBEDD@Z$0
__ehfuncinfo$?widen@?$basic_ios@DU?$char_traits@D@std@@@std@@QBEDD@Z DD 019930522H
	DD	01H
	DD	FLAT:__unwindtable$?widen@?$basic_ios@DU?$char_traits@D@std@@@std@@QBEDD@Z
	DD	2 DUP(00H)
	DD	2 DUP(00H)
	DD	00H
	DD	01H
xdata$x	ENDS
;	COMDAT xdata$x
xdata$x	SEGMENT
__ehfuncinfo$??$?0U?$default_delete@V_Facet_base@std@@@std@@$0A@@?$unique_ptr@V_Facet_base@std@@U?$default_delete@V_Facet_base@std@@@2@@std@@QAE@PAV_Facet_base@1@@Z DD 019930522H
	DD	00H
	DD	00H
	DD	2 DUP(00H)
	DD	2 DUP(00H)
	DD	00H
	DD	05H
xdata$x	ENDS
;	COMDAT xdata$x
xdata$x	SEGMENT
__unwindtable$??$?0V?$allocator@D@std@@X@?$_String_alloc@U?$_String_base_types@DV?$allocator@D@std@@@std@@@std@@QAE@$$QAV?$allocator@D@1@@Z DD 0ffffffffH
	DD	FLAT:__unwindfunclet$??$?0V?$allocator@D@std@@X@?$_String_alloc@U?$_String_base_types@DV?$allocator@D@std@@@std@@@std@@QAE@$$QAV?$allocator@D@1@@Z$0
__ehfuncinfo$??$?0V?$allocator@D@std@@X@?$_String_alloc@U?$_String_base_types@DV?$allocator@D@std@@@std@@@std@@QAE@$$QAV?$allocator@D@1@@Z DD 019930522H
	DD	01H
	DD	FLAT:__unwindtable$??$?0V?$allocator@D@std@@X@?$_String_alloc@U?$_String_base_types@DV?$allocator@D@std@@@std@@@std@@QAE@$$QAV?$allocator@D@1@@Z
	DD	2 DUP(00H)
	DD	2 DUP(00H)
	DD	00H
	DD	01H
xdata$x	ENDS
;	COMDAT xdata$x
xdata$x	SEGMENT
__unwindtable$??$ttos@N@@YA?AV?$basic_string@DU?$char_traits@D@std@@V?$allocator@D@2@@std@@ABNH@Z DD 0ffffffffH
	DD	FLAT:__unwindfunclet$??$ttos@N@@YA?AV?$basic_string@DU?$char_traits@D@std@@V?$allocator@D@2@@std@@ABNH@Z$0
__ehfuncinfo$??$ttos@N@@YA?AV?$basic_string@DU?$char_traits@D@std@@V?$allocator@D@2@@std@@ABNH@Z DD 019930522H
	DD	01H
	DD	FLAT:__unwindtable$??$ttos@N@@YA?AV?$basic_string@DU?$char_traits@D@std@@V?$allocator@D@2@@std@@ABNH@Z
	DD	2 DUP(00H)
	DD	2 DUP(00H)
	DD	00H
	DD	01H
xdata$x	ENDS
xdata$x	SEGMENT
__ehfuncinfo$?RenderInfo@AttackTargetGoal_Evaluator@@UAEXUVector2D@@PAVRaven_Bot@@@Z DD 019930522H
	DD	09H
	DD	FLAT:__unwindtable$?RenderInfo@AttackTargetGoal_Evaluator@@UAEXUVector2D@@PAVRaven_Bot@@@Z
	DD	2 DUP(00H)
	DD	2 DUP(00H)
	DD	00H
	DD	01H
__unwindtable$?RenderInfo@AttackTargetGoal_Evaluator@@UAEXUVector2D@@PAVRaven_Bot@@@Z DD 0ffffffffH
	DD	FLAT:__unwindfunclet$?RenderInfo@AttackTargetGoal_Evaluator@@UAEXUVector2D@@PAVRaven_Bot@@@Z$0
	DD	00H
	DD	FLAT:__unwindfunclet$?RenderInfo@AttackTargetGoal_Evaluator@@UAEXUVector2D@@PAVRaven_Bot@@@Z$1
	DD	0ffffffffH
	DD	FLAT:__unwindfunclet$?RenderInfo@AttackTargetGoal_Evaluator@@UAEXUVector2D@@PAVRaven_Bot@@@Z$2
	DD	02H
	DD	FLAT:__unwindfunclet$?RenderInfo@AttackTargetGoal_Evaluator@@UAEXUVector2D@@PAVRaven_Bot@@@Z$3
	DD	03H
	DD	FLAT:__unwindfunclet$?RenderInfo@AttackTargetGoal_Evaluator@@UAEXUVector2D@@PAVRaven_Bot@@@Z$4
	DD	04H
	DD	FLAT:__unwindfunclet$?RenderInfo@AttackTargetGoal_Evaluator@@UAEXUVector2D@@PAVRaven_Bot@@@Z$5
	DD	03H
	DD	FLAT:__unwindfunclet$?RenderInfo@AttackTargetGoal_Evaluator@@UAEXUVector2D@@PAVRaven_Bot@@@Z$5
	DD	02H
	DD	FLAT:__unwindfunclet$?RenderInfo@AttackTargetGoal_Evaluator@@UAEXUVector2D@@PAVRaven_Bot@@@Z$5
	DD	0ffffffffH
	DD	FLAT:__unwindfunclet$?RenderInfo@AttackTargetGoal_Evaluator@@UAEXUVector2D@@PAVRaven_Bot@@@Z$5
xdata$x	ENDS
;	COMDAT xdata$x
xdata$x	SEGMENT
__ehfuncinfo$??1ios_base@std@@UAE@XZ DD 019930522H
	DD	00H
	DD	00H
	DD	2 DUP(00H)
	DD	2 DUP(00H)
	DD	00H
	DD	05H
xdata$x	ENDS
;	COMDAT xdata$x
xdata$x	SEGMENT
__unwindtable$??0system_error@std@@QAE@Verror_code@1@PBD@Z DD 0ffffffffH
	DD	FLAT:__unwindfunclet$??0system_error@std@@QAE@Verror_code@1@PBD@Z$0
__ehfuncinfo$??0system_error@std@@QAE@Verror_code@1@PBD@Z DD 019930522H
	DD	01H
	DD	FLAT:__unwindtable$??0system_error@std@@QAE@Verror_code@1@PBD@Z
	DD	2 DUP(00H)
	DD	2 DUP(00H)
	DD	00H
	DD	01H
xdata$x	ENDS
;	COMDAT xdata$x
xdata$x	SEGMENT
__unwindtable$??0_System_error@std@@IAE@Verror_code@1@ABV?$basic_string@DU?$char_traits@D@std@@V?$allocator@D@2@@1@@Z DD 0ffffffffH
	DD	FLAT:__unwindfunclet$??0_System_error@std@@IAE@Verror_code@1@ABV?$basic_string@DU?$char_traits@D@std@@V?$allocator@D@2@@1@@Z$1
__ehfuncinfo$??0_System_error@std@@IAE@Verror_code@1@ABV?$basic_string@DU?$char_traits@D@std@@V?$allocator@D@2@@1@@Z DD 019930522H
	DD	01H
	DD	FLAT:__unwindtable$??0_System_error@std@@IAE@Verror_code@1@ABV?$basic_string@DU?$char_traits@D@std@@V?$allocator@D@2@@1@@Z
	DD	2 DUP(00H)
	DD	2 DUP(00H)
	DD	00H
	DD	01H
xdata$x	ENDS
;	COMDAT xdata$x
xdata$x	SEGMENT
__unwindtable$?_Makestr@_System_error@std@@CA?AV?$basic_string@DU?$char_traits@D@std@@V?$allocator@D@2@@2@Verror_code@2@V32@@Z DD 0ffffffffH
	DD	FLAT:__unwindfunclet$?_Makestr@_System_error@std@@CA?AV?$basic_string@DU?$char_traits@D@std@@V?$allocator@D@2@@2@Verror_code@2@V32@@Z$0
	DD	00H
	DD	FLAT:__unwindfunclet$?_Makestr@_System_error@std@@CA?AV?$basic_string@DU?$char_traits@D@std@@V?$allocator@D@2@@2@Verror_code@2@V32@@Z$1
__ehfuncinfo$?_Makestr@_System_error@std@@CA?AV?$basic_string@DU?$char_traits@D@std@@V?$allocator@D@2@@2@Verror_code@2@V32@@Z DD 019930522H
	DD	02H
	DD	FLAT:__unwindtable$?_Makestr@_System_error@std@@CA?AV?$basic_string@DU?$char_traits@D@std@@V?$allocator@D@2@@2@Verror_code@2@V32@@Z
	DD	2 DUP(00H)
	DD	2 DUP(00H)
	DD	00H
	DD	01H
xdata$x	ENDS
;	COMDAT xdata$x
xdata$x	SEGMENT
__ehfuncinfo$?iostream_category@std@@YAABVerror_category@1@XZ DD 019930522H
	DD	00H
	DD	00H
	DD	2 DUP(00H)
	DD	2 DUP(00H)
	DD	00H
	DD	05H
xdata$x	ENDS
;	COMDAT xdata$x
xdata$x	SEGMENT
__unwindtable$??$use_facet@V?$ctype@D@std@@@std@@YAABV?$ctype@D@0@ABVlocale@0@@Z DD 0ffffffffH
	DD	FLAT:__unwindfunclet$??$use_facet@V?$ctype@D@std@@@std@@YAABV?$ctype@D@0@ABVlocale@0@@Z$0
	DD	00H
	DD	FLAT:__unwindfunclet$??$use_facet@V?$ctype@D@std@@@std@@YAABV?$ctype@D@0@ABVlocale@0@@Z$1
__ehfuncinfo$??$use_facet@V?$ctype@D@std@@@std@@YAABV?$ctype@D@0@ABVlocale@0@@Z DD 019930522H
	DD	02H
	DD	FLAT:__unwindtable$??$use_facet@V?$ctype@D@std@@@std@@YAABV?$ctype@D@0@ABVlocale@0@@Z
	DD	2 DUP(00H)
	DD	2 DUP(00H)
	DD	00H
	DD	01H
xdata$x	ENDS
;	COMDAT xdata$x
xdata$x	SEGMENT
__ehfuncinfo$??1?$ctype@D@std@@MAE@XZ DD 019930522H
	DD	00H
	DD	00H
	DD	2 DUP(00H)
	DD	2 DUP(00H)
	DD	00H
	DD	05H
xdata$x	ENDS
;	COMDAT xdata$x
xdata$x	SEGMENT
__unwindtable$?_Getcat@?$ctype@D@std@@SAIPAPBVfacet@locale@2@PBV42@@Z DD 0ffffffffH
	DD	FLAT:__unwindfunclet$?_Getcat@?$ctype@D@std@@SAIPAPBVfacet@locale@2@PBV42@@Z$0
	DD	00H
	DD	FLAT:__unwindfunclet$?_Getcat@?$ctype@D@std@@SAIPAPBVfacet@locale@2@PBV42@@Z$1
	DD	0ffffffffH
	DD	FLAT:__unwindfunclet$?_Getcat@?$ctype@D@std@@SAIPAPBVfacet@locale@2@PBV42@@Z$1
__ehfuncinfo$?_Getcat@?$ctype@D@std@@SAIPAPBVfacet@locale@2@PBV42@@Z DD 019930522H
	DD	03H
	DD	FLAT:__unwindtable$?_Getcat@?$ctype@D@std@@SAIPAPBVfacet@locale@2@PBV42@@Z
	DD	2 DUP(00H)
	DD	2 DUP(00H)
	DD	00H
	DD	01H
xdata$x	ENDS
;	COMDAT xdata$x
xdata$x	SEGMENT
__unwindtable$??0?$ctype@D@std@@QAE@ABV_Locinfo@1@I@Z DD 0ffffffffH
	DD	FLAT:__unwindfunclet$??0?$ctype@D@std@@QAE@ABV_Locinfo@1@I@Z$0
__ehfuncinfo$??0?$ctype@D@std@@QAE@ABV_Locinfo@1@I@Z DD 019930522H
	DD	01H
	DD	FLAT:__unwindtable$??0?$ctype@D@std@@QAE@ABV_Locinfo@1@I@Z
	DD	2 DUP(00H)
	DD	2 DUP(00H)
	DD	00H
	DD	01H
xdata$x	ENDS
;	COMDAT xdata$x
xdata$x	SEGMENT
__ehfuncinfo$??1locale@std@@QAE@XZ DD 019930522H
	DD	00H
	DD	00H
	DD	2 DUP(00H)
	DD	2 DUP(00H)
	DD	00H
	DD	05H
xdata$x	ENDS
;	COMDAT xdata$x
xdata$x	SEGMENT
__ehfuncinfo$??0locale@std@@QAE@XZ DD 019930522H
	DD	00H
	DD	00H
	DD	2 DUP(00H)
	DD	2 DUP(00H)
	DD	00H
	DD	05H
xdata$x	ENDS
;	COMDAT xdata$x
xdata$x	SEGMENT
__ehfuncinfo$??0locale@std@@QAE@ABV01@@Z DD 019930522H
	DD	00H
	DD	00H
	DD	2 DUP(00H)
	DD	2 DUP(00H)
	DD	00H
	DD	05H
xdata$x	ENDS
;	COMDAT xdata$x
xdata$x	SEGMENT
__ehfuncinfo$??1?$_Yarn@_W@std@@QAE@XZ DD 019930522H
	DD	00H
	DD	00H
	DD	2 DUP(00H)
	DD	2 DUP(00H)
	DD	00H
	DD	05H
xdata$x	ENDS
;	COMDAT xdata$x
xdata$x	SEGMENT
__ehfuncinfo$??1?$_Yarn@D@std@@QAE@XZ DD 019930522H
	DD	00H
	DD	00H
	DD	2 DUP(00H)
	DD	2 DUP(00H)
	DD	00H
	DD	05H
xdata$x	ENDS
;	COMDAT xdata$x
xdata$x	SEGMENT
__ehfuncinfo$??1_Locinfo@std@@QAE@XZ DD 019930522H
	DD	00H
	DD	00H
	DD	2 DUP(00H)
	DD	2 DUP(00H)
	DD	00H
	DD	05H
xdata$x	ENDS
;	COMDAT xdata$x
xdata$x	SEGMENT
__ehfuncinfo$??0_Locinfo@std@@QAE@PBD@Z DD 019930522H
	DD	07H
	DD	FLAT:__unwindtable$??0_Locinfo@std@@QAE@PBD@Z
	DD	2 DUP(00H)
	DD	2 DUP(00H)
	DD	00H
	DD	01H
__unwindtable$??0_Locinfo@std@@QAE@PBD@Z DD 0ffffffffH
	DD	FLAT:__unwindfunclet$??0_Locinfo@std@@QAE@PBD@Z$0
	DD	00H
	DD	FLAT:__unwindfunclet$??0_Locinfo@std@@QAE@PBD@Z$1
	DD	01H
	DD	FLAT:__unwindfunclet$??0_Locinfo@std@@QAE@PBD@Z$2
	DD	02H
	DD	FLAT:__unwindfunclet$??0_Locinfo@std@@QAE@PBD@Z$3
	DD	03H
	DD	FLAT:__unwindfunclet$??0_Locinfo@std@@QAE@PBD@Z$4
	DD	04H
	DD	FLAT:__unwindfunclet$??0_Locinfo@std@@QAE@PBD@Z$5
	DD	05H
	DD	FLAT:__unwindfunclet$??0_Locinfo@std@@QAE@PBD@Z$6
xdata$x	ENDS
;	COMDAT xdata$x
xdata$x	SEGMENT
__ehfuncinfo$?c_str@?$basic_string@DU?$char_traits@D@std@@V?$allocator@D@2@@std@@QBEPBDXZ DD 019930522H
	DD	00H
	DD	00H
	DD	2 DUP(00H)
	DD	2 DUP(00H)
	DD	00H
	DD	05H
xdata$x	ENDS
;	COMDAT xdata$x
xdata$x	SEGMENT
__ehfuncinfo$??1?$basic_string@DU?$char_traits@D@std@@V?$allocator@D@2@@std@@QAE@XZ DD 019930522H
	DD	00H
	DD	00H
	DD	2 DUP(00H)
	DD	2 DUP(00H)
	DD	00H
	DD	05H
xdata$x	ENDS
;	COMDAT xdata$x
xdata$x	SEGMENT
__ehfuncinfo$?_Assign_rv_contents_with_alloc_always_equal@?$basic_string@DU?$char_traits@D@std@@V?$allocator@D@2@@std@@QAEX$$QAV12@U?$integral_constant@_N$00@2@@Z DD 019930522H
	DD	00H
	DD	00H
	DD	2 DUP(00H)
	DD	2 DUP(00H)
	DD	00H
	DD	05H
xdata$x	ENDS
;	COMDAT xdata$x
xdata$x	SEGMENT
__ehfuncinfo$??4?$basic_string@DU?$char_traits@D@std@@V?$allocator@D@2@@std@@QAEAAV01@$$QAV01@@Z DD 019930522H
	DD	00H
	DD	00H
	DD	2 DUP(00H)
	DD	2 DUP(00H)
	DD	00H
	DD	05H
xdata$x	ENDS
;	COMDAT xdata$x
xdata$x	SEGMENT
__ehfuncinfo$??0?$basic_string@DU?$char_traits@D@std@@V?$allocator@D@2@@std@@QAE@$$QAV01@@Z DD 019930522H
	DD	00H
	DD	00H
	DD	2 DUP(00H)
	DD	2 DUP(00H)
	DD	00H
	DD	05H
xdata$x	ENDS
;	COMDAT xdata$x
xdata$x	SEGMENT
__unwindtable$??0?$basic_string@DU?$char_traits@D@std@@V?$allocator@D@2@@std@@QAE@ID@Z DD 0ffffffffH
	DD	FLAT:__unwindfunclet$??0?$basic_string@DU?$char_traits@D@std@@V?$allocator@D@2@@std@@QAE@ID@Z$0
__ehfuncinfo$??0?$basic_string@DU?$char_traits@D@std@@V?$allocator@D@2@@std@@QAE@ID@Z DD 019930522H
	DD	01H
	DD	FLAT:__unwindtable$??0?$basic_string@DU?$char_traits@D@std@@V?$allocator@D@2@@std@@QAE@ID@Z
	DD	2 DUP(00H)
	DD	2 DUP(00H)
	DD	00H
	DD	01H
xdata$x	ENDS
;	COMDAT xdata$x
xdata$x	SEGMENT
__unwindtable$??0?$basic_string@DU?$char_traits@D@std@@V?$allocator@D@2@@std@@QAE@QBD@Z DD 0ffffffffH
	DD	FLAT:__unwindfunclet$??0?$basic_string@DU?$char_traits@D@std@@V?$allocator@D@2@@std@@QAE@QBD@Z$0
__ehfuncinfo$??0?$basic_string@DU?$char_traits@D@std@@V?$allocator@D@2@@std@@QAE@QBD@Z DD 019930522H
	DD	01H
	DD	FLAT:__unwindtable$??0?$basic_string@DU?$char_traits@D@std@@V?$allocator@D@2@@std@@QAE@QBD@Z
	DD	2 DUP(00H)
	DD	2 DUP(00H)
	DD	00H
	DD	01H
xdata$x	ENDS
;	COMDAT xdata$x
xdata$x	SEGMENT
__ehfuncinfo$??0?$basic_string@DU?$char_traits@D@std@@V?$allocator@D@2@@std@@QAE@ABV?$allocator@D@1@@Z DD 019930522H
	DD	00H
	DD	00H
	DD	2 DUP(00H)
	DD	2 DUP(00H)
	DD	00H
	DD	05H
xdata$x	ENDS
;	COMDAT xdata$x
xdata$x	SEGMENT
__ehfuncinfo$??0?$basic_string@DU?$char_traits@D@std@@V?$allocator@D@2@@std@@QAE@XZ DD 019930522H
	DD	00H
	DD	00H
	DD	2 DUP(00H)
	DD	2 DUP(00H)
	DD	00H
	DD	05H
xdata$x	ENDS
;	COMDAT xdata$x
xdata$x	SEGMENT
__unwindtable$??0?$basic_string@DU?$char_traits@D@std@@V?$allocator@D@2@@std@@QAE@ABV01@@Z DD 0ffffffffH
	DD	FLAT:__unwindfunclet$??0?$basic_string@DU?$char_traits@D@std@@V?$allocator@D@2@@std@@QAE@ABV01@@Z$0
__ehfuncinfo$??0?$basic_string@DU?$char_traits@D@std@@V?$allocator@D@2@@std@@QAE@ABV01@@Z DD 019930522H
	DD	01H
	DD	FLAT:__unwindtable$??0?$basic_string@DU?$char_traits@D@std@@V?$allocator@D@2@@std@@QAE@ABV01@@Z
	DD	2 DUP(00H)
	DD	2 DUP(00H)
	DD	00H
	DD	01H
xdata$x	ENDS
;	COMDAT xdata$x
xdata$x	SEGMENT
__ehfuncinfo$??1?$_String_alloc@U?$_String_base_types@DV?$allocator@D@std@@@std@@@std@@QAE@XZ DD 019930522H
	DD	00H
	DD	00H
	DD	2 DUP(00H)
	DD	2 DUP(00H)
	DD	00H
	DD	05H
xdata$x	ENDS
;	COMDAT xdata$x
xdata$x	SEGMENT
__unwindtable$??0?$_String_alloc@U?$_String_base_types@DV?$allocator@D@std@@@std@@@std@@QAE@XZ DD 0ffffffffH
	DD	FLAT:__unwindfunclet$??0?$_String_alloc@U?$_String_base_types@DV?$allocator@D@std@@@std@@@std@@QAE@XZ$0
__ehfuncinfo$??0?$_String_alloc@U?$_String_base_types@DV?$allocator@D@std@@@std@@@std@@QAE@XZ DD 019930522H
	DD	01H
	DD	FLAT:__unwindtable$??0?$_String_alloc@U?$_String_base_types@DV?$allocator@D@std@@@std@@@std@@QAE@XZ
	DD	2 DUP(00H)
	DD	2 DUP(00H)
	DD	00H
	DD	01H
xdata$x	ENDS
;	COMDAT xdata$x
xdata$x	SEGMENT
__ehfuncinfo$?_Swap_all@_Container_base12@std@@QAEXAAU12@@Z DD 019930522H
	DD	00H
	DD	00H
	DD	2 DUP(00H)
	DD	2 DUP(00H)
	DD	00H
	DD	05H
xdata$x	ENDS
;	COMDAT xdata$x
xdata$x	SEGMENT
__ehfuncinfo$?_Orphan_all@_Container_base12@std@@QAEXXZ DD 019930522H
	DD	00H
	DD	00H
	DD	2 DUP(00H)
	DD	2 DUP(00H)
	DD	00H
	DD	05H
xdata$x	ENDS
CRT$XCU	SEGMENT
?MaxDouble$initializer$@@3P6AXXZA DD FLAT:??__EMaxDouble@@YAXXZ ; MaxDouble$initializer$
CRT$XCU	ENDS
CRT$XCU	SEGMENT
?MinDouble$initializer$@@3P6AXXZA DD FLAT:??__EMinDouble@@YAXXZ ; MinDouble$initializer$
CRT$XCU	ENDS
CRT$XCU	SEGMENT
?MaxFloat$initializer$@@3P6AXXZA DD FLAT:??__EMaxFloat@@YAXXZ ; MaxFloat$initializer$
CRT$XCU	ENDS
CRT$XCU	SEGMENT
?MinFloat$initializer$@@3P6AXXZA DD FLAT:??__EMinFloat@@YAXXZ ; MinFloat$initializer$
CRT$XCU	ENDS
;	COMDAT CRT$XCU
CRT$XCU	SEGMENT
??id$initializer$@?$num_put@DV?$ostreambuf_iterator@DU?$char_traits@D@std@@@std@@@std@@2P6AXXZA@@3P6AXXZA DD FLAT:??__E?id@?$num_put@DV?$ostreambuf_iterator@DU?$char_traits@D@std@@@std@@@std@@2V0locale@2@A@@YAXXZ ; ??id$initializer$@?$num_put@DV?$ostreambuf_iterator@DU?$char_traits@D@std@@@std@@@std@@2P6AXXZA@@3P6AXXZA
CRT$XCU	ENDS
;	COMDAT CRT$XCU
CRT$XCU	SEGMENT
??id$initializer$@?$numpunct@D@std@@2P6AXXZA@@3P6AXXZA DD FLAT:??__E?id@?$numpunct@D@std@@2V0locale@2@A@@YAXXZ ; ??id$initializer$@?$numpunct@D@std@@2P6AXXZA@@3P6AXXZA
CRT$XCU	ENDS
; Function compile flags: /Odsp /RTCsu
;	COMDAT ??_E?$basic_ostringstream@DU?$char_traits@D@std@@V?$allocator@D@2@@std@@$4PPPPPPPM@A@AEPAXI@Z
_TEXT	SEGMENT
??_E?$basic_ostringstream@DU?$char_traits@D@std@@V?$allocator@D@2@@std@@$4PPPPPPPM@A@AEPAXI@Z PROC ; std::basic_ostringstream<char,std::char_traits<char>,std::allocator<char> >::`vector deleting destructor', COMDAT
	sub	ecx, DWORD PTR [ecx-4]
	jmp	??_E?$basic_ostringstream@DU?$char_traits@D@std@@V?$allocator@D@2@@std@@UAEPAXI@Z
??_E?$basic_ostringstream@DU?$char_traits@D@std@@V?$allocator@D@2@@std@@$4PPPPPPPM@A@AEPAXI@Z ENDP ; std::basic_ostringstream<char,std::char_traits<char>,std::allocator<char> >::`vector deleting destructor'
_TEXT	ENDS
; Function compile flags: /Odsp /RTCsu
;	COMDAT ??_E?$basic_ostream@DU?$char_traits@D@std@@@std@@$4PPPPPPPM@A@AEPAXI@Z
_TEXT	SEGMENT
??_E?$basic_ostream@DU?$char_traits@D@std@@@std@@$4PPPPPPPM@A@AEPAXI@Z PROC ; std::basic_ostream<char,std::char_traits<char> >::`vector deleting destructor', COMDAT
	sub	ecx, DWORD PTR [ecx-4]
	jmp	??_E?$basic_ostream@DU?$char_traits@D@std@@@std@@UAEPAXI@Z
??_E?$basic_ostream@DU?$char_traits@D@std@@@std@@$4PPPPPPPM@A@AEPAXI@Z ENDP ; std::basic_ostream<char,std::char_traits<char> >::`vector deleting destructor'
_TEXT	ENDS
; Function compile flags: /Odtp /RTCsu
; File c:\program files (x86)\microsoft visual studio\2017\community\vc\tools\msvc\14.15.26726\include\type_traits
;	COMDAT ??$forward@AAPAV_Facet_base@std@@@std@@YAAAPAV_Facet_base@0@AAPAV10@@Z
_TEXT	SEGMENT
__Arg$ = 8						; size = 4
??$forward@AAPAV_Facet_base@std@@@std@@YAAAPAV_Facet_base@0@AAPAV10@@Z PROC ; std::forward<std::_Facet_base * &>, COMDAT

; 1573 : 	{	// forward an lvalue as either an lvalue or an rvalue

	push	ebp
	mov	ebp, esp

; 1574 : 	return (static_cast<_Ty&&>(_Arg));

	mov	eax, DWORD PTR __Arg$[ebp]

; 1575 : 	}

	pop	ebp
	ret	0
??$forward@AAPAV_Facet_base@std@@@std@@YAAAPAV_Facet_base@0@AAPAV10@@Z ENDP ; std::forward<std::_Facet_base * &>
_TEXT	ENDS
; Function compile flags: /Odtp /RTCsu
; File c:\program files (x86)\microsoft visual studio\2017\community\vc\tools\msvc\14.15.26726\include\xutility
;	COMDAT ??$?0AAPAV_Facet_base@std@@@?$_Compressed_pair@U?$default_delete@V_Facet_base@std@@@std@@PAV_Facet_base@2@$00@std@@QAE@U_Zero_then_variadic_args_t@1@AAPAV_Facet_base@1@@Z
_TEXT	SEGMENT
_this$ = -4						; size = 4
___formal$ = 8						; size = 1
_<_Val2_0>$ = 12					; size = 4
??$?0AAPAV_Facet_base@std@@@?$_Compressed_pair@U?$default_delete@V_Facet_base@std@@@std@@PAV_Facet_base@2@$00@std@@QAE@U_Zero_then_variadic_args_t@1@AAPAV_Facet_base@1@@Z PROC ; std::_Compressed_pair<std::default_delete<std::_Facet_base>,std::_Facet_base *,1>::_Compressed_pair<std::default_delete<std::_Facet_base>,std::_Facet_base *,1><std::_Facet_base * &>, COMDAT
; _this$ = ecx

; 278  : 		{	// construct from forwarded values

	push	ebp
	mov	ebp, esp
	push	ecx
	mov	DWORD PTR [ebp-4], -858993460		; ccccccccH
	mov	DWORD PTR _this$[ebp], ecx

; 277  : 		: _Ty1(), _Myval2(_STD forward<_Other2>(_Val2)...)

	mov	eax, DWORD PTR _<_Val2_0>$[ebp]
	push	eax
	call	??$forward@AAPAV_Facet_base@std@@@std@@YAAAPAV_Facet_base@0@AAPAV10@@Z ; std::forward<std::_Facet_base * &>
	add	esp, 4
	mov	ecx, DWORD PTR _this$[ebp]
	mov	edx, DWORD PTR [eax]
	mov	DWORD PTR [ecx], edx

; 279  : 		}

	mov	eax, DWORD PTR _this$[ebp]
	add	esp, 4
	cmp	ebp, esp
	call	__RTC_CheckEsp
	mov	esp, ebp
	pop	ebp
	ret	8
??$?0AAPAV_Facet_base@std@@@?$_Compressed_pair@U?$default_delete@V_Facet_base@std@@@std@@PAV_Facet_base@2@$00@std@@QAE@U_Zero_then_variadic_args_t@1@AAPAV_Facet_base@1@@Z ENDP ; std::_Compressed_pair<std::default_delete<std::_Facet_base>,std::_Facet_base *,1>::_Compressed_pair<std::default_delete<std::_Facet_base>,std::_Facet_base *,1><std::_Facet_base * &>
_TEXT	ENDS
; Function compile flags: /Odtp /RTCsu
; File c:\program files (x86)\microsoft visual studio\2017\community\vc\tools\msvc\14.15.26726\include\xlocnum
;	COMDAT ??__E?id@?$numpunct@D@std@@2V0locale@2@A@@YAXXZ
text$di	SEGMENT
??__E?id@?$numpunct@D@std@@2V0locale@2@A@@YAXXZ PROC	; `dynamic initializer for 'std::numpunct<char>::id'', COMDAT

; 297  : 	__PURE_APPDOMAIN_GLOBAL locale::id numpunct<_Elem>::id;

	push	ebp
	mov	ebp, esp
	push	0
	mov	ecx, OFFSET ?id@?$numpunct@D@std@@2V0locale@2@A ; std::numpunct<char>::id
	call	??0id@locale@std@@QAE@I@Z		; std::locale::id::id
	cmp	ebp, esp
	call	__RTC_CheckEsp
	pop	ebp
	ret	0
??__E?id@?$numpunct@D@std@@2V0locale@2@A@@YAXXZ ENDP	; `dynamic initializer for 'std::numpunct<char>::id''
text$di	ENDS
; Function compile flags: /Odtp /RTCsu
; File c:\program files (x86)\microsoft visual studio\2017\community\vc\tools\msvc\14.15.26726\include\xlocnum
;	COMDAT ??__E?id@?$num_put@DV?$ostreambuf_iterator@DU?$char_traits@D@std@@@std@@@std@@2V0locale@2@A@@YAXXZ
text$di	SEGMENT
??__E?id@?$num_put@DV?$ostreambuf_iterator@DU?$char_traits@D@std@@@std@@@std@@2V0locale@2@A@@YAXXZ PROC ; `dynamic initializer for 'std::num_put<char,std::ostreambuf_iterator<char,std::char_traits<char> > >::id'', COMDAT

; 1843 : 	__PURE_APPDOMAIN_GLOBAL locale::id num_put<_Elem, _OutIt>::id;

	push	ebp
	mov	ebp, esp
	push	0
	mov	ecx, OFFSET ?id@?$num_put@DV?$ostreambuf_iterator@DU?$char_traits@D@std@@@std@@@std@@2V0locale@2@A ; std::num_put<char,std::ostreambuf_iterator<char,std::char_traits<char> > >::id
	call	??0id@locale@std@@QAE@I@Z		; std::locale::id::id
	cmp	ebp, esp
	call	__RTC_CheckEsp
	pop	ebp
	ret	0
??__E?id@?$num_put@DV?$ostreambuf_iterator@DU?$char_traits@D@std@@@std@@@std@@2V0locale@2@A@@YAXXZ ENDP ; `dynamic initializer for 'std::num_put<char,std::ostreambuf_iterator<char,std::char_traits<char> > >::id''
text$di	ENDS
; Function compile flags: /Odtp /RTCsu
; File c:\program files (x86)\microsoft visual studio\2017\community\vc\tools\msvc\14.15.26726\include\xlocnum
;	COMDAT ??$_Getvals@D@?$numpunct@D@std@@IAEXDPBUlconv@@U_Cvtvec@@@Z
_TEXT	SEGMENT
_this$ = -4						; size = 4
___formal$ = 8						; size = 1
__Ptr$ = 12						; size = 4
__Cvt$ = 16						; size = 44
??$_Getvals@D@?$numpunct@D@std@@IAEXDPBUlconv@@U_Cvtvec@@@Z PROC ; std::numpunct<char>::_Getvals<char>, COMDAT
; _this$ = ecx

; 188  : 		{	// get values

	push	ebp
	mov	ebp, esp
	push	ecx
	mov	DWORD PTR [ebp-4], -858993460		; ccccccccH
	mov	DWORD PTR _this$[ebp], ecx

; 189  : 		_Dp = _Maklocchr(_Ptr->decimal_point[0], static_cast<_Elem2 *>(nullptr), _Cvt);

	lea	eax, DWORD PTR __Cvt$[ebp]
	push	eax
	push	0
	mov	ecx, 1
	imul	edx, ecx, 0
	mov	eax, DWORD PTR __Ptr$[ebp]
	mov	ecx, DWORD PTR [eax]
	movzx	edx, BYTE PTR [ecx+edx]
	push	edx
	call	??$_Maklocchr@D@std@@YADDPADABU_Cvtvec@@@Z ; std::_Maklocchr<char>
	add	esp, 12					; 0000000cH
	mov	ecx, DWORD PTR _this$[ebp]
	mov	BYTE PTR [ecx+12], al

; 190  : 		_Kseparator = _Maklocchr(_Ptr->thousands_sep[0], static_cast<_Elem2 *>(nullptr), _Cvt);

	lea	edx, DWORD PTR __Cvt$[ebp]
	push	edx
	push	0
	mov	eax, 1
	imul	ecx, eax, 0
	mov	edx, DWORD PTR __Ptr$[ebp]
	mov	eax, DWORD PTR [edx+4]
	movzx	ecx, BYTE PTR [eax+ecx]
	push	ecx
	call	??$_Maklocchr@D@std@@YADDPADABU_Cvtvec@@@Z ; std::_Maklocchr<char>
	add	esp, 12					; 0000000cH
	mov	edx, DWORD PTR _this$[ebp]
	mov	BYTE PTR [edx+13], al

; 191  : 		}

	add	esp, 4
	cmp	ebp, esp
	call	__RTC_CheckEsp
	mov	esp, ebp
	pop	ebp
	ret	52					; 00000034H
??$_Getvals@D@?$numpunct@D@std@@IAEXDPBUlconv@@U_Cvtvec@@@Z ENDP ; std::numpunct<char>::_Getvals<char>
_TEXT	ENDS
; Function compile flags: /Odtp /RTCsu
; File c:\program files (x86)\microsoft visual studio\2017\community\vc\tools\msvc\14.15.26726\include\xlocale
;	COMDAT ??$_Maklocchr@D@std@@YADDPADABU_Cvtvec@@@Z
_TEXT	SEGMENT
__Byte$ = 8						; size = 1
___formal$ = 12						; size = 4
___formal$ = 16						; size = 4
??$_Maklocchr@D@std@@YADDPADABU_Cvtvec@@@Z PROC		; std::_Maklocchr<char>, COMDAT

; 634  : 	{	// convert char to _Elem using _Cvtvec

	push	ebp
	mov	ebp, esp

; 635  : 	return ((_Elem)(unsigned char)_Byte);

	mov	al, BYTE PTR __Byte$[ebp]

; 636  : 	}

	pop	ebp
	ret	0
??$_Maklocchr@D@std@@YADDPADABU_Cvtvec@@@Z ENDP		; std::_Maklocchr<char>
_TEXT	ENDS
; Function compile flags: /Odtp /RTCsu
; File c:\program files (x86)\microsoft visual studio\2017\community\vc\tools\msvc\14.15.26726\include\xlocale
;	COMDAT ??$_Maklocstr@D@std@@YAPADPBDPADABU_Cvtvec@@@Z
_TEXT	SEGMENT
__Ptrnext$1 = -12					; size = 4
__Ptrdest$ = -8						; size = 4
__Count$ = -4						; size = 4
__Ptr$ = 8						; size = 4
___formal$ = 12						; size = 4
___formal$ = 16						; size = 4
??$_Maklocstr@D@std@@YAPADPBDPADABU_Cvtvec@@@Z PROC	; std::_Maklocstr<char>, COMDAT

; 664  : 	{	// convert C string to _Elem sequence using _Cvtvec

	push	ebp
	mov	ebp, esp
	sub	esp, 12					; 0000000cH
	mov	DWORD PTR [ebp-12], -858993460		; ccccccccH
	mov	DWORD PTR [ebp-8], -858993460		; ccccccccH
	mov	DWORD PTR [ebp-4], -858993460		; ccccccccH

; 665  : 	size_t _Count = _CSTD strlen(_Ptr) + 1;

	mov	eax, DWORD PTR __Ptr$[ebp]
	push	eax
	call	_strlen
	add	esp, 4
	add	eax, 1
	mov	DWORD PTR __Count$[ebp], eax

; 666  : 
; 667  : 	_Elem *_Ptrdest = (_Elem *)_calloc_dbg(_Count, sizeof (_Elem),

	push	668					; 0000029cH
	push	OFFSET ??_C@_0GI@HIGMNFHO@c?3?2program?5files?5?$CIx86?$CJ?2microsof@
	push	2
	push	1
	mov	ecx, DWORD PTR __Count$[ebp]
	push	ecx
	call	__calloc_dbg
	add	esp, 20					; 00000014H
	mov	DWORD PTR __Ptrdest$[ebp], eax

; 668  : 		_CRT_BLOCK, __FILE__, __LINE__);
; 669  : 
; 670  : 	if (!_Ptrdest)

	cmp	DWORD PTR __Ptrdest$[ebp], 0
	jne	SHORT $LN5@Maklocstr

; 671  : 		_Xbad_alloc();

	call	?_Xbad_alloc@std@@YAXXZ			; std::_Xbad_alloc
$LN5@Maklocstr:

; 672  : 
; 673  : 	for (_Elem *_Ptrnext = _Ptrdest; 0 < _Count; --_Count, ++_Ptrnext, ++_Ptr)

	mov	edx, DWORD PTR __Ptrdest$[ebp]
	mov	DWORD PTR __Ptrnext$1[ebp], edx
	jmp	SHORT $LN4@Maklocstr
$LN2@Maklocstr:
	mov	eax, DWORD PTR __Count$[ebp]
	sub	eax, 1
	mov	DWORD PTR __Count$[ebp], eax
	mov	ecx, DWORD PTR __Ptrnext$1[ebp]
	add	ecx, 1
	mov	DWORD PTR __Ptrnext$1[ebp], ecx
	mov	edx, DWORD PTR __Ptr$[ebp]
	add	edx, 1
	mov	DWORD PTR __Ptr$[ebp], edx
$LN4@Maklocstr:
	cmp	DWORD PTR __Count$[ebp], 0
	jbe	SHORT $LN3@Maklocstr

; 674  : 		*_Ptrnext = (_Elem)(unsigned char)*_Ptr;

	mov	eax, DWORD PTR __Ptrnext$1[ebp]
	mov	ecx, DWORD PTR __Ptr$[ebp]
	mov	dl, BYTE PTR [ecx]
	mov	BYTE PTR [eax], dl
	jmp	SHORT $LN2@Maklocstr
$LN3@Maklocstr:

; 675  : 
; 676  : 	return (_Ptrdest);

	mov	eax, DWORD PTR __Ptrdest$[ebp]
$LN6@Maklocstr:

; 677  : 	}

	add	esp, 12					; 0000000cH
	cmp	ebp, esp
	call	__RTC_CheckEsp
	mov	esp, ebp
	pop	ebp
	ret	0
??$_Maklocstr@D@std@@YAPADPBDPADABU_Cvtvec@@@Z ENDP	; std::_Maklocstr<char>
_TEXT	ENDS
; Function compile flags: /Odtp /RTCsu
; File c:\program files (x86)\microsoft visual studio\2017\community\vc\tools\msvc\14.15.26726\include\xmemory0
;	COMDAT ??$_Pocma@V?$allocator@D@std@@@std@@YAXAAV?$allocator@D@0@0U?$integral_constant@_N$00@0@@Z
_TEXT	SEGMENT
__Left$ = 8						; size = 4
__Right$ = 12						; size = 4
___formal$ = 16						; size = 1
??$_Pocma@V?$allocator@D@std@@@std@@YAXAAV?$allocator@D@0@0U?$integral_constant@_N$00@0@@Z PROC ; std::_Pocma<std::allocator<char> >, COMDAT

; 1088 : 	{	// propagate on container move assignment

	push	ebp
	mov	ebp, esp

; 1089 : 	_Left = _STD move(_Right);

	mov	eax, DWORD PTR __Right$[ebp]
	push	eax
	call	??$move@AAV?$allocator@D@std@@@std@@YA$$QAV?$allocator@D@0@AAV10@@Z ; std::move<std::allocator<char> &>
	add	esp, 4

; 1090 : 	}

	cmp	ebp, esp
	call	__RTC_CheckEsp
	pop	ebp
	ret	0
??$_Pocma@V?$allocator@D@std@@@std@@YAXAAV?$allocator@D@0@0U?$integral_constant@_N$00@0@@Z ENDP ; std::_Pocma<std::allocator<char> >
_TEXT	ENDS
; Function compile flags: /Odtp /RTCsu
; File c:\program files (x86)\microsoft visual studio\2017\community\vc\tools\msvc\14.15.26726\include\xutility
;	COMDAT ??$?0ABV?$allocator@D@std@@$$V@?$_Compressed_pair@V?$allocator@D@std@@V?$_String_val@U?$_Simple_types@D@std@@@2@$00@std@@QAE@U_One_then_variadic_args_t@1@ABV?$allocator@D@1@@Z
_TEXT	SEGMENT
_this$ = -4						; size = 4
___formal$ = 8						; size = 1
__Val1$ = 12						; size = 4
??$?0ABV?$allocator@D@std@@$$V@?$_Compressed_pair@V?$allocator@D@std@@V?$_String_val@U?$_Simple_types@D@std@@@2@$00@std@@QAE@U_One_then_variadic_args_t@1@ABV?$allocator@D@1@@Z PROC ; std::_Compressed_pair<std::allocator<char>,std::_String_val<std::_Simple_types<char> >,1>::_Compressed_pair<std::allocator<char>,std::_String_val<std::_Simple_types<char> >,1><std::allocator<char> const &>, COMDAT
; _this$ = ecx

; 287  : 		{	// construct from forwarded values

	push	ebp
	mov	ebp, esp
	push	ecx
	mov	DWORD PTR [ebp-4], -858993460		; ccccccccH
	mov	DWORD PTR _this$[ebp], ecx

; 285  : 		: _Ty1(_STD forward<_Other1>(_Val1)),

	mov	eax, DWORD PTR __Val1$[ebp]
	push	eax
	call	??$forward@ABV?$allocator@D@std@@@std@@YAABV?$allocator@D@0@ABV10@@Z ; std::forward<std::allocator<char> const &>
	add	esp, 4

; 286  : 			_Myval2(_STD forward<_Other2>(_Val2)...)

	mov	ecx, DWORD PTR _this$[ebp]
	call	??0?$_String_val@U?$_Simple_types@D@std@@@std@@QAE@XZ ; std::_String_val<std::_Simple_types<char> >::_String_val<std::_Simple_types<char> >

; 288  : 		}

	mov	eax, DWORD PTR _this$[ebp]
	add	esp, 4
	cmp	ebp, esp
	call	__RTC_CheckEsp
	mov	esp, ebp
	pop	ebp
	ret	8
??$?0ABV?$allocator@D@std@@$$V@?$_Compressed_pair@V?$allocator@D@std@@V?$_String_val@U?$_Simple_types@D@std@@@2@$00@std@@QAE@U_One_then_variadic_args_t@1@ABV?$allocator@D@1@@Z ENDP ; std::_Compressed_pair<std::allocator<char>,std::_String_val<std::_Simple_types<char> >,1>::_Compressed_pair<std::allocator<char>,std::_String_val<std::_Simple_types<char> >,1><std::allocator<char> const &>
_TEXT	ENDS
; Function compile flags: /Odtp /RTCsu
; File c:\program files (x86)\microsoft visual studio\2017\community\vc\tools\msvc\14.15.26726\include\type_traits
;	COMDAT ??$forward@ABV?$allocator@D@std@@@std@@YAABV?$allocator@D@0@ABV10@@Z
_TEXT	SEGMENT
__Arg$ = 8						; size = 4
??$forward@ABV?$allocator@D@std@@@std@@YAABV?$allocator@D@0@ABV10@@Z PROC ; std::forward<std::allocator<char> const &>, COMDAT

; 1573 : 	{	// forward an lvalue as either an lvalue or an rvalue

	push	ebp
	mov	ebp, esp

; 1574 : 	return (static_cast<_Ty&&>(_Arg));

	mov	eax, DWORD PTR __Arg$[ebp]

; 1575 : 	}

	pop	ebp
	ret	0
??$forward@ABV?$allocator@D@std@@@std@@YAABV?$allocator@D@0@ABV10@@Z ENDP ; std::forward<std::allocator<char> const &>
_TEXT	ENDS
; Function compile flags: /Odtp /RTCsu
; File c:\program files (x86)\microsoft visual studio\2017\community\vc\tools\msvc\14.15.26726\include\memory
;	COMDAT ??$?0PAV_Facet_base@std@@@?$_Unique_ptr_base@V_Facet_base@std@@U?$default_delete@V_Facet_base@std@@@2@@std@@QAE@PAV_Facet_base@1@@Z
_TEXT	SEGMENT
$T1 = -5						; size = 1
_this$ = -4						; size = 4
__Ptr$ = 8						; size = 4
??$?0PAV_Facet_base@std@@@?$_Unique_ptr_base@V_Facet_base@std@@U?$default_delete@V_Facet_base@std@@@2@@std@@QAE@PAV_Facet_base@1@@Z PROC ; std::_Unique_ptr_base<std::_Facet_base,std::default_delete<std::_Facet_base> >::_Unique_ptr_base<std::_Facet_base,std::default_delete<std::_Facet_base> ><std::_Facet_base *>, COMDAT
; _this$ = ecx

; 2144 : 		{	// construct with compatible pointer

	push	ebp
	mov	ebp, esp
	sub	esp, 8
	mov	DWORD PTR [ebp-8], -858993460		; ccccccccH
	mov	DWORD PTR [ebp-4], -858993460		; ccccccccH
	mov	DWORD PTR _this$[ebp], ecx

; 2143 : 		: _Mypair(_Zero_then_variadic_args_t(), _Ptr)

	lea	eax, DWORD PTR __Ptr$[ebp]
	push	eax
	movzx	ecx, BYTE PTR $T1[ebp]
	push	ecx
	mov	ecx, DWORD PTR _this$[ebp]
	call	??$?0AAPAV_Facet_base@std@@@?$_Compressed_pair@U?$default_delete@V_Facet_base@std@@@std@@PAV_Facet_base@2@$00@std@@QAE@U_Zero_then_variadic_args_t@1@AAPAV_Facet_base@1@@Z ; std::_Compressed_pair<std::default_delete<std::_Facet_base>,std::_Facet_base *,1>::_Compressed_pair<std::default_delete<std::_Facet_base>,std::_Facet_base *,1><std::_Facet_base * &>

; 2145 : 		}

	mov	eax, DWORD PTR _this$[ebp]
	add	esp, 8
	cmp	ebp, esp
	call	__RTC_CheckEsp
	mov	esp, ebp
	pop	ebp
	ret	4
??$?0PAV_Facet_base@std@@@?$_Unique_ptr_base@V_Facet_base@std@@U?$default_delete@V_Facet_base@std@@@2@@std@@QAE@PAV_Facet_base@1@@Z ENDP ; std::_Unique_ptr_base<std::_Facet_base,std::default_delete<std::_Facet_base> >::_Unique_ptr_base<std::_Facet_base,std::default_delete<std::_Facet_base> ><std::_Facet_base *>
_TEXT	ENDS
; Function compile flags: /Odtp /RTCsu
; File c:\program files (x86)\microsoft visual studio\2017\community\vc\tools\msvc\14.15.26726\include\xmemory0
;	COMDAT ??$_Pocma@V?$allocator@D@std@@@std@@YAXAAV?$allocator@D@0@0@Z
_TEXT	SEGMENT
__Tag$ = -5						; size = 1
__Left$ = 8						; size = 4
__Right$ = 12						; size = 4
??$_Pocma@V?$allocator@D@std@@@std@@YAXAAV?$allocator@D@0@0@Z PROC ; std::_Pocma<std::allocator<char> >, COMDAT

; 1099 : 	{	// (maybe) propagate on container move assignment

	push	ebp
	mov	ebp, esp
	sub	esp, 12					; 0000000cH
	mov	DWORD PTR [ebp-12], -858993460		; ccccccccH
	mov	DWORD PTR [ebp-8], -858993460		; ccccccccH
	mov	DWORD PTR [ebp-4], -858993460		; ccccccccH

; 1100 : 	typename allocator_traits<_Alloc>::propagate_on_container_move_assignment _Tag;
; 1101 : 	_Pocma(_Left, _Right, _Tag);

	movzx	eax, BYTE PTR __Tag$[ebp]
	push	eax
	mov	ecx, DWORD PTR __Right$[ebp]
	push	ecx
	mov	edx, DWORD PTR __Left$[ebp]
	push	edx
	call	??$_Pocma@V?$allocator@D@std@@@std@@YAXAAV?$allocator@D@0@0U?$integral_constant@_N$00@0@@Z ; std::_Pocma<std::allocator<char> >
	add	esp, 12					; 0000000cH

; 1102 : 	}

	push	edx
	mov	ecx, ebp
	push	eax
	lea	edx, DWORD PTR $LN5@Pocma
	call	@_RTC_CheckStackVars@8
	pop	eax
	pop	edx
	add	esp, 12					; 0000000cH
	cmp	ebp, esp
	call	__RTC_CheckEsp
	mov	esp, ebp
	pop	ebp
	ret	0
	npad	1
$LN5@Pocma:
	DD	1
	DD	$LN4@Pocma
$LN4@Pocma:
	DD	-5					; fffffffbH
	DD	1
	DD	$LN3@Pocma
$LN3@Pocma:
	DB	95					; 0000005fH
	DB	84					; 00000054H
	DB	97					; 00000061H
	DB	103					; 00000067H
	DB	0
??$_Pocma@V?$allocator@D@std@@@std@@YAXAAV?$allocator@D@0@0@Z ENDP ; std::_Pocma<std::allocator<char> >
_TEXT	ENDS
; Function compile flags: /Odtp /RTCsu
; File c:\program files (x86)\microsoft visual studio\2017\community\vc\tools\msvc\14.15.26726\include\xmemory0
;	COMDAT ??$?9DD@std@@YA_NABV?$allocator@D@0@0@Z
_TEXT	SEGMENT
___formal$ = 8						; size = 4
___formal$ = 12						; size = 4
??$?9DD@std@@YA_NABV?$allocator@D@0@0@Z PROC		; std::operator!=<char,char>, COMDAT

; 1054 : 	{	// test for allocator inequality

	push	ebp
	mov	ebp, esp

; 1055 : 	return (false);

	xor	al, al

; 1056 : 	}

	pop	ebp
	ret	0
??$?9DD@std@@YA_NABV?$allocator@D@0@0@Z ENDP		; std::operator!=<char,char>
_TEXT	ENDS
; Function compile flags: /Odtp /RTCsu
; File c:\program files (x86)\microsoft visual studio\2017\community\vc\tools\msvc\14.15.26726\include\xstddef
;	COMDAT ??$addressof@V?$basic_string@DU?$char_traits@D@std@@V?$allocator@D@2@@std@@@std@@YAPAV?$basic_string@DU?$char_traits@D@std@@V?$allocator@D@2@@0@AAV10@@Z
_TEXT	SEGMENT
__Val$ = 8						; size = 4
??$addressof@V?$basic_string@DU?$char_traits@D@std@@V?$allocator@D@2@@std@@@std@@YAPAV?$basic_string@DU?$char_traits@D@std@@V?$allocator@D@2@@0@AAV10@@Z PROC ; std::addressof<std::basic_string<char,std::char_traits<char>,std::allocator<char> > >, COMDAT

; 329  : 	{	// return address of _Val

	push	ebp
	mov	ebp, esp

; 330  : 	return (__builtin_addressof(_Val));

	mov	eax, DWORD PTR __Val$[ebp]

; 331  : 	}

	pop	ebp
	ret	0
??$addressof@V?$basic_string@DU?$char_traits@D@std@@V?$allocator@D@2@@std@@@std@@YAPAV?$basic_string@DU?$char_traits@D@std@@V?$allocator@D@2@@0@AAV10@@Z ENDP ; std::addressof<std::basic_string<char,std::char_traits<char>,std::allocator<char> > >
_TEXT	ENDS
; Function compile flags: /Odtp /RTCsu
; File c:\program files (x86)\microsoft visual studio\2017\community\vc\tools\msvc\14.15.26726\include\xstring
;	COMDAT ??$_Reallocate_grow_by@V<lambda_6607a66f2a10a1261ff9db96cba1015b>@@IID@?$basic_string@DU?$char_traits@D@std@@V?$allocator@D@2@@std@@QAEAAV01@IV<lambda_6607a66f2a10a1261ff9db96cba1015b>@@IID@Z
_TEXT	SEGMENT
__Old_ptr$1 = -48					; size = 4
__Raw_new$ = -44					; size = 4
__New_ptr$ = -36					; size = 4
__Al$ = -28						; size = 4
__New_capacity$ = -24					; size = 4
__Old_capacity$ = -20					; size = 4
__New_size$ = -16					; size = 4
__Old_size$ = -12					; size = 4
__My_data$ = -8						; size = 4
_this$ = -4						; size = 4
__Size_increase$ = 8					; size = 4
__Fn$ = 12						; size = 1
_<_Args_0>$ = 16					; size = 4
_<_Args_1>$ = 20					; size = 4
_<_Args_2>$ = 24					; size = 1
??$_Reallocate_grow_by@V<lambda_6607a66f2a10a1261ff9db96cba1015b>@@IID@?$basic_string@DU?$char_traits@D@std@@V?$allocator@D@2@@std@@QAEAAV01@IV<lambda_6607a66f2a10a1261ff9db96cba1015b>@@IID@Z PROC ; std::basic_string<char,std::char_traits<char>,std::allocator<char> >::_Reallocate_grow_by<<lambda_6607a66f2a10a1261ff9db96cba1015b>,unsigned int,unsigned int,char>, COMDAT
; _this$ = ecx

; 3919 : 		{	// reallocate to increase size by _Size_increase elements, new buffer prepared by

	push	ebp
	mov	ebp, esp
	sub	esp, 48					; 00000030H
	push	edi
	push	ecx
	lea	edi, DWORD PTR [ebp-48]
	mov	ecx, 12					; 0000000cH
	mov	eax, -858993460				; ccccccccH
	rep stosd
	pop	ecx
	mov	DWORD PTR _this$[ebp], ecx

; 3920 : 			// _Fn(_New_ptr, _Old_ptr, _Old_size, _Args...)
; 3921 : 		auto& _My_data = this->_Get_data();

	mov	ecx, DWORD PTR _this$[ebp]
	call	?_Get_data@?$_String_alloc@U?$_String_base_types@DV?$allocator@D@std@@@std@@@std@@QAEAAV?$_String_val@U?$_Simple_types@D@std@@@2@XZ ; std::_String_alloc<std::_String_base_types<char,std::allocator<char> > >::_Get_data
	mov	DWORD PTR __My_data$[ebp], eax

; 3922 : 		const size_type _Old_size = _My_data._Mysize;

	mov	eax, DWORD PTR __My_data$[ebp]
	mov	ecx, DWORD PTR [eax+20]
	mov	DWORD PTR __Old_size$[ebp], ecx

; 3923 : 		if (max_size() - _Old_size < _Size_increase)

	mov	ecx, DWORD PTR _this$[ebp]
	call	?max_size@?$basic_string@DU?$char_traits@D@std@@V?$allocator@D@2@@std@@QBEIXZ ; std::basic_string<char,std::char_traits<char>,std::allocator<char> >::max_size
	sub	eax, DWORD PTR __Old_size$[ebp]
	cmp	eax, DWORD PTR __Size_increase$[ebp]
	jae	SHORT $LN2@Reallocate

; 3924 : 			{
; 3925 : 			_Xlen();	// result too long

	call	?_Xlen@?$basic_string@DU?$char_traits@D@std@@V?$allocator@D@2@@std@@SAXXZ ; std::basic_string<char,std::char_traits<char>,std::allocator<char> >::_Xlen
$LN2@Reallocate:

; 3926 : 			}
; 3927 : 
; 3928 : 		const size_type _New_size = _Old_size + _Size_increase;

	mov	edx, DWORD PTR __Old_size$[ebp]
	add	edx, DWORD PTR __Size_increase$[ebp]
	mov	DWORD PTR __New_size$[ebp], edx

; 3929 : 		const size_type _Old_capacity = _My_data._Myres;

	mov	eax, DWORD PTR __My_data$[ebp]
	mov	ecx, DWORD PTR [eax+24]
	mov	DWORD PTR __Old_capacity$[ebp], ecx

; 3930 : 		const size_type _New_capacity = _Calculate_growth(_New_size);

	mov	edx, DWORD PTR __New_size$[ebp]
	push	edx
	mov	ecx, DWORD PTR _this$[ebp]
	call	?_Calculate_growth@?$basic_string@DU?$char_traits@D@std@@V?$allocator@D@2@@std@@QBEII@Z ; std::basic_string<char,std::char_traits<char>,std::allocator<char> >::_Calculate_growth
	mov	DWORD PTR __New_capacity$[ebp], eax

; 3931 : 		auto& _Al = this->_Getal();

	mov	ecx, DWORD PTR _this$[ebp]
	call	?_Getal@?$_String_alloc@U?$_String_base_types@DV?$allocator@D@std@@@std@@@std@@QAEAAV?$allocator@D@2@XZ ; std::_String_alloc<std::_String_base_types<char,std::allocator<char> > >::_Getal
	mov	DWORD PTR __Al$[ebp], eax

; 3932 : 		const pointer _New_ptr = _Al.allocate(_New_capacity + 1); // throws

	mov	eax, DWORD PTR __New_capacity$[ebp]
	add	eax, 1
	push	eax
	mov	ecx, DWORD PTR __Al$[ebp]
	call	?allocate@?$allocator@D@std@@QAEPADI@Z	; std::allocator<char>::allocate
	mov	DWORD PTR __New_ptr$[ebp], eax

; 3933 : 		_My_data._Orphan_all();

	mov	ecx, DWORD PTR __My_data$[ebp]
	call	?_Orphan_all@_Container_base12@std@@QAEXXZ ; std::_Container_base12::_Orphan_all

; 3934 : 		_My_data._Mysize = _New_size;

	mov	ecx, DWORD PTR __My_data$[ebp]
	mov	edx, DWORD PTR __New_size$[ebp]
	mov	DWORD PTR [ecx+20], edx

; 3935 : 		_My_data._Myres = _New_capacity;

	mov	eax, DWORD PTR __My_data$[ebp]
	mov	ecx, DWORD PTR __New_capacity$[ebp]
	mov	DWORD PTR [eax+24], ecx

; 3936 : 		_Elem * const _Raw_new = _Unfancy(_New_ptr);

	mov	edx, DWORD PTR __New_ptr$[ebp]
	push	edx
	call	??$_Unfancy@D@std@@YAPADPAD@Z		; std::_Unfancy<char>
	add	esp, 4
	mov	DWORD PTR __Raw_new$[ebp], eax

; 3937 : 		if (this->_BUF_SIZE <= _Old_capacity)

	cmp	DWORD PTR __Old_capacity$[ebp], 16	; 00000010H
	jb	SHORT $LN3@Reallocate

; 3938 : 			{
; 3939 : 			const pointer _Old_ptr = _My_data._Bx._Ptr;

	mov	eax, DWORD PTR __My_data$[ebp]
	mov	ecx, DWORD PTR [eax+4]
	mov	DWORD PTR __Old_ptr$1[ebp], ecx

; 3940 : 			_Fn(_Raw_new, _Unfancy(_Old_ptr), _Old_size, _Args...);

	movzx	edx, BYTE PTR _<_Args_2>$[ebp]
	push	edx
	mov	eax, DWORD PTR _<_Args_1>$[ebp]
	push	eax
	mov	ecx, DWORD PTR _<_Args_0>$[ebp]
	push	ecx
	mov	edx, DWORD PTR __Old_size$[ebp]
	push	edx
	mov	eax, DWORD PTR __Old_ptr$1[ebp]
	push	eax
	call	??$_Unfancy@D@std@@YAPADPAD@Z		; std::_Unfancy<char>
	add	esp, 4
	push	eax
	mov	ecx, DWORD PTR __Raw_new$[ebp]
	push	ecx
	lea	ecx, DWORD PTR __Fn$[ebp]
	call	??R<lambda_6607a66f2a10a1261ff9db96cba1015b>@@QBE@QADQBDIIID@Z ; <lambda_6607a66f2a10a1261ff9db96cba1015b>::operator()

; 3941 : 			_Al.deallocate(_Old_ptr, _Old_capacity + 1);

	mov	edx, DWORD PTR __Old_capacity$[ebp]
	add	edx, 1
	push	edx
	mov	eax, DWORD PTR __Old_ptr$1[ebp]
	push	eax
	mov	ecx, DWORD PTR __Al$[ebp]
	call	?deallocate@?$allocator@D@std@@QAEXQADI@Z ; std::allocator<char>::deallocate

; 3942 : 			_My_data._Bx._Ptr = _New_ptr;

	mov	ecx, DWORD PTR __My_data$[ebp]
	mov	edx, DWORD PTR __New_ptr$[ebp]
	mov	DWORD PTR [ecx+4], edx

; 3943 : 			}
; 3944 : 		else

	jmp	SHORT $LN4@Reallocate
$LN3@Reallocate:

; 3945 : 			{
; 3946 : 			_Fn(_Raw_new, _My_data._Bx._Buf, _Old_size, _Args...);

	movzx	eax, BYTE PTR _<_Args_2>$[ebp]
	push	eax
	mov	ecx, DWORD PTR _<_Args_1>$[ebp]
	push	ecx
	mov	edx, DWORD PTR _<_Args_0>$[ebp]
	push	edx
	mov	eax, DWORD PTR __Old_size$[ebp]
	push	eax
	mov	ecx, DWORD PTR __My_data$[ebp]
	add	ecx, 4
	push	ecx
	mov	edx, DWORD PTR __Raw_new$[ebp]
	push	edx
	lea	ecx, DWORD PTR __Fn$[ebp]
	call	??R<lambda_6607a66f2a10a1261ff9db96cba1015b>@@QBE@QADQBDIIID@Z ; <lambda_6607a66f2a10a1261ff9db96cba1015b>::operator()

; 3947 : 			_Alty_traits::construct(_Al, _STD addressof(_My_data._Bx._Ptr), _New_ptr);

	lea	eax, DWORD PTR __New_ptr$[ebp]
	push	eax
	mov	ecx, DWORD PTR __My_data$[ebp]
	add	ecx, 4
	push	ecx
	call	??$addressof@PAD@std@@YAPAPADAAPAD@Z	; std::addressof<char *>
	add	esp, 4
	push	eax
	mov	edx, DWORD PTR __Al$[ebp]
	push	edx
	call	??$construct@PADABQAD@?$_Default_allocator_traits@V?$allocator@D@std@@@std@@SAXAAV?$allocator@D@1@QAPADABQAD@Z ; std::_Default_allocator_traits<std::allocator<char> >::construct<char *,char * const &>
	add	esp, 12					; 0000000cH
$LN4@Reallocate:

; 3948 : 			}
; 3949 : 
; 3950 : 		return (*this);

	mov	eax, DWORD PTR _this$[ebp]
$LN5@Reallocate:

; 3951 : 		}

	push	edx
	mov	ecx, ebp
	push	eax
	lea	edx, DWORD PTR $LN8@Reallocate
	call	@_RTC_CheckStackVars@8
	pop	eax
	pop	edx
	pop	edi
	add	esp, 48					; 00000030H
	cmp	ebp, esp
	call	__RTC_CheckEsp
	mov	esp, ebp
	pop	ebp
	ret	20					; 00000014H
	npad	1
$LN8@Reallocate:
	DD	1
	DD	$LN7@Reallocate
$LN7@Reallocate:
	DD	-36					; ffffffdcH
	DD	4
	DD	$LN6@Reallocate
$LN6@Reallocate:
	DB	95					; 0000005fH
	DB	78					; 0000004eH
	DB	101					; 00000065H
	DB	119					; 00000077H
	DB	95					; 0000005fH
	DB	112					; 00000070H
	DB	116					; 00000074H
	DB	114					; 00000072H
	DB	0
??$_Reallocate_grow_by@V<lambda_6607a66f2a10a1261ff9db96cba1015b>@@IID@?$basic_string@DU?$char_traits@D@std@@V?$allocator@D@2@@std@@QAEAAV01@IV<lambda_6607a66f2a10a1261ff9db96cba1015b>@@IID@Z ENDP ; std::basic_string<char,std::char_traits<char>,std::allocator<char> >::_Reallocate_grow_by<<lambda_6607a66f2a10a1261ff9db96cba1015b>,unsigned int,unsigned int,char>
_TEXT	ENDS
; Function compile flags: /Odtp /RTCsu
; File c:\program files (x86)\microsoft visual studio\2017\community\vc\tools\msvc\14.15.26726\include\xstring
;	COMDAT ??R<lambda_6607a66f2a10a1261ff9db96cba1015b>@@QBE@QADQBDIIID@Z
_TEXT	SEGMENT
_this$ = -4						; size = 4
__New_ptr$ = 8						; size = 4
__Old_ptr$ = 12						; size = 4
__Old_size$ = 16					; size = 4
__Off$ = 20						; size = 4
__Count$ = 24						; size = 4
__Ch$ = 28						; size = 1
??R<lambda_6607a66f2a10a1261ff9db96cba1015b>@@QBE@QADQBDIIID@Z PROC ; <lambda_6607a66f2a10a1261ff9db96cba1015b>::operator(), COMDAT
; _this$ = ecx

; 2802 : 				const size_type _Off, const size_type _Count, const _Elem _Ch) {

	push	ebp
	mov	ebp, esp
	push	ecx
	mov	DWORD PTR [ebp-4], -858993460		; ccccccccH
	mov	DWORD PTR _this$[ebp], ecx

; 2803 : 			_Traits::copy(_New_ptr, _Old_ptr, _Off);

	mov	eax, DWORD PTR __Off$[ebp]
	push	eax
	mov	ecx, DWORD PTR __Old_ptr$[ebp]
	push	ecx
	mov	edx, DWORD PTR __New_ptr$[ebp]
	push	edx
	call	?copy@?$char_traits@D@std@@SAPADQADQBDI@Z ; std::char_traits<char>::copy
	add	esp, 12					; 0000000cH

; 2804 : 			_Traits::assign(_New_ptr + _Off, _Count, _Ch);

	movzx	eax, BYTE PTR __Ch$[ebp]
	push	eax
	mov	ecx, DWORD PTR __Count$[ebp]
	push	ecx
	mov	edx, DWORD PTR __New_ptr$[ebp]
	add	edx, DWORD PTR __Off$[ebp]
	push	edx
	call	?assign@?$char_traits@D@std@@SAPADQADID@Z ; std::char_traits<char>::assign
	add	esp, 12					; 0000000cH

; 2805 : 			_Traits::copy(_New_ptr + _Off + _Count, _Old_ptr + _Off, _Old_size - _Off + 1);

	mov	eax, DWORD PTR __Old_size$[ebp]
	sub	eax, DWORD PTR __Off$[ebp]
	add	eax, 1
	push	eax
	mov	ecx, DWORD PTR __Old_ptr$[ebp]
	add	ecx, DWORD PTR __Off$[ebp]
	push	ecx
	mov	edx, DWORD PTR __New_ptr$[ebp]
	add	edx, DWORD PTR __Off$[ebp]
	add	edx, DWORD PTR __Count$[ebp]
	push	edx
	call	?copy@?$char_traits@D@std@@SAPADQADQBDI@Z ; std::char_traits<char>::copy
	add	esp, 12					; 0000000cH

; 2806 : 			}, _Off, _Count, _Ch));

	add	esp, 4
	cmp	ebp, esp
	call	__RTC_CheckEsp
	mov	esp, ebp
	pop	ebp
	ret	24					; 00000018H
??R<lambda_6607a66f2a10a1261ff9db96cba1015b>@@QBE@QADQBDIIID@Z ENDP ; <lambda_6607a66f2a10a1261ff9db96cba1015b>::operator()
_TEXT	ENDS
; Function compile flags: /Odtp /RTCsu
; File c:\program files (x86)\microsoft visual studio\2017\community\vc\tools\msvc\14.15.26726\include\xstring
;	COMDAT ??$?0ABV?$allocator@D@std@@X@?$_String_alloc@U?$_String_base_types@DV?$allocator@D@std@@@std@@@std@@QAE@ABV?$allocator@D@1@@Z
_TEXT	SEGMENT
$T2 = -17						; size = 1
_this$ = -16						; size = 4
__$EHRec$ = -12						; size = 12
__Al$ = 8						; size = 4
??$?0ABV?$allocator@D@std@@X@?$_String_alloc@U?$_String_base_types@DV?$allocator@D@std@@@std@@@std@@QAE@ABV?$allocator@D@1@@Z PROC ; std::_String_alloc<std::_String_base_types<char,std::allocator<char> > >::_String_alloc<std::_String_base_types<char,std::allocator<char> > ><std::allocator<char> const &,void>, COMDAT
; _this$ = ecx

; 1943 : 		{	// construct allocator from _Al

	push	ebp
	mov	ebp, esp
	push	-1
	push	__ehhandler$??$?0ABV?$allocator@D@std@@X@?$_String_alloc@U?$_String_base_types@DV?$allocator@D@std@@@std@@@std@@QAE@ABV?$allocator@D@1@@Z
	mov	eax, DWORD PTR fs:0
	push	eax
	sub	esp, 8
	mov	DWORD PTR [ebp-20], -858993460		; ccccccccH
	mov	DWORD PTR [ebp-16], -858993460		; ccccccccH
	mov	eax, DWORD PTR ___security_cookie
	xor	eax, ebp
	push	eax
	lea	eax, DWORD PTR __$EHRec$[ebp]
	mov	DWORD PTR fs:0, eax
	mov	DWORD PTR _this$[ebp], ecx

; 1941 : 		: _Mypair(_One_then_variadic_args_t(),

	mov	eax, DWORD PTR __Al$[ebp]
	push	eax
	call	??$forward@ABV?$allocator@D@std@@@std@@YAABV?$allocator@D@0@ABV10@@Z ; std::forward<std::allocator<char> const &>
	add	esp, 4
	push	eax
	movzx	ecx, BYTE PTR $T2[ebp]
	push	ecx
	mov	ecx, DWORD PTR _this$[ebp]
	call	??$?0ABV?$allocator@D@std@@$$V@?$_Compressed_pair@V?$allocator@D@std@@V?$_String_val@U?$_Simple_types@D@std@@@2@$00@std@@QAE@U_One_then_variadic_args_t@1@ABV?$allocator@D@1@@Z ; std::_Compressed_pair<std::allocator<char>,std::_String_val<std::_Simple_types<char> >,1>::_Compressed_pair<std::allocator<char>,std::_String_val<std::_Simple_types<char> >,1><std::allocator<char> const &>
	mov	DWORD PTR __$EHRec$[ebp+8], 0

; 1944 : 		_Alloc_proxy();

	mov	ecx, DWORD PTR _this$[ebp]
	call	?_Alloc_proxy@?$_String_alloc@U?$_String_base_types@DV?$allocator@D@std@@@std@@@std@@QAEXXZ ; std::_String_alloc<std::_String_base_types<char,std::allocator<char> > >::_Alloc_proxy

; 1945 : 		}

	mov	DWORD PTR __$EHRec$[ebp+8], -1
	mov	eax, DWORD PTR _this$[ebp]
	mov	ecx, DWORD PTR __$EHRec$[ebp]
	mov	DWORD PTR fs:0, ecx
	pop	ecx
	add	esp, 20					; 00000014H
	cmp	ebp, esp
	call	__RTC_CheckEsp
	mov	esp, ebp
	pop	ebp
	ret	4
_TEXT	ENDS
;	COMDAT text$x
text$x	SEGMENT
__unwindfunclet$??$?0ABV?$allocator@D@std@@X@?$_String_alloc@U?$_String_base_types@DV?$allocator@D@std@@@std@@@std@@QAE@ABV?$allocator@D@1@@Z$0:
	mov	ecx, DWORD PTR _this$[ebp]
	jmp	??1?$_Compressed_pair@V?$allocator@D@std@@V?$_String_val@U?$_Simple_types@D@std@@@2@$00@std@@QAE@XZ
__ehhandler$??$?0ABV?$allocator@D@std@@X@?$_String_alloc@U?$_String_base_types@DV?$allocator@D@std@@@std@@@std@@QAE@ABV?$allocator@D@1@@Z:
	mov	edx, DWORD PTR [esp+8]
	lea	eax, DWORD PTR [edx+12]
	mov	ecx, DWORD PTR [edx-12]
	xor	ecx, eax
	call	@__security_check_cookie@4
	mov	eax, OFFSET __ehfuncinfo$??$?0ABV?$allocator@D@std@@X@?$_String_alloc@U?$_String_base_types@DV?$allocator@D@std@@@std@@@std@@QAE@ABV?$allocator@D@1@@Z
	jmp	___CxxFrameHandler3
text$x	ENDS
??$?0ABV?$allocator@D@std@@X@?$_String_alloc@U?$_String_base_types@DV?$allocator@D@std@@@std@@@std@@QAE@ABV?$allocator@D@1@@Z ENDP ; std::_String_alloc<std::_String_base_types<char,std::allocator<char> > >::_String_alloc<std::_String_base_types<char,std::allocator<char> > ><std::allocator<char> const &,void>
; Function compile flags: /Odtp /RTCsu
; File c:\program files (x86)\microsoft visual studio\2017\community\vc\tools\msvc\14.15.26726\include\xstring
;	COMDAT ??$_Reallocate_grow_by@V<lambda_4d79bb85f269e6e8002a4599002d832c>@@IPBDI@?$basic_string@DU?$char_traits@D@std@@V?$allocator@D@2@@std@@QAEAAV01@IV<lambda_4d79bb85f269e6e8002a4599002d832c>@@IPBDI@Z
_TEXT	SEGMENT
__Old_ptr$1 = -48					; size = 4
__Raw_new$ = -44					; size = 4
__New_ptr$ = -36					; size = 4
__Al$ = -28						; size = 4
__New_capacity$ = -24					; size = 4
__Old_capacity$ = -20					; size = 4
__New_size$ = -16					; size = 4
__Old_size$ = -12					; size = 4
__My_data$ = -8						; size = 4
_this$ = -4						; size = 4
__Size_increase$ = 8					; size = 4
__Fn$ = 12						; size = 1
_<_Args_0>$ = 16					; size = 4
_<_Args_1>$ = 20					; size = 4
_<_Args_2>$ = 24					; size = 4
??$_Reallocate_grow_by@V<lambda_4d79bb85f269e6e8002a4599002d832c>@@IPBDI@?$basic_string@DU?$char_traits@D@std@@V?$allocator@D@2@@std@@QAEAAV01@IV<lambda_4d79bb85f269e6e8002a4599002d832c>@@IPBDI@Z PROC ; std::basic_string<char,std::char_traits<char>,std::allocator<char> >::_Reallocate_grow_by<<lambda_4d79bb85f269e6e8002a4599002d832c>,unsigned int,char const *,unsigned int>, COMDAT
; _this$ = ecx

; 3919 : 		{	// reallocate to increase size by _Size_increase elements, new buffer prepared by

	push	ebp
	mov	ebp, esp
	sub	esp, 48					; 00000030H
	push	edi
	push	ecx
	lea	edi, DWORD PTR [ebp-48]
	mov	ecx, 12					; 0000000cH
	mov	eax, -858993460				; ccccccccH
	rep stosd
	pop	ecx
	mov	DWORD PTR _this$[ebp], ecx

; 3920 : 			// _Fn(_New_ptr, _Old_ptr, _Old_size, _Args...)
; 3921 : 		auto& _My_data = this->_Get_data();

	mov	ecx, DWORD PTR _this$[ebp]
	call	?_Get_data@?$_String_alloc@U?$_String_base_types@DV?$allocator@D@std@@@std@@@std@@QAEAAV?$_String_val@U?$_Simple_types@D@std@@@2@XZ ; std::_String_alloc<std::_String_base_types<char,std::allocator<char> > >::_Get_data
	mov	DWORD PTR __My_data$[ebp], eax

; 3922 : 		const size_type _Old_size = _My_data._Mysize;

	mov	eax, DWORD PTR __My_data$[ebp]
	mov	ecx, DWORD PTR [eax+20]
	mov	DWORD PTR __Old_size$[ebp], ecx

; 3923 : 		if (max_size() - _Old_size < _Size_increase)

	mov	ecx, DWORD PTR _this$[ebp]
	call	?max_size@?$basic_string@DU?$char_traits@D@std@@V?$allocator@D@2@@std@@QBEIXZ ; std::basic_string<char,std::char_traits<char>,std::allocator<char> >::max_size
	sub	eax, DWORD PTR __Old_size$[ebp]
	cmp	eax, DWORD PTR __Size_increase$[ebp]
	jae	SHORT $LN2@Reallocate

; 3924 : 			{
; 3925 : 			_Xlen();	// result too long

	call	?_Xlen@?$basic_string@DU?$char_traits@D@std@@V?$allocator@D@2@@std@@SAXXZ ; std::basic_string<char,std::char_traits<char>,std::allocator<char> >::_Xlen
$LN2@Reallocate:

; 3926 : 			}
; 3927 : 
; 3928 : 		const size_type _New_size = _Old_size + _Size_increase;

	mov	edx, DWORD PTR __Old_size$[ebp]
	add	edx, DWORD PTR __Size_increase$[ebp]
	mov	DWORD PTR __New_size$[ebp], edx

; 3929 : 		const size_type _Old_capacity = _My_data._Myres;

	mov	eax, DWORD PTR __My_data$[ebp]
	mov	ecx, DWORD PTR [eax+24]
	mov	DWORD PTR __Old_capacity$[ebp], ecx

; 3930 : 		const size_type _New_capacity = _Calculate_growth(_New_size);

	mov	edx, DWORD PTR __New_size$[ebp]
	push	edx
	mov	ecx, DWORD PTR _this$[ebp]
	call	?_Calculate_growth@?$basic_string@DU?$char_traits@D@std@@V?$allocator@D@2@@std@@QBEII@Z ; std::basic_string<char,std::char_traits<char>,std::allocator<char> >::_Calculate_growth
	mov	DWORD PTR __New_capacity$[ebp], eax

; 3931 : 		auto& _Al = this->_Getal();

	mov	ecx, DWORD PTR _this$[ebp]
	call	?_Getal@?$_String_alloc@U?$_String_base_types@DV?$allocator@D@std@@@std@@@std@@QAEAAV?$allocator@D@2@XZ ; std::_String_alloc<std::_String_base_types<char,std::allocator<char> > >::_Getal
	mov	DWORD PTR __Al$[ebp], eax

; 3932 : 		const pointer _New_ptr = _Al.allocate(_New_capacity + 1); // throws

	mov	eax, DWORD PTR __New_capacity$[ebp]
	add	eax, 1
	push	eax
	mov	ecx, DWORD PTR __Al$[ebp]
	call	?allocate@?$allocator@D@std@@QAEPADI@Z	; std::allocator<char>::allocate
	mov	DWORD PTR __New_ptr$[ebp], eax

; 3933 : 		_My_data._Orphan_all();

	mov	ecx, DWORD PTR __My_data$[ebp]
	call	?_Orphan_all@_Container_base12@std@@QAEXXZ ; std::_Container_base12::_Orphan_all

; 3934 : 		_My_data._Mysize = _New_size;

	mov	ecx, DWORD PTR __My_data$[ebp]
	mov	edx, DWORD PTR __New_size$[ebp]
	mov	DWORD PTR [ecx+20], edx

; 3935 : 		_My_data._Myres = _New_capacity;

	mov	eax, DWORD PTR __My_data$[ebp]
	mov	ecx, DWORD PTR __New_capacity$[ebp]
	mov	DWORD PTR [eax+24], ecx

; 3936 : 		_Elem * const _Raw_new = _Unfancy(_New_ptr);

	mov	edx, DWORD PTR __New_ptr$[ebp]
	push	edx
	call	??$_Unfancy@D@std@@YAPADPAD@Z		; std::_Unfancy<char>
	add	esp, 4
	mov	DWORD PTR __Raw_new$[ebp], eax

; 3937 : 		if (this->_BUF_SIZE <= _Old_capacity)

	cmp	DWORD PTR __Old_capacity$[ebp], 16	; 00000010H
	jb	SHORT $LN3@Reallocate

; 3938 : 			{
; 3939 : 			const pointer _Old_ptr = _My_data._Bx._Ptr;

	mov	eax, DWORD PTR __My_data$[ebp]
	mov	ecx, DWORD PTR [eax+4]
	mov	DWORD PTR __Old_ptr$1[ebp], ecx

; 3940 : 			_Fn(_Raw_new, _Unfancy(_Old_ptr), _Old_size, _Args...);

	mov	edx, DWORD PTR _<_Args_2>$[ebp]
	push	edx
	mov	eax, DWORD PTR _<_Args_1>$[ebp]
	push	eax
	mov	ecx, DWORD PTR _<_Args_0>$[ebp]
	push	ecx
	mov	edx, DWORD PTR __Old_size$[ebp]
	push	edx
	mov	eax, DWORD PTR __Old_ptr$1[ebp]
	push	eax
	call	??$_Unfancy@D@std@@YAPADPAD@Z		; std::_Unfancy<char>
	add	esp, 4
	push	eax
	mov	ecx, DWORD PTR __Raw_new$[ebp]
	push	ecx
	lea	ecx, DWORD PTR __Fn$[ebp]
	call	??R<lambda_4d79bb85f269e6e8002a4599002d832c>@@QBE@QADQBDII1I@Z ; <lambda_4d79bb85f269e6e8002a4599002d832c>::operator()

; 3941 : 			_Al.deallocate(_Old_ptr, _Old_capacity + 1);

	mov	edx, DWORD PTR __Old_capacity$[ebp]
	add	edx, 1
	push	edx
	mov	eax, DWORD PTR __Old_ptr$1[ebp]
	push	eax
	mov	ecx, DWORD PTR __Al$[ebp]
	call	?deallocate@?$allocator@D@std@@QAEXQADI@Z ; std::allocator<char>::deallocate

; 3942 : 			_My_data._Bx._Ptr = _New_ptr;

	mov	ecx, DWORD PTR __My_data$[ebp]
	mov	edx, DWORD PTR __New_ptr$[ebp]
	mov	DWORD PTR [ecx+4], edx

; 3943 : 			}
; 3944 : 		else

	jmp	SHORT $LN4@Reallocate
$LN3@Reallocate:

; 3945 : 			{
; 3946 : 			_Fn(_Raw_new, _My_data._Bx._Buf, _Old_size, _Args...);

	mov	eax, DWORD PTR _<_Args_2>$[ebp]
	push	eax
	mov	ecx, DWORD PTR _<_Args_1>$[ebp]
	push	ecx
	mov	edx, DWORD PTR _<_Args_0>$[ebp]
	push	edx
	mov	eax, DWORD PTR __Old_size$[ebp]
	push	eax
	mov	ecx, DWORD PTR __My_data$[ebp]
	add	ecx, 4
	push	ecx
	mov	edx, DWORD PTR __Raw_new$[ebp]
	push	edx
	lea	ecx, DWORD PTR __Fn$[ebp]
	call	??R<lambda_4d79bb85f269e6e8002a4599002d832c>@@QBE@QADQBDII1I@Z ; <lambda_4d79bb85f269e6e8002a4599002d832c>::operator()

; 3947 : 			_Alty_traits::construct(_Al, _STD addressof(_My_data._Bx._Ptr), _New_ptr);

	lea	eax, DWORD PTR __New_ptr$[ebp]
	push	eax
	mov	ecx, DWORD PTR __My_data$[ebp]
	add	ecx, 4
	push	ecx
	call	??$addressof@PAD@std@@YAPAPADAAPAD@Z	; std::addressof<char *>
	add	esp, 4
	push	eax
	mov	edx, DWORD PTR __Al$[ebp]
	push	edx
	call	??$construct@PADABQAD@?$_Default_allocator_traits@V?$allocator@D@std@@@std@@SAXAAV?$allocator@D@1@QAPADABQAD@Z ; std::_Default_allocator_traits<std::allocator<char> >::construct<char *,char * const &>
	add	esp, 12					; 0000000cH
$LN4@Reallocate:

; 3948 : 			}
; 3949 : 
; 3950 : 		return (*this);

	mov	eax, DWORD PTR _this$[ebp]
$LN5@Reallocate:

; 3951 : 		}

	push	edx
	mov	ecx, ebp
	push	eax
	lea	edx, DWORD PTR $LN8@Reallocate
	call	@_RTC_CheckStackVars@8
	pop	eax
	pop	edx
	pop	edi
	add	esp, 48					; 00000030H
	cmp	ebp, esp
	call	__RTC_CheckEsp
	mov	esp, ebp
	pop	ebp
	ret	20					; 00000014H
	npad	3
$LN8@Reallocate:
	DD	1
	DD	$LN7@Reallocate
$LN7@Reallocate:
	DD	-36					; ffffffdcH
	DD	4
	DD	$LN6@Reallocate
$LN6@Reallocate:
	DB	95					; 0000005fH
	DB	78					; 0000004eH
	DB	101					; 00000065H
	DB	119					; 00000077H
	DB	95					; 0000005fH
	DB	112					; 00000070H
	DB	116					; 00000074H
	DB	114					; 00000072H
	DB	0
??$_Reallocate_grow_by@V<lambda_4d79bb85f269e6e8002a4599002d832c>@@IPBDI@?$basic_string@DU?$char_traits@D@std@@V?$allocator@D@2@@std@@QAEAAV01@IV<lambda_4d79bb85f269e6e8002a4599002d832c>@@IPBDI@Z ENDP ; std::basic_string<char,std::char_traits<char>,std::allocator<char> >::_Reallocate_grow_by<<lambda_4d79bb85f269e6e8002a4599002d832c>,unsigned int,char const *,unsigned int>
_TEXT	ENDS
; Function compile flags: /Odtp /RTCsu
; File c:\program files (x86)\microsoft visual studio\2017\community\vc\tools\msvc\14.15.26726\include\xstring
;	COMDAT ??R<lambda_4d79bb85f269e6e8002a4599002d832c>@@QBE@QADQBDII1I@Z
_TEXT	SEGMENT
_this$ = -4						; size = 4
__New_ptr$ = 8						; size = 4
__Old_ptr$ = 12						; size = 4
__Old_size$ = 16					; size = 4
__Off$ = 20						; size = 4
__Ptr$ = 24						; size = 4
__Count$ = 28						; size = 4
??R<lambda_4d79bb85f269e6e8002a4599002d832c>@@QBE@QADQBDII1I@Z PROC ; <lambda_4d79bb85f269e6e8002a4599002d832c>::operator(), COMDAT
; _this$ = ecx

; 2773 : 				const size_type _Off, const _Elem * const _Ptr, const size_type _Count) {

	push	ebp
	mov	ebp, esp
	push	ecx
	mov	DWORD PTR [ebp-4], -858993460		; ccccccccH
	mov	DWORD PTR _this$[ebp], ecx

; 2774 : 			_Traits::copy(_New_ptr, _Old_ptr, _Off);

	mov	eax, DWORD PTR __Off$[ebp]
	push	eax
	mov	ecx, DWORD PTR __Old_ptr$[ebp]
	push	ecx
	mov	edx, DWORD PTR __New_ptr$[ebp]
	push	edx
	call	?copy@?$char_traits@D@std@@SAPADQADQBDI@Z ; std::char_traits<char>::copy
	add	esp, 12					; 0000000cH

; 2775 : 			_Traits::copy(_New_ptr + _Off, _Ptr, _Count);

	mov	eax, DWORD PTR __Count$[ebp]
	push	eax
	mov	ecx, DWORD PTR __Ptr$[ebp]
	push	ecx
	mov	edx, DWORD PTR __New_ptr$[ebp]
	add	edx, DWORD PTR __Off$[ebp]
	push	edx
	call	?copy@?$char_traits@D@std@@SAPADQADQBDI@Z ; std::char_traits<char>::copy
	add	esp, 12					; 0000000cH

; 2776 : 			_Traits::copy(_New_ptr + _Off + _Count, _Old_ptr + _Off, _Old_size - _Off + 1);

	mov	eax, DWORD PTR __Old_size$[ebp]
	sub	eax, DWORD PTR __Off$[ebp]
	add	eax, 1
	push	eax
	mov	ecx, DWORD PTR __Old_ptr$[ebp]
	add	ecx, DWORD PTR __Off$[ebp]
	push	ecx
	mov	edx, DWORD PTR __New_ptr$[ebp]
	add	edx, DWORD PTR __Off$[ebp]
	add	edx, DWORD PTR __Count$[ebp]
	push	edx
	call	?copy@?$char_traits@D@std@@SAPADQADQBDI@Z ; std::char_traits<char>::copy
	add	esp, 12					; 0000000cH

; 2777 : 			}, _Off, _Ptr, _Count));

	add	esp, 4
	cmp	ebp, esp
	call	__RTC_CheckEsp
	mov	esp, ebp
	pop	ebp
	ret	24					; 00000018H
??R<lambda_4d79bb85f269e6e8002a4599002d832c>@@QBE@QADQBDII1I@Z ENDP ; <lambda_4d79bb85f269e6e8002a4599002d832c>::operator()
_TEXT	ENDS
; Function compile flags: /Odtp /RTCsu
;	COMDAT ??_G?$numpunct@D@std@@MAEPAXI@Z
_TEXT	SEGMENT
_this$ = -4						; size = 4
___flags$ = 8						; size = 4
??_G?$numpunct@D@std@@MAEPAXI@Z PROC			; std::numpunct<char>::`scalar deleting destructor', COMDAT
; _this$ = ecx
	push	ebp
	mov	ebp, esp
	push	ecx
	mov	DWORD PTR [ebp-4], -858993460		; ccccccccH
	mov	DWORD PTR _this$[ebp], ecx
	mov	ecx, DWORD PTR _this$[ebp]
	call	??1?$numpunct@D@std@@MAE@XZ		; std::numpunct<char>::~numpunct<char>
	mov	eax, DWORD PTR ___flags$[ebp]
	and	eax, 1
	je	SHORT $LN2@scalar
	mov	ecx, DWORD PTR ___flags$[ebp]
	and	ecx, 4
	jne	SHORT $LN3@scalar
	mov	edx, DWORD PTR _this$[ebp]
	push	edx
	call	??3_Crt_new_delete@std@@SAXPAX@Z	; std::_Crt_new_delete::operator delete
	add	esp, 4
	jmp	SHORT $LN2@scalar
$LN3@scalar:
	push	24					; 00000018H
	mov	eax, DWORD PTR _this$[ebp]
	push	eax
	call	?__global_delete@@YAXPAXI@Z		; __global_delete
	add	esp, 8
$LN2@scalar:
	mov	eax, DWORD PTR _this$[ebp]
	add	esp, 4
	cmp	ebp, esp
	call	__RTC_CheckEsp
	mov	esp, ebp
	pop	ebp
	ret	4
??_G?$numpunct@D@std@@MAEPAXI@Z ENDP			; std::numpunct<char>::`scalar deleting destructor'
_TEXT	ENDS
; Function compile flags: /Odtp /RTCsu
; File c:\program files (x86)\microsoft visual studio\2017\community\vc\tools\msvc\14.15.26726\include\xlocnum
;	COMDAT ?_Tidy@?$numpunct@D@std@@AAEXXZ
_TEXT	SEGMENT
_this$ = -4						; size = 4
?_Tidy@?$numpunct@D@std@@AAEXXZ PROC			; std::numpunct<char>::_Tidy, COMDAT
; _this$ = ecx

; 254  : 		{	// free all storage

	push	ebp
	mov	ebp, esp
	push	ecx
	mov	DWORD PTR [ebp-4], -858993460		; ccccccccH
	mov	DWORD PTR _this$[ebp], ecx

; 255  : 		_CSTD free((void *)_Grouping);

	mov	eax, DWORD PTR _this$[ebp]
	mov	ecx, DWORD PTR [eax+8]
	push	ecx
	call	_free
	add	esp, 4

; 256  : 		_CSTD free((void *)_Falsename);

	mov	edx, DWORD PTR _this$[ebp]
	mov	eax, DWORD PTR [edx+16]
	push	eax
	call	_free
	add	esp, 4

; 257  : 		_CSTD free((void *)_Truename);

	mov	ecx, DWORD PTR _this$[ebp]
	mov	edx, DWORD PTR [ecx+20]
	push	edx
	call	_free
	add	esp, 4

; 258  : 		}

	add	esp, 4
	cmp	ebp, esp
	call	__RTC_CheckEsp
	mov	esp, ebp
	pop	ebp
	ret	0
?_Tidy@?$numpunct@D@std@@AAEXXZ ENDP			; std::numpunct<char>::_Tidy
_TEXT	ENDS
; Function compile flags: /Odtp /RTCsu
; File c:\program files (x86)\microsoft visual studio\2017\community\vc\tools\msvc\14.15.26726\include\xlocnum
;	COMDAT ?do_truename@?$numpunct@D@std@@MBE?AV?$basic_string@DU?$char_traits@D@std@@V?$allocator@D@2@@2@XZ
_TEXT	SEGMENT
$T1 = -8						; size = 4
_this$ = -4						; size = 4
___$ReturnUdt$ = 8					; size = 4
?do_truename@?$numpunct@D@std@@MBE?AV?$basic_string@DU?$char_traits@D@std@@V?$allocator@D@2@@2@XZ PROC ; std::numpunct<char>::do_truename, COMDAT
; _this$ = ecx

; 248  : 		{	// return name for true

	push	ebp
	mov	ebp, esp
	sub	esp, 8
	mov	DWORD PTR [ebp-8], -858993460		; ccccccccH
	mov	DWORD PTR [ebp-4], -858993460		; ccccccccH
	mov	DWORD PTR _this$[ebp], ecx
	mov	DWORD PTR $T1[ebp], 0

; 249  : 		return (string_type(_Truename));

	mov	eax, DWORD PTR _this$[ebp]
	mov	ecx, DWORD PTR [eax+20]
	push	ecx
	mov	ecx, DWORD PTR ___$ReturnUdt$[ebp]
	call	??0?$basic_string@DU?$char_traits@D@std@@V?$allocator@D@2@@std@@QAE@QBD@Z ; std::basic_string<char,std::char_traits<char>,std::allocator<char> >::basic_string<char,std::char_traits<char>,std::allocator<char> >
	mov	edx, DWORD PTR $T1[ebp]
	or	edx, 1
	mov	DWORD PTR $T1[ebp], edx
	mov	eax, DWORD PTR ___$ReturnUdt$[ebp]

; 250  : 		}

	add	esp, 8
	cmp	ebp, esp
	call	__RTC_CheckEsp
	mov	esp, ebp
	pop	ebp
	ret	4
?do_truename@?$numpunct@D@std@@MBE?AV?$basic_string@DU?$char_traits@D@std@@V?$allocator@D@2@@2@XZ ENDP ; std::numpunct<char>::do_truename
_TEXT	ENDS
; Function compile flags: /Odtp /RTCsu
; File c:\program files (x86)\microsoft visual studio\2017\community\vc\tools\msvc\14.15.26726\include\xlocnum
;	COMDAT ?do_falsename@?$numpunct@D@std@@MBE?AV?$basic_string@DU?$char_traits@D@std@@V?$allocator@D@2@@2@XZ
_TEXT	SEGMENT
$T1 = -8						; size = 4
_this$ = -4						; size = 4
___$ReturnUdt$ = 8					; size = 4
?do_falsename@?$numpunct@D@std@@MBE?AV?$basic_string@DU?$char_traits@D@std@@V?$allocator@D@2@@2@XZ PROC ; std::numpunct<char>::do_falsename, COMDAT
; _this$ = ecx

; 243  : 		{	// return name for false

	push	ebp
	mov	ebp, esp
	sub	esp, 8
	mov	DWORD PTR [ebp-8], -858993460		; ccccccccH
	mov	DWORD PTR [ebp-4], -858993460		; ccccccccH
	mov	DWORD PTR _this$[ebp], ecx
	mov	DWORD PTR $T1[ebp], 0

; 244  : 		return (string_type(_Falsename));

	mov	eax, DWORD PTR _this$[ebp]
	mov	ecx, DWORD PTR [eax+16]
	push	ecx
	mov	ecx, DWORD PTR ___$ReturnUdt$[ebp]
	call	??0?$basic_string@DU?$char_traits@D@std@@V?$allocator@D@2@@std@@QAE@QBD@Z ; std::basic_string<char,std::char_traits<char>,std::allocator<char> >::basic_string<char,std::char_traits<char>,std::allocator<char> >
	mov	edx, DWORD PTR $T1[ebp]
	or	edx, 1
	mov	DWORD PTR $T1[ebp], edx
	mov	eax, DWORD PTR ___$ReturnUdt$[ebp]

; 245  : 		}

	add	esp, 8
	cmp	ebp, esp
	call	__RTC_CheckEsp
	mov	esp, ebp
	pop	ebp
	ret	4
?do_falsename@?$numpunct@D@std@@MBE?AV?$basic_string@DU?$char_traits@D@std@@V?$allocator@D@2@@2@XZ ENDP ; std::numpunct<char>::do_falsename
_TEXT	ENDS
; Function compile flags: /Odtp /RTCsu
; File c:\program files (x86)\microsoft visual studio\2017\community\vc\tools\msvc\14.15.26726\include\xlocnum
;	COMDAT ?do_grouping@?$numpunct@D@std@@MBE?AV?$basic_string@DU?$char_traits@D@std@@V?$allocator@D@2@@2@XZ
_TEXT	SEGMENT
$T1 = -8						; size = 4
_this$ = -4						; size = 4
___$ReturnUdt$ = 8					; size = 4
?do_grouping@?$numpunct@D@std@@MBE?AV?$basic_string@DU?$char_traits@D@std@@V?$allocator@D@2@@2@XZ PROC ; std::numpunct<char>::do_grouping, COMDAT
; _this$ = ecx

; 238  : 		{	// return grouping string

	push	ebp
	mov	ebp, esp
	sub	esp, 8
	mov	DWORD PTR [ebp-8], -858993460		; ccccccccH
	mov	DWORD PTR [ebp-4], -858993460		; ccccccccH
	mov	DWORD PTR _this$[ebp], ecx
	mov	DWORD PTR $T1[ebp], 0

; 239  : 		return (string(_Grouping));

	mov	eax, DWORD PTR _this$[ebp]
	mov	ecx, DWORD PTR [eax+8]
	push	ecx
	mov	ecx, DWORD PTR ___$ReturnUdt$[ebp]
	call	??0?$basic_string@DU?$char_traits@D@std@@V?$allocator@D@2@@std@@QAE@QBD@Z ; std::basic_string<char,std::char_traits<char>,std::allocator<char> >::basic_string<char,std::char_traits<char>,std::allocator<char> >
	mov	edx, DWORD PTR $T1[ebp]
	or	edx, 1
	mov	DWORD PTR $T1[ebp], edx
	mov	eax, DWORD PTR ___$ReturnUdt$[ebp]

; 240  : 		}

	add	esp, 8
	cmp	ebp, esp
	call	__RTC_CheckEsp
	mov	esp, ebp
	pop	ebp
	ret	4
?do_grouping@?$numpunct@D@std@@MBE?AV?$basic_string@DU?$char_traits@D@std@@V?$allocator@D@2@@2@XZ ENDP ; std::numpunct<char>::do_grouping
_TEXT	ENDS
; Function compile flags: /Odtp /RTCsu
; File c:\program files (x86)\microsoft visual studio\2017\community\vc\tools\msvc\14.15.26726\include\xlocnum
;	COMDAT ?do_thousands_sep@?$numpunct@D@std@@MBEDXZ
_TEXT	SEGMENT
_this$ = -4						; size = 4
?do_thousands_sep@?$numpunct@D@std@@MBEDXZ PROC		; std::numpunct<char>::do_thousands_sep, COMDAT
; _this$ = ecx

; 233  : 		{	// return thousands separator

	push	ebp
	mov	ebp, esp
	push	ecx
	mov	DWORD PTR [ebp-4], -858993460		; ccccccccH
	mov	DWORD PTR _this$[ebp], ecx

; 234  : 		return (_Kseparator);

	mov	eax, DWORD PTR _this$[ebp]
	mov	al, BYTE PTR [eax+13]

; 235  : 		}

	mov	esp, ebp
	pop	ebp
	ret	0
?do_thousands_sep@?$numpunct@D@std@@MBEDXZ ENDP		; std::numpunct<char>::do_thousands_sep
_TEXT	ENDS
; Function compile flags: /Odtp /RTCsu
; File c:\program files (x86)\microsoft visual studio\2017\community\vc\tools\msvc\14.15.26726\include\xlocnum
;	COMDAT ?do_decimal_point@?$numpunct@D@std@@MBEDXZ
_TEXT	SEGMENT
_this$ = -4						; size = 4
?do_decimal_point@?$numpunct@D@std@@MBEDXZ PROC		; std::numpunct<char>::do_decimal_point, COMDAT
; _this$ = ecx

; 228  : 		{	// return decimal point

	push	ebp
	mov	ebp, esp
	push	ecx
	mov	DWORD PTR [ebp-4], -858993460		; ccccccccH
	mov	DWORD PTR _this$[ebp], ecx

; 229  : 		return (_Dp);

	mov	eax, DWORD PTR _this$[ebp]
	mov	al, BYTE PTR [eax+12]

; 230  : 		}

	mov	esp, ebp
	pop	ebp
	ret	0
?do_decimal_point@?$numpunct@D@std@@MBEDXZ ENDP		; std::numpunct<char>::do_decimal_point
_TEXT	ENDS
; Function compile flags: /Odtp /RTCsu
; File c:\program files (x86)\microsoft visual studio\2017\community\vc\tools\msvc\14.15.26726\include\xlocnum
;	COMDAT ?_Init@?$numpunct@D@std@@IAEXABV_Locinfo@2@_N@Z
_TEXT	SEGMENT
tv154 = -152						; size = 4
tv153 = -148						; size = 4
tv152 = -144						; size = 4
tv151 = -140						; size = 4
tv150 = -136						; size = 4
tv149 = -132						; size = 4
tv81 = -128						; size = 4
$T2 = -124						; size = 44
__Cvt$ = -76						; size = 44
__Ptr$ = -28						; size = 4
_this$ = -24						; size = 4
__$ArrayPad$ = -20					; size = 4
__$EHRec$ = -16						; size = 16
__Lobj$ = 8						; size = 4
__Isdef$ = 12						; size = 1
?_Init@?$numpunct@D@std@@IAEXABV_Locinfo@2@_N@Z PROC	; std::numpunct<char>::_Init, COMDAT
; _this$ = ecx

; 200  : 		{	// initialize from _Lobj

	push	ebp
	mov	ebp, esp
	push	-1
	push	__ehhandler$?_Init@?$numpunct@D@std@@IAEXABV_Locinfo@2@_N@Z
	mov	eax, DWORD PTR fs:0
	push	eax
	push	ecx
	sub	esp, 136				; 00000088H
	push	ebx
	push	esi
	push	edi
	push	ecx
	lea	edi, DWORD PTR [ebp-152]
	mov	ecx, 34					; 00000022H
	mov	eax, -858993460				; ccccccccH
	rep stosd
	pop	ecx
	mov	eax, DWORD PTR ___security_cookie
	xor	eax, ebp
	mov	DWORD PTR __$ArrayPad$[ebp], eax
	push	eax
	lea	eax, DWORD PTR __$EHRec$[ebp+4]
	mov	DWORD PTR fs:0, eax
	mov	DWORD PTR __$EHRec$[ebp], esp
	mov	DWORD PTR _this$[ebp], ecx

; 201  : 		const lconv *_Ptr = _Lobj._Getlconv();

	mov	ecx, DWORD PTR __Lobj$[ebp]
	call	?_Getlconv@_Locinfo@std@@QBEPBUlconv@@XZ ; std::_Locinfo::_Getlconv
	mov	DWORD PTR __Ptr$[ebp], eax

; 202  : 		_Locinfo::_Cvtvec _Cvt = _Lobj._Getcvt();	// conversion information

	lea	eax, DWORD PTR __Cvt$[ebp]
	push	eax
	mov	ecx, DWORD PTR __Lobj$[ebp]
	call	?_Getcvt@_Locinfo@std@@QBE?AU_Cvtvec@@XZ ; std::_Locinfo::_Getcvt

; 203  : 
; 204  : 		_Grouping = nullptr;

	mov	ecx, DWORD PTR _this$[ebp]
	mov	DWORD PTR [ecx+8], 0

; 205  : 		_Falsename = nullptr;

	mov	edx, DWORD PTR _this$[ebp]
	mov	DWORD PTR [edx+16], 0

; 206  : 		_Truename = nullptr;

	mov	eax, DWORD PTR _this$[ebp]
	mov	DWORD PTR [eax+20], 0

; 207  : 
; 208  : 		_TRY_BEGIN

	mov	DWORD PTR __$EHRec$[ebp+12], 0

; 209  : 		_Grouping = _Maklocstr(_Isdef ? "" : _Ptr->grouping, static_cast<char *>(nullptr), _Lobj._Getcvt());

	movzx	ecx, BYTE PTR __Isdef$[ebp]
	test	ecx, ecx
	je	SHORT $LN6@Init
	mov	DWORD PTR tv81[ebp], OFFSET ??_C@_00CNPNBAHC@@
	jmp	SHORT $LN7@Init
$LN6@Init:
	mov	edx, DWORD PTR __Ptr$[ebp]
	mov	eax, DWORD PTR [edx+8]
	mov	DWORD PTR tv81[ebp], eax
$LN7@Init:
	lea	ecx, DWORD PTR $T2[ebp]
	push	ecx
	mov	ecx, DWORD PTR __Lobj$[ebp]
	call	?_Getcvt@_Locinfo@std@@QBE?AU_Cvtvec@@XZ ; std::_Locinfo::_Getcvt
	mov	DWORD PTR tv149[ebp], eax
	mov	edx, DWORD PTR tv149[ebp]
	push	edx
	push	0
	mov	eax, DWORD PTR tv81[ebp]
	push	eax
	call	??$_Maklocstr@D@std@@YAPADPBDPADABU_Cvtvec@@@Z ; std::_Maklocstr<char>
	add	esp, 12					; 0000000cH
	mov	DWORD PTR tv150[ebp], eax
	mov	ecx, DWORD PTR _this$[ebp]
	mov	edx, DWORD PTR tv150[ebp]
	mov	DWORD PTR [ecx+8], edx

; 210  : 		_Falsename = _Maklocstr(_Lobj._Getfalse(), static_cast<_Elem *>(nullptr), _Cvt);

	mov	ecx, DWORD PTR __Lobj$[ebp]
	call	?_Getfalse@_Locinfo@std@@QBEPBDXZ	; std::_Locinfo::_Getfalse
	mov	DWORD PTR tv151[ebp], eax
	lea	eax, DWORD PTR __Cvt$[ebp]
	push	eax
	push	0
	mov	ecx, DWORD PTR tv151[ebp]
	push	ecx
	call	??$_Maklocstr@D@std@@YAPADPBDPADABU_Cvtvec@@@Z ; std::_Maklocstr<char>
	add	esp, 12					; 0000000cH
	mov	DWORD PTR tv152[ebp], eax
	mov	edx, DWORD PTR _this$[ebp]
	mov	eax, DWORD PTR tv152[ebp]
	mov	DWORD PTR [edx+16], eax

; 211  : 		_Truename = _Maklocstr(_Lobj._Gettrue(), static_cast<_Elem *>(nullptr), _Cvt);

	mov	ecx, DWORD PTR __Lobj$[ebp]
	call	?_Gettrue@_Locinfo@std@@QBEPBDXZ	; std::_Locinfo::_Gettrue
	mov	DWORD PTR tv153[ebp], eax
	lea	ecx, DWORD PTR __Cvt$[ebp]
	push	ecx
	push	0
	mov	edx, DWORD PTR tv153[ebp]
	push	edx
	call	??$_Maklocstr@D@std@@YAPADPBDPADABU_Cvtvec@@@Z ; std::_Maklocstr<char>
	add	esp, 12					; 0000000cH
	mov	DWORD PTR tv154[ebp], eax
	mov	eax, DWORD PTR _this$[ebp]
	mov	ecx, DWORD PTR tv154[ebp]
	mov	DWORD PTR [eax+20], ecx
	jmp	SHORT $LN8@Init
__catch$?_Init@?$numpunct@D@std@@IAEXABV_Locinfo@2@_N@Z$0:

; 212  : 		_CATCH_ALL
; 213  : 		_Tidy();

	mov	ecx, DWORD PTR _this$[ebp]
	call	?_Tidy@?$numpunct@D@std@@AAEXXZ		; std::numpunct<char>::_Tidy

; 214  : 		_RERAISE;

	push	0
	push	0
	call	__CxxThrowException@8

; 215  : 		_CATCH_END

	mov	eax, $LN11@Init
	ret	0
$LN8@Init:
	mov	DWORD PTR __$EHRec$[ebp+12], -1
	jmp	SHORT __tryend$?_Init@?$numpunct@D@std@@IAEXABV_Locinfo@2@_N@Z$1
$LN11@Init:
	mov	DWORD PTR __$EHRec$[ebp+12], -1
__tryend$?_Init@?$numpunct@D@std@@IAEXABV_Locinfo@2@_N@Z$1:

; 216  : 
; 217  : 		if (_Isdef)

	movzx	edx, BYTE PTR __Isdef$[ebp]
	test	edx, edx
	je	SHORT $LN3@Init

; 218  : 			{	// apply defaults for required facets
; 219  : //			_Grouping = _Maklocstr("", static_cast<char *>(nullptr), _Cvt);
; 220  : 			_Dp = _Maklocchr('.', static_cast<_Elem *>(nullptr), _Cvt);

	lea	eax, DWORD PTR __Cvt$[ebp]
	push	eax
	push	0
	push	46					; 0000002eH
	call	??$_Maklocchr@D@std@@YADDPADABU_Cvtvec@@@Z ; std::_Maklocchr<char>
	add	esp, 12					; 0000000cH
	mov	ecx, DWORD PTR _this$[ebp]
	mov	BYTE PTR [ecx+12], al

; 221  : 			_Kseparator = _Maklocchr(',', static_cast<_Elem *>(nullptr), _Cvt);

	lea	edx, DWORD PTR __Cvt$[ebp]
	push	edx
	push	0
	push	44					; 0000002cH
	call	??$_Maklocchr@D@std@@YADDPADABU_Cvtvec@@@Z ; std::_Maklocchr<char>
	add	esp, 12					; 0000000cH
	mov	ecx, DWORD PTR _this$[ebp]
	mov	BYTE PTR [ecx+13], al

; 222  : 			}
; 223  : 		else

	jmp	SHORT $LN5@Init
$LN3@Init:

; 224  : 			_Getvals((_Elem)0, _Ptr, _Cvt);

	sub	esp, 44					; 0000002cH
	mov	ecx, 11					; 0000000bH
	lea	esi, DWORD PTR __Cvt$[ebp]
	mov	edi, esp
	rep movsd
	mov	edx, DWORD PTR __Ptr$[ebp]
	push	edx
	push	0
	mov	ecx, DWORD PTR _this$[ebp]
	call	??$_Getvals@D@?$numpunct@D@std@@IAEXDPBUlconv@@U_Cvtvec@@@Z ; std::numpunct<char>::_Getvals<char>
$LN5@Init:

; 225  : 		}

	push	edx
	mov	ecx, ebp
	push	eax
	lea	edx, DWORD PTR $LN15@Init
	call	@_RTC_CheckStackVars@8
	pop	eax
	pop	edx
	mov	ecx, DWORD PTR __$EHRec$[ebp+4]
	mov	DWORD PTR fs:0, ecx
	pop	ecx
	pop	edi
	pop	esi
	pop	ebx
	mov	ecx, DWORD PTR __$ArrayPad$[ebp]
	xor	ecx, ebp
	call	@__security_check_cookie@4
	add	esp, 152				; 00000098H
	cmp	ebp, esp
	call	__RTC_CheckEsp
	mov	esp, ebp
	pop	ebp
	ret	8
	npad	2
$LN15@Init:
	DD	1
	DD	$LN14@Init
$LN14@Init:
	DD	-76					; ffffffb4H
	DD	44					; 0000002cH
	DD	$LN12@Init
$LN12@Init:
	DB	95					; 0000005fH
	DB	67					; 00000043H
	DB	118					; 00000076H
	DB	116					; 00000074H
	DB	0
_TEXT	ENDS
;	COMDAT text$x
text$x	SEGMENT
__ehhandler$?_Init@?$numpunct@D@std@@IAEXABV_Locinfo@2@_N@Z:
	mov	edx, DWORD PTR [esp+8]
	lea	eax, DWORD PTR [edx+12]
	mov	ecx, DWORD PTR [edx-156]
	xor	ecx, eax
	call	@__security_check_cookie@4
	mov	ecx, DWORD PTR [edx-8]
	xor	ecx, eax
	call	@__security_check_cookie@4
	mov	eax, OFFSET __ehfuncinfo$?_Init@?$numpunct@D@std@@IAEXABV_Locinfo@2@_N@Z
	jmp	___CxxFrameHandler3
text$x	ENDS
?_Init@?$numpunct@D@std@@IAEXABV_Locinfo@2@_N@Z ENDP	; std::numpunct<char>::_Init
; Function compile flags: /Odtp /RTCsu
; File c:\program files (x86)\microsoft visual studio\2017\community\vc\tools\msvc\14.15.26726\include\xlocnum
;	COMDAT ??1?$numpunct@D@std@@MAE@XZ
_TEXT	SEGMENT
_this$ = -16						; size = 4
__$EHRec$ = -12						; size = 12
??1?$numpunct@D@std@@MAE@XZ PROC			; std::numpunct<char>::~numpunct<char>, COMDAT
; _this$ = ecx

; 174  : 		{	// destroy the object

	push	ebp
	mov	ebp, esp
	push	-1
	push	__ehhandler$??1?$numpunct@D@std@@MAE@XZ
	mov	eax, DWORD PTR fs:0
	push	eax
	push	ecx
	mov	DWORD PTR [ebp-16], -858993460		; ccccccccH
	mov	eax, DWORD PTR ___security_cookie
	xor	eax, ebp
	push	eax
	lea	eax, DWORD PTR __$EHRec$[ebp]
	mov	DWORD PTR fs:0, eax
	mov	DWORD PTR _this$[ebp], ecx
	mov	eax, DWORD PTR _this$[ebp]
	mov	DWORD PTR [eax], OFFSET ??_7?$numpunct@D@std@@6B@

; 175  : 		_Tidy();

	mov	ecx, DWORD PTR _this$[ebp]
	call	?_Tidy@?$numpunct@D@std@@AAEXXZ		; std::numpunct<char>::_Tidy

; 176  : 		}

	mov	ecx, DWORD PTR _this$[ebp]
	call	??1facet@locale@std@@MAE@XZ		; std::locale::facet::~facet
	mov	ecx, DWORD PTR __$EHRec$[ebp]
	mov	DWORD PTR fs:0, ecx
	pop	ecx
	add	esp, 16					; 00000010H
	cmp	ebp, esp
	call	__RTC_CheckEsp
	mov	esp, ebp
	pop	ebp
	ret	0
_TEXT	ENDS
;	COMDAT text$x
text$x	SEGMENT
__ehhandler$??1?$numpunct@D@std@@MAE@XZ:
	mov	edx, DWORD PTR [esp+8]
	lea	eax, DWORD PTR [edx+12]
	mov	ecx, DWORD PTR [edx-8]
	xor	ecx, eax
	call	@__security_check_cookie@4
	mov	eax, OFFSET __ehfuncinfo$??1?$numpunct@D@std@@MAE@XZ
	jmp	___CxxFrameHandler3
text$x	ENDS
??1?$numpunct@D@std@@MAE@XZ ENDP			; std::numpunct<char>::~numpunct<char>
; Function compile flags: /Odtp /RTCsu
; File c:\program files (x86)\microsoft visual studio\2017\community\vc\tools\msvc\14.15.26726\include\xlocnum
;	COMDAT ?_Getcat@?$numpunct@D@std@@SAIPAPBVfacet@locale@2@PBV42@@Z
_TEXT	SEGMENT
tv89 = -88						; size = 4
tv95 = -84						; size = 4
tv132 = -80						; size = 4
$T2 = -76						; size = 4
$T3 = -72						; size = 52
$T4 = -20						; size = 4
$T5 = -16						; size = 4
__$EHRec$ = -12						; size = 12
__Ppf$ = 8						; size = 4
__Ploc$ = 12						; size = 4
?_Getcat@?$numpunct@D@std@@SAIPAPBVfacet@locale@2@PBV42@@Z PROC ; std::numpunct<char>::_Getcat, COMDAT

; 165  : 		{	// return locale category mask and construct standard facet

	push	ebp
	mov	ebp, esp
	push	-1
	push	__ehhandler$?_Getcat@?$numpunct@D@std@@SAIPAPBVfacet@locale@2@PBV42@@Z
	mov	eax, DWORD PTR fs:0
	push	eax
	sub	esp, 76					; 0000004cH
	push	edi
	lea	edi, DWORD PTR [ebp-88]
	mov	ecx, 19					; 00000013H
	mov	eax, -858993460				; ccccccccH
	rep stosd
	mov	eax, DWORD PTR ___security_cookie
	xor	eax, ebp
	push	eax
	lea	eax, DWORD PTR __$EHRec$[ebp]
	mov	DWORD PTR fs:0, eax
	mov	DWORD PTR $T2[ebp], 0

; 166  : 		if (_Ppf != nullptr && *_Ppf == nullptr)

	cmp	DWORD PTR __Ppf$[ebp], 0
	je	$LN2@Getcat
	mov	eax, DWORD PTR __Ppf$[ebp]
	cmp	DWORD PTR [eax], 0
	jne	$LN2@Getcat

; 167  : 			*_Ppf = new numpunct<_Elem>(

	push	24					; 00000018H
	call	??2_Crt_new_delete@std@@SAPAXI@Z	; std::_Crt_new_delete::operator new
	add	esp, 4
	mov	DWORD PTR $T4[ebp], eax
	mov	DWORD PTR __$EHRec$[ebp+8], 0
	cmp	DWORD PTR $T4[ebp], 0
	je	SHORT $LN4@Getcat
	push	1
	push	0
	mov	ecx, DWORD PTR __Ploc$[ebp]
	call	?c_str@locale@std@@QBEPBDXZ		; std::locale::c_str
	push	eax
	lea	ecx, DWORD PTR $T3[ebp]
	call	??0_Locinfo@std@@QAE@PBD@Z		; std::_Locinfo::_Locinfo
	mov	DWORD PTR tv132[ebp], eax
	mov	ecx, DWORD PTR tv132[ebp]
	mov	DWORD PTR tv95[ebp], ecx
	mov	BYTE PTR __$EHRec$[ebp+8], 1
	mov	edx, DWORD PTR $T2[ebp]
	or	edx, 1
	mov	DWORD PTR $T2[ebp], edx
	mov	eax, DWORD PTR tv95[ebp]
	push	eax
	mov	ecx, DWORD PTR $T4[ebp]
	call	??0?$numpunct@D@std@@QAE@ABV_Locinfo@1@I_N@Z ; std::numpunct<char>::numpunct<char>
	mov	DWORD PTR tv89[ebp], eax
	jmp	SHORT $LN5@Getcat
$LN4@Getcat:
	mov	DWORD PTR tv89[ebp], 0
$LN5@Getcat:
	mov	ecx, DWORD PTR tv89[ebp]
	mov	DWORD PTR $T5[ebp], ecx
	mov	DWORD PTR __$EHRec$[ebp+8], 2
	mov	edx, DWORD PTR __Ppf$[ebp]
	mov	eax, DWORD PTR $T5[ebp]
	mov	DWORD PTR [edx], eax
	mov	DWORD PTR __$EHRec$[ebp+8], -1
	mov	ecx, DWORD PTR $T2[ebp]
	and	ecx, 1
	je	SHORT $LN2@Getcat
	and	DWORD PTR $T2[ebp], -2			; fffffffeH
	lea	ecx, DWORD PTR $T3[ebp]
	call	??1_Locinfo@std@@QAE@XZ			; std::_Locinfo::~_Locinfo
$LN2@Getcat:

; 168  : 				_Locinfo(_Ploc->c_str()), 0, true);
; 169  : 		return (_X_NUMERIC);

	mov	eax, 4

; 170  : 		}

	mov	ecx, DWORD PTR __$EHRec$[ebp]
	mov	DWORD PTR fs:0, ecx
	pop	ecx
	pop	edi
	add	esp, 88					; 00000058H
	cmp	ebp, esp
	call	__RTC_CheckEsp
	mov	esp, ebp
	pop	ebp
	ret	0
_TEXT	ENDS
;	COMDAT text$x
text$x	SEGMENT
__unwindfunclet$?_Getcat@?$numpunct@D@std@@SAIPAPBVfacet@locale@2@PBV42@@Z$0:
	mov	eax, DWORD PTR $T4[ebp]
	push	eax
	call	??3_Crt_new_delete@std@@SAXPAX@Z	; std::_Crt_new_delete::operator delete
	pop	ecx
	ret	0
__unwindfunclet$?_Getcat@?$numpunct@D@std@@SAIPAPBVfacet@locale@2@PBV42@@Z$1:
	mov	eax, DWORD PTR $T2[ebp]
	and	eax, 1
	je	$LN8@Getcat
