; Listing generated by Microsoft (R) Optimizing Compiler Version 19.15.26730.0 

	TITLE	C:\Users\Utilisateur\Documents\GitKraken\8IAR125-ProjetRaven\VS2015\Common\Game\EntityManager.cpp
	.686P
	.XMM
	include listing.inc
	.model	flat

INCLUDELIB LIBCMTD
INCLUDELIB OLDNAMES

CONST	SEGMENT
$SG148374 DB	'<EntityManager::GetEntityFromID>: invalid ID', 00H
	ORG $+3
$SG148375 DB	'c', 00H, ':', 00H, '\', 00H, 'u', 00H, 's', 00H, 'e', 00H
	DB	'r', 00H, 's', 00H, '\', 00H, 'u', 00H, 't', 00H, 'i', 00H, 'l'
	DB	00H, 'i', 00H, 's', 00H, 'a', 00H, 't', 00H, 'e', 00H, 'u', 00H
	DB	'r', 00H, '\', 00H, 'd', 00H, 'o', 00H, 'c', 00H, 'u', 00H, 'm'
	DB	00H, 'e', 00H, 'n', 00H, 't', 00H, 's', 00H, '\', 00H, 'g', 00H
	DB	'i', 00H, 't', 00H, 'k', 00H, 'r', 00H, 'a', 00H, 'k', 00H, 'e'
	DB	00H, 'n', 00H, '\', 00H, '8', 00H, 'i', 00H, 'a', 00H, 'r', 00H
	DB	'1', 00H, '2', 00H, '5', 00H, '-', 00H, 'p', 00H, 'r', 00H, 'o'
	DB	00H, 'j', 00H, 'e', 00H, 't', 00H, 'r', 00H, 'a', 00H, 'v', 00H
	DB	'e', 00H, 'n', 00H, '\', 00H, 'v', 00H, 's', 00H, '2', 00H, '0'
	DB	00H, '1', 00H, '5', 00H, '\', 00H, 'c', 00H, 'o', 00H, 'm', 00H
	DB	'm', 00H, 'o', 00H, 'n', 00H, '\', 00H, 'g', 00H, 'a', 00H, 'm'
	DB	00H, 'e', 00H, '\', 00H, 'e', 00H, 'n', 00H, 't', 00H, 'i', 00H
	DB	't', 00H, 'y', 00H, 'm', 00H, 'a', 00H, 'n', 00H, 'a', 00H, 'g'
	DB	00H, 'e', 00H, 'r', 00H, '.', 00H, 'c', 00H, 'p', 00H, 'p', 00H
	DB	00H, 00H
	ORG $+4
$SG148376 DB	'(', 00H, 'e', 00H, 'n', 00H, 't', 00H, ' ', 00H, '!', 00H
	DB	'=', 00H, ' ', 00H, 'm', 00H, '_', 00H, 'E', 00H, 'n', 00H, 't'
	DB	00H, 'i', 00H, 't', 00H, 'y', 00H, 'M', 00H, 'a', 00H, 'p', 00H
	DB	'.', 00H, 'e', 00H, 'n', 00H, 'd', 00H, '(', 00H, ')', 00H, ')'
	DB	00H, ' ', 00H, '&', 00H, '&', 00H, ' ', 00H, '"', 00H, '<', 00H
	DB	'E', 00H, 'n', 00H, 't', 00H, 'i', 00H, 't', 00H, 'y', 00H, 'M'
	DB	00H, 'a', 00H, 'n', 00H, 'a', 00H, 'g', 00H, 'e', 00H, 'r', 00H
	DB	':', 00H, ':', 00H, 'G', 00H, 'e', 00H, 't', 00H, 'E', 00H, 'n'
	DB	00H, 't', 00H, 'i', 00H, 't', 00H, 'y', 00H, 'F', 00H, 'r', 00H
	DB	'o', 00H, 'm', 00H, 'I', 00H, 'D', 00H, '>', 00H, ':', 00H, ' '
	DB	00H, 'i', 00H, 'n', 00H, 'v', 00H, 'a', 00H, 'l', 00H, 'i', 00H
	DB	'd', 00H, ' ', 00H, 'I', 00H, 'D', 00H, '"', 00H, 00H, 00H
CONST	ENDS
PUBLIC	?__empty_global_delete@@YAXPAX@Z		; __empty_global_delete
PUBLIC	?__empty_global_delete@@YAXPAXI@Z		; __empty_global_delete
PUBLIC	??2@YAPAXIPAX@Z					; operator new
PUBLIC	??0_Container_proxy@std@@QAE@XZ			; std::_Container_proxy::_Container_proxy
PUBLIC	??0_Container_base12@std@@QAE@XZ		; std::_Container_base12::_Container_base12
PUBLIC	?_Getpfirst@_Container_base12@std@@QBEPAPAU_Iterator_base12@2@XZ ; std::_Container_base12::_Getpfirst
PUBLIC	?_Orphan_all@_Container_base12@std@@QAEXXZ	; std::_Container_base12::_Orphan_all
PUBLIC	??0_Iterator_base12@std@@QAE@XZ			; std::_Iterator_base12::_Iterator_base12
PUBLIC	??0_Iterator_base12@std@@QAE@ABU01@@Z		; std::_Iterator_base12::_Iterator_base12
PUBLIC	??4_Iterator_base12@std@@QAEAAU01@ABU01@@Z	; std::_Iterator_base12::operator=
PUBLIC	??1_Iterator_base12@std@@QAE@XZ			; std::_Iterator_base12::~_Iterator_base12
PUBLIC	?_Adopt@_Iterator_base12@std@@QAEXPBU_Container_base12@2@@Z ; std::_Iterator_base12::_Adopt
PUBLIC	?_Clrcont@_Iterator_base12@std@@QAEXXZ		; std::_Iterator_base12::_Clrcont
PUBLIC	?_Getcont@_Iterator_base12@std@@QBEPBU_Container_base12@2@XZ ; std::_Iterator_base12::_Getcont
PUBLIC	?_Getpnext@_Iterator_base12@std@@QAEPAPAU12@XZ	; std::_Iterator_base12::_Getpnext
PUBLIC	?_Orphan_me@_Iterator_base12@std@@QAEXXZ	; std::_Iterator_base12::_Orphan_me
PUBLIC	?max@?$numeric_limits@H@std@@SAHXZ		; std::numeric_limits<int>::max
PUBLIC	?min@?$numeric_limits@M@std@@SAMXZ		; std::numeric_limits<float>::min
PUBLIC	?max@?$numeric_limits@M@std@@SAMXZ		; std::numeric_limits<float>::max
PUBLIC	?min@?$numeric_limits@N@std@@SANXZ		; std::numeric_limits<double>::min
PUBLIC	?max@?$numeric_limits@N@std@@SANXZ		; std::numeric_limits<double>::max
PUBLIC	?_Allocate@_Default_allocate_traits@std@@SAPAXI@Z ; std::_Default_allocate_traits::_Allocate
PUBLIC	?_Adjust_manually_vector_aligned@std@@YAXAAPAXAAI@Z ; std::_Adjust_manually_vector_aligned
PUBLIC	??0?$allocator@U?$_Tree_node@U?$pair@$$CBHPAVBaseGameEntity@@@std@@PAX@std@@@std@@QAE@XZ ; std::allocator<std::_Tree_node<std::pair<int const ,BaseGameEntity *>,void *> >::allocator<std::_Tree_node<std::pair<int const ,BaseGameEntity *>,void *> >
PUBLIC	?deallocate@?$allocator@U?$_Tree_node@U?$pair@$$CBHPAVBaseGameEntity@@@std@@PAX@std@@@std@@QAEXQAU?$_Tree_node@U?$pair@$$CBHPAVBaseGameEntity@@@std@@PAX@2@I@Z ; std::allocator<std::_Tree_node<std::pair<int const ,BaseGameEntity *>,void *> >::deallocate
PUBLIC	?allocate@?$allocator@U?$_Tree_node@U?$pair@$$CBHPAVBaseGameEntity@@@std@@PAX@std@@@std@@QAEPAU?$_Tree_node@U?$pair@$$CBHPAVBaseGameEntity@@@std@@PAX@2@I@Z ; std::allocator<std::_Tree_node<std::pair<int const ,BaseGameEntity *>,void *> >::allocate
PUBLIC	?deallocate@?$_Default_allocator_traits@V?$allocator@U?$_Tree_node@U?$pair@$$CBHPAVBaseGameEntity@@@std@@PAX@std@@@std@@@std@@SAXAAV?$allocator@U?$_Tree_node@U?$pair@$$CBHPAVBaseGameEntity@@@std@@PAX@std@@@2@QAU?$_Tree_node@U?$pair@$$CBHPAVBaseGameEntity@@@std@@PAX@2@I@Z ; std::_Default_allocator_traits<std::allocator<std::_Tree_node<std::pair<int const ,BaseGameEntity *>,void *> > >::deallocate
PUBLIC	?max_size@?$_Default_allocator_traits@V?$allocator@U?$_Tree_node@U?$pair@$$CBHPAVBaseGameEntity@@@std@@PAX@std@@@std@@@std@@SAIABV?$allocator@U?$_Tree_node@U?$pair@$$CBHPAVBaseGameEntity@@@std@@PAX@std@@@2@@Z ; std::_Default_allocator_traits<std::allocator<std::_Tree_node<std::pair<int const ,BaseGameEntity *>,void *> > >::max_size
PUBLIC	??0?$_Tree_comp_alloc@V?$_Tmap_traits@HPAVBaseGameEntity@@U?$less@H@std@@V?$allocator@U?$pair@$$CBHPAVBaseGameEntity@@@std@@@3@$0A@@std@@@std@@QAE@ABU?$less@H@1@@Z ; std::_Tree_comp_alloc<std::_Tmap_traits<int,BaseGameEntity *,std::less<int>,std::allocator<std::pair<int const ,BaseGameEntity *> >,0> >::_Tree_comp_alloc<std::_Tmap_traits<int,BaseGameEntity *,std::less<int>,std::allocator<std::pair<int const ,BaseGameEntity *> >,0> >
PUBLIC	?_Construct@?$_Tree_comp_alloc@V?$_Tmap_traits@HPAVBaseGameEntity@@U?$less@H@std@@V?$allocator@U?$pair@$$CBHPAVBaseGameEntity@@@std@@@3@$0A@@std@@@std@@QAEXXZ ; std::_Tree_comp_alloc<std::_Tmap_traits<int,BaseGameEntity *,std::less<int>,std::allocator<std::pair<int const ,BaseGameEntity *> >,0> >::_Construct
PUBLIC	??1?$_Tree_comp_alloc@V?$_Tmap_traits@HPAVBaseGameEntity@@U?$less@H@std@@V?$allocator@U?$pair@$$CBHPAVBaseGameEntity@@@std@@@3@$0A@@std@@@std@@QAE@XZ ; std::_Tree_comp_alloc<std::_Tmap_traits<int,BaseGameEntity *,std::less<int>,std::allocator<std::pair<int const ,BaseGameEntity *> >,0> >::~_Tree_comp_alloc<std::_Tmap_traits<int,BaseGameEntity *,std::less<int>,std::allocator<std::pair<int const ,BaseGameEntity *> >,0> >
PUBLIC	?_Alloc_proxy@?$_Tree_comp_alloc@V?$_Tmap_traits@HPAVBaseGameEntity@@U?$less@H@std@@V?$allocator@U?$pair@$$CBHPAVBaseGameEntity@@@std@@@3@$0A@@std@@@std@@QAEXXZ ; std::_Tree_comp_alloc<std::_Tmap_traits<int,BaseGameEntity *,std::less<int>,std::allocator<std::pair<int const ,BaseGameEntity *> >,0> >::_Alloc_proxy
PUBLIC	?_Free_proxy@?$_Tree_comp_alloc@V?$_Tmap_traits@HPAVBaseGameEntity@@U?$less@H@std@@V?$allocator@U?$pair@$$CBHPAVBaseGameEntity@@@std@@@3@$0A@@std@@@std@@QAEXXZ ; std::_Tree_comp_alloc<std::_Tmap_traits<int,BaseGameEntity *,std::less<int>,std::allocator<std::pair<int const ,BaseGameEntity *> >,0> >::_Free_proxy
PUBLIC	?_Getpfirst@?$_Tree_comp_alloc@V?$_Tmap_traits@HPAVBaseGameEntity@@U?$less@H@std@@V?$allocator@U?$pair@$$CBHPAVBaseGameEntity@@@std@@@3@$0A@@std@@@std@@QBEPAPAU_Iterator_base12@2@XZ ; std::_Tree_comp_alloc<std::_Tmap_traits<int,BaseGameEntity *,std::less<int>,std::allocator<std::pair<int const ,BaseGameEntity *> >,0> >::_Getpfirst
PUBLIC	?_Myproxy@?$_Tree_comp_alloc@V?$_Tmap_traits@HPAVBaseGameEntity@@U?$less@H@std@@V?$allocator@U?$pair@$$CBHPAVBaseGameEntity@@@std@@@3@$0A@@std@@@std@@QAEAAPAU_Container_proxy@2@XZ ; std::_Tree_comp_alloc<std::_Tmap_traits<int,BaseGameEntity *,std::less<int>,std::allocator<std::pair<int const ,BaseGameEntity *> >,0> >::_Myproxy
PUBLIC	?_Orphan_all@?$_Tree_comp_alloc@V?$_Tmap_traits@HPAVBaseGameEntity@@U?$less@H@std@@V?$allocator@U?$pair@$$CBHPAVBaseGameEntity@@@std@@@3@$0A@@std@@@std@@QAEXXZ ; std::_Tree_comp_alloc<std::_Tmap_traits<int,BaseGameEntity *,std::less<int>,std::allocator<std::pair<int const ,BaseGameEntity *> >,0> >::_Orphan_all
PUBLIC	?_Buyheadnode@?$_Tree_comp_alloc@V?$_Tmap_traits@HPAVBaseGameEntity@@U?$less@H@std@@V?$allocator@U?$pair@$$CBHPAVBaseGameEntity@@@std@@@3@$0A@@std@@@std@@QAEPAU?$_Tree_node@U?$pair@$$CBHPAVBaseGameEntity@@@std@@PAX@2@XZ ; std::_Tree_comp_alloc<std::_Tmap_traits<int,BaseGameEntity *,std::less<int>,std::allocator<std::pair<int const ,BaseGameEntity *> >,0> >::_Buyheadnode
PUBLIC	?_Freeheadnode@?$_Tree_comp_alloc@V?$_Tmap_traits@HPAVBaseGameEntity@@U?$less@H@std@@V?$allocator@U?$pair@$$CBHPAVBaseGameEntity@@@std@@@3@$0A@@std@@@std@@QAEXPAU?$_Tree_node@U?$pair@$$CBHPAVBaseGameEntity@@@std@@PAX@2@@Z ; std::_Tree_comp_alloc<std::_Tmap_traits<int,BaseGameEntity *,std::less<int>,std::allocator<std::pair<int const ,BaseGameEntity *> >,0> >::_Freeheadnode
PUBLIC	?_Buynode0@?$_Tree_comp_alloc@V?$_Tmap_traits@HPAVBaseGameEntity@@U?$less@H@std@@V?$allocator@U?$pair@$$CBHPAVBaseGameEntity@@@std@@@3@$0A@@std@@@std@@QAEPAU?$_Tree_node@U?$pair@$$CBHPAVBaseGameEntity@@@std@@PAX@2@XZ ; std::_Tree_comp_alloc<std::_Tmap_traits<int,BaseGameEntity *,std::less<int>,std::allocator<std::pair<int const ,BaseGameEntity *> >,0> >::_Buynode0
PUBLIC	?_Freenode0@?$_Tree_comp_alloc@V?$_Tmap_traits@HPAVBaseGameEntity@@U?$less@H@std@@V?$allocator@U?$pair@$$CBHPAVBaseGameEntity@@@std@@@3@$0A@@std@@@std@@QAEXPAU?$_Tree_node@U?$pair@$$CBHPAVBaseGameEntity@@@std@@PAX@2@@Z ; std::_Tree_comp_alloc<std::_Tmap_traits<int,BaseGameEntity *,std::less<int>,std::allocator<std::pair<int const ,BaseGameEntity *> >,0> >::_Freenode0
PUBLIC	?_Getcomp@?$_Tree_comp_alloc@V?$_Tmap_traits@HPAVBaseGameEntity@@U?$less@H@std@@V?$allocator@U?$pair@$$CBHPAVBaseGameEntity@@@std@@@3@$0A@@std@@@std@@QAEAAU?$less@H@2@XZ ; std::_Tree_comp_alloc<std::_Tmap_traits<int,BaseGameEntity *,std::less<int>,std::allocator<std::pair<int const ,BaseGameEntity *> >,0> >::_Getcomp
PUBLIC	?_Getcomp@?$_Tree_comp_alloc@V?$_Tmap_traits@HPAVBaseGameEntity@@U?$less@H@std@@V?$allocator@U?$pair@$$CBHPAVBaseGameEntity@@@std@@@3@$0A@@std@@@std@@QBEABU?$less@H@2@XZ ; std::_Tree_comp_alloc<std::_Tmap_traits<int,BaseGameEntity *,std::less<int>,std::allocator<std::pair<int const ,BaseGameEntity *> >,0> >::_Getcomp
PUBLIC	?_Getal@?$_Tree_comp_alloc@V?$_Tmap_traits@HPAVBaseGameEntity@@U?$less@H@std@@V?$allocator@U?$pair@$$CBHPAVBaseGameEntity@@@std@@@3@$0A@@std@@@std@@QAEAAV?$allocator@U?$_Tree_node@U?$pair@$$CBHPAVBaseGameEntity@@@std@@PAX@std@@@2@XZ ; std::_Tree_comp_alloc<std::_Tmap_traits<int,BaseGameEntity *,std::less<int>,std::allocator<std::pair<int const ,BaseGameEntity *> >,0> >::_Getal
PUBLIC	?_Getal@?$_Tree_comp_alloc@V?$_Tmap_traits@HPAVBaseGameEntity@@U?$less@H@std@@V?$allocator@U?$pair@$$CBHPAVBaseGameEntity@@@std@@@3@$0A@@std@@@std@@QBEABV?$allocator@U?$_Tree_node@U?$pair@$$CBHPAVBaseGameEntity@@@std@@PAX@std@@@2@XZ ; std::_Tree_comp_alloc<std::_Tmap_traits<int,BaseGameEntity *,std::less<int>,std::allocator<std::pair<int const ,BaseGameEntity *> >,0> >::_Getal
PUBLIC	?_Get_data@?$_Tree_comp_alloc@V?$_Tmap_traits@HPAVBaseGameEntity@@U?$less@H@std@@V?$allocator@U?$pair@$$CBHPAVBaseGameEntity@@@std@@@3@$0A@@std@@@std@@QAEAAV?$_Tree_val@U?$_Tree_simple_types@U?$pair@$$CBHPAVBaseGameEntity@@@std@@@std@@@2@XZ ; std::_Tree_comp_alloc<std::_Tmap_traits<int,BaseGameEntity *,std::less<int>,std::allocator<std::pair<int const ,BaseGameEntity *> >,0> >::_Get_data
PUBLIC	?_Get_data@?$_Tree_comp_alloc@V?$_Tmap_traits@HPAVBaseGameEntity@@U?$less@H@std@@V?$allocator@U?$pair@$$CBHPAVBaseGameEntity@@@std@@@3@$0A@@std@@@std@@QBEABV?$_Tree_val@U?$_Tree_simple_types@U?$pair@$$CBHPAVBaseGameEntity@@@std@@@std@@@2@XZ ; std::_Tree_comp_alloc<std::_Tmap_traits<int,BaseGameEntity *,std::less<int>,std::allocator<std::pair<int const ,BaseGameEntity *> >,0> >::_Get_data
PUBLIC	??R?$less@H@std@@QBE_NABH0@Z			; std::less<int>::operator()
PUBLIC	??0?$_Tree_val@U?$_Tree_simple_types@U?$pair@$$CBHPAVBaseGameEntity@@@std@@@std@@@std@@QAE@XZ ; std::_Tree_val<std::_Tree_simple_types<std::pair<int const ,BaseGameEntity *> > >::_Tree_val<std::_Tree_simple_types<std::pair<int const ,BaseGameEntity *> > >
PUBLIC	?_Max@?$_Tree_val@U?$_Tree_simple_types@U?$pair@$$CBHPAVBaseGameEntity@@@std@@@std@@@std@@SAPAU?$_Tree_node@U?$pair@$$CBHPAVBaseGameEntity@@@std@@PAX@2@PAU32@@Z ; std::_Tree_val<std::_Tree_simple_types<std::pair<int const ,BaseGameEntity *> > >::_Max
PUBLIC	?_Min@?$_Tree_val@U?$_Tree_simple_types@U?$pair@$$CBHPAVBaseGameEntity@@@std@@@std@@@std@@SAPAU?$_Tree_node@U?$pair@$$CBHPAVBaseGameEntity@@@std@@PAX@2@PAU32@@Z ; std::_Tree_val<std::_Tree_simple_types<std::pair<int const ,BaseGameEntity *> > >::_Min
PUBLIC	?_Root@?$_Tree_val@U?$_Tree_simple_types@U?$pair@$$CBHPAVBaseGameEntity@@@std@@@std@@@std@@QBEAAPAU?$_Tree_node@U?$pair@$$CBHPAVBaseGameEntity@@@std@@PAX@2@XZ ; std::_Tree_val<std::_Tree_simple_types<std::pair<int const ,BaseGameEntity *> > >::_Root
PUBLIC	?_Lmost@?$_Tree_val@U?$_Tree_simple_types@U?$pair@$$CBHPAVBaseGameEntity@@@std@@@std@@@std@@QBEAAPAU?$_Tree_node@U?$pair@$$CBHPAVBaseGameEntity@@@std@@PAX@2@XZ ; std::_Tree_val<std::_Tree_simple_types<std::pair<int const ,BaseGameEntity *> > >::_Lmost
PUBLIC	?_Rmost@?$_Tree_val@U?$_Tree_simple_types@U?$pair@$$CBHPAVBaseGameEntity@@@std@@@std@@@std@@QBEAAPAU?$_Tree_node@U?$pair@$$CBHPAVBaseGameEntity@@@std@@PAX@2@XZ ; std::_Tree_val<std::_Tree_simple_types<std::pair<int const ,BaseGameEntity *> > >::_Rmost
PUBLIC	?_Lrotate@?$_Tree_val@U?$_Tree_simple_types@U?$pair@$$CBHPAVBaseGameEntity@@@std@@@std@@@std@@QAEXPAU?$_Tree_node@U?$pair@$$CBHPAVBaseGameEntity@@@std@@PAX@2@@Z ; std::_Tree_val<std::_Tree_simple_types<std::pair<int const ,BaseGameEntity *> > >::_Lrotate
PUBLIC	?_Rrotate@?$_Tree_val@U?$_Tree_simple_types@U?$pair@$$CBHPAVBaseGameEntity@@@std@@@std@@@std@@QAEXPAU?$_Tree_node@U?$pair@$$CBHPAVBaseGameEntity@@@std@@PAX@2@@Z ; std::_Tree_val<std::_Tree_simple_types<std::pair<int const ,BaseGameEntity *> > >::_Rrotate
PUBLIC	?_Extract@?$_Tree_val@U?$_Tree_simple_types@U?$pair@$$CBHPAVBaseGameEntity@@@std@@@std@@@std@@QAEPAU?$_Tree_node@U?$pair@$$CBHPAVBaseGameEntity@@@std@@PAX@2@V?$_Tree_const_iterator@V?$_Tree_val@U?$_Tree_simple_types@U?$pair@$$CBHPAVBaseGameEntity@@@std@@@std@@@std@@@2@@Z ; std::_Tree_val<std::_Tree_simple_types<std::pair<int const ,BaseGameEntity *> > >::_Extract
PUBLIC	?_Get_first@?$_Compressed_pair@V?$allocator@U?$_Tree_node@U?$pair@$$CBHPAVBaseGameEntity@@@std@@PAX@std@@@std@@V?$_Tree_val@U?$_Tree_simple_types@U?$pair@$$CBHPAVBaseGameEntity@@@std@@@std@@@2@$00@std@@QAEAAV?$allocator@U?$_Tree_node@U?$pair@$$CBHPAVBaseGameEntity@@@std@@PAX@std@@@2@XZ ; std::_Compressed_pair<std::allocator<std::_Tree_node<std::pair<int const ,BaseGameEntity *>,void *> >,std::_Tree_val<std::_Tree_simple_types<std::pair<int const ,BaseGameEntity *> > >,1>::_Get_first
PUBLIC	?_Get_first@?$_Compressed_pair@V?$allocator@U?$_Tree_node@U?$pair@$$CBHPAVBaseGameEntity@@@std@@PAX@std@@@std@@V?$_Tree_val@U?$_Tree_simple_types@U?$pair@$$CBHPAVBaseGameEntity@@@std@@@std@@@2@$00@std@@QBEABV?$allocator@U?$_Tree_node@U?$pair@$$CBHPAVBaseGameEntity@@@std@@PAX@std@@@2@XZ ; std::_Compressed_pair<std::allocator<std::_Tree_node<std::pair<int const ,BaseGameEntity *>,void *> >,std::_Tree_val<std::_Tree_simple_types<std::pair<int const ,BaseGameEntity *> > >,1>::_Get_first
PUBLIC	?_Get_second@?$_Compressed_pair@V?$allocator@U?$_Tree_node@U?$pair@$$CBHPAVBaseGameEntity@@@std@@PAX@std@@@std@@V?$_Tree_val@U?$_Tree_simple_types@U?$pair@$$CBHPAVBaseGameEntity@@@std@@@std@@@2@$00@std@@QAEAAV?$_Tree_val@U?$_Tree_simple_types@U?$pair@$$CBHPAVBaseGameEntity@@@std@@@std@@@2@XZ ; std::_Compressed_pair<std::allocator<std::_Tree_node<std::pair<int const ,BaseGameEntity *>,void *> >,std::_Tree_val<std::_Tree_simple_types<std::pair<int const ,BaseGameEntity *> > >,1>::_Get_second
PUBLIC	?_Get_second@?$_Compressed_pair@V?$allocator@U?$_Tree_node@U?$pair@$$CBHPAVBaseGameEntity@@@std@@PAX@std@@@std@@V?$_Tree_val@U?$_Tree_simple_types@U?$pair@$$CBHPAVBaseGameEntity@@@std@@@std@@@2@$00@std@@QBEABV?$_Tree_val@U?$_Tree_simple_types@U?$pair@$$CBHPAVBaseGameEntity@@@std@@@std@@@2@XZ ; std::_Compressed_pair<std::allocator<std::_Tree_node<std::pair<int const ,BaseGameEntity *>,void *> >,std::_Tree_val<std::_Tree_simple_types<std::pair<int const ,BaseGameEntity *> > >,1>::_Get_second
PUBLIC	?_Get_first@?$_Compressed_pair@U?$less@H@std@@V?$_Compressed_pair@V?$allocator@U?$_Tree_node@U?$pair@$$CBHPAVBaseGameEntity@@@std@@PAX@std@@@std@@V?$_Tree_val@U?$_Tree_simple_types@U?$pair@$$CBHPAVBaseGameEntity@@@std@@@std@@@2@$00@2@$00@std@@QAEAAU?$less@H@2@XZ ; std::_Compressed_pair<std::less<int>,std::_Compressed_pair<std::allocator<std::_Tree_node<std::pair<int const ,BaseGameEntity *>,void *> >,std::_Tree_val<std::_Tree_simple_types<std::pair<int const ,BaseGameEntity *> > >,1>,1>::_Get_first
PUBLIC	?_Get_first@?$_Compressed_pair@U?$less@H@std@@V?$_Compressed_pair@V?$allocator@U?$_Tree_node@U?$pair@$$CBHPAVBaseGameEntity@@@std@@PAX@std@@@std@@V?$_Tree_val@U?$_Tree_simple_types@U?$pair@$$CBHPAVBaseGameEntity@@@std@@@std@@@2@$00@2@$00@std@@QBEABU?$less@H@2@XZ ; std::_Compressed_pair<std::less<int>,std::_Compressed_pair<std::allocator<std::_Tree_node<std::pair<int const ,BaseGameEntity *>,void *> >,std::_Tree_val<std::_Tree_simple_types<std::pair<int const ,BaseGameEntity *> > >,1>,1>::_Get_first
PUBLIC	?_Get_second@?$_Compressed_pair@U?$less@H@std@@V?$_Compressed_pair@V?$allocator@U?$_Tree_node@U?$pair@$$CBHPAVBaseGameEntity@@@std@@PAX@std@@@std@@V?$_Tree_val@U?$_Tree_simple_types@U?$pair@$$CBHPAVBaseGameEntity@@@std@@@std@@@2@$00@2@$00@std@@QAEAAV?$_Compressed_pair@V?$allocator@U?$_Tree_node@U?$pair@$$CBHPAVBaseGameEntity@@@std@@PAX@std@@@std@@V?$_Tree_val@U?$_Tree_simple_types@U?$pair@$$CBHPAVBaseGameEntity@@@std@@@std@@@2@$00@2@XZ ; std::_Compressed_pair<std::less<int>,std::_Compressed_pair<std::allocator<std::_Tree_node<std::pair<int const ,BaseGameEntity *>,void *> >,std::_Tree_val<std::_Tree_simple_types<std::pair<int const ,BaseGameEntity *> > >,1>,1>::_Get_second
PUBLIC	?_Get_second@?$_Compressed_pair@U?$less@H@std@@V?$_Compressed_pair@V?$allocator@U?$_Tree_node@U?$pair@$$CBHPAVBaseGameEntity@@@std@@PAX@std@@@std@@V?$_Tree_val@U?$_Tree_simple_types@U?$pair@$$CBHPAVBaseGameEntity@@@std@@@std@@@2@$00@2@$00@std@@QBEABV?$_Compressed_pair@V?$allocator@U?$_Tree_node@U?$pair@$$CBHPAVBaseGameEntity@@@std@@PAX@std@@@std@@V?$_Tree_val@U?$_Tree_simple_types@U?$pair@$$CBHPAVBaseGameEntity@@@std@@@std@@@2@$00@2@XZ ; std::_Compressed_pair<std::less<int>,std::_Compressed_pair<std::allocator<std::_Tree_node<std::pair<int const ,BaseGameEntity *>,void *> >,std::_Tree_val<std::_Tree_simple_types<std::pair<int const ,BaseGameEntity *> > >,1>,1>::_Get_second
PUBLIC	??0?$_Tree@V?$_Tmap_traits@HPAVBaseGameEntity@@U?$less@H@std@@V?$allocator@U?$pair@$$CBHPAVBaseGameEntity@@@std@@@3@$0A@@std@@@std@@QAE@ABU?$less@H@1@@Z ; std::_Tree<std::_Tmap_traits<int,BaseGameEntity *,std::less<int>,std::allocator<std::pair<int const ,BaseGameEntity *> >,0> >::_Tree<std::_Tmap_traits<int,BaseGameEntity *,std::less<int>,std::allocator<std::pair<int const ,BaseGameEntity *> >,0> >
PUBLIC	??1?$_Tree@V?$_Tmap_traits@HPAVBaseGameEntity@@U?$less@H@std@@V?$allocator@U?$pair@$$CBHPAVBaseGameEntity@@@std@@@3@$0A@@std@@@std@@QAE@XZ ; std::_Tree<std::_Tmap_traits<int,BaseGameEntity *,std::less<int>,std::allocator<std::pair<int const ,BaseGameEntity *> >,0> >::~_Tree<std::_Tmap_traits<int,BaseGameEntity *,std::less<int>,std::allocator<std::pair<int const ,BaseGameEntity *> >,0> >
PUBLIC	?begin@?$_Tree@V?$_Tmap_traits@HPAVBaseGameEntity@@U?$less@H@std@@V?$allocator@U?$pair@$$CBHPAVBaseGameEntity@@@std@@@3@$0A@@std@@@std@@QAE?AV?$_Tree_iterator@V?$_Tree_val@U?$_Tree_simple_types@U?$pair@$$CBHPAVBaseGameEntity@@@std@@@std@@@std@@@2@XZ ; std::_Tree<std::_Tmap_traits<int,BaseGameEntity *,std::less<int>,std::allocator<std::pair<int const ,BaseGameEntity *> >,0> >::begin
PUBLIC	?end@?$_Tree@V?$_Tmap_traits@HPAVBaseGameEntity@@U?$less@H@std@@V?$allocator@U?$pair@$$CBHPAVBaseGameEntity@@@std@@@3@$0A@@std@@@std@@QAE?AV?$_Tree_iterator@V?$_Tree_val@U?$_Tree_simple_types@U?$pair@$$CBHPAVBaseGameEntity@@@std@@@std@@@std@@@2@XZ ; std::_Tree<std::_Tmap_traits<int,BaseGameEntity *,std::less<int>,std::allocator<std::pair<int const ,BaseGameEntity *> >,0> >::end
PUBLIC	?end@?$_Tree@V?$_Tmap_traits@HPAVBaseGameEntity@@U?$less@H@std@@V?$allocator@U?$pair@$$CBHPAVBaseGameEntity@@@std@@@3@$0A@@std@@@std@@QBE?AV?$_Tree_const_iterator@V?$_Tree_val@U?$_Tree_simple_types@U?$pair@$$CBHPAVBaseGameEntity@@@std@@@std@@@std@@@2@XZ ; std::_Tree<std::_Tmap_traits<int,BaseGameEntity *,std::less<int>,std::allocator<std::pair<int const ,BaseGameEntity *> >,0> >::end
PUBLIC	?max_size@?$_Tree@V?$_Tmap_traits@HPAVBaseGameEntity@@U?$less@H@std@@V?$allocator@U?$pair@$$CBHPAVBaseGameEntity@@@std@@@3@$0A@@std@@@std@@QBEIXZ ; std::_Tree<std::_Tmap_traits<int,BaseGameEntity *,std::less<int>,std::allocator<std::pair<int const ,BaseGameEntity *> >,0> >::max_size
PUBLIC	?erase@?$_Tree@V?$_Tmap_traits@HPAVBaseGameEntity@@U?$less@H@std@@V?$allocator@U?$pair@$$CBHPAVBaseGameEntity@@@std@@@3@$0A@@std@@@std@@QAE?AV?$_Tree_iterator@V?$_Tree_val@U?$_Tree_simple_types@U?$pair@$$CBHPAVBaseGameEntity@@@std@@@std@@@std@@@2@V?$_Tree_const_iterator@V?$_Tree_val@U?$_Tree_simple_types@U?$pair@$$CBHPAVBaseGameEntity@@@std@@@std@@@std@@@2@@Z ; std::_Tree<std::_Tmap_traits<int,BaseGameEntity *,std::less<int>,std::allocator<std::pair<int const ,BaseGameEntity *> >,0> >::erase
PUBLIC	?erase@?$_Tree@V?$_Tmap_traits@HPAVBaseGameEntity@@U?$less@H@std@@V?$allocator@U?$pair@$$CBHPAVBaseGameEntity@@@std@@@3@$0A@@std@@@std@@QAE?AV?$_Tree_iterator@V?$_Tree_val@U?$_Tree_simple_types@U?$pair@$$CBHPAVBaseGameEntity@@@std@@@std@@@std@@@2@V?$_Tree_const_iterator@V?$_Tree_val@U?$_Tree_simple_types@U?$pair@$$CBHPAVBaseGameEntity@@@std@@@std@@@std@@@2@0@Z ; std::_Tree<std::_Tmap_traits<int,BaseGameEntity *,std::less<int>,std::allocator<std::pair<int const ,BaseGameEntity *> >,0> >::erase
PUBLIC	?clear@?$_Tree@V?$_Tmap_traits@HPAVBaseGameEntity@@U?$less@H@std@@V?$allocator@U?$pair@$$CBHPAVBaseGameEntity@@@std@@@3@$0A@@std@@@std@@QAEXXZ ; std::_Tree<std::_Tmap_traits<int,BaseGameEntity *,std::less<int>,std::allocator<std::pair<int const ,BaseGameEntity *> >,0> >::clear
PUBLIC	?find@?$_Tree@V?$_Tmap_traits@HPAVBaseGameEntity@@U?$less@H@std@@V?$allocator@U?$pair@$$CBHPAVBaseGameEntity@@@std@@@3@$0A@@std@@@std@@QAE?AV?$_Tree_iterator@V?$_Tree_val@U?$_Tree_simple_types@U?$pair@$$CBHPAVBaseGameEntity@@@std@@@std@@@std@@@2@ABH@Z ; std::_Tree<std::_Tmap_traits<int,BaseGameEntity *,std::less<int>,std::allocator<std::pair<int const ,BaseGameEntity *> >,0> >::find
PUBLIC	?find@?$_Tree@V?$_Tmap_traits@HPAVBaseGameEntity@@U?$less@H@std@@V?$allocator@U?$pair@$$CBHPAVBaseGameEntity@@@std@@@3@$0A@@std@@@std@@QBE?AV?$_Tree_const_iterator@V?$_Tree_val@U?$_Tree_simple_types@U?$pair@$$CBHPAVBaseGameEntity@@@std@@@std@@@std@@@2@ABH@Z ; std::_Tree<std::_Tmap_traits<int,BaseGameEntity *,std::less<int>,std::allocator<std::pair<int const ,BaseGameEntity *> >,0> >::find
PUBLIC	?lower_bound@?$_Tree@V?$_Tmap_traits@HPAVBaseGameEntity@@U?$less@H@std@@V?$allocator@U?$pair@$$CBHPAVBaseGameEntity@@@std@@@3@$0A@@std@@@std@@QAE?AV?$_Tree_iterator@V?$_Tree_val@U?$_Tree_simple_types@U?$pair@$$CBHPAVBaseGameEntity@@@std@@@std@@@std@@@2@ABH@Z ; std::_Tree<std::_Tmap_traits<int,BaseGameEntity *,std::less<int>,std::allocator<std::pair<int const ,BaseGameEntity *> >,0> >::lower_bound
PUBLIC	?lower_bound@?$_Tree@V?$_Tmap_traits@HPAVBaseGameEntity@@U?$less@H@std@@V?$allocator@U?$pair@$$CBHPAVBaseGameEntity@@@std@@@3@$0A@@std@@@std@@QBE?AV?$_Tree_const_iterator@V?$_Tree_val@U?$_Tree_simple_types@U?$pair@$$CBHPAVBaseGameEntity@@@std@@@std@@@std@@@2@ABH@Z ; std::_Tree<std::_Tmap_traits<int,BaseGameEntity *,std::less<int>,std::allocator<std::pair<int const ,BaseGameEntity *> >,0> >::lower_bound
PUBLIC	?_Destroy_if_node@?$_Tree@V?$_Tmap_traits@HPAVBaseGameEntity@@U?$less@H@std@@V?$allocator@U?$pair@$$CBHPAVBaseGameEntity@@@std@@@3@$0A@@std@@@std@@IAEXPAU?$_Tree_node@U?$pair@$$CBHPAVBaseGameEntity@@@std@@PAX@2@@Z ; std::_Tree<std::_Tmap_traits<int,BaseGameEntity *,std::less<int>,std::allocator<std::pair<int const ,BaseGameEntity *> >,0> >::_Destroy_if_node
PUBLIC	?_Erase@?$_Tree@V?$_Tmap_traits@HPAVBaseGameEntity@@U?$less@H@std@@V?$allocator@U?$pair@$$CBHPAVBaseGameEntity@@@std@@@3@$0A@@std@@@std@@IAEXPAU?$_Tree_node@U?$pair@$$CBHPAVBaseGameEntity@@@std@@PAX@2@@Z ; std::_Tree<std::_Tmap_traits<int,BaseGameEntity *,std::less<int>,std::allocator<std::pair<int const ,BaseGameEntity *> >,0> >::_Erase
PUBLIC	?_Compare@?$_Tree@V?$_Tmap_traits@HPAVBaseGameEntity@@U?$less@H@std@@V?$allocator@U?$pair@$$CBHPAVBaseGameEntity@@@std@@@3@$0A@@std@@@std@@IBE_NABH0@Z ; std::_Tree<std::_Tmap_traits<int,BaseGameEntity *,std::less<int>,std::allocator<std::pair<int const ,BaseGameEntity *> >,0> >::_Compare
PUBLIC	?_Orphan_ptr@?$_Tree@V?$_Tmap_traits@HPAVBaseGameEntity@@U?$less@H@std@@V?$allocator@U?$pair@$$CBHPAVBaseGameEntity@@@std@@@3@$0A@@std@@@std@@IAEXPAU?$_Tree_node@U?$pair@$$CBHPAVBaseGameEntity@@@std@@PAX@2@@Z ; std::_Tree<std::_Tmap_traits<int,BaseGameEntity *,std::less<int>,std::allocator<std::pair<int const ,BaseGameEntity *> >,0> >::_Orphan_ptr
PUBLIC	?_Tidy@?$_Tree@V?$_Tmap_traits@HPAVBaseGameEntity@@U?$less@H@std@@V?$allocator@U?$pair@$$CBHPAVBaseGameEntity@@@std@@@3@$0A@@std@@@std@@IAEXXZ ; std::_Tree<std::_Tmap_traits<int,BaseGameEntity *,std::less<int>,std::allocator<std::pair<int const ,BaseGameEntity *> >,0> >::_Tidy
PUBLIC	?_Kfn@?$_Tree@V?$_Tmap_traits@HPAVBaseGameEntity@@U?$less@H@std@@V?$allocator@U?$pair@$$CBHPAVBaseGameEntity@@@std@@@3@$0A@@std@@@std@@IBEABHABU?$pair@$$CBHPAVBaseGameEntity@@@2@@Z ; std::_Tree<std::_Tmap_traits<int,BaseGameEntity *,std::less<int>,std::allocator<std::pair<int const ,BaseGameEntity *> >,0> >::_Kfn
PUBLIC	?_Key@?$_Tree@V?$_Tmap_traits@HPAVBaseGameEntity@@U?$less@H@std@@V?$allocator@U?$pair@$$CBHPAVBaseGameEntity@@@std@@@3@$0A@@std@@@std@@IBEABHPAU?$_Tree_node@U?$pair@$$CBHPAVBaseGameEntity@@@std@@PAX@2@@Z ; std::_Tree<std::_Tmap_traits<int,BaseGameEntity *,std::less<int>,std::allocator<std::pair<int const ,BaseGameEntity *> >,0> >::_Key
PUBLIC	??0?$map@HPAVBaseGameEntity@@U?$less@H@std@@V?$allocator@U?$pair@$$CBHPAVBaseGameEntity@@@std@@@3@@std@@QAE@XZ ; std::map<int,BaseGameEntity *,std::less<int>,std::allocator<std::pair<int const ,BaseGameEntity *> > >::map<int,BaseGameEntity *,std::less<int>,std::allocator<std::pair<int const ,BaseGameEntity *> > >
PUBLIC	??1?$map@HPAVBaseGameEntity@@U?$less@H@std@@V?$allocator@U?$pair@$$CBHPAVBaseGameEntity@@@std@@@3@@std@@QAE@XZ ; std::map<int,BaseGameEntity *,std::less<int>,std::allocator<std::pair<int const ,BaseGameEntity *> > >::~map<int,BaseGameEntity *,std::less<int>,std::allocator<std::pair<int const ,BaseGameEntity *> > >
PUBLIC	??0EntityManager@@AAE@XZ			; EntityManager::EntityManager
PUBLIC	?Instance@EntityManager@@SAPAV1@XZ		; EntityManager::Instance
PUBLIC	?RegisterEntity@EntityManager@@QAEXPAVBaseGameEntity@@@Z ; EntityManager::RegisterEntity
PUBLIC	?GetEntityFromID@EntityManager@@QBEPAVBaseGameEntity@@H@Z ; EntityManager::GetEntityFromID
PUBLIC	?RemoveEntity@EntityManager@@QAEXPAVBaseGameEntity@@@Z ; EntityManager::RemoveEntity
PUBLIC	??1EntityManager@@QAE@XZ			; EntityManager::~EntityManager
PUBLIC	?ID@BaseGameEntity@@QBEHXZ			; BaseGameEntity::ID
PUBLIC	??0?$_Tree_unchecked_const_iterator@V?$_Tree_val@U?$_Tree_simple_types@U?$pair@$$CBHPAVBaseGameEntity@@@std@@@std@@@std@@U_Iterator_base12@2@@std@@QAE@PAU?$_Tree_node@U?$pair@$$CBHPAVBaseGameEntity@@@std@@PAX@1@PBV?$_Tree_val@U?$_Tree_simple_types@U?$pair@$$CBHPAVBaseGameEntity@@@std@@@std@@@1@@Z ; std::_Tree_unchecked_const_iterator<std::_Tree_val<std::_Tree_simple_types<std::pair<int const ,BaseGameEntity *> > >,std::_Iterator_base12>::_Tree_unchecked_const_iterator<std::_Tree_val<std::_Tree_simple_types<std::pair<int const ,BaseGameEntity *> > >,std::_Iterator_base12>
PUBLIC	??E?$_Tree_unchecked_const_iterator@V?$_Tree_val@U?$_Tree_simple_types@U?$pair@$$CBHPAVBaseGameEntity@@@std@@@std@@@std@@U_Iterator_base12@2@@std@@QAEAAV01@XZ ; std::_Tree_unchecked_const_iterator<std::_Tree_val<std::_Tree_simple_types<std::pair<int const ,BaseGameEntity *> > >,std::_Iterator_base12>::operator++
PUBLIC	??F?$_Tree_unchecked_const_iterator@V?$_Tree_val@U?$_Tree_simple_types@U?$pair@$$CBHPAVBaseGameEntity@@@std@@@std@@@std@@U_Iterator_base12@2@@std@@QAEAAV01@XZ ; std::_Tree_unchecked_const_iterator<std::_Tree_val<std::_Tree_simple_types<std::pair<int const ,BaseGameEntity *> > >,std::_Iterator_base12>::operator--
PUBLIC	??1?$_Tree_unchecked_const_iterator@V?$_Tree_val@U?$_Tree_simple_types@U?$pair@$$CBHPAVBaseGameEntity@@@std@@@std@@@std@@U_Iterator_base12@2@@std@@QAE@XZ ; std::_Tree_unchecked_const_iterator<std::_Tree_val<std::_Tree_simple_types<std::pair<int const ,BaseGameEntity *> > >,std::_Iterator_base12>::~_Tree_unchecked_const_iterator<std::_Tree_val<std::_Tree_simple_types<std::pair<int const ,BaseGameEntity *> > >,std::_Iterator_base12>
PUBLIC	??0?$_Tree_unchecked_const_iterator@V?$_Tree_val@U?$_Tree_simple_types@U?$pair@$$CBHPAVBaseGameEntity@@@std@@@std@@@std@@U_Iterator_base12@2@@std@@QAE@ABV01@@Z ; std::_Tree_unchecked_const_iterator<std::_Tree_val<std::_Tree_simple_types<std::pair<int const ,BaseGameEntity *> > >,std::_Iterator_base12>::_Tree_unchecked_const_iterator<std::_Tree_val<std::_Tree_simple_types<std::pair<int const ,BaseGameEntity *> > >,std::_Iterator_base12>
PUBLIC	??0?$_Tree_unchecked_const_iterator@V?$_Tree_val@U?$_Tree_simple_types@U?$pair@$$CBHPAVBaseGameEntity@@@std@@@std@@@std@@U_Iterator_base12@2@@std@@QAE@$$QAV01@@Z ; std::_Tree_unchecked_const_iterator<std::_Tree_val<std::_Tree_simple_types<std::pair<int const ,BaseGameEntity *> > >,std::_Iterator_base12>::_Tree_unchecked_const_iterator<std::_Tree_val<std::_Tree_simple_types<std::pair<int const ,BaseGameEntity *> > >,std::_Iterator_base12>
PUBLIC	??0?$_Tree_const_iterator@V?$_Tree_val@U?$_Tree_simple_types@U?$pair@$$CBHPAVBaseGameEntity@@@std@@@std@@@std@@@std@@QAE@PAU?$_Tree_node@U?$pair@$$CBHPAVBaseGameEntity@@@std@@PAX@1@PBV?$_Tree_val@U?$_Tree_simple_types@U?$pair@$$CBHPAVBaseGameEntity@@@std@@@std@@@1@@Z ; std::_Tree_const_iterator<std::_Tree_val<std::_Tree_simple_types<std::pair<int const ,BaseGameEntity *> > > >::_Tree_const_iterator<std::_Tree_val<std::_Tree_simple_types<std::pair<int const ,BaseGameEntity *> > > >
PUBLIC	??D?$_Tree_const_iterator@V?$_Tree_val@U?$_Tree_simple_types@U?$pair@$$CBHPAVBaseGameEntity@@@std@@@std@@@std@@@std@@QBEABU?$pair@$$CBHPAVBaseGameEntity@@@1@XZ ; std::_Tree_const_iterator<std::_Tree_val<std::_Tree_simple_types<std::pair<int const ,BaseGameEntity *> > > >::operator*
PUBLIC	??C?$_Tree_const_iterator@V?$_Tree_val@U?$_Tree_simple_types@U?$pair@$$CBHPAVBaseGameEntity@@@std@@@std@@@std@@@std@@QBEPBU?$pair@$$CBHPAVBaseGameEntity@@@1@XZ ; std::_Tree_const_iterator<std::_Tree_val<std::_Tree_simple_types<std::pair<int const ,BaseGameEntity *> > > >::operator->
PUBLIC	??E?$_Tree_const_iterator@V?$_Tree_val@U?$_Tree_simple_types@U?$pair@$$CBHPAVBaseGameEntity@@@std@@@std@@@std@@@std@@QAEAAV01@XZ ; std::_Tree_const_iterator<std::_Tree_val<std::_Tree_simple_types<std::pair<int const ,BaseGameEntity *> > > >::operator++
PUBLIC	??E?$_Tree_const_iterator@V?$_Tree_val@U?$_Tree_simple_types@U?$pair@$$CBHPAVBaseGameEntity@@@std@@@std@@@std@@@std@@QAE?AV01@H@Z ; std::_Tree_const_iterator<std::_Tree_val<std::_Tree_simple_types<std::pair<int const ,BaseGameEntity *> > > >::operator++
PUBLIC	??F?$_Tree_const_iterator@V?$_Tree_val@U?$_Tree_simple_types@U?$pair@$$CBHPAVBaseGameEntity@@@std@@@std@@@std@@@std@@QAEAAV01@XZ ; std::_Tree_const_iterator<std::_Tree_val<std::_Tree_simple_types<std::pair<int const ,BaseGameEntity *> > > >::operator--
PUBLIC	??8?$_Tree_const_iterator@V?$_Tree_val@U?$_Tree_simple_types@U?$pair@$$CBHPAVBaseGameEntity@@@std@@@std@@@std@@@std@@QBE_NABV01@@Z ; std::_Tree_const_iterator<std::_Tree_val<std::_Tree_simple_types<std::pair<int const ,BaseGameEntity *> > > >::operator==
PUBLIC	??9?$_Tree_const_iterator@V?$_Tree_val@U?$_Tree_simple_types@U?$pair@$$CBHPAVBaseGameEntity@@@std@@@std@@@std@@@std@@QBE_NABV01@@Z ; std::_Tree_const_iterator<std::_Tree_val<std::_Tree_simple_types<std::pair<int const ,BaseGameEntity *> > > >::operator!=
PUBLIC	??1?$_Tree_const_iterator@V?$_Tree_val@U?$_Tree_simple_types@U?$pair@$$CBHPAVBaseGameEntity@@@std@@@std@@@std@@@std@@QAE@XZ ; std::_Tree_const_iterator<std::_Tree_val<std::_Tree_simple_types<std::pair<int const ,BaseGameEntity *> > > >::~_Tree_const_iterator<std::_Tree_val<std::_Tree_simple_types<std::pair<int const ,BaseGameEntity *> > > >
PUBLIC	??0?$_Tree_const_iterator@V?$_Tree_val@U?$_Tree_simple_types@U?$pair@$$CBHPAVBaseGameEntity@@@std@@@std@@@std@@@std@@QAE@ABV01@@Z ; std::_Tree_const_iterator<std::_Tree_val<std::_Tree_simple_types<std::pair<int const ,BaseGameEntity *> > > >::_Tree_const_iterator<std::_Tree_val<std::_Tree_simple_types<std::pair<int const ,BaseGameEntity *> > > >
PUBLIC	??0?$_Tree_const_iterator@V?$_Tree_val@U?$_Tree_simple_types@U?$pair@$$CBHPAVBaseGameEntity@@@std@@@std@@@std@@@std@@QAE@$$QAV01@@Z ; std::_Tree_const_iterator<std::_Tree_val<std::_Tree_simple_types<std::pair<int const ,BaseGameEntity *> > > >::_Tree_const_iterator<std::_Tree_val<std::_Tree_simple_types<std::pair<int const ,BaseGameEntity *> > > >
PUBLIC	??0?$_Tree_iterator@V?$_Tree_val@U?$_Tree_simple_types@U?$pair@$$CBHPAVBaseGameEntity@@@std@@@std@@@std@@@std@@QAE@PAU?$_Tree_node@U?$pair@$$CBHPAVBaseGameEntity@@@std@@PAX@1@PBV?$_Tree_val@U?$_Tree_simple_types@U?$pair@$$CBHPAVBaseGameEntity@@@std@@@std@@@1@@Z ; std::_Tree_iterator<std::_Tree_val<std::_Tree_simple_types<std::pair<int const ,BaseGameEntity *> > > >::_Tree_iterator<std::_Tree_val<std::_Tree_simple_types<std::pair<int const ,BaseGameEntity *> > > >
PUBLIC	??F?$_Tree_iterator@V?$_Tree_val@U?$_Tree_simple_types@U?$pair@$$CBHPAVBaseGameEntity@@@std@@@std@@@std@@@std@@QAEAAV01@XZ ; std::_Tree_iterator<std::_Tree_val<std::_Tree_simple_types<std::pair<int const ,BaseGameEntity *> > > >::operator--
PUBLIC	??1?$_Tree_iterator@V?$_Tree_val@U?$_Tree_simple_types@U?$pair@$$CBHPAVBaseGameEntity@@@std@@@std@@@std@@@std@@QAE@XZ ; std::_Tree_iterator<std::_Tree_val<std::_Tree_simple_types<std::pair<int const ,BaseGameEntity *> > > >::~_Tree_iterator<std::_Tree_val<std::_Tree_simple_types<std::pair<int const ,BaseGameEntity *> > > >
PUBLIC	??0?$_Tree_iterator@V?$_Tree_val@U?$_Tree_simple_types@U?$pair@$$CBHPAVBaseGameEntity@@@std@@@std@@@std@@@std@@QAE@ABV01@@Z ; std::_Tree_iterator<std::_Tree_val<std::_Tree_simple_types<std::pair<int const ,BaseGameEntity *> > > >::_Tree_iterator<std::_Tree_val<std::_Tree_simple_types<std::pair<int const ,BaseGameEntity *> > > >
PUBLIC	??0?$_Tree_iterator@V?$_Tree_val@U?$_Tree_simple_types@U?$pair@$$CBHPAVBaseGameEntity@@@std@@@std@@@std@@@std@@QAE@$$QAV01@@Z ; std::_Tree_iterator<std::_Tree_val<std::_Tree_simple_types<std::pair<int const ,BaseGameEntity *> > > >::_Tree_iterator<std::_Tree_val<std::_Tree_simple_types<std::pair<int const ,BaseGameEntity *> > > >
PUBLIC	??$erase@V?$_Tree_iterator@V?$_Tree_val@U?$_Tree_simple_types@U?$pair@$$CBHPAVBaseGameEntity@@@std@@@std@@@std@@@std@@X@?$_Tree@V?$_Tmap_traits@HPAVBaseGameEntity@@U?$less@H@std@@V?$allocator@U?$pair@$$CBHPAVBaseGameEntity@@@std@@@3@$0A@@std@@@std@@QAE?AV?$_Tree_iterator@V?$_Tree_val@U?$_Tree_simple_types@U?$pair@$$CBHPAVBaseGameEntity@@@std@@@std@@@std@@@1@V21@@Z ; std::_Tree<std::_Tmap_traits<int,BaseGameEntity *,std::less<int>,std::allocator<std::pair<int const ,BaseGameEntity *> >,0> >::erase<std::_Tree_iterator<std::_Tree_val<std::_Tree_simple_types<std::pair<int const ,BaseGameEntity *> > > >,void>
PUBLIC	??$make_pair@HAAPAVBaseGameEntity@@@std@@YA?AU?$pair@HPAVBaseGameEntity@@@0@$$QAHAAPAVBaseGameEntity@@@Z ; std::make_pair<int,BaseGameEntity * &>
PUBLIC	??$?0HPAVBaseGameEntity@@$0A@@?$pair@$$CBHPAVBaseGameEntity@@@std@@QAE@$$QAU?$pair@HPAVBaseGameEntity@@@1@@Z ; std::pair<int const ,BaseGameEntity *>::pair<int const ,BaseGameEntity *><int,BaseGameEntity *,0>
PUBLIC	??$insert@U?$pair@HPAVBaseGameEntity@@@std@@X@?$map@HPAVBaseGameEntity@@U?$less@H@std@@V?$allocator@U?$pair@$$CBHPAVBaseGameEntity@@@std@@@3@@std@@QAE?AU?$pair@V?$_Tree_iterator@V?$_Tree_val@U?$_Tree_simple_types@U?$pair@$$CBHPAVBaseGameEntity@@@std@@@std@@@std@@@std@@_N@1@$$QAU?$pair@HPAVBaseGameEntity@@@1@@Z ; std::map<int,BaseGameEntity *,std::less<int>,std::allocator<std::pair<int const ,BaseGameEntity *> > >::insert<std::pair<int,BaseGameEntity *>,void>
PUBLIC	??1?$pair@V?$_Tree_iterator@V?$_Tree_val@U?$_Tree_simple_types@U?$pair@$$CBHPAVBaseGameEntity@@@std@@@std@@@std@@@std@@_N@std@@QAE@XZ ; std::pair<std::_Tree_iterator<std::_Tree_val<std::_Tree_simple_types<std::pair<int const ,BaseGameEntity *> > > >,bool>::~pair<std::_Tree_iterator<std::_Tree_val<std::_Tree_simple_types<std::pair<int const ,BaseGameEntity *> > > >,bool>
PUBLIC	?pointer_to@?$pointer_traits@PBU?$pair@$$CBHPAVBaseGameEntity@@@std@@@std@@SAPBU?$pair@$$CBHPAVBaseGameEntity@@@2@ABU32@@Z ; std::pointer_traits<std::pair<int const ,BaseGameEntity *> const *>::pointer_to
PUBLIC	??$_Debug_lt_pred@ABU?$less@H@std@@ABHABH@std@@YA_NABU?$less@H@0@ABH1@Z ; std::_Debug_lt_pred<std::less<int> const &,int const &,int const &>
PUBLIC	??$_Debug_lt_pred@AAU?$less@H@std@@ABHABH@std@@YA_NAAU?$less@H@0@ABH1@Z ; std::_Debug_lt_pred<std::less<int> &,int const &,int const &>
PUBLIC	??$addressof@$$CBV?$_Tree_val@U?$_Tree_simple_types@U?$pair@$$CBHPAVBaseGameEntity@@@std@@@std@@@std@@@std@@YAPBV?$_Tree_val@U?$_Tree_simple_types@U?$pair@$$CBHPAVBaseGameEntity@@@std@@@std@@@0@ABV10@@Z ; std::addressof<std::_Tree_val<std::_Tree_simple_types<std::pair<int const ,BaseGameEntity *> > > const >
PUBLIC	??$addressof@$$CBU?$pair@$$CBHPAVBaseGameEntity@@@std@@@std@@YAPBU?$pair@$$CBHPAVBaseGameEntity@@@0@ABU10@@Z ; std::addressof<std::pair<int const ,BaseGameEntity *> const >
PUBLIC	??$addressof@U?$pair@$$CBHPAVBaseGameEntity@@@std@@@std@@YAPAU?$pair@$$CBHPAVBaseGameEntity@@@0@AAU10@@Z ; std::addressof<std::pair<int const ,BaseGameEntity *> >
PUBLIC	??$destroy@U?$pair@$$CBHPAVBaseGameEntity@@@std@@@?$_Default_allocator_traits@V?$allocator@U?$_Tree_node@U?$pair@$$CBHPAVBaseGameEntity@@@std@@PAX@std@@@std@@@std@@SAXAAV?$allocator@U?$_Tree_node@U?$pair@$$CBHPAVBaseGameEntity@@@std@@PAX@std@@@1@QAU?$pair@$$CBHPAVBaseGameEntity@@@1@@Z ; std::_Default_allocator_traits<std::allocator<std::_Tree_node<std::pair<int const ,BaseGameEntity *>,void *> > >::destroy<std::pair<int const ,BaseGameEntity *> >
PUBLIC	??$_Freenode0@V?$allocator@U?$_Tree_node@U?$pair@$$CBHPAVBaseGameEntity@@@std@@PAX@std@@@std@@@?$_Tree_node@U?$pair@$$CBHPAVBaseGameEntity@@@std@@PAX@std@@SAXAAV?$allocator@U?$_Tree_node@U?$pair@$$CBHPAVBaseGameEntity@@@std@@PAX@std@@@1@PAU01@@Z ; std::_Tree_node<std::pair<int const ,BaseGameEntity *>,void *>::_Freenode0<std::allocator<std::_Tree_node<std::pair<int const ,BaseGameEntity *>,void *> > >
PUBLIC	??$_Lbound@H@?$_Tree@V?$_Tmap_traits@HPAVBaseGameEntity@@U?$less@H@std@@V?$allocator@U?$pair@$$CBHPAVBaseGameEntity@@@std@@@3@$0A@@std@@@std@@IBEPAU?$_Tree_node@U?$pair@$$CBHPAVBaseGameEntity@@@std@@PAX@1@ABH@Z ; std::_Tree<std::_Tmap_traits<int,BaseGameEntity *,std::less<int>,std::allocator<std::pair<int const ,BaseGameEntity *> >,0> >::_Lbound<int>
PUBLIC	??$addressof@V?$_Tree_val@U?$_Tree_simple_types@U?$pair@$$CBHPAVBaseGameEntity@@@std@@@std@@@std@@@std@@YAPAV?$_Tree_val@U?$_Tree_simple_types@U?$pair@$$CBHPAVBaseGameEntity@@@std@@@std@@@0@AAV10@@Z ; std::addressof<std::_Tree_val<std::_Tree_simple_types<std::pair<int const ,BaseGameEntity *> > > >
PUBLIC	??$_Allocate@$07U_Default_allocate_traits@std@@$0A@@std@@YAPAXI@Z ; std::_Allocate<8,std::_Default_allocate_traits,0>
PUBLIC	??$_Deallocate@$07$0A@@std@@YAXPAXI@Z		; std::_Deallocate<8,0>
PUBLIC	?allocate@?$allocator@U_Container_proxy@std@@@std@@QAEPAU_Container_proxy@2@I@Z ; std::allocator<std::_Container_proxy>::allocate
PUBLIC	?deallocate@?$_Default_allocator_traits@V?$allocator@U_Container_proxy@std@@@std@@@std@@SAXAAV?$allocator@U_Container_proxy@std@@@2@QAU_Container_proxy@2@I@Z ; std::_Default_allocator_traits<std::allocator<std::_Container_proxy> >::deallocate
PUBLIC	??$destroy@U_Container_proxy@std@@@?$_Default_allocator_traits@V?$allocator@U_Container_proxy@std@@@std@@@std@@SAXAAV?$allocator@U_Container_proxy@std@@@1@QAU_Container_proxy@1@@Z ; std::_Default_allocator_traits<std::allocator<std::_Container_proxy> >::destroy<std::_Container_proxy>
PUBLIC	??$_Deallocate_plain@V?$allocator@U_Container_proxy@std@@@std@@$0A@@std@@YAXAAV?$allocator@U_Container_proxy@std@@@0@QAU_Container_proxy@0@@Z ; std::_Deallocate_plain<std::allocator<std::_Container_proxy>,0>
PUBLIC	??$_Unfancy@U_Container_proxy@std@@@std@@YAPAU_Container_proxy@0@PAU10@@Z ; std::_Unfancy<std::_Container_proxy>
PUBLIC	??$construct@U_Container_proxy@std@@U12@@?$_Default_allocator_traits@V?$allocator@U_Container_proxy@std@@@std@@@std@@SAXAAV?$allocator@U_Container_proxy@std@@@1@QAU_Container_proxy@1@$$QAU31@@Z ; std::_Default_allocator_traits<std::allocator<std::_Container_proxy> >::construct<std::_Container_proxy,std::_Container_proxy>
PUBLIC	??$?0U?$_Tree_node@U?$pair@$$CBHPAVBaseGameEntity@@@std@@PAX@std@@@?$allocator@U_Container_proxy@std@@@std@@QAE@ABV?$allocator@U?$_Tree_node@U?$pair@$$CBHPAVBaseGameEntity@@@std@@PAX@std@@@1@@Z ; std::allocator<std::_Container_proxy>::allocator<std::_Container_proxy><std::_Tree_node<std::pair<int const ,BaseGameEntity *>,void *> >
PUBLIC	??$?0ABU?$less@H@std@@U_Zero_then_variadic_args_t@1@@?$_Compressed_pair@U?$less@H@std@@V?$_Compressed_pair@V?$allocator@U?$_Tree_node@U?$pair@$$CBHPAVBaseGameEntity@@@std@@PAX@std@@@std@@V?$_Tree_val@U?$_Tree_simple_types@U?$pair@$$CBHPAVBaseGameEntity@@@std@@@std@@@2@$00@2@$00@std@@QAE@U_One_then_variadic_args_t@1@ABU?$less@H@1@$$QAU_Zero_then_variadic_args_t@1@@Z ; std::_Compressed_pair<std::less<int>,std::_Compressed_pair<std::allocator<std::_Tree_node<std::pair<int const ,BaseGameEntity *>,void *> >,std::_Tree_val<std::_Tree_simple_types<std::pair<int const ,BaseGameEntity *> > >,1>,1>::_Compressed_pair<std::less<int>,std::_Compressed_pair<std::allocator<std::_Tree_node<std::pair<int const ,BaseGameEntity *>,void *> >,std::_Tree_val<std::_Tree_simple_types<std::pair<int const ,BaseGameEntity *> > >,1>,1><std::less<int> const &,std::_Zero_then_variadic_args_t>
PUBLIC	??$_Kfn@$$CBHPAVBaseGameEntity@@@?$_Tmap_traits@HPAVBaseGameEntity@@U?$less@H@std@@V?$allocator@U?$pair@$$CBHPAVBaseGameEntity@@@std@@@3@$0A@@std@@SAABHABU?$pair@$$CBHPAVBaseGameEntity@@@1@@Z ; std::_Tmap_traits<int,BaseGameEntity *,std::less<int>,std::allocator<std::pair<int const ,BaseGameEntity *> >,0>::_Kfn<int const ,BaseGameEntity *>
PUBLIC	??$_Get_size_of_n@$07@std@@YAII@Z		; std::_Get_size_of_n<8>
PUBLIC	??$swap@DX@std@@YAXAAD0@Z			; std::swap<char,void>
PUBLIC	??$addressof@PAU?$_Tree_node@U?$pair@$$CBHPAVBaseGameEntity@@@std@@PAX@std@@@std@@YAPAPAU?$_Tree_node@U?$pair@$$CBHPAVBaseGameEntity@@@std@@PAX@0@AAPAU10@@Z ; std::addressof<std::_Tree_node<std::pair<int const ,BaseGameEntity *>,void *> *>
PUBLIC	??$construct@PAU?$_Tree_node@U?$pair@$$CBHPAVBaseGameEntity@@@std@@PAX@std@@AAPAU12@@?$_Default_allocator_traits@V?$allocator@U?$_Tree_node@U?$pair@$$CBHPAVBaseGameEntity@@@std@@PAX@std@@@std@@@std@@SAXAAV?$allocator@U?$_Tree_node@U?$pair@$$CBHPAVBaseGameEntity@@@std@@PAX@std@@@1@QAPAU?$_Tree_node@U?$pair@$$CBHPAVBaseGameEntity@@@std@@PAX@1@AAPAU31@@Z ; std::_Default_allocator_traits<std::allocator<std::_Tree_node<std::pair<int const ,BaseGameEntity *>,void *> > >::construct<std::_Tree_node<std::pair<int const ,BaseGameEntity *>,void *> *,std::_Tree_node<std::pair<int const ,BaseGameEntity *>,void *> * &>
PUBLIC	??$_Get_size_of_n@$0BI@@std@@YAII@Z		; std::_Get_size_of_n<24>
PUBLIC	??$forward@H@std@@YA$$QAHAAH@Z			; std::forward<int>
PUBLIC	??$forward@AAPAVBaseGameEntity@@@std@@YAAAPAVBaseGameEntity@@AAPAV1@@Z ; std::forward<BaseGameEntity * &>
PUBLIC	??$?0HAAPAVBaseGameEntity@@$0A@@?$pair@HPAVBaseGameEntity@@@std@@QAE@$$QAHAAPAVBaseGameEntity@@@Z ; std::pair<int,BaseGameEntity *>::pair<int,BaseGameEntity *><int,BaseGameEntity * &,0>
PUBLIC	??$forward@U?$pair@HPAVBaseGameEntity@@@std@@@std@@YA$$QAU?$pair@HPAVBaseGameEntity@@@0@AAU10@@Z ; std::forward<std::pair<int,BaseGameEntity *> >
PUBLIC	??$emplace@U?$pair@HPAVBaseGameEntity@@@std@@@?$_Tree@V?$_Tmap_traits@HPAVBaseGameEntity@@U?$less@H@std@@V?$allocator@U?$pair@$$CBHPAVBaseGameEntity@@@std@@@3@$0A@@std@@@std@@QAE?AU?$pair@V?$_Tree_iterator@V?$_Tree_val@U?$_Tree_simple_types@U?$pair@$$CBHPAVBaseGameEntity@@@std@@@std@@@std@@@std@@_N@1@$$QAU?$pair@HPAVBaseGameEntity@@@1@@Z ; std::_Tree<std::_Tmap_traits<int,BaseGameEntity *,std::less<int>,std::allocator<std::pair<int const ,BaseGameEntity *> >,0> >::emplace<std::pair<int,BaseGameEntity *> >
PUBLIC	??$destroy@PAU?$_Tree_node@U?$pair@$$CBHPAVBaseGameEntity@@@std@@PAX@std@@@?$_Default_allocator_traits@V?$allocator@U?$_Tree_node@U?$pair@$$CBHPAVBaseGameEntity@@@std@@PAX@std@@@std@@@std@@SAXAAV?$allocator@U?$_Tree_node@U?$pair@$$CBHPAVBaseGameEntity@@@std@@PAX@std@@@1@QAPAU?$_Tree_node@U?$pair@$$CBHPAVBaseGameEntity@@@std@@PAX@1@@Z ; std::_Default_allocator_traits<std::allocator<std::_Tree_node<std::pair<int const ,BaseGameEntity *>,void *> > >::destroy<std::_Tree_node<std::pair<int const ,BaseGameEntity *>,void *> *>
PUBLIC	??$_Allocate_manually_vector_aligned@U_Default_allocate_traits@std@@@std@@YAPAXI@Z ; std::_Allocate_manually_vector_aligned<std::_Default_allocate_traits>
PUBLIC	??$forward@U_Container_proxy@std@@@std@@YA$$QAU_Container_proxy@0@AAU10@@Z ; std::forward<std::_Container_proxy>
PUBLIC	??$forward@ABU?$less@H@std@@@std@@YAABU?$less@H@0@ABU10@@Z ; std::forward<std::less<int> const &>
PUBLIC	??$forward@U_Zero_then_variadic_args_t@std@@@std@@YA$$QAU_Zero_then_variadic_args_t@0@AAU10@@Z ; std::forward<std::_Zero_then_variadic_args_t>
PUBLIC	??$?0$$V@?$_Compressed_pair@V?$allocator@U?$_Tree_node@U?$pair@$$CBHPAVBaseGameEntity@@@std@@PAX@std@@@std@@V?$_Tree_val@U?$_Tree_simple_types@U?$pair@$$CBHPAVBaseGameEntity@@@std@@@std@@@2@$00@std@@QAE@U_Zero_then_variadic_args_t@1@@Z ; std::_Compressed_pair<std::allocator<std::_Tree_node<std::pair<int const ,BaseGameEntity *>,void *> >,std::_Tree_val<std::_Tree_simple_types<std::pair<int const ,BaseGameEntity *> > >,1>::_Compressed_pair<std::allocator<std::_Tree_node<std::pair<int const ,BaseGameEntity *>,void *> >,std::_Tree_val<std::_Tree_simple_types<std::pair<int const ,BaseGameEntity *> > >,1><>
PUBLIC	??$move@AAD@std@@YA$$QADAAD@Z			; std::move<char &>
PUBLIC	??$forward@AAPAU?$_Tree_node@U?$pair@$$CBHPAVBaseGameEntity@@@std@@PAX@std@@@std@@YAAAPAU?$_Tree_node@U?$pair@$$CBHPAVBaseGameEntity@@@std@@PAX@0@AAPAU10@@Z ; std::forward<std::_Tree_node<std::pair<int const ,BaseGameEntity *>,void *> * &>
PUBLIC	??$_Buynode@U?$pair@HPAVBaseGameEntity@@@std@@@?$_Tree_comp_alloc@V?$_Tmap_traits@HPAVBaseGameEntity@@U?$less@H@std@@V?$allocator@U?$pair@$$CBHPAVBaseGameEntity@@@std@@@3@$0A@@std@@@std@@QAEPAU?$_Tree_node@U?$pair@$$CBHPAVBaseGameEntity@@@std@@PAX@1@$$QAU?$pair@HPAVBaseGameEntity@@@1@@Z ; std::_Tree_comp_alloc<std::_Tmap_traits<int,BaseGameEntity *,std::less<int>,std::allocator<std::pair<int const ,BaseGameEntity *> >,0> >::_Buynode<std::pair<int,BaseGameEntity *> >
PUBLIC	??$_Insert_nohint@AAU?$pair@$$CBHPAVBaseGameEntity@@@std@@PAU?$_Tree_node@U?$pair@$$CBHPAVBaseGameEntity@@@std@@PAX@2@@?$_Tree@V?$_Tmap_traits@HPAVBaseGameEntity@@U?$less@H@std@@V?$allocator@U?$pair@$$CBHPAVBaseGameEntity@@@std@@@3@$0A@@std@@@std@@IAE?AU?$pair@V?$_Tree_iterator@V?$_Tree_val@U?$_Tree_simple_types@U?$pair@$$CBHPAVBaseGameEntity@@@std@@@std@@@std@@@std@@_N@1@_NAAU?$pair@$$CBHPAVBaseGameEntity@@@1@PAU?$_Tree_node@U?$pair@$$CBHPAVBaseGameEntity@@@std@@PAX@1@@Z ; std::_Tree<std::_Tmap_traits<int,BaseGameEntity *,std::less<int>,std::allocator<std::pair<int const ,BaseGameEntity *> >,0> >::_Insert_nohint<std::pair<int const ,BaseGameEntity *> &,std::_Tree_node<std::pair<int const ,BaseGameEntity *>,void *> *>
PUBLIC	??$construct@U?$pair@$$CBHPAVBaseGameEntity@@@std@@U?$pair@HPAVBaseGameEntity@@@2@@?$_Default_allocator_traits@V?$allocator@U?$_Tree_node@U?$pair@$$CBHPAVBaseGameEntity@@@std@@PAX@std@@@std@@@std@@SAXAAV?$allocator@U?$_Tree_node@U?$pair@$$CBHPAVBaseGameEntity@@@std@@PAX@std@@@1@QAU?$pair@$$CBHPAVBaseGameEntity@@@1@$$QAU?$pair@HPAVBaseGameEntity@@@1@@Z ; std::_Default_allocator_traits<std::allocator<std::_Tree_node<std::pair<int const ,BaseGameEntity *>,void *> > >::construct<std::pair<int const ,BaseGameEntity *>,std::pair<int,BaseGameEntity *> >
PUBLIC	??$forward@AAU?$pair@$$CBHPAVBaseGameEntity@@@std@@@std@@YAAAU?$pair@$$CBHPAVBaseGameEntity@@@0@AAU10@@Z ; std::forward<std::pair<int const ,BaseGameEntity *> &>
PUBLIC	??$_Insert_at@AAU?$pair@$$CBHPAVBaseGameEntity@@@std@@PAU?$_Tree_node@U?$pair@$$CBHPAVBaseGameEntity@@@std@@PAX@2@@?$_Tree@V?$_Tmap_traits@HPAVBaseGameEntity@@U?$less@H@std@@V?$allocator@U?$pair@$$CBHPAVBaseGameEntity@@@std@@@3@$0A@@std@@@std@@IAE?AV?$_Tree_iterator@V?$_Tree_val@U?$_Tree_simple_types@U?$pair@$$CBHPAVBaseGameEntity@@@std@@@std@@@std@@@1@_NPAU?$_Tree_node@U?$pair@$$CBHPAVBaseGameEntity@@@std@@PAX@1@AAU?$pair@$$CBHPAVBaseGameEntity@@@1@1@Z ; std::_Tree<std::_Tmap_traits<int,BaseGameEntity *,std::less<int>,std::allocator<std::pair<int const ,BaseGameEntity *> >,0> >::_Insert_at<std::pair<int const ,BaseGameEntity *> &,std::_Tree_node<std::pair<int const ,BaseGameEntity *>,void *> *>
PUBLIC	??$?0V?$_Tree_iterator@V?$_Tree_val@U?$_Tree_simple_types@U?$pair@$$CBHPAVBaseGameEntity@@@std@@@std@@@std@@@std@@_N$0A@@?$pair@V?$_Tree_iterator@V?$_Tree_val@U?$_Tree_simple_types@U?$pair@$$CBHPAVBaseGameEntity@@@std@@@std@@@std@@@std@@_N@std@@QAE@$$QAV?$_Tree_iterator@V?$_Tree_val@U?$_Tree_simple_types@U?$pair@$$CBHPAVBaseGameEntity@@@std@@@std@@@std@@@1@$$QA_N@Z ; std::pair<std::_Tree_iterator<std::_Tree_val<std::_Tree_simple_types<std::pair<int const ,BaseGameEntity *> > > >,bool>::pair<std::_Tree_iterator<std::_Tree_val<std::_Tree_simple_types<std::pair<int const ,BaseGameEntity *> > > >,bool><std::_Tree_iterator<std::_Tree_val<std::_Tree_simple_types<std::pair<int const ,BaseGameEntity *> > > >,bool,0>
PUBLIC	??$?0AAV?$_Tree_iterator@V?$_Tree_val@U?$_Tree_simple_types@U?$pair@$$CBHPAVBaseGameEntity@@@std@@@std@@@std@@@std@@_N$0A@@?$pair@V?$_Tree_iterator@V?$_Tree_val@U?$_Tree_simple_types@U?$pair@$$CBHPAVBaseGameEntity@@@std@@@std@@@std@@@std@@_N@std@@QAE@AAV?$_Tree_iterator@V?$_Tree_val@U?$_Tree_simple_types@U?$pair@$$CBHPAVBaseGameEntity@@@std@@@std@@@std@@@1@$$QA_N@Z ; std::pair<std::_Tree_iterator<std::_Tree_val<std::_Tree_simple_types<std::pair<int const ,BaseGameEntity *> > > >,bool>::pair<std::_Tree_iterator<std::_Tree_val<std::_Tree_simple_types<std::pair<int const ,BaseGameEntity *> > > >,bool><std::_Tree_iterator<std::_Tree_val<std::_Tree_simple_types<std::pair<int const ,BaseGameEntity *> > > > &,bool,0>
PUBLIC	??$_Buy_if_not_node@AAU?$pair@$$CBHPAVBaseGameEntity@@@std@@@?$_Tree@V?$_Tmap_traits@HPAVBaseGameEntity@@U?$less@H@std@@V?$allocator@U?$pair@$$CBHPAVBaseGameEntity@@@std@@@3@$0A@@std@@@std@@IAEPAU?$_Tree_node@U?$pair@$$CBHPAVBaseGameEntity@@@std@@PAX@1@PAU21@AAU?$pair@$$CBHPAVBaseGameEntity@@@1@@Z ; std::_Tree<std::_Tmap_traits<int,BaseGameEntity *,std::less<int>,std::allocator<std::pair<int const ,BaseGameEntity *> >,0> >::_Buy_if_not_node<std::pair<int const ,BaseGameEntity *> &>
PUBLIC	??$forward@V?$_Tree_iterator@V?$_Tree_val@U?$_Tree_simple_types@U?$pair@$$CBHPAVBaseGameEntity@@@std@@@std@@@std@@@std@@@std@@YA$$QAV?$_Tree_iterator@V?$_Tree_val@U?$_Tree_simple_types@U?$pair@$$CBHPAVBaseGameEntity@@@std@@@std@@@std@@@0@AAV10@@Z ; std::forward<std::_Tree_iterator<std::_Tree_val<std::_Tree_simple_types<std::pair<int const ,BaseGameEntity *> > > > >
PUBLIC	??$forward@_N@std@@YA$$QA_NAA_N@Z		; std::forward<bool>
PUBLIC	??$forward@AAV?$_Tree_iterator@V?$_Tree_val@U?$_Tree_simple_types@U?$pair@$$CBHPAVBaseGameEntity@@@std@@@std@@@std@@@std@@@std@@YAAAV?$_Tree_iterator@V?$_Tree_val@U?$_Tree_simple_types@U?$pair@$$CBHPAVBaseGameEntity@@@std@@@std@@@std@@@0@AAV10@@Z ; std::forward<std::_Tree_iterator<std::_Tree_val<std::_Tree_simple_types<std::pair<int const ,BaseGameEntity *> > > > &>
PUBLIC	??$forward@PAVBaseGameEntity@@@std@@YA$$QAPAVBaseGameEntity@@AAPAV1@@Z ; std::forward<BaseGameEntity *>
PUBLIC	??_C@_0BB@FCMFBGOM@invalid?5argument@		; `string'
PUBLIC	??_C@_02DKCKIIND@?$CFs@				; `string'
PUBLIC	??_C@_1CG@JNLFBNGN@?$AA?$CC?$AAi?$AAn?$AAv?$AAa?$AAl?$AAi?$AAd?$AA?5?$AAa?$AAr?$AAg?$AAu?$AAm?$AAe@ ; `string'
PUBLIC	??_C@_0BJ@LFDBABJJ@ITERATOR?5LIST?5CORRUPTED?$CB@ ; `string'
PUBLIC	??_C@_0GJ@DMCEMOMH@c?3?2program?5files?5?$CIx86?$CJ?2microsof@ ; `string'
PUBLIC	??_C@_1NC@HPHBFJCM@?$AAc?$AA?3?$AA?2?$AAp?$AAr?$AAo?$AAg?$AAr?$AAa?$AAm?$AA?5?$AAf?$AAi?$AAl?$AAe@ ; `string'
PUBLIC	??_C@_1EE@KLDMFDFL@?$AAs?$AAt?$AAd?$AA?3?$AA?3?$AA_?$AAI?$AAt?$AAe?$AAr?$AAa?$AAt?$AAo?$AAr?$AA_@ ; `string'
PUBLIC	??_C@_1DG@PLBPCAEM@?$AA?$CC?$AAI?$AAT?$AAE?$AAR?$AAA?$AAT?$AAO?$AAR?$AA?5?$AAL?$AAI?$AAS?$AAT?$AA?5@ ; `string'
PUBLIC	??_C@_0GJ@CAJJPMGE@c?3?2program?5files?5?$CIx86?$CJ?2microsof@ ; `string'
PUBLIC	??_C@_1NC@ICJKIMIP@?$AAc?$AA?3?$AA?2?$AAp?$AAr?$AAo?$AAg?$AAr?$AAa?$AAm?$AA?5?$AAf?$AAi?$AAl?$AAe@ ; `string'
PUBLIC	??_C@_1EK@NIFDJFDG@?$AAs?$AAt?$AAd?$AA?3?$AA?3?$AA_?$AAA?$AAd?$AAj?$AAu?$AAs?$AAt?$AA_?$AAm?$AAa@ ; `string'
PUBLIC	??_C@_0BP@OLDKBHLM@map?1set?5iterators?5incompatible@ ; `string'
PUBLIC	??_C@_0GG@KBILHLPB@c?3?2program?5files?5?$CIx86?$CJ?2microsof@ ; `string'
PUBLIC	??_C@_1MM@ECCNBGLC@?$AAc?$AA?3?$AA?2?$AAp?$AAr?$AAo?$AAg?$AAr?$AAa?$AAm?$AA?5?$AAf?$AAi?$AAl?$AAe@ ; `string'
PUBLIC	??_C@_1BCK@EKGFHAGI@?$AAs?$AAt?$AAd?$AA?3?$AA?3?$AA_?$AAT?$AAr?$AAe?$AAe?$AA_?$AAc?$AAo?$AAn?$AAs@ ; `string'
PUBLIC	??_C@_1EC@JLIDLCDH@?$AA?$CC?$AAm?$AAa?$AAp?$AA?1?$AAs?$AAe?$AAt?$AA?5?$AAi?$AAt?$AAe?$AAr?$AAa?$AAt@ ; `string'
PUBLIC	??_C@_0DG@LCFNIIPB@cannot?5dereference?5value?9initia@ ; `string'
PUBLIC	??_C@_1BCI@KCDJEGGM@?$AAs?$AAt?$AAd?$AA?3?$AA?3?$AA_?$AAT?$AAr?$AAe?$AAe?$AA_?$AAc?$AAo?$AAn?$AAs@ ; `string'
PUBLIC	??_C@_1HA@ILGCNILF@?$AA?$CC?$AAc?$AAa?$AAn?$AAn?$AAo?$AAt?$AA?5?$AAd?$AAe?$AAr?$AAe?$AAf?$AAe?$AAr@ ; `string'
PUBLIC	??_C@_0CI@OKFEHCEB@cannot?5dereference?5end?5map?1set?5@ ; `string'
PUBLIC	??_C@_1FE@NKHAAGMB@?$AA?$CC?$AAc?$AAa?$AAn?$AAn?$AAo?$AAt?$AA?5?$AAd?$AAe?$AAr?$AAe?$AAf?$AAe?$AAr@ ; `string'
PUBLIC	??_C@_0CF@JILFNJOL@map?1set?5erase?5iterator?5outside?5@ ; `string'
PUBLIC	??_C@_1BFG@GENLFAEE@?$AAs?$AAt?$AAd?$AA?3?$AA?3?$AA_?$AAT?$AAr?$AAe?$AAe?$AA?$DM?$AAc?$AAl?$AAa?$AAs@ ; `string'
PUBLIC	??_C@_1EO@CEDAEPC@?$AA?$CC?$AAm?$AAa?$AAp?$AA?1?$AAs?$AAe?$AAt?$AA?5?$AAe?$AAr?$AAa?$AAs?$AAe?$AA?5@ ; `string'
PUBLIC	??_C@_0DE@DMNPKCGM@cannot?5increment?5value?9initiali@ ; `string'
PUBLIC	??_C@_1BCK@OKJIJJKN@?$AAs?$AAt?$AAd?$AA?3?$AA?3?$AA_?$AAT?$AAr?$AAe?$AAe?$AA_?$AAc?$AAo?$AAn?$AAs@ ; `string'
PUBLIC	??_C@_1GM@BJMCGEGI@?$AA?$CC?$AAc?$AAa?$AAn?$AAn?$AAo?$AAt?$AA?5?$AAi?$AAn?$AAc?$AAr?$AAe?$AAm?$AAe@ ; `string'
PUBLIC	??_C@_0CG@NLEHEOHN@cannot?5increment?5end?5map?1set?5it@ ; `string'
PUBLIC	??_C@_1FA@KLFCDGNE@?$AA?$CC?$AAc?$AAa?$AAn?$AAn?$AAo?$AAt?$AA?5?$AAi?$AAn?$AAc?$AAr?$AAe?$AAm?$AAe@ ; `string'
PUBLIC	??_C@_1OA@DEKLBHMG@?$AAs?$AAt?$AAd?$AA?3?$AA?3?$AA_?$AAT?$AAr?$AAe?$AAe?$AA_?$AAv?$AAa?$AAl?$AA?$DM@ ; `string'
PUBLIC	??_C@_0BD@FEEMDEPI@invalid?5comparator@		; `string'
PUBLIC	??_C@_1CI@JONCLBEJ@?$AAs?$AAt?$AAd?$AA?3?$AA?3?$AA_?$AAD?$AAe?$AAb?$AAu?$AAg?$AA_?$AAl?$AAt?$AA_@ ; `string'
PUBLIC	??_C@_1CK@NDNHPKPI@?$AA?$CC?$AAi?$AAn?$AAv?$AAa?$AAl?$AAi?$AAd?$AA?5?$AAc?$AAo?$AAm?$AAp?$AAa?$AAr@ ; `string'
PUBLIC	??_C@_1EO@GFNCMDLA@?$AAs?$AAt?$AAd?$AA?3?$AA?3?$AA_?$AAA?$AAl?$AAl?$AAo?$AAc?$AAa?$AAt?$AAe?$AA_@ ; `string'
PUBLIC	??_C@_0DE@JECMPNID@cannot?5decrement?5value?9initiali@ ; `string'
PUBLIC	??_C@_1BCK@BJKKCFGM@?$AAs?$AAt?$AAd?$AA?3?$AA?3?$AA_?$AAT?$AAr?$AAe?$AAe?$AA_?$AAc?$AAo?$AAn?$AAs@ ; `string'
PUBLIC	??_C@_1GM@ECOECPCJ@?$AA?$CC?$AAc?$AAa?$AAn?$AAn?$AAo?$AAt?$AA?5?$AAd?$AAe?$AAc?$AAr?$AAe?$AAm?$AAe@ ; `string'
PUBLIC	??_C@_0CI@FJCIBNID@cannot?5decrement?5begin?5map?1set?5@ ; `string'
PUBLIC	??_C@_1FE@HAEBNAIH@?$AA?$CC?$AAc?$AAa?$AAn?$AAn?$AAo?$AAt?$AA?5?$AAd?$AAe?$AAc?$AAr?$AAe?$AAm?$AAe@ ; `string'
PUBLIC	??_C@_0BE@JONHPENG@map?1set?$DMT?$DO?5too?5long@ ; `string'
PUBLIC	__real@0010000000000000
PUBLIC	__real@00800000
PUBLIC	__real@7f7fffff
PUBLIC	__real@7fefffffffffffff
EXTRN	??2@YAPAXI@Z:PROC				; operator new
EXTRN	??3@YAXPAXI@Z:PROC				; operator delete
EXTRN	_atexit:PROC
EXTRN	__Init_thread_header:PROC
EXTRN	__Init_thread_abort:PROC
EXTRN	__Init_thread_footer:PROC
EXTRN	__invalid_parameter:PROC
EXTRN	__CrtDbgReport:PROC
EXTRN	??0_Lockit@std@@QAE@H@Z:PROC			; std::_Lockit::_Lockit
EXTRN	??1_Lockit@std@@QAE@XZ:PROC			; std::_Lockit::~_Lockit
EXTRN	?_Xlength_error@std@@YAXPBD@Z:PROC		; std::_Xlength_error
EXTRN	__wassert:PROC
EXTRN	@_RTC_CheckStackVars@8:PROC
EXTRN	@__security_check_cookie@4:PROC
EXTRN	__CxxThrowException@8:PROC
EXTRN	__RTC_CheckEsp:PROC
EXTRN	__RTC_InitBase:PROC
EXTRN	__RTC_Shutdown:PROC
EXTRN	___CxxFrameHandler3:PROC
EXTRN	__Init_thread_epoch:DWORD
EXTRN	___security_cookie:DWORD
EXTRN	__fltused:DWORD
EXTRN	__tls_array:DWORD
EXTRN	__tls_index:DWORD
_BSS	SEGMENT
?MaxInt@@3HB DD	01H DUP (?)				; MaxInt
	ALIGN	8

?MaxDouble@@3NB DQ 01H DUP (?)				; MaxDouble
?MinDouble@@3NB DQ 01H DUP (?)				; MinDouble
?MaxFloat@@3MB DD 01H DUP (?)				; MaxFloat
?MinFloat@@3MB DD 01H DUP (?)				; MinFloat
_BSS	ENDS
;	COMDAT ?instance@?1??Instance@EntityManager@@SAPAV2@XZ@4V2@A
_BSS	SEGMENT
?instance@?1??Instance@EntityManager@@SAPAV2@XZ@4V2@A DB 0cH DUP (?) ; `EntityManager::Instance'::`2'::instance
_BSS	ENDS
;	COMDAT ?$TSS0@?1??Instance@EntityManager@@SAPAV2@XZ@4HA
_BSS	SEGMENT
?$TSS0@?1??Instance@EntityManager@@SAPAV2@XZ@4HA DD 01H DUP (?) ; TSS0<`template-parameter-2',EntityManager::stance,EntityManager * * const volatile,void,int, ?? &>
_BSS	ENDS
CRT$XCU	SEGMENT
?MaxInt$initializer$@@3P6AXXZA DD FLAT:??__EMaxInt@@YAXXZ ; MaxInt$initializer$
CRT$XCU	ENDS
;	COMDAT __real@7fefffffffffffff
CONST	SEGMENT
__real@7fefffffffffffff DQ 07fefffffffffffffr	; 1.79769e+308
CONST	ENDS
;	COMDAT __real@7f7fffff
CONST	SEGMENT
__real@7f7fffff DD 07f7fffffr			; 3.40282e+38
CONST	ENDS
;	COMDAT __real@00800000
CONST	SEGMENT
__real@00800000 DD 000800000r			; 1.17549e-38
CONST	ENDS
;	COMDAT __real@0010000000000000
CONST	SEGMENT
__real@0010000000000000 DQ 00010000000000000r	; 2.22507e-308
CONST	ENDS
;	COMDAT rtc$TMZ
rtc$TMZ	SEGMENT
__RTC_Shutdown.rtc$TMZ DD FLAT:__RTC_Shutdown
rtc$TMZ	ENDS
;	COMDAT rtc$IMZ
rtc$IMZ	SEGMENT
__RTC_InitBase.rtc$IMZ DD FLAT:__RTC_InitBase
rtc$IMZ	ENDS
;	COMDAT ??_C@_0BE@JONHPENG@map?1set?$DMT?$DO?5too?5long@
CONST	SEGMENT
??_C@_0BE@JONHPENG@map?1set?$DMT?$DO?5too?5long@ DB 'map/set<T> too long', 00H ; `string'
CONST	ENDS
;	COMDAT ??_C@_1FE@HAEBNAIH@?$AA?$CC?$AAc?$AAa?$AAn?$AAn?$AAo?$AAt?$AA?5?$AAd?$AAe?$AAc?$AAr?$AAe?$AAm?$AAe@
CONST	SEGMENT
??_C@_1FE@HAEBNAIH@?$AA?$CC?$AAc?$AAa?$AAn?$AAn?$AAo?$AAt?$AA?5?$AAd?$AAe?$AAc?$AAr?$AAe?$AAm?$AAe@ DB '"'
	DB	00H, 'c', 00H, 'a', 00H, 'n', 00H, 'n', 00H, 'o', 00H, 't', 00H
	DB	' ', 00H, 'd', 00H, 'e', 00H, 'c', 00H, 'r', 00H, 'e', 00H, 'm'
	DB	00H, 'e', 00H, 'n', 00H, 't', 00H, ' ', 00H, 'b', 00H, 'e', 00H
	DB	'g', 00H, 'i', 00H, 'n', 00H, ' ', 00H, 'm', 00H, 'a', 00H, 'p'
	DB	00H, '/', 00H, 's', 00H, 'e', 00H, 't', 00H, ' ', 00H, 'i', 00H
	DB	't', 00H, 'e', 00H, 'r', 00H, 'a', 00H, 't', 00H, 'o', 00H, 'r'
	DB	00H, '"', 00H, 00H, 00H			; `string'
CONST	ENDS
;	COMDAT ??_C@_0CI@FJCIBNID@cannot?5decrement?5begin?5map?1set?5@
CONST	SEGMENT
??_C@_0CI@FJCIBNID@cannot?5decrement?5begin?5map?1set?5@ DB 'cannot decre'
	DB	'ment begin map/set iterator', 00H		; `string'
CONST	ENDS
;	COMDAT ??_C@_1GM@ECOECPCJ@?$AA?$CC?$AAc?$AAa?$AAn?$AAn?$AAo?$AAt?$AA?5?$AAd?$AAe?$AAc?$AAr?$AAe?$AAm?$AAe@
CONST	SEGMENT
??_C@_1GM@ECOECPCJ@?$AA?$CC?$AAc?$AAa?$AAn?$AAn?$AAo?$AAt?$AA?5?$AAd?$AAe?$AAc?$AAr?$AAe?$AAm?$AAe@ DB '"'
	DB	00H, 'c', 00H, 'a', 00H, 'n', 00H, 'n', 00H, 'o', 00H, 't', 00H
	DB	' ', 00H, 'd', 00H, 'e', 00H, 'c', 00H, 'r', 00H, 'e', 00H, 'm'
	DB	00H, 'e', 00H, 'n', 00H, 't', 00H, ' ', 00H, 'v', 00H, 'a', 00H
	DB	'l', 00H, 'u', 00H, 'e', 00H, '-', 00H, 'i', 00H, 'n', 00H, 'i'
	DB	00H, 't', 00H, 'i', 00H, 'a', 00H, 'l', 00H, 'i', 00H, 'z', 00H
	DB	'e', 00H, 'd', 00H, ' ', 00H, 'm', 00H, 'a', 00H, 'p', 00H, '/'
	DB	00H, 's', 00H, 'e', 00H, 't', 00H, ' ', 00H, 'i', 00H, 't', 00H
	DB	'e', 00H, 'r', 00H, 'a', 00H, 't', 00H, 'o', 00H, 'r', 00H, '"'
	DB	00H, 00H, 00H				; `string'
CONST	ENDS
;	COMDAT ??_C@_1BCK@BJKKCFGM@?$AAs?$AAt?$AAd?$AA?3?$AA?3?$AA_?$AAT?$AAr?$AAe?$AAe?$AA_?$AAc?$AAo?$AAn?$AAs@
CONST	SEGMENT
??_C@_1BCK@BJKKCFGM@?$AAs?$AAt?$AAd?$AA?3?$AA?3?$AA_?$AAT?$AAr?$AAe?$AAe?$AA_?$AAc?$AAo?$AAn?$AAs@ DB 's'
	DB	00H, 't', 00H, 'd', 00H, ':', 00H, ':', 00H, '_', 00H, 'T', 00H
	DB	'r', 00H, 'e', 00H, 'e', 00H, '_', 00H, 'c', 00H, 'o', 00H, 'n'
	DB	00H, 's', 00H, 't', 00H, '_', 00H, 'i', 00H, 't', 00H, 'e', 00H
	DB	'r', 00H, 'a', 00H, 't', 00H, 'o', 00H, 'r', 00H, '<', 00H, 'c'
	DB	00H, 'l', 00H, 'a', 00H, 's', 00H, 's', 00H, ' ', 00H, 's', 00H
	DB	't', 00H, 'd', 00H, ':', 00H, ':', 00H, '_', 00H, 'T', 00H, 'r'
	DB	00H, 'e', 00H, 'e', 00H, '_', 00H, 'v', 00H, 'a', 00H, 'l', 00H
	DB	'<', 00H, 's', 00H, 't', 00H, 'r', 00H, 'u', 00H, 'c', 00H, 't'
	DB	00H, ' ', 00H, 's', 00H, 't', 00H, 'd', 00H, ':', 00H, ':', 00H
	DB	'_', 00H, 'T', 00H, 'r', 00H, 'e', 00H, 'e', 00H, '_', 00H, 's'
	DB	00H, 'i', 00H, 'm', 00H, 'p', 00H, 'l', 00H, 'e', 00H, '_', 00H
	DB	't', 00H, 'y', 00H, 'p', 00H, 'e', 00H, 's', 00H, '<', 00H, 's'
	DB	00H, 't', 00H, 'r', 00H, 'u', 00H, 'c', 00H, 't', 00H, ' ', 00H
	DB	's', 00H, 't', 00H, 'd', 00H, ':', 00H, ':', 00H, 'p', 00H, 'a'
	DB	00H, 'i', 00H, 'r', 00H, '<', 00H, 'i', 00H, 'n', 00H, 't', 00H
	DB	' ', 00H, 'c', 00H, 'o', 00H, 'n', 00H, 's', 00H, 't', 00H, ' '
	DB	00H, ',', 00H, 'c', 00H, 'l', 00H, 'a', 00H, 's', 00H, 's', 00H
	DB	' ', 00H, 'B', 00H, 'a', 00H, 's', 00H, 'e', 00H, 'G', 00H, 'a'
	DB	00H, 'm', 00H, 'e', 00H, 'E', 00H, 'n', 00H, 't', 00H, 'i', 00H
	DB	't', 00H, 'y', 00H, ' ', 00H, '*', 00H, '>', 00H, ' ', 00H, '>'
	DB	00H, ' ', 00H, '>', 00H, ' ', 00H, '>', 00H, ':', 00H, ':', 00H
	DB	'o', 00H, 'p', 00H, 'e', 00H, 'r', 00H, 'a', 00H, 't', 00H, 'o'
	DB	00H, 'r', 00H, ' ', 00H, '-', 00H, '-', 00H, 00H, 00H ; `string'
CONST	ENDS
;	COMDAT ??_C@_0DE@JECMPNID@cannot?5decrement?5value?9initiali@
CONST	SEGMENT
??_C@_0DE@JECMPNID@cannot?5decrement?5value?9initiali@ DB 'cannot decreme'
	DB	'nt value-initialized map/set iterator', 00H	; `string'
CONST	ENDS
;	COMDAT ??_C@_1EO@GFNCMDLA@?$AAs?$AAt?$AAd?$AA?3?$AA?3?$AA_?$AAA?$AAl?$AAl?$AAo?$AAc?$AAa?$AAt?$AAe?$AA_@
CONST	SEGMENT
??_C@_1EO@GFNCMDLA@?$AAs?$AAt?$AAd?$AA?3?$AA?3?$AA_?$AAA?$AAl?$AAl?$AAo?$AAc?$AAa?$AAt?$AAe?$AA_@ DB 's'
	DB	00H, 't', 00H, 'd', 00H, ':', 00H, ':', 00H, '_', 00H, 'A', 00H
	DB	'l', 00H, 'l', 00H, 'o', 00H, 'c', 00H, 'a', 00H, 't', 00H, 'e'
	DB	00H, '_', 00H, 'm', 00H, 'a', 00H, 'n', 00H, 'u', 00H, 'a', 00H
	DB	'l', 00H, 'l', 00H, 'y', 00H, '_', 00H, 'v', 00H, 'e', 00H, 'c'
	DB	00H, 't', 00H, 'o', 00H, 'r', 00H, '_', 00H, 'a', 00H, 'l', 00H
	DB	'i', 00H, 'g', 00H, 'n', 00H, 'e', 00H, 'd', 00H, 00H, 00H ; `string'
CONST	ENDS
;	COMDAT ??_C@_1CK@NDNHPKPI@?$AA?$CC?$AAi?$AAn?$AAv?$AAa?$AAl?$AAi?$AAd?$AA?5?$AAc?$AAo?$AAm?$AAp?$AAa?$AAr@
CONST	SEGMENT
??_C@_1CK@NDNHPKPI@?$AA?$CC?$AAi?$AAn?$AAv?$AAa?$AAl?$AAi?$AAd?$AA?5?$AAc?$AAo?$AAm?$AAp?$AAa?$AAr@ DB '"'
	DB	00H, 'i', 00H, 'n', 00H, 'v', 00H, 'a', 00H, 'l', 00H, 'i', 00H
	DB	'd', 00H, ' ', 00H, 'c', 00H, 'o', 00H, 'm', 00H, 'p', 00H, 'a'
	DB	00H, 'r', 00H, 'a', 00H, 't', 00H, 'o', 00H, 'r', 00H, '"', 00H
	DB	00H, 00H					; `string'
CONST	ENDS
;	COMDAT ??_C@_1CI@JONCLBEJ@?$AAs?$AAt?$AAd?$AA?3?$AA?3?$AA_?$AAD?$AAe?$AAb?$AAu?$AAg?$AA_?$AAl?$AAt?$AA_@
CONST	SEGMENT
??_C@_1CI@JONCLBEJ@?$AAs?$AAt?$AAd?$AA?3?$AA?3?$AA_?$AAD?$AAe?$AAb?$AAu?$AAg?$AA_?$AAl?$AAt?$AA_@ DB 's'
	DB	00H, 't', 00H, 'd', 00H, ':', 00H, ':', 00H, '_', 00H, 'D', 00H
	DB	'e', 00H, 'b', 00H, 'u', 00H, 'g', 00H, '_', 00H, 'l', 00H, 't'
	DB	00H, '_', 00H, 'p', 00H, 'r', 00H, 'e', 00H, 'd', 00H, 00H, 00H ; `string'
CONST	ENDS
;	COMDAT ??_C@_0BD@FEEMDEPI@invalid?5comparator@
CONST	SEGMENT
??_C@_0BD@FEEMDEPI@invalid?5comparator@ DB 'invalid comparator', 00H ; `string'
CONST	ENDS
;	COMDAT ??_C@_1OA@DEKLBHMG@?$AAs?$AAt?$AAd?$AA?3?$AA?3?$AA_?$AAT?$AAr?$AAe?$AAe?$AA_?$AAv?$AAa?$AAl?$AA?$DM@
CONST	SEGMENT
??_C@_1OA@DEKLBHMG@?$AAs?$AAt?$AAd?$AA?3?$AA?3?$AA_?$AAT?$AAr?$AAe?$AAe?$AA_?$AAv?$AAa?$AAl?$AA?$DM@ DB 's'
	DB	00H, 't', 00H, 'd', 00H, ':', 00H, ':', 00H, '_', 00H, 'T', 00H
	DB	'r', 00H, 'e', 00H, 'e', 00H, '_', 00H, 'v', 00H, 'a', 00H, 'l'
	DB	00H, '<', 00H, 's', 00H, 't', 00H, 'r', 00H, 'u', 00H, 'c', 00H
	DB	't', 00H, ' ', 00H, 's', 00H, 't', 00H, 'd', 00H, ':', 00H, ':'
	DB	00H, '_', 00H, 'T', 00H, 'r', 00H, 'e', 00H, 'e', 00H, '_', 00H
	DB	's', 00H, 'i', 00H, 'm', 00H, 'p', 00H, 'l', 00H, 'e', 00H, '_'
	DB	00H, 't', 00H, 'y', 00H, 'p', 00H, 'e', 00H, 's', 00H, '<', 00H
	DB	's', 00H, 't', 00H, 'r', 00H, 'u', 00H, 'c', 00H, 't', 00H, ' '
	DB	00H, 's', 00H, 't', 00H, 'd', 00H, ':', 00H, ':', 00H, 'p', 00H
	DB	'a', 00H, 'i', 00H, 'r', 00H, '<', 00H, 'i', 00H, 'n', 00H, 't'
	DB	00H, ' ', 00H, 'c', 00H, 'o', 00H, 'n', 00H, 's', 00H, 't', 00H
	DB	' ', 00H, ',', 00H, 'c', 00H, 'l', 00H, 'a', 00H, 's', 00H, 's'
	DB	00H, ' ', 00H, 'B', 00H, 'a', 00H, 's', 00H, 'e', 00H, 'G', 00H
	DB	'a', 00H, 'm', 00H, 'e', 00H, 'E', 00H, 'n', 00H, 't', 00H, 'i'
	DB	00H, 't', 00H, 'y', 00H, ' ', 00H, '*', 00H, '>', 00H, ' ', 00H
	DB	'>', 00H, ' ', 00H, '>', 00H, ':', 00H, ':', 00H, '_', 00H, 'E'
	DB	00H, 'x', 00H, 't', 00H, 'r', 00H, 'a', 00H, 'c', 00H, 't', 00H
	DB	00H, 00H					; `string'
CONST	ENDS
;	COMDAT ??_C@_1FA@KLFCDGNE@?$AA?$CC?$AAc?$AAa?$AAn?$AAn?$AAo?$AAt?$AA?5?$AAi?$AAn?$AAc?$AAr?$AAe?$AAm?$AAe@
CONST	SEGMENT
??_C@_1FA@KLFCDGNE@?$AA?$CC?$AAc?$AAa?$AAn?$AAn?$AAo?$AAt?$AA?5?$AAi?$AAn?$AAc?$AAr?$AAe?$AAm?$AAe@ DB '"'
	DB	00H, 'c', 00H, 'a', 00H, 'n', 00H, 'n', 00H, 'o', 00H, 't', 00H
	DB	' ', 00H, 'i', 00H, 'n', 00H, 'c', 00H, 'r', 00H, 'e', 00H, 'm'
	DB	00H, 'e', 00H, 'n', 00H, 't', 00H, ' ', 00H, 'e', 00H, 'n', 00H
	DB	'd', 00H, ' ', 00H, 'm', 00H, 'a', 00H, 'p', 00H, '/', 00H, 's'
	DB	00H, 'e', 00H, 't', 00H, ' ', 00H, 'i', 00H, 't', 00H, 'e', 00H
	DB	'r', 00H, 'a', 00H, 't', 00H, 'o', 00H, 'r', 00H, '"', 00H, 00H
	DB	00H						; `string'
CONST	ENDS
;	COMDAT ??_C@_0CG@NLEHEOHN@cannot?5increment?5end?5map?1set?5it@
CONST	SEGMENT
??_C@_0CG@NLEHEOHN@cannot?5increment?5end?5map?1set?5it@ DB 'cannot incre'
	DB	'ment end map/set iterator', 00H		; `string'
CONST	ENDS
;	COMDAT ??_C@_1GM@BJMCGEGI@?$AA?$CC?$AAc?$AAa?$AAn?$AAn?$AAo?$AAt?$AA?5?$AAi?$AAn?$AAc?$AAr?$AAe?$AAm?$AAe@
CONST	SEGMENT
??_C@_1GM@BJMCGEGI@?$AA?$CC?$AAc?$AAa?$AAn?$AAn?$AAo?$AAt?$AA?5?$AAi?$AAn?$AAc?$AAr?$AAe?$AAm?$AAe@ DB '"'
	DB	00H, 'c', 00H, 'a', 00H, 'n', 00H, 'n', 00H, 'o', 00H, 't', 00H
	DB	' ', 00H, 'i', 00H, 'n', 00H, 'c', 00H, 'r', 00H, 'e', 00H, 'm'
	DB	00H, 'e', 00H, 'n', 00H, 't', 00H, ' ', 00H, 'v', 00H, 'a', 00H
	DB	'l', 00H, 'u', 00H, 'e', 00H, '-', 00H, 'i', 00H, 'n', 00H, 'i'
	DB	00H, 't', 00H, 'i', 00H, 'a', 00H, 'l', 00H, 'i', 00H, 'z', 00H
	DB	'e', 00H, 'd', 00H, ' ', 00H, 'm', 00H, 'a', 00H, 'p', 00H, '/'
	DB	00H, 's', 00H, 'e', 00H, 't', 00H, ' ', 00H, 'i', 00H, 't', 00H
	DB	'e', 00H, 'r', 00H, 'a', 00H, 't', 00H, 'o', 00H, 'r', 00H, '"'
	DB	00H, 00H, 00H				; `string'
CONST	ENDS
;	COMDAT ??_C@_1BCK@OKJIJJKN@?$AAs?$AAt?$AAd?$AA?3?$AA?3?$AA_?$AAT?$AAr?$AAe?$AAe?$AA_?$AAc?$AAo?$AAn?$AAs@
CONST	SEGMENT
??_C@_1BCK@OKJIJJKN@?$AAs?$AAt?$AAd?$AA?3?$AA?3?$AA_?$AAT?$AAr?$AAe?$AAe?$AA_?$AAc?$AAo?$AAn?$AAs@ DB 's'
	DB	00H, 't', 00H, 'd', 00H, ':', 00H, ':', 00H, '_', 00H, 'T', 00H
	DB	'r', 00H, 'e', 00H, 'e', 00H, '_', 00H, 'c', 00H, 'o', 00H, 'n'
	DB	00H, 's', 00H, 't', 00H, '_', 00H, 'i', 00H, 't', 00H, 'e', 00H
	DB	'r', 00H, 'a', 00H, 't', 00H, 'o', 00H, 'r', 00H, '<', 00H, 'c'
	DB	00H, 'l', 00H, 'a', 00H, 's', 00H, 's', 00H, ' ', 00H, 's', 00H
	DB	't', 00H, 'd', 00H, ':', 00H, ':', 00H, '_', 00H, 'T', 00H, 'r'
	DB	00H, 'e', 00H, 'e', 00H, '_', 00H, 'v', 00H, 'a', 00H, 'l', 00H
	DB	'<', 00H, 's', 00H, 't', 00H, 'r', 00H, 'u', 00H, 'c', 00H, 't'
	DB	00H, ' ', 00H, 's', 00H, 't', 00H, 'd', 00H, ':', 00H, ':', 00H
	DB	'_', 00H, 'T', 00H, 'r', 00H, 'e', 00H, 'e', 00H, '_', 00H, 's'
	DB	00H, 'i', 00H, 'm', 00H, 'p', 00H, 'l', 00H, 'e', 00H, '_', 00H
	DB	't', 00H, 'y', 00H, 'p', 00H, 'e', 00H, 's', 00H, '<', 00H, 's'
	DB	00H, 't', 00H, 'r', 00H, 'u', 00H, 'c', 00H, 't', 00H, ' ', 00H
	DB	's', 00H, 't', 00H, 'd', 00H, ':', 00H, ':', 00H, 'p', 00H, 'a'
	DB	00H, 'i', 00H, 'r', 00H, '<', 00H, 'i', 00H, 'n', 00H, 't', 00H
	DB	' ', 00H, 'c', 00H, 'o', 00H, 'n', 00H, 's', 00H, 't', 00H, ' '
	DB	00H, ',', 00H, 'c', 00H, 'l', 00H, 'a', 00H, 's', 00H, 's', 00H
	DB	' ', 00H, 'B', 00H, 'a', 00H, 's', 00H, 'e', 00H, 'G', 00H, 'a'
	DB	00H, 'm', 00H, 'e', 00H, 'E', 00H, 'n', 00H, 't', 00H, 'i', 00H
	DB	't', 00H, 'y', 00H, ' ', 00H, '*', 00H, '>', 00H, ' ', 00H, '>'
	DB	00H, ' ', 00H, '>', 00H, ' ', 00H, '>', 00H, ':', 00H, ':', 00H
	DB	'o', 00H, 'p', 00H, 'e', 00H, 'r', 00H, 'a', 00H, 't', 00H, 'o'
	DB	00H, 'r', 00H, ' ', 00H, '+', 00H, '+', 00H, 00H, 00H ; `string'
CONST	ENDS
;	COMDAT ??_C@_0DE@DMNPKCGM@cannot?5increment?5value?9initiali@
CONST	SEGMENT
??_C@_0DE@DMNPKCGM@cannot?5increment?5value?9initiali@ DB 'cannot increme'
	DB	'nt value-initialized map/set iterator', 00H	; `string'
CONST	ENDS
;	COMDAT ??_C@_1EO@CEDAEPC@?$AA?$CC?$AAm?$AAa?$AAp?$AA?1?$AAs?$AAe?$AAt?$AA?5?$AAe?$AAr?$AAa?$AAs?$AAe?$AA?5@
CONST	SEGMENT
??_C@_1EO@CEDAEPC@?$AA?$CC?$AAm?$AAa?$AAp?$AA?1?$AAs?$AAe?$AAt?$AA?5?$AAe?$AAr?$AAa?$AAs?$AAe?$AA?5@ DB '"'
	DB	00H, 'm', 00H, 'a', 00H, 'p', 00H, '/', 00H, 's', 00H, 'e', 00H
	DB	't', 00H, ' ', 00H, 'e', 00H, 'r', 00H, 'a', 00H, 's', 00H, 'e'
	DB	00H, ' ', 00H, 'i', 00H, 't', 00H, 'e', 00H, 'r', 00H, 'a', 00H
	DB	't', 00H, 'o', 00H, 'r', 00H, ' ', 00H, 'o', 00H, 'u', 00H, 't'
	DB	00H, 's', 00H, 'i', 00H, 'd', 00H, 'e', 00H, ' ', 00H, 'r', 00H
	DB	'a', 00H, 'n', 00H, 'g', 00H, 'e', 00H, '"', 00H, 00H, 00H ; `string'
CONST	ENDS
;	COMDAT ??_C@_1BFG@GENLFAEE@?$AAs?$AAt?$AAd?$AA?3?$AA?3?$AA_?$AAT?$AAr?$AAe?$AAe?$AA?$DM?$AAc?$AAl?$AAa?$AAs@
CONST	SEGMENT
??_C@_1BFG@GENLFAEE@?$AAs?$AAt?$AAd?$AA?3?$AA?3?$AA_?$AAT?$AAr?$AAe?$AAe?$AA?$DM?$AAc?$AAl?$AAa?$AAs@ DB 's'
	DB	00H, 't', 00H, 'd', 00H, ':', 00H, ':', 00H, '_', 00H, 'T', 00H
	DB	'r', 00H, 'e', 00H, 'e', 00H, '<', 00H, 'c', 00H, 'l', 00H, 'a'
	DB	00H, 's', 00H, 's', 00H, ' ', 00H, 's', 00H, 't', 00H, 'd', 00H
	DB	':', 00H, ':', 00H, '_', 00H, 'T', 00H, 'm', 00H, 'a', 00H, 'p'
	DB	00H, '_', 00H, 't', 00H, 'r', 00H, 'a', 00H, 'i', 00H, 't', 00H
	DB	's', 00H, '<', 00H, 'i', 00H, 'n', 00H, 't', 00H, ',', 00H, 'c'
	DB	00H, 'l', 00H, 'a', 00H, 's', 00H, 's', 00H, ' ', 00H, 'B', 00H
	DB	'a', 00H, 's', 00H, 'e', 00H, 'G', 00H, 'a', 00H, 'm', 00H, 'e'
	DB	00H, 'E', 00H, 'n', 00H, 't', 00H, 'i', 00H, 't', 00H, 'y', 00H
	DB	' ', 00H, '*', 00H, ',', 00H, 's', 00H, 't', 00H, 'r', 00H, 'u'
	DB	00H, 'c', 00H, 't', 00H, ' ', 00H, 's', 00H, 't', 00H, 'd', 00H
	DB	':', 00H, ':', 00H, 'l', 00H, 'e', 00H, 's', 00H, 's', 00H, '<'
	DB	00H, 'i', 00H, 'n', 00H, 't', 00H, '>', 00H, ',', 00H, 'c', 00H
	DB	'l', 00H, 'a', 00H, 's', 00H, 's', 00H, ' ', 00H, 's', 00H, 't'
	DB	00H, 'd', 00H, ':', 00H, ':', 00H, 'a', 00H, 'l', 00H, 'l', 00H
	DB	'o', 00H, 'c', 00H, 'a', 00H, 't', 00H, 'o', 00H, 'r', 00H, '<'
	DB	00H, 's', 00H, 't', 00H, 'r', 00H, 'u', 00H, 'c', 00H, 't', 00H
	DB	' ', 00H, 's', 00H, 't', 00H, 'd', 00H, ':', 00H, ':', 00H, 'p'
	DB	00H, 'a', 00H, 'i', 00H, 'r', 00H, '<', 00H, 'i', 00H, 'n', 00H
	DB	't', 00H, ' ', 00H, 'c', 00H, 'o', 00H, 'n', 00H, 's', 00H, 't'
	DB	00H, ' ', 00H, ',', 00H, 'c', 00H, 'l', 00H, 'a', 00H, 's', 00H
	DB	's', 00H, ' ', 00H, 'B', 00H, 'a', 00H, 's', 00H, 'e', 00H, 'G'
	DB	00H, 'a', 00H, 'm', 00H, 'e', 00H, 'E', 00H, 'n', 00H, 't', 00H
	DB	'i', 00H, 't', 00H, 'y', 00H, ' ', 00H, '*', 00H, '>', 00H, ' '
	DB	00H, '>', 00H, ',', 00H, '0', 00H, '>', 00H, ' ', 00H, '>', 00H
	DB	':', 00H, ':', 00H, 'e', 00H, 'r', 00H, 'a', 00H, 's', 00H, 'e'
	DB	00H, 00H, 00H				; `string'
CONST	ENDS
;	COMDAT ??_C@_0CF@JILFNJOL@map?1set?5erase?5iterator?5outside?5@
CONST	SEGMENT
??_C@_0CF@JILFNJOL@map?1set?5erase?5iterator?5outside?5@ DB 'map/set eras'
	DB	'e iterator outside range', 00H		; `string'
CONST	ENDS
;	COMDAT ??_C@_1FE@NKHAAGMB@?$AA?$CC?$AAc?$AAa?$AAn?$AAn?$AAo?$AAt?$AA?5?$AAd?$AAe?$AAr?$AAe?$AAf?$AAe?$AAr@
CONST	SEGMENT
??_C@_1FE@NKHAAGMB@?$AA?$CC?$AAc?$AAa?$AAn?$AAn?$AAo?$AAt?$AA?5?$AAd?$AAe?$AAr?$AAe?$AAf?$AAe?$AAr@ DB '"'
	DB	00H, 'c', 00H, 'a', 00H, 'n', 00H, 'n', 00H, 'o', 00H, 't', 00H
	DB	' ', 00H, 'd', 00H, 'e', 00H, 'r', 00H, 'e', 00H, 'f', 00H, 'e'
	DB	00H, 'r', 00H, 'e', 00H, 'n', 00H, 'c', 00H, 'e', 00H, ' ', 00H
	DB	'e', 00H, 'n', 00H, 'd', 00H, ' ', 00H, 'm', 00H, 'a', 00H, 'p'
	DB	00H, '/', 00H, 's', 00H, 'e', 00H, 't', 00H, ' ', 00H, 'i', 00H
	DB	't', 00H, 'e', 00H, 'r', 00H, 'a', 00H, 't', 00H, 'o', 00H, 'r'
	DB	00H, '"', 00H, 00H, 00H			; `string'
CONST	ENDS
;	COMDAT ??_C@_0CI@OKFEHCEB@cannot?5dereference?5end?5map?1set?5@
CONST	SEGMENT
??_C@_0CI@OKFEHCEB@cannot?5dereference?5end?5map?1set?5@ DB 'cannot deref'
	DB	'erence end map/set iterator', 00H		; `string'
CONST	ENDS
;	COMDAT ??_C@_1HA@ILGCNILF@?$AA?$CC?$AAc?$AAa?$AAn?$AAn?$AAo?$AAt?$AA?5?$AAd?$AAe?$AAr?$AAe?$AAf?$AAe?$AAr@
CONST	SEGMENT
??_C@_1HA@ILGCNILF@?$AA?$CC?$AAc?$AAa?$AAn?$AAn?$AAo?$AAt?$AA?5?$AAd?$AAe?$AAr?$AAe?$AAf?$AAe?$AAr@ DB '"'
	DB	00H, 'c', 00H, 'a', 00H, 'n', 00H, 'n', 00H, 'o', 00H, 't', 00H
	DB	' ', 00H, 'd', 00H, 'e', 00H, 'r', 00H, 'e', 00H, 'f', 00H, 'e'
	DB	00H, 'r', 00H, 'e', 00H, 'n', 00H, 'c', 00H, 'e', 00H, ' ', 00H
	DB	'v', 00H, 'a', 00H, 'l', 00H, 'u', 00H, 'e', 00H, '-', 00H, 'i'
	DB	00H, 'n', 00H, 'i', 00H, 't', 00H, 'i', 00H, 'a', 00H, 'l', 00H
	DB	'i', 00H, 'z', 00H, 'e', 00H, 'd', 00H, ' ', 00H, 'm', 00H, 'a'
	DB	00H, 'p', 00H, '/', 00H, 's', 00H, 'e', 00H, 't', 00H, ' ', 00H
	DB	'i', 00H, 't', 00H, 'e', 00H, 'r', 00H, 'a', 00H, 't', 00H, 'o'
	DB	00H, 'r', 00H, '"', 00H, 00H, 00H		; `string'
CONST	ENDS
;	COMDAT ??_C@_1BCI@KCDJEGGM@?$AAs?$AAt?$AAd?$AA?3?$AA?3?$AA_?$AAT?$AAr?$AAe?$AAe?$AA_?$AAc?$AAo?$AAn?$AAs@
CONST	SEGMENT
??_C@_1BCI@KCDJEGGM@?$AAs?$AAt?$AAd?$AA?3?$AA?3?$AA_?$AAT?$AAr?$AAe?$AAe?$AA_?$AAc?$AAo?$AAn?$AAs@ DB 's'
	DB	00H, 't', 00H, 'd', 00H, ':', 00H, ':', 00H, '_', 00H, 'T', 00H
	DB	'r', 00H, 'e', 00H, 'e', 00H, '_', 00H, 'c', 00H, 'o', 00H, 'n'
	DB	00H, 's', 00H, 't', 00H, '_', 00H, 'i', 00H, 't', 00H, 'e', 00H
	DB	'r', 00H, 'a', 00H, 't', 00H, 'o', 00H, 'r', 00H, '<', 00H, 'c'
	DB	00H, 'l', 00H, 'a', 00H, 's', 00H, 's', 00H, ' ', 00H, 's', 00H
	DB	't', 00H, 'd', 00H, ':', 00H, ':', 00H, '_', 00H, 'T', 00H, 'r'
	DB	00H, 'e', 00H, 'e', 00H, '_', 00H, 'v', 00H, 'a', 00H, 'l', 00H
	DB	'<', 00H, 's', 00H, 't', 00H, 'r', 00H, 'u', 00H, 'c', 00H, 't'
	DB	00H, ' ', 00H, 's', 00H, 't', 00H, 'd', 00H, ':', 00H, ':', 00H
	DB	'_', 00H, 'T', 00H, 'r', 00H, 'e', 00H, 'e', 00H, '_', 00H, 's'
	DB	00H, 'i', 00H, 'm', 00H, 'p', 00H, 'l', 00H, 'e', 00H, '_', 00H
	DB	't', 00H, 'y', 00H, 'p', 00H, 'e', 00H, 's', 00H, '<', 00H, 's'
	DB	00H, 't', 00H, 'r', 00H, 'u', 00H, 'c', 00H, 't', 00H, ' ', 00H
	DB	's', 00H, 't', 00H, 'd', 00H, ':', 00H, ':', 00H, 'p', 00H, 'a'
	DB	00H, 'i', 00H, 'r', 00H, '<', 00H, 'i', 00H, 'n', 00H, 't', 00H
	DB	' ', 00H, 'c', 00H, 'o', 00H, 'n', 00H, 's', 00H, 't', 00H, ' '
	DB	00H, ',', 00H, 'c', 00H, 'l', 00H, 'a', 00H, 's', 00H, 's', 00H
	DB	' ', 00H, 'B', 00H, 'a', 00H, 's', 00H, 'e', 00H, 'G', 00H, 'a'
	DB	00H, 'm', 00H, 'e', 00H, 'E', 00H, 'n', 00H, 't', 00H, 'i', 00H
	DB	't', 00H, 'y', 00H, ' ', 00H, '*', 00H, '>', 00H, ' ', 00H, '>'
	DB	00H, ' ', 00H, '>', 00H, ' ', 00H, '>', 00H, ':', 00H, ':', 00H
	DB	'o', 00H, 'p', 00H, 'e', 00H, 'r', 00H, 'a', 00H, 't', 00H, 'o'
	DB	00H, 'r', 00H, ' ', 00H, '*', 00H, 00H, 00H	; `string'
CONST	ENDS
;	COMDAT ??_C@_0DG@LCFNIIPB@cannot?5dereference?5value?9initia@
CONST	SEGMENT
??_C@_0DG@LCFNIIPB@cannot?5dereference?5value?9initia@ DB 'cannot derefer'
	DB	'ence value-initialized map/set iterator', 00H ; `string'
CONST	ENDS
;	COMDAT ??_C@_1EC@JLIDLCDH@?$AA?$CC?$AAm?$AAa?$AAp?$AA?1?$AAs?$AAe?$AAt?$AA?5?$AAi?$AAt?$AAe?$AAr?$AAa?$AAt@
CONST	SEGMENT
??_C@_1EC@JLIDLCDH@?$AA?$CC?$AAm?$AAa?$AAp?$AA?1?$AAs?$AAe?$AAt?$AA?5?$AAi?$AAt?$AAe?$AAr?$AAa?$AAt@ DB '"'
	DB	00H, 'm', 00H, 'a', 00H, 'p', 00H, '/', 00H, 's', 00H, 'e', 00H
	DB	't', 00H, ' ', 00H, 'i', 00H, 't', 00H, 'e', 00H, 'r', 00H, 'a'
	DB	00H, 't', 00H, 'o', 00H, 'r', 00H, 's', 00H, ' ', 00H, 'i', 00H
	DB	'n', 00H, 'c', 00H, 'o', 00H, 'm', 00H, 'p', 00H, 'a', 00H, 't'
	DB	00H, 'i', 00H, 'b', 00H, 'l', 00H, 'e', 00H, '"', 00H, 00H, 00H ; `string'
CONST	ENDS
;	COMDAT ??_C@_1BCK@EKGFHAGI@?$AAs?$AAt?$AAd?$AA?3?$AA?3?$AA_?$AAT?$AAr?$AAe?$AAe?$AA_?$AAc?$AAo?$AAn?$AAs@
CONST	SEGMENT
??_C@_1BCK@EKGFHAGI@?$AAs?$AAt?$AAd?$AA?3?$AA?3?$AA_?$AAT?$AAr?$AAe?$AAe?$AA_?$AAc?$AAo?$AAn?$AAs@ DB 's'
	DB	00H, 't', 00H, 'd', 00H, ':', 00H, ':', 00H, '_', 00H, 'T', 00H
	DB	'r', 00H, 'e', 00H, 'e', 00H, '_', 00H, 'c', 00H, 'o', 00H, 'n'
	DB	00H, 's', 00H, 't', 00H, '_', 00H, 'i', 00H, 't', 00H, 'e', 00H
	DB	'r', 00H, 'a', 00H, 't', 00H, 'o', 00H, 'r', 00H, '<', 00H, 'c'
	DB	00H, 'l', 00H, 'a', 00H, 's', 00H, 's', 00H, ' ', 00H, 's', 00H
	DB	't', 00H, 'd', 00H, ':', 00H, ':', 00H, '_', 00H, 'T', 00H, 'r'
	DB	00H, 'e', 00H, 'e', 00H, '_', 00H, 'v', 00H, 'a', 00H, 'l', 00H
	DB	'<', 00H, 's', 00H, 't', 00H, 'r', 00H, 'u', 00H, 'c', 00H, 't'
	DB	00H, ' ', 00H, 's', 00H, 't', 00H, 'd', 00H, ':', 00H, ':', 00H
	DB	'_', 00H, 'T', 00H, 'r', 00H, 'e', 00H, 'e', 00H, '_', 00H, 's'
	DB	00H, 'i', 00H, 'm', 00H, 'p', 00H, 'l', 00H, 'e', 00H, '_', 00H
	DB	't', 00H, 'y', 00H, 'p', 00H, 'e', 00H, 's', 00H, '<', 00H, 's'
	DB	00H, 't', 00H, 'r', 00H, 'u', 00H, 'c', 00H, 't', 00H, ' ', 00H
	DB	's', 00H, 't', 00H, 'd', 00H, ':', 00H, ':', 00H, 'p', 00H, 'a'
	DB	00H, 'i', 00H, 'r', 00H, '<', 00H, 'i', 00H, 'n', 00H, 't', 00H
	DB	' ', 00H, 'c', 00H, 'o', 00H, 'n', 00H, 's', 00H, 't', 00H, ' '
	DB	00H, ',', 00H, 'c', 00H, 'l', 00H, 'a', 00H, 's', 00H, 's', 00H
	DB	' ', 00H, 'B', 00H, 'a', 00H, 's', 00H, 'e', 00H, 'G', 00H, 'a'
	DB	00H, 'm', 00H, 'e', 00H, 'E', 00H, 'n', 00H, 't', 00H, 'i', 00H
	DB	't', 00H, 'y', 00H, ' ', 00H, '*', 00H, '>', 00H, ' ', 00H, '>'
	DB	00H, ' ', 00H, '>', 00H, ' ', 00H, '>', 00H, ':', 00H, ':', 00H
	DB	'o', 00H, 'p', 00H, 'e', 00H, 'r', 00H, 'a', 00H, 't', 00H, 'o'
	DB	00H, 'r', 00H, ' ', 00H, '=', 00H, '=', 00H, 00H, 00H ; `string'
CONST	ENDS
;	COMDAT ??_C@_1MM@ECCNBGLC@?$AAc?$AA?3?$AA?2?$AAp?$AAr?$AAo?$AAg?$AAr?$AAa?$AAm?$AA?5?$AAf?$AAi?$AAl?$AAe@
CONST	SEGMENT
??_C@_1MM@ECCNBGLC@?$AAc?$AA?3?$AA?2?$AAp?$AAr?$AAo?$AAg?$AAr?$AAa?$AAm?$AA?5?$AAf?$AAi?$AAl?$AAe@ DB 'c'
	DB	00H, ':', 00H, '\', 00H, 'p', 00H, 'r', 00H, 'o', 00H, 'g', 00H
	DB	'r', 00H, 'a', 00H, 'm', 00H, ' ', 00H, 'f', 00H, 'i', 00H, 'l'
	DB	00H, 'e', 00H, 's', 00H, ' ', 00H, '(', 00H, 'x', 00H, '8', 00H
	DB	'6', 00H, ')', 00H, '\', 00H, 'm', 00H, 'i', 00H, 'c', 00H, 'r'
	DB	00H, 'o', 00H, 's', 00H, 'o', 00H, 'f', 00H, 't', 00H, ' ', 00H
	DB	'v', 00H, 'i', 00H, 's', 00H, 'u', 00H, 'a', 00H, 'l', 00H, ' '
	DB	00H, 's', 00H, 't', 00H, 'u', 00H, 'd', 00H, 'i', 00H, 'o', 00H
	DB	'\', 00H, '2', 00H, '0', 00H, '1', 00H, '7', 00H, '\', 00H, 'c'
	DB	00H, 'o', 00H, 'm', 00H, 'm', 00H, 'u', 00H, 'n', 00H, 'i', 00H
	DB	't', 00H, 'y', 00H, '\', 00H, 'v', 00H, 'c', 00H, '\', 00H, 't'
	DB	00H, 'o', 00H, 'o', 00H, 'l', 00H, 's', 00H, '\', 00H, 'm', 00H
	DB	's', 00H, 'v', 00H, 'c', 00H, '\', 00H, '1', 00H, '4', 00H, '.'
	DB	00H, '1', 00H, '5', 00H, '.', 00H, '2', 00H, '6', 00H, '7', 00H
	DB	'2', 00H, '6', 00H, '\', 00H, 'i', 00H, 'n', 00H, 'c', 00H, 'l'
	DB	00H, 'u', 00H, 'd', 00H, 'e', 00H, '\', 00H, 'x', 00H, 't', 00H
	DB	'r', 00H, 'e', 00H, 'e', 00H, 00H, 00H	; `string'
CONST	ENDS
;	COMDAT ??_C@_0GG@KBILHLPB@c?3?2program?5files?5?$CIx86?$CJ?2microsof@
CONST	SEGMENT
??_C@_0GG@KBILHLPB@c?3?2program?5files?5?$CIx86?$CJ?2microsof@ DB 'c:\pro'
	DB	'gram files (x86)\microsoft visual studio\2017\community\vc\to'
	DB	'ols\msvc\14.15.26726\include\xtree', 00H	; `string'
CONST	ENDS
;	COMDAT ??_C@_0BP@OLDKBHLM@map?1set?5iterators?5incompatible@
CONST	SEGMENT
??_C@_0BP@OLDKBHLM@map?1set?5iterators?5incompatible@ DB 'map/set iterato'
	DB	'rs incompatible', 00H			; `string'
CONST	ENDS
;	COMDAT ??_C@_1EK@NIFDJFDG@?$AAs?$AAt?$AAd?$AA?3?$AA?3?$AA_?$AAA?$AAd?$AAj?$AAu?$AAs?$AAt?$AA_?$AAm?$AAa@
CONST	SEGMENT
??_C@_1EK@NIFDJFDG@?$AAs?$AAt?$AAd?$AA?3?$AA?3?$AA_?$AAA?$AAd?$AAj?$AAu?$AAs?$AAt?$AA_?$AAm?$AAa@ DB 's'
	DB	00H, 't', 00H, 'd', 00H, ':', 00H, ':', 00H, '_', 00H, 'A', 00H
	DB	'd', 00H, 'j', 00H, 'u', 00H, 's', 00H, 't', 00H, '_', 00H, 'm'
	DB	00H, 'a', 00H, 'n', 00H, 'u', 00H, 'a', 00H, 'l', 00H, 'l', 00H
	DB	'y', 00H, '_', 00H, 'v', 00H, 'e', 00H, 'c', 00H, 't', 00H, 'o'
	DB	00H, 'r', 00H, '_', 00H, 'a', 00H, 'l', 00H, 'i', 00H, 'g', 00H
	DB	'n', 00H, 'e', 00H, 'd', 00H, 00H, 00H	; `string'
CONST	ENDS
;	COMDAT ??_C@_1NC@ICJKIMIP@?$AAc?$AA?3?$AA?2?$AAp?$AAr?$AAo?$AAg?$AAr?$AAa?$AAm?$AA?5?$AAf?$AAi?$AAl?$AAe@
CONST	SEGMENT
??_C@_1NC@ICJKIMIP@?$AAc?$AA?3?$AA?2?$AAp?$AAr?$AAo?$AAg?$AAr?$AAa?$AAm?$AA?5?$AAf?$AAi?$AAl?$AAe@ DB 'c'
	DB	00H, ':', 00H, '\', 00H, 'p', 00H, 'r', 00H, 'o', 00H, 'g', 00H
	DB	'r', 00H, 'a', 00H, 'm', 00H, ' ', 00H, 'f', 00H, 'i', 00H, 'l'
	DB	00H, 'e', 00H, 's', 00H, ' ', 00H, '(', 00H, 'x', 00H, '8', 00H
	DB	'6', 00H, ')', 00H, '\', 00H, 'm', 00H, 'i', 00H, 'c', 00H, 'r'
	DB	00H, 'o', 00H, 's', 00H, 'o', 00H, 'f', 00H, 't', 00H, ' ', 00H
	DB	'v', 00H, 'i', 00H, 's', 00H, 'u', 00H, 'a', 00H, 'l', 00H, ' '
	DB	00H, 's', 00H, 't', 00H, 'u', 00H, 'd', 00H, 'i', 00H, 'o', 00H
	DB	'\', 00H, '2', 00H, '0', 00H, '1', 00H, '7', 00H, '\', 00H, 'c'
	DB	00H, 'o', 00H, 'm', 00H, 'm', 00H, 'u', 00H, 'n', 00H, 'i', 00H
	DB	't', 00H, 'y', 00H, '\', 00H, 'v', 00H, 'c', 00H, '\', 00H, 't'
	DB	00H, 'o', 00H, 'o', 00H, 'l', 00H, 's', 00H, '\', 00H, 'm', 00H
	DB	's', 00H, 'v', 00H, 'c', 00H, '\', 00H, '1', 00H, '4', 00H, '.'
	DB	00H, '1', 00H, '5', 00H, '.', 00H, '2', 00H, '6', 00H, '7', 00H
	DB	'2', 00H, '6', 00H, '\', 00H, 'i', 00H, 'n', 00H, 'c', 00H, 'l'
	DB	00H, 'u', 00H, 'd', 00H, 'e', 00H, '\', 00H, 'x', 00H, 'm', 00H
	DB	'e', 00H, 'm', 00H, 'o', 00H, 'r', 00H, 'y', 00H, '0', 00H, 00H
	DB	00H						; `string'
CONST	ENDS
;	COMDAT ??_C@_0GJ@CAJJPMGE@c?3?2program?5files?5?$CIx86?$CJ?2microsof@
CONST	SEGMENT
??_C@_0GJ@CAJJPMGE@c?3?2program?5files?5?$CIx86?$CJ?2microsof@ DB 'c:\pro'
	DB	'gram files (x86)\microsoft visual studio\2017\community\vc\to'
	DB	'ols\msvc\14.15.26726\include\xmemory0', 00H	; `string'
CONST	ENDS
;	COMDAT ??_C@_1DG@PLBPCAEM@?$AA?$CC?$AAI?$AAT?$AAE?$AAR?$AAA?$AAT?$AAO?$AAR?$AA?5?$AAL?$AAI?$AAS?$AAT?$AA?5@
CONST	SEGMENT
??_C@_1DG@PLBPCAEM@?$AA?$CC?$AAI?$AAT?$AAE?$AAR?$AAA?$AAT?$AAO?$AAR?$AA?5?$AAL?$AAI?$AAS?$AAT?$AA?5@ DB '"'
	DB	00H, 'I', 00H, 'T', 00H, 'E', 00H, 'R', 00H, 'A', 00H, 'T', 00H
	DB	'O', 00H, 'R', 00H, ' ', 00H, 'L', 00H, 'I', 00H, 'S', 00H, 'T'
	DB	00H, ' ', 00H, 'C', 00H, 'O', 00H, 'R', 00H, 'R', 00H, 'U', 00H
	DB	'P', 00H, 'T', 00H, 'E', 00H, 'D', 00H, '!', 00H, '"', 00H, 00H
	DB	00H						; `string'
CONST	ENDS
;	COMDAT ??_C@_1EE@KLDMFDFL@?$AAs?$AAt?$AAd?$AA?3?$AA?3?$AA_?$AAI?$AAt?$AAe?$AAr?$AAa?$AAt?$AAo?$AAr?$AA_@
CONST	SEGMENT
??_C@_1EE@KLDMFDFL@?$AAs?$AAt?$AAd?$AA?3?$AA?3?$AA_?$AAI?$AAt?$AAe?$AAr?$AAa?$AAt?$AAo?$AAr?$AA_@ DB 's'
	DB	00H, 't', 00H, 'd', 00H, ':', 00H, ':', 00H, '_', 00H, 'I', 00H
	DB	't', 00H, 'e', 00H, 'r', 00H, 'a', 00H, 't', 00H, 'o', 00H, 'r'
	DB	00H, '_', 00H, 'b', 00H, 'a', 00H, 's', 00H, 'e', 00H, '1', 00H
	DB	'2', 00H, ':', 00H, ':', 00H, '_', 00H, 'O', 00H, 'r', 00H, 'p'
	DB	00H, 'h', 00H, 'a', 00H, 'n', 00H, '_', 00H, 'm', 00H, 'e', 00H
	DB	00H, 00H					; `string'
CONST	ENDS
;	COMDAT ??_C@_1NC@HPHBFJCM@?$AAc?$AA?3?$AA?2?$AAp?$AAr?$AAo?$AAg?$AAr?$AAa?$AAm?$AA?5?$AAf?$AAi?$AAl?$AAe@
CONST	SEGMENT
??_C@_1NC@HPHBFJCM@?$AAc?$AA?3?$AA?2?$AAp?$AAr?$AAo?$AAg?$AAr?$AAa?$AAm?$AA?5?$AAf?$AAi?$AAl?$AAe@ DB 'c'
	DB	00H, ':', 00H, '\', 00H, 'p', 00H, 'r', 00H, 'o', 00H, 'g', 00H
	DB	'r', 00H, 'a', 00H, 'm', 00H, ' ', 00H, 'f', 00H, 'i', 00H, 'l'
	DB	00H, 'e', 00H, 's', 00H, ' ', 00H, '(', 00H, 'x', 00H, '8', 00H
	DB	'6', 00H, ')', 00H, '\', 00H, 'm', 00H, 'i', 00H, 'c', 00H, 'r'
	DB	00H, 'o', 00H, 's', 00H, 'o', 00H, 'f', 00H, 't', 00H, ' ', 00H
	DB	'v', 00H, 'i', 00H, 's', 00H, 'u', 00H, 'a', 00H, 'l', 00H, ' '
	DB	00H, 's', 00H, 't', 00H, 'u', 00H, 'd', 00H, 'i', 00H, 'o', 00H
	DB	'\', 00H, '2', 00H, '0', 00H, '1', 00H, '7', 00H, '\', 00H, 'c'
	DB	00H, 'o', 00H, 'm', 00H, 'm', 00H, 'u', 00H, 'n', 00H, 'i', 00H
	DB	't', 00H, 'y', 00H, '\', 00H, 'v', 00H, 'c', 00H, '\', 00H, 't'
	DB	00H, 'o', 00H, 'o', 00H, 'l', 00H, 's', 00H, '\', 00H, 'm', 00H
	DB	's', 00H, 'v', 00H, 'c', 00H, '\', 00H, '1', 00H, '4', 00H, '.'
	DB	00H, '1', 00H, '5', 00H, '.', 00H, '2', 00H, '6', 00H, '7', 00H
	DB	'2', 00H, '6', 00H, '\', 00H, 'i', 00H, 'n', 00H, 'c', 00H, 'l'
	DB	00H, 'u', 00H, 'd', 00H, 'e', 00H, '\', 00H, 'x', 00H, 'u', 00H
	DB	't', 00H, 'i', 00H, 'l', 00H, 'i', 00H, 't', 00H, 'y', 00H, 00H
	DB	00H						; `string'
CONST	ENDS
;	COMDAT ??_C@_0GJ@DMCEMOMH@c?3?2program?5files?5?$CIx86?$CJ?2microsof@
CONST	SEGMENT
??_C@_0GJ@DMCEMOMH@c?3?2program?5files?5?$CIx86?$CJ?2microsof@ DB 'c:\pro'
	DB	'gram files (x86)\microsoft visual studio\2017\community\vc\to'
	DB	'ols\msvc\14.15.26726\include\xutility', 00H	; `string'
CONST	ENDS
;	COMDAT ??_C@_0BJ@LFDBABJJ@ITERATOR?5LIST?5CORRUPTED?$CB@
CONST	SEGMENT
??_C@_0BJ@LFDBABJJ@ITERATOR?5LIST?5CORRUPTED?$CB@ DB 'ITERATOR LIST CORRU'
	DB	'PTED!', 00H					; `string'
CONST	ENDS
;	COMDAT ??_C@_1CG@JNLFBNGN@?$AA?$CC?$AAi?$AAn?$AAv?$AAa?$AAl?$AAi?$AAd?$AA?5?$AAa?$AAr?$AAg?$AAu?$AAm?$AAe@
CONST	SEGMENT
??_C@_1CG@JNLFBNGN@?$AA?$CC?$AAi?$AAn?$AAv?$AAa?$AAl?$AAi?$AAd?$AA?5?$AAa?$AAr?$AAg?$AAu?$AAm?$AAe@ DB '"'
	DB	00H, 'i', 00H, 'n', 00H, 'v', 00H, 'a', 00H, 'l', 00H, 'i', 00H
	DB	'd', 00H, ' ', 00H, 'a', 00H, 'r', 00H, 'g', 00H, 'u', 00H, 'm'
	DB	00H, 'e', 00H, 'n', 00H, 't', 00H, '"', 00H, 00H, 00H ; `string'
CONST	ENDS
;	COMDAT ??_C@_02DKCKIIND@?$CFs@
CONST	SEGMENT
??_C@_02DKCKIIND@?$CFs@ DB '%s', 00H			; `string'
CONST	ENDS
;	COMDAT ??_C@_0BB@FCMFBGOM@invalid?5argument@
CONST	SEGMENT
??_C@_0BB@FCMFBGOM@invalid?5argument@ DB 'invalid argument', 00H ; `string'
CONST	ENDS
;	COMDAT xdata$x
xdata$x	SEGMENT
__catchsym$??$_Insert_nohint@AAU?$pair@$$CBHPAVBaseGameEntity@@@std@@PAU?$_Tree_node@U?$pair@$$CBHPAVBaseGameEntity@@@std@@PAX@2@@?$_Tree@V?$_Tmap_traits@HPAVBaseGameEntity@@U?$less@H@std@@V?$allocator@U?$pair@$$CBHPAVBaseGameEntity@@@std@@@3@$0A@@std@@@std@@IAE?AU?$pair@V?$_Tree_iterator@V?$_Tree_val@U?$_Tree_simple_types@U?$pair@$$CBHPAVBaseGameEntity@@@std@@@std@@@std@@@std@@_N@1@_NAAU?$pair@$$CBHPAVBaseGameEntity@@@1@PAU?$_Tree_node@U?$pair@$$CBHPAVBaseGameEntity@@@std@@PAX@1@@Z$8 DD 040H
	DD	00H
	DD	00H
	DD	FLAT:__catch$??$_Insert_nohint@AAU?$pair@$$CBHPAVBaseGameEntity@@@std@@PAU?$_Tree_node@U?$pair@$$CBHPAVBaseGameEntity@@@std@@PAX@2@@?$_Tree@V?$_Tmap_traits@HPAVBaseGameEntity@@U?$less@H@std@@V?$allocator@U?$pair@$$CBHPAVBaseGameEntity@@@std@@@3@$0A@@std@@@std@@IAE?AU?$pair@V?$_Tree_iterator@V?$_Tree_val@U?$_Tree_simple_types@U?$pair@$$CBHPAVBaseGameEntity@@@std@@@std@@@std@@@std@@_N@1@_NAAU?$pair@$$CBHPAVBaseGameEntity@@@1@PAU?$_Tree_node@U?$pair@$$CBHPAVBaseGameEntity@@@std@@PAX@1@@Z$0
__tryblocktable$??$_Insert_nohint@AAU?$pair@$$CBHPAVBaseGameEntity@@@std@@PAU?$_Tree_node@U?$pair@$$CBHPAVBaseGameEntity@@@std@@PAX@2@@?$_Tree@V?$_Tmap_traits@HPAVBaseGameEntity@@U?$less@H@std@@V?$allocator@U?$pair@$$CBHPAVBaseGameEntity@@@std@@@3@$0A@@std@@@std@@IAE?AU?$pair@V?$_Tree_iterator@V?$_Tree_val@U?$_Tree_simple_types@U?$pair@$$CBHPAVBaseGameEntity@@@std@@@std@@@std@@@std@@_N@1@_NAAU?$pair@$$CBHPAVBaseGameEntity@@@1@PAU?$_Tree_node@U?$pair@$$CBHPAVBaseGameEntity@@@std@@PAX@1@@Z DD 00H
	DD	02H
	DD	03H
	DD	01H
	DD	FLAT:__catchsym$??$_Insert_nohint@AAU?$pair@$$CBHPAVBaseGameEntity@@@std@@PAU?$_Tree_node@U?$pair@$$CBHPAVBaseGameEntity@@@std@@PAX@2@@?$_Tree@V?$_Tmap_traits@HPAVBaseGameEntity@@U?$less@H@std@@V?$allocator@U?$pair@$$CBHPAVBaseGameEntity@@@std@@@3@$0A@@std@@@std@@IAE?AU?$pair@V?$_Tree_iterator@V?$_Tree_val@U?$_Tree_simple_types@U?$pair@$$CBHPAVBaseGameEntity@@@std@@@std@@@std@@@std@@_N@1@_NAAU?$pair@$$CBHPAVBaseGameEntity@@@1@PAU?$_Tree_node@U?$pair@$$CBHPAVBaseGameEntity@@@std@@PAX@1@@Z$8
__unwindtable$??$_Insert_nohint@AAU?$pair@$$CBHPAVBaseGameEntity@@@std@@PAU?$_Tree_node@U?$pair@$$CBHPAVBaseGameEntity@@@std@@PAX@2@@?$_Tree@V?$_Tmap_traits@HPAVBaseGameEntity@@U?$less@H@std@@V?$allocator@U?$pair@$$CBHPAVBaseGameEntity@@@std@@@3@$0A@@std@@@std@@IAE?AU?$pair@V?$_Tree_iterator@V?$_Tree_val@U?$_Tree_simple_types@U?$pair@$$CBHPAVBaseGameEntity@@@std@@@std@@@std@@@std@@_N@1@_NAAU?$pair@$$CBHPAVBaseGameEntity@@@1@PAU?$_Tree_node@U?$pair@$$CBHPAVBaseGameEntity@@@std@@PAX@1@@Z DD 0ffffffffH
	DD	00H
	DD	00H
	DD	FLAT:__unwindfunclet$??$_Insert_nohint@AAU?$pair@$$CBHPAVBaseGameEntity@@@std@@PAU?$_Tree_node@U?$pair@$$CBHPAVBaseGameEntity@@@std@@PAX@2@@?$_Tree@V?$_Tmap_traits@HPAVBaseGameEntity@@U?$less@H@std@@V?$allocator@U?$pair@$$CBHPAVBaseGameEntity@@@std@@@3@$0A@@std@@@std@@IAE?AU?$pair@V?$_Tree_iterator@V?$_Tree_val@U?$_Tree_simple_types@U?$pair@$$CBHPAVBaseGameEntity@@@std@@@std@@@std@@@std@@_N@1@_NAAU?$pair@$$CBHPAVBaseGameEntity@@@1@PAU?$_Tree_node@U?$pair@$$CBHPAVBaseGameEntity@@@std@@PAX@1@@Z$4
	DD	01H
	DD	FLAT:__unwindfunclet$??$_Insert_nohint@AAU?$pair@$$CBHPAVBaseGameEntity@@@std@@PAU?$_Tree_node@U?$pair@$$CBHPAVBaseGameEntity@@@std@@PAX@2@@?$_Tree@V?$_Tmap_traits@HPAVBaseGameEntity@@U?$less@H@std@@V?$allocator@U?$pair@$$CBHPAVBaseGameEntity@@@std@@@3@$0A@@std@@@std@@IAE?AU?$pair@V?$_Tree_iterator@V?$_Tree_val@U?$_Tree_simple_types@U?$pair@$$CBHPAVBaseGameEntity@@@std@@@std@@@std@@@std@@_N@1@_NAAU?$pair@$$CBHPAVBaseGameEntity@@@1@PAU?$_Tree_node@U?$pair@$$CBHPAVBaseGameEntity@@@std@@PAX@1@@Z$5
	DD	0ffffffffH
	DD	00H
__ehfuncinfo$??$_Insert_nohint@AAU?$pair@$$CBHPAVBaseGameEntity@@@std@@PAU?$_Tree_node@U?$pair@$$CBHPAVBaseGameEntity@@@std@@PAX@2@@?$_Tree@V?$_Tmap_traits@HPAVBaseGameEntity@@U?$less@H@std@@V?$allocator@U?$pair@$$CBHPAVBaseGameEntity@@@std@@@3@$0A@@std@@@std@@IAE?AU?$pair@V?$_Tree_iterator@V?$_Tree_val@U?$_Tree_simple_types@U?$pair@$$CBHPAVBaseGameEntity@@@std@@@std@@@std@@@std@@_N@1@_NAAU?$pair@$$CBHPAVBaseGameEntity@@@1@PAU?$_Tree_node@U?$pair@$$CBHPAVBaseGameEntity@@@std@@PAX@1@@Z DD 019930522H
	DD	04H
	DD	FLAT:__unwindtable$??$_Insert_nohint@AAU?$pair@$$CBHPAVBaseGameEntity@@@std@@PAU?$_Tree_node@U?$pair@$$CBHPAVBaseGameEntity@@@std@@PAX@2@@?$_Tree@V?$_Tmap_traits@HPAVBaseGameEntity@@U?$less@H@std@@V?$allocator@U?$pair@$$CBHPAVBaseGameEntity@@@std@@@3@$0A@@std@@@std@@IAE?AU?$pair@V?$_Tree_iterator@V?$_Tree_val@U?$_Tree_simple_types@U?$pair@$$CBHPAVBaseGameEntity@@@std@@@std@@@std@@@std@@_N@1@_NAAU?$pair@$$CBHPAVBaseGameEntity@@@1@PAU?$_Tree_node@U?$pair@$$CBHPAVBaseGameEntity@@@std@@PAX@1@@Z
	DD	01H
	DD	FLAT:__tryblocktable$??$_Insert_nohint@AAU?$pair@$$CBHPAVBaseGameEntity@@@std@@PAU?$_Tree_node@U?$pair@$$CBHPAVBaseGameEntity@@@std@@PAX@2@@?$_Tree@V?$_Tmap_traits@HPAVBaseGameEntity@@U?$less@H@std@@V?$allocator@U?$pair@$$CBHPAVBaseGameEntity@@@std@@@3@$0A@@std@@@std@@IAE?AU?$pair@V?$_Tree_iterator@V?$_Tree_val@U?$_Tree_simple_types@U?$pair@$$CBHPAVBaseGameEntity@@@std@@@std@@@std@@@std@@_N@1@_NAAU?$pair@$$CBHPAVBaseGameEntity@@@1@PAU?$_Tree_node@U?$pair@$$CBHPAVBaseGameEntity@@@std@@PAX@1@@Z
	DD	2 DUP(00H)
	DD	00H
	DD	01H
xdata$x	ENDS
;	COMDAT xdata$x
xdata$x	SEGMENT
__catchsym$??$_Buynode@U?$pair@HPAVBaseGameEntity@@@std@@@?$_Tree_comp_alloc@V?$_Tmap_traits@HPAVBaseGameEntity@@U?$less@H@std@@V?$allocator@U?$pair@$$CBHPAVBaseGameEntity@@@std@@@3@$0A@@std@@@std@@QAEPAU?$_Tree_node@U?$pair@$$CBHPAVBaseGameEntity@@@std@@PAX@1@$$QAU?$pair@HPAVBaseGameEntity@@@1@@Z$2 DD 040H
	DD	00H
	DD	00H
	DD	FLAT:__catch$??$_Buynode@U?$pair@HPAVBaseGameEntity@@@std@@@?$_Tree_comp_alloc@V?$_Tmap_traits@HPAVBaseGameEntity@@U?$less@H@std@@V?$allocator@U?$pair@$$CBHPAVBaseGameEntity@@@std@@@3@$0A@@std@@@std@@QAEPAU?$_Tree_node@U?$pair@$$CBHPAVBaseGameEntity@@@std@@PAX@1@$$QAU?$pair@HPAVBaseGameEntity@@@1@@Z$0
__unwindtable$??$_Buynode@U?$pair@HPAVBaseGameEntity@@@std@@@?$_Tree_comp_alloc@V?$_Tmap_traits@HPAVBaseGameEntity@@U?$less@H@std@@V?$allocator@U?$pair@$$CBHPAVBaseGameEntity@@@std@@@3@$0A@@std@@@std@@QAEPAU?$_Tree_node@U?$pair@$$CBHPAVBaseGameEntity@@@std@@PAX@1@$$QAU?$pair@HPAVBaseGameEntity@@@1@@Z DD 0ffffffffH
	DD	00H
	DD	0ffffffffH
	DD	00H
__tryblocktable$??$_Buynode@U?$pair@HPAVBaseGameEntity@@@std@@@?$_Tree_comp_alloc@V?$_Tmap_traits@HPAVBaseGameEntity@@U?$less@H@std@@V?$allocator@U?$pair@$$CBHPAVBaseGameEntity@@@std@@@3@$0A@@std@@@std@@QAEPAU?$_Tree_node@U?$pair@$$CBHPAVBaseGameEntity@@@std@@PAX@1@$$QAU?$pair@HPAVBaseGameEntity@@@1@@Z DD 00H
	DD	00H
	DD	01H
	DD	01H
	DD	FLAT:__catchsym$??$_Buynode@U?$pair@HPAVBaseGameEntity@@@std@@@?$_Tree_comp_alloc@V?$_Tmap_traits@HPAVBaseGameEntity@@U?$less@H@std@@V?$allocator@U?$pair@$$CBHPAVBaseGameEntity@@@std@@@3@$0A@@std@@@std@@QAEPAU?$_Tree_node@U?$pair@$$CBHPAVBaseGameEntity@@@std@@PAX@1@$$QAU?$pair@HPAVBaseGameEntity@@@1@@Z$2
__ehfuncinfo$??$_Buynode@U?$pair@HPAVBaseGameEntity@@@std@@@?$_Tree_comp_alloc@V?$_Tmap_traits@HPAVBaseGameEntity@@U?$less@H@std@@V?$allocator@U?$pair@$$CBHPAVBaseGameEntity@@@std@@@3@$0A@@std@@@std@@QAEPAU?$_Tree_node@U?$pair@$$CBHPAVBaseGameEntity@@@std@@PAX@1@$$QAU?$pair@HPAVBaseGameEntity@@@1@@Z DD 019930522H
	DD	02H
	DD	FLAT:__unwindtable$??$_Buynode@U?$pair@HPAVBaseGameEntity@@@std@@@?$_Tree_comp_alloc@V?$_Tmap_traits@HPAVBaseGameEntity@@U?$less@H@std@@V?$allocator@U?$pair@$$CBHPAVBaseGameEntity@@@std@@@3@$0A@@std@@@std@@QAEPAU?$_Tree_node@U?$pair@$$CBHPAVBaseGameEntity@@@std@@PAX@1@$$QAU?$pair@HPAVBaseGameEntity@@@1@@Z
	DD	01H
	DD	FLAT:__tryblocktable$??$_Buynode@U?$pair@HPAVBaseGameEntity@@@std@@@?$_Tree_comp_alloc@V?$_Tmap_traits@HPAVBaseGameEntity@@U?$less@H@std@@V?$allocator@U?$pair@$$CBHPAVBaseGameEntity@@@std@@@3@$0A@@std@@@std@@QAEPAU?$_Tree_node@U?$pair@$$CBHPAVBaseGameEntity@@@std@@PAX@1@$$QAU?$pair@HPAVBaseGameEntity@@@1@@Z
	DD	2 DUP(00H)
	DD	00H
	DD	01H
xdata$x	ENDS
;	COMDAT xdata$x
xdata$x	SEGMENT
__ehfuncinfo$??$_Freenode0@V?$allocator@U?$_Tree_node@U?$pair@$$CBHPAVBaseGameEntity@@@std@@PAX@std@@@std@@@?$_Tree_node@U?$pair@$$CBHPAVBaseGameEntity@@@std@@PAX@std@@SAXAAV?$allocator@U?$_Tree_node@U?$pair@$$CBHPAVBaseGameEntity@@@std@@PAX@std@@@1@PAU01@@Z DD 019930522H
	DD	00H
	DD	00H
	DD	2 DUP(00H)
	DD	2 DUP(00H)
	DD	00H
	DD	05H
xdata$x	ENDS
;	COMDAT xdata$x
xdata$x	SEGMENT
__unwindtable$??$erase@V?$_Tree_iterator@V?$_Tree_val@U?$_Tree_simple_types@U?$pair@$$CBHPAVBaseGameEntity@@@std@@@std@@@std@@@std@@X@?$_Tree@V?$_Tmap_traits@HPAVBaseGameEntity@@U?$less@H@std@@V?$allocator@U?$pair@$$CBHPAVBaseGameEntity@@@std@@@3@$0A@@std@@@std@@QAE?AV?$_Tree_iterator@V?$_Tree_val@U?$_Tree_simple_types@U?$pair@$$CBHPAVBaseGameEntity@@@std@@@std@@@std@@@1@V21@@Z DD 0ffffffffH
	DD	FLAT:__unwindfunclet$??$erase@V?$_Tree_iterator@V?$_Tree_val@U?$_Tree_simple_types@U?$pair@$$CBHPAVBaseGameEntity@@@std@@@std@@@std@@@std@@X@?$_Tree@V?$_Tmap_traits@HPAVBaseGameEntity@@U?$less@H@std@@V?$allocator@U?$pair@$$CBHPAVBaseGameEntity@@@std@@@3@$0A@@std@@@std@@QAE?AV?$_Tree_iterator@V?$_Tree_val@U?$_Tree_simple_types@U?$pair@$$CBHPAVBaseGameEntity@@@std@@@std@@@std@@@1@V21@@Z$0
__ehfuncinfo$??$erase@V?$_Tree_iterator@V?$_Tree_val@U?$_Tree_simple_types@U?$pair@$$CBHPAVBaseGameEntity@@@std@@@std@@@std@@@std@@X@?$_Tree@V?$_Tmap_traits@HPAVBaseGameEntity@@U?$less@H@std@@V?$allocator@U?$pair@$$CBHPAVBaseGameEntity@@@std@@@3@$0A@@std@@@std@@QAE?AV?$_Tree_iterator@V?$_Tree_val@U?$_Tree_simple_types@U?$pair@$$CBHPAVBaseGameEntity@@@std@@@std@@@std@@@1@V21@@Z DD 019930522H
	DD	01H
	DD	FLAT:__unwindtable$??$erase@V?$_Tree_iterator@V?$_Tree_val@U?$_Tree_simple_types@U?$pair@$$CBHPAVBaseGameEntity@@@std@@@std@@@std@@@std@@X@?$_Tree@V?$_Tmap_traits@HPAVBaseGameEntity@@U?$less@H@std@@V?$allocator@U?$pair@$$CBHPAVBaseGameEntity@@@std@@@3@$0A@@std@@@std@@QAE?AV?$_Tree_iterator@V?$_Tree_val@U?$_Tree_simple_types@U?$pair@$$CBHPAVBaseGameEntity@@@std@@@std@@@std@@@1@V21@@Z
	DD	2 DUP(00H)
	DD	2 DUP(00H)
	DD	00H
	DD	01H
xdata$x	ENDS
;	COMDAT xdata$x
xdata$x	SEGMENT
__unwindtable$??E?$_Tree_const_iterator@V?$_Tree_val@U?$_Tree_simple_types@U?$pair@$$CBHPAVBaseGameEntity@@@std@@@std@@@std@@@std@@QAE?AV01@H@Z DD 0ffffffffH
	DD	FLAT:__unwindfunclet$??E?$_Tree_const_iterator@V?$_Tree_val@U?$_Tree_simple_types@U?$pair@$$CBHPAVBaseGameEntity@@@std@@@std@@@std@@@std@@QAE?AV01@H@Z$0
__ehfuncinfo$??E?$_Tree_const_iterator@V?$_Tree_val@U?$_Tree_simple_types@U?$pair@$$CBHPAVBaseGameEntity@@@std@@@std@@@std@@@std@@QAE?AV01@H@Z DD 019930522H
	DD	01H
	DD	FLAT:__unwindtable$??E?$_Tree_const_iterator@V?$_Tree_val@U?$_Tree_simple_types@U?$pair@$$CBHPAVBaseGameEntity@@@std@@@std@@@std@@@std@@QAE?AV01@H@Z
	DD	2 DUP(00H)
	DD	2 DUP(00H)
	DD	00H
	DD	01H
xdata$x	ENDS
xdata$x	SEGMENT
__unwindtable$?Instance@EntityManager@@SAPAV1@XZ DD 0ffffffffH
	DD	FLAT:__unwindfunclet$?Instance@EntityManager@@SAPAV1@XZ$0
__unwindtable$?GetEntityFromID@EntityManager@@QBEPAVBaseGameEntity@@H@Z DD 0ffffffffH
	DD	FLAT:__unwindfunclet$?GetEntityFromID@EntityManager@@QBEPAVBaseGameEntity@@H@Z$0
	DD	00H
	DD	FLAT:__unwindfunclet$?GetEntityFromID@EntityManager@@QBEPAVBaseGameEntity@@H@Z$1
__ehfuncinfo$?GetEntityFromID@EntityManager@@QBEPAVBaseGameEntity@@H@Z DD 019930522H
	DD	02H
	DD	FLAT:__unwindtable$?GetEntityFromID@EntityManager@@QBEPAVBaseGameEntity@@H@Z
	DD	2 DUP(00H)
	DD	2 DUP(00H)
	DD	00H
	DD	01H
__ehfuncinfo$?Instance@EntityManager@@SAPAV1@XZ DD 019930522H
	DD	01H
	DD	FLAT:__unwindtable$?Instance@EntityManager@@SAPAV1@XZ
	DD	2 DUP(00H)
	DD	2 DUP(00H)
	DD	00H
	DD	01H
xdata$x	ENDS
;	COMDAT xdata$x
xdata$x	SEGMENT
__unwindtable$?_Tidy@?$_Tree@V?$_Tmap_traits@HPAVBaseGameEntity@@U?$less@H@std@@V?$allocator@U?$pair@$$CBHPAVBaseGameEntity@@@std@@@3@$0A@@std@@@std@@IAEXXZ DD 0ffffffffH
	DD	FLAT:__unwindfunclet$?_Tidy@?$_Tree@V?$_Tmap_traits@HPAVBaseGameEntity@@U?$less@H@std@@V?$allocator@U?$pair@$$CBHPAVBaseGameEntity@@@std@@@3@$0A@@std@@@std@@IAEXXZ$0
	DD	00H
	DD	FLAT:__unwindfunclet$?_Tidy@?$_Tree@V?$_Tmap_traits@HPAVBaseGameEntity@@U?$less@H@std@@V?$allocator@U?$pair@$$CBHPAVBaseGameEntity@@@std@@@3@$0A@@std@@@std@@IAEXXZ$2
__ehfuncinfo$?_Tidy@?$_Tree@V?$_Tmap_traits@HPAVBaseGameEntity@@U?$less@H@std@@V?$allocator@U?$pair@$$CBHPAVBaseGameEntity@@@std@@@3@$0A@@std@@@std@@IAEXXZ DD 019930522H
	DD	02H
	DD	FLAT:__unwindtable$?_Tidy@?$_Tree@V?$_Tmap_traits@HPAVBaseGameEntity@@U?$less@H@std@@V?$allocator@U?$pair@$$CBHPAVBaseGameEntity@@@std@@@3@$0A@@std@@@std@@IAEXXZ
	DD	2 DUP(00H)
	DD	2 DUP(00H)
	DD	00H
	DD	01H
xdata$x	ENDS
;	COMDAT xdata$x
xdata$x	SEGMENT
__unwindtable$?_Orphan_ptr@?$_Tree@V?$_Tmap_traits@HPAVBaseGameEntity@@U?$less@H@std@@V?$allocator@U?$pair@$$CBHPAVBaseGameEntity@@@std@@@3@$0A@@std@@@std@@IAEXPAU?$_Tree_node@U?$pair@$$CBHPAVBaseGameEntity@@@std@@PAX@2@@Z DD 0ffffffffH
	DD	FLAT:__unwindfunclet$?_Orphan_ptr@?$_Tree@V?$_Tmap_traits@HPAVBaseGameEntity@@U?$less@H@std@@V?$allocator@U?$pair@$$CBHPAVBaseGameEntity@@@std@@@3@$0A@@std@@@std@@IAEXPAU?$_Tree_node@U?$pair@$$CBHPAVBaseGameEntity@@@std@@PAX@2@@Z$0
__ehfuncinfo$?_Orphan_ptr@?$_Tree@V?$_Tmap_traits@HPAVBaseGameEntity@@U?$less@H@std@@V?$allocator@U?$pair@$$CBHPAVBaseGameEntity@@@std@@@3@$0A@@std@@@std@@IAEXPAU?$_Tree_node@U?$pair@$$CBHPAVBaseGameEntity@@@std@@PAX@2@@Z DD 019930522H
	DD	01H
	DD	FLAT:__unwindtable$?_Orphan_ptr@?$_Tree@V?$_Tmap_traits@HPAVBaseGameEntity@@U?$less@H@std@@V?$allocator@U?$pair@$$CBHPAVBaseGameEntity@@@std@@@3@$0A@@std@@@std@@IAEXPAU?$_Tree_node@U?$pair@$$CBHPAVBaseGameEntity@@@std@@PAX@2@@Z
	DD	2 DUP(00H)
	DD	2 DUP(00H)
	DD	00H
	DD	01H
xdata$x	ENDS
;	COMDAT xdata$x
xdata$x	SEGMENT
__unwindtable$?find@?$_Tree@V?$_Tmap_traits@HPAVBaseGameEntity@@U?$less@H@std@@V?$allocator@U?$pair@$$CBHPAVBaseGameEntity@@@std@@@3@$0A@@std@@@std@@QBE?AV?$_Tree_const_iterator@V?$_Tree_val@U?$_Tree_simple_types@U?$pair@$$CBHPAVBaseGameEntity@@@std@@@std@@@std@@@2@ABH@Z DD 0ffffffffH
	DD	FLAT:__unwindfunclet$?find@?$_Tree@V?$_Tmap_traits@HPAVBaseGameEntity@@U?$less@H@std@@V?$allocator@U?$pair@$$CBHPAVBaseGameEntity@@@std@@@3@$0A@@std@@@std@@QBE?AV?$_Tree_const_iterator@V?$_Tree_val@U?$_Tree_simple_types@U?$pair@$$CBHPAVBaseGameEntity@@@std@@@std@@@std@@@2@ABH@Z$0
	DD	00H
	DD	FLAT:__unwindfunclet$?find@?$_Tree@V?$_Tmap_traits@HPAVBaseGameEntity@@U?$less@H@std@@V?$allocator@U?$pair@$$CBHPAVBaseGameEntity@@@std@@@3@$0A@@std@@@std@@QBE?AV?$_Tree_const_iterator@V?$_Tree_val@U?$_Tree_simple_types@U?$pair@$$CBHPAVBaseGameEntity@@@std@@@std@@@std@@@2@ABH@Z$1
__ehfuncinfo$?find@?$_Tree@V?$_Tmap_traits@HPAVBaseGameEntity@@U?$less@H@std@@V?$allocator@U?$pair@$$CBHPAVBaseGameEntity@@@std@@@3@$0A@@std@@@std@@QBE?AV?$_Tree_const_iterator@V?$_Tree_val@U?$_Tree_simple_types@U?$pair@$$CBHPAVBaseGameEntity@@@std@@@std@@@std@@@2@ABH@Z DD 019930522H
	DD	02H
	DD	FLAT:__unwindtable$?find@?$_Tree@V?$_Tmap_traits@HPAVBaseGameEntity@@U?$less@H@std@@V?$allocator@U?$pair@$$CBHPAVBaseGameEntity@@@std@@@3@$0A@@std@@@std@@QBE?AV?$_Tree_const_iterator@V?$_Tree_val@U?$_Tree_simple_types@U?$pair@$$CBHPAVBaseGameEntity@@@std@@@std@@@std@@@2@ABH@Z
	DD	2 DUP(00H)
	DD	2 DUP(00H)
	DD	00H
	DD	01H
xdata$x	ENDS
;	COMDAT xdata$x
xdata$x	SEGMENT
__unwindtable$?find@?$_Tree@V?$_Tmap_traits@HPAVBaseGameEntity@@U?$less@H@std@@V?$allocator@U?$pair@$$CBHPAVBaseGameEntity@@@std@@@3@$0A@@std@@@std@@QAE?AV?$_Tree_iterator@V?$_Tree_val@U?$_Tree_simple_types@U?$pair@$$CBHPAVBaseGameEntity@@@std@@@std@@@std@@@2@ABH@Z DD 0ffffffffH
	DD	FLAT:__unwindfunclet$?find@?$_Tree@V?$_Tmap_traits@HPAVBaseGameEntity@@U?$less@H@std@@V?$allocator@U?$pair@$$CBHPAVBaseGameEntity@@@std@@@3@$0A@@std@@@std@@QAE?AV?$_Tree_iterator@V?$_Tree_val@U?$_Tree_simple_types@U?$pair@$$CBHPAVBaseGameEntity@@@std@@@std@@@std@@@2@ABH@Z$0
	DD	00H
	DD	FLAT:__unwindfunclet$?find@?$_Tree@V?$_Tmap_traits@HPAVBaseGameEntity@@U?$less@H@std@@V?$allocator@U?$pair@$$CBHPAVBaseGameEntity@@@std@@@3@$0A@@std@@@std@@QAE?AV?$_Tree_iterator@V?$_Tree_val@U?$_Tree_simple_types@U?$pair@$$CBHPAVBaseGameEntity@@@std@@@std@@@std@@@2@ABH@Z$1
__ehfuncinfo$?find@?$_Tree@V?$_Tmap_traits@HPAVBaseGameEntity@@U?$less@H@std@@V?$allocator@U?$pair@$$CBHPAVBaseGameEntity@@@std@@@3@$0A@@std@@@std@@QAE?AV?$_Tree_iterator@V?$_Tree_val@U?$_Tree_simple_types@U?$pair@$$CBHPAVBaseGameEntity@@@std@@@std@@@std@@@2@ABH@Z DD 019930522H
	DD	02H
	DD	FLAT:__unwindtable$?find@?$_Tree@V?$_Tmap_traits@HPAVBaseGameEntity@@U?$less@H@std@@V?$allocator@U?$pair@$$CBHPAVBaseGameEntity@@@std@@@3@$0A@@std@@@std@@QAE?AV?$_Tree_iterator@V?$_Tree_val@U?$_Tree_simple_types@U?$pair@$$CBHPAVBaseGameEntity@@@std@@@std@@@std@@@2@ABH@Z
	DD	2 DUP(00H)
	DD	2 DUP(00H)
	DD	00H
	DD	01H
xdata$x	ENDS
;	COMDAT xdata$x
xdata$x	SEGMENT
__ehfuncinfo$?clear@?$_Tree@V?$_Tmap_traits@HPAVBaseGameEntity@@U?$less@H@std@@V?$allocator@U?$pair@$$CBHPAVBaseGameEntity@@@std@@@3@$0A@@std@@@std@@QAEXXZ DD 019930522H
	DD	00H
	DD	00H
	DD	2 DUP(00H)
	DD	2 DUP(00H)
	DD	00H
	DD	05H
xdata$x	ENDS
;	COMDAT xdata$x
xdata$x	SEGMENT
__unwindtable$?erase@?$_Tree@V?$_Tmap_traits@HPAVBaseGameEntity@@U?$less@H@std@@V?$allocator@U?$pair@$$CBHPAVBaseGameEntity@@@std@@@3@$0A@@std@@@std@@QAE?AV?$_Tree_iterator@V?$_Tree_val@U?$_Tree_simple_types@U?$pair@$$CBHPAVBaseGameEntity@@@std@@@std@@@std@@@2@V?$_Tree_const_iterator@V?$_Tree_val@U?$_Tree_simple_types@U?$pair@$$CBHPAVBaseGameEntity@@@std@@@std@@@std@@@2@0@Z DD 0ffffffffH
	DD	FLAT:__unwindfunclet$?erase@?$_Tree@V?$_Tmap_traits@HPAVBaseGameEntity@@U?$less@H@std@@V?$allocator@U?$pair@$$CBHPAVBaseGameEntity@@@std@@@3@$0A@@std@@@std@@QAE?AV?$_Tree_iterator@V?$_Tree_val@U?$_Tree_simple_types@U?$pair@$$CBHPAVBaseGameEntity@@@std@@@std@@@std@@@2@V?$_Tree_const_iterator@V?$_Tree_val@U?$_Tree_simple_types@U?$pair@$$CBHPAVBaseGameEntity@@@std@@@std@@@std@@@2@0@Z$0
	DD	00H
	DD	FLAT:__unwindfunclet$?erase@?$_Tree@V?$_Tmap_traits@HPAVBaseGameEntity@@U?$less@H@std@@V?$allocator@U?$pair@$$CBHPAVBaseGameEntity@@@std@@@3@$0A@@std@@@std@@QAE?AV?$_Tree_iterator@V?$_Tree_val@U?$_Tree_simple_types@U?$pair@$$CBHPAVBaseGameEntity@@@std@@@std@@@std@@@2@V?$_Tree_const_iterator@V?$_Tree_val@U?$_Tree_simple_types@U?$pair@$$CBHPAVBaseGameEntity@@@std@@@std@@@std@@@2@0@Z$1
	DD	01H
	DD	FLAT:__unwindfunclet$?erase@?$_Tree@V?$_Tmap_traits@HPAVBaseGameEntity@@U?$less@H@std@@V?$allocator@U?$pair@$$CBHPAVBaseGameEntity@@@std@@@3@$0A@@std@@@std@@QAE?AV?$_Tree_iterator@V?$_Tree_val@U?$_Tree_simple_types@U?$pair@$$CBHPAVBaseGameEntity@@@std@@@std@@@std@@@2@V?$_Tree_const_iterator@V?$_Tree_val@U?$_Tree_simple_types@U?$pair@$$CBHPAVBaseGameEntity@@@std@@@std@@@std@@@2@0@Z$2
	DD	02H
	DD	FLAT:__unwindfunclet$?erase@?$_Tree@V?$_Tmap_traits@HPAVBaseGameEntity@@U?$less@H@std@@V?$allocator@U?$pair@$$CBHPAVBaseGameEntity@@@std@@@3@$0A@@std@@@std@@QAE?AV?$_Tree_iterator@V?$_Tree_val@U?$_Tree_simple_types@U?$pair@$$CBHPAVBaseGameEntity@@@std@@@std@@@std@@@2@V?$_Tree_const_iterator@V?$_Tree_val@U?$_Tree_simple_types@U?$pair@$$CBHPAVBaseGameEntity@@@std@@@std@@@std@@@2@0@Z$3
__ehfuncinfo$?erase@?$_Tree@V?$_Tmap_traits@HPAVBaseGameEntity@@U?$less@H@std@@V?$allocator@U?$pair@$$CBHPAVBaseGameEntity@@@std@@@3@$0A@@std@@@std@@QAE?AV?$_Tree_iterator@V?$_Tree_val@U?$_Tree_simple_types@U?$pair@$$CBHPAVBaseGameEntity@@@std@@@std@@@std@@@2@V?$_Tree_const_iterator@V?$_Tree_val@U?$_Tree_simple_types@U?$pair@$$CBHPAVBaseGameEntity@@@std@@@std@@@std@@@2@0@Z DD 019930522H
	DD	04H
	DD	FLAT:__unwindtable$?erase@?$_Tree@V?$_Tmap_traits@HPAVBaseGameEntity@@U?$less@H@std@@V?$allocator@U?$pair@$$CBHPAVBaseGameEntity@@@std@@@3@$0A@@std@@@std@@QAE?AV?$_Tree_iterator@V?$_Tree_val@U?$_Tree_simple_types@U?$pair@$$CBHPAVBaseGameEntity@@@std@@@std@@@std@@@2@V?$_Tree_const_iterator@V?$_Tree_val@U?$_Tree_simple_types@U?$pair@$$CBHPAVBaseGameEntity@@@std@@@std@@@std@@@2@0@Z
	DD	2 DUP(00H)
	DD	2 DUP(00H)
	DD	00H
	DD	01H
xdata$x	ENDS
;	COMDAT xdata$x
xdata$x	SEGMENT
__unwindtable$?erase@?$_Tree@V?$_Tmap_traits@HPAVBaseGameEntity@@U?$less@H@std@@V?$allocator@U?$pair@$$CBHPAVBaseGameEntity@@@std@@@3@$0A@@std@@@std@@QAE?AV?$_Tree_iterator@V?$_Tree_val@U?$_Tree_simple_types@U?$pair@$$CBHPAVBaseGameEntity@@@std@@@std@@@std@@@2@V?$_Tree_const_iterator@V?$_Tree_val@U?$_Tree_simple_types@U?$pair@$$CBHPAVBaseGameEntity@@@std@@@std@@@std@@@2@@Z DD 0ffffffffH
	DD	FLAT:__unwindfunclet$?erase@?$_Tree@V?$_Tmap_traits@HPAVBaseGameEntity@@U?$less@H@std@@V?$allocator@U?$pair@$$CBHPAVBaseGameEntity@@@std@@@3@$0A@@std@@@std@@QAE?AV?$_Tree_iterator@V?$_Tree_val@U?$_Tree_simple_types@U?$pair@$$CBHPAVBaseGameEntity@@@std@@@std@@@std@@@2@V?$_Tree_const_iterator@V?$_Tree_val@U?$_Tree_simple_types@U?$pair@$$CBHPAVBaseGameEntity@@@std@@@std@@@std@@@2@@Z$0
	DD	00H
	DD	FLAT:__unwindfunclet$?erase@?$_Tree@V?$_Tmap_traits@HPAVBaseGameEntity@@U?$less@H@std@@V?$allocator@U?$pair@$$CBHPAVBaseGameEntity@@@std@@@3@$0A@@std@@@std@@QAE?AV?$_Tree_iterator@V?$_Tree_val@U?$_Tree_simple_types@U?$pair@$$CBHPAVBaseGameEntity@@@std@@@std@@@std@@@2@V?$_Tree_const_iterator@V?$_Tree_val@U?$_Tree_simple_types@U?$pair@$$CBHPAVBaseGameEntity@@@std@@@std@@@std@@@2@@Z$1
__ehfuncinfo$?erase@?$_Tree@V?$_Tmap_traits@HPAVBaseGameEntity@@U?$less@H@std@@V?$allocator@U?$pair@$$CBHPAVBaseGameEntity@@@std@@@3@$0A@@std@@@std@@QAE?AV?$_Tree_iterator@V?$_Tree_val@U?$_Tree_simple_types@U?$pair@$$CBHPAVBaseGameEntity@@@std@@@std@@@std@@@2@V?$_Tree_const_iterator@V?$_Tree_val@U?$_Tree_simple_types@U?$pair@$$CBHPAVBaseGameEntity@@@std@@@std@@@std@@@2@@Z DD 019930522H
	DD	02H
	DD	FLAT:__unwindtable$?erase@?$_Tree@V?$_Tmap_traits@HPAVBaseGameEntity@@U?$less@H@std@@V?$allocator@U?$pair@$$CBHPAVBaseGameEntity@@@std@@@3@$0A@@std@@@std@@QAE?AV?$_Tree_iterator@V?$_Tree_val@U?$_Tree_simple_types@U?$pair@$$CBHPAVBaseGameEntity@@@std@@@std@@@std@@@2@V?$_Tree_const_iterator@V?$_Tree_val@U?$_Tree_simple_types@U?$pair@$$CBHPAVBaseGameEntity@@@std@@@std@@@std@@@2@@Z
	DD	2 DUP(00H)
	DD	2 DUP(00H)
	DD	00H
	DD	01H
xdata$x	ENDS
;	COMDAT xdata$x
xdata$x	SEGMENT
__ehfuncinfo$?end@?$_Tree@V?$_Tmap_traits@HPAVBaseGameEntity@@U?$less@H@std@@V?$allocator@U?$pair@$$CBHPAVBaseGameEntity@@@std@@@3@$0A@@std@@@std@@QBE?AV?$_Tree_const_iterator@V?$_Tree_val@U?$_Tree_simple_types@U?$pair@$$CBHPAVBaseGameEntity@@@std@@@std@@@std@@@2@XZ DD 019930522H
	DD	00H
	DD	00H
	DD	2 DUP(00H)
	DD	2 DUP(00H)
	DD	00H
	DD	05H
xdata$x	ENDS
;	COMDAT xdata$x
xdata$x	SEGMENT
__ehfuncinfo$?end@?$_Tree@V?$_Tmap_traits@HPAVBaseGameEntity@@U?$less@H@std@@V?$allocator@U?$pair@$$CBHPAVBaseGameEntity@@@std@@@3@$0A@@std@@@std@@QAE?AV?$_Tree_iterator@V?$_Tree_val@U?$_Tree_simple_types@U?$pair@$$CBHPAVBaseGameEntity@@@std@@@std@@@std@@@2@XZ DD 019930522H
	DD	00H
	DD	00H
	DD	2 DUP(00H)
	DD	2 DUP(00H)
	DD	00H
	DD	05H
xdata$x	ENDS
;	COMDAT xdata$x
xdata$x	SEGMENT
__ehfuncinfo$?begin@?$_Tree@V?$_Tmap_traits@HPAVBaseGameEntity@@U?$less@H@std@@V?$allocator@U?$pair@$$CBHPAVBaseGameEntity@@@std@@@3@$0A@@std@@@std@@QAE?AV?$_Tree_iterator@V?$_Tree_val@U?$_Tree_simple_types@U?$pair@$$CBHPAVBaseGameEntity@@@std@@@std@@@std@@@2@XZ DD 019930522H
	DD	00H
	DD	00H
	DD	2 DUP(00H)
	DD	2 DUP(00H)
	DD	00H
	DD	05H
xdata$x	ENDS
;	COMDAT xdata$x
xdata$x	SEGMENT
__ehfuncinfo$??1?$_Tree@V?$_Tmap_traits@HPAVBaseGameEntity@@U?$less@H@std@@V?$allocator@U?$pair@$$CBHPAVBaseGameEntity@@@std@@@3@$0A@@std@@@std@@QAE@XZ DD 019930522H
	DD	00H
	DD	00H
	DD	2 DUP(00H)
	DD	2 DUP(00H)
	DD	00H
	DD	05H
xdata$x	ENDS
;	COMDAT xdata$x
xdata$x	SEGMENT
__unwindtable$?_Extract@?$_Tree_val@U?$_Tree_simple_types@U?$pair@$$CBHPAVBaseGameEntity@@@std@@@std@@@std@@QAEPAU?$_Tree_node@U?$pair@$$CBHPAVBaseGameEntity@@@std@@PAX@2@V?$_Tree_const_iterator@V?$_Tree_val@U?$_Tree_simple_types@U?$pair@$$CBHPAVBaseGameEntity@@@std@@@std@@@std@@@2@@Z DD 0ffffffffH
	DD	FLAT:__unwindfunclet$?_Extract@?$_Tree_val@U?$_Tree_simple_types@U?$pair@$$CBHPAVBaseGameEntity@@@std@@@std@@@std@@QAEPAU?$_Tree_node@U?$pair@$$CBHPAVBaseGameEntity@@@std@@PAX@2@V?$_Tree_const_iterator@V?$_Tree_val@U?$_Tree_simple_types@U?$pair@$$CBHPAVBaseGameEntity@@@std@@@std@@@std@@@2@@Z$0
__ehfuncinfo$?_Extract@?$_Tree_val@U?$_Tree_simple_types@U?$pair@$$CBHPAVBaseGameEntity@@@std@@@std@@@std@@QAEPAU?$_Tree_node@U?$pair@$$CBHPAVBaseGameEntity@@@std@@PAX@2@V?$_Tree_const_iterator@V?$_Tree_val@U?$_Tree_simple_types@U?$pair@$$CBHPAVBaseGameEntity@@@std@@@std@@@std@@@2@@Z DD 019930522H
	DD	01H
	DD	FLAT:__unwindtable$?_Extract@?$_Tree_val@U?$_Tree_simple_types@U?$pair@$$CBHPAVBaseGameEntity@@@std@@@std@@@std@@QAEPAU?$_Tree_node@U?$pair@$$CBHPAVBaseGameEntity@@@std@@PAX@2@V?$_Tree_const_iterator@V?$_Tree_val@U?$_Tree_simple_types@U?$pair@$$CBHPAVBaseGameEntity@@@std@@@std@@@std@@@2@@Z
	DD	2 DUP(00H)
	DD	2 DUP(00H)
	DD	00H
	DD	01H
xdata$x	ENDS
;	COMDAT xdata$x
xdata$x	SEGMENT
__catchsym$?_Buynode0@?$_Tree_comp_alloc@V?$_Tmap_traits@HPAVBaseGameEntity@@U?$less@H@std@@V?$allocator@U?$pair@$$CBHPAVBaseGameEntity@@@std@@@3@$0A@@std@@@std@@QAEPAU?$_Tree_node@U?$pair@$$CBHPAVBaseGameEntity@@@std@@PAX@2@XZ$2 DD 040H
	DD	00H
	DD	00H
	DD	FLAT:__catch$?_Buynode0@?$_Tree_comp_alloc@V?$_Tmap_traits@HPAVBaseGameEntity@@U?$less@H@std@@V?$allocator@U?$pair@$$CBHPAVBaseGameEntity@@@std@@@3@$0A@@std@@@std@@QAEPAU?$_Tree_node@U?$pair@$$CBHPAVBaseGameEntity@@@std@@PAX@2@XZ$0
__unwindtable$?_Buynode0@?$_Tree_comp_alloc@V?$_Tmap_traits@HPAVBaseGameEntity@@U?$less@H@std@@V?$allocator@U?$pair@$$CBHPAVBaseGameEntity@@@std@@@3@$0A@@std@@@std@@QAEPAU?$_Tree_node@U?$pair@$$CBHPAVBaseGameEntity@@@std@@PAX@2@XZ DD 0ffffffffH
	DD	00H
	DD	0ffffffffH
	DD	00H
__tryblocktable$?_Buynode0@?$_Tree_comp_alloc@V?$_Tmap_traits@HPAVBaseGameEntity@@U?$less@H@std@@V?$allocator@U?$pair@$$CBHPAVBaseGameEntity@@@std@@@3@$0A@@std@@@std@@QAEPAU?$_Tree_node@U?$pair@$$CBHPAVBaseGameEntity@@@std@@PAX@2@XZ DD 00H
	DD	00H
	DD	01H
	DD	01H
	DD	FLAT:__catchsym$?_Buynode0@?$_Tree_comp_alloc@V?$_Tmap_traits@HPAVBaseGameEntity@@U?$less@H@std@@V?$allocator@U?$pair@$$CBHPAVBaseGameEntity@@@std@@@3@$0A@@std@@@std@@QAEPAU?$_Tree_node@U?$pair@$$CBHPAVBaseGameEntity@@@std@@PAX@2@XZ$2
__ehfuncinfo$?_Buynode0@?$_Tree_comp_alloc@V?$_Tmap_traits@HPAVBaseGameEntity@@U?$less@H@std@@V?$allocator@U?$pair@$$CBHPAVBaseGameEntity@@@std@@@3@$0A@@std@@@std@@QAEPAU?$_Tree_node@U?$pair@$$CBHPAVBaseGameEntity@@@std@@PAX@2@XZ DD 019930522H
	DD	02H
	DD	FLAT:__unwindtable$?_Buynode0@?$_Tree_comp_alloc@V?$_Tmap_traits@HPAVBaseGameEntity@@U?$less@H@std@@V?$allocator@U?$pair@$$CBHPAVBaseGameEntity@@@std@@@3@$0A@@std@@@std@@QAEPAU?$_Tree_node@U?$pair@$$CBHPAVBaseGameEntity@@@std@@PAX@2@XZ
	DD	01H
	DD	FLAT:__tryblocktable$?_Buynode0@?$_Tree_comp_alloc@V?$_Tmap_traits@HPAVBaseGameEntity@@U?$less@H@std@@V?$allocator@U?$pair@$$CBHPAVBaseGameEntity@@@std@@@3@$0A@@std@@@std@@QAEPAU?$_Tree_node@U?$pair@$$CBHPAVBaseGameEntity@@@std@@PAX@2@XZ
	DD	2 DUP(00H)
	DD	00H
	DD	01H
xdata$x	ENDS
;	COMDAT xdata$x
xdata$x	SEGMENT
__catchsym$?_Buyheadnode@?$_Tree_comp_alloc@V?$_Tmap_traits@HPAVBaseGameEntity@@U?$less@H@std@@V?$allocator@U?$pair@$$CBHPAVBaseGameEntity@@@std@@@3@$0A@@std@@@std@@QAEPAU?$_Tree_node@U?$pair@$$CBHPAVBaseGameEntity@@@std@@PAX@2@XZ$2 DD 040H
	DD	00H
	DD	00H
	DD	FLAT:__catch$?_Buyheadnode@?$_Tree_comp_alloc@V?$_Tmap_traits@HPAVBaseGameEntity@@U?$less@H@std@@V?$allocator@U?$pair@$$CBHPAVBaseGameEntity@@@std@@@3@$0A@@std@@@std@@QAEPAU?$_Tree_node@U?$pair@$$CBHPAVBaseGameEntity@@@std@@PAX@2@XZ$0
__unwindtable$?_Buyheadnode@?$_Tree_comp_alloc@V?$_Tmap_traits@HPAVBaseGameEntity@@U?$less@H@std@@V?$allocator@U?$pair@$$CBHPAVBaseGameEntity@@@std@@@3@$0A@@std@@@std@@QAEPAU?$_Tree_node@U?$pair@$$CBHPAVBaseGameEntity@@@std@@PAX@2@XZ DD 0ffffffffH
	DD	00H
	DD	0ffffffffH
	DD	00H
__tryblocktable$?_Buyheadnode@?$_Tree_comp_alloc@V?$_Tmap_traits@HPAVBaseGameEntity@@U?$less@H@std@@V?$allocator@U?$pair@$$CBHPAVBaseGameEntity@@@std@@@3@$0A@@std@@@std@@QAEPAU?$_Tree_node@U?$pair@$$CBHPAVBaseGameEntity@@@std@@PAX@2@XZ DD 00H
	DD	00H
	DD	01H
	DD	01H
	DD	FLAT:__catchsym$?_Buyheadnode@?$_Tree_comp_alloc@V?$_Tmap_traits@HPAVBaseGameEntity@@U?$less@H@std@@V?$allocator@U?$pair@$$CBHPAVBaseGameEntity@@@std@@@3@$0A@@std@@@std@@QAEPAU?$_Tree_node@U?$pair@$$CBHPAVBaseGameEntity@@@std@@PAX@2@XZ$2
__ehfuncinfo$?_Buyheadnode@?$_Tree_comp_alloc@V?$_Tmap_traits@HPAVBaseGameEntity@@U?$less@H@std@@V?$allocator@U?$pair@$$CBHPAVBaseGameEntity@@@std@@@3@$0A@@std@@@std@@QAEPAU?$_Tree_node@U?$pair@$$CBHPAVBaseGameEntity@@@std@@PAX@2@XZ DD 019930522H
	DD	02H
	DD	FLAT:__unwindtable$?_Buyheadnode@?$_Tree_comp_alloc@V?$_Tmap_traits@HPAVBaseGameEntity@@U?$less@H@std@@V?$allocator@U?$pair@$$CBHPAVBaseGameEntity@@@std@@@3@$0A@@std@@@std@@QAEPAU?$_Tree_node@U?$pair@$$CBHPAVBaseGameEntity@@@std@@PAX@2@XZ
	DD	01H
	DD	FLAT:__tryblocktable$?_Buyheadnode@?$_Tree_comp_alloc@V?$_Tmap_traits@HPAVBaseGameEntity@@U?$less@H@std@@V?$allocator@U?$pair@$$CBHPAVBaseGameEntity@@@std@@@3@$0A@@std@@@std@@QAEPAU?$_Tree_node@U?$pair@$$CBHPAVBaseGameEntity@@@std@@PAX@2@XZ
	DD	2 DUP(00H)
	DD	00H
	DD	01H
xdata$x	ENDS
;	COMDAT xdata$x
xdata$x	SEGMENT
__ehfuncinfo$??1?$_Tree_comp_alloc@V?$_Tmap_traits@HPAVBaseGameEntity@@U?$less@H@std@@V?$allocator@U?$pair@$$CBHPAVBaseGameEntity@@@std@@@3@$0A@@std@@@std@@QAE@XZ DD 019930522H
	DD	00H
	DD	00H
	DD	2 DUP(00H)
	DD	2 DUP(00H)
	DD	00H
	DD	05H
xdata$x	ENDS
;	COMDAT xdata$x
xdata$x	SEGMENT
__catchsym$?_Construct@?$_Tree_comp_alloc@V?$_Tmap_traits@HPAVBaseGameEntity@@U?$less@H@std@@V?$allocator@U?$pair@$$CBHPAVBaseGameEntity@@@std@@@3@$0A@@std@@@std@@QAEXXZ$2 DD 040H
	DD	00H
	DD	00H
	DD	FLAT:__catch$?_Construct@?$_Tree_comp_alloc@V?$_Tmap_traits@HPAVBaseGameEntity@@U?$less@H@std@@V?$allocator@U?$pair@$$CBHPAVBaseGameEntity@@@std@@@3@$0A@@std@@@std@@QAEXXZ$0
__unwindtable$?_Construct@?$_Tree_comp_alloc@V?$_Tmap_traits@HPAVBaseGameEntity@@U?$less@H@std@@V?$allocator@U?$pair@$$CBHPAVBaseGameEntity@@@std@@@3@$0A@@std@@@std@@QAEXXZ DD 0ffffffffH
	DD	00H
	DD	0ffffffffH
	DD	00H
__tryblocktable$?_Construct@?$_Tree_comp_alloc@V?$_Tmap_traits@HPAVBaseGameEntity@@U?$less@H@std@@V?$allocator@U?$pair@$$CBHPAVBaseGameEntity@@@std@@@3@$0A@@std@@@std@@QAEXXZ DD 00H
	DD	00H
	DD	01H
	DD	01H
	DD	FLAT:__catchsym$?_Construct@?$_Tree_comp_alloc@V?$_Tmap_traits@HPAVBaseGameEntity@@U?$less@H@std@@V?$allocator@U?$pair@$$CBHPAVBaseGameEntity@@@std@@@3@$0A@@std@@@std@@QAEXXZ$2
__ehfuncinfo$?_Construct@?$_Tree_comp_alloc@V?$_Tmap_traits@HPAVBaseGameEntity@@U?$less@H@std@@V?$allocator@U?$pair@$$CBHPAVBaseGameEntity@@@std@@@3@$0A@@std@@@std@@QAEXXZ DD 019930522H
	DD	02H
	DD	FLAT:__unwindtable$?_Construct@?$_Tree_comp_alloc@V?$_Tmap_traits@HPAVBaseGameEntity@@U?$less@H@std@@V?$allocator@U?$pair@$$CBHPAVBaseGameEntity@@@std@@@3@$0A@@std@@@std@@QAEXXZ
	DD	01H
	DD	FLAT:__tryblocktable$?_Construct@?$_Tree_comp_alloc@V?$_Tmap_traits@HPAVBaseGameEntity@@U?$less@H@std@@V?$allocator@U?$pair@$$CBHPAVBaseGameEntity@@@std@@@3@$0A@@std@@@std@@QAEXXZ
	DD	2 DUP(00H)
	DD	00H
	DD	01H
xdata$x	ENDS
;	COMDAT xdata$x
xdata$x	SEGMENT
__ehfuncinfo$?_Adopt@_Iterator_base12@std@@QAEXPBU_Container_base12@2@@Z DD 019930522H
	DD	00H
	DD	00H
	DD	2 DUP(00H)
	DD	2 DUP(00H)
	DD	00H
	DD	05H
xdata$x	ENDS
;	COMDAT xdata$x
xdata$x	SEGMENT
__ehfuncinfo$??1_Iterator_base12@std@@QAE@XZ DD 019930522H
	DD	00H
	DD	00H
	DD	2 DUP(00H)
	DD	2 DUP(00H)
	DD	00H
	DD	05H
xdata$x	ENDS
;	COMDAT xdata$x
xdata$x	SEGMENT
__ehfuncinfo$??4_Iterator_base12@std@@QAEAAU01@ABU01@@Z DD 019930522H
	DD	00H
	DD	00H
	DD	2 DUP(00H)
	DD	2 DUP(00H)
	DD	00H
	DD	05H
xdata$x	ENDS
;	COMDAT xdata$x
xdata$x	SEGMENT
__ehfuncinfo$?_Orphan_all@_Container_base12@std@@QAEXXZ DD 019930522H
	DD	00H
	DD	00H
	DD	2 DUP(00H)
	DD	2 DUP(00H)
	DD	00H
	DD	05H
xdata$x	ENDS
CRT$XCU	SEGMENT
?MaxDouble$initializer$@@3P6AXXZA DD FLAT:??__EMaxDouble@@YAXXZ ; MaxDouble$initializer$
CRT$XCU	ENDS
CRT$XCU	SEGMENT
?MinDouble$initializer$@@3P6AXXZA DD FLAT:??__EMinDouble@@YAXXZ ; MinDouble$initializer$
CRT$XCU	ENDS
CRT$XCU	SEGMENT
?MaxFloat$initializer$@@3P6AXXZA DD FLAT:??__EMaxFloat@@YAXXZ ; MaxFloat$initializer$
CRT$XCU	ENDS
CRT$XCU	SEGMENT
?MinFloat$initializer$@@3P6AXXZA DD FLAT:??__EMinFloat@@YAXXZ ; MinFloat$initializer$
CRT$XCU	ENDS
; Function compile flags: /Odtp /RTCsu
; File c:\program files (x86)\microsoft visual studio\2017\community\vc\tools\msvc\14.15.26726\include\type_traits
;	COMDAT ??$forward@PAVBaseGameEntity@@@std@@YA$$QAPAVBaseGameEntity@@AAPAV1@@Z
_TEXT	SEGMENT
__Arg$ = 8						; size = 4
??$forward@PAVBaseGameEntity@@@std@@YA$$QAPAVBaseGameEntity@@AAPAV1@@Z PROC ; std::forward<BaseGameEntity *>, COMDAT

; 1573 : 	{	// forward an lvalue as either an lvalue or an rvalue

	push	ebp
	mov	ebp, esp

; 1574 : 	return (static_cast<_Ty&&>(_Arg));

	mov	eax, DWORD PTR __Arg$[ebp]

; 1575 : 	}

	pop	ebp
	ret	0
??$forward@PAVBaseGameEntity@@@std@@YA$$QAPAVBaseGameEntity@@AAPAV1@@Z ENDP ; std::forward<BaseGameEntity *>
_TEXT	ENDS
; Function compile flags: /Odtp /RTCsu
; File c:\program files (x86)\microsoft visual studio\2017\community\vc\tools\msvc\14.15.26726\include\type_traits
;	COMDAT ??$forward@AAV?$_Tree_iterator@V?$_Tree_val@U?$_Tree_simple_types@U?$pair@$$CBHPAVBaseGameEntity@@@std@@@std@@@std@@@std@@@std@@YAAAV?$_Tree_iterator@V?$_Tree_val@U?$_Tree_simple_types@U?$pair@$$CBHPAVBaseGameEntity@@@std@@@std@@@std@@@0@AAV10@@Z
_TEXT	SEGMENT
__Arg$ = 8						; size = 4
??$forward@AAV?$_Tree_iterator@V?$_Tree_val@U?$_Tree_simple_types@U?$pair@$$CBHPAVBaseGameEntity@@@std@@@std@@@std@@@std@@@std@@YAAAV?$_Tree_iterator@V?$_Tree_val@U?$_Tree_simple_types@U?$pair@$$CBHPAVBaseGameEntity@@@std@@@std@@@std@@@0@AAV10@@Z PROC ; std::forward<std::_Tree_iterator<std::_Tree_val<std::_Tree_simple_types<std::pair<int const ,BaseGameEntity *> > > > &>, COMDAT

; 1573 : 	{	// forward an lvalue as either an lvalue or an rvalue

	push	ebp
	mov	ebp, esp

; 1574 : 	return (static_cast<_Ty&&>(_Arg));

	mov	eax, DWORD PTR __Arg$[ebp]

; 1575 : 	}

	pop	ebp
	ret	0
??$forward@AAV?$_Tree_iterator@V?$_Tree_val@U?$_Tree_simple_types@U?$pair@$$CBHPAVBaseGameEntity@@@std@@@std@@@std@@@std@@@std@@YAAAV?$_Tree_iterator@V?$_Tree_val@U?$_Tree_simple_types@U?$pair@$$CBHPAVBaseGameEntity@@@std@@@std@@@std@@@0@AAV10@@Z ENDP ; std::forward<std::_Tree_iterator<std::_Tree_val<std::_Tree_simple_types<std::pair<int const ,BaseGameEntity *> > > > &>
_TEXT	ENDS
; Function compile flags: /Odtp /RTCsu
; File c:\program files (x86)\microsoft visual studio\2017\community\vc\tools\msvc\14.15.26726\include\type_traits
;	COMDAT ??$forward@_N@std@@YA$$QA_NAA_N@Z
_TEXT	SEGMENT
__Arg$ = 8						; size = 4
??$forward@_N@std@@YA$$QA_NAA_N@Z PROC			; std::forward<bool>, COMDAT

; 1573 : 	{	// forward an lvalue as either an lvalue or an rvalue

	push	ebp
	mov	ebp, esp

; 1574 : 	return (static_cast<_Ty&&>(_Arg));

	mov	eax, DWORD PTR __Arg$[ebp]

; 1575 : 	}

	pop	ebp
	ret	0
??$forward@_N@std@@YA$$QA_NAA_N@Z ENDP			; std::forward<bool>
_TEXT	ENDS
; Function compile flags: /Odtp /RTCsu
; File c:\program files (x86)\microsoft visual studio\2017\community\vc\tools\msvc\14.15.26726\include\type_traits
;	COMDAT ??$forward@V?$_Tree_iterator@V?$_Tree_val@U?$_Tree_simple_types@U?$pair@$$CBHPAVBaseGameEntity@@@std@@@std@@@std@@@std@@@std@@YA$$QAV?$_Tree_iterator@V?$_Tree_val@U?$_Tree_simple_types@U?$pair@$$CBHPAVBaseGameEntity@@@std@@@std@@@std@@@0@AAV10@@Z
_TEXT	SEGMENT
__Arg$ = 8						; size = 4
??$forward@V?$_Tree_iterator@V?$_Tree_val@U?$_Tree_simple_types@U?$pair@$$CBHPAVBaseGameEntity@@@std@@@std@@@std@@@std@@@std@@YA$$QAV?$_Tree_iterator@V?$_Tree_val@U?$_Tree_simple_types@U?$pair@$$CBHPAVBaseGameEntity@@@std@@@std@@@std@@@0@AAV10@@Z PROC ; std::forward<std::_Tree_iterator<std::_Tree_val<std::_Tree_simple_types<std::pair<int const ,BaseGameEntity *> > > > >, COMDAT

; 1573 : 	{	// forward an lvalue as either an lvalue or an rvalue

	push	ebp
	mov	ebp, esp

; 1574 : 	return (static_cast<_Ty&&>(_Arg));

	mov	eax, DWORD PTR __Arg$[ebp]

; 1575 : 	}

	pop	ebp
	ret	0
??$forward@V?$_Tree_iterator@V?$_Tree_val@U?$_Tree_simple_types@U?$pair@$$CBHPAVBaseGameEntity@@@std@@@std@@@std@@@std@@@std@@YA$$QAV?$_Tree_iterator@V?$_Tree_val@U?$_Tree_simple_types@U?$pair@$$CBHPAVBaseGameEntity@@@std@@@std@@@std@@@0@AAV10@@Z ENDP ; std::forward<std::_Tree_iterator<std::_Tree_val<std::_Tree_simple_types<std::pair<int const ,BaseGameEntity *> > > > >
_TEXT	ENDS
; Function compile flags: /Odtp /RTCsu
; File c:\program files (x86)\microsoft visual studio\2017\community\vc\tools\msvc\14.15.26726\include\xtree
;	COMDAT ??$_Buy_if_not_node@AAU?$pair@$$CBHPAVBaseGameEntity@@@std@@@?$_Tree@V?$_Tmap_traits@HPAVBaseGameEntity@@U?$less@H@std@@V?$allocator@U?$pair@$$CBHPAVBaseGameEntity@@@std@@@3@$0A@@std@@@std@@IAEPAU?$_Tree_node@U?$pair@$$CBHPAVBaseGameEntity@@@std@@PAX@1@PAU21@AAU?$pair@$$CBHPAVBaseGameEntity@@@1@@Z
_TEXT	SEGMENT
_this$ = -4						; size = 4
__Node$ = 8						; size = 4
___formal$ = 12						; size = 4
??$_Buy_if_not_node@AAU?$pair@$$CBHPAVBaseGameEntity@@@std@@@?$_Tree@V?$_Tmap_traits@HPAVBaseGameEntity@@U?$less@H@std@@V?$allocator@U?$pair@$$CBHPAVBaseGameEntity@@@std@@@3@$0A@@std@@@std@@IAEPAU?$_Tree_node@U?$pair@$$CBHPAVBaseGameEntity@@@std@@PAX@1@PAU21@AAU?$pair@$$CBHPAVBaseGameEntity@@@1@@Z PROC ; std::_Tree<std::_Tmap_traits<int,BaseGameEntity *,std::less<int>,std::allocator<std::pair<int const ,BaseGameEntity *> >,0> >::_Buy_if_not_node<std::pair<int const ,BaseGameEntity *> &>, COMDAT
; _this$ = ecx

; 1574 : 		{	// node exists, just return it

	push	ebp
	mov	ebp, esp
	push	ecx
	mov	DWORD PTR [ebp-4], -858993460		; ccccccccH
	mov	DWORD PTR _this$[ebp], ecx

; 1575 : 		return (_Node);

	mov	eax, DWORD PTR __Node$[ebp]

; 1576 : 		}

	mov	esp, ebp
	pop	ebp
	ret	8
??$_Buy_if_not_node@AAU?$pair@$$CBHPAVBaseGameEntity@@@std@@@?$_Tree@V?$_Tmap_traits@HPAVBaseGameEntity@@U?$less@H@std@@V?$allocator@U?$pair@$$CBHPAVBaseGameEntity@@@std@@@3@$0A@@std@@@std@@IAEPAU?$_Tree_node@U?$pair@$$CBHPAVBaseGameEntity@@@std@@PAX@1@PAU21@AAU?$pair@$$CBHPAVBaseGameEntity@@@1@@Z ENDP ; std::_Tree<std::_Tmap_traits<int,BaseGameEntity *,std::less<int>,std::allocator<std::pair<int const ,BaseGameEntity *> >,0> >::_Buy_if_not_node<std::pair<int const ,BaseGameEntity *> &>
_TEXT	ENDS
; Function compile flags: /Odtp /RTCsu
; File c:\program files (x86)\microsoft visual studio\2017\community\vc\tools\msvc\14.15.26726\include\utility
;	COMDAT ??$?0AAV?$_Tree_iterator@V?$_Tree_val@U?$_Tree_simple_types@U?$pair@$$CBHPAVBaseGameEntity@@@std@@@std@@@std@@@std@@_N$0A@@?$pair@V?$_Tree_iterator@V?$_Tree_val@U?$_Tree_simple_types@U?$pair@$$CBHPAVBaseGameEntity@@@std@@@std@@@std@@@std@@_N@std@@QAE@AAV?$_Tree_iterator@V?$_Tree_val@U?$_Tree_simple_types@U?$pair@$$CBHPAVBaseGameEntity@@@std@@@std@@@std@@@1@$$QA_N@Z
_TEXT	SEGMENT
_this$ = -4						; size = 4
__Val1$ = 8						; size = 4
__Val2$ = 12						; size = 4
??$?0AAV?$_Tree_iterator@V?$_Tree_val@U?$_Tree_simple_types@U?$pair@$$CBHPAVBaseGameEntity@@@std@@@std@@@std@@@std@@_N$0A@@?$pair@V?$_Tree_iterator@V?$_Tree_val@U?$_Tree_simple_types@U?$pair@$$CBHPAVBaseGameEntity@@@std@@@std@@@std@@@std@@_N@std@@QAE@AAV?$_Tree_iterator@V?$_Tree_val@U?$_Tree_simple_types@U?$pair@$$CBHPAVBaseGameEntity@@@std@@@std@@@std@@@1@$$QA_N@Z PROC ; std::pair<std::_Tree_iterator<std::_Tree_val<std::_Tree_simple_types<std::pair<int const ,BaseGameEntity *> > > >,bool>::pair<std::_Tree_iterator<std::_Tree_val<std::_Tree_simple_types<std::pair<int const ,BaseGameEntity *> > > >,bool><std::_Tree_iterator<std::_Tree_val<std::_Tree_simple_types<std::pair<int const ,BaseGameEntity *> > > > &,bool,0>, COMDAT
; _this$ = ecx

; 174  : 		{

	push	ebp
	mov	ebp, esp
	push	ecx
	mov	DWORD PTR [ebp-4], -858993460		; ccccccccH
	mov	DWORD PTR _this$[ebp], ecx

; 172  : 		: first(_STD forward<_Other1>(_Val1)),

	mov	eax, DWORD PTR __Val1$[ebp]
	push	eax
	call	??$forward@AAV?$_Tree_iterator@V?$_Tree_val@U?$_Tree_simple_types@U?$pair@$$CBHPAVBaseGameEntity@@@std@@@std@@@std@@@std@@@std@@YAAAV?$_Tree_iterator@V?$_Tree_val@U?$_Tree_simple_types@U?$pair@$$CBHPAVBaseGameEntity@@@std@@@std@@@std@@@0@AAV10@@Z ; std::forward<std::_Tree_iterator<std::_Tree_val<std::_Tree_simple_types<std::pair<int const ,BaseGameEntity *> > > > &>
	add	esp, 4
	push	eax
	mov	ecx, DWORD PTR _this$[ebp]
	call	??0?$_Tree_iterator@V?$_Tree_val@U?$_Tree_simple_types@U?$pair@$$CBHPAVBaseGameEntity@@@std@@@std@@@std@@@std@@QAE@ABV01@@Z

; 173  : 				second(_STD forward<_Other2>(_Val2))

	mov	ecx, DWORD PTR __Val2$[ebp]
	push	ecx
	call	??$forward@_N@std@@YA$$QA_NAA_N@Z	; std::forward<bool>
	add	esp, 4
	mov	edx, DWORD PTR _this$[ebp]
	mov	al, BYTE PTR [eax]
	mov	BYTE PTR [edx+12], al

; 175  : 		}

	mov	eax, DWORD PTR _this$[ebp]
	add	esp, 4
	cmp	ebp, esp
	call	__RTC_CheckEsp
	mov	esp, ebp
	pop	ebp
	ret	8
??$?0AAV?$_Tree_iterator@V?$_Tree_val@U?$_Tree_simple_types@U?$pair@$$CBHPAVBaseGameEntity@@@std@@@std@@@std@@@std@@_N$0A@@?$pair@V?$_Tree_iterator@V?$_Tree_val@U?$_Tree_simple_types@U?$pair@$$CBHPAVBaseGameEntity@@@std@@@std@@@std@@@std@@_N@std@@QAE@AAV?$_Tree_iterator@V?$_Tree_val@U?$_Tree_simple_types@U?$pair@$$CBHPAVBaseGameEntity@@@std@@@std@@@std@@@1@$$QA_N@Z ENDP ; std::pair<std::_Tree_iterator<std::_Tree_val<std::_Tree_simple_types<std::pair<int const ,BaseGameEntity *> > > >,bool>::pair<std::_Tree_iterator<std::_Tree_val<std::_Tree_simple_types<std::pair<int const ,BaseGameEntity *> > > >,bool><std::_Tree_iterator<std::_Tree_val<std::_Tree_simple_types<std::pair<int const ,BaseGameEntity *> > > > &,bool,0>
_TEXT	ENDS
; Function compile flags: /Odtp /RTCsu
; File c:\program files (x86)\microsoft visual studio\2017\community\vc\tools\msvc\14.15.26726\include\utility
;	COMDAT ??$?0V?$_Tree_iterator@V?$_Tree_val@U?$_Tree_simple_types@U?$pair@$$CBHPAVBaseGameEntity@@@std@@@std@@@std@@@std@@_N$0A@@?$pair@V?$_Tree_iterator@V?$_Tree_val@U?$_Tree_simple_types@U?$pair@$$CBHPAVBaseGameEntity@@@std@@@std@@@std@@@std@@_N@std@@QAE@$$QAV?$_Tree_iterator@V?$_Tree_val@U?$_Tree_simple_types@U?$pair@$$CBHPAVBaseGameEntity@@@std@@@std@@@std@@@1@$$QA_N@Z
_TEXT	SEGMENT
_this$ = -4						; size = 4
__Val1$ = 8						; size = 4
__Val2$ = 12						; size = 4
??$?0V?$_Tree_iterator@V?$_Tree_val@U?$_Tree_simple_types@U?$pair@$$CBHPAVBaseGameEntity@@@std@@@std@@@std@@@std@@_N$0A@@?$pair@V?$_Tree_iterator@V?$_Tree_val@U?$_Tree_simple_types@U?$pair@$$CBHPAVBaseGameEntity@@@std@@@std@@@std@@@std@@_N@std@@QAE@$$QAV?$_Tree_iterator@V?$_Tree_val@U?$_Tree_simple_types@U?$pair@$$CBHPAVBaseGameEntity@@@std@@@std@@@std@@@1@$$QA_N@Z PROC ; std::pair<std::_Tree_iterator<std::_Tree_val<std::_Tree_simple_types<std::pair<int const ,BaseGameEntity *> > > >,bool>::pair<std::_Tree_iterator<std::_Tree_val<std::_Tree_simple_types<std::pair<int const ,BaseGameEntity *> > > >,bool><std::_Tree_iterator<std::_Tree_val<std::_Tree_simple_types<std::pair<int const ,BaseGameEntity *> > > >,bool,0>, COMDAT
; _this$ = ecx

; 174  : 		{

	push	ebp
	mov	ebp, esp
	push	ecx
	mov	DWORD PTR [ebp-4], -858993460		; ccccccccH
	mov	DWORD PTR _this$[ebp], ecx

; 172  : 		: first(_STD forward<_Other1>(_Val1)),

	mov	eax, DWORD PTR __Val1$[ebp]
	push	eax
	call	??$forward@V?$_Tree_iterator@V?$_Tree_val@U?$_Tree_simple_types@U?$pair@$$CBHPAVBaseGameEntity@@@std@@@std@@@std@@@std@@@std@@YA$$QAV?$_Tree_iterator@V?$_Tree_val@U?$_Tree_simple_types@U?$pair@$$CBHPAVBaseGameEntity@@@std@@@std@@@std@@@0@AAV10@@Z ; std::forward<std::_Tree_iterator<std::_Tree_val<std::_Tree_simple_types<std::pair<int const ,BaseGameEntity *> > > > >
	add	esp, 4
	push	eax
	mov	ecx, DWORD PTR _this$[ebp]
	call	??0?$_Tree_iterator@V?$_Tree_val@U?$_Tree_simple_types@U?$pair@$$CBHPAVBaseGameEntity@@@std@@@std@@@std@@@std@@QAE@$$QAV01@@Z

; 173  : 				second(_STD forward<_Other2>(_Val2))

	mov	ecx, DWORD PTR __Val2$[ebp]
	push	ecx
	call	??$forward@_N@std@@YA$$QA_NAA_N@Z	; std::forward<bool>
	add	esp, 4
	mov	edx, DWORD PTR _this$[ebp]
	mov	al, BYTE PTR [eax]
	mov	BYTE PTR [edx+12], al

; 175  : 		}

	mov	eax, DWORD PTR _this$[ebp]
	add	esp, 4
	cmp	ebp, esp
	call	__RTC_CheckEsp
	mov	esp, ebp
	pop	ebp
	ret	8
??$?0V?$_Tree_iterator@V?$_Tree_val@U?$_Tree_simple_types@U?$pair@$$CBHPAVBaseGameEntity@@@std@@@std@@@std@@@std@@_N$0A@@?$pair@V?$_Tree_iterator@V?$_Tree_val@U?$_Tree_simple_types@U?$pair@$$CBHPAVBaseGameEntity@@@std@@@std@@@std@@@std@@_N@std@@QAE@$$QAV?$_Tree_iterator@V?$_Tree_val@U?$_Tree_simple_types@U?$pair@$$CBHPAVBaseGameEntity@@@std@@@std@@@std@@@1@$$QA_N@Z ENDP ; std::pair<std::_Tree_iterator<std::_Tree_val<std::_Tree_simple_types<std::pair<int const ,BaseGameEntity *> > > >,bool>::pair<std::_Tree_iterator<std::_Tree_val<std::_Tree_simple_types<std::pair<int const ,BaseGameEntity *> > > >,bool><std::_Tree_iterator<std::_Tree_val<std::_Tree_simple_types<std::pair<int const ,BaseGameEntity *> > > >,bool,0>
_TEXT	ENDS
; Function compile flags: /Odtp /RTCsu
; File c:\program files (x86)\microsoft visual studio\2017\community\vc\tools\msvc\14.15.26726\include\xtree
;	COMDAT ??$_Insert_at@AAU?$pair@$$CBHPAVBaseGameEntity@@@std@@PAU?$_Tree_node@U?$pair@$$CBHPAVBaseGameEntity@@@std@@PAX@2@@?$_Tree@V?$_Tmap_traits@HPAVBaseGameEntity@@U?$less@H@std@@V?$allocator@U?$pair@$$CBHPAVBaseGameEntity@@@std@@@3@$0A@@std@@@std@@IAE?AV?$_Tree_iterator@V?$_Tree_val@U?$_Tree_simple_types@U?$pair@$$CBHPAVBaseGameEntity@@@std@@@std@@@std@@@1@_NPAU?$_Tree_node@U?$pair@$$CBHPAVBaseGameEntity@@@std@@PAX@1@AAU?$pair@$$CBHPAVBaseGameEntity@@@1@1@Z
_TEXT	SEGMENT
$T1 = -20						; size = 4
__Pnode$2 = -16						; size = 4
__Newnode$ = -12					; size = 4
__My_data$ = -8						; size = 4
_this$ = -4						; size = 4
___$ReturnUdt$ = 8					; size = 4
__Addleft$ = 12						; size = 1
__Wherenode$ = 16					; size = 4
__Val$ = 20						; size = 4
__Node$ = 24						; size = 4
??$_Insert_at@AAU?$pair@$$CBHPAVBaseGameEntity@@@std@@PAU?$_Tree_node@U?$pair@$$CBHPAVBaseGameEntity@@@std@@PAX@2@@?$_Tree@V?$_Tmap_traits@HPAVBaseGameEntity@@U?$less@H@std@@V?$allocator@U?$pair@$$CBHPAVBaseGameEntity@@@std@@@3@$0A@@std@@@std@@IAE?AV?$_Tree_iterator@V?$_Tree_val@U?$_Tree_simple_types@U?$pair@$$CBHPAVBaseGameEntity@@@std@@@std@@@std@@@1@_NPAU?$_Tree_node@U?$pair@$$CBHPAVBaseGameEntity@@@std@@PAX@1@AAU?$pair@$$CBHPAVBaseGameEntity@@@1@1@Z PROC ; std::_Tree<std::_Tmap_traits<int,BaseGameEntity *,std::less<int>,std::allocator<std::pair<int const ,BaseGameEntity *> >,0> >::_Insert_at<std::pair<int const ,BaseGameEntity *> &,std::_Tree_node<std::pair<int const ,BaseGameEntity *>,void *> *>, COMDAT
; _this$ = ecx

; 1805 : 		{	// add node with value next to _Wherenode, to left if _Addleft

	push	ebp
	mov	ebp, esp
	sub	esp, 20					; 00000014H
	mov	eax, -858993460				; ccccccccH
	mov	DWORD PTR [ebp-20], eax
	mov	DWORD PTR [ebp-16], eax
	mov	DWORD PTR [ebp-12], eax
	mov	DWORD PTR [ebp-8], eax
	mov	DWORD PTR [ebp-4], eax
	mov	DWORD PTR _this$[ebp], ecx
	mov	DWORD PTR $T1[ebp], 0

; 1806 : 		auto& _My_data = this->_Get_data();

	mov	ecx, DWORD PTR _this$[ebp]
	call	?_Get_data@?$_Tree_comp_alloc@V?$_Tmap_traits@HPAVBaseGameEntity@@U?$less@H@std@@V?$allocator@U?$pair@$$CBHPAVBaseGameEntity@@@std@@@3@$0A@@std@@@std@@QAEAAV?$_Tree_val@U?$_Tree_simple_types@U?$pair@$$CBHPAVBaseGameEntity@@@std@@@std@@@2@XZ ; std::_Tree_comp_alloc<std::_Tmap_traits<int,BaseGameEntity *,std::less<int>,std::allocator<std::pair<int const ,BaseGameEntity *> >,0> >::_Get_data
	mov	DWORD PTR __My_data$[ebp], eax

; 1807 : 		if (max_size() - 1 <= _My_data._Mysize)

	mov	ecx, DWORD PTR _this$[ebp]
	call	?max_size@?$_Tree@V?$_Tmap_traits@HPAVBaseGameEntity@@U?$less@H@std@@V?$allocator@U?$pair@$$CBHPAVBaseGameEntity@@@std@@@3@$0A@@std@@@std@@QBEIXZ ; std::_Tree<std::_Tmap_traits<int,BaseGameEntity *,std::less<int>,std::allocator<std::pair<int const ,BaseGameEntity *> >,0> >::max_size
	sub	eax, 1
	mov	ecx, DWORD PTR __My_data$[ebp]
	cmp	eax, DWORD PTR [ecx+8]
	ja	SHORT $LN5@Insert_at

; 1808 : 			{	// tree would get too big, fail
; 1809 : 			_Destroy_if_node(_Node);

	mov	edx, DWORD PTR __Node$[ebp]
	push	edx
	mov	ecx, DWORD PTR _this$[ebp]
	call	?_Destroy_if_node@?$_Tree@V?$_Tmap_traits@HPAVBaseGameEntity@@U?$less@H@std@@V?$allocator@U?$pair@$$CBHPAVBaseGameEntity@@@std@@@3@$0A@@std@@@std@@IAEXPAU?$_Tree_node@U?$pair@$$CBHPAVBaseGameEntity@@@std@@PAX@2@@Z ; std::_Tree<std::_Tmap_traits<int,BaseGameEntity *,std::less<int>,std::allocator<std::pair<int const ,BaseGameEntity *> >,0> >::_Destroy_if_node

; 1810 : 			_Xlength_error("map/set<T> too long");

	push	OFFSET ??_C@_0BE@JONHPENG@map?1set?$DMT?$DO?5too?5long@
	call	?_Xlength_error@std@@YAXPBD@Z		; std::_Xlength_error
$LN5@Insert_at:

; 1811 : 			}
; 1812 : 
; 1813 : 		_Nodeptr _Newnode = _Buy_if_not_node(_Node, _STD forward<_Valty>(_Val));

	mov	eax, DWORD PTR __Val$[ebp]
	push	eax
	call	??$forward@AAU?$pair@$$CBHPAVBaseGameEntity@@@std@@@std@@YAAAU?$pair@$$CBHPAVBaseGameEntity@@@0@AAU10@@Z ; std::forward<std::pair<int const ,BaseGameEntity *> &>
	add	esp, 4
	push	eax
	mov	ecx, DWORD PTR __Node$[ebp]
	push	ecx
	mov	ecx, DWORD PTR _this$[ebp]
	call	??$_Buy_if_not_node@AAU?$pair@$$CBHPAVBaseGameEntity@@@std@@@?$_Tree@V?$_Tmap_traits@HPAVBaseGameEntity@@U?$less@H@std@@V?$allocator@U?$pair@$$CBHPAVBaseGameEntity@@@std@@@3@$0A@@std@@@std@@IAEPAU?$_Tree_node@U?$pair@$$CBHPAVBaseGameEntity@@@std@@PAX@1@PAU21@AAU?$pair@$$CBHPAVBaseGameEntity@@@1@@Z ; std::_Tree<std::_Tmap_traits<int,BaseGameEntity *,std::less<int>,std::allocator<std::pair<int const ,BaseGameEntity *> >,0> >::_Buy_if_not_node<std::pair<int const ,BaseGameEntity *> &>
	mov	DWORD PTR __Newnode$[ebp], eax

; 1814 : 
; 1815 : 		++_My_data._Mysize;

	mov	edx, DWORD PTR __My_data$[ebp]
	mov	eax, DWORD PTR [edx+8]
	add	eax, 1
	mov	ecx, DWORD PTR __My_data$[ebp]
	mov	DWORD PTR [ecx+8], eax

; 1816 : 		_Newnode->_Parent = _Wherenode;

	mov	edx, DWORD PTR __Newnode$[ebp]
	mov	eax, DWORD PTR __Wherenode$[ebp]
	mov	DWORD PTR [edx+4], eax

; 1817 : 
; 1818 : 		if (_Wherenode == _My_data._Myhead)

	mov	ecx, DWORD PTR __My_data$[ebp]
	mov	edx, DWORD PTR __Wherenode$[ebp]
	cmp	edx, DWORD PTR [ecx+4]
	jne	SHORT $LN6@Insert_at

; 1819 : 			{	// first node in tree, just set head values
; 1820 : 			_My_data._Root() = _Newnode;

	mov	ecx, DWORD PTR __My_data$[ebp]
	call	?_Root@?$_Tree_val@U?$_Tree_simple_types@U?$pair@$$CBHPAVBaseGameEntity@@@std@@@std@@@std@@QBEAAPAU?$_Tree_node@U?$pair@$$CBHPAVBaseGameEntity@@@std@@PAX@2@XZ ; std::_Tree_val<std::_Tree_simple_types<std::pair<int const ,BaseGameEntity *> > >::_Root
	mov	ecx, DWORD PTR __Newnode$[ebp]
	mov	DWORD PTR [eax], ecx

; 1821 : 			_My_data._Lmost() = _Newnode;

	mov	ecx, DWORD PTR __My_data$[ebp]
	call	?_Lmost@?$_Tree_val@U?$_Tree_simple_types@U?$pair@$$CBHPAVBaseGameEntity@@@std@@@std@@@std@@QBEAAPAU?$_Tree_node@U?$pair@$$CBHPAVBaseGameEntity@@@std@@PAX@2@XZ ; std::_Tree_val<std::_Tree_simple_types<std::pair<int const ,BaseGameEntity *> > >::_Lmost
	mov	edx, DWORD PTR __Newnode$[ebp]
	mov	DWORD PTR [eax], edx

; 1822 : 			_My_data._Rmost() = _Newnode;

	mov	ecx, DWORD PTR __My_data$[ebp]
	call	?_Rmost@?$_Tree_val@U?$_Tree_simple_types@U?$pair@$$CBHPAVBaseGameEntity@@@std@@@std@@@std@@QBEAAPAU?$_Tree_node@U?$pair@$$CBHPAVBaseGameEntity@@@std@@PAX@2@XZ ; std::_Tree_val<std::_Tree_simple_types<std::pair<int const ,BaseGameEntity *> > >::_Rmost
	mov	ecx, DWORD PTR __Newnode$[ebp]
	mov	DWORD PTR [eax], ecx
	jmp	SHORT $LN7@Insert_at
$LN6@Insert_at:

; 1823 : 			}
; 1824 : 		else if (_Addleft)

	movzx	edx, BYTE PTR __Addleft$[ebp]
	test	edx, edx
	je	SHORT $LN8@Insert_at

; 1825 : 			{	// add to left of _Wherenode
; 1826 : 			_Wherenode->_Left = _Newnode;

	mov	eax, DWORD PTR __Wherenode$[ebp]
	mov	ecx, DWORD PTR __Newnode$[ebp]
	mov	DWORD PTR [eax], ecx

; 1827 : 			if (_Wherenode == _My_data._Lmost())

	mov	ecx, DWORD PTR __My_data$[ebp]
	call	?_Lmost@?$_Tree_val@U?$_Tree_simple_types@U?$pair@$$CBHPAVBaseGameEntity@@@std@@@std@@@std@@QBEAAPAU?$_Tree_node@U?$pair@$$CBHPAVBaseGameEntity@@@std@@PAX@2@XZ ; std::_Tree_val<std::_Tree_simple_types<std::pair<int const ,BaseGameEntity *> > >::_Lmost
	mov	edx, DWORD PTR __Wherenode$[ebp]
	cmp	edx, DWORD PTR [eax]
	jne	SHORT $LN10@Insert_at

; 1828 : 				{
; 1829 : 				_My_data._Lmost() = _Newnode;

	mov	ecx, DWORD PTR __My_data$[ebp]
	call	?_Lmost@?$_Tree_val@U?$_Tree_simple_types@U?$pair@$$CBHPAVBaseGameEntity@@@std@@@std@@@std@@QBEAAPAU?$_Tree_node@U?$pair@$$CBHPAVBaseGameEntity@@@std@@PAX@2@XZ ; std::_Tree_val<std::_Tree_simple_types<std::pair<int const ,BaseGameEntity *> > >::_Lmost
	mov	ecx, DWORD PTR __Newnode$[ebp]
	mov	DWORD PTR [eax], ecx
$LN10@Insert_at:

; 1830 : 				}
; 1831 : 			}
; 1832 : 		else

	jmp	SHORT $LN7@Insert_at
$LN8@Insert_at:

; 1833 : 			{	// add to right of _Wherenode
; 1834 : 			_Wherenode->_Right = _Newnode;

	mov	edx, DWORD PTR __Wherenode$[ebp]
	mov	eax, DWORD PTR __Newnode$[ebp]
	mov	DWORD PTR [edx+8], eax

; 1835 : 			if (_Wherenode == _My_data._Rmost())

	mov	ecx, DWORD PTR __My_data$[ebp]
	call	?_Rmost@?$_Tree_val@U?$_Tree_simple_types@U?$pair@$$CBHPAVBaseGameEntity@@@std@@@std@@@std@@QBEAAPAU?$_Tree_node@U?$pair@$$CBHPAVBaseGameEntity@@@std@@PAX@2@XZ ; std::_Tree_val<std::_Tree_simple_types<std::pair<int const ,BaseGameEntity *> > >::_Rmost
	mov	ecx, DWORD PTR __Wherenode$[ebp]
	cmp	ecx, DWORD PTR [eax]
	jne	SHORT $LN7@Insert_at

; 1836 : 				{
; 1837 : 				_My_data._Rmost() = _Newnode;

	mov	ecx, DWORD PTR __My_data$[ebp]
	call	?_Rmost@?$_Tree_val@U?$_Tree_simple_types@U?$pair@$$CBHPAVBaseGameEntity@@@std@@@std@@@std@@QBEAAPAU?$_Tree_node@U?$pair@$$CBHPAVBaseGameEntity@@@std@@PAX@2@XZ ; std::_Tree_val<std::_Tree_simple_types<std::pair<int const ,BaseGameEntity *> > >::_Rmost
	mov	edx, DWORD PTR __Newnode$[ebp]
	mov	DWORD PTR [eax], edx
$LN7@Insert_at:

; 1838 : 				}
; 1839 : 			}
; 1840 : 
; 1841 : 		for (_Nodeptr _Pnode = _Newnode; _Pnode->_Parent->_Color == this->_Red; )

	mov	eax, DWORD PTR __Newnode$[ebp]
	mov	DWORD PTR __Pnode$2[ebp], eax
$LN4@Insert_at:
	mov	ecx, DWORD PTR __Pnode$2[ebp]
	mov	edx, DWORD PTR [ecx+4]
	movsx	eax, BYTE PTR [edx+12]
	test	eax, eax
	jne	$LN3@Insert_at

; 1842 : 			{
; 1843 : 			if (_Pnode->_Parent == _Pnode->_Parent->_Parent->_Left)

	mov	ecx, DWORD PTR __Pnode$2[ebp]
	mov	edx, DWORD PTR [ecx+4]
	mov	eax, DWORD PTR [edx+4]
	mov	ecx, DWORD PTR __Pnode$2[ebp]
	mov	edx, DWORD PTR [ecx+4]
	cmp	edx, DWORD PTR [eax]
	jne	$LN12@Insert_at

; 1844 : 				{	// fixup red-red in left subtree
; 1845 : 				_Wherenode = _Pnode->_Parent->_Parent->_Right;

	mov	eax, DWORD PTR __Pnode$2[ebp]
	mov	ecx, DWORD PTR [eax+4]
	mov	edx, DWORD PTR [ecx+4]
	mov	eax, DWORD PTR [edx+8]
	mov	DWORD PTR __Wherenode$[ebp], eax

; 1846 : 				if (_Wherenode->_Color == this->_Red)

	mov	ecx, DWORD PTR __Wherenode$[ebp]
	movsx	edx, BYTE PTR [ecx+12]
	test	edx, edx
	jne	SHORT $LN14@Insert_at

; 1847 : 					{	// parent has two red children, blacken both
; 1848 : 					_Pnode->_Parent->_Color = this->_Black;

	mov	eax, DWORD PTR __Pnode$2[ebp]
	mov	ecx, DWORD PTR [eax+4]
	mov	BYTE PTR [ecx+12], 1

; 1849 : 					_Wherenode->_Color = this->_Black;

	mov	edx, DWORD PTR __Wherenode$[ebp]
	mov	BYTE PTR [edx+12], 1

; 1850 : 					_Pnode->_Parent->_Parent->_Color = this->_Red;

	mov	eax, DWORD PTR __Pnode$2[ebp]
	mov	ecx, DWORD PTR [eax+4]
	mov	edx, DWORD PTR [ecx+4]
	mov	BYTE PTR [edx+12], 0

; 1851 : 					_Pnode = _Pnode->_Parent->_Parent;

	mov	eax, DWORD PTR __Pnode$2[ebp]
	mov	ecx, DWORD PTR [eax+4]
	mov	edx, DWORD PTR [ecx+4]
	mov	DWORD PTR __Pnode$2[ebp], edx

; 1852 : 					}
; 1853 : 				else

	jmp	SHORT $LN15@Insert_at
$LN14@Insert_at:

; 1854 : 					{	// parent has red and black children
; 1855 : 					if (_Pnode == _Pnode->_Parent->_Right)

	mov	eax, DWORD PTR __Pnode$2[ebp]
	mov	ecx, DWORD PTR [eax+4]
	mov	edx, DWORD PTR __Pnode$2[ebp]
	cmp	edx, DWORD PTR [ecx+8]
	jne	SHORT $LN16@Insert_at

; 1856 : 						{	// rotate right child to left
; 1857 : 						_Pnode = _Pnode->_Parent;

	mov	eax, DWORD PTR __Pnode$2[ebp]
	mov	ecx, DWORD PTR [eax+4]
	mov	DWORD PTR __Pnode$2[ebp], ecx

; 1858 : 						_My_data._Lrotate(_Pnode);

	mov	edx, DWORD PTR __Pnode$2[ebp]
	push	edx
	mov	ecx, DWORD PTR __My_data$[ebp]
	call	?_Lrotate@?$_Tree_val@U?$_Tree_simple_types@U?$pair@$$CBHPAVBaseGameEntity@@@std@@@std@@@std@@QAEXPAU?$_Tree_node@U?$pair@$$CBHPAVBaseGameEntity@@@std@@PAX@2@@Z ; std::_Tree_val<std::_Tree_simple_types<std::pair<int const ,BaseGameEntity *> > >::_Lrotate
$LN16@Insert_at:

; 1859 : 						}
; 1860 : 
; 1861 : 					_Pnode->_Parent->_Color = this->_Black;	// propagate red up

	mov	eax, DWORD PTR __Pnode$2[ebp]
	mov	ecx, DWORD PTR [eax+4]
	mov	BYTE PTR [ecx+12], 1

; 1862 : 					_Pnode->_Parent->_Parent->_Color = this->_Red;

	mov	edx, DWORD PTR __Pnode$2[ebp]
	mov	eax, DWORD PTR [edx+4]
	mov	ecx, DWORD PTR [eax+4]
	mov	BYTE PTR [ecx+12], 0

; 1863 : 					_My_data._Rrotate(_Pnode->_Parent->_Parent);

	mov	edx, DWORD PTR __Pnode$2[ebp]
	mov	eax, DWORD PTR [edx+4]
	mov	ecx, DWORD PTR [eax+4]
	push	ecx
	mov	ecx, DWORD PTR __My_data$[ebp]
	call	?_Rrotate@?$_Tree_val@U?$_Tree_simple_types@U?$pair@$$CBHPAVBaseGameEntity@@@std@@@std@@@std@@QAEXPAU?$_Tree_node@U?$pair@$$CBHPAVBaseGameEntity@@@std@@PAX@2@@Z ; std::_Tree_val<std::_Tree_simple_types<std::pair<int const ,BaseGameEntity *> > >::_Rrotate
$LN15@Insert_at:

; 1864 : 					}
; 1865 : 				}
; 1866 : 			else

	jmp	$LN13@Insert_at
$LN12@Insert_at:

; 1867 : 				{	// fixup red-red in right subtree
; 1868 : 				_Wherenode = _Pnode->_Parent->_Parent->_Left;

	mov	edx, DWORD PTR __Pnode$2[ebp]
	mov	eax, DWORD PTR [edx+4]
	mov	ecx, DWORD PTR [eax+4]
	mov	edx, DWORD PTR [ecx]
	mov	DWORD PTR __Wherenode$[ebp], edx

; 1869 : 				if (_Wherenode->_Color == this->_Red)

	mov	eax, DWORD PTR __Wherenode$[ebp]
	movsx	ecx, BYTE PTR [eax+12]
	test	ecx, ecx
	jne	SHORT $LN17@Insert_at

; 1870 : 					{	// parent has two red children, blacken both
; 1871 : 					_Pnode->_Parent->_Color = this->_Black;

	mov	edx, DWORD PTR __Pnode$2[ebp]
	mov	eax, DWORD PTR [edx+4]
	mov	BYTE PTR [eax+12], 1

; 1872 : 					_Wherenode->_Color = this->_Black;

	mov	ecx, DWORD PTR __Wherenode$[ebp]
	mov	BYTE PTR [ecx+12], 1

; 1873 : 					_Pnode->_Parent->_Parent->_Color = this->_Red;

	mov	edx, DWORD PTR __Pnode$2[ebp]
	mov	eax, DWORD PTR [edx+4]
	mov	ecx, DWORD PTR [eax+4]
	mov	BYTE PTR [ecx+12], 0

; 1874 : 					_Pnode = _Pnode->_Parent->_Parent;

	mov	edx, DWORD PTR __Pnode$2[ebp]
	mov	eax, DWORD PTR [edx+4]
	mov	ecx, DWORD PTR [eax+4]
	mov	DWORD PTR __Pnode$2[ebp], ecx

; 1875 : 					}
; 1876 : 				else

	jmp	SHORT $LN13@Insert_at
$LN17@Insert_at:

; 1877 : 					{	// parent has red and black children
; 1878 : 					if (_Pnode == _Pnode->_Parent->_Left)

	mov	edx, DWORD PTR __Pnode$2[ebp]
	mov	eax, DWORD PTR [edx+4]
	mov	ecx, DWORD PTR __Pnode$2[ebp]
	cmp	ecx, DWORD PTR [eax]
	jne	SHORT $LN19@Insert_at

; 1879 : 						{	// rotate left child to right
; 1880 : 						_Pnode = _Pnode->_Parent;

	mov	edx, DWORD PTR __Pnode$2[ebp]
	mov	eax, DWORD PTR [edx+4]
	mov	DWORD PTR __Pnode$2[ebp], eax

; 1881 : 						_My_data._Rrotate(_Pnode);

	mov	ecx, DWORD PTR __Pnode$2[ebp]
	push	ecx
	mov	ecx, DWORD PTR __My_data$[ebp]
	call	?_Rrotate@?$_Tree_val@U?$_Tree_simple_types@U?$pair@$$CBHPAVBaseGameEntity@@@std@@@std@@@std@@QAEXPAU?$_Tree_node@U?$pair@$$CBHPAVBaseGameEntity@@@std@@PAX@2@@Z ; std::_Tree_val<std::_Tree_simple_types<std::pair<int const ,BaseGameEntity *> > >::_Rrotate
$LN19@Insert_at:

; 1882 : 						}
; 1883 : 
; 1884 : 					_Pnode->_Parent->_Color = this->_Black;	// propagate red up

	mov	edx, DWORD PTR __Pnode$2[ebp]
	mov	eax, DWORD PTR [edx+4]
	mov	BYTE PTR [eax+12], 1

; 1885 : 					_Pnode->_Parent->_Parent->_Color = this->_Red;

	mov	ecx, DWORD PTR __Pnode$2[ebp]
	mov	edx, DWORD PTR [ecx+4]
	mov	eax, DWORD PTR [edx+4]
	mov	BYTE PTR [eax+12], 0

; 1886 : 					_My_data._Lrotate(_Pnode->_Parent->_Parent);

	mov	ecx, DWORD PTR __Pnode$2[ebp]
	mov	edx, DWORD PTR [ecx+4]
	mov	eax, DWORD PTR [edx+4]
	push	eax
	mov	ecx, DWORD PTR __My_data$[ebp]
	call	?_Lrotate@?$_Tree_val@U?$_Tree_simple_types@U?$pair@$$CBHPAVBaseGameEntity@@@std@@@std@@@std@@QAEXPAU?$_Tree_node@U?$pair@$$CBHPAVBaseGameEntity@@@std@@PAX@2@@Z ; std::_Tree_val<std::_Tree_simple_types<std::pair<int const ,BaseGameEntity *> > >::_Lrotate
$LN13@Insert_at:

; 1887 : 					}
; 1888 : 				}
; 1889 : 			}

	jmp	$LN4@Insert_at
$LN3@Insert_at:

; 1890 : 
; 1891 : 		_My_data._Root()->_Color = this->_Black;	// root is always black

	mov	ecx, DWORD PTR __My_data$[ebp]
	call	?_Root@?$_Tree_val@U?$_Tree_simple_types@U?$pair@$$CBHPAVBaseGameEntity@@@std@@@std@@@std@@QBEAAPAU?$_Tree_node@U?$pair@$$CBHPAVBaseGameEntity@@@std@@PAX@2@XZ ; std::_Tree_val<std::_Tree_simple_types<std::pair<int const ,BaseGameEntity *> > >::_Root
	mov	ecx, DWORD PTR [eax]
	mov	BYTE PTR [ecx+12], 1

; 1892 : 		return (iterator(_Newnode, _STD addressof(_My_data)));

	mov	edx, DWORD PTR __My_data$[ebp]
	push	edx
	call	??$addressof@V?$_Tree_val@U?$_Tree_simple_types@U?$pair@$$CBHPAVBaseGameEntity@@@std@@@std@@@std@@@std@@YAPAV?$_Tree_val@U?$_Tree_simple_types@U?$pair@$$CBHPAVBaseGameEntity@@@std@@@std@@@0@AAV10@@Z ; std::addressof<std::_Tree_val<std::_Tree_simple_types<std::pair<int const ,BaseGameEntity *> > > >
	add	esp, 4
	push	eax
	mov	eax, DWORD PTR __Newnode$[ebp]
	push	eax
	mov	ecx, DWORD PTR ___$ReturnUdt$[ebp]
	call	??0?$_Tree_iterator@V?$_Tree_val@U?$_Tree_simple_types@U?$pair@$$CBHPAVBaseGameEntity@@@std@@@std@@@std@@@std@@QAE@PAU?$_Tree_node@U?$pair@$$CBHPAVBaseGameEntity@@@std@@PAX@1@PBV?$_Tree_val@U?$_Tree_simple_types@U?$pair@$$CBHPAVBaseGameEntity@@@std@@@std@@@1@@Z ; std::_Tree_iterator<std::_Tree_val<std::_Tree_simple_types<std::pair<int const ,BaseGameEntity *> > > >::_Tree_iterator<std::_Tree_val<std::_Tree_simple_types<std::pair<int const ,BaseGameEntity *> > > >
	mov	ecx, DWORD PTR $T1[ebp]
	or	ecx, 1
	mov	DWORD PTR $T1[ebp], ecx
	mov	eax, DWORD PTR ___$ReturnUdt$[ebp]
$LN20@Insert_at:

; 1893 : 		}

	add	esp, 20					; 00000014H
	cmp	ebp, esp
	call	__RTC_CheckEsp
	mov	esp, ebp
	pop	ebp
	ret	20					; 00000014H
??$_Insert_at@AAU?$pair@$$CBHPAVBaseGameEntity@@@std@@PAU?$_Tree_node@U?$pair@$$CBHPAVBaseGameEntity@@@std@@PAX@2@@?$_Tree@V?$_Tmap_traits@HPAVBaseGameEntity@@U?$less@H@std@@V?$allocator@U?$pair@$$CBHPAVBaseGameEntity@@@std@@@3@$0A@@std@@@std@@IAE?AV?$_Tree_iterator@V?$_Tree_val@U?$_Tree_simple_types@U?$pair@$$CBHPAVBaseGameEntity@@@std@@@std@@@std@@@1@_NPAU?$_Tree_node@U?$pair@$$CBHPAVBaseGameEntity@@@std@@PAX@1@AAU?$pair@$$CBHPAVBaseGameEntity@@@1@1@Z ENDP ; std::_Tree<std::_Tmap_traits<int,BaseGameEntity *,std::less<int>,std::allocator<std::pair<int const ,BaseGameEntity *> >,0> >::_Insert_at<std::pair<int const ,BaseGameEntity *> &,std::_Tree_node<std::pair<int const ,BaseGameEntity *>,void *> *>
_TEXT	ENDS
; Function compile flags: /Odtp /RTCsu
; File c:\program files (x86)\microsoft visual studio\2017\community\vc\tools\msvc\14.15.26726\include\type_traits
;	COMDAT ??$forward@AAU?$pair@$$CBHPAVBaseGameEntity@@@std@@@std@@YAAAU?$pair@$$CBHPAVBaseGameEntity@@@0@AAU10@@Z
_TEXT	SEGMENT
__Arg$ = 8						; size = 4
??$forward@AAU?$pair@$$CBHPAVBaseGameEntity@@@std@@@std@@YAAAU?$pair@$$CBHPAVBaseGameEntity@@@0@AAU10@@Z PROC ; std::forward<std::pair<int const ,BaseGameEntity *> &>, COMDAT

; 1573 : 	{	// forward an lvalue as either an lvalue or an rvalue

	push	ebp
	mov	ebp, esp

; 1574 : 	return (static_cast<_Ty&&>(_Arg));

	mov	eax, DWORD PTR __Arg$[ebp]

; 1575 : 	}

	pop	ebp
	ret	0
??$forward@AAU?$pair@$$CBHPAVBaseGameEntity@@@std@@@std@@YAAAU?$pair@$$CBHPAVBaseGameEntity@@@0@AAU10@@Z ENDP ; std::forward<std::pair<int const ,BaseGameEntity *> &>
_TEXT	ENDS
; Function compile flags: /Odtp /RTCsu
; File c:\program files (x86)\microsoft visual studio\2017\community\vc\tools\msvc\14.15.26726\include\xmemory0
;	COMDAT ??$construct@U?$pair@$$CBHPAVBaseGameEntity@@@std@@U?$pair@HPAVBaseGameEntity@@@2@@?$_Default_allocator_traits@V?$allocator@U?$_Tree_node@U?$pair@$$CBHPAVBaseGameEntity@@@std@@PAX@std@@@std@@@std@@SAXAAV?$allocator@U?$_Tree_node@U?$pair@$$CBHPAVBaseGameEntity@@@std@@PAX@std@@@1@QAU?$pair@$$CBHPAVBaseGameEntity@@@1@$$QAU?$pair@HPAVBaseGameEntity@@@1@@Z
_TEXT	SEGMENT
$T1 = -4						; size = 4
___formal$ = 8						; size = 4
__Ptr$ = 12						; size = 4
_<_Args_0>$ = 16					; size = 4
??$construct@U?$pair@$$CBHPAVBaseGameEntity@@@std@@U?$pair@HPAVBaseGameEntity@@@2@@?$_Default_allocator_traits@V?$allocator@U?$_Tree_node@U?$pair@$$CBHPAVBaseGameEntity@@@std@@PAX@std@@@std@@@std@@SAXAAV?$allocator@U?$_Tree_node@U?$pair@$$CBHPAVBaseGameEntity@@@std@@PAX@std@@@1@QAU?$pair@$$CBHPAVBaseGameEntity@@@1@$$QAU?$pair@HPAVBaseGameEntity@@@1@@Z PROC ; std::_Default_allocator_traits<std::allocator<std::_Tree_node<std::pair<int const ,BaseGameEntity *>,void *> > >::construct<std::pair<int const ,BaseGameEntity *>,std::pair<int,BaseGameEntity *> >, COMDAT

; 879  : 		{	// construct _Objty(_Types...) at _Ptr

	push	ebp
	mov	ebp, esp
	push	ecx
	mov	DWORD PTR [ebp-4], -858993460		; ccccccccH

; 880  : 		::new (const_cast<void *>(static_cast<const volatile void *>(_Ptr)))

	mov	eax, DWORD PTR __Ptr$[ebp]
	push	eax
	push	8
	call	??2@YAPAXIPAX@Z				; operator new
	add	esp, 8
	mov	DWORD PTR $T1[ebp], eax
	mov	ecx, DWORD PTR _<_Args_0>$[ebp]
	push	ecx
	call	??$forward@U?$pair@HPAVBaseGameEntity@@@std@@@std@@YA$$QAU?$pair@HPAVBaseGameEntity@@@0@AAU10@@Z ; std::forward<std::pair<int,BaseGameEntity *> >
	add	esp, 4
	push	eax
	mov	ecx, DWORD PTR $T1[ebp]
	call	??$?0HPAVBaseGameEntity@@$0A@@?$pair@$$CBHPAVBaseGameEntity@@@std@@QAE@$$QAU?$pair@HPAVBaseGameEntity@@@1@@Z ; std::pair<int const ,BaseGameEntity *>::pair<int const ,BaseGameEntity *><int,BaseGameEntity *,0>

; 881  : 			_Objty(_STD forward<_Types>(_Args)...);
; 882  : 		}

	add	esp, 4
	cmp	ebp, esp
	call	__RTC_CheckEsp
	mov	esp, ebp
	pop	ebp
	ret	0
??$construct@U?$pair@$$CBHPAVBaseGameEntity@@@std@@U?$pair@HPAVBaseGameEntity@@@2@@?$_Default_allocator_traits@V?$allocator@U?$_Tree_node@U?$pair@$$CBHPAVBaseGameEntity@@@std@@PAX@std@@@std@@@std@@SAXAAV?$allocator@U?$_Tree_node@U?$pair@$$CBHPAVBaseGameEntity@@@std@@PAX@std@@@1@QAU?$pair@$$CBHPAVBaseGameEntity@@@1@$$QAU?$pair@HPAVBaseGameEntity@@@1@@Z ENDP ; std::_Default_allocator_traits<std::allocator<std::_Tree_node<std::pair<int const ,BaseGameEntity *>,void *> > >::construct<std::pair<int const ,BaseGameEntity *>,std::pair<int,BaseGameEntity *> >
_TEXT	ENDS
; Function compile flags: /Odtp /RTCsu
; File c:\program files (x86)\microsoft visual studio\2017\community\vc\tools\msvc\14.15.26726\include\xtree
;	COMDAT ??$_Insert_nohint@AAU?$pair@$$CBHPAVBaseGameEntity@@@std@@PAU?$_Tree_node@U?$pair@$$CBHPAVBaseGameEntity@@@std@@PAX@2@@?$_Tree@V?$_Tmap_traits@HPAVBaseGameEntity@@U?$less@H@std@@V?$allocator@U?$pair@$$CBHPAVBaseGameEntity@@@std@@@3@$0A@@std@@@std@@IAE?AU?$pair@V?$_Tree_iterator@V?$_Tree_val@U?$_Tree_simple_types@U?$pair@$$CBHPAVBaseGameEntity@@@std@@@std@@@std@@@std@@_N@1@_NAAU?$pair@$$CBHPAVBaseGameEntity@@@1@PAU?$_Tree_node@U?$pair@$$CBHPAVBaseGameEntity@@@std@@PAX@1@@Z
_TEXT	SEGMENT
tv275 = -200						; size = 4
tv288 = -193						; size = 1
tv287 = -192						; size = 4
tv286 = -188						; size = 4
tv271 = -184						; size = 4
tv285 = -177						; size = 1
tv269 = -176						; size = 4
tv284 = -172						; size = 4
tv283 = -168						; size = 4
tv262 = -164						; size = 4
tv149 = -160						; size = 4
tv282 = -153						; size = 1
tv281 = -152						; size = 4
tv152 = -148						; size = 4
tv95 = -144						; size = 4
tv195 = -137						; size = 1
tv235 = -136						; size = 4
tv253 = -132						; size = 4
$T2 = -128						; size = 4
$T3 = -121						; size = 1
$T4 = -120						; size = 12
$T5 = -105						; size = 1
$T6 = -104						; size = 12
$T7 = -89						; size = 1
$T8 = -88						; size = 12
$T9 = -73						; size = 1
$T10 = -72						; size = 12
$T11 = -57						; size = 1
__Where$12 = -52					; size = 12
__Addleft$13 = -33					; size = 1
__Trynode$14 = -32					; size = 4
__Wherenode$15 = -28					; size = 4
__My_data$ = -24					; size = 4
_this$ = -20						; size = 4
__$EHRec$ = -16						; size = 16
___$ReturnUdt$ = 8					; size = 4
__Leftish$ = 12						; size = 1
__Val$ = 16						; size = 4
__Newnode$ = 20						; size = 4
??$_Insert_nohint@AAU?$pair@$$CBHPAVBaseGameEntity@@@std@@PAU?$_Tree_node@U?$pair@$$CBHPAVBaseGameEntity@@@std@@PAX@2@@?$_Tree@V?$_Tmap_traits@HPAVBaseGameEntity@@U?$less@H@std@@V?$allocator@U?$pair@$$CBHPAVBaseGameEntity@@@std@@@3@$0A@@std@@@std@@IAE?AU?$pair@V?$_Tree_iterator@V?$_Tree_val@U?$_Tree_simple_types@U?$pair@$$CBHPAVBaseGameEntity@@@std@@@std@@@std@@@std@@_N@1@_NAAU?$pair@$$CBHPAVBaseGameEntity@@@1@PAU?$_Tree_node@U?$pair@$$CBHPAVBaseGameEntity@@@std@@PAX@1@@Z PROC ; std::_Tree<std::_Tmap_traits<int,BaseGameEntity *,std::less<int>,std::allocator<std::pair<int const ,BaseGameEntity *> >,0> >::_Insert_nohint<std::pair<int const ,BaseGameEntity *> &,std::_Tree_node<std::pair<int const ,BaseGameEntity *>,void *> *>, COMDAT
; _this$ = ecx

; 1733 : 		{	// try to insert node, on left if _Leftish

	push	ebp
	mov	ebp, esp
	push	-1
	push	__ehhandler$??$_Insert_nohint@AAU?$pair@$$CBHPAVBaseGameEntity@@@std@@PAU?$_Tree_node@U?$pair@$$CBHPAVBaseGameEntity@@@std@@PAX@2@@?$_Tree@V?$_Tmap_traits@HPAVBaseGameEntity@@U?$less@H@std@@V?$allocator@U?$pair@$$CBHPAVBaseGameEntity@@@std@@@3@$0A@@std@@@std@@IAE?AU?$pair@V?$_Tree_iterator@V?$_Tree_val@U?$_Tree_simple_types@U?$pair@$$CBHPAVBaseGameEntity@@@std@@@std@@@std@@@std@@_N@1@_NAAU?$pair@$$CBHPAVBaseGameEntity@@@1@PAU?$_Tree_node@U?$pair@$$CBHPAVBaseGameEntity@@@std@@PAX@1@@Z
	mov	eax, DWORD PTR fs:0
	push	eax
	push	ecx
	sub	esp, 184				; 000000b8H
	push	ebx
	push	esi
	push	edi
	push	ecx
	lea	edi, DWORD PTR [ebp-200]
	mov	ecx, 46					; 0000002eH
	mov	eax, -858993460				; ccccccccH
	rep stosd
	pop	ecx
	mov	eax, DWORD PTR ___security_cookie
	xor	eax, ebp
	push	eax
	lea	eax, DWORD PTR __$EHRec$[ebp+4]
	mov	DWORD PTR fs:0, eax
	mov	DWORD PTR __$EHRec$[ebp], esp
	mov	DWORD PTR _this$[ebp], ecx
	mov	DWORD PTR $T2[ebp], 0

; 1734 : 		auto& _My_data = this->_Get_data();

	mov	ecx, DWORD PTR _this$[ebp]
	call	?_Get_data@?$_Tree_comp_alloc@V?$_Tmap_traits@HPAVBaseGameEntity@@U?$less@H@std@@V?$allocator@U?$pair@$$CBHPAVBaseGameEntity@@@std@@@3@$0A@@std@@@std@@QAEAAV?$_Tree_val@U?$_Tree_simple_types@U?$pair@$$CBHPAVBaseGameEntity@@@std@@@std@@@2@XZ ; std::_Tree_comp_alloc<std::_Tmap_traits<int,BaseGameEntity *,std::less<int>,std::allocator<std::pair<int const ,BaseGameEntity *> >,0> >::_Get_data
	mov	DWORD PTR __My_data$[ebp], eax

; 1735 : 		_TRY_BEGIN

	mov	DWORD PTR __$EHRec$[ebp+12], 0

; 1736 : 		_Nodeptr _Wherenode = _My_data._Myhead;

	mov	eax, DWORD PTR __My_data$[ebp]
	mov	ecx, DWORD PTR [eax+4]
	mov	DWORD PTR __Wherenode$15[ebp], ecx

; 1737 : 		_Nodeptr _Trynode = _Wherenode->_Parent;

	mov	edx, DWORD PTR __Wherenode$15[ebp]
	mov	eax, DWORD PTR [edx+4]
	mov	DWORD PTR __Trynode$14[ebp], eax

; 1738 : 		bool _Addleft = true;	// add to left of head if tree empty

	mov	BYTE PTR __Addleft$13[ebp], 1
$LN2@Insert_noh:

; 1739 : 
; 1740 : 		while (!_Trynode->_Isnil)

	mov	ecx, DWORD PTR __Trynode$14[ebp]
	movsx	edx, BYTE PTR [ecx+13]
	test	edx, edx
	jne	$LN3@Insert_noh

; 1741 : 			{	// look for leaf to insert before (_Addleft) or after
; 1742 : 			_Wherenode = _Trynode;

	mov	eax, DWORD PTR __Trynode$14[ebp]
	mov	DWORD PTR __Wherenode$15[ebp], eax

; 1743 : 			if (_Leftish)

	movzx	ecx, BYTE PTR __Leftish$[ebp]
	test	ecx, ecx
	je	SHORT $LN5@Insert_noh

; 1744 : 				{
; 1745 : 				_Addleft = !_DEBUG_LT_PRED(this->_Getcomp(),

	mov	edx, DWORD PTR __Val$[ebp]
	push	edx
	mov	ecx, DWORD PTR _this$[ebp]
	call	?_Kfn@?$_Tree@V?$_Tmap_traits@HPAVBaseGameEntity@@U?$less@H@std@@V?$allocator@U?$pair@$$CBHPAVBaseGameEntity@@@std@@@3@$0A@@std@@@std@@IBEABHABU?$pair@$$CBHPAVBaseGameEntity@@@2@@Z ; std::_Tree<std::_Tmap_traits<int,BaseGameEntity *,std::less<int>,std::allocator<std::pair<int const ,BaseGameEntity *> >,0> >::_Kfn
	mov	DWORD PTR tv253[ebp], eax
	mov	eax, DWORD PTR __Trynode$14[ebp]
	push	eax
	mov	ecx, DWORD PTR _this$[ebp]
	call	?_Key@?$_Tree@V?$_Tmap_traits@HPAVBaseGameEntity@@U?$less@H@std@@V?$allocator@U?$pair@$$CBHPAVBaseGameEntity@@@std@@@3@$0A@@std@@@std@@IBEABHPAU?$_Tree_node@U?$pair@$$CBHPAVBaseGameEntity@@@std@@PAX@2@@Z ; std::_Tree<std::_Tmap_traits<int,BaseGameEntity *,std::less<int>,std::allocator<std::pair<int const ,BaseGameEntity *> >,0> >::_Key
	mov	DWORD PTR tv235[ebp], eax
	mov	ecx, DWORD PTR tv253[ebp]
	push	ecx
	mov	edx, DWORD PTR tv235[ebp]
	push	edx
	mov	ecx, DWORD PTR _this$[ebp]
	call	?_Getcomp@?$_Tree_comp_alloc@V?$_Tmap_traits@HPAVBaseGameEntity@@U?$less@H@std@@V?$allocator@U?$pair@$$CBHPAVBaseGameEntity@@@std@@@3@$0A@@std@@@std@@QAEAAU?$less@H@2@XZ ; std::_Tree_comp_alloc<std::_Tmap_traits<int,BaseGameEntity *,std::less<int>,std::allocator<std::pair<int const ,BaseGameEntity *> >,0> >::_Getcomp
	push	eax
	call	??$_Debug_lt_pred@AAU?$less@H@std@@ABHABH@std@@YA_NAAU?$less@H@0@ABH1@Z ; std::_Debug_lt_pred<std::less<int> &,int const &,int const &>
	add	esp, 12					; 0000000cH
	mov	BYTE PTR tv195[ebp], al
	movzx	eax, BYTE PTR tv195[ebp]
	test	eax, eax
	jne	SHORT $LN16@Insert_noh
	mov	DWORD PTR tv95[ebp], 1
	jmp	SHORT $LN17@Insert_noh
$LN16@Insert_noh:
	mov	DWORD PTR tv95[ebp], 0
$LN17@Insert_noh:
	mov	cl, BYTE PTR tv95[ebp]
	mov	BYTE PTR __Addleft$13[ebp], cl

; 1746 : 					this->_Key(_Trynode),
; 1747 : 					this->_Kfn(_Val));	// favor left end
; 1748 : 				}
; 1749 : 			else

	jmp	SHORT $LN6@Insert_noh
$LN5@Insert_noh:

; 1750 : 				{
; 1751 : 				_Addleft = _DEBUG_LT_PRED(this->_Getcomp(),

	mov	edx, DWORD PTR __Trynode$14[ebp]
	push	edx
	mov	ecx, DWORD PTR _this$[ebp]
	call	?_Key@?$_Tree@V?$_Tmap_traits@HPAVBaseGameEntity@@U?$less@H@std@@V?$allocator@U?$pair@$$CBHPAVBaseGameEntity@@@std@@@3@$0A@@std@@@std@@IBEABHPAU?$_Tree_node@U?$pair@$$CBHPAVBaseGameEntity@@@std@@PAX@2@@Z ; std::_Tree<std::_Tmap_traits<int,BaseGameEntity *,std::less<int>,std::allocator<std::pair<int const ,BaseGameEntity *> >,0> >::_Key
	mov	DWORD PTR tv152[ebp], eax
	mov	eax, DWORD PTR __Val$[ebp]
	push	eax
	mov	ecx, DWORD PTR _this$[ebp]
	call	?_Kfn@?$_Tree@V?$_Tmap_traits@HPAVBaseGameEntity@@U?$less@H@std@@V?$allocator@U?$pair@$$CBHPAVBaseGameEntity@@@std@@@3@$0A@@std@@@std@@IBEABHABU?$pair@$$CBHPAVBaseGameEntity@@@2@@Z ; std::_Tree<std::_Tmap_traits<int,BaseGameEntity *,std::less<int>,std::allocator<std::pair<int const ,BaseGameEntity *> >,0> >::_Kfn
	mov	DWORD PTR tv281[ebp], eax
	mov	ecx, DWORD PTR tv152[ebp]
	push	ecx
	mov	edx, DWORD PTR tv281[ebp]
	push	edx
	mov	ecx, DWORD PTR _this$[ebp]
	call	?_Getcomp@?$_Tree_comp_alloc@V?$_Tmap_traits@HPAVBaseGameEntity@@U?$less@H@std@@V?$allocator@U?$pair@$$CBHPAVBaseGameEntity@@@std@@@3@$0A@@std@@@std@@QAEAAU?$less@H@2@XZ ; std::_Tree_comp_alloc<std::_Tmap_traits<int,BaseGameEntity *,std::less<int>,std::allocator<std::pair<int const ,BaseGameEntity *> >,0> >::_Getcomp
	push	eax
	call	??$_Debug_lt_pred@AAU?$less@H@std@@ABHABH@std@@YA_NAAU?$less@H@0@ABH1@Z ; std::_Debug_lt_pred<std::less<int> &,int const &,int const &>
	add	esp, 12					; 0000000cH
	mov	BYTE PTR tv282[ebp], al
	mov	al, BYTE PTR tv282[ebp]
	mov	BYTE PTR __Addleft$13[ebp], al
$LN6@Insert_noh:

; 1752 : 					this->_Kfn(_Val),
; 1753 : 					this->_Key(_Trynode));	// favor right end
; 1754 : 				}
; 1755 : 
; 1756 : 			_Trynode = _Addleft ? _Trynode->_Left : _Trynode->_Right;

	movzx	ecx, BYTE PTR __Addleft$13[ebp]
	test	ecx, ecx
	je	SHORT $LN18@Insert_noh
	mov	edx, DWORD PTR __Trynode$14[ebp]
	mov	eax, DWORD PTR [edx]
	mov	DWORD PTR tv149[ebp], eax
	jmp	SHORT $LN19@Insert_noh
$LN18@Insert_noh:
	mov	ecx, DWORD PTR __Trynode$14[ebp]
	mov	edx, DWORD PTR [ecx+8]
	mov	DWORD PTR tv149[ebp], edx
$LN19@Insert_noh:
	mov	eax, DWORD PTR tv149[ebp]
	mov	DWORD PTR __Trynode$14[ebp], eax

; 1757 : 			}

	jmp	$LN2@Insert_noh
$LN3@Insert_noh:

; 1758 : 
; 1759 : #pragma warning(push)
; 1760 : #pragma warning(disable: 4127)	// conditional expression is constant
; 1761 : 		if (this->_Multi)

	xor	ecx, ecx
	je	SHORT $LN7@Insert_noh

; 1762 : 			{
; 1763 : 			return (_Pairib(_Insert_at(_Addleft, _Wherenode,

	mov	BYTE PTR $T11[ebp], 1
	mov	edx, DWORD PTR __Newnode$[ebp]
	push	edx
	mov	eax, DWORD PTR __Val$[ebp]
	push	eax
	call	??$forward@AAU?$pair@$$CBHPAVBaseGameEntity@@@std@@@std@@YAAAU?$pair@$$CBHPAVBaseGameEntity@@@0@AAU10@@Z ; std::forward<std::pair<int const ,BaseGameEntity *> &>
	add	esp, 4
	push	eax
	mov	ecx, DWORD PTR __Wherenode$15[ebp]
	push	ecx
	movzx	edx, BYTE PTR __Addleft$13[ebp]
	push	edx
	lea	eax, DWORD PTR $T10[ebp]
	push	eax
	mov	ecx, DWORD PTR _this$[ebp]
	call	??$_Insert_at@AAU?$pair@$$CBHPAVBaseGameEntity@@@std@@PAU?$_Tree_node@U?$pair@$$CBHPAVBaseGameEntity@@@std@@PAX@2@@?$_Tree@V?$_Tmap_traits@HPAVBaseGameEntity@@U?$less@H@std@@V?$allocator@U?$pair@$$CBHPAVBaseGameEntity@@@std@@@3@$0A@@std@@@std@@IAE?AV?$_Tree_iterator@V?$_Tree_val@U?$_Tree_simple_types@U?$pair@$$CBHPAVBaseGameEntity@@@std@@@std@@@std@@@1@_NPAU?$_Tree_node@U?$pair@$$CBHPAVBaseGameEntity@@@std@@PAX@1@AAU?$pair@$$CBHPAVBaseGameEntity@@@1@1@Z ; std::_Tree<std::_Tmap_traits<int,BaseGameEntity *,std::less<int>,std::allocator<std::pair<int const ,BaseGameEntity *> >,0> >::_Insert_at<std::pair<int const ,BaseGameEntity *> &,std::_Tree_node<std::pair<int const ,BaseGameEntity *>,void *> *>
	mov	DWORD PTR tv262[ebp], eax
	lea	ecx, DWORD PTR $T11[ebp]
	push	ecx
	mov	edx, DWORD PTR tv262[ebp]
	push	edx
	mov	ecx, DWORD PTR ___$ReturnUdt$[ebp]
	call	??$?0V?$_Tree_iterator@V?$_Tree_val@U?$_Tree_simple_types@U?$pair@$$CBHPAVBaseGameEntity@@@std@@@std@@@std@@@std@@_N$0A@@?$pair@V?$_Tree_iterator@V?$_Tree_val@U?$_Tree_simple_types@U?$pair@$$CBHPAVBaseGameEntity@@@std@@@std@@@std@@@std@@_N@std@@QAE@$$QAV?$_Tree_iterator@V?$_Tree_val@U?$_Tree_simple_types@U?$pair@$$CBHPAVBaseGameEntity@@@std@@@std@@@std@@@1@$$QA_N@Z ; std::pair<std::_Tree_iterator<std::_Tree_val<std::_Tree_simple_types<std::pair<int const ,BaseGameEntity *> > > >,bool>::pair<std::_Tree_iterator<std::_Tree_val<std::_Tree_simple_types<std::pair<int const ,BaseGameEntity *> > > >,bool><std::_Tree_iterator<std::_Tree_val<std::_Tree_simple_types<std::pair<int const ,BaseGameEntity *> > > >,bool,0>
	mov	eax, DWORD PTR $T2[ebp]
	or	eax, 1
	mov	DWORD PTR $T2[ebp], eax
	lea	ecx, DWORD PTR $T10[ebp]
	call	??1?$_Tree_iterator@V?$_Tree_val@U?$_Tree_simple_types@U?$pair@$$CBHPAVBaseGameEntity@@@std@@@std@@@std@@@std@@QAE@XZ
	mov	eax, DWORD PTR ___$ReturnUdt$[ebp]
	jmp	$LN15@Insert_noh

; 1764 : 				_STD forward<_Valty>(_Val), _Newnode), true));
; 1765 : 			}
; 1766 : 		else

	jmp	$LN8@Insert_noh
$LN7@Insert_noh:

; 1767 : 			{	// insert only if unique
; 1768 : 			iterator _Where = iterator(_Wherenode, _STD addressof(_My_data));

	mov	ecx, DWORD PTR __My_data$[ebp]
	push	ecx
	call	??$addressof@V?$_Tree_val@U?$_Tree_simple_types@U?$pair@$$CBHPAVBaseGameEntity@@@std@@@std@@@std@@@std@@YAPAV?$_Tree_val@U?$_Tree_simple_types@U?$pair@$$CBHPAVBaseGameEntity@@@std@@@std@@@0@AAV10@@Z ; std::addressof<std::_Tree_val<std::_Tree_simple_types<std::pair<int const ,BaseGameEntity *> > > >
	add	esp, 4
	push	eax
	mov	edx, DWORD PTR __Wherenode$15[ebp]
	push	edx
	lea	ecx, DWORD PTR __Where$12[ebp]
	call	??0?$_Tree_iterator@V?$_Tree_val@U?$_Tree_simple_types@U?$pair@$$CBHPAVBaseGameEntity@@@std@@@std@@@std@@@std@@QAE@PAU?$_Tree_node@U?$pair@$$CBHPAVBaseGameEntity@@@std@@PAX@1@PBV?$_Tree_val@U?$_Tree_simple_types@U?$pair@$$CBHPAVBaseGameEntity@@@std@@@std@@@1@@Z ; std::_Tree_iterator<std::_Tree_val<std::_Tree_simple_types<std::pair<int const ,BaseGameEntity *> > > >::_Tree_iterator<std::_Tree_val<std::_Tree_simple_types<std::pair<int const ,BaseGameEntity *> > > >
	mov	DWORD PTR tv283[ebp], eax
	mov	BYTE PTR __$EHRec$[ebp+12], 1

; 1769 : 			if (!_Addleft)

	movzx	eax, BYTE PTR __Addleft$13[ebp]
	test	eax, eax
	jne	SHORT $LN9@Insert_noh
	jmp	$LN10@Insert_noh
$LN9@Insert_noh:

; 1770 : 				{	// need to test if insert after is okay
; 1771 : 				}
; 1772 : 			else if (_Where == begin())

	lea	ecx, DWORD PTR $T8[ebp]
	push	ecx
	mov	ecx, DWORD PTR _this$[ebp]
	call	?begin@?$_Tree@V?$_Tmap_traits@HPAVBaseGameEntity@@U?$less@H@std@@V?$allocator@U?$pair@$$CBHPAVBaseGameEntity@@@std@@@3@$0A@@std@@@std@@QAE?AV?$_Tree_iterator@V?$_Tree_val@U?$_Tree_simple_types@U?$pair@$$CBHPAVBaseGameEntity@@@std@@@std@@@std@@@2@XZ ; std::_Tree<std::_Tmap_traits<int,BaseGameEntity *,std::less<int>,std::allocator<std::pair<int const ,BaseGameEntity *> >,0> >::begin
	mov	DWORD PTR tv284[ebp], eax
	mov	edx, DWORD PTR tv284[ebp]
	mov	DWORD PTR tv269[ebp], edx
	mov	BYTE PTR __$EHRec$[ebp+12], 2
	mov	eax, DWORD PTR tv269[ebp]
	push	eax
	lea	ecx, DWORD PTR __Where$12[ebp]
	call	??8?$_Tree_const_iterator@V?$_Tree_val@U?$_Tree_simple_types@U?$pair@$$CBHPAVBaseGameEntity@@@std@@@std@@@std@@@std@@QBE_NABV01@@Z ; std::_Tree_const_iterator<std::_Tree_val<std::_Tree_simple_types<std::pair<int const ,BaseGameEntity *> > > >::operator==
	mov	BYTE PTR tv285[ebp], al
	mov	cl, BYTE PTR tv285[ebp]
	mov	BYTE PTR $T9[ebp], cl
	mov	BYTE PTR __$EHRec$[ebp+12], 1
	lea	ecx, DWORD PTR $T8[ebp]
	call	??1?$_Tree_iterator@V?$_Tree_val@U?$_Tree_simple_types@U?$pair@$$CBHPAVBaseGameEntity@@@std@@@std@@@std@@@std@@QAE@XZ
	movzx	edx, BYTE PTR $T9[ebp]
	test	edx, edx
	je	SHORT $LN11@Insert_noh

; 1773 : 				{
; 1774 : 				return (_Pairib(_Insert_at(true, _Wherenode,

	mov	BYTE PTR $T7[ebp], 1
	mov	eax, DWORD PTR __Newnode$[ebp]
	push	eax
	mov	ecx, DWORD PTR __Val$[ebp]
	push	ecx
	call	??$forward@AAU?$pair@$$CBHPAVBaseGameEntity@@@std@@@std@@YAAAU?$pair@$$CBHPAVBaseGameEntity@@@0@AAU10@@Z ; std::forward<std::pair<int const ,BaseGameEntity *> &>
	add	esp, 4
	push	eax
	mov	edx, DWORD PTR __Wherenode$15[ebp]
	push	edx
	push	1
	lea	eax, DWORD PTR $T6[ebp]
	push	eax
	mov	ecx, DWORD PTR _this$[ebp]
	call	??$_Insert_at@AAU?$pair@$$CBHPAVBaseGameEntity@@@std@@PAU?$_Tree_node@U?$pair@$$CBHPAVBaseGameEntity@@@std@@PAX@2@@?$_Tree@V?$_Tmap_traits@HPAVBaseGameEntity@@U?$less@H@std@@V?$allocator@U?$pair@$$CBHPAVBaseGameEntity@@@std@@@3@$0A@@std@@@std@@IAE?AV?$_Tree_iterator@V?$_Tree_val@U?$_Tree_simple_types@U?$pair@$$CBHPAVBaseGameEntity@@@std@@@std@@@std@@@1@_NPAU?$_Tree_node@U?$pair@$$CBHPAVBaseGameEntity@@@std@@PAX@1@AAU?$pair@$$CBHPAVBaseGameEntity@@@1@1@Z ; std::_Tree<std::_Tmap_traits<int,BaseGameEntity *,std::less<int>,std::allocator<std::pair<int const ,BaseGameEntity *> >,0> >::_Insert_at<std::pair<int const ,BaseGameEntity *> &,std::_Tree_node<std::pair<int const ,BaseGameEntity *>,void *> *>
	mov	DWORD PTR tv271[ebp], eax
	lea	ecx, DWORD PTR $T7[ebp]
	push	ecx
	mov	edx, DWORD PTR tv271[ebp]
	push	edx
	mov	ecx, DWORD PTR ___$ReturnUdt$[ebp]
	call	??$?0V?$_Tree_iterator@V?$_Tree_val@U?$_Tree_simple_types@U?$pair@$$CBHPAVBaseGameEntity@@@std@@@std@@@std@@@std@@_N$0A@@?$pair@V?$_Tree_iterator@V?$_Tree_val@U?$_Tree_simple_types@U?$pair@$$CBHPAVBaseGameEntity@@@std@@@std@@@std@@@std@@_N@std@@QAE@$$QAV?$_Tree_iterator@V?$_Tree_val@U?$_Tree_simple_types@U?$pair@$$CBHPAVBaseGameEntity@@@std@@@std@@@std@@@1@$$QA_N@Z ; std::pair<std::_Tree_iterator<std::_Tree_val<std::_Tree_simple_types<std::pair<int const ,BaseGameEntity *> > > >,bool>::pair<std::_Tree_iterator<std::_Tree_val<std::_Tree_simple_types<std::pair<int const ,BaseGameEntity *> > > >,bool><std::_Tree_iterator<std::_Tree_val<std::_Tree_simple_types<std::pair<int const ,BaseGameEntity *> > > >,bool,0>
	mov	eax, DWORD PTR $T2[ebp]
	or	eax, 1
	mov	DWORD PTR $T2[ebp], eax
	lea	ecx, DWORD PTR $T6[ebp]
	call	??1?$_Tree_iterator@V?$_Tree_val@U?$_Tree_simple_types@U?$pair@$$CBHPAVBaseGameEntity@@@std@@@std@@@std@@@std@@QAE@XZ
	mov	BYTE PTR __$EHRec$[ebp+12], 0
	lea	ecx, DWORD PTR __Where$12[ebp]
	call	??1?$_Tree_iterator@V?$_Tree_val@U?$_Tree_simple_types@U?$pair@$$CBHPAVBaseGameEntity@@@std@@@std@@@std@@@std@@QAE@XZ
	mov	eax, DWORD PTR ___$ReturnUdt$[ebp]
	jmp	$LN15@Insert_noh

; 1775 : 					_STD forward<_Valty>(_Val), _Newnode), true));
; 1776 : 				}
; 1777 : 			else

	jmp	SHORT $LN10@Insert_noh
$LN11@Insert_noh:

; 1778 : 				{
; 1779 : 				--_Where;	// need to test if insert before is okay

	lea	ecx, DWORD PTR __Where$12[ebp]
	call	??F?$_Tree_iterator@V?$_Tree_val@U?$_Tree_simple_types@U?$pair@$$CBHPAVBaseGameEntity@@@std@@@std@@@std@@@std@@QAEAAV01@XZ ; std::_Tree_iterator<std::_Tree_val<std::_Tree_simple_types<std::pair<int const ,BaseGameEntity *> > > >::operator--
$LN10@Insert_noh:

; 1780 : 				}
; 1781 : 
; 1782 : 			if (_DEBUG_LT_PRED(this->_Getcomp(),

	mov	ecx, DWORD PTR __Val$[ebp]
	push	ecx
	mov	ecx, DWORD PTR _this$[ebp]
	call	?_Kfn@?$_Tree@V?$_Tmap_traits@HPAVBaseGameEntity@@U?$less@H@std@@V?$allocator@U?$pair@$$CBHPAVBaseGameEntity@@@std@@@3@$0A@@std@@@std@@IBEABHABU?$pair@$$CBHPAVBaseGameEntity@@@2@@Z ; std::_Tree<std::_Tmap_traits<int,BaseGameEntity *,std::less<int>,std::allocator<std::pair<int const ,BaseGameEntity *> >,0> >::_Kfn
	mov	DWORD PTR tv286[ebp], eax
	mov	edx, DWORD PTR __Where$12[ebp+8]
	push	edx
	mov	ecx, DWORD PTR _this$[ebp]
	call	?_Key@?$_Tree@V?$_Tmap_traits@HPAVBaseGameEntity@@U?$less@H@std@@V?$allocator@U?$pair@$$CBHPAVBaseGameEntity@@@std@@@3@$0A@@std@@@std@@IBEABHPAU?$_Tree_node@U?$pair@$$CBHPAVBaseGameEntity@@@std@@PAX@2@@Z ; std::_Tree<std::_Tmap_traits<int,BaseGameEntity *,std::less<int>,std::allocator<std::pair<int const ,BaseGameEntity *> >,0> >::_Key
	mov	DWORD PTR tv287[ebp], eax
	mov	eax, DWORD PTR tv286[ebp]
	push	eax
	mov	ecx, DWORD PTR tv287[ebp]
	push	ecx
	mov	ecx, DWORD PTR _this$[ebp]
	call	?_Getcomp@?$_Tree_comp_alloc@V?$_Tmap_traits@HPAVBaseGameEntity@@U?$less@H@std@@V?$allocator@U?$pair@$$CBHPAVBaseGameEntity@@@std@@@3@$0A@@std@@@std@@QAEAAU?$less@H@2@XZ ; std::_Tree_comp_alloc<std::_Tmap_traits<int,BaseGameEntity *,std::less<int>,std::allocator<std::pair<int const ,BaseGameEntity *> >,0> >::_Getcomp
	push	eax
	call	??$_Debug_lt_pred@AAU?$less@H@std@@ABHABH@std@@YA_NAAU?$less@H@0@ABH1@Z ; std::_Debug_lt_pred<std::less<int> &,int const &,int const &>
	add	esp, 12					; 0000000cH
	mov	BYTE PTR tv288[ebp], al
	movzx	edx, BYTE PTR tv288[ebp]
	test	edx, edx
	je	SHORT $LN13@Insert_noh

; 1783 : 				this->_Key(_Where._Ptr),
; 1784 : 				this->_Kfn(_Val)))
; 1785 : 				{
; 1786 : 				return (_Pairib(_Insert_at(_Addleft, _Wherenode,

	mov	BYTE PTR $T5[ebp], 1
	mov	eax, DWORD PTR __Newnode$[ebp]
	push	eax
	mov	ecx, DWORD PTR __Val$[ebp]
	push	ecx
	call	??$forward@AAU?$pair@$$CBHPAVBaseGameEntity@@@std@@@std@@YAAAU?$pair@$$CBHPAVBaseGameEntity@@@0@AAU10@@Z ; std::forward<std::pair<int const ,BaseGameEntity *> &>
	add	esp, 4
	push	eax
	mov	edx, DWORD PTR __Wherenode$15[ebp]
	push	edx
	movzx	eax, BYTE PTR __Addleft$13[ebp]
	push	eax
	lea	ecx, DWORD PTR $T4[ebp]
	push	ecx
	mov	ecx, DWORD PTR _this$[ebp]
	call	??$_Insert_at@AAU?$pair@$$CBHPAVBaseGameEntity@@@std@@PAU?$_Tree_node@U?$pair@$$CBHPAVBaseGameEntity@@@std@@PAX@2@@?$_Tree@V?$_Tmap_traits@HPAVBaseGameEntity@@U?$less@H@std@@V?$allocator@U?$pair@$$CBHPAVBaseGameEntity@@@std@@@3@$0A@@std@@@std@@IAE?AV?$_Tree_iterator@V?$_Tree_val@U?$_Tree_simple_types@U?$pair@$$CBHPAVBaseGameEntity@@@std@@@std@@@std@@@1@_NPAU?$_Tree_node@U?$pair@$$CBHPAVBaseGameEntity@@@std@@PAX@1@AAU?$pair@$$CBHPAVBaseGameEntity@@@1@1@Z ; std::_Tree<std::_Tmap_traits<int,BaseGameEntity *,std::less<int>,std::allocator<std::pair<int const ,BaseGameEntity *> >,0> >::_Insert_at<std::pair<int const ,BaseGameEntity *> &,std::_Tree_node<std::pair<int const ,BaseGameEntity *>,void *> *>
	mov	DWORD PTR tv275[ebp], eax
	lea	edx, DWORD PTR $T5[ebp]
	push	edx
	mov	eax, DWORD PTR tv275[ebp]
	push	eax
	mov	ecx, DWORD PTR ___$ReturnUdt$[ebp]
	call	??$?0V?$_Tree_iterator@V?$_Tree_val@U?$_Tree_simple_types@U?$pair@$$CBHPAVBaseGameEntity@@@std@@@std@@@std@@@std@@_N$0A@@?$pair@V?$_Tree_iterator@V?$_Tree_val@U?$_Tree_simple_types@U?$pair@$$CBHPAVBaseGameEntity@@@std@@@std@@@std@@@std@@_N@std@@QAE@$$QAV?$_Tree_iterator@V?$_Tree_val@U?$_Tree_simple_types@U?$pair@$$CBHPAVBaseGameEntity@@@std@@@std@@@std@@@1@$$QA_N@Z ; std::pair<std::_Tree_iterator<std::_Tree_val<std::_Tree_simple_types<std::pair<int const ,BaseGameEntity *> > > >,bool>::pair<std::_Tree_iterator<std::_Tree_val<std::_Tree_simple_types<std::pair<int const ,BaseGameEntity *> > > >,bool><std::_Tree_iterator<std::_Tree_val<std::_Tree_simple_types<std::pair<int const ,BaseGameEntity *> > > >,bool,0>
	mov	ecx, DWORD PTR $T2[ebp]
	or	ecx, 1
	mov	DWORD PTR $T2[ebp], ecx
	lea	ecx, DWORD PTR $T4[ebp]
	call	??1?$_Tree_iterator@V?$_Tree_val@U?$_Tree_simple_types@U?$pair@$$CBHPAVBaseGameEntity@@@std@@@std@@@std@@@std@@QAE@XZ
	mov	BYTE PTR __$EHRec$[ebp+12], 0
	lea	ecx, DWORD PTR __Where$12[ebp]
	call	??1?$_Tree_iterator@V?$_Tree_val@U?$_Tree_simple_types@U?$pair@$$CBHPAVBaseGameEntity@@@std@@@std@@@std@@@std@@QAE@XZ
	mov	eax, DWORD PTR ___$ReturnUdt$[ebp]
	jmp	SHORT $LN15@Insert_noh

; 1787 : 					_STD forward<_Valty>(_Val), _Newnode), true));
; 1788 : 				}
; 1789 : 			else

	jmp	SHORT $LN14@Insert_noh
$LN13@Insert_noh:

; 1790 : 				{	// duplicate, don't insert
; 1791 : 				_Destroy_if_node(_Newnode);

	mov	edx, DWORD PTR __Newnode$[ebp]
	push	edx
	mov	ecx, DWORD PTR _this$[ebp]
	call	?_Destroy_if_node@?$_Tree@V?$_Tmap_traits@HPAVBaseGameEntity@@U?$less@H@std@@V?$allocator@U?$pair@$$CBHPAVBaseGameEntity@@@std@@@3@$0A@@std@@@std@@IAEXPAU?$_Tree_node@U?$pair@$$CBHPAVBaseGameEntity@@@std@@PAX@2@@Z ; std::_Tree<std::_Tmap_traits<int,BaseGameEntity *,std::less<int>,std::allocator<std::pair<int const ,BaseGameEntity *> >,0> >::_Destroy_if_node

; 1792 : 				return (_Pairib(_Where, false));

	mov	BYTE PTR $T3[ebp], 0
	lea	eax, DWORD PTR $T3[ebp]
	push	eax
	lea	ecx, DWORD PTR __Where$12[ebp]
	push	ecx
	mov	ecx, DWORD PTR ___$ReturnUdt$[ebp]
	call	??$?0AAV?$_Tree_iterator@V?$_Tree_val@U?$_Tree_simple_types@U?$pair@$$CBHPAVBaseGameEntity@@@std@@@std@@@std@@@std@@_N$0A@@?$pair@V?$_Tree_iterator@V?$_Tree_val@U?$_Tree_simple_types@U?$pair@$$CBHPAVBaseGameEntity@@@std@@@std@@@std@@@std@@_N@std@@QAE@AAV?$_Tree_iterator@V?$_Tree_val@U?$_Tree_simple_types@U?$pair@$$CBHPAVBaseGameEntity@@@std@@@std@@@std@@@1@$$QA_N@Z ; std::pair<std::_Tree_iterator<std::_Tree_val<std::_Tree_simple_types<std::pair<int const ,BaseGameEntity *> > > >,bool>::pair<std::_Tree_iterator<std::_Tree_val<std::_Tree_simple_types<std::pair<int const ,BaseGameEntity *> > > >,bool><std::_Tree_iterator<std::_Tree_val<std::_Tree_simple_types<std::pair<int const ,BaseGameEntity *> > > > &,bool,0>
	mov	edx, DWORD PTR $T2[ebp]
	or	edx, 1
	mov	DWORD PTR $T2[ebp], edx
	mov	BYTE PTR __$EHRec$[ebp+12], 0
	lea	ecx, DWORD PTR __Where$12[ebp]
	call	??1?$_Tree_iterator@V?$_Tree_val@U?$_Tree_simple_types@U?$pair@$$CBHPAVBaseGameEntity@@@std@@@std@@@std@@@std@@QAE@XZ
	mov	eax, DWORD PTR ___$ReturnUdt$[ebp]
	jmp	SHORT $LN15@Insert_noh
$LN14@Insert_noh:

; 1793 : 				}
; 1794 : 			}

	mov	BYTE PTR __$EHRec$[ebp+12], 0
	lea	ecx, DWORD PTR __Where$12[ebp]
	call	??1?$_Tree_iterator@V?$_Tree_val@U?$_Tree_simple_types@U?$pair@$$CBHPAVBaseGameEntity@@@std@@@std@@@std@@@std@@QAE@XZ
$LN8@Insert_noh:
	jmp	SHORT $LN20@Insert_noh
__catch$??$_Insert_nohint@AAU?$pair@$$CBHPAVBaseGameEntity@@@std@@PAU?$_Tree_node@U?$pair@$$CBHPAVBaseGameEntity@@@std@@PAX@2@@?$_Tree@V?$_Tmap_traits@HPAVBaseGameEntity@@U?$less@H@std@@V?$allocator@U?$pair@$$CBHPAVBaseGameEntity@@@std@@@3@$0A@@std@@@std@@IAE?AU?$pair@V?$_Tree_iterator@V?$_Tree_val@U?$_Tree_simple_types@U?$pair@$$CBHPAVBaseGameEntity@@@std@@@std@@@std@@@std@@_N@1@_NAAU?$pair@$$CBHPAVBaseGameEntity@@@1@PAU?$_Tree_node@U?$pair@$$CBHPAVBaseGameEntity@@@std@@PAX@1@@Z$0:

; 1795 : #pragma warning(pop)
; 1796 : 		_CATCH_ALL
; 1797 : 		_Destroy_if_node(_Newnode);

	mov	eax, DWORD PTR __Newnode$[ebp]
	push	eax
	mov	ecx, DWORD PTR _this$[ebp]
	call	?_Destroy_if_node@?$_Tree@V?$_Tmap_traits@HPAVBaseGameEntity@@U?$less@H@std@@V?$allocator@U?$pair@$$CBHPAVBaseGameEntity@@@std@@@3@$0A@@std@@@std@@IAEXPAU?$_Tree_node@U?$pair@$$CBHPAVBaseGameEntity@@@std@@PAX@2@@Z ; std::_Tree<std::_Tmap_traits<int,BaseGameEntity *,std::less<int>,std::allocator<std::pair<int const ,BaseGameEntity *> >,0> >::_Destroy_if_node

; 1798 : 		_RERAISE;

	push	0
	push	0
	call	__CxxThrowException@8

; 1799 : 		_CATCH_END

	mov	eax, $LN30@Insert_noh
	ret	0
$LN20@Insert_noh:
	mov	DWORD PTR __$EHRec$[ebp+12], -1
	jmp	SHORT $LN15@Insert_noh
$LN30@Insert_noh:
	mov	DWORD PTR __$EHRec$[ebp+12], -1
$LN15@Insert_noh:

; 1800 : 		}

	push	edx
	mov	ecx, ebp
	push	eax
	lea	edx, DWORD PTR $LN34@Insert_noh
	call	@_RTC_CheckStackVars@8
	pop	eax
	pop	edx
	mov	ecx, DWORD PTR __$EHRec$[ebp+4]
	mov	DWORD PTR fs:0, ecx
	pop	ecx
	pop	edi
	pop	esi
	pop	ebx
	add	esp, 200				; 000000c8H
	cmp	ebp, esp
	call	__RTC_CheckEsp
	mov	esp, ebp
	pop	ebp
	ret	16					; 00000010H
$LN34@Insert_noh:
	DD	1
	DD	$LN33@Insert_noh
$LN33@Insert_noh:
	DD	-52					; ffffffccH
	DD	12					; 0000000cH
	DD	$LN31@Insert_noh
$LN31@Insert_noh:
	DB	95					; 0000005fH
	DB	87					; 00000057H
	DB	104					; 00000068H
	DB	101					; 00000065H
	DB	114					; 00000072H
	DB	101					; 00000065H
	DB	0
_TEXT	ENDS
;	COMDAT text$x
text$x	SEGMENT
__unwindfunclet$??$_Insert_nohint@AAU?$pair@$$CBHPAVBaseGameEntity@@@std@@PAU?$_Tree_node@U?$pair@$$CBHPAVBaseGameEntity@@@std@@PAX@2@@?$_Tree@V?$_Tmap_traits@HPAVBaseGameEntity@@U?$less@H@std@@V?$allocator@U?$pair@$$CBHPAVBaseGameEntity@@@std@@@3@$0A@@std@@@std@@IAE?AU?$pair@V?$_Tree_iterator@V?$_Tree_val@U?$_Tree_simple_types@U?$pair@$$CBHPAVBaseGameEntity@@@std@@@std@@@std@@@std@@_N@1@_NAAU?$pair@$$CBHPAVBaseGameEntity@@@1@PAU?$_Tree_node@U?$pair@$$CBHPAVBaseGameEntity@@@std@@PAX@1@@Z$4:
	lea	ecx, DWORD PTR __Where$12[ebp]
	jmp	??1?$_Tree_iterator@V?$_Tree_val@U?$_Tree_simple_types@U?$pair@$$CBHPAVBaseGameEntity@@@std@@@std@@@std@@@std@@QAE@XZ
__unwindfunclet$??$_Insert_nohint@AAU?$pair@$$CBHPAVBaseGameEntity@@@std@@PAU?$_Tree_node@U?$pair@$$CBHPAVBaseGameEntity@@@std@@PAX@2@@?$_Tree@V?$_Tmap_traits@HPAVBaseGameEntity@@U?$less@H@std@@V?$allocator@U?$pair@$$CBHPAVBaseGameEntity@@@std@@@3@$0A@@std@@@std@@IAE?AU?$pair@V?$_Tree_iterator@V?$_Tree_val@U?$_Tree_simple_types@U?$pair@$$CBHPAVBaseGameEntity@@@std@@@std@@@std@@@std@@_N@1@_NAAU?$pair@$$CBHPAVBaseGameEntity@@@1@PAU?$_Tree_node@U?$pair@$$CBHPAVBaseGameEntity@@@std@@PAX@1@@Z$5:
	lea	ecx, DWORD PTR $T8[ebp]
	jmp	??1?$_Tree_iterator@V?$_Tree_val@U?$_Tree_simple_types@U?$pair@$$CBHPAVBaseGameEntity@@@std@@@std@@@std@@@std@@QAE@XZ
__ehhandler$??$_Insert_nohint@AAU?$pair@$$CBHPAVBaseGameEntity@@@std@@PAU?$_Tree_node@U?$pair@$$CBHPAVBaseGameEntity@@@std@@PAX@2@@?$_Tree@V?$_Tmap_traits@HPAVBaseGameEntity@@U?$less@H@std@@V?$allocator@U?$pair@$$CBHPAVBaseGameEntity@@@std@@@3@$0A@@std@@@std@@IAE?AU?$pair@V?$_Tree_iterator@V?$_Tree_val@U?$_Tree_simple_types@U?$pair@$$CBHPAVBaseGameEntity@@@std@@@std@@@std@@@std@@_N@1@_NAAU?$pair@$$CBHPAVBaseGameEntity@@@1@PAU?$_Tree_node@U?$pair@$$CBHPAVBaseGameEntity@@@std@@PAX@1@@Z:
	mov	edx, DWORD PTR [esp+8]
	lea	eax, DWORD PTR [edx+12]
	mov	ecx, DWORD PTR [edx-204]
	xor	ecx, eax
	call	@__security_check_cookie@4
	mov	eax, OFFSET __ehfuncinfo$??$_Insert_nohint@AAU?$pair@$$CBHPAVBaseGameEntity@@@std@@PAU?$_Tree_node@U?$pair@$$CBHPAVBaseGameEntity@@@std@@PAX@2@@?$_Tree@V?$_Tmap_traits@HPAVBaseGameEntity@@U?$less@H@std@@V?$allocator@U?$pair@$$CBHPAVBaseGameEntity@@@std@@@3@$0A@@std@@@std@@IAE?AU?$pair@V?$_Tree_iterator@V?$_Tree_val@U?$_Tree_simple_types@U?$pair@$$CBHPAVBaseGameEntity@@@std@@@std@@@std@@@std@@_N@1@_NAAU?$pair@$$CBHPAVBaseGameEntity@@@1@PAU?$_Tree_node@U?$pair@$$CBHPAVBaseGameEntity@@@std@@PAX@1@@Z
	jmp	___CxxFrameHandler3
text$x	ENDS
??$_Insert_nohint@AAU?$pair@$$CBHPAVBaseGameEntity@@@std@@PAU?$_Tree_node@U?$pair@$$CBHPAVBaseGameEntity@@@std@@PAX@2@@?$_Tree@V?$_Tmap_traits@HPAVBaseGameEntity@@U?$less@H@std@@V?$allocator@U?$pair@$$CBHPAVBaseGameEntity@@@std@@@3@$0A@@std@@@std@@IAE?AU?$pair@V?$_Tree_iterator@V?$_Tree_val@U?$_Tree_simple_types@U?$pair@$$CBHPAVBaseGameEntity@@@std@@@std@@@std@@@std@@_N@1@_NAAU?$pair@$$CBHPAVBaseGameEntity@@@1@PAU?$_Tree_node@U?$pair@$$CBHPAVBaseGameEntity@@@std@@PAX@1@@Z ENDP ; std::_Tree<std::_Tmap_traits<int,BaseGameEntity *,std::less<int>,std::allocator<std::pair<int const ,BaseGameEntity *> >,0> >::_Insert_nohint<std::pair<int const ,BaseGameEntity *> &,std::_Tree_node<std::pair<int const ,BaseGameEntity *>,void *> *>
; Function compile flags: /Odtp /RTCsu
; File c:\program files (x86)\microsoft visual studio\2017\community\vc\tools\msvc\14.15.26726\include\xtree
;	COMDAT ??$_Buynode@U?$pair@HPAVBaseGameEntity@@@std@@@?$_Tree_comp_alloc@V?$_Tmap_traits@HPAVBaseGameEntity@@U?$less@H@std@@V?$allocator@U?$pair@$$CBHPAVBaseGameEntity@@@std@@@3@$0A@@std@@@std@@QAEPAU?$_Tree_node@U?$pair@$$CBHPAVBaseGameEntity@@@std@@PAX@1@$$QAU?$pair@HPAVBaseGameEntity@@@1@@Z
_TEXT	SEGMENT
__Pnode$ = -24						; size = 4
_this$ = -20						; size = 4
__$EHRec$ = -16						; size = 16
_<_Val_0>$ = 8						; size = 4
??$_Buynode@U?$pair@HPAVBaseGameEntity@@@std@@@?$_Tree_comp_alloc@V?$_Tmap_traits@HPAVBaseGameEntity@@U?$less@H@std@@V?$allocator@U?$pair@$$CBHPAVBaseGameEntity@@@std@@@3@$0A@@std@@@std@@QAEPAU?$_Tree_node@U?$pair@$$CBHPAVBaseGameEntity@@@std@@PAX@1@$$QAU?$pair@HPAVBaseGameEntity@@@1@@Z PROC ; std::_Tree_comp_alloc<std::_Tmap_traits<int,BaseGameEntity *,std::less<int>,std::allocator<std::pair<int const ,BaseGameEntity *> >,0> >::_Buynode<std::pair<int,BaseGameEntity *> >, COMDAT
; _this$ = ecx

; 976  : 		{	// allocate a node with defaults and set links and value

	push	ebp
	mov	ebp, esp
	push	-1
	push	__ehhandler$??$_Buynode@U?$pair@HPAVBaseGameEntity@@@std@@@?$_Tree_comp_alloc@V?$_Tmap_traits@HPAVBaseGameEntity@@U?$less@H@std@@V?$allocator@U?$pair@$$CBHPAVBaseGameEntity@@@std@@@3@$0A@@std@@@std@@QAEPAU?$_Tree_node@U?$pair@$$CBHPAVBaseGameEntity@@@std@@PAX@1@$$QAU?$pair@HPAVBaseGameEntity@@@1@@Z
	mov	eax, DWORD PTR fs:0
	push	eax
	push	ecx
	sub	esp, 8
	push	ebx
	push	esi
	push	edi
	mov	DWORD PTR [ebp-24], -858993460		; ccccccccH
	mov	DWORD PTR [ebp-20], -858993460		; ccccccccH
	mov	eax, DWORD PTR ___security_cookie
	xor	eax, ebp
	push	eax
	lea	eax, DWORD PTR __$EHRec$[ebp+4]
	mov	DWORD PTR fs:0, eax
	mov	DWORD PTR __$EHRec$[ebp], esp
	mov	DWORD PTR _this$[ebp], ecx

; 977  : 		_Nodeptr _Pnode = _Buynode0();

	mov	ecx, DWORD PTR _this$[ebp]
	call	?_Buynode0@?$_Tree_comp_alloc@V?$_Tmap_traits@HPAVBaseGameEntity@@U?$less@H@std@@V?$allocator@U?$pair@$$CBHPAVBaseGameEntity@@@std@@@3@$0A@@std@@@std@@QAEPAU?$_Tree_node@U?$pair@$$CBHPAVBaseGameEntity@@@std@@PAX@2@XZ ; std::_Tree_comp_alloc<std::_Tmap_traits<int,BaseGameEntity *,std::less<int>,std::allocator<std::pair<int const ,BaseGameEntity *> >,0> >::_Buynode0
	mov	DWORD PTR __Pnode$[ebp], eax

; 978  : 
; 979  : 		_Pnode->_Color = _Red;

	mov	eax, DWORD PTR __Pnode$[ebp]
	mov	BYTE PTR [eax+12], 0

; 980  : 		_Pnode->_Isnil = false;

	mov	ecx, DWORD PTR __Pnode$[ebp]
	mov	BYTE PTR [ecx+13], 0

; 981  : 
; 982  : 		_TRY_BEGIN

	mov	DWORD PTR __$EHRec$[ebp+12], 0

; 983  : 		_Alnode_traits::construct(_Getal(),

	mov	edx, DWORD PTR _<_Val_0>$[ebp]
	push	edx
	call	??$forward@U?$pair@HPAVBaseGameEntity@@@std@@@std@@YA$$QAU?$pair@HPAVBaseGameEntity@@@0@AAU10@@Z ; std::forward<std::pair<int,BaseGameEntity *> >
	add	esp, 4
	push	eax
	mov	eax, DWORD PTR __Pnode$[ebp]
	add	eax, 16					; 00000010H
	push	eax
	call	??$addressof@U?$pair@$$CBHPAVBaseGameEntity@@@std@@@std@@YAPAU?$pair@$$CBHPAVBaseGameEntity@@@0@AAU10@@Z ; std::addressof<std::pair<int const ,BaseGameEntity *> >
	add	esp, 4
	push	eax
	mov	ecx, DWORD PTR _this$[ebp]
	call	?_Getal@?$_Tree_comp_alloc@V?$_Tmap_traits@HPAVBaseGameEntity@@U?$less@H@std@@V?$allocator@U?$pair@$$CBHPAVBaseGameEntity@@@std@@@3@$0A@@std@@@std@@QAEAAV?$allocator@U?$_Tree_node@U?$pair@$$CBHPAVBaseGameEntity@@@std@@PAX@std@@@2@XZ ; std::_Tree_comp_alloc<std::_Tmap_traits<int,BaseGameEntity *,std::less<int>,std::allocator<std::pair<int const ,BaseGameEntity *> >,0> >::_Getal
	push	eax
	call	??$construct@U?$pair@$$CBHPAVBaseGameEntity@@@std@@U?$pair@HPAVBaseGameEntity@@@2@@?$_Default_allocator_traits@V?$allocator@U?$_Tree_node@U?$pair@$$CBHPAVBaseGameEntity@@@std@@PAX@std@@@std@@@std@@SAXAAV?$allocator@U?$_Tree_node@U?$pair@$$CBHPAVBaseGameEntity@@@std@@PAX@std@@@1@QAU?$pair@$$CBHPAVBaseGameEntity@@@1@$$QAU?$pair@HPAVBaseGameEntity@@@1@@Z ; std::_Default_allocator_traits<std::allocator<std::_Tree_node<std::pair<int const ,BaseGameEntity *>,void *> > >::construct<std::pair<int const ,BaseGameEntity *>,std::pair<int,BaseGameEntity *> >
	add	esp, 12					; 0000000cH
	jmp	SHORT $LN4@Buynode
__catch$??$_Buynode@U?$pair@HPAVBaseGameEntity@@@std@@@?$_Tree_comp_alloc@V?$_Tmap_traits@HPAVBaseGameEntity@@U?$less@H@std@@V?$allocator@U?$pair@$$CBHPAVBaseGameEntity@@@std@@@3@$0A@@std@@@std@@QAEPAU?$_Tree_node@U?$pair@$$CBHPAVBaseGameEntity@@@std@@PAX@1@$$QAU?$pair@HPAVBaseGameEntity@@@1@@Z$0:

; 984  : 			_STD addressof(_Pnode->_Myval), _STD forward<_Valty>(_Val)...);
; 985  : 		_CATCH_ALL
; 986  : 		_Freenode0(_Pnode);

	mov	ecx, DWORD PTR __Pnode$[ebp]
	push	ecx
	mov	ecx, DWORD PTR _this$[ebp]
	call	?_Freenode0@?$_Tree_comp_alloc@V?$_Tmap_traits@HPAVBaseGameEntity@@U?$less@H@std@@V?$allocator@U?$pair@$$CBHPAVBaseGameEntity@@@std@@@3@$0A@@std@@@std@@QAEXPAU?$_Tree_node@U?$pair@$$CBHPAVBaseGameEntity@@@std@@PAX@2@@Z ; std::_Tree_comp_alloc<std::_Tmap_traits<int,BaseGameEntity *,std::less<int>,std::allocator<std::pair<int const ,BaseGameEntity *> >,0> >::_Freenode0

; 987  : 		_RERAISE;

	push	0
	push	0
	call	__CxxThrowException@8

; 988  : 		_CATCH_END

	mov	eax, $LN7@Buynode
	ret	0
$LN4@Buynode:
	mov	DWORD PTR __$EHRec$[ebp+12], -1
	jmp	SHORT __tryend$??$_Buynode@U?$pair@HPAVBaseGameEntity@@@std@@@?$_Tree_comp_alloc@V?$_Tmap_traits@HPAVBaseGameEntity@@U?$less@H@std@@V?$allocator@U?$pair@$$CBHPAVBaseGameEntity@@@std@@@3@$0A@@std@@@std@@QAEPAU?$_Tree_node@U?$pair@$$CBHPAVBaseGameEntity@@@std@@PAX@1@$$QAU?$pair@HPAVBaseGameEntity@@@1@@Z$1
$LN7@Buynode:
	mov	DWORD PTR __$EHRec$[ebp+12], -1
__tryend$??$_Buynode@U?$pair@HPAVBaseGameEntity@@@std@@@?$_Tree_comp_alloc@V?$_Tmap_traits@HPAVBaseGameEntity@@U?$less@H@std@@V?$allocator@U?$pair@$$CBHPAVBaseGameEntity@@@std@@@3@$0A@@std@@@std@@QAEPAU?$_Tree_node@U?$pair@$$CBHPAVBaseGameEntity@@@std@@PAX@1@$$QAU?$pair@HPAVBaseGameEntity@@@1@@Z$1:

; 989  : 
; 990  : 		return (_Pnode);

	mov	eax, DWORD PTR __Pnode$[ebp]
$LN3@Buynode:

; 991  : 		}

	mov	ecx, DWORD PTR __$EHRec$[ebp+4]
	mov	DWORD PTR fs:0, ecx
	pop	ecx
	pop	edi
	pop	esi
	pop	ebx
	add	esp, 24					; 00000018H
	cmp	ebp, esp
	call	__RTC_CheckEsp
	mov	esp, ebp
	pop	ebp
	ret	4
_TEXT	ENDS
;	COMDAT text$x
text$x	SEGMENT
__ehhandler$??$_Buynode@U?$pair@HPAVBaseGameEntity@@@std@@@?$_Tree_comp_alloc@V?$_Tmap_traits@HPAVBaseGameEntity@@U?$less@H@std@@V?$allocator@U?$pair@$$CBHPAVBaseGameEntity@@@std@@@3@$0A@@std@@@std@@QAEPAU?$_Tree_node@U?$pair@$$CBHPAVBaseGameEntity@@@std@@PAX@1@$$QAU?$pair@HPAVBaseGameEntity@@@1@@Z:
	mov	edx, DWORD PTR [esp+8]
	lea	eax, DWORD PTR [edx+12]
	mov	ecx, DWORD PTR [edx-28]
	xor	ecx, eax
	call	@__security_check_cookie@4
	mov	eax, OFFSET __ehfuncinfo$??$_Buynode@U?$pair@HPAVBaseGameEntity@@@std@@@?$_Tree_comp_alloc@V?$_Tmap_traits@HPAVBaseGameEntity@@U?$less@H@std@@V?$allocator@U?$pair@$$CBHPAVBaseGameEntity@@@std@@@3@$0A@@std@@@std@@QAEPAU?$_Tree_node@U?$pair@$$CBHPAVBaseGameEntity@@@std@@PAX@1@$$QAU?$pair@HPAVBaseGameEntity@@@1@@Z
	jmp	___CxxFrameHandler3
text$x	ENDS
??$_Buynode@U?$pair@HPAVBaseGameEntity@@@std@@@?$_Tree_comp_alloc@V?$_Tmap_traits@HPAVBaseGameEntity@@U?$less@H@std@@V?$allocator@U?$pair@$$CBHPAVBaseGameEntity@@@std@@@3@$0A@@std@@@std@@QAEPAU?$_Tree_node@U?$pair@$$CBHPAVBaseGameEntity@@@std@@PAX@1@$$QAU?$pair@HPAVBaseGameEntity@@@1@@Z ENDP ; std::_Tree_comp_alloc<std::_Tmap_traits<int,BaseGameEntity *,std::less<int>,std::allocator<std::pair<int const ,BaseGameEntity *> >,0> >::_Buynode<std::pair<int,BaseGameEntity *> >
; Function compile flags: /Odtp /RTCsu
; File c:\program files (x86)\microsoft visual studio\2017\community\vc\tools\msvc\14.15.26726\include\type_traits
;	COMDAT ??$forward@AAPAU?$_Tree_node@U?$pair@$$CBHPAVBaseGameEntity@@@std@@PAX@std@@@std@@YAAAPAU?$_Tree_node@U?$pair@$$CBHPAVBaseGameEntity@@@std@@PAX@0@AAPAU10@@Z
_TEXT	SEGMENT
__Arg$ = 8						; size = 4
??$forward@AAPAU?$_Tree_node@U?$pair@$$CBHPAVBaseGameEntity@@@std@@PAX@std@@@std@@YAAAPAU?$_Tree_node@U?$pair@$$CBHPAVBaseGameEntity@@@std@@PAX@0@AAPAU10@@Z PROC ; std::forward<std::_Tree_node<std::pair<int const ,BaseGameEntity *>,void *> * &>, COMDAT

; 1573 : 	{	// forward an lvalue as either an lvalue or an rvalue

	push	ebp
	mov	ebp, esp

; 1574 : 	return (static_cast<_Ty&&>(_Arg));

	mov	eax, DWORD PTR __Arg$[ebp]

; 1575 : 	}

	pop	ebp
	ret	0
??$forward@AAPAU?$_Tree_node@U?$pair@$$CBHPAVBaseGameEntity@@@std@@PAX@std@@@std@@YAAAPAU?$_Tree_node@U?$pair@$$CBHPAVBaseGameEntity@@@std@@PAX@0@AAPAU10@@Z ENDP ; std::forward<std::_Tree_node<std::pair<int const ,BaseGameEntity *>,void *> * &>
_TEXT	ENDS
; Function compile flags: /Odtp /RTCsu
; File c:\program files (x86)\microsoft visual studio\2017\community\vc\tools\msvc\14.15.26726\include\type_traits
;	COMDAT ??$move@AAD@std@@YA$$QADAAD@Z
_TEXT	SEGMENT
__Arg$ = 8						; size = 4
??$move@AAD@std@@YA$$QADAAD@Z PROC			; std::move<char &>, COMDAT

; 1588 : 	{	// forward _Arg as movable

	push	ebp
	mov	ebp, esp

; 1589 : 	return (static_cast<remove_reference_t<_Ty>&&>(_Arg));

	mov	eax, DWORD PTR __Arg$[ebp]

; 1590 : 	}

	pop	ebp
	ret	0
??$move@AAD@std@@YA$$QADAAD@Z ENDP			; std::move<char &>
_TEXT	ENDS
; Function compile flags: /Odtp /RTCsu
; File c:\program files (x86)\microsoft visual studio\2017\community\vc\tools\msvc\14.15.26726\include\xutility
;	COMDAT ??$?0$$V@?$_Compressed_pair@V?$allocator@U?$_Tree_node@U?$pair@$$CBHPAVBaseGameEntity@@@std@@PAX@std@@@std@@V?$_Tree_val@U?$_Tree_simple_types@U?$pair@$$CBHPAVBaseGameEntity@@@std@@@std@@@2@$00@std@@QAE@U_Zero_then_variadic_args_t@1@@Z
_TEXT	SEGMENT
_this$ = -4						; size = 4
___formal$ = 8						; size = 1
??$?0$$V@?$_Compressed_pair@V?$allocator@U?$_Tree_node@U?$pair@$$CBHPAVBaseGameEntity@@@std@@PAX@std@@@std@@V?$_Tree_val@U?$_Tree_simple_types@U?$pair@$$CBHPAVBaseGameEntity@@@std@@@std@@@2@$00@std@@QAE@U_Zero_then_variadic_args_t@1@@Z PROC ; std::_Compressed_pair<std::allocator<std::_Tree_node<std::pair<int const ,BaseGameEntity *>,void *> >,std::_Tree_val<std::_Tree_simple_types<std::pair<int const ,BaseGameEntity *> > >,1>::_Compressed_pair<std::allocator<std::_Tree_node<std::pair<int const ,BaseGameEntity *>,void *> >,std::_Tree_val<std::_Tree_simple_types<std::pair<int const ,BaseGameEntity *> > >,1><>, COMDAT
; _this$ = ecx

; 278  : 		{	// construct from forwarded values

	push	ebp
	mov	ebp, esp
	push	ecx
	mov	DWORD PTR [ebp-4], -858993460		; ccccccccH
	mov	DWORD PTR _this$[ebp], ecx

; 277  : 		: _Ty1(), _Myval2(_STD forward<_Other2>(_Val2)...)

	mov	ecx, DWORD PTR _this$[ebp]
	call	??0?$allocator@U?$_Tree_node@U?$pair@$$CBHPAVBaseGameEntity@@@std@@PAX@std@@@std@@QAE@XZ ; std::allocator<std::_Tree_node<std::pair<int const ,BaseGameEntity *>,void *> >::allocator<std::_Tree_node<std::pair<int const ,BaseGameEntity *>,void *> >
	mov	ecx, DWORD PTR _this$[ebp]
	call	??0?$_Tree_val@U?$_Tree_simple_types@U?$pair@$$CBHPAVBaseGameEntity@@@std@@@std@@@std@@QAE@XZ ; std::_Tree_val<std::_Tree_simple_types<std::pair<int const ,BaseGameEntity *> > >::_Tree_val<std::_Tree_simple_types<std::pair<int const ,BaseGameEntity *> > >

; 279  : 		}

	mov	eax, DWORD PTR _this$[ebp]
	add	esp, 4
	cmp	ebp, esp
	call	__RTC_CheckEsp
	mov	esp, ebp
	pop	ebp
	ret	4
??$?0$$V@?$_Compressed_pair@V?$allocator@U?$_Tree_node@U?$pair@$$CBHPAVBaseGameEntity@@@std@@PAX@std@@@std@@V?$_Tree_val@U?$_Tree_simple_types@U?$pair@$$CBHPAVBaseGameEntity@@@std@@@std@@@2@$00@std@@QAE@U_Zero_then_variadic_args_t@1@@Z ENDP ; std::_Compressed_pair<std::allocator<std::_Tree_node<std::pair<int const ,BaseGameEntity *>,void *> >,std::_Tree_val<std::_Tree_simple_types<std::pair<int const ,BaseGameEntity *> > >,1>::_Compressed_pair<std::allocator<std::_Tree_node<std::pair<int const ,BaseGameEntity *>,void *> >,std::_Tree_val<std::_Tree_simple_types<std::pair<int const ,BaseGameEntity *> > >,1><>
_TEXT	ENDS
; Function compile flags: /Odtp /RTCsu
; File c:\program files (x86)\microsoft visual studio\2017\community\vc\tools\msvc\14.15.26726\include\type_traits
;	COMDAT ??$forward@U_Zero_then_variadic_args_t@std@@@std@@YA$$QAU_Zero_then_variadic_args_t@0@AAU10@@Z
_TEXT	SEGMENT
__Arg$ = 8						; size = 4
??$forward@U_Zero_then_variadic_args_t@std@@@std@@YA$$QAU_Zero_then_variadic_args_t@0@AAU10@@Z PROC ; std::forward<std::_Zero_then_variadic_args_t>, COMDAT

; 1573 : 	{	// forward an lvalue as either an lvalue or an rvalue

	push	ebp
	mov	ebp, esp

; 1574 : 	return (static_cast<_Ty&&>(_Arg));

	mov	eax, DWORD PTR __Arg$[ebp]

; 1575 : 	}

	pop	ebp
	ret	0
??$forward@U_Zero_then_variadic_args_t@std@@@std@@YA$$QAU_Zero_then_variadic_args_t@0@AAU10@@Z ENDP ; std::forward<std::_Zero_then_variadic_args_t>
_TEXT	ENDS
; Function compile flags: /Odtp /RTCsu
; File c:\program files (x86)\microsoft visual studio\2017\community\vc\tools\msvc\14.15.26726\include\type_traits
;	COMDAT ??$forward@ABU?$less@H@std@@@std@@YAABU?$less@H@0@ABU10@@Z
_TEXT	SEGMENT
__Arg$ = 8						; size = 4
??$forward@ABU?$less@H@std@@@std@@YAABU?$less@H@0@ABU10@@Z PROC ; std::forward<std::less<int> const &>, COMDAT

; 1573 : 	{	// forward an lvalue as either an lvalue or an rvalue

	push	ebp
	mov	ebp, esp

; 1574 : 	return (static_cast<_Ty&&>(_Arg));

	mov	eax, DWORD PTR __Arg$[ebp]

; 1575 : 	}

	pop	ebp
	ret	0
??$forward@ABU?$less@H@std@@@std@@YAABU?$less@H@0@ABU10@@Z ENDP ; std::forward<std::less<int> const &>
_TEXT	ENDS
; Function compile flags: /Odtp /RTCsu
; File c:\program files (x86)\microsoft visual studio\2017\community\vc\tools\msvc\14.15.26726\include\type_traits
;	COMDAT ??$forward@U_Container_proxy@std@@@std@@YA$$QAU_Container_proxy@0@AAU10@@Z
_TEXT	SEGMENT
__Arg$ = 8						; size = 4
??$forward@U_Container_proxy@std@@@std@@YA$$QAU_Container_proxy@0@AAU10@@Z PROC ; std::forward<std::_Container_proxy>, COMDAT

; 1573 : 	{	// forward an lvalue as either an lvalue or an rvalue

	push	ebp
	mov	ebp, esp

; 1574 : 	return (static_cast<_Ty&&>(_Arg));

	mov	eax, DWORD PTR __Arg$[ebp]

; 1575 : 	}

	pop	ebp
	ret	0
??$forward@U_Container_proxy@std@@@std@@YA$$QAU_Container_proxy@0@AAU10@@Z ENDP ; std::forward<std::_Container_proxy>
_TEXT	ENDS
; Function compile flags: /Odtp /RTCsu
; File c:\program files (x86)\microsoft visual studio\2017\community\vc\tools\msvc\14.15.26726\include\xmemory0
;	COMDAT ??$_Allocate_manually_vector_aligned@U_Default_allocate_traits@std@@@std@@YAPAXI@Z
_TEXT	SEGMENT
__Ptr$ = -12						; size = 4
__Ptr_container$ = -8					; size = 4
__Block_size$ = -4					; size = 4
__Bytes$ = 8						; size = 4
??$_Allocate_manually_vector_aligned@U_Default_allocate_traits@std@@@std@@YAPAXI@Z PROC ; std::_Allocate_manually_vector_aligned<std::_Default_allocate_traits>, COMDAT

; 92   : 	{	// allocate _Bytes manually aligned to at least _Big_allocation_alignment

	push	ebp
	mov	ebp, esp
	sub	esp, 12					; 0000000cH
	mov	DWORD PTR [ebp-12], -858993460		; ccccccccH
	mov	DWORD PTR [ebp-8], -858993460		; ccccccccH
	mov	DWORD PTR [ebp-4], -858993460		; ccccccccH

; 93   : 	size_t _Block_size = _Non_user_size + _Bytes;

	mov	eax, DWORD PTR __Bytes$[ebp]
	add	eax, 39					; 00000027H
	mov	DWORD PTR __Block_size$[ebp], eax

; 94   : 	if (_Block_size <= _Bytes)

	mov	ecx, DWORD PTR __Block_size$[ebp]
	cmp	ecx, DWORD PTR __Bytes$[ebp]
	ja	SHORT $LN8@Allocate_m

; 95   : 		{	// add overflow, try allocating all of memory and assume the
; 96   : 			// allocation function will throw bad_alloc
; 97   : 		_Block_size = static_cast<size_t>(-1);

	mov	DWORD PTR __Block_size$[ebp], -1
$LN8@Allocate_m:

; 98   : 		}
; 99   : 
; 100  : 	const uintptr_t _Ptr_container = reinterpret_cast<uintptr_t>(_Traits::_Allocate(_Block_size));

	mov	edx, DWORD PTR __Block_size$[ebp]
	push	edx
	call	?_Allocate@_Default_allocate_traits@std@@SAPAXI@Z ; std::_Default_allocate_traits::_Allocate
	add	esp, 4
	mov	DWORD PTR __Ptr_container$[ebp], eax
$LN4@Allocate_m:

; 101  : 	_STL_VERIFY(_Ptr_container != 0, "invalid argument");	// validate even in release since we're doing p[-1]

	cmp	DWORD PTR __Ptr_container$[ebp], 0
	je	SHORT $LN7@Allocate_m
	jmp	SHORT $LN2@Allocate_m
$LN7@Allocate_m:
	push	OFFSET ??_C@_0BB@FCMFBGOM@invalid?5argument@
	push	OFFSET ??_C@_02DKCKIIND@?$CFs@
	push	0
	push	101					; 00000065H
	push	OFFSET ??_C@_0GJ@CAJJPMGE@c?3?2program?5files?5?$CIx86?$CJ?2microsof@
	push	2
	call	__CrtDbgReport
	add	esp, 24					; 00000018H
	cmp	eax, 1
	jne	SHORT $LN12@Allocate_m
	int	3
$LN12@Allocate_m:
	push	0
	push	101					; 00000065H
	push	OFFSET ??_C@_1NC@ICJKIMIP@?$AAc?$AA?3?$AA?2?$AAp?$AAr?$AAo?$AAg?$AAr?$AAa?$AAm?$AA?5?$AAf?$AAi?$AAl?$AAe@
	push	OFFSET ??_C@_1EO@GFNCMDLA@?$AAs?$AAt?$AAd?$AA?3?$AA?3?$AA_?$AAA?$AAl?$AAl?$AAo?$AAc?$AAa?$AAt?$AAe?$AA_@
	push	OFFSET ??_C@_1CG@JNLFBNGN@?$AA?$CC?$AAi?$AAn?$AAv?$AAa?$AAl?$AAi?$AAd?$AA?5?$AAa?$AAr?$AAg?$AAu?$AAm?$AAe@
	call	__invalid_parameter
	add	esp, 20					; 00000014H
	xor	ecx, ecx
	jne	SHORT $LN7@Allocate_m
$LN2@Allocate_m:
	xor	edx, edx
	jne	SHORT $LN4@Allocate_m

; 102  : 	void * const _Ptr = reinterpret_cast<void *>((_Ptr_container + _Non_user_size)
; 103  : 		& ~(_Big_allocation_alignment - 1));

	mov	eax, DWORD PTR __Ptr_container$[ebp]
	add	eax, 39					; 00000027H
	and	eax, -32				; ffffffe0H
	mov	DWORD PTR __Ptr$[ebp], eax

; 104  : 	static_cast<uintptr_t *>(_Ptr)[-1] = _Ptr_container;

	mov	ecx, 4
	imul	edx, ecx, -1
	mov	eax, DWORD PTR __Ptr$[ebp]
	mov	ecx, DWORD PTR __Ptr_container$[ebp]
	mov	DWORD PTR [eax+edx], ecx

; 105  : 
; 106  :   #ifdef _DEBUG
; 107  : 	static_cast<uintptr_t *>(_Ptr)[-2] = _Big_allocation_sentinel;

	mov	edx, 4
	imul	eax, edx, -2
	mov	ecx, DWORD PTR __Ptr$[ebp]
	mov	DWORD PTR [ecx+eax], -84215046		; fafafafaH

; 108  :   #endif /* _DEBUG */
; 109  : 	return (_Ptr);

	mov	eax, DWORD PTR __Ptr$[ebp]

; 110  : 	}

	add	esp, 12					; 0000000cH
	cmp	ebp, esp
	call	__RTC_CheckEsp
	mov	esp, ebp
	pop	ebp
	ret	0
??$_Allocate_manually_vector_aligned@U_Default_allocate_traits@std@@@std@@YAPAXI@Z ENDP ; std::_Allocate_manually_vector_aligned<std::_Default_allocate_traits>
_TEXT	ENDS
; Function compile flags: /Odtp /RTCsu
; File c:\program files (x86)\microsoft visual studio\2017\community\vc\tools\msvc\14.15.26726\include\xmemory0
;	COMDAT ??$destroy@PAU?$_Tree_node@U?$pair@$$CBHPAVBaseGameEntity@@@std@@PAX@std@@@?$_Default_allocator_traits@V?$allocator@U?$_Tree_node@U?$pair@$$CBHPAVBaseGameEntity@@@std@@PAX@std@@@std@@@std@@SAXAAV?$allocator@U?$_Tree_node@U?$pair@$$CBHPAVBaseGameEntity@@@std@@PAX@std@@@1@QAPAU?$_Tree_node@U?$pair@$$CBHPAVBaseGameEntity@@@std@@PAX@1@@Z
_TEXT	SEGMENT
___formal$ = 8						; size = 4
__Ptr$ = 12						; size = 4
??$destroy@PAU?$_Tree_node@U?$pair@$$CBHPAVBaseGameEntity@@@std@@PAX@std@@@?$_Default_allocator_traits@V?$allocator@U?$_Tree_node@U?$pair@$$CBHPAVBaseGameEntity@@@std@@PAX@std@@@std@@@std@@SAXAAV?$allocator@U?$_Tree_node@U?$pair@$$CBHPAVBaseGameEntity@@@std@@PAX@std@@@1@QAPAU?$_Tree_node@U?$pair@$$CBHPAVBaseGameEntity@@@std@@PAX@1@@Z PROC ; std::_Default_allocator_traits<std::allocator<std::_Tree_node<std::pair<int const ,BaseGameEntity *>,void *> > >::destroy<std::_Tree_node<std::pair<int const ,BaseGameEntity *>,void *> *>, COMDAT

; 886  : 		{	// destroy object at _Ptr

	push	ebp
	mov	ebp, esp

; 887  : 		_Ptr->~_Uty();
; 888  : 		}

	pop	ebp
	ret	0
??$destroy@PAU?$_Tree_node@U?$pair@$$CBHPAVBaseGameEntity@@@std@@PAX@std@@@?$_Default_allocator_traits@V?$allocator@U?$_Tree_node@U?$pair@$$CBHPAVBaseGameEntity@@@std@@PAX@std@@@std@@@std@@SAXAAV?$allocator@U?$_Tree_node@U?$pair@$$CBHPAVBaseGameEntity@@@std@@PAX@std@@@1@QAPAU?$_Tree_node@U?$pair@$$CBHPAVBaseGameEntity@@@std@@PAX@1@@Z ENDP ; std::_Default_allocator_traits<std::allocator<std::_Tree_node<std::pair<int const ,BaseGameEntity *>,void *> > >::destroy<std::_Tree_node<std::pair<int const ,BaseGameEntity *>,void *> *>
_TEXT	ENDS
; Function compile flags: /Odtp /RTCsu
; File c:\program files (x86)\microsoft visual studio\2017\community\vc\tools\msvc\14.15.26726\include\xtree
;	COMDAT ??$emplace@U?$pair@HPAVBaseGameEntity@@@std@@@?$_Tree@V?$_Tmap_traits@HPAVBaseGameEntity@@U?$less@H@std@@V?$allocator@U?$pair@$$CBHPAVBaseGameEntity@@@std@@@3@$0A@@std@@@std@@QAE?AU?$pair@V?$_Tree_iterator@V?$_Tree_val@U?$_Tree_simple_types@U?$pair@$$CBHPAVBaseGameEntity@@@std@@@std@@@std@@@std@@_N@1@$$QAU?$pair@HPAVBaseGameEntity@@@1@@Z
_TEXT	SEGMENT
$T1 = -12						; size = 4
__Newnode$ = -8						; size = 4
_this$ = -4						; size = 4
___$ReturnUdt$ = 8					; size = 4
_<_Val_0>$ = 12						; size = 4
??$emplace@U?$pair@HPAVBaseGameEntity@@@std@@@?$_Tree@V?$_Tmap_traits@HPAVBaseGameEntity@@U?$less@H@std@@V?$allocator@U?$pair@$$CBHPAVBaseGameEntity@@@std@@@3@$0A@@std@@@std@@QAE?AU?$pair@V?$_Tree_iterator@V?$_Tree_val@U?$_Tree_simple_types@U?$pair@$$CBHPAVBaseGameEntity@@@std@@@std@@@std@@@std@@_N@1@$$QAU?$pair@HPAVBaseGameEntity@@@1@@Z PROC ; std::_Tree<std::_Tmap_traits<int,BaseGameEntity *,std::less<int>,std::allocator<std::pair<int const ,BaseGameEntity *> >,0> >::emplace<std::pair<int,BaseGameEntity *> >, COMDAT
; _this$ = ecx

; 1154 : 		{	// try to insert value_type(_Val...), favoring right side

	push	ebp
	mov	ebp, esp
	sub	esp, 12					; 0000000cH
	mov	DWORD PTR [ebp-12], -858993460		; ccccccccH
	mov	DWORD PTR [ebp-8], -858993460		; ccccccccH
	mov	DWORD PTR [ebp-4], -858993460		; ccccccccH
	mov	DWORD PTR _this$[ebp], ecx
	mov	DWORD PTR $T1[ebp], 0

; 1155 : 		_Nodeptr _Newnode = this->_Buynode(_STD forward<_Valty>(_Val)...);

	mov	eax, DWORD PTR _<_Val_0>$[ebp]
	push	eax
	call	??$forward@U?$pair@HPAVBaseGameEntity@@@std@@@std@@YA$$QAU?$pair@HPAVBaseGameEntity@@@0@AAU10@@Z ; std::forward<std::pair<int,BaseGameEntity *> >
	add	esp, 4
	push	eax
	mov	ecx, DWORD PTR _this$[ebp]
	call	??$_Buynode@U?$pair@HPAVBaseGameEntity@@@std@@@?$_Tree_comp_alloc@V?$_Tmap_traits@HPAVBaseGameEntity@@U?$less@H@std@@V?$allocator@U?$pair@$$CBHPAVBaseGameEntity@@@std@@@3@$0A@@std@@@std@@QAEPAU?$_Tree_node@U?$pair@$$CBHPAVBaseGameEntity@@@std@@PAX@1@$$QAU?$pair@HPAVBaseGameEntity@@@1@@Z ; std::_Tree_comp_alloc<std::_Tmap_traits<int,BaseGameEntity *,std::less<int>,std::allocator<std::pair<int const ,BaseGameEntity *> >,0> >::_Buynode<std::pair<int,BaseGameEntity *> >
	mov	DWORD PTR __Newnode$[ebp], eax

; 1156 : 		return (_Insert_nohint(false, _Newnode->_Myval, _Newnode));

	mov	ecx, DWORD PTR __Newnode$[ebp]
	push	ecx
	mov	edx, DWORD PTR __Newnode$[ebp]
	add	edx, 16					; 00000010H
	push	edx
	push	0
	mov	eax, DWORD PTR ___$ReturnUdt$[ebp]
	push	eax
	mov	ecx, DWORD PTR _this$[ebp]
	call	??$_Insert_nohint@AAU?$pair@$$CBHPAVBaseGameEntity@@@std@@PAU?$_Tree_node@U?$pair@$$CBHPAVBaseGameEntity@@@std@@PAX@2@@?$_Tree@V?$_Tmap_traits@HPAVBaseGameEntity@@U?$less@H@std@@V?$allocator@U?$pair@$$CBHPAVBaseGameEntity@@@std@@@3@$0A@@std@@@std@@IAE?AU?$pair@V?$_Tree_iterator@V?$_Tree_val@U?$_Tree_simple_types@U?$pair@$$CBHPAVBaseGameEntity@@@std@@@std@@@std@@@std@@_N@1@_NAAU?$pair@$$CBHPAVBaseGameEntity@@@1@PAU?$_Tree_node@U?$pair@$$CBHPAVBaseGameEntity@@@std@@PAX@1@@Z ; std::_Tree<std::_Tmap_traits<int,BaseGameEntity *,std::less<int>,std::allocator<std::pair<int const ,BaseGameEntity *> >,0> >::_Insert_nohint<std::pair<int const ,BaseGameEntity *> &,std::_Tree_node<std::pair<int const ,BaseGameEntity *>,void *> *>
	mov	ecx, DWORD PTR $T1[ebp]
	or	ecx, 1
	mov	DWORD PTR $T1[ebp], ecx
	mov	eax, DWORD PTR ___$ReturnUdt$[ebp]

; 1157 : 		}

	add	esp, 12					; 0000000cH
	cmp	ebp, esp
	call	__RTC_CheckEsp
	mov	esp, ebp
	pop	ebp
	ret	8
??$emplace@U?$pair@HPAVBaseGameEntity@@@std@@@?$_Tree@V?$_Tmap_traits@HPAVBaseGameEntity@@U?$less@H@std@@V?$allocator@U?$pair@$$CBHPAVBaseGameEntity@@@std@@@3@$0A@@std@@@std@@QAE?AU?$pair@V?$_Tree_iterator@V?$_Tree_val@U?$_Tree_simple_types@U?$pair@$$CBHPAVBaseGameEntity@@@std@@@std@@@std@@@std@@_N@1@$$QAU?$pair@HPAVBaseGameEntity@@@1@@Z ENDP ; std::_Tree<std::_Tmap_traits<int,BaseGameEntity *,std::less<int>,std::allocator<std::pair<int const ,BaseGameEntity *> >,0> >::emplace<std::pair<int,BaseGameEntity *> >
_TEXT	ENDS
; Function compile flags: /Odtp /RTCsu
; File c:\program files (x86)\microsoft visual studio\2017\community\vc\tools\msvc\14.15.26726\include\type_traits
;	COMDAT ??$forward@U?$pair@HPAVBaseGameEntity@@@std@@@std@@YA$$QAU?$pair@HPAVBaseGameEntity@@@0@AAU10@@Z
_TEXT	SEGMENT
__Arg$ = 8						; size = 4
??$forward@U?$pair@HPAVBaseGameEntity@@@std@@@std@@YA$$QAU?$pair@HPAVBaseGameEntity@@@0@AAU10@@Z PROC ; std::forward<std::pair<int,BaseGameEntity *> >, COMDAT

; 1573 : 	{	// forward an lvalue as either an lvalue or an rvalue

	push	ebp
	mov	ebp, esp

; 1574 : 	return (static_cast<_Ty&&>(_Arg));

	mov	eax, DWORD PTR __Arg$[ebp]

; 1575 : 	}

	pop	ebp
	ret	0
??$forward@U?$pair@HPAVBaseGameEntity@@@std@@@std@@YA$$QAU?$pair@HPAVBaseGameEntity@@@0@AAU10@@Z ENDP ; std::forward<std::pair<int,BaseGameEntity *> >
_TEXT	ENDS
; Function compile flags: /Odtp /RTCsu
; File c:\program files (x86)\microsoft visual studio\2017\community\vc\tools\msvc\14.15.26726\include\utility
;	COMDAT ??$?0HAAPAVBaseGameEntity@@$0A@@?$pair@HPAVBaseGameEntity@@@std@@QAE@$$QAHAAPAVBaseGameEntity@@@Z
_TEXT	SEGMENT
_this$ = -4						; size = 4
__Val1$ = 8						; size = 4
__Val2$ = 12						; size = 4
??$?0HAAPAVBaseGameEntity@@$0A@@?$pair@HPAVBaseGameEntity@@@std@@QAE@$$QAHAAPAVBaseGameEntity@@@Z PROC ; std::pair<int,BaseGameEntity *>::pair<int,BaseGameEntity *><int,BaseGameEntity * &,0>, COMDAT
; _this$ = ecx

; 174  : 		{

	push	ebp
	mov	ebp, esp
	push	ecx
	mov	DWORD PTR [ebp-4], -858993460		; ccccccccH
	mov	DWORD PTR _this$[ebp], ecx

; 172  : 		: first(_STD forward<_Other1>(_Val1)),

	mov	eax, DWORD PTR __Val1$[ebp]
	push	eax
	call	??$forward@H@std@@YA$$QAHAAH@Z		; std::forward<int>
	add	esp, 4
	mov	ecx, DWORD PTR _this$[ebp]
	mov	edx, DWORD PTR [eax]
	mov	DWORD PTR [ecx], edx

; 173  : 				second(_STD forward<_Other2>(_Val2))

	mov	eax, DWORD PTR __Val2$[ebp]
	push	eax
	call	??$forward@AAPAVBaseGameEntity@@@std@@YAAAPAVBaseGameEntity@@AAPAV1@@Z ; std::forward<BaseGameEntity * &>
	add	esp, 4
	mov	ecx, DWORD PTR _this$[ebp]
	mov	edx, DWORD PTR [eax]
	mov	DWORD PTR [ecx+4], edx

; 175  : 		}

	mov	eax, DWORD PTR _this$[ebp]
	add	esp, 4
	cmp	ebp, esp
	call	__RTC_CheckEsp
	mov	esp, ebp
	pop	ebp
	ret	8
??$?0HAAPAVBaseGameEntity@@$0A@@?$pair@HPAVBaseGameEntity@@@std@@QAE@$$QAHAAPAVBaseGameEntity@@@Z ENDP ; std::pair<int,BaseGameEntity *>::pair<int,BaseGameEntity *><int,BaseGameEntity * &,0>
_TEXT	ENDS
; Function compile flags: /Odtp /RTCsu
; File c:\program files (x86)\microsoft visual studio\2017\community\vc\tools\msvc\14.15.26726\include\type_traits
;	COMDAT ??$forward@AAPAVBaseGameEntity@@@std@@YAAAPAVBaseGameEntity@@AAPAV1@@Z
_TEXT	SEGMENT
__Arg$ = 8						; size = 4
??$forward@AAPAVBaseGameEntity@@@std@@YAAAPAVBaseGameEntity@@AAPAV1@@Z PROC ; std::forward<BaseGameEntity * &>, COMDAT

; 1573 : 	{	// forward an lvalue as either an lvalue or an rvalue

	push	ebp
	mov	ebp, esp

; 1574 : 	return (static_cast<_Ty&&>(_Arg));

	mov	eax, DWORD PTR __Arg$[ebp]

; 1575 : 	}

	pop	ebp
	ret	0
??$forward@AAPAVBaseGameEntity@@@std@@YAAAPAVBaseGameEntity@@AAPAV1@@Z ENDP ; std::forward<BaseGameEntity * &>
_TEXT	ENDS
; Function compile flags: /Odtp /RTCsu
; File c:\program files (x86)\microsoft visual studio\2017\community\vc\tools\msvc\14.15.26726\include\type_traits
;	COMDAT ??$forward@H@std@@YA$$QAHAAH@Z
_TEXT	SEGMENT
__Arg$ = 8						; size = 4
??$forward@H@std@@YA$$QAHAAH@Z PROC			; std::forward<int>, COMDAT

; 1573 : 	{	// forward an lvalue as either an lvalue or an rvalue

	push	ebp
	mov	ebp, esp

; 1574 : 	return (static_cast<_Ty&&>(_Arg));

	mov	eax, DWORD PTR __Arg$[ebp]

; 1575 : 	}

	pop	ebp
	ret	0
??$forward@H@std@@YA$$QAHAAH@Z ENDP			; std::forward<int>
_TEXT	ENDS
; Function compile flags: /Odtp /RTCsu
; File c:\program files (x86)\microsoft visual studio\2017\community\vc\tools\msvc\14.15.26726\include\xmemory0
;	COMDAT ??$_Get_size_of_n@$0BI@@std@@YAII@Z
_TEXT	SEGMENT
__Result$ = -8						; size = 4
__Max_possible$ = -4					; size = 4
__Count$ = 8						; size = 4
??$_Get_size_of_n@$0BI@@std@@YAII@Z PROC		; std::_Get_size_of_n<24>, COMDAT

; 23   : 	{	// gets the size of _Count copies of a type sized _Ty_size

	push	ebp
	mov	ebp, esp
	sub	esp, 8
	mov	DWORD PTR [ebp-8], -858993460		; ccccccccH
	mov	DWORD PTR [ebp-4], -858993460		; ccccccccH

; 24   : 	constexpr size_t _Max_possible = static_cast<size_t>(-1) / _Ty_size;

	mov	DWORD PTR __Max_possible$[ebp], 178956970 ; 0aaaaaaaH

; 25   : 	size_t _Result = _Count * _Ty_size;

	imul	eax, DWORD PTR __Count$[ebp], 24
	mov	DWORD PTR __Result$[ebp], eax

; 26   : 	if (_Max_possible < _Count)

	cmp	DWORD PTR __Count$[ebp], 178956970	; 0aaaaaaaH
	jbe	SHORT $LN2@Get_size_o

; 27   : 		{	// multiply overflow, try allocating all of memory and assume the
; 28   : 			// allocation function will throw bad_alloc
; 29   : 		_Result = static_cast<size_t>(-1);

	mov	DWORD PTR __Result$[ebp], -1
$LN2@Get_size_o:

; 30   : 		}
; 31   : 
; 32   : 	return (_Result);

	mov	eax, DWORD PTR __Result$[ebp]

; 33   : 	}

	mov	esp, ebp
	pop	ebp
	ret	0
??$_Get_size_of_n@$0BI@@std@@YAII@Z ENDP		; std::_Get_size_of_n<24>
_TEXT	ENDS
; Function compile flags: /Odtp /RTCsu
; File c:\program files (x86)\microsoft visual studio\2017\community\vc\tools\msvc\14.15.26726\include\xmemory0
;	COMDAT ??$construct@PAU?$_Tree_node@U?$pair@$$CBHPAVBaseGameEntity@@@std@@PAX@std@@AAPAU12@@?$_Default_allocator_traits@V?$allocator@U?$_Tree_node@U?$pair@$$CBHPAVBaseGameEntity@@@std@@PAX@std@@@std@@@std@@SAXAAV?$allocator@U?$_Tree_node@U?$pair@$$CBHPAVBaseGameEntity@@@std@@PAX@std@@@1@QAPAU?$_Tree_node@U?$pair@$$CBHPAVBaseGameEntity@@@std@@PAX@1@AAPAU31@@Z
_TEXT	SEGMENT
$T1 = -4						; size = 4
___formal$ = 8						; size = 4
__Ptr$ = 12						; size = 4
_<_Args_0>$ = 16					; size = 4
??$construct@PAU?$_Tree_node@U?$pair@$$CBHPAVBaseGameEntity@@@std@@PAX@std@@AAPAU12@@?$_Default_allocator_traits@V?$allocator@U?$_Tree_node@U?$pair@$$CBHPAVBaseGameEntity@@@std@@PAX@std@@@std@@@std@@SAXAAV?$allocator@U?$_Tree_node@U?$pair@$$CBHPAVBaseGameEntity@@@std@@PAX@std@@@1@QAPAU?$_Tree_node@U?$pair@$$CBHPAVBaseGameEntity@@@std@@PAX@1@AAPAU31@@Z PROC ; std::_Default_allocator_traits<std::allocator<std::_Tree_node<std::pair<int const ,BaseGameEntity *>,void *> > >::construct<std::_Tree_node<std::pair<int const ,BaseGameEntity *>,void *> *,std::_Tree_node<std::pair<int const ,BaseGameEntity *>,void *> * &>, COMDAT

; 879  : 		{	// construct _Objty(_Types...) at _Ptr

	push	ebp
	mov	ebp, esp
	push	ecx
	mov	DWORD PTR [ebp-4], -858993460		; ccccccccH

; 880  : 		::new (const_cast<void *>(static_cast<const volatile void *>(_Ptr)))

	mov	eax, DWORD PTR __Ptr$[ebp]
	push	eax
	push	4
	call	??2@YAPAXIPAX@Z				; operator new
	add	esp, 8
	mov	DWORD PTR $T1[ebp], eax
	mov	ecx, DWORD PTR _<_Args_0>$[ebp]
	push	ecx
	call	??$forward@AAPAU?$_Tree_node@U?$pair@$$CBHPAVBaseGameEntity@@@std@@PAX@std@@@std@@YAAAPAU?$_Tree_node@U?$pair@$$CBHPAVBaseGameEntity@@@std@@PAX@0@AAPAU10@@Z ; std::forward<std::_Tree_node<std::pair<int const ,BaseGameEntity *>,void *> * &>
	add	esp, 4
	mov	edx, DWORD PTR $T1[ebp]
	mov	eax, DWORD PTR [eax]
	mov	DWORD PTR [edx], eax

; 881  : 			_Objty(_STD forward<_Types>(_Args)...);
; 882  : 		}

	add	esp, 4
	cmp	ebp, esp
	call	__RTC_CheckEsp
	mov	esp, ebp
	pop	ebp
	ret	0
??$construct@PAU?$_Tree_node@U?$pair@$$CBHPAVBaseGameEntity@@@std@@PAX@std@@AAPAU12@@?$_Default_allocator_traits@V?$allocator@U?$_Tree_node@U?$pair@$$CBHPAVBaseGameEntity@@@std@@PAX@std@@@std@@@std@@SAXAAV?$allocator@U?$_Tree_node@U?$pair@$$CBHPAVBaseGameEntity@@@std@@PAX@std@@@1@QAPAU?$_Tree_node@U?$pair@$$CBHPAVBaseGameEntity@@@std@@PAX@1@AAPAU31@@Z ENDP ; std::_Default_allocator_traits<std::allocator<std::_Tree_node<std::pair<int const ,BaseGameEntity *>,void *> > >::construct<std::_Tree_node<std::pair<int const ,BaseGameEntity *>,void *> *,std::_Tree_node<std::pair<int const ,BaseGameEntity *>,void *> * &>
_TEXT	ENDS
; Function compile flags: /Odtp /RTCsu
; File c:\program files (x86)\microsoft visual studio\2017\community\vc\tools\msvc\14.15.26726\include\xstddef
;	COMDAT ??$addressof@PAU?$_Tree_node@U?$pair@$$CBHPAVBaseGameEntity@@@std@@PAX@std@@@std@@YAPAPAU?$_Tree_node@U?$pair@$$CBHPAVBaseGameEntity@@@std@@PAX@0@AAPAU10@@Z
_TEXT	SEGMENT
__Val$ = 8						; size = 4
??$addressof@PAU?$_Tree_node@U?$pair@$$CBHPAVBaseGameEntity@@@std@@PAX@std@@@std@@YAPAPAU?$_Tree_node@U?$pair@$$CBHPAVBaseGameEntity@@@std@@PAX@0@AAPAU10@@Z PROC ; std::addressof<std::_Tree_node<std::pair<int const ,BaseGameEntity *>,void *> *>, COMDAT

; 329  : 	{	// return address of _Val

	push	ebp
	mov	ebp, esp

; 330  : 	return (__builtin_addressof(_Val));

	mov	eax, DWORD PTR __Val$[ebp]

; 331  : 	}

	pop	ebp
	ret	0
??$addressof@PAU?$_Tree_node@U?$pair@$$CBHPAVBaseGameEntity@@@std@@PAX@std@@@std@@YAPAPAU?$_Tree_node@U?$pair@$$CBHPAVBaseGameEntity@@@std@@PAX@0@AAPAU10@@Z ENDP ; std::addressof<std::_Tree_node<std::pair<int const ,BaseGameEntity *>,void *> *>
_TEXT	ENDS
; Function compile flags: /Odtp /RTCsu
; File c:\program files (x86)\microsoft visual studio\2017\community\vc\tools\msvc\14.15.26726\include\utility
;	COMDAT ??$swap@DX@std@@YAXAAD0@Z
_TEXT	SEGMENT
__Tmp$ = -5						; size = 1
__Left$ = 8						; size = 4
__Right$ = 12						; size = 4
??$swap@DX@std@@YAXAAD0@Z PROC				; std::swap<char,void>, COMDAT

; 66   : 	{	// exchange values stored at _Left and _Right

	push	ebp
	mov	ebp, esp
	sub	esp, 12					; 0000000cH
	mov	DWORD PTR [ebp-12], -858993460		; ccccccccH
	mov	DWORD PTR [ebp-8], -858993460		; ccccccccH
	mov	DWORD PTR [ebp-4], -858993460		; ccccccccH

; 67   : 	_Ty _Tmp = _STD move(_Left);

	mov	eax, DWORD PTR __Left$[ebp]
	push	eax
	call	??$move@AAD@std@@YA$$QADAAD@Z		; std::move<char &>
	add	esp, 4
	mov	cl, BYTE PTR [eax]
	mov	BYTE PTR __Tmp$[ebp], cl

; 68   : 	_Left = _STD move(_Right);

	mov	edx, DWORD PTR __Right$[ebp]
	push	edx
	call	??$move@AAD@std@@YA$$QADAAD@Z		; std::move<char &>
	add	esp, 4
	mov	ecx, DWORD PTR __Left$[ebp]
	mov	dl, BYTE PTR [eax]
	mov	BYTE PTR [ecx], dl

; 69   : 	_Right = _STD move(_Tmp);

	lea	eax, DWORD PTR __Tmp$[ebp]
	push	eax
	call	??$move@AAD@std@@YA$$QADAAD@Z		; std::move<char &>
	add	esp, 4
	mov	ecx, DWORD PTR __Right$[ebp]
	mov	dl, BYTE PTR [eax]
	mov	BYTE PTR [ecx], dl

; 70   : 	}

	push	edx
	mov	ecx, ebp
	push	eax
	lea	edx, DWORD PTR $LN5@swap
	call	@_RTC_CheckStackVars@8
	pop	eax
	pop	edx
	add	esp, 12					; 0000000cH
	cmp	ebp, esp
	call	__RTC_CheckEsp
	mov	esp, ebp
	pop	ebp
	ret	0
	npad	3
$LN5@swap:
	DD	1
	DD	$LN4@swap
$LN4@swap:
	DD	-5					; fffffffbH
	DD	1
	DD	$LN3@swap
$LN3@swap:
	DB	95					; 0000005fH
	DB	84					; 00000054H
	DB	109					; 0000006dH
	DB	112					; 00000070H
	DB	0
??$swap@DX@std@@YAXAAD0@Z ENDP				; std::swap<char,void>
_TEXT	ENDS
; Function compile flags: /Odtp /RTCsu
; File c:\program files (x86)\microsoft visual studio\2017\community\vc\tools\msvc\14.15.26726\include\xmemory0
;	COMDAT ??$_Get_size_of_n@$07@std@@YAII@Z
_TEXT	SEGMENT
__Result$ = -8						; size = 4
__Max_possible$ = -4					; size = 4
__Count$ = 8						; size = 4
??$_Get_size_of_n@$07@std@@YAII@Z PROC			; std::_Get_size_of_n<8>, COMDAT

; 23   : 	{	// gets the size of _Count copies of a type sized _Ty_size

	push	ebp
	mov	ebp, esp
	sub	esp, 8
	mov	DWORD PTR [ebp-8], -858993460		; ccccccccH
	mov	DWORD PTR [ebp-4], -858993460		; ccccccccH

; 24   : 	constexpr size_t _Max_possible = static_cast<size_t>(-1) / _Ty_size;

	mov	DWORD PTR __Max_possible$[ebp], 536870911 ; 1fffffffH

; 25   : 	size_t _Result = _Count * _Ty_size;

	mov	eax, DWORD PTR __Count$[ebp]
	shl	eax, 3
	mov	DWORD PTR __Result$[ebp], eax

; 26   : 	if (_Max_possible < _Count)

	cmp	DWORD PTR __Count$[ebp], 536870911	; 1fffffffH
	jbe	SHORT $LN2@Get_size_o

; 27   : 		{	// multiply overflow, try allocating all of memory and assume the
; 28   : 			// allocation function will throw bad_alloc
; 29   : 		_Result = static_cast<size_t>(-1);

	mov	DWORD PTR __Result$[ebp], -1
$LN2@Get_size_o:

; 30   : 		}
; 31   : 
; 32   : 	return (_Result);

	mov	eax, DWORD PTR __Result$[ebp]

; 33   : 	}

	mov	esp, ebp
	pop	ebp
	ret	0
??$_Get_size_of_n@$07@std@@YAII@Z ENDP			; std::_Get_size_of_n<8>
_TEXT	ENDS
; Function compile flags: /Odtp /RTCsu
; File c:\program files (x86)\microsoft visual studio\2017\community\vc\tools\msvc\14.15.26726\include\map
;	COMDAT ??$_Kfn@$$CBHPAVBaseGameEntity@@@?$_Tmap_traits@HPAVBaseGameEntity@@U?$less@H@std@@V?$allocator@U?$pair@$$CBHPAVBaseGameEntity@@@std@@@3@$0A@@std@@SAABHABU?$pair@$$CBHPAVBaseGameEntity@@@1@@Z
_TEXT	SEGMENT
__Val$ = 8						; size = 4
??$_Kfn@$$CBHPAVBaseGameEntity@@@?$_Tmap_traits@HPAVBaseGameEntity@@U?$less@H@std@@V?$allocator@U?$pair@$$CBHPAVBaseGameEntity@@@std@@@3@$0A@@std@@SAABHABU?$pair@$$CBHPAVBaseGameEntity@@@1@@Z PROC ; std::_Tmap_traits<int,BaseGameEntity *,std::less<int>,std::allocator<std::pair<int const ,BaseGameEntity *> >,0>::_Kfn<int const ,BaseGameEntity *>, COMDAT

; 70   : 		{	// extract key from element value

	push	ebp
	mov	ebp, esp

; 71   : 		return (_Val.first);

	mov	eax, DWORD PTR __Val$[ebp]

; 72   : 		}

	pop	ebp
	ret	0
??$_Kfn@$$CBHPAVBaseGameEntity@@@?$_Tmap_traits@HPAVBaseGameEntity@@U?$less@H@std@@V?$allocator@U?$pair@$$CBHPAVBaseGameEntity@@@std@@@3@$0A@@std@@SAABHABU?$pair@$$CBHPAVBaseGameEntity@@@1@@Z ENDP ; std::_Tmap_traits<int,BaseGameEntity *,std::less<int>,std::allocator<std::pair<int const ,BaseGameEntity *> >,0>::_Kfn<int const ,BaseGameEntity *>
_TEXT	ENDS
; Function compile flags: /Odtp /RTCsu
; File c:\program files (x86)\microsoft visual studio\2017\community\vc\tools\msvc\14.15.26726\include\xutility
;	COMDAT ??$?0ABU?$less@H@std@@U_Zero_then_variadic_args_t@1@@?$_Compressed_pair@U?$less@H@std@@V?$_Compressed_pair@V?$allocator@U?$_Tree_node@U?$pair@$$CBHPAVBaseGameEntity@@@std@@PAX@std@@@std@@V?$_Tree_val@U?$_Tree_simple_types@U?$pair@$$CBHPAVBaseGameEntity@@@std@@@std@@@2@$00@2@$00@std@@QAE@U_One_then_variadic_args_t@1@ABU?$less@H@1@$$QAU_Zero_then_variadic_args_t@1@@Z
_TEXT	SEGMENT
_this$ = -4						; size = 4
___formal$ = 8						; size = 1
__Val1$ = 12						; size = 4
_<_Val2_0>$ = 16					; size = 4
??$?0ABU?$less@H@std@@U_Zero_then_variadic_args_t@1@@?$_Compressed_pair@U?$less@H@std@@V?$_Compressed_pair@V?$allocator@U?$_Tree_node@U?$pair@$$CBHPAVBaseGameEntity@@@std@@PAX@std@@@std@@V?$_Tree_val@U?$_Tree_simple_types@U?$pair@$$CBHPAVBaseGameEntity@@@std@@@std@@@2@$00@2@$00@std@@QAE@U_One_then_variadic_args_t@1@ABU?$less@H@1@$$QAU_Zero_then_variadic_args_t@1@@Z PROC ; std::_Compressed_pair<std::less<int>,std::_Compressed_pair<std::allocator<std::_Tree_node<std::pair<int const ,BaseGameEntity *>,void *> >,std::_Tree_val<std::_Tree_simple_types<std::pair<int const ,BaseGameEntity *> > >,1>,1>::_Compressed_pair<std::less<int>,std::_Compressed_pair<std::allocator<std::_Tree_node<std::pair<int const ,BaseGameEntity *>,void *> >,std::_Tree_val<std::_Tree_simple_types<std::pair<int const ,BaseGameEntity *> > >,1>,1><std::less<int> const &,std::_Zero_then_variadic_args_t>, COMDAT
; _this$ = ecx

; 287  : 		{	// construct from forwarded values

	push	ebp
	mov	ebp, esp
	push	ecx
	mov	DWORD PTR [ebp-4], -858993460		; ccccccccH
	mov	DWORD PTR _this$[ebp], ecx

; 285  : 		: _Ty1(_STD forward<_Other1>(_Val1)),

	mov	eax, DWORD PTR __Val1$[ebp]
	push	eax
	call	??$forward@ABU?$less@H@std@@@std@@YAABU?$less@H@0@ABU10@@Z ; std::forward<std::less<int> const &>
	add	esp, 4

; 286  : 			_Myval2(_STD forward<_Other2>(_Val2)...)

	mov	ecx, DWORD PTR _<_Val2_0>$[ebp]
	push	ecx
	call	??$forward@U_Zero_then_variadic_args_t@std@@@std@@YA$$QAU_Zero_then_variadic_args_t@0@AAU10@@Z ; std::forward<std::_Zero_then_variadic_args_t>
	add	esp, 4
	mov	dl, BYTE PTR [eax]
	movzx	eax, dl
	push	eax
	mov	ecx, DWORD PTR _this$[ebp]
	call	??$?0$$V@?$_Compressed_pair@V?$allocator@U?$_Tree_node@U?$pair@$$CBHPAVBaseGameEntity@@@std@@PAX@std@@@std@@V?$_Tree_val@U?$_Tree_simple_types@U?$pair@$$CBHPAVBaseGameEntity@@@std@@@std@@@2@$00@std@@QAE@U_Zero_then_variadic_args_t@1@@Z ; std::_Compressed_pair<std::allocator<std::_Tree_node<std::pair<int const ,BaseGameEntity *>,void *> >,std::_Tree_val<std::_Tree_simple_types<std::pair<int const ,BaseGameEntity *> > >,1>::_Compressed_pair<std::allocator<std::_Tree_node<std::pair<int const ,BaseGameEntity *>,void *> >,std::_Tree_val<std::_Tree_simple_types<std::pair<int const ,BaseGameEntity *> > >,1><>

; 288  : 		}

	mov	eax, DWORD PTR _this$[ebp]
	add	esp, 4
	cmp	ebp, esp
	call	__RTC_CheckEsp
	mov	esp, ebp
	pop	ebp
	ret	12					; 0000000cH
??$?0ABU?$less@H@std@@U_Zero_then_variadic_args_t@1@@?$_Compressed_pair@U?$less@H@std@@V?$_Compressed_pair@V?$allocator@U?$_Tree_node@U?$pair@$$CBHPAVBaseGameEntity@@@std@@PAX@std@@@std@@V?$_Tree_val@U?$_Tree_simple_types@U?$pair@$$CBHPAVBaseGameEntity@@@std@@@std@@@2@$00@2@$00@std@@QAE@U_One_then_variadic_args_t@1@ABU?$less@H@1@$$QAU_Zero_then_variadic_args_t@1@@Z ENDP ; std::_Compressed_pair<std::less<int>,std::_Compressed_pair<std::allocator<std::_Tree_node<std::pair<int const ,BaseGameEntity *>,void *> >,std::_Tree_val<std::_Tree_simple_types<std::pair<int const ,BaseGameEntity *> > >,1>,1>::_Compressed_pair<std::less<int>,std::_Compressed_pair<std::allocator<std::_Tree_node<std::pair<int const ,BaseGameEntity *>,void *> >,std::_Tree_val<std::_Tree_simple_types<std::pair<int const ,BaseGameEntity *> > >,1>,1><std::less<int> const &,std::_Zero_then_variadic_args_t>
_TEXT	ENDS
; Function compile flags: /Odtp /RTCsu
; File c:\program files (x86)\microsoft visual studio\2017\community\vc\tools\msvc\14.15.26726\include\xmemory0
;	COMDAT ??$?0U?$_Tree_node@U?$pair@$$CBHPAVBaseGameEntity@@@std@@PAX@std@@@?$allocator@U_Container_proxy@std@@@std@@QAE@ABV?$allocator@U?$_Tree_node@U?$pair@$$CBHPAVBaseGameEntity@@@std@@PAX@std@@@1@@Z
_TEXT	SEGMENT
_this$ = -4						; size = 4
___formal$ = 8						; size = 4
??$?0U?$_Tree_node@U?$pair@$$CBHPAVBaseGameEntity@@@std@@PAX@std@@@?$allocator@U_Container_proxy@std@@@std@@QAE@ABV?$allocator@U?$_Tree_node@U?$pair@$$CBHPAVBaseGameEntity@@@std@@PAX@std@@@1@@Z PROC ; std::allocator<std::_Container_proxy>::allocator<std::_Container_proxy><std::_Tree_node<std::pair<int const ,BaseGameEntity *>,void *> >, COMDAT
; _this$ = ecx

; 986  : 		{	// construct from a related allocator (do nothing)

	push	ebp
	mov	ebp, esp
	push	ecx
	mov	DWORD PTR [ebp-4], -858993460		; ccccccccH
	mov	DWORD PTR _this$[ebp], ecx

; 987  : 		}

	mov	eax, DWORD PTR _this$[ebp]
	mov	esp, ebp
	pop	ebp
	ret	4
??$?0U?$_Tree_node@U?$pair@$$CBHPAVBaseGameEntity@@@std@@PAX@std@@@?$allocator@U_Container_proxy@std@@@std@@QAE@ABV?$allocator@U?$_Tree_node@U?$pair@$$CBHPAVBaseGameEntity@@@std@@PAX@std@@@1@@Z ENDP ; std::allocator<std::_Container_proxy>::allocator<std::_Container_proxy><std::_Tree_node<std::pair<int const ,BaseGameEntity *>,void *> >
_TEXT	ENDS
; Function compile flags: /Odtp /RTCsu
; File c:\program files (x86)\microsoft visual studio\2017\community\vc\tools\msvc\14.15.26726\include\xmemory0
;	COMDAT ??$construct@U_Container_proxy@std@@U12@@?$_Default_allocator_traits@V?$allocator@U_Container_proxy@std@@@std@@@std@@SAXAAV?$allocator@U_Container_proxy@std@@@1@QAU_Container_proxy@1@$$QAU31@@Z
_TEXT	SEGMENT
$T1 = -4						; size = 4
___formal$ = 8						; size = 4
__Ptr$ = 12						; size = 4
_<_Args_0>$ = 16					; size = 4
??$construct@U_Container_proxy@std@@U12@@?$_Default_allocator_traits@V?$allocator@U_Container_proxy@std@@@std@@@std@@SAXAAV?$allocator@U_Container_proxy@std@@@1@QAU_Container_proxy@1@$$QAU31@@Z PROC ; std::_Default_allocator_traits<std::allocator<std::_Container_proxy> >::construct<std::_Container_proxy,std::_Container_proxy>, COMDAT

; 879  : 		{	// construct _Objty(_Types...) at _Ptr

	push	ebp
	mov	ebp, esp
	push	ecx
	mov	DWORD PTR [ebp-4], -858993460		; ccccccccH

; 880  : 		::new (const_cast<void *>(static_cast<const volatile void *>(_Ptr)))

	mov	eax, DWORD PTR __Ptr$[ebp]
	push	eax
	push	8
	call	??2@YAPAXIPAX@Z				; operator new
	add	esp, 8
	mov	DWORD PTR $T1[ebp], eax
	mov	ecx, DWORD PTR _<_Args_0>$[ebp]
	push	ecx
	call	??$forward@U_Container_proxy@std@@@std@@YA$$QAU_Container_proxy@0@AAU10@@Z ; std::forward<std::_Container_proxy>
	add	esp, 4
	mov	edx, DWORD PTR [eax]
	mov	eax, DWORD PTR [eax+4]
	mov	ecx, DWORD PTR $T1[ebp]
	mov	DWORD PTR [ecx], edx
	mov	DWORD PTR [ecx+4], eax

; 881  : 			_Objty(_STD forward<_Types>(_Args)...);
; 882  : 		}

	add	esp, 4
	cmp	ebp, esp
	call	__RTC_CheckEsp
	mov	esp, ebp
	pop	ebp
	ret	0
??$construct@U_Container_proxy@std@@U12@@?$_Default_allocator_traits@V?$allocator@U_Container_proxy@std@@@std@@@std@@SAXAAV?$allocator@U_Container_proxy@std@@@1@QAU_Container_proxy@1@$$QAU31@@Z ENDP ; std::_Default_allocator_traits<std::allocator<std::_Container_proxy> >::construct<std::_Container_proxy,std::_Container_proxy>
_TEXT	ENDS
; Function compile flags: /Odtp /RTCsu
; File c:\program files (x86)\microsoft visual studio\2017\community\vc\tools\msvc\14.15.26726\include\xstddef
;	COMDAT ??$_Unfancy@U_Container_proxy@std@@@std@@YAPAU_Container_proxy@0@PAU10@@Z
_TEXT	SEGMENT
__Ptr$ = 8						; size = 4
??$_Unfancy@U_Container_proxy@std@@@std@@YAPAU_Container_proxy@0@PAU10@@Z PROC ; std::_Unfancy<std::_Container_proxy>, COMDAT

; 345  : 	{	// do nothing for plain pointers

	push	ebp
	mov	ebp, esp

; 346  : 	return (_Ptr);

	mov	eax, DWORD PTR __Ptr$[ebp]

; 347  : 	}

	pop	ebp
	ret	0
??$_Unfancy@U_Container_proxy@std@@@std@@YAPAU_Container_proxy@0@PAU10@@Z ENDP ; std::_Unfancy<std::_Container_proxy>
_TEXT	ENDS
; Function compile flags: /Odtp /RTCsu
; File c:\program files (x86)\microsoft visual studio\2017\community\vc\tools\msvc\14.15.26726\include\xmemory0
;	COMDAT ??$_Deallocate_plain@V?$allocator@U_Container_proxy@std@@@std@@$0A@@std@@YAXAAV?$allocator@U_Container_proxy@std@@@0@QAU_Container_proxy@0@@Z
_TEXT	SEGMENT
__Al$ = 8						; size = 4
__Ptr$ = 12						; size = 4
??$_Deallocate_plain@V?$allocator@U_Container_proxy@std@@@std@@$0A@@std@@YAXAAV?$allocator@U_Container_proxy@std@@@0@QAU_Container_proxy@0@@Z PROC ; std::_Deallocate_plain<std::allocator<std::_Container_proxy>,0>, COMDAT

; 1212 : 	{	// deallocate a plain pointer using an allocator, non-fancy pointers special case

	push	ebp
	mov	ebp, esp

; 1213 : 	allocator_traits<_Alloc>::deallocate(_Al, _Ptr, 1);

	push	1
	mov	eax, DWORD PTR __Ptr$[ebp]
	push	eax
	mov	ecx, DWORD PTR __Al$[ebp]
	push	ecx
	call	?deallocate@?$_Default_allocator_traits@V?$allocator@U_Container_proxy@std@@@std@@@std@@SAXAAV?$allocator@U_Container_proxy@std@@@2@QAU_Container_proxy@2@I@Z ; std::_Default_allocator_traits<std::allocator<std::_Container_proxy> >::deallocate
	add	esp, 12					; 0000000cH

; 1214 : 	}

	cmp	ebp, esp
	call	__RTC_CheckEsp
	pop	ebp
	ret	0
??$_Deallocate_plain@V?$allocator@U_Container_proxy@std@@@std@@$0A@@std@@YAXAAV?$allocator@U_Container_proxy@std@@@0@QAU_Container_proxy@0@@Z ENDP ; std::_Deallocate_plain<std::allocator<std::_Container_proxy>,0>
_TEXT	ENDS
; Function compile flags: /Odtp /RTCsu
; File c:\program files (x86)\microsoft visual studio\2017\community\vc\tools\msvc\14.15.26726\include\xmemory0
;	COMDAT ??$destroy@U_Container_proxy@std@@@?$_Default_allocator_traits@V?$allocator@U_Container_proxy@std@@@std@@@std@@SAXAAV?$allocator@U_Container_proxy@std@@@1@QAU_Container_proxy@1@@Z
_TEXT	SEGMENT
___formal$ = 8						; size = 4
__Ptr$ = 12						; size = 4
??$destroy@U_Container_proxy@std@@@?$_Default_allocator_traits@V?$allocator@U_Container_proxy@std@@@std@@@std@@SAXAAV?$allocator@U_Container_proxy@std@@@1@QAU_Container_proxy@1@@Z PROC ; std::_Default_allocator_traits<std::allocator<std::_Container_proxy> >::destroy<std::_Container_proxy>, COMDAT

; 886  : 		{	// destroy object at _Ptr

	push	ebp
	mov	ebp, esp

; 887  : 		_Ptr->~_Uty();
; 888  : 		}

	pop	ebp
	ret	0
??$destroy@U_Container_proxy@std@@@?$_Default_allocator_traits@V?$allocator@U_Container_proxy@std@@@std@@@std@@SAXAAV?$allocator@U_Container_proxy@std@@@1@QAU_Container_proxy@1@@Z ENDP ; std::_Default_allocator_traits<std::allocator<std::_Container_proxy> >::destroy<std::_Container_proxy>
_TEXT	ENDS
; Function compile flags: /Odtp /RTCsu
; File c:\program files (x86)\microsoft visual studio\2017\community\vc\tools\msvc\14.15.26726\include\xmemory0
;	COMDAT ?deallocate@?$_Default_allocator_traits@V?$allocator@U_Container_proxy@std@@@std@@@std@@SAXAAV?$allocator@U_Container_proxy@std@@@2@QAU_Container_proxy@2@I@Z
_TEXT	SEGMENT
___formal$ = 8						; size = 4
__Ptr$ = 12						; size = 4
__Count$ = 16						; size = 4
?deallocate@?$_Default_allocator_traits@V?$allocator@U_Container_proxy@std@@@std@@@std@@SAXAAV?$allocator@U_Container_proxy@std@@@2@QAU_Container_proxy@2@I@Z PROC ; std::_Default_allocator_traits<std::allocator<std::_Container_proxy> >::deallocate, COMDAT

; 871  : 		{	// deallocate _Count elements at _Ptr

	push	ebp
	mov	ebp, esp

; 872  : 		// no overflow check on the following multiply; we assume _Allocate did that check
; 873  : 		_Deallocate<_New_alignof<value_type>>(_Ptr, sizeof(value_type) * _Count);

	mov	eax, DWORD PTR __Count$[ebp]
	shl	eax, 3
	push	eax
	mov	ecx, DWORD PTR __Ptr$[ebp]
	push	ecx
	call	??$_Deallocate@$07$0A@@std@@YAXPAXI@Z	; std::_Deallocate<8,0>
	add	esp, 8

; 874  : 		}

	cmp	ebp, esp
	call	__RTC_CheckEsp
	pop	ebp
	ret	0
?deallocate@?$_Default_allocator_traits@V?$allocator@U_Container_proxy@std@@@std@@@std@@SAXAAV?$allocator@U_Container_proxy@std@@@2@QAU_Container_proxy@2@I@Z ENDP ; std::_Default_allocator_traits<std::allocator<std::_Container_proxy> >::deallocate
_TEXT	ENDS
; Function compile flags: /Odtp /RTCsu
; File c:\program files (x86)\microsoft visual studio\2017\community\vc\tools\msvc\14.15.26726\include\xmemory0
;	COMDAT ?allocate@?$allocator@U_Container_proxy@std@@@std@@QAEPAU_Container_proxy@2@I@Z
_TEXT	SEGMENT
_this$ = -4						; size = 4
__Count$ = 8						; size = 4
?allocate@?$allocator@U_Container_proxy@std@@@std@@QAEPAU_Container_proxy@2@I@Z PROC ; std::allocator<std::_Container_proxy>::allocate, COMDAT
; _this$ = ecx

; 996  : 		{	// allocate array of _Count elements

	push	ebp
	mov	ebp, esp
	push	ecx
	mov	DWORD PTR [ebp-4], -858993460		; ccccccccH
	mov	DWORD PTR _this$[ebp], ecx

; 997  : 		return (static_cast<_Ty *>(_Allocate<_New_alignof<_Ty>>(_Get_size_of_n<sizeof(_Ty)>(_Count))));

	mov	eax, DWORD PTR __Count$[ebp]
	push	eax
	call	??$_Get_size_of_n@$07@std@@YAII@Z	; std::_Get_size_of_n<8>
	add	esp, 4
	push	eax
	call	??$_Allocate@$07U_Default_allocate_traits@std@@$0A@@std@@YAPAXI@Z ; std::_Allocate<8,std::_Default_allocate_traits,0>
	add	esp, 4

; 998  : 		}

	add	esp, 4
	cmp	ebp, esp
	call	__RTC_CheckEsp
	mov	esp, ebp
	pop	ebp
	ret	4
?allocate@?$allocator@U_Container_proxy@std@@@std@@QAEPAU_Container_proxy@2@I@Z ENDP ; std::allocator<std::_Container_proxy>::allocate
_TEXT	ENDS
; Function compile flags: /Odtp /RTCsu
; File c:\program files (x86)\microsoft visual studio\2017\community\vc\tools\msvc\14.15.26726\include\xmemory0
;	COMDAT ??$_Deallocate@$07$0A@@std@@YAXPAXI@Z
_TEXT	SEGMENT
__Ptr$ = 8						; size = 4
__Bytes$ = 12						; size = 4
??$_Deallocate@$07$0A@@std@@YAXPAXI@Z PROC		; std::_Deallocate<8,0>, COMDAT

; 199  : 	{	// deallocate storage allocated by _Allocate when !_HAS_ALIGNED_NEW || _Align <= __STDCPP_DEFAULT_NEW_ALIGNMENT__

	push	ebp
	mov	ebp, esp

; 200  :  #if defined(_M_IX86) || defined(_M_X64)
; 201  : 	if (_Bytes >= _Big_allocation_threshold)

	cmp	DWORD PTR __Bytes$[ebp], 4096		; 00001000H
	jb	SHORT $LN2@Deallocate

; 202  : 		{	// boost the alignment of big allocations to help autovectorization
; 203  : 		_Adjust_manually_vector_aligned(_Ptr, _Bytes);

	lea	eax, DWORD PTR __Bytes$[ebp]
	push	eax
	lea	ecx, DWORD PTR __Ptr$[ebp]
	push	ecx
	call	?_Adjust_manually_vector_aligned@std@@YAXAAPAXAAI@Z ; std::_Adjust_manually_vector_aligned
	add	esp, 8
$LN2@Deallocate:

; 204  : 		}
; 205  :  #endif /* defined(_M_IX86) || defined(_M_X64) */
; 206  : 
; 207  : 	::operator delete(_Ptr, _Bytes);

	mov	edx, DWORD PTR __Bytes$[ebp]
	push	edx
	mov	eax, DWORD PTR __Ptr$[ebp]
	push	eax
	call	??3@YAXPAXI@Z				; operator delete
	add	esp, 8

; 208  : 	}

	cmp	ebp, esp
	call	__RTC_CheckEsp
	pop	ebp
	ret	0
??$_Deallocate@$07$0A@@std@@YAXPAXI@Z ENDP		; std::_Deallocate<8,0>
_TEXT	ENDS
; Function compile flags: /Odtp /RTCsu
; File c:\program files (x86)\microsoft visual studio\2017\community\vc\tools\msvc\14.15.26726\include\xmemory0
;	COMDAT ??$_Allocate@$07U_Default_allocate_traits@std@@$0A@@std@@YAPAXI@Z
_TEXT	SEGMENT
__Bytes$ = 8						; size = 4
??$_Allocate@$07U_Default_allocate_traits@std@@$0A@@std@@YAPAXI@Z PROC ; std::_Allocate<8,std::_Default_allocate_traits,0>, COMDAT

; 180  : 	{	// allocate _Bytes when !_HAS_ALIGNED_NEW || _Align <= __STDCPP_DEFAULT_NEW_ALIGNMENT__

	push	ebp
	mov	ebp, esp

; 181  :  #if defined(_M_IX86) || defined(_M_X64)
; 182  : 	if (_Bytes >= _Big_allocation_threshold)

	cmp	DWORD PTR __Bytes$[ebp], 4096		; 00001000H
	jb	SHORT $LN2@Allocate

; 183  : 		{	// boost the alignment of big allocations to help autovectorization
; 184  : 		return (_Allocate_manually_vector_aligned<_Traits>(_Bytes));

	mov	eax, DWORD PTR __Bytes$[ebp]
	push	eax
	call	??$_Allocate_manually_vector_aligned@U_Default_allocate_traits@std@@@std@@YAPAXI@Z ; std::_Allocate_manually_vector_aligned<std::_Default_allocate_traits>
	add	esp, 4
	jmp	SHORT $LN1@Allocate
$LN2@Allocate:

; 185  : 		}
; 186  :  #endif /* defined(_M_IX86) || defined(_M_X64) */
; 187  : 
; 188  : 	if (_Bytes != 0)

	cmp	DWORD PTR __Bytes$[ebp], 0
	je	SHORT $LN3@Allocate

; 189  : 		{
; 190  : 		return (_Traits::_Allocate(_Bytes));

	mov	ecx, DWORD PTR __Bytes$[ebp]
	push	ecx
	call	?_Allocate@_Default_allocate_traits@std@@SAPAXI@Z ; std::_Default_allocate_traits::_Allocate
	add	esp, 4
	jmp	SHORT $LN1@Allocate
$LN3@Allocate:

; 191  : 		}
; 192  : 
; 193  : 	return (nullptr);

	xor	eax, eax
$LN1@Allocate:

; 194  : 	}

	cmp	ebp, esp
	call	__RTC_CheckEsp
	pop	ebp
	ret	0
??$_Allocate@$07U_Default_allocate_traits@std@@$0A@@std@@YAPAXI@Z ENDP ; std::_Allocate<8,std::_Default_allocate_traits,0>
_TEXT	ENDS
; Function compile flags: /Odtp /RTCsu
; File c:\program files (x86)\microsoft visual studio\2017\community\vc\tools\msvc\14.15.26726\include\xstddef
;	COMDAT ??$addressof@V?$_Tree_val@U?$_Tree_simple_types@U?$pair@$$CBHPAVBaseGameEntity@@@std@@@std@@@std@@@std@@YAPAV?$_Tree_val@U?$_Tree_simple_types@U?$pair@$$CBHPAVBaseGameEntity@@@std@@@std@@@0@AAV10@@Z
_TEXT	SEGMENT
__Val$ = 8						; size = 4
??$addressof@V?$_Tree_val@U?$_Tree_simple_types@U?$pair@$$CBHPAVBaseGameEntity@@@std@@@std@@@std@@@std@@YAPAV?$_Tree_val@U?$_Tree_simple_types@U?$pair@$$CBHPAVBaseGameEntity@@@std@@@std@@@0@AAV10@@Z PROC ; std::addressof<std::_Tree_val<std::_Tree_simple_types<std::pair<int const ,BaseGameEntity *> > > >, COMDAT

; 329  : 	{	// return address of _Val

	push	ebp
	mov	ebp, esp

; 330  : 	return (__builtin_addressof(_Val));

	mov	eax, DWORD PTR __Val$[ebp]

; 331  : 	}

	pop	ebp
	ret	0
??$addressof@V?$_Tree_val@U?$_Tree_simple_types@U?$pair@$$CBHPAVBaseGameEntity@@@std@@@std@@@std@@@std@@YAPAV?$_Tree_val@U?$_Tree_simple_types@U?$pair@$$CBHPAVBaseGameEntity@@@std@@@std@@@0@AAV10@@Z ENDP ; std::addressof<std::_Tree_val<std::_Tree_simple_types<std::pair<int const ,BaseGameEntity *> > > >
_TEXT	ENDS
; Function compile flags: /Odtp /RTCsu
; File c:\program files (x86)\microsoft visual studio\2017\community\vc\tools\msvc\14.15.26726\include\xtree
;	COMDAT ??$_Lbound@H@?$_Tree@V?$_Tmap_traits@HPAVBaseGameEntity@@U?$less@H@std@@V?$allocator@U?$pair@$$CBHPAVBaseGameEntity@@@std@@@3@$0A@@std@@@std@@IBEPAU?$_Tree_node@U?$pair@$$CBHPAVBaseGameEntity@@@std@@PAX@1@ABH@Z
_TEXT	SEGMENT
__Pnode$ = -12						; size = 4
__Wherenode$ = -8					; size = 4
_this$ = -4						; size = 4
__Keyval$ = 8						; size = 4
??$_Lbound@H@?$_Tree@V?$_Tmap_traits@HPAVBaseGameEntity@@U?$less@H@std@@V?$allocator@U?$pair@$$CBHPAVBaseGameEntity@@@std@@@3@$0A@@std@@@std@@IBEPAU?$_Tree_node@U?$pair@$$CBHPAVBaseGameEntity@@@std@@PAX@1@ABH@Z PROC ; std::_Tree<std::_Tmap_traits<int,BaseGameEntity *,std::less<int>,std::allocator<std::pair<int const ,BaseGameEntity *> >,0> >::_Lbound<int>, COMDAT
; _this$ = ecx

; 2044 : 		{	// find leftmost node not less than _Keyval

	push	ebp
	mov	ebp, esp
	sub	esp, 12					; 0000000cH
	mov	DWORD PTR [ebp-12], -858993460		; ccccccccH
	mov	DWORD PTR [ebp-8], -858993460		; ccccccccH
	mov	DWORD PTR [ebp-4], -858993460		; ccccccccH
	mov	DWORD PTR _this$[ebp], ecx

; 2045 : 		_Nodeptr _Wherenode = this->_Get_data()._Myhead;	// end() if search fails

	mov	ecx, DWORD PTR _this$[ebp]
	call	?_Get_data@?$_Tree_comp_alloc@V?$_Tmap_traits@HPAVBaseGameEntity@@U?$less@H@std@@V?$allocator@U?$pair@$$CBHPAVBaseGameEntity@@@std@@@3@$0A@@std@@@std@@QBEABV?$_Tree_val@U?$_Tree_simple_types@U?$pair@$$CBHPAVBaseGameEntity@@@std@@@std@@@2@XZ ; std::_Tree_comp_alloc<std::_Tmap_traits<int,BaseGameEntity *,std::less<int>,std::allocator<std::pair<int const ,BaseGameEntity *> >,0> >::_Get_data
	mov	eax, DWORD PTR [eax+4]
	mov	DWORD PTR __Wherenode$[ebp], eax

; 2046 : 		_Nodeptr _Pnode = _Wherenode->_Parent;

	mov	ecx, DWORD PTR __Wherenode$[ebp]
	mov	edx, DWORD PTR [ecx+4]
	mov	DWORD PTR __Pnode$[ebp], edx
$LN2@Lbound:

; 2047 : 
; 2048 : 		while (!_Pnode->_Isnil)

	mov	eax, DWORD PTR __Pnode$[ebp]
	movsx	ecx, BYTE PTR [eax+13]
	test	ecx, ecx
	jne	SHORT $LN3@Lbound

; 2049 : 			{
; 2050 : 			if (_Compare(this->_Key(_Pnode), _Keyval))

	mov	edx, DWORD PTR __Keyval$[ebp]
	push	edx
	mov	eax, DWORD PTR __Pnode$[ebp]
	push	eax
	mov	ecx, DWORD PTR _this$[ebp]
	call	?_Key@?$_Tree@V?$_Tmap_traits@HPAVBaseGameEntity@@U?$less@H@std@@V?$allocator@U?$pair@$$CBHPAVBaseGameEntity@@@std@@@3@$0A@@std@@@std@@IBEABHPAU?$_Tree_node@U?$pair@$$CBHPAVBaseGameEntity@@@std@@PAX@2@@Z ; std::_Tree<std::_Tmap_traits<int,BaseGameEntity *,std::less<int>,std::allocator<std::pair<int const ,BaseGameEntity *> >,0> >::_Key
	push	eax
	mov	ecx, DWORD PTR _this$[ebp]
	call	?_Compare@?$_Tree@V?$_Tmap_traits@HPAVBaseGameEntity@@U?$less@H@std@@V?$allocator@U?$pair@$$CBHPAVBaseGameEntity@@@std@@@3@$0A@@std@@@std@@IBE_NABH0@Z ; std::_Tree<std::_Tmap_traits<int,BaseGameEntity *,std::less<int>,std::allocator<std::pair<int const ,BaseGameEntity *> >,0> >::_Compare
	movzx	ecx, al
	test	ecx, ecx
	je	SHORT $LN4@Lbound

; 2051 : 				{
; 2052 : 				_Pnode = _Pnode->_Right;	// descend right subtree

	mov	edx, DWORD PTR __Pnode$[ebp]
	mov	eax, DWORD PTR [edx+8]
	mov	DWORD PTR __Pnode$[ebp], eax

; 2053 : 				}
; 2054 : 			else

	jmp	SHORT $LN5@Lbound
$LN4@Lbound:

; 2055 : 				{	// _Pnode not less than _Keyval, remember it
; 2056 : 				_Wherenode = _Pnode;

	mov	ecx, DWORD PTR __Pnode$[ebp]
	mov	DWORD PTR __Wherenode$[ebp], ecx

; 2057 : 				_Pnode = _Pnode->_Left;	// descend left subtree

	mov	edx, DWORD PTR __Pnode$[ebp]
	mov	eax, DWORD PTR [edx]
	mov	DWORD PTR __Pnode$[ebp], eax
$LN5@Lbound:

; 2058 : 				}
; 2059 : 			}

	jmp	SHORT $LN2@Lbound
$LN3@Lbound:

; 2060 : 
; 2061 : 		return (_Wherenode);	// return best remembered candidate

	mov	eax, DWORD PTR __Wherenode$[ebp]

; 2062 : 		}

	add	esp, 12					; 0000000cH
	cmp	ebp, esp
	call	__RTC_CheckEsp
	mov	esp, ebp
	pop	ebp
	ret	4
??$_Lbound@H@?$_Tree@V?$_Tmap_traits@HPAVBaseGameEntity@@U?$less@H@std@@V?$allocator@U?$pair@$$CBHPAVBaseGameEntity@@@std@@@3@$0A@@std@@@std@@IBEPAU?$_Tree_node@U?$pair@$$CBHPAVBaseGameEntity@@@std@@PAX@1@ABH@Z ENDP ; std::_Tree<std::_Tmap_traits<int,BaseGameEntity *,std::less<int>,std::allocator<std::pair<int const ,BaseGameEntity *> >,0> >::_Lbound<int>
_TEXT	ENDS
; Function compile flags: /Odtp /RTCsu
; File c:\program files (x86)\microsoft visual studio\2017\community\vc\tools\msvc\14.15.26726\include\xtree
;	COMDAT ??$_Freenode0@V?$allocator@U?$_Tree_node@U?$pair@$$CBHPAVBaseGameEntity@@@std@@PAX@std@@@std@@@?$_Tree_node@U?$pair@$$CBHPAVBaseGameEntity@@@std@@PAX@std@@SAXAAV?$allocator@U?$_Tree_node@U?$pair@$$CBHPAVBaseGameEntity@@@std@@PAX@std@@@1@PAU01@@Z
_TEXT	SEGMENT
__Node_alloc$ = -17					; size = 1
__$EHRec$ = -12						; size = 12
__Al$ = 8						; size = 4
__Ptr$ = 12						; size = 4
??$_Freenode0@V?$allocator@U?$_Tree_node@U?$pair@$$CBHPAVBaseGameEntity@@@std@@PAX@std@@@std@@@?$_Tree_node@U?$pair@$$CBHPAVBaseGameEntity@@@std@@PAX@std@@SAXAAV?$allocator@U?$_Tree_node@U?$pair@$$CBHPAVBaseGameEntity@@@std@@PAX@std@@@1@PAU01@@Z PROC ; std::_Tree_node<std::pair<int const ,BaseGameEntity *>,void *>::_Freenode0<std::allocator<std::_Tree_node<std::pair<int const ,BaseGameEntity *>,void *> > >, COMDAT

; 407  : 			{

	push	ebp
	mov	ebp, esp
	push	-1
	push	__ehhandler$??$_Freenode0@V?$allocator@U?$_Tree_node@U?$pair@$$CBHPAVBaseGameEntity@@@std@@PAX@std@@@std@@@?$_Tree_node@U?$pair@$$CBHPAVBaseGameEntity@@@std@@PAX@std@@SAXAAV?$allocator@U?$_Tree_node@U?$pair@$$CBHPAVBaseGameEntity@@@std@@PAX@std@@@1@PAU01@@Z
	mov	eax, DWORD PTR fs:0
	push	eax
	sub	esp, 12					; 0000000cH
	mov	DWORD PTR [ebp-24], -858993460		; ccccccccH
	mov	DWORD PTR [ebp-20], -858993460		; ccccccccH
	mov	DWORD PTR [ebp-16], -858993460		; ccccccccH
	mov	eax, DWORD PTR ___security_cookie
	xor	eax, ebp
	push	eax
	lea	eax, DWORD PTR __$EHRec$[ebp]
	mov	DWORD PTR fs:0, eax

; 408  : 			using _Alnode = _Rebind_alloc_t<_Alloc, _Tree_node>;
; 409  : 			using _Alnode_traits = allocator_traits<_Alnode>;
; 410  : 			_Alnode _Node_alloc(_Al);
; 411  : 			_Alnode_traits::destroy(_Node_alloc, _STD addressof(_Ptr->_Left));

	mov	eax, DWORD PTR __Ptr$[ebp]
	push	eax
	call	??$addressof@PAU?$_Tree_node@U?$pair@$$CBHPAVBaseGameEntity@@@std@@PAX@std@@@std@@YAPAPAU?$_Tree_node@U?$pair@$$CBHPAVBaseGameEntity@@@std@@PAX@0@AAPAU10@@Z ; std::addressof<std::_Tree_node<std::pair<int const ,BaseGameEntity *>,void *> *>
	add	esp, 4
	push	eax
	lea	ecx, DWORD PTR __Node_alloc$[ebp]
	push	ecx
	call	??$destroy@PAU?$_Tree_node@U?$pair@$$CBHPAVBaseGameEntity@@@std@@PAX@std@@@?$_Default_allocator_traits@V?$allocator@U?$_Tree_node@U?$pair@$$CBHPAVBaseGameEntity@@@std@@PAX@std@@@std@@@std@@SAXAAV?$allocator@U?$_Tree_node@U?$pair@$$CBHPAVBaseGameEntity@@@std@@PAX@std@@@1@QAPAU?$_Tree_node@U?$pair@$$CBHPAVBaseGameEntity@@@std@@PAX@1@@Z ; std::_Default_allocator_traits<std::allocator<std::_Tree_node<std::pair<int const ,BaseGameEntity *>,void *> > >::destroy<std::_Tree_node<std::pair<int const ,BaseGameEntity *>,void *> *>
	add	esp, 8

; 412  : 			_Alnode_traits::destroy(_Node_alloc, _STD addressof(_Ptr->_Parent));

	mov	edx, DWORD PTR __Ptr$[ebp]
	add	edx, 4
	push	edx
	call	??$addressof@PAU?$_Tree_node@U?$pair@$$CBHPAVBaseGameEntity@@@std@@PAX@std@@@std@@YAPAPAU?$_Tree_node@U?$pair@$$CBHPAVBaseGameEntity@@@std@@PAX@0@AAPAU10@@Z ; std::addressof<std::_Tree_node<std::pair<int const ,BaseGameEntity *>,void *> *>
	add	esp, 4
	push	eax
	lea	eax, DWORD PTR __Node_alloc$[ebp]
	push	eax
	call	??$destroy@PAU?$_Tree_node@U?$pair@$$CBHPAVBaseGameEntity@@@std@@PAX@std@@@?$_Default_allocator_traits@V?$allocator@U?$_Tree_node@U?$pair@$$CBHPAVBaseGameEntity@@@std@@PAX@std@@@std@@@std@@SAXAAV?$allocator@U?$_Tree_node@U?$pair@$$CBHPAVBaseGameEntity@@@std@@PAX@std@@@1@QAPAU?$_Tree_node@U?$pair@$$CBHPAVBaseGameEntity@@@std@@PAX@1@@Z ; std::_Default_allocator_traits<std::allocator<std::_Tree_node<std::pair<int const ,BaseGameEntity *>,void *> > >::destroy<std::_Tree_node<std::pair<int const ,BaseGameEntity *>,void *> *>
	add	esp, 8

; 413  : 			_Alnode_traits::destroy(_Node_alloc, _STD addressof(_Ptr->_Right));

	mov	ecx, DWORD PTR __Ptr$[ebp]
	add	ecx, 8
	push	ecx
	call	??$addressof@PAU?$_Tree_node@U?$pair@$$CBHPAVBaseGameEntity@@@std@@PAX@std@@@std@@YAPAPAU?$_Tree_node@U?$pair@$$CBHPAVBaseGameEntity@@@std@@PAX@0@AAPAU10@@Z ; std::addressof<std::_Tree_node<std::pair<int const ,BaseGameEntity *>,void *> *>
	add	esp, 4
	push	eax
	lea	edx, DWORD PTR __Node_alloc$[ebp]
	push	edx
	call	??$destroy@PAU?$_Tree_node@U?$pair@$$CBHPAVBaseGameEntity@@@std@@PAX@std@@@?$_Default_allocator_traits@V?$allocator@U?$_Tree_node@U?$pair@$$CBHPAVBaseGameEntity@@@std@@PAX@std@@@std@@@std@@SAXAAV?$allocator@U?$_Tree_node@U?$pair@$$CBHPAVBaseGameEntity@@@std@@PAX@std@@@1@QAPAU?$_Tree_node@U?$pair@$$CBHPAVBaseGameEntity@@@std@@PAX@1@@Z ; std::_Default_allocator_traits<std::allocator<std::_Tree_node<std::pair<int const ,BaseGameEntity *>,void *> > >::destroy<std::_Tree_node<std::pair<int const ,BaseGameEntity *>,void *> *>
	add	esp, 8

; 414  : 			_Alnode_traits::deallocate(_Node_alloc, _Ptr, 1);

	push	1
	mov	eax, DWORD PTR __Ptr$[ebp]
	push	eax
	lea	ecx, DWORD PTR __Node_alloc$[ebp]
	push	ecx
	call	?deallocate@?$_Default_allocator_traits@V?$allocator@U?$_Tree_node@U?$pair@$$CBHPAVBaseGameEntity@@@std@@PAX@std@@@std@@@std@@SAXAAV?$allocator@U?$_Tree_node@U?$pair@$$CBHPAVBaseGameEntity@@@std@@PAX@std@@@2@QAU?$_Tree_node@U?$pair@$$CBHPAVBaseGameEntity@@@std@@PAX@2@I@Z ; std::_Default_allocator_traits<std::allocator<std::_Tree_node<std::pair<int const ,BaseGameEntity *>,void *> > >::deallocate
	add	esp, 12					; 0000000cH

; 415  : 			}

	push	edx
	mov	ecx, ebp
	push	eax
	lea	edx, DWORD PTR $LN6@Freenode0
	call	@_RTC_CheckStackVars@8
	pop	eax
	pop	edx
	mov	ecx, DWORD PTR __$EHRec$[ebp]
	mov	DWORD PTR fs:0, ecx
	pop	ecx
	add	esp, 24					; 00000018H
	cmp	ebp, esp
	call	__RTC_CheckEsp
	mov	esp, ebp
	pop	ebp
	ret	0
	npad	1
$LN6@Freenode0:
	DD	1
	DD	$LN5@Freenode0
$LN5@Freenode0:
	DD	-17					; ffffffefH
	DD	1
	DD	$LN3@Freenode0
$LN3@Freenode0:
	DB	95					; 0000005fH
	DB	78					; 0000004eH
	DB	111					; 0000006fH
	DB	100					; 00000064H
	DB	101					; 00000065H
	DB	95					; 0000005fH
	DB	97					; 00000061H
	DB	108					; 0000006cH
	DB	108					; 0000006cH
	DB	111					; 0000006fH
	DB	99					; 00000063H
	DB	0
_TEXT	ENDS
;	COMDAT text$x
text$x	SEGMENT
__ehhandler$??$_Freenode0@V?$allocator@U?$_Tree_node@U?$pair@$$CBHPAVBaseGameEntity@@@std@@PAX@std@@@std@@@?$_Tree_node@U?$pair@$$CBHPAVBaseGameEntity@@@std@@PAX@std@@SAXAAV?$allocator@U?$_Tree_node@U?$pair@$$CBHPAVBaseGameEntity@@@std@@PAX@std@@@1@PAU01@@Z:
	mov	edx, DWORD PTR [esp+8]
	lea	eax, DWORD PTR [edx+12]
	mov	ecx, DWORD PTR [edx-16]
	xor	ecx, eax
	call	@__security_check_cookie@4
	mov	eax, OFFSET __ehfuncinfo$??$_Freenode0@V?$allocator@U?$_Tree_node@U?$pair@$$CBHPAVBaseGameEntity@@@std@@PAX@std@@@std@@@?$_Tree_node@U?$pair@$$CBHPAVBaseGameEntity@@@std@@PAX@std@@SAXAAV?$allocator@U?$_Tree_node@U?$pair@$$CBHPAVBaseGameEntity@@@std@@PAX@std@@@1@PAU01@@Z
	jmp	___CxxFrameHandler3
text$x	ENDS
??$_Freenode0@V?$allocator@U?$_Tree_node@U?$pair@$$CBHPAVBaseGameEntity@@@std@@PAX@std@@@std@@@?$_Tree_node@U?$pair@$$CBHPAVBaseGameEntity@@@std@@PAX@std@@SAXAAV?$allocator@U?$_Tree_node@U?$pair@$$CBHPAVBaseGameEntity@@@std@@PAX@std@@@1@PAU01@@Z ENDP ; std::_Tree_node<std::pair<int const ,BaseGameEntity *>,void *>::_Freenode0<std::allocator<std::_Tree_node<std::pair<int const ,BaseGameEntity *>,void *> > >
; Function compile flags: /Odtp /RTCsu
; File c:\program files (x86)\microsoft visual studio\2017\community\vc\tools\msvc\14.15.26726\include\xmemory0
;	COMDAT ??$destroy@U?$pair@$$CBHPAVBaseGameEntity@@@std@@@?$_Default_allocator_traits@V?$allocator@U?$_Tree_node@U?$pair@$$CBHPAVBaseGameEntity@@@std@@PAX@std@@@std@@@std@@SAXAAV?$allocator@U?$_Tree_node@U?$pair@$$CBHPAVBaseGameEntity@@@std@@PAX@std@@@1@QAU?$pair@$$CBHPAVBaseGameEntity@@@1@@Z
_TEXT	SEGMENT
___formal$ = 8						; size = 4
__Ptr$ = 12						; size = 4
??$destroy@U?$pair@$$CBHPAVBaseGameEntity@@@std@@@?$_Default_allocator_traits@V?$allocator@U?$_Tree_node@U?$pair@$$CBHPAVBaseGameEntity@@@std@@PAX@std@@@std@@@std@@SAXAAV?$allocator@U?$_Tree_node@U?$pair@$$CBHPAVBaseGameEntity@@@std@@PAX@std@@@1@QAU?$pair@$$CBHPAVBaseGameEntity@@@1@@Z PROC ; std::_Default_allocator_traits<std::allocator<std::_Tree_node<std::pair<int const ,BaseGameEntity *>,void *> > >::destroy<std::pair<int const ,BaseGameEntity *> >, COMDAT

; 886  : 		{	// destroy object at _Ptr

	push	ebp
	mov	ebp, esp

; 887  : 		_Ptr->~_Uty();
; 888  : 		}

	pop	ebp
	ret	0
??$destroy@U?$pair@$$CBHPAVBaseGameEntity@@@std@@@?$_Default_allocator_traits@V?$allocator@U?$_Tree_node@U?$pair@$$CBHPAVBaseGameEntity@@@std@@PAX@std@@@std@@@std@@SAXAAV?$allocator@U?$_Tree_node@U?$pair@$$CBHPAVBaseGameEntity@@@std@@PAX@std@@@1@QAU?$pair@$$CBHPAVBaseGameEntity@@@1@@Z ENDP ; std::_Default_allocator_traits<std::allocator<std::_Tree_node<std::pair<int const ,BaseGameEntity *>,void *> > >::destroy<std::pair<int const ,BaseGameEntity *> >
_TEXT	ENDS
; Function compile flags: /Odtp /RTCsu
; File c:\program files (x86)\microsoft visual studio\2017\community\vc\tools\msvc\14.15.26726\include\xstddef
;	COMDAT ??$addressof@U?$pair@$$CBHPAVBaseGameEntity@@@std@@@std@@YAPAU?$pair@$$CBHPAVBaseGameEntity@@@0@AAU10@@Z
_TEXT	SEGMENT
__Val$ = 8						; size = 4
??$addressof@U?$pair@$$CBHPAVBaseGameEntity@@@std@@@std@@YAPAU?$pair@$$CBHPAVBaseGameEntity@@@0@AAU10@@Z PROC ; std::addressof<std::pair<int const ,BaseGameEntity *> >, COMDAT

; 329  : 	{	// return address of _Val

	push	ebp
	mov	ebp, esp

; 330  : 	return (__builtin_addressof(_Val));

	mov	eax, DWORD PTR __Val$[ebp]

; 331  : 	}

	pop	ebp
	ret	0
??$addressof@U?$pair@$$CBHPAVBaseGameEntity@@@std@@@std@@YAPAU?$pair@$$CBHPAVBaseGameEntity@@@0@AAU10@@Z ENDP ; std::addressof<std::pair<int const ,BaseGameEntity *> >
_TEXT	ENDS
; Function compile flags: /Odtp /RTCsu
; File c:\program files (x86)\microsoft visual studio\2017\community\vc\tools\msvc\14.15.26726\include\xstddef
;	COMDAT ??$addressof@$$CBU?$pair@$$CBHPAVBaseGameEntity@@@std@@@std@@YAPBU?$pair@$$CBHPAVBaseGameEntity@@@0@ABU10@@Z
_TEXT	SEGMENT
__Val$ = 8						; size = 4
??$addressof@$$CBU?$pair@$$CBHPAVBaseGameEntity@@@std@@@std@@YAPBU?$pair@$$CBHPAVBaseGameEntity@@@0@ABU10@@Z PROC ; std::addressof<std::pair<int const ,BaseGameEntity *> const >, COMDAT

; 329  : 	{	// return address of _Val

	push	ebp
	mov	ebp, esp

; 330  : 	return (__builtin_addressof(_Val));

	mov	eax, DWORD PTR __Val$[ebp]

; 331  : 	}

	pop	ebp
	ret	0
??$addressof@$$CBU?$pair@$$CBHPAVBaseGameEntity@@@std@@@std@@YAPBU?$pair@$$CBHPAVBaseGameEntity@@@0@ABU10@@Z ENDP ; std::addressof<std::pair<int const ,BaseGameEntity *> const >
_TEXT	ENDS
; Function compile flags: /Odtp /RTCsu
; File c:\program files (x86)\microsoft visual studio\2017\community\vc\tools\msvc\14.15.26726\include\xstddef
;	COMDAT ??$addressof@$$CBV?$_Tree_val@U?$_Tree_simple_types@U?$pair@$$CBHPAVBaseGameEntity@@@std@@@std@@@std@@@std@@YAPBV?$_Tree_val@U?$_Tree_simple_types@U?$pair@$$CBHPAVBaseGameEntity@@@std@@@std@@@0@ABV10@@Z
_TEXT	SEGMENT
__Val$ = 8						; size = 4
??$addressof@$$CBV?$_Tree_val@U?$_Tree_simple_types@U?$pair@$$CBHPAVBaseGameEntity@@@std@@@std@@@std@@@std@@YAPBV?$_Tree_val@U?$_Tree_simple_types@U?$pair@$$CBHPAVBaseGameEntity@@@std@@@std@@@0@ABV10@@Z PROC ; std::addressof<std::_Tree_val<std::_Tree_simple_types<std::pair<int const ,BaseGameEntity *> > > const >, COMDAT

; 329  : 	{	// return address of _Val

	push	ebp
	mov	ebp, esp

; 330  : 	return (__builtin_addressof(_Val));

	mov	eax, DWORD PTR __Val$[ebp]

; 331  : 	}

	pop	ebp
	ret	0
??$addressof@$$CBV?$_Tree_val@U?$_Tree_simple_types@U?$pair@$$CBHPAVBaseGameEntity@@@std@@@std@@@std@@@std@@YAPBV?$_Tree_val@U?$_Tree_simple_types@U?$pair@$$CBHPAVBaseGameEntity@@@std@@@std@@@0@ABV10@@Z ENDP ; std::addressof<std::_Tree_val<std::_Tree_simple_types<std::pair<int const ,BaseGameEntity *> > > const >
_TEXT	ENDS
; Function compile flags: /Odtp /RTCsu
; File c:\program files (x86)\microsoft visual studio\2017\community\vc\tools\msvc\14.15.26726\include\xutility
;	COMDAT ??$_Debug_lt_pred@AAU?$less@H@std@@ABHABH@std@@YA_NAAU?$less@H@0@ABH1@Z
_TEXT	SEGMENT
__Result$ = -1						; size = 1
__Pred$ = 8						; size = 4
__Left$ = 12						; size = 4
__Right$ = 16						; size = 4
??$_Debug_lt_pred@AAU?$less@H@std@@ABHABH@std@@YA_NAAU?$less@H@0@ABH1@Z PROC ; std::_Debug_lt_pred<std::less<int> &,int const &,int const &>, COMDAT

; 1109 : 	{	// test if _Pred(_Left, _Right) and _Pred is strict weak ordering

	push	ebp
	mov	ebp, esp
	push	ecx
	mov	DWORD PTR [ebp-4], -858993460		; ccccccccH

; 1110 : 	const auto _Result = static_cast<bool>(_Pred(_Left, _Right));

	mov	eax, DWORD PTR __Right$[ebp]
	push	eax
	mov	ecx, DWORD PTR __Left$[ebp]
	push	ecx
	mov	ecx, DWORD PTR __Pred$[ebp]
	call	??R?$less@H@std@@QBE_NABH0@Z		; std::less<int>::operator()
	mov	BYTE PTR __Result$[ebp], al

; 1111 : 	if (_Result)

	movzx	edx, BYTE PTR __Result$[ebp]
	test	edx, edx
	je	SHORT $LN8@Debug_lt_p
$LN4@Debug_lt_p:

; 1112 : 		{
; 1113 : 		_STL_VERIFY(!_Pred(_Right, _Left), "invalid comparator");

	mov	eax, DWORD PTR __Left$[ebp]
	push	eax
	mov	ecx, DWORD PTR __Right$[ebp]
	push	ecx
	mov	ecx, DWORD PTR __Pred$[ebp]
	call	??R?$less@H@std@@QBE_NABH0@Z		; std::less<int>::operator()
	movzx	edx, al
	test	edx, edx
	jne	SHORT $LN7@Debug_lt_p
	jmp	SHORT $LN2@Debug_lt_p
$LN7@Debug_lt_p:
	push	OFFSET ??_C@_0BD@FEEMDEPI@invalid?5comparator@
	push	OFFSET ??_C@_02DKCKIIND@?$CFs@
	push	0
	push	1113					; 00000459H
	push	OFFSET ??_C@_0GJ@DMCEMOMH@c?3?2program?5files?5?$CIx86?$CJ?2microsof@
	push	2
	call	__CrtDbgReport
	add	esp, 24					; 00000018H
	cmp	eax, 1
	jne	SHORT $LN12@Debug_lt_p
	int	3
$LN12@Debug_lt_p:
	push	0
	push	1113					; 00000459H
	push	OFFSET ??_C@_1NC@HPHBFJCM@?$AAc?$AA?3?$AA?2?$AAp?$AAr?$AAo?$AAg?$AAr?$AAa?$AAm?$AA?5?$AAf?$AAi?$AAl?$AAe@
	push	OFFSET ??_C@_1CI@JONCLBEJ@?$AAs?$AAt?$AAd?$AA?3?$AA?3?$AA_?$AAD?$AAe?$AAb?$AAu?$AAg?$AA_?$AAl?$AAt?$AA_@
	push	OFFSET ??_C@_1CK@NDNHPKPI@?$AA?$CC?$AAi?$AAn?$AAv?$AAa?$AAl?$AAi?$AAd?$AA?5?$AAc?$AAo?$AAm?$AAp?$AAa?$AAr@
	call	__invalid_parameter
	add	esp, 20					; 00000014H
	xor	ecx, ecx
	jne	SHORT $LN7@Debug_lt_p
$LN2@Debug_lt_p:
	xor	edx, edx
	jne	SHORT $LN4@Debug_lt_p
$LN8@Debug_lt_p:

; 1114 : 		}
; 1115 : 
; 1116 : 	return (_Result);

	mov	al, BYTE PTR __Result$[ebp]

; 1117 : 	}

	add	esp, 4
	cmp	ebp, esp
	call	__RTC_CheckEsp
	mov	esp, ebp
	pop	ebp
	ret	0
??$_Debug_lt_pred@AAU?$less@H@std@@ABHABH@std@@YA_NAAU?$less@H@0@ABH1@Z ENDP ; std::_Debug_lt_pred<std::less<int> &,int const &,int const &>
_TEXT	ENDS
; Function compile flags: /Odtp /RTCsu
; File c:\program files (x86)\microsoft visual studio\2017\community\vc\tools\msvc\14.15.26726\include\xutility
;	COMDAT ??$_Debug_lt_pred@ABU?$less@H@std@@ABHABH@std@@YA_NABU?$less@H@0@ABH1@Z
_TEXT	SEGMENT
__Result$ = -1						; size = 1
__Pred$ = 8						; size = 4
__Left$ = 12						; size = 4
__Right$ = 16						; size = 4
??$_Debug_lt_pred@ABU?$less@H@std@@ABHABH@std@@YA_NABU?$less@H@0@ABH1@Z PROC ; std::_Debug_lt_pred<std::less<int> const &,int const &,int const &>, COMDAT

; 1109 : 	{	// test if _Pred(_Left, _Right) and _Pred is strict weak ordering

	push	ebp
	mov	ebp, esp
	push	ecx
	mov	DWORD PTR [ebp-4], -858993460		; ccccccccH

; 1110 : 	const auto _Result = static_cast<bool>(_Pred(_Left, _Right));

	mov	eax, DWORD PTR __Right$[ebp]
	push	eax
	mov	ecx, DWORD PTR __Left$[ebp]
	push	ecx
	mov	ecx, DWORD PTR __Pred$[ebp]
	call	??R?$less@H@std@@QBE_NABH0@Z		; std::less<int>::operator()
	mov	BYTE PTR __Result$[ebp], al

; 1111 : 	if (_Result)

	movzx	edx, BYTE PTR __Result$[ebp]
	test	edx, edx
	je	SHORT $LN8@Debug_lt_p
$LN4@Debug_lt_p:

; 1112 : 		{
; 1113 : 		_STL_VERIFY(!_Pred(_Right, _Left), "invalid comparator");

	mov	eax, DWORD PTR __Left$[ebp]
	push	eax
	mov	ecx, DWORD PTR __Right$[ebp]
	push	ecx
	mov	ecx, DWORD PTR __Pred$[ebp]
	call	??R?$less@H@std@@QBE_NABH0@Z		; std::less<int>::operator()
	movzx	edx, al
	test	edx, edx
	jne	SHORT $LN7@Debug_lt_p
	jmp	SHORT $LN2@Debug_lt_p
$LN7@Debug_lt_p:
	push	OFFSET ??_C@_0BD@FEEMDEPI@invalid?5comparator@
	push	OFFSET ??_C@_02DKCKIIND@?$CFs@
	push	0
	push	1113					; 00000459H
	push	OFFSET ??_C@_0GJ@DMCEMOMH@c?3?2program?5files?5?$CIx86?$CJ?2microsof@
	push	2
	call	__CrtDbgReport
	add	esp, 24					; 00000018H
	cmp	eax, 1
	jne	SHORT $LN12@Debug_lt_p
	int	3
$LN12@Debug_lt_p:
	push	0
	push	1113					; 00000459H
	push	OFFSET ??_C@_1NC@HPHBFJCM@?$AAc?$AA?3?$AA?2?$AAp?$AAr?$AAo?$AAg?$AAr?$AAa?$AAm?$AA?5?$AAf?$AAi?$AAl?$AAe@
	push	OFFSET ??_C@_1CI@JONCLBEJ@?$AAs?$AAt?$AAd?$AA?3?$AA?3?$AA_?$AAD?$AAe?$AAb?$AAu?$AAg?$AA_?$AAl?$AAt?$AA_@
	push	OFFSET ??_C@_1CK@NDNHPKPI@?$AA?$CC?$AAi?$AAn?$AAv?$AAa?$AAl?$AAi?$AAd?$AA?5?$AAc?$AAo?$AAm?$AAp?$AAa?$AAr@
	call	__invalid_parameter
	add	esp, 20					; 00000014H
	xor	ecx, ecx
	jne	SHORT $LN7@Debug_lt_p
$LN2@Debug_lt_p:
	xor	edx, edx
	jne	SHORT $LN4@Debug_lt_p
$LN8@Debug_lt_p:

; 1114 : 		}
; 1115 : 
; 1116 : 	return (_Result);

	mov	al, BYTE PTR __Result$[ebp]

; 1117 : 	}

	add	esp, 4
	cmp	ebp, esp
	call	__RTC_CheckEsp
	mov	esp, ebp
	pop	ebp
	ret	0
??$_Debug_lt_pred@ABU?$less@H@std@@ABHABH@std@@YA_NABU?$less@H@0@ABH1@Z ENDP ; std::_Debug_lt_pred<std::less<int> const &,int const &,int const &>
_TEXT	ENDS
; Function compile flags: /Odtp /RTCsu
; File c:\program files (x86)\microsoft visual studio\2017\community\vc\tools\msvc\14.15.26726\include\xmemory0
;	COMDAT ?pointer_to@?$pointer_traits@PBU?$pair@$$CBHPAVBaseGameEntity@@@std@@@std@@SAPBU?$pair@$$CBHPAVBaseGameEntity@@@2@ABU32@@Z
_TEXT	SEGMENT
__Val$ = 8						; size = 4
?pointer_to@?$pointer_traits@PBU?$pair@$$CBHPAVBaseGameEntity@@@std@@@std@@SAPBU?$pair@$$CBHPAVBaseGameEntity@@@2@ABU32@@Z PROC ; std::pointer_traits<std::pair<int const ,BaseGameEntity *> const *>::pointer_to, COMDAT

; 341  : 		{	// convert raw reference to pointer

	push	ebp
	mov	ebp, esp

; 342  : 		return (_STD addressof(_Val));

	mov	eax, DWORD PTR __Val$[ebp]
	push	eax
	call	??$addressof@$$CBU?$pair@$$CBHPAVBaseGameEntity@@@std@@@std@@YAPBU?$pair@$$CBHPAVBaseGameEntity@@@0@ABU10@@Z ; std::addressof<std::pair<int const ,BaseGameEntity *> const >
	add	esp, 4

; 343  : 		}

	cmp	ebp, esp
	call	__RTC_CheckEsp
	pop	ebp
	ret	0
?pointer_to@?$pointer_traits@PBU?$pair@$$CBHPAVBaseGameEntity@@@std@@@std@@SAPBU?$pair@$$CBHPAVBaseGameEntity@@@2@ABU32@@Z ENDP ; std::pointer_traits<std::pair<int const ,BaseGameEntity *> const *>::pointer_to
_TEXT	ENDS
; Function compile flags: /Odtp /RTCsu
;	COMDAT ??1?$pair@V?$_Tree_iterator@V?$_Tree_val@U?$_Tree_simple_types@U?$pair@$$CBHPAVBaseGameEntity@@@std@@@std@@@std@@@std@@_N@std@@QAE@XZ
_TEXT	SEGMENT
_this$ = -4						; size = 4
??1?$pair@V?$_Tree_iterator@V?$_Tree_val@U?$_Tree_simple_types@U?$pair@$$CBHPAVBaseGameEntity@@@std@@@std@@@std@@@std@@_N@std@@QAE@XZ PROC ; std::pair<std::_Tree_iterator<std::_Tree_val<std::_Tree_simple_types<std::pair<int const ,BaseGameEntity *> > > >,bool>::~pair<std::_Tree_iterator<std::_Tree_val<std::_Tree_simple_types<std::pair<int const ,BaseGameEntity *> > > >,bool>, COMDAT
; _this$ = ecx
	push	ebp
	mov	ebp, esp
	push	ecx
	mov	DWORD PTR [ebp-4], -858993460		; ccccccccH
	mov	DWORD PTR _this$[ebp], ecx
	mov	ecx, DWORD PTR _this$[ebp]
	call	??1?$_Tree_iterator@V?$_Tree_val@U?$_Tree_simple_types@U?$pair@$$CBHPAVBaseGameEntity@@@std@@@std@@@std@@@std@@QAE@XZ
	add	esp, 4
	cmp	ebp, esp
	call	__RTC_CheckEsp
	mov	esp, ebp
	pop	ebp
	ret	0
??1?$pair@V?$_Tree_iterator@V?$_Tree_val@U?$_Tree_simple_types@U?$pair@$$CBHPAVBaseGameEntity@@@std@@@std@@@std@@@std@@_N@std@@QAE@XZ ENDP ; std::pair<std::_Tree_iterator<std::_Tree_val<std::_Tree_simple_types<std::pair<int const ,BaseGameEntity *> > > >,bool>::~pair<std::_Tree_iterator<std::_Tree_val<std::_Tree_simple_types<std::pair<int const ,BaseGameEntity *> > > >,bool>
_TEXT	ENDS
; Function compile flags: /Odtp /RTCsu
; File c:\program files (x86)\microsoft visual studio\2017\community\vc\tools\msvc\14.15.26726\include\map
;	COMDAT ??$insert@U?$pair@HPAVBaseGameEntity@@@std@@X@?$map@HPAVBaseGameEntity@@U?$less@H@std@@V?$allocator@U?$pair@$$CBHPAVBaseGameEntity@@@std@@@3@@std@@QAE?AU?$pair@V?$_Tree_iterator@V?$_Tree_val@U?$_Tree_simple_types@U?$pair@$$CBHPAVBaseGameEntity@@@std@@@std@@@std@@@std@@_N@1@$$QAU?$pair@HPAVBaseGameEntity@@@1@@Z
_TEXT	SEGMENT
$T1 = -8						; size = 4
_this$ = -4						; size = 4
___$ReturnUdt$ = 8					; size = 4
__Val$ = 12						; size = 4
??$insert@U?$pair@HPAVBaseGameEntity@@@std@@X@?$map@HPAVBaseGameEntity@@U?$less@H@std@@V?$allocator@U?$pair@$$CBHPAVBaseGameEntity@@@std@@@3@@std@@QAE?AU?$pair@V?$_Tree_iterator@V?$_Tree_val@U?$_Tree_simple_types@U?$pair@$$CBHPAVBaseGameEntity@@@std@@@std@@@std@@@std@@_N@1@$$QAU?$pair@HPAVBaseGameEntity@@@1@@Z PROC ; std::map<int,BaseGameEntity *,std::less<int>,std::allocator<std::pair<int const ,BaseGameEntity *> > >::insert<std::pair<int,BaseGameEntity *>,void>, COMDAT
; _this$ = ecx

; 212  : 		{	// insert _Val

	push	ebp
	mov	ebp, esp
	sub	esp, 8
	mov	DWORD PTR [ebp-8], -858993460		; ccccccccH
	mov	DWORD PTR [ebp-4], -858993460		; ccccccccH
	mov	DWORD PTR _this$[ebp], ecx
	mov	DWORD PTR $T1[ebp], 0

; 213  : 		return (this->emplace(_STD forward<_Valty>(_Val)));

	mov	eax, DWORD PTR __Val$[ebp]
	push	eax
	call	??$forward@U?$pair@HPAVBaseGameEntity@@@std@@@std@@YA$$QAU?$pair@HPAVBaseGameEntity@@@0@AAU10@@Z ; std::forward<std::pair<int,BaseGameEntity *> >
	add	esp, 4
	push	eax
	mov	ecx, DWORD PTR ___$ReturnUdt$[ebp]
	push	ecx
	mov	ecx, DWORD PTR _this$[ebp]
	call	??$emplace@U?$pair@HPAVBaseGameEntity@@@std@@@?$_Tree@V?$_Tmap_traits@HPAVBaseGameEntity@@U?$less@H@std@@V?$allocator@U?$pair@$$CBHPAVBaseGameEntity@@@std@@@3@$0A@@std@@@std@@QAE?AU?$pair@V?$_Tree_iterator@V?$_Tree_val@U?$_Tree_simple_types@U?$pair@$$CBHPAVBaseGameEntity@@@std@@@std@@@std@@@std@@_N@1@$$QAU?$pair@HPAVBaseGameEntity@@@1@@Z ; std::_Tree<std::_Tmap_traits<int,BaseGameEntity *,std::less<int>,std::allocator<std::pair<int const ,BaseGameEntity *> >,0> >::emplace<std::pair<int,BaseGameEntity *> >
	mov	edx, DWORD PTR $T1[ebp]
	or	edx, 1
	mov	DWORD PTR $T1[ebp], edx
	mov	eax, DWORD PTR ___$ReturnUdt$[ebp]

; 214  : 		}

	add	esp, 8
	cmp	ebp, esp
	call	__RTC_CheckEsp
	mov	esp, ebp
	pop	ebp
	ret	8
??$insert@U?$pair@HPAVBaseGameEntity@@@std@@X@?$map@HPAVBaseGameEntity@@U?$less@H@std@@V?$allocator@U?$pair@$$CBHPAVBaseGameEntity@@@std@@@3@@std@@QAE?AU?$pair@V?$_Tree_iterator@V?$_Tree_val@U?$_Tree_simple_types@U?$pair@$$CBHPAVBaseGameEntity@@@std@@@std@@@std@@@std@@_N@1@$$QAU?$pair@HPAVBaseGameEntity@@@1@@Z ENDP ; std::map<int,BaseGameEntity *,std::less<int>,std::allocator<std::pair<int const ,BaseGameEntity *> > >::insert<std::pair<int,BaseGameEntity *>,void>
_TEXT	ENDS
; Function compile flags: /Odtp /RTCsu
; File c:\program files (x86)\microsoft visual studio\2017\community\vc\tools\msvc\14.15.26726\include\utility
;	COMDAT ??$?0HPAVBaseGameEntity@@$0A@@?$pair@$$CBHPAVBaseGameEntity@@@std@@QAE@$$QAU?$pair@HPAVBaseGameEntity@@@1@@Z
_TEXT	SEGMENT
_this$ = -4						; size = 4
__Right$ = 8						; size = 4
??$?0HPAVBaseGameEntity@@$0A@@?$pair@$$CBHPAVBaseGameEntity@@@std@@QAE@$$QAU?$pair@HPAVBaseGameEntity@@@1@@Z PROC ; std::pair<int const ,BaseGameEntity *>::pair<int const ,BaseGameEntity *><int,BaseGameEntity *,0>, COMDAT
; _this$ = ecx

; 241  : 		{

	push	ebp
	mov	ebp, esp
	push	ecx
	mov	DWORD PTR [ebp-4], -858993460		; ccccccccH
	mov	DWORD PTR _this$[ebp], ecx

; 239  : 		: first(_STD forward<_Other1>(_Right.first)),

	mov	eax, DWORD PTR __Right$[ebp]
	push	eax
	call	??$forward@H@std@@YA$$QAHAAH@Z		; std::forward<int>
	add	esp, 4
	mov	ecx, DWORD PTR _this$[ebp]
	mov	edx, DWORD PTR [eax]
	mov	DWORD PTR [ecx], edx

; 240  : 			second(_STD forward<_Other2>(_Right.second))

	mov	eax, DWORD PTR __Right$[ebp]
	add	eax, 4
	push	eax
	call	??$forward@PAVBaseGameEntity@@@std@@YA$$QAPAVBaseGameEntity@@AAPAV1@@Z ; std::forward<BaseGameEntity *>
	add	esp, 4
	mov	ecx, DWORD PTR _this$[ebp]
	mov	edx, DWORD PTR [eax]
	mov	DWORD PTR [ecx+4], edx

; 242  : 		}

	mov	eax, DWORD PTR _this$[ebp]
	add	esp, 4
	cmp	ebp, esp
	call	__RTC_CheckEsp
	mov	esp, ebp
	pop	ebp
	ret	4
??$?0HPAVBaseGameEntity@@$0A@@?$pair@$$CBHPAVBaseGameEntity@@@std@@QAE@$$QAU?$pair@HPAVBaseGameEntity@@@1@@Z ENDP ; std::pair<int const ,BaseGameEntity *>::pair<int const ,BaseGameEntity *><int,BaseGameEntity *,0>
_TEXT	ENDS
; Function compile flags: /Odtp /RTCsu
; File c:\program files (x86)\microsoft visual studio\2017\community\vc\tools\msvc\14.15.26726\include\utility
;	COMDAT ??$make_pair@HAAPAVBaseGameEntity@@@std@@YA?AU?$pair@HPAVBaseGameEntity@@@0@$$QAHAAPAVBaseGameEntity@@@Z
_TEXT	SEGMENT
___$ReturnUdt$ = 8					; size = 4
__Val1$ = 12						; size = 4
__Val2$ = 16						; size = 4
??$make_pair@HAAPAVBaseGameEntity@@@std@@YA?AU?$pair@HPAVBaseGameEntity@@@0@$$QAHAAPAVBaseGameEntity@@@Z PROC ; std::make_pair<int,BaseGameEntity * &>, COMDAT

; 403  : 	{	// return pair composed from arguments

	push	ebp
	mov	ebp, esp

; 404  : 	using _Mypair = pair<_Unrefwrap_t<_Ty1>, _Unrefwrap_t<_Ty2>>;
; 405  : 	return (_Mypair(_STD forward<_Ty1>(_Val1), _STD forward<_Ty2>(_Val2)));

	mov	eax, DWORD PTR __Val2$[ebp]
	push	eax
	call	??$forward@AAPAVBaseGameEntity@@@std@@YAAAPAVBaseGameEntity@@AAPAV1@@Z ; std::forward<BaseGameEntity * &>
	add	esp, 4
	push	eax
	mov	ecx, DWORD PTR __Val1$[ebp]
	push	ecx
	call	??$forward@H@std@@YA$$QAHAAH@Z		; std::forward<int>
	add	esp, 4
	push	eax
	mov	ecx, DWORD PTR ___$ReturnUdt$[ebp]
	call	??$?0HAAPAVBaseGameEntity@@$0A@@?$pair@HPAVBaseGameEntity@@@std@@QAE@$$QAHAAPAVBaseGameEntity@@@Z ; std::pair<int,BaseGameEntity *>::pair<int,BaseGameEntity *><int,BaseGameEntity * &,0>
	mov	eax, DWORD PTR ___$ReturnUdt$[ebp]

; 406  : 	}

	cmp	ebp, esp
	call	__RTC_CheckEsp
	pop	ebp
	ret	0
??$make_pair@HAAPAVBaseGameEntity@@@std@@YA?AU?$pair@HPAVBaseGameEntity@@@0@$$QAHAAPAVBaseGameEntity@@@Z ENDP ; std::make_pair<int,BaseGameEntity * &>
_TEXT	ENDS
; Function compile flags: /Odtp /RTCsu
; File c:\program files (x86)\microsoft visual studio\2017\community\vc\tools\msvc\14.15.26726\include\xtree
;	COMDAT ??$erase@V?$_Tree_iterator@V?$_Tree_val@U?$_Tree_simple_types@U?$pair@$$CBHPAVBaseGameEntity@@@std@@@std@@@std@@@std@@X@?$_Tree@V?$_Tmap_traits@HPAVBaseGameEntity@@U?$less@H@std@@V?$allocator@U?$pair@$$CBHPAVBaseGameEntity@@@std@@@3@$0A@@std@@@std@@QAE?AV?$_Tree_iterator@V?$_Tree_val@U?$_Tree_simple_types@U?$pair@$$CBHPAVBaseGameEntity@@@std@@@std@@@std@@@1@V21@@Z
_TEXT	SEGMENT
tv90 = -28						; size = 4
$T2 = -24						; size = 4
$T3 = -20						; size = 4
_this$ = -16						; size = 4
__$EHRec$ = -12						; size = 12
___$ReturnUdt$ = 8					; size = 4
__Where$ = 12						; size = 12
??$erase@V?$_Tree_iterator@V?$_Tree_val@U?$_Tree_simple_types@U?$pair@$$CBHPAVBaseGameEntity@@@std@@@std@@@std@@@std@@X@?$_Tree@V?$_Tmap_traits@HPAVBaseGameEntity@@U?$less@H@std@@V?$allocator@U?$pair@$$CBHPAVBaseGameEntity@@@std@@@3@$0A@@std@@@std@@QAE?AV?$_Tree_iterator@V?$_Tree_val@U?$_Tree_simple_types@U?$pair@$$CBHPAVBaseGameEntity@@@std@@@std@@@std@@@1@V21@@Z PROC ; std::_Tree<std::_Tmap_traits<int,BaseGameEntity *,std::less<int>,std::allocator<std::pair<int const ,BaseGameEntity *> >,0> >::erase<std::_Tree_iterator<std::_Tree_val<std::_Tree_simple_types<std::pair<int const ,BaseGameEntity *> > > >,void>, COMDAT
; _this$ = ecx

; 1357 : 		{	// erase element at _Where

	push	ebp
	mov	ebp, esp
	push	-1
	push	__ehhandler$??$erase@V?$_Tree_iterator@V?$_Tree_val@U?$_Tree_simple_types@U?$pair@$$CBHPAVBaseGameEntity@@@std@@@std@@@std@@@std@@X@?$_Tree@V?$_Tmap_traits@HPAVBaseGameEntity@@U?$less@H@std@@V?$allocator@U?$pair@$$CBHPAVBaseGameEntity@@@std@@@3@$0A@@std@@@std@@QAE?AV?$_Tree_iterator@V?$_Tree_val@U?$_Tree_simple_types@U?$pair@$$CBHPAVBaseGameEntity@@@std@@@std@@@std@@@1@V21@@Z
	mov	eax, DWORD PTR fs:0
	push	eax
	sub	esp, 16					; 00000010H
	mov	eax, -858993460				; ccccccccH
	mov	DWORD PTR [ebp-28], eax
	mov	DWORD PTR [ebp-24], eax
	mov	DWORD PTR [ebp-20], eax
	mov	DWORD PTR [ebp-16], eax
	mov	eax, DWORD PTR ___security_cookie
	xor	eax, ebp
	push	eax
	lea	eax, DWORD PTR __$EHRec$[ebp]
	mov	DWORD PTR fs:0, eax
	mov	DWORD PTR _this$[ebp], ecx
	mov	DWORD PTR $T2[ebp], 0
	mov	DWORD PTR __$EHRec$[ebp+8], 0

; 1358 : 		return (erase(const_iterator{_Where}));

	sub	esp, 12					; 0000000cH
	mov	ecx, esp
	mov	DWORD PTR $T3[ebp], esp
	lea	eax, DWORD PTR __Where$[ebp]
	push	eax
	call	??0?$_Tree_const_iterator@V?$_Tree_val@U?$_Tree_simple_types@U?$pair@$$CBHPAVBaseGameEntity@@@std@@@std@@@std@@@std@@QAE@ABV01@@Z
	mov	ecx, DWORD PTR ___$ReturnUdt$[ebp]
	push	ecx
	mov	ecx, DWORD PTR _this$[ebp]
	call	?erase@?$_Tree@V?$_Tmap_traits@HPAVBaseGameEntity@@U?$less@H@std@@V?$allocator@U?$pair@$$CBHPAVBaseGameEntity@@@std@@@3@$0A@@std@@@std@@QAE?AV?$_Tree_iterator@V?$_Tree_val@U?$_Tree_simple_types@U?$pair@$$CBHPAVBaseGameEntity@@@std@@@std@@@std@@@2@V?$_Tree_const_iterator@V?$_Tree_val@U?$_Tree_simple_types@U?$pair@$$CBHPAVBaseGameEntity@@@std@@@std@@@std@@@2@@Z ; std::_Tree<std::_Tmap_traits<int,BaseGameEntity *,std::less<int>,std::allocator<std::pair<int const ,BaseGameEntity *> >,0> >::erase
	mov	DWORD PTR tv90[ebp], eax
	mov	edx, DWORD PTR $T2[ebp]
	or	edx, 1
	mov	DWORD PTR $T2[ebp], edx
	mov	DWORD PTR __$EHRec$[ebp+8], -1
	lea	ecx, DWORD PTR __Where$[ebp]
	call	??1?$_Tree_iterator@V?$_Tree_val@U?$_Tree_simple_types@U?$pair@$$CBHPAVBaseGameEntity@@@std@@@std@@@std@@@std@@QAE@XZ
	mov	eax, DWORD PTR ___$ReturnUdt$[ebp]

; 1359 : 		}

	mov	ecx, DWORD PTR __$EHRec$[ebp]
	mov	DWORD PTR fs:0, ecx
	pop	ecx
	add	esp, 28					; 0000001cH
	cmp	ebp, esp
	call	__RTC_CheckEsp
	mov	esp, ebp
	pop	ebp
	ret	16					; 00000010H
_TEXT	ENDS
;	COMDAT text$x
text$x	SEGMENT
__unwindfunclet$??$erase@V?$_Tree_iterator@V?$_Tree_val@U?$_Tree_simple_types@U?$pair@$$CBHPAVBaseGameEntity@@@std@@@std@@@std@@@std@@X@?$_Tree@V?$_Tmap_traits@HPAVBaseGameEntity@@U?$less@H@std@@V?$allocator@U?$pair@$$CBHPAVBaseGameEntity@@@std@@@3@$0A@@std@@@std@@QAE?AV?$_Tree_iterator@V?$_Tree_val@U?$_Tree_simple_types@U?$pair@$$CBHPAVBaseGameEntity@@@std@@@std@@@std@@@1@V21@@Z$0:
	lea	ecx, DWORD PTR __Where$[ebp]
	jmp	??1?$_Tree_iterator@V?$_Tree_val@U?$_Tree_simple_types@U?$pair@$$CBHPAVBaseGameEntity@@@std@@@std@@@std@@@std@@QAE@XZ
__ehhandler$??$erase@V?$_Tree_iterator@V?$_Tree_val@U?$_Tree_simple_types@U?$pair@$$CBHPAVBaseGameEntity@@@std@@@std@@@std@@@std@@X@?$_Tree@V?$_Tmap_traits@HPAVBaseGameEntity@@U?$less@H@std@@V?$allocator@U?$pair@$$CBHPAVBaseGameEntity@@@std@@@3@$0A@@std@@@std@@QAE?AV?$_Tree_iterator@V?$_Tree_val@U?$_Tree_simple_types@U?$pair@$$CBHPAVBaseGameEntity@@@std@@@std@@@std@@@1@V21@@Z:
	mov	edx, DWORD PTR [esp+8]
	lea	eax, DWORD PTR [edx+12]
	mov	ecx, DWORD PTR [edx-20]
	xor	ecx, eax
	call	@__security_check_cookie@4
	mov	eax, OFFSET __ehfuncinfo$??$erase@V?$_Tree_iterator@V?$_Tree_val@U?$_Tree_simple_types@U?$pair@$$CBHPAVBaseGameEntity@@@std@@@std@@@std@@@std@@X@?$_Tree@V?$_Tmap_traits@HPAVBaseGameEntity@@U?$less@H@std@@V?$allocator@U?$pair@$$CBHPAVBaseGameEntity@@@std@@@3@$0A@@std@@@std@@QAE?AV?$_Tree_iterator@V?$_Tree_val@U?$_Tree_simple_types@U?$pair@$$CBHPAVBaseGameEntity@@@std@@@std@@@std@@@1@V21@@Z
	jmp	___CxxFrameHandler3
text$x	ENDS
??$erase@V?$_Tree_iterator@V?$_Tree_val@U?$_Tree_simple_types@U?$pair@$$CBHPAVBaseGameEntity@@@std@@@std@@@std@@@std@@X@?$_Tree@V?$_Tmap_traits@HPAVBaseGameEntity@@U?$less@H@std@@V?$allocator@U?$pair@$$CBHPAVBaseGameEntity@@@std@@@3@$0A@@std@@@std@@QAE?AV?$_Tree_iterator@V?$_Tree_val@U?$_Tree_simple_types@U?$pair@$$CBHPAVBaseGameEntity@@@std@@@std@@@std@@@1@V21@@Z ENDP ; std::_Tree<std::_Tmap_traits<int,BaseGameEntity *,std::less<int>,std::allocator<std::pair<int const ,BaseGameEntity *> >,0> >::erase<std::_Tree_iterator<std::_Tree_val<std::_Tree_simple_types<std::pair<int const ,BaseGameEntity *> > > >,void>
; Function compile flags: /Odtp /RTCsu
;	COMDAT ??0?$_Tree_iterator@V?$_Tree_val@U?$_Tree_simple_types@U?$pair@$$CBHPAVBaseGameEntity@@@std@@@std@@@std@@@std@@QAE@$$QAV01@@Z
_TEXT	SEGMENT
_this$ = -4						; size = 4
___that$ = 8						; size = 4
??0?$_Tree_iterator@V?$_Tree_val@U?$_Tree_simple_types@U?$pair@$$CBHPAVBaseGameEntity@@@std@@@std@@@std@@@std@@QAE@$$QAV01@@Z PROC ; std::_Tree_iterator<std::_Tree_val<std::_Tree_simple_types<std::pair<int const ,BaseGameEntity *> > > >::_Tree_iterator<std::_Tree_val<std::_Tree_simple_types<std::pair<int const ,BaseGameEntity *> > > >, COMDAT
; _this$ = ecx
	push	ebp
	mov	ebp, esp
	push	ecx
	mov	DWORD PTR [ebp-4], -858993460		; ccccccccH
	mov	DWORD PTR _this$[ebp], ecx
	mov	eax, DWORD PTR ___that$[ebp]
	push	eax
	mov	ecx, DWORD PTR _this$[ebp]
	call	??0?$_Tree_const_iterator@V?$_Tree_val@U?$_Tree_simple_types@U?$pair@$$CBHPAVBaseGameEntity@@@std@@@std@@@std@@@std@@QAE@$$QAV01@@Z
	mov	eax, DWORD PTR _this$[ebp]
	add	esp, 4
	cmp	ebp, esp
	call	__RTC_CheckEsp
	mov	esp, ebp
	pop	ebp
	ret	4
??0?$_Tree_iterator@V?$_Tree_val@U?$_Tree_simple_types@U?$pair@$$CBHPAVBaseGameEntity@@@std@@@std@@@std@@@std@@QAE@$$QAV01@@Z ENDP ; std::_Tree_iterator<std::_Tree_val<std::_Tree_simple_types<std::pair<int const ,BaseGameEntity *> > > >::_Tree_iterator<std::_Tree_val<std::_Tree_simple_types<std::pair<int const ,BaseGameEntity *> > > >
_TEXT	ENDS
; Function compile flags: /Odtp /RTCsu
;	COMDAT ??0?$_Tree_iterator@V?$_Tree_val@U?$_Tree_simple_types@U?$pair@$$CBHPAVBaseGameEntity@@@std@@@std@@@std@@@std@@QAE@ABV01@@Z
_TEXT	SEGMENT
_this$ = -4						; size = 4
___that$ = 8						; size = 4
??0?$_Tree_iterator@V?$_Tree_val@U?$_Tree_simple_types@U?$pair@$$CBHPAVBaseGameEntity@@@std@@@std@@@std@@@std@@QAE@ABV01@@Z PROC ; std::_Tree_iterator<std::_Tree_val<std::_Tree_simple_types<std::pair<int const ,BaseGameEntity *> > > >::_Tree_iterator<std::_Tree_val<std::_Tree_simple_types<std::pair<int const ,BaseGameEntity *> > > >, COMDAT
; _this$ = ecx
	push	ebp
	mov	ebp, esp
	push	ecx
	mov	DWORD PTR [ebp-4], -858993460		; ccccccccH
	mov	DWORD PTR _this$[ebp], ecx
	mov	eax, DWORD PTR ___that$[ebp]
	push	eax
	mov	ecx, DWORD PTR _this$[ebp]
	call	??0?$_Tree_const_iterator@V?$_Tree_val@U?$_Tree_simple_types@U?$pair@$$CBHPAVBaseGameEntity@@@std@@@std@@@std@@@std@@QAE@ABV01@@Z
	mov	eax, DWORD PTR _this$[ebp]
	add	esp, 4
	cmp	ebp, esp
	call	__RTC_CheckEsp
	mov	esp, ebp
	pop	ebp
	ret	4
??0?$_Tree_iterator@V?$_Tree_val@U?$_Tree_simple_types@U?$pair@$$CBHPAVBaseGameEntity@@@std@@@std@@@std@@@std@@QAE@ABV01@@Z ENDP ; std::_Tree_iterator<std::_Tree_val<std::_Tree_simple_types<std::pair<int const ,BaseGameEntity *> > > >::_Tree_iterator<std::_Tree_val<std::_Tree_simple_types<std::pair<int const ,BaseGameEntity *> > > >
_TEXT	ENDS
; Function compile flags: /Odtp /RTCsu
;	COMDAT ??1?$_Tree_iterator@V?$_Tree_val@U?$_Tree_simple_types@U?$pair@$$CBHPAVBaseGameEntity@@@std@@@std@@@std@@@std@@QAE@XZ
_TEXT	SEGMENT
_this$ = -4						; size = 4
??1?$_Tree_iterator@V?$_Tree_val@U?$_Tree_simple_types@U?$pair@$$CBHPAVBaseGameEntity@@@std@@@std@@@std@@@std@@QAE@XZ PROC ; std::_Tree_iterator<std::_Tree_val<std::_Tree_simple_types<std::pair<int const ,BaseGameEntity *> > > >::~_Tree_iterator<std::_Tree_val<std::_Tree_simple_types<std::pair<int const ,BaseGameEntity *> > > >, COMDAT
; _this$ = ecx
	push	ebp
	mov	ebp, esp
	push	ecx
	mov	DWORD PTR [ebp-4], -858993460		; ccccccccH
	mov	DWORD PTR _this$[ebp], ecx
	mov	ecx, DWORD PTR _this$[ebp]
	call	??1?$_Tree_const_iterator@V?$_Tree_val@U?$_Tree_simple_types@U?$pair@$$CBHPAVBaseGameEntity@@@std@@@std@@@std@@@std@@QAE@XZ
	add	esp, 4
	cmp	ebp, esp
	call	__RTC_CheckEsp
	mov	esp, ebp
	pop	ebp
	ret	0
??1?$_Tree_iterator@V?$_Tree_val@U?$_Tree_simple_types@U?$pair@$$CBHPAVBaseGameEntity@@@std@@@std@@@std@@@std@@QAE@XZ ENDP ; std::_Tree_iterator<std::_Tree_val<std::_Tree_simple_types<std::pair<int const ,BaseGameEntity *> > > >::~_Tree_iterator<std::_Tree_val<std::_Tree_simple_types<std::pair<int const ,BaseGameEntity *> > > >
_TEXT	ENDS
; Function compile flags: /Odtp /RTCsu
; File c:\program files (x86)\microsoft visual studio\2017\community\vc\tools\msvc\14.15.26726\include\xtree
;	COMDAT ??F?$_Tree_iterator@V?$_Tree_val@U?$_Tree_simple_types@U?$pair@$$CBHPAVBaseGameEntity@@@std@@@std@@@std@@@std@@QAEAAV01@XZ
_TEXT	SEGMENT
_this$ = -4						; size = 4
??F?$_Tree_iterator@V?$_Tree_val@U?$_Tree_simple_types@U?$pair@$$CBHPAVBaseGameEntity@@@std@@@std@@@std@@@std@@QAEAAV01@XZ PROC ; std::_Tree_iterator<std::_Tree_val<std::_Tree_simple_types<std::pair<int const ,BaseGameEntity *> > > >::operator--, COMDAT
; _this$ = ecx

; 354  : 		{	// predecrement

	push	ebp
	mov	ebp, esp
	push	ecx
	mov	DWORD PTR [ebp-4], -858993460		; ccccccccH
	mov	DWORD PTR _this$[ebp], ecx

; 355  : 		--static_cast<_Mybase&>(*this);

	mov	ecx, DWORD PTR _this$[ebp]
	call	??F?$_Tree_const_iterator@V?$_Tree_val@U?$_Tree_simple_types@U?$pair@$$CBHPAVBaseGameEntity@@@std@@@std@@@std@@@std@@QAEAAV01@XZ ; std::_Tree_const_iterator<std::_Tree_val<std::_Tree_simple_types<std::pair<int const ,BaseGameEntity *> > > >::operator--

; 356  : 		return (*this);

	mov	eax, DWORD PTR _this$[ebp]

; 357  : 		}

	add	esp, 4
	cmp	ebp, esp
	call	__RTC_CheckEsp
	mov	esp, ebp
	pop	ebp
	ret	0
??F?$_Tree_iterator@V?$_Tree_val@U?$_Tree_simple_types@U?$pair@$$CBHPAVBaseGameEntity@@@std@@@std@@@std@@@std@@QAEAAV01@XZ ENDP ; std::_Tree_iterator<std::_Tree_val<std::_Tree_simple_types<std::pair<int const ,BaseGameEntity *> > > >::operator--
_TEXT	ENDS
; Function compile flags: /Odtp /RTCsu
; File c:\program files (x86)\microsoft visual studio\2017\community\vc\tools\msvc\14.15.26726\include\xtree
;	COMDAT ??0?$_Tree_iterator@V?$_Tree_val@U?$_Tree_simple_types@U?$pair@$$CBHPAVBaseGameEntity@@@std@@@std@@@std@@@std@@QAE@PAU?$_Tree_node@U?$pair@$$CBHPAVBaseGameEntity@@@std@@PAX@1@PBV?$_Tree_val@U?$_Tree_simple_types@U?$pair@$$CBHPAVBaseGameEntity@@@std@@@std@@@1@@Z
_TEXT	SEGMENT
_this$ = -4						; size = 4
__Pnode$ = 8						; size = 4
__Plist$ = 12						; size = 4
??0?$_Tree_iterator@V?$_Tree_val@U?$_Tree_simple_types@U?$pair@$$CBHPAVBaseGameEntity@@@std@@@std@@@std@@@std@@QAE@PAU?$_Tree_node@U?$pair@$$CBHPAVBaseGameEntity@@@std@@PAX@1@PBV?$_Tree_val@U?$_Tree_simple_types@U?$pair@$$CBHPAVBaseGameEntity@@@std@@@std@@@1@@Z PROC ; std::_Tree_iterator<std::_Tree_val<std::_Tree_simple_types<std::pair<int const ,BaseGameEntity *> > > >::_Tree_iterator<std::_Tree_val<std::_Tree_simple_types<std::pair<int const ,BaseGameEntity *> > > >, COMDAT
; _this$ = ecx

; 327  : 		{	// construct with node pointer _Pnode

	push	ebp
	mov	ebp, esp
	push	ecx
	mov	DWORD PTR [ebp-4], -858993460		; ccccccccH
	mov	DWORD PTR _this$[ebp], ecx

; 326  : 		: _Mybase(_Pnode, _Plist)

	mov	eax, DWORD PTR __Plist$[ebp]
	push	eax
	mov	ecx, DWORD PTR __Pnode$[ebp]
	push	ecx
	mov	ecx, DWORD PTR _this$[ebp]
	call	??0?$_Tree_const_iterator@V?$_Tree_val@U?$_Tree_simple_types@U?$pair@$$CBHPAVBaseGameEntity@@@std@@@std@@@std@@@std@@QAE@PAU?$_Tree_node@U?$pair@$$CBHPAVBaseGameEntity@@@std@@PAX@1@PBV?$_Tree_val@U?$_Tree_simple_types@U?$pair@$$CBHPAVBaseGameEntity@@@std@@@std@@@1@@Z ; std::_Tree_const_iterator<std::_Tree_val<std::_Tree_simple_types<std::pair<int const ,BaseGameEntity *> > > >::_Tree_const_iterator<std::_Tree_val<std::_Tree_simple_types<std::pair<int const ,BaseGameEntity *> > > >

; 328  : 		}

	mov	eax, DWORD PTR _this$[ebp]
	add	esp, 4
	cmp	ebp, esp
	call	__RTC_CheckEsp
	mov	esp, ebp
	pop	ebp
	ret	8
??0?$_Tree_iterator@V?$_Tree_val@U?$_Tree_simple_types@U?$pair@$$CBHPAVBaseGameEntity@@@std@@@std@@@std@@@std@@QAE@PAU?$_Tree_node@U?$pair@$$CBHPAVBaseGameEntity@@@std@@PAX@1@PBV?$_Tree_val@U?$_Tree_simple_types@U?$pair@$$CBHPAVBaseGameEntity@@@std@@@std@@@1@@Z ENDP ; std::_Tree_iterator<std::_Tree_val<std::_Tree_simple_types<std::pair<int const ,BaseGameEntity *> > > >::_Tree_iterator<std::_Tree_val<std::_Tree_simple_types<std::pair<int const ,BaseGameEntity *> > > >
_TEXT	ENDS
; Function compile flags: /Odtp /RTCsu
;	COMDAT ??0?$_Tree_const_iterator@V?$_Tree_val@U?$_Tree_simple_types@U?$pair@$$CBHPAVBaseGameEntity@@@std@@@std@@@std@@@std@@QAE@$$QAV01@@Z
_TEXT	SEGMENT
_this$ = -4						; size = 4
___that$ = 8						; size = 4
??0?$_Tree_const_iterator@V?$_Tree_val@U?$_Tree_simple_types@U?$pair@$$CBHPAVBaseGameEntity@@@std@@@std@@@std@@@std@@QAE@$$QAV01@@Z PROC ; std::_Tree_const_iterator<std::_Tree_val<std::_Tree_simple_types<std::pair<int const ,BaseGameEntity *> > > >::_Tree_const_iterator<std::_Tree_val<std::_Tree_simple_types<std::pair<int const ,BaseGameEntity *> > > >, COMDAT
; _this$ = ecx
	push	ebp
	mov	ebp, esp
	push	ecx
	mov	DWORD PTR [ebp-4], -858993460		; ccccccccH
	mov	DWORD PTR _this$[ebp], ecx
	mov	eax, DWORD PTR ___that$[ebp]
	push	eax
	mov	ecx, DWORD PTR _this$[ebp]
	call	??0?$_Tree_unchecked_const_iterator@V?$_Tree_val@U?$_Tree_simple_types@U?$pair@$$CBHPAVBaseGameEntity@@@std@@@std@@@std@@U_Iterator_base12@2@@std@@QAE@$$QAV01@@Z
	mov	eax, DWORD PTR _this$[ebp]
	add	esp, 4
	cmp	ebp, esp
	call	__RTC_CheckEsp
	mov	esp, ebp
	pop	ebp
	ret	4
??0?$_Tree_const_iterator@V?$_Tree_val@U?$_Tree_simple_types@U?$pair@$$CBHPAVBaseGameEntity@@@std@@@std@@@std@@@std@@QAE@$$QAV01@@Z ENDP ; std::_Tree_const_iterator<std::_Tree_val<std::_Tree_simple_types<std::pair<int const ,BaseGameEntity *> > > >::_Tree_const_iterator<std::_Tree_val<std::_Tree_simple_types<std::pair<int const ,BaseGameEntity *> > > >
_TEXT	ENDS
; Function compile flags: /Odtp /RTCsu
;	COMDAT ??0?$_Tree_const_iterator@V?$_Tree_val@U?$_Tree_simple_types@U?$pair@$$CBHPAVBaseGameEntity@@@std@@@std@@@std@@@std@@QAE@ABV01@@Z
_TEXT	SEGMENT
_this$ = -4						; size = 4
___that$ = 8						; size = 4
??0?$_Tree_const_iterator@V?$_Tree_val@U?$_Tree_simple_types@U?$pair@$$CBHPAVBaseGameEntity@@@std@@@std@@@std@@@std@@QAE@ABV01@@Z PROC ; std::_Tree_const_iterator<std::_Tree_val<std::_Tree_simple_types<std::pair<int const ,BaseGameEntity *> > > >::_Tree_const_iterator<std::_Tree_val<std::_Tree_simple_types<std::pair<int const ,BaseGameEntity *> > > >, COMDAT
; _this$ = ecx
	push	ebp
	mov	ebp, esp
	push	ecx
	mov	DWORD PTR [ebp-4], -858993460		; ccccccccH
	mov	DWORD PTR _this$[ebp], ecx
	mov	eax, DWORD PTR ___that$[ebp]
	push	eax
	mov	ecx, DWORD PTR _this$[ebp]
	call	??0?$_Tree_unchecked_const_iterator@V?$_Tree_val@U?$_Tree_simple_types@U?$pair@$$CBHPAVBaseGameEntity@@@std@@@std@@@std@@U_Iterator_base12@2@@std@@QAE@ABV01@@Z
	mov	eax, DWORD PTR _this$[ebp]
	add	esp, 4
	cmp	ebp, esp
	call	__RTC_CheckEsp
	mov	esp, ebp
	pop	ebp
	ret	4
??0?$_Tree_const_iterator@V?$_Tree_val@U?$_Tree_simple_types@U?$pair@$$CBHPAVBaseGameEntity@@@std@@@std@@@std@@@std@@QAE@ABV01@@Z ENDP ; std::_Tree_const_iterator<std::_Tree_val<std::_Tree_simple_types<std::pair<int const ,BaseGameEntity *> > > >::_Tree_const_iterator<std::_Tree_val<std::_Tree_simple_types<std::pair<int const ,BaseGameEntity *> > > >
_TEXT	ENDS
; Function compile flags: /Odtp /RTCsu
;	COMDAT ??1?$_Tree_const_iterator@V?$_Tree_val@U?$_Tree_simple_types@U?$pair@$$CBHPAVBaseGameEntity@@@std@@@std@@@std@@@std@@QAE@XZ
_TEXT	SEGMENT
_this$ = -4						; size = 4
??1?$_Tree_const_iterator@V?$_Tree_val@U?$_Tree_simple_types@U?$pair@$$CBHPAVBaseGameEntity@@@std@@@std@@@std@@@std@@QAE@XZ PROC ; std::_Tree_const_iterator<std::_Tree_val<std::_Tree_simple_types<std::pair<int const ,BaseGameEntity *> > > >::~_Tree_const_iterator<std::_Tree_val<std::_Tree_simple_types<std::pair<int const ,BaseGameEntity *> > > >, COMDAT
; _this$ = ecx
	push	ebp
	mov	ebp, esp
	push	ecx
	mov	DWORD PTR [ebp-4], -858993460		; ccccccccH
	mov	DWORD PTR _this$[ebp], ecx
	mov	ecx, DWORD PTR _this$[ebp]
	call	??1?$_Tree_unchecked_const_iterator@V?$_Tree_val@U?$_Tree_simple_types@U?$pair@$$CBHPAVBaseGameEntity@@@std@@@std@@@std@@U_Iterator_base12@2@@std@@QAE@XZ
	add	esp, 4
	cmp	ebp, esp
	call	__RTC_CheckEsp
	mov	esp, ebp
	pop	ebp
	ret	0
??1?$_Tree_const_iterator@V?$_Tree_val@U?$_Tree_simple_types@U?$pair@$$CBHPAVBaseGameEntity@@@std@@@std@@@std@@@std@@QAE@XZ ENDP ; std::_Tree_const_iterator<std::_Tree_val<std::_Tree_simple_types<std::pair<int const ,BaseGameEntity *> > > >::~_Tree_const_iterator<std::_Tree_val<std::_Tree_simple_types<std::pair<int const ,BaseGameEntity *> > > >
_TEXT	ENDS
; Function compile flags: /Odtp /RTCsu
; File c:\program files (x86)\microsoft visual studio\2017\community\vc\tools\msvc\14.15.26726\include\xtree
;	COMDAT ??9?$_Tree_const_iterator@V?$_Tree_val@U?$_Tree_simple_types@U?$pair@$$CBHPAVBaseGameEntity@@@std@@@std@@@std@@@std@@QBE_NABV01@@Z
_TEXT	SEGMENT
tv69 = -8						; size = 4
_this$ = -4						; size = 4
__Right$ = 8						; size = 4
??9?$_Tree_const_iterator@V?$_Tree_val@U?$_Tree_simple_types@U?$pair@$$CBHPAVBaseGameEntity@@@std@@@std@@@std@@@std@@QBE_NABV01@@Z PROC ; std::_Tree_const_iterator<std::_Tree_val<std::_Tree_simple_types<std::pair<int const ,BaseGameEntity *> > > >::operator!=, COMDAT
; _this$ = ecx

; 282  : 		{	// test for iterator inequality

	push	ebp
	mov	ebp, esp
	sub	esp, 8
	mov	DWORD PTR [ebp-8], -858993460		; ccccccccH
	mov	DWORD PTR [ebp-4], -858993460		; ccccccccH
	mov	DWORD PTR _this$[ebp], ecx

; 283  : 		return (!(*this == _Right));

	mov	eax, DWORD PTR __Right$[ebp]
	push	eax
	mov	ecx, DWORD PTR _this$[ebp]
	call	??8?$_Tree_const_iterator@V?$_Tree_val@U?$_Tree_simple_types@U?$pair@$$CBHPAVBaseGameEntity@@@std@@@std@@@std@@@std@@QBE_NABV01@@Z ; std::_Tree_const_iterator<std::_Tree_val<std::_Tree_simple_types<std::pair<int const ,BaseGameEntity *> > > >::operator==
	movzx	ecx, al
	test	ecx, ecx
	jne	SHORT $LN3@operator
	mov	DWORD PTR tv69[ebp], 1
	jmp	SHORT $LN4@operator
$LN3@operator:
	mov	DWORD PTR tv69[ebp], 0
$LN4@operator:
	mov	al, BYTE PTR tv69[ebp]

; 284  : 		}

	add	esp, 8
	cmp	ebp, esp
	call	__RTC_CheckEsp
	mov	esp, ebp
	pop	ebp
	ret	4
??9?$_Tree_const_iterator@V?$_Tree_val@U?$_Tree_simple_types@U?$pair@$$CBHPAVBaseGameEntity@@@std@@@std@@@std@@@std@@QBE_NABV01@@Z ENDP ; std::_Tree_const_iterator<std::_Tree_val<std::_Tree_simple_types<std::pair<int const ,BaseGameEntity *> > > >::operator!=
_TEXT	ENDS
; Function compile flags: /Odtp /RTCsu
; File c:\program files (x86)\microsoft visual studio\2017\community\vc\tools\msvc\14.15.26726\include\xtree
;	COMDAT ??8?$_Tree_const_iterator@V?$_Tree_val@U?$_Tree_simple_types@U?$pair@$$CBHPAVBaseGameEntity@@@std@@@std@@@std@@@std@@QBE_NABV01@@Z
_TEXT	SEGMENT
tv136 = -8						; size = 4
_this$ = -4						; size = 4
__Right$ = 8						; size = 4
??8?$_Tree_const_iterator@V?$_Tree_val@U?$_Tree_simple_types@U?$pair@$$CBHPAVBaseGameEntity@@@std@@@std@@@std@@@std@@QBE_NABV01@@Z PROC ; std::_Tree_const_iterator<std::_Tree_val<std::_Tree_simple_types<std::pair<int const ,BaseGameEntity *> > > >::operator==, COMDAT
; _this$ = ecx

; 273  : 		{	// test for iterator equality

	push	ebp
	mov	ebp, esp
	sub	esp, 8
	push	esi
	mov	DWORD PTR [ebp-8], -858993460		; ccccccccH
	mov	DWORD PTR [ebp-4], -858993460		; ccccccccH
	mov	DWORD PTR _this$[ebp], ecx
$LN4@operator:

; 274  :  #if _ITERATOR_DEBUG_LEVEL != 0
; 275  : 		_STL_VERIFY(this->_Getcont() == _Right._Getcont(), "map/set iterators incompatible");

	mov	ecx, DWORD PTR _this$[ebp]
	call	?_Getcont@_Iterator_base12@std@@QBEPBU_Container_base12@2@XZ ; std::_Iterator_base12::_Getcont
	mov	esi, eax
	mov	ecx, DWORD PTR __Right$[ebp]
	call	?_Getcont@_Iterator_base12@std@@QBEPBU_Container_base12@2@XZ ; std::_Iterator_base12::_Getcont
	cmp	esi, eax
	jne	SHORT $LN7@operator
	jmp	SHORT $LN2@operator
$LN7@operator:
	push	OFFSET ??_C@_0BP@OLDKBHLM@map?1set?5iterators?5incompatible@
	push	OFFSET ??_C@_02DKCKIIND@?$CFs@
	push	0
	push	275					; 00000113H
	push	OFFSET ??_C@_0GG@KBILHLPB@c?3?2program?5files?5?$CIx86?$CJ?2microsof@
	push	2
	call	__CrtDbgReport
	add	esp, 24					; 00000018H
	cmp	eax, 1
	jne	SHORT $LN11@operator
	int	3
$LN11@operator:
	push	0
	push	275					; 00000113H
	push	OFFSET ??_C@_1MM@ECCNBGLC@?$AAc?$AA?3?$AA?2?$AAp?$AAr?$AAo?$AAg?$AAr?$AAa?$AAm?$AA?5?$AAf?$AAi?$AAl?$AAe@
	push	OFFSET ??_C@_1BCK@EKGFHAGI@?$AAs?$AAt?$AAd?$AA?3?$AA?3?$AA_?$AAT?$AAr?$AAe?$AAe?$AA_?$AAc?$AAo?$AAn?$AAs@
	push	OFFSET ??_C@_1EC@JLIDLCDH@?$AA?$CC?$AAm?$AAa?$AAp?$AA?1?$AAs?$AAe?$AAt?$AA?5?$AAi?$AAt?$AAe?$AAr?$AAa?$AAt@
	call	__invalid_parameter
	add	esp, 20					; 00000014H
	xor	ecx, ecx
	jne	SHORT $LN7@operator
$LN2@operator:
	xor	edx, edx
	jne	SHORT $LN4@operator

; 276  :  #endif /* _ITERATOR_DEBUG_LEVEL != 0 */
; 277  : 
; 278  : 		return (this->_Ptr == _Right._Ptr);

	mov	eax, DWORD PTR _this$[ebp]
	mov	ecx, DWORD PTR __Right$[ebp]
	mov	edx, DWORD PTR [eax+8]
	cmp	edx, DWORD PTR [ecx+8]
	jne	SHORT $LN12@operator
	mov	DWORD PTR tv136[ebp], 1
	jmp	SHORT $LN13@operator
$LN12@operator:
	mov	DWORD PTR tv136[ebp], 0
$LN13@operator:
	mov	al, BYTE PTR tv136[ebp]

; 279  : 		}

	pop	esi
	add	esp, 8
	cmp	ebp, esp
	call	__RTC_CheckEsp
	mov	esp, ebp
	pop	ebp
	ret	4
??8?$_Tree_const_iterator@V?$_Tree_val@U?$_Tree_simple_types@U?$pair@$$CBHPAVBaseGameEntity@@@std@@@std@@@std@@@std@@QBE_NABV01@@Z ENDP ; std::_Tree_const_iterator<std::_Tree_val<std::_Tree_simple_types<std::pair<int const ,BaseGameEntity *> > > >::operator==
_TEXT	ENDS
; Function compile flags: /Odtp /RTCsu
; File c:\program files (x86)\microsoft visual studio\2017\community\vc\tools\msvc\14.15.26726\include\xtree
;	COMDAT ??F?$_Tree_const_iterator@V?$_Tree_val@U?$_Tree_simple_types@U?$pair@$$CBHPAVBaseGameEntity@@@std@@@std@@@std@@@std@@QAEAAV01@XZ
_TEXT	SEGMENT
__Ptrsav$ = -8						; size = 4
_this$ = -4						; size = 4
??F?$_Tree_const_iterator@V?$_Tree_val@U?$_Tree_simple_types@U?$pair@$$CBHPAVBaseGameEntity@@@std@@@std@@@std@@@std@@QAEAAV01@XZ PROC ; std::_Tree_const_iterator<std::_Tree_val<std::_Tree_simple_types<std::pair<int const ,BaseGameEntity *> > > >::operator--, COMDAT
; _this$ = ecx

; 252  : 		{	// predecrement

	push	ebp
	mov	ebp, esp
	sub	esp, 8
	mov	DWORD PTR [ebp-8], -858993460		; ccccccccH
	mov	DWORD PTR [ebp-4], -858993460		; ccccccccH
	mov	DWORD PTR _this$[ebp], ecx
$LN4@operator:

; 253  :  #if _ITERATOR_DEBUG_LEVEL == 0
; 254  : 		--static_cast<_Mybase&>(*this);
; 255  :  #else /* ^^^ _ITERATOR_DEBUG_LEVEL == 0 ^^^ // vvv _ITERATOR_DEBUG_LEVEL != 0 vvv */
; 256  : 		_STL_ASSERT(this->_Getcont(), "cannot decrement value-initialized map/set iterator");

	mov	ecx, DWORD PTR _this$[ebp]
	call	?_Getcont@_Iterator_base12@std@@QBEPBU_Container_base12@2@XZ ; std::_Iterator_base12::_Getcont
	test	eax, eax
	je	SHORT $LN7@operator
	jmp	SHORT $LN2@operator
$LN7@operator:
	push	OFFSET ??_C@_0DE@JECMPNID@cannot?5decrement?5value?9initiali@
	push	OFFSET ??_C@_02DKCKIIND@?$CFs@
	push	0
	push	256					; 00000100H
	push	OFFSET ??_C@_0GG@KBILHLPB@c?3?2program?5files?5?$CIx86?$CJ?2microsof@
	push	2
	call	__CrtDbgReport
	add	esp, 24					; 00000018H
	cmp	eax, 1
	jne	SHORT $LN19@operator
	int	3
$LN19@operator:
	push	0
	push	256					; 00000100H
	push	OFFSET ??_C@_1MM@ECCNBGLC@?$AAc?$AA?3?$AA?2?$AAp?$AAr?$AAo?$AAg?$AAr?$AAa?$AAm?$AA?5?$AAf?$AAi?$AAl?$AAe@
	push	OFFSET ??_C@_1BCK@BJKKCFGM@?$AAs?$AAt?$AAd?$AA?3?$AA?3?$AA_?$AAT?$AAr?$AAe?$AAe?$AA_?$AAc?$AAo?$AAn?$AAs@
	push	OFFSET ??_C@_1GM@ECOECPCJ@?$AA?$CC?$AAc?$AAa?$AAn?$AAn?$AAo?$AAt?$AA?5?$AAd?$AAe?$AAc?$AAr?$AAe?$AAm?$AAe@
	call	__invalid_parameter
	add	esp, 20					; 00000014H
	xor	ecx, ecx
	jne	SHORT $LN7@operator
$LN2@operator:
	xor	edx, edx
	jne	SHORT $LN4@operator

; 257  : 		_Nodeptr _Ptrsav = this->_Ptr;

	mov	eax, DWORD PTR _this$[ebp]
	mov	ecx, DWORD PTR [eax+8]
	mov	DWORD PTR __Ptrsav$[ebp], ecx

; 258  : 		--static_cast<_Mybase&>(*this);

	mov	ecx, DWORD PTR _this$[ebp]
	call	??F?$_Tree_unchecked_const_iterator@V?$_Tree_val@U?$_Tree_simple_types@U?$pair@$$CBHPAVBaseGameEntity@@@std@@@std@@@std@@U_Iterator_base12@2@@std@@QAEAAV01@XZ ; std::_Tree_unchecked_const_iterator<std::_Tree_val<std::_Tree_simple_types<std::pair<int const ,BaseGameEntity *> > >,std::_Iterator_base12>::operator--
$LN10@operator:

; 259  : 		_STL_VERIFY(_Ptrsav != this->_Ptr, "cannot decrement begin map/set iterator");

	mov	edx, DWORD PTR _this$[ebp]
	mov	eax, DWORD PTR __Ptrsav$[ebp]
	cmp	eax, DWORD PTR [edx+8]
	je	SHORT $LN13@operator
	jmp	SHORT $LN8@operator
$LN13@operator:
	push	OFFSET ??_C@_0CI@FJCIBNID@cannot?5decrement?5begin?5map?1set?5@
	push	OFFSET ??_C@_02DKCKIIND@?$CFs@
	push	0
	push	259					; 00000103H
	push	OFFSET ??_C@_0GG@KBILHLPB@c?3?2program?5files?5?$CIx86?$CJ?2microsof@
	push	2
	call	__CrtDbgReport
	add	esp, 24					; 00000018H
	cmp	eax, 1
	jne	SHORT $LN20@operator
	int	3
$LN20@operator:
	push	0
	push	259					; 00000103H
	push	OFFSET ??_C@_1MM@ECCNBGLC@?$AAc?$AA?3?$AA?2?$AAp?$AAr?$AAo?$AAg?$AAr?$AAa?$AAm?$AA?5?$AAf?$AAi?$AAl?$AAe@
	push	OFFSET ??_C@_1BCK@BJKKCFGM@?$AAs?$AAt?$AAd?$AA?3?$AA?3?$AA_?$AAT?$AAr?$AAe?$AAe?$AA_?$AAc?$AAo?$AAn?$AAs@
	push	OFFSET ??_C@_1FE@HAEBNAIH@?$AA?$CC?$AAc?$AAa?$AAn?$AAn?$AAo?$AAt?$AA?5?$AAd?$AAe?$AAc?$AAr?$AAe?$AAm?$AAe@
	call	__invalid_parameter
	add	esp, 20					; 00000014H
	xor	edx, edx
	jne	SHORT $LN13@operator
$LN8@operator:
	xor	eax, eax
	jne	SHORT $LN10@operator

; 260  :  #endif /* _ITERATOR_DEBUG_LEVEL == 0 */
; 261  : 
; 262  : 		return (*this);

	mov	eax, DWORD PTR _this$[ebp]

; 263  : 		}

	add	esp, 8
	cmp	ebp, esp
	call	__RTC_CheckEsp
	mov	esp, ebp
	pop	ebp
	ret	0
??F?$_Tree_const_iterator@V?$_Tree_val@U?$_Tree_simple_types@U?$pair@$$CBHPAVBaseGameEntity@@@std@@@std@@@std@@@std@@QAEAAV01@XZ ENDP ; std::_Tree_const_iterator<std::_Tree_val<std::_Tree_simple_types<std::pair<int const ,BaseGameEntity *> > > >::operator--
_TEXT	ENDS
; Function compile flags: /Odtp /RTCsu
; File c:\program files (x86)\microsoft visual studio\2017\community\vc\tools\msvc\14.15.26726\include\xtree
;	COMDAT ??E?$_Tree_const_iterator@V?$_Tree_val@U?$_Tree_simple_types@U?$pair@$$CBHPAVBaseGameEntity@@@std@@@std@@@std@@@std@@QAE?AV01@H@Z
_TEXT	SEGMENT
$T2 = -40						; size = 4
__Tmp$ = -32						; size = 12
_this$ = -16						; size = 4
__$EHRec$ = -12						; size = 12
___$ReturnUdt$ = 8					; size = 4
___formal$ = 12						; size = 4
??E?$_Tree_const_iterator@V?$_Tree_val@U?$_Tree_simple_types@U?$pair@$$CBHPAVBaseGameEntity@@@std@@@std@@@std@@@std@@QAE?AV01@H@Z PROC ; std::_Tree_const_iterator<std::_Tree_val<std::_Tree_simple_types<std::pair<int const ,BaseGameEntity *> > > >::operator++, COMDAT
; _this$ = ecx

; 245  : 		{	// postincrement

	push	ebp
	mov	ebp, esp
	push	-1
	push	__ehhandler$??E?$_Tree_const_iterator@V?$_Tree_val@U?$_Tree_simple_types@U?$pair@$$CBHPAVBaseGameEntity@@@std@@@std@@@std@@@std@@QAE?AV01@H@Z
	mov	eax, DWORD PTR fs:0
	push	eax
	sub	esp, 28					; 0000001cH
	mov	eax, -858993460				; ccccccccH
	mov	DWORD PTR [ebp-40], eax
	mov	DWORD PTR [ebp-36], eax
	mov	DWORD PTR [ebp-32], eax
	mov	DWORD PTR [ebp-28], eax
	mov	DWORD PTR [ebp-24], eax
	mov	DWORD PTR [ebp-20], eax
	mov	DWORD PTR [ebp-16], eax
	mov	eax, DWORD PTR ___security_cookie
	xor	eax, ebp
	push	eax
	lea	eax, DWORD PTR __$EHRec$[ebp]
	mov	DWORD PTR fs:0, eax
	mov	DWORD PTR _this$[ebp], ecx
	mov	DWORD PTR $T2[ebp], 0

; 246  : 		_Tree_const_iterator _Tmp = *this;

	mov	eax, DWORD PTR _this$[ebp]
	push	eax
	lea	ecx, DWORD PTR __Tmp$[ebp]
	call	??0?$_Tree_const_iterator@V?$_Tree_val@U?$_Tree_simple_types@U?$pair@$$CBHPAVBaseGameEntity@@@std@@@std@@@std@@@std@@QAE@ABV01@@Z
	mov	DWORD PTR __$EHRec$[ebp+8], 0

; 247  : 		++*this;

	mov	ecx, DWORD PTR _this$[ebp]
	call	??E?$_Tree_const_iterator@V?$_Tree_val@U?$_Tree_simple_types@U?$pair@$$CBHPAVBaseGameEntity@@@std@@@std@@@std@@@std@@QAEAAV01@XZ ; std::_Tree_const_iterator<std::_Tree_val<std::_Tree_simple_types<std::pair<int const ,BaseGameEntity *> > > >::operator++

; 248  : 		return (_Tmp);

	lea	ecx, DWORD PTR __Tmp$[ebp]
	push	ecx
	mov	ecx, DWORD PTR ___$ReturnUdt$[ebp]
	call	??0?$_Tree_const_iterator@V?$_Tree_val@U?$_Tree_simple_types@U?$pair@$$CBHPAVBaseGameEntity@@@std@@@std@@@std@@@std@@QAE@$$QAV01@@Z
	mov	edx, DWORD PTR $T2[ebp]
	or	edx, 1
	mov	DWORD PTR $T2[ebp], edx
	mov	DWORD PTR __$EHRec$[ebp+8], -1
	lea	ecx, DWORD PTR __Tmp$[ebp]
	call	??1?$_Tree_const_iterator@V?$_Tree_val@U?$_Tree_simple_types@U?$pair@$$CBHPAVBaseGameEntity@@@std@@@std@@@std@@@std@@QAE@XZ
	mov	eax, DWORD PTR ___$ReturnUdt$[ebp]

; 249  : 		}

	push	edx
	mov	ecx, ebp
	push	eax
	lea	edx, DWORD PTR $LN9@operator
	call	@_RTC_CheckStackVars@8
	pop	eax
	pop	edx
	mov	ecx, DWORD PTR __$EHRec$[ebp]
	mov	DWORD PTR fs:0, ecx
	pop	ecx
	add	esp, 40					; 00000028H
	cmp	ebp, esp
	call	__RTC_CheckEsp
	mov	esp, ebp
	pop	ebp
	ret	8
	npad	1
$LN9@operator:
	DD	1
	DD	$LN8@operator
$LN8@operator:
	DD	-32					; ffffffe0H
	DD	12					; 0000000cH
	DD	$LN6@operator
$LN6@operator:
	DB	95					; 0000005fH
	DB	84					; 00000054H
	DB	109					; 0000006dH
	DB	112					; 00000070H
	DB	0
_TEXT	ENDS
;	COMDAT text$x
text$x	SEGMENT
__unwindfunclet$??E?$_Tree_const_iterator@V?$_Tree_val@U?$_Tree_simple_types@U?$pair@$$CBHPAVBaseGameEntity@@@std@@@std@@@std@@@std@@QAE?AV01@H@Z$0:
	lea	ecx, DWORD PTR __Tmp$[ebp]
	jmp	??1?$_Tree_const_iterator@V?$_Tree_val@U?$_Tree_simple_types@U?$pair@$$CBHPAVBaseGameEntity@@@std@@@std@@@std@@@std@@QAE@XZ
__ehhandler$??E?$_Tree_const_iterator@V?$_Tree_val@U?$_Tree_simple_types@U?$pair@$$CBHPAVBaseGameEntity@@@std@@@std@@@std@@@std@@QAE?AV01@H@Z:
	mov	edx, DWORD PTR [esp+8]
	lea	eax, DWORD PTR [edx+12]
	mov	ecx, DWORD PTR [edx-32]
	xor	ecx, eax
	call	@__security_check_cookie@4
	mov	eax, OFFSET __ehfuncinfo$??E?$_Tree_const_iterator@V?$_Tree_val@U?$_Tree_simple_types@U?$pair@$$CBHPAVBaseGameEntity@@@std@@@std@@@std@@@std@@QAE?AV01@H@Z
	jmp	___CxxFrameHandler3
text$x	ENDS
??E?$_Tree_const_iterator@V?$_Tree_val@U?$_Tree_simple_types@U?$pair@$$CBHPAVBaseGameEntity@@@std@@@std@@@std@@@std@@QAE?AV01@H@Z ENDP ; std::_Tree_const_iterator<std::_Tree_val<std::_Tree_simple_types<std::pair<int const ,BaseGameEntity *> > > >::operator++
; Function compile flags: /Odtp /RTCsu
; File c:\program files (x86)\microsoft visual studio\2017\community\vc\tools\msvc\14.15.26726\include\xtree
;	COMDAT ??E?$_Tree_const_iterator@V?$_Tree_val@U?$_Tree_simple_types@U?$pair@$$CBHPAVBaseGameEntity@@@std@@@std@@@std@@@std@@QAEAAV01@XZ
_TEXT	SEGMENT
_this$ = -4						; size = 4
??E?$_Tree_const_iterator@V?$_Tree_val@U?$_Tree_simple_types@U?$pair@$$CBHPAVBaseGameEntity@@@std@@@std@@@std@@@std@@QAEAAV01@XZ PROC ; std::_Tree_const_iterator<std::_Tree_val<std::_Tree_simple_types<std::pair<int const ,BaseGameEntity *> > > >::operator++, COMDAT
; _this$ = ecx

; 234  : 		{	// preincrement

	push	ebp
	mov	ebp, esp
	push	ecx
	mov	DWORD PTR [ebp-4], -858993460		; ccccccccH
	mov	DWORD PTR _this$[ebp], ecx
$LN4@operator:

; 235  :  #if _ITERATOR_DEBUG_LEVEL != 0
; 236  : 		_STL_VERIFY(this->_Getcont(), "cannot increment value-initialized map/set iterator");

	mov	ecx, DWORD PTR _this$[ebp]
	call	?_Getcont@_Iterator_base12@std@@QBEPBU_Container_base12@2@XZ ; std::_Iterator_base12::_Getcont
	test	eax, eax
	je	SHORT $LN7@operator
	jmp	SHORT $LN2@operator
$LN7@operator:
	push	OFFSET ??_C@_0DE@DMNPKCGM@cannot?5increment?5value?9initiali@
	push	OFFSET ??_C@_02DKCKIIND@?$CFs@
	push	0
	push	236					; 000000ecH
	push	OFFSET ??_C@_0GG@KBILHLPB@c?3?2program?5files?5?$CIx86?$CJ?2microsof@
	push	2
	call	__CrtDbgReport
	add	esp, 24					; 00000018H
	cmp	eax, 1
	jne	SHORT $LN19@operator
	int	3
$LN19@operator:
	push	0
	push	236					; 000000ecH
	push	OFFSET ??_C@_1MM@ECCNBGLC@?$AAc?$AA?3?$AA?2?$AAp?$AAr?$AAo?$AAg?$AAr?$AAa?$AAm?$AA?5?$AAf?$AAi?$AAl?$AAe@
	push	OFFSET ??_C@_1BCK@OKJIJJKN@?$AAs?$AAt?$AAd?$AA?3?$AA?3?$AA_?$AAT?$AAr?$AAe?$AAe?$AA_?$AAc?$AAo?$AAn?$AAs@
	push	OFFSET ??_C@_1GM@BJMCGEGI@?$AA?$CC?$AAc?$AAa?$AAn?$AAn?$AAo?$AAt?$AA?5?$AAi?$AAn?$AAc?$AAr?$AAe?$AAm?$AAe@
	call	__invalid_parameter
	add	esp, 20					; 00000014H
	xor	ecx, ecx
	jne	SHORT $LN7@operator
$LN2@operator:
	xor	edx, edx
	jne	SHORT $LN4@operator
$LN10@operator:

; 237  : 		_STL_VERIFY(!this->_Ptr->_Isnil, "cannot increment end map/set iterator");

	mov	eax, DWORD PTR _this$[ebp]
	mov	ecx, DWORD PTR [eax+8]
	movsx	edx, BYTE PTR [ecx+13]
	test	edx, edx
	jne	SHORT $LN13@operator
	jmp	SHORT $LN8@operator
$LN13@operator:
	push	OFFSET ??_C@_0CG@NLEHEOHN@cannot?5increment?5end?5map?1set?5it@
	push	OFFSET ??_C@_02DKCKIIND@?$CFs@
	push	0
	push	237					; 000000edH
	push	OFFSET ??_C@_0GG@KBILHLPB@c?3?2program?5files?5?$CIx86?$CJ?2microsof@
	push	2
	call	__CrtDbgReport
	add	esp, 24					; 00000018H
	cmp	eax, 1
	jne	SHORT $LN20@operator
	int	3
$LN20@operator:
	push	0
	push	237					; 000000edH
	push	OFFSET ??_C@_1MM@ECCNBGLC@?$AAc?$AA?3?$AA?2?$AAp?$AAr?$AAo?$AAg?$AAr?$AAa?$AAm?$AA?5?$AAf?$AAi?$AAl?$AAe@
	push	OFFSET ??_C@_1BCK@OKJIJJKN@?$AAs?$AAt?$AAd?$AA?3?$AA?3?$AA_?$AAT?$AAr?$AAe?$AAe?$AA_?$AAc?$AAo?$AAn?$AAs@
	push	OFFSET ??_C@_1FA@KLFCDGNE@?$AA?$CC?$AAc?$AAa?$AAn?$AAn?$AAo?$AAt?$AA?5?$AAi?$AAn?$AAc?$AAr?$AAe?$AAm?$AAe@
	call	__invalid_parameter
	add	esp, 20					; 00000014H
	xor	ecx, ecx
	jne	SHORT $LN13@operator
$LN8@operator:
	xor	edx, edx
	jne	SHORT $LN10@operator

; 238  :  #endif /* _ITERATOR_DEBUG_LEVEL != 0 */
; 239  : 
; 240  : 		++static_cast<_Mybase&>(*this);

	mov	ecx, DWORD PTR _this$[ebp]
	call	??E?$_Tree_unchecked_const_iterator@V?$_Tree_val@U?$_Tree_simple_types@U?$pair@$$CBHPAVBaseGameEntity@@@std@@@std@@@std@@U_Iterator_base12@2@@std@@QAEAAV01@XZ ; std::_Tree_unchecked_const_iterator<std::_Tree_val<std::_Tree_simple_types<std::pair<int const ,BaseGameEntity *> > >,std::_Iterator_base12>::operator++

; 241  : 		return (*this);

	mov	eax, DWORD PTR _this$[ebp]

; 242  : 		}

	add	esp, 4
	cmp	ebp, esp
	call	__RTC_CheckEsp
	mov	esp, ebp
	pop	ebp
	ret	0
??E?$_Tree_const_iterator@V?$_Tree_val@U?$_Tree_simple_types@U?$pair@$$CBHPAVBaseGameEntity@@@std@@@std@@@std@@@std@@QAEAAV01@XZ ENDP ; std::_Tree_const_iterator<std::_Tree_val<std::_Tree_simple_types<std::pair<int const ,BaseGameEntity *> > > >::operator++
_TEXT	ENDS
; Function compile flags: /Odtp /RTCsu
; File c:\program files (x86)\microsoft visual studio\2017\community\vc\tools\msvc\14.15.26726\include\xtree
;	COMDAT ??C?$_Tree_const_iterator@V?$_Tree_val@U?$_Tree_simple_types@U?$pair@$$CBHPAVBaseGameEntity@@@std@@@std@@@std@@@std@@QBEPBU?$pair@$$CBHPAVBaseGameEntity@@@1@XZ
_TEXT	SEGMENT
_this$ = -4						; size = 4
??C?$_Tree_const_iterator@V?$_Tree_val@U?$_Tree_simple_types@U?$pair@$$CBHPAVBaseGameEntity@@@std@@@std@@@std@@@std@@QBEPBU?$pair@$$CBHPAVBaseGameEntity@@@1@XZ PROC ; std::_Tree_const_iterator<std::_Tree_val<std::_Tree_simple_types<std::pair<int const ,BaseGameEntity *> > > >::operator->, COMDAT
; _this$ = ecx

; 229  : 		{	// return pointer to class object

	push	ebp
	mov	ebp, esp
	push	ecx
	mov	DWORD PTR [ebp-4], -858993460		; ccccccccH
	mov	DWORD PTR _this$[ebp], ecx

; 230  : 		return (pointer_traits<pointer>::pointer_to(**this));

	mov	ecx, DWORD PTR _this$[ebp]
	call	??D?$_Tree_const_iterator@V?$_Tree_val@U?$_Tree_simple_types@U?$pair@$$CBHPAVBaseGameEntity@@@std@@@std@@@std@@@std@@QBEABU?$pair@$$CBHPAVBaseGameEntity@@@1@XZ ; std::_Tree_const_iterator<std::_Tree_val<std::_Tree_simple_types<std::pair<int const ,BaseGameEntity *> > > >::operator*
	push	eax
	call	?pointer_to@?$pointer_traits@PBU?$pair@$$CBHPAVBaseGameEntity@@@std@@@std@@SAPBU?$pair@$$CBHPAVBaseGameEntity@@@2@ABU32@@Z ; std::pointer_traits<std::pair<int const ,BaseGameEntity *> const *>::pointer_to
	add	esp, 4

; 231  : 		}

	add	esp, 4
	cmp	ebp, esp
	call	__RTC_CheckEsp
	mov	esp, ebp
	pop	ebp
	ret	0
??C?$_Tree_const_iterator@V?$_Tree_val@U?$_Tree_simple_types@U?$pair@$$CBHPAVBaseGameEntity@@@std@@@std@@@std@@@std@@QBEPBU?$pair@$$CBHPAVBaseGameEntity@@@1@XZ ENDP ; std::_Tree_const_iterator<std::_Tree_val<std::_Tree_simple_types<std::pair<int const ,BaseGameEntity *> > > >::operator->
_TEXT	ENDS
; Function compile flags: /Odtp /RTCsu
; File c:\program files (x86)\microsoft visual studio\2017\community\vc\tools\msvc\14.15.26726\include\xtree
;	COMDAT ??D?$_Tree_const_iterator@V?$_Tree_val@U?$_Tree_simple_types@U?$pair@$$CBHPAVBaseGameEntity@@@std@@@std@@@std@@@std@@QBEABU?$pair@$$CBHPAVBaseGameEntity@@@1@XZ
_TEXT	SEGMENT
__Mycont$ = -8						; size = 4
_this$ = -4						; size = 4
??D?$_Tree_const_iterator@V?$_Tree_val@U?$_Tree_simple_types@U?$pair@$$CBHPAVBaseGameEntity@@@std@@@std@@@std@@@std@@QBEABU?$pair@$$CBHPAVBaseGameEntity@@@1@XZ PROC ; std::_Tree_const_iterator<std::_Tree_val<std::_Tree_simple_types<std::pair<int const ,BaseGameEntity *> > > >::operator*, COMDAT
; _this$ = ecx

; 218  : 		{	// return designated value

	push	ebp
	mov	ebp, esp
	sub	esp, 8
	mov	DWORD PTR [ebp-8], -858993460		; ccccccccH
	mov	DWORD PTR [ebp-4], -858993460		; ccccccccH
	mov	DWORD PTR _this$[ebp], ecx

; 219  :  #if _ITERATOR_DEBUG_LEVEL != 0
; 220  : 		const auto _Mycont = static_cast<const _Mytree *>(this->_Getcont());

	mov	ecx, DWORD PTR _this$[ebp]
	call	?_Getcont@_Iterator_base12@std@@QBEPBU_Container_base12@2@XZ ; std::_Iterator_base12::_Getcont
	mov	DWORD PTR __Mycont$[ebp], eax
$LN4@operator:

; 221  : 		_STL_ASSERT(_Mycont, "cannot dereference value-initialized map/set iterator");

	cmp	DWORD PTR __Mycont$[ebp], 0
	je	SHORT $LN7@operator
	jmp	SHORT $LN2@operator
$LN7@operator:
	push	OFFSET ??_C@_0DG@LCFNIIPB@cannot?5dereference?5value?9initia@
	push	OFFSET ??_C@_02DKCKIIND@?$CFs@
	push	0
	push	221					; 000000ddH
	push	OFFSET ??_C@_0GG@KBILHLPB@c?3?2program?5files?5?$CIx86?$CJ?2microsof@
	push	2
	call	__CrtDbgReport
	add	esp, 24					; 00000018H
	cmp	eax, 1
	jne	SHORT $LN19@operator
	int	3
$LN19@operator:
	push	0
	push	221					; 000000ddH
	push	OFFSET ??_C@_1MM@ECCNBGLC@?$AAc?$AA?3?$AA?2?$AAp?$AAr?$AAo?$AAg?$AAr?$AAa?$AAm?$AA?5?$AAf?$AAi?$AAl?$AAe@
	push	OFFSET ??_C@_1BCI@KCDJEGGM@?$AAs?$AAt?$AAd?$AA?3?$AA?3?$AA_?$AAT?$AAr?$AAe?$AAe?$AA_?$AAc?$AAo?$AAn?$AAs@
	push	OFFSET ??_C@_1HA@ILGCNILF@?$AA?$CC?$AAc?$AAa?$AAn?$AAn?$AAo?$AAt?$AA?5?$AAd?$AAe?$AAr?$AAe?$AAf?$AAe?$AAr@
	call	__invalid_parameter
	add	esp, 20					; 00000014H
	xor	ecx, ecx
	jne	SHORT $LN7@operator
$LN2@operator:
	xor	edx, edx
	jne	SHORT $LN4@operator
$LN10@operator:

; 222  : 		_STL_VERIFY(this->_Ptr != _Mycont->_Myhead, "cannot dereference end map/set iterator");

	mov	eax, DWORD PTR _this$[ebp]
	mov	ecx, DWORD PTR __Mycont$[ebp]
	mov	edx, DWORD PTR [eax+8]
	cmp	edx, DWORD PTR [ecx+4]
	je	SHORT $LN13@operator
	jmp	SHORT $LN8@operator
$LN13@operator:
	push	OFFSET ??_C@_0CI@OKFEHCEB@cannot?5dereference?5end?5map?1set?5@
	push	OFFSET ??_C@_02DKCKIIND@?$CFs@
	push	0
	push	222					; 000000deH
	push	OFFSET ??_C@_0GG@KBILHLPB@c?3?2program?5files?5?$CIx86?$CJ?2microsof@
	push	2
	call	__CrtDbgReport
	add	esp, 24					; 00000018H
	cmp	eax, 1
	jne	SHORT $LN20@operator
	int	3
$LN20@operator:
	push	0
	push	222					; 000000deH
	push	OFFSET ??_C@_1MM@ECCNBGLC@?$AAc?$AA?3?$AA?2?$AAp?$AAr?$AAo?$AAg?$AAr?$AAa?$AAm?$AA?5?$AAf?$AAi?$AAl?$AAe@
	push	OFFSET ??_C@_1BCI@KCDJEGGM@?$AAs?$AAt?$AAd?$AA?3?$AA?3?$AA_?$AAT?$AAr?$AAe?$AAe?$AA_?$AAc?$AAo?$AAn?$AAs@
	push	OFFSET ??_C@_1FE@NKHAAGMB@?$AA?$CC?$AAc?$AAa?$AAn?$AAn?$AAo?$AAt?$AA?5?$AAd?$AAe?$AAr?$AAe?$AAf?$AAe?$AAr@
	call	__invalid_parameter
	add	esp, 20					; 00000014H
	xor	ecx, ecx
	jne	SHORT $LN13@operator
$LN8@operator:
	xor	edx, edx
	jne	SHORT $LN10@operator

; 223  :  #endif /* _ITERATOR_DEBUG_LEVEL != 0 */
; 224  : 
; 225  : 		return (this->_Ptr->_Myval);

	mov	eax, DWORD PTR _this$[ebp]
	mov	eax, DWORD PTR [eax+8]
	add	eax, 16					; 00000010H

; 226  : 		}

	add	esp, 8
	cmp	ebp, esp
	call	__RTC_CheckEsp
	mov	esp, ebp
	pop	ebp
	ret	0
??D?$_Tree_const_iterator@V?$_Tree_val@U?$_Tree_simple_types@U?$pair@$$CBHPAVBaseGameEntity@@@std@@@std@@@std@@@std@@QBEABU?$pair@$$CBHPAVBaseGameEntity@@@1@XZ ENDP ; std::_Tree_const_iterator<std::_Tree_val<std::_Tree_simple_types<std::pair<int const ,BaseGameEntity *> > > >::operator*
_TEXT	ENDS
; Function compile flags: /Odtp /RTCsu
; File c:\program files (x86)\microsoft visual studio\2017\community\vc\tools\msvc\14.15.26726\include\xtree
;	COMDAT ??0?$_Tree_const_iterator@V?$_Tree_val@U?$_Tree_simple_types@U?$pair@$$CBHPAVBaseGameEntity@@@std@@@std@@@std@@@std@@QAE@PAU?$_Tree_node@U?$pair@$$CBHPAVBaseGameEntity@@@std@@PAX@1@PBV?$_Tree_val@U?$_Tree_simple_types@U?$pair@$$CBHPAVBaseGameEntity@@@std@@@std@@@1@@Z
_TEXT	SEGMENT
_this$ = -4						; size = 4
__Pnode$ = 8						; size = 4
__Plist$ = 12						; size = 4
??0?$_Tree_const_iterator@V?$_Tree_val@U?$_Tree_simple_types@U?$pair@$$CBHPAVBaseGameEntity@@@std@@@std@@@std@@@std@@QAE@PAU?$_Tree_node@U?$pair@$$CBHPAVBaseGameEntity@@@std@@PAX@1@PBV?$_Tree_val@U?$_Tree_simple_types@U?$pair@$$CBHPAVBaseGameEntity@@@std@@@std@@@1@@Z PROC ; std::_Tree_const_iterator<std::_Tree_val<std::_Tree_simple_types<std::pair<int const ,BaseGameEntity *> > > >::_Tree_const_iterator<std::_Tree_val<std::_Tree_simple_types<std::pair<int const ,BaseGameEntity *> > > >, COMDAT
; _this$ = ecx

; 214  : 		{	// construct with node pointer _Pnode

	push	ebp
	mov	ebp, esp
	push	ecx
	mov	DWORD PTR [ebp-4], -858993460		; ccccccccH
	mov	DWORD PTR _this$[ebp], ecx

; 213  : 		: _Mybase(_Pnode, _Plist)

	mov	eax, DWORD PTR __Plist$[ebp]
	push	eax
	mov	ecx, DWORD PTR __Pnode$[ebp]
	push	ecx
	mov	ecx, DWORD PTR _this$[ebp]
	call	??0?$_Tree_unchecked_const_iterator@V?$_Tree_val@U?$_Tree_simple_types@U?$pair@$$CBHPAVBaseGameEntity@@@std@@@std@@@std@@U_Iterator_base12@2@@std@@QAE@PAU?$_Tree_node@U?$pair@$$CBHPAVBaseGameEntity@@@std@@PAX@1@PBV?$_Tree_val@U?$_Tree_simple_types@U?$pair@$$CBHPAVBaseGameEntity@@@std@@@std@@@1@@Z ; std::_Tree_unchecked_const_iterator<std::_Tree_val<std::_Tree_simple_types<std::pair<int const ,BaseGameEntity *> > >,std::_Iterator_base12>::_Tree_unchecked_const_iterator<std::_Tree_val<std::_Tree_simple_types<std::pair<int const ,BaseGameEntity *> > >,std::_Iterator_base12>

; 215  : 		}

	mov	eax, DWORD PTR _this$[ebp]
	add	esp, 4
	cmp	ebp, esp
	call	__RTC_CheckEsp
	mov	esp, ebp
	pop	ebp
	ret	8
??0?$_Tree_const_iterator@V?$_Tree_val@U?$_Tree_simple_types@U?$pair@$$CBHPAVBaseGameEntity@@@std@@@std@@@std@@@std@@QAE@PAU?$_Tree_node@U?$pair@$$CBHPAVBaseGameEntity@@@std@@PAX@1@PBV?$_Tree_val@U?$_Tree_simple_types@U?$pair@$$CBHPAVBaseGameEntity@@@std@@@std@@@1@@Z ENDP ; std::_Tree_const_iterator<std::_Tree_val<std::_Tree_simple_types<std::pair<int const ,BaseGameEntity *> > > >::_Tree_const_iterator<std::_Tree_val<std::_Tree_simple_types<std::pair<int const ,BaseGameEntity *> > > >
_TEXT	ENDS
; Function compile flags: /Odtp /RTCsu
;	COMDAT ??0?$_Tree_unchecked_const_iterator@V?$_Tree_val@U?$_Tree_simple_types@U?$pair@$$CBHPAVBaseGameEntity@@@std@@@std@@@std@@U_Iterator_base12@2@@std@@QAE@$$QAV01@@Z
_TEXT	SEGMENT
_this$ = -4						; size = 4
___that$ = 8						; size = 4
??0?$_Tree_unchecked_const_iterator@V?$_Tree_val@U?$_Tree_simple_types@U?$pair@$$CBHPAVBaseGameEntity@@@std@@@std@@@std@@U_Iterator_base12@2@@std@@QAE@$$QAV01@@Z PROC ; std::_Tree_unchecked_const_iterator<std::_Tree_val<std::_Tree_simple_types<std::pair<int const ,BaseGameEntity *> > >,std::_Iterator_base12>::_Tree_unchecked_const_iterator<std::_Tree_val<std::_Tree_simple_types<std::pair<int const ,BaseGameEntity *> > >,std::_Iterator_base12>, COMDAT
; _this$ = ecx
	push	ebp
	mov	ebp, esp
	push	ecx
	mov	DWORD PTR [ebp-4], -858993460		; ccccccccH
	mov	DWORD PTR _this$[ebp], ecx
	mov	eax, DWORD PTR ___that$[ebp]
	push	eax
	mov	ecx, DWORD PTR _this$[ebp]
	call	??0_Iterator_base12@std@@QAE@ABU01@@Z	; std::_Iterator_base12::_Iterator_base12
	mov	ecx, DWORD PTR _this$[ebp]
	mov	edx, DWORD PTR ___that$[ebp]
	mov	eax, DWORD PTR [edx+8]
	mov	DWORD PTR [ecx+8], eax
	mov	eax, DWORD PTR _this$[ebp]
	add	esp, 4
	cmp	ebp, esp
	call	__RTC_CheckEsp
	mov	esp, ebp
	pop	ebp
	ret	4
??0?$_Tree_unchecked_const_iterator@V?$_Tree_val@U?$_Tree_simple_types@U?$pair@$$CBHPAVBaseGameEntity@@@std@@@std@@@std@@U_Iterator_base12@2@@std@@QAE@$$QAV01@@Z ENDP ; std::_Tree_unchecked_const_iterator<std::_Tree_val<std::_Tree_simple_types<std::pair<int const ,BaseGameEntity *> > >,std::_Iterator_base12>::_Tree_unchecked_const_iterator<std::_Tree_val<std::_Tree_simple_types<std::pair<int const ,BaseGameEntity *> > >,std::_Iterator_base12>
_TEXT	ENDS
; Function compile flags: /Odtp /RTCsu
;	COMDAT ??0?$_Tree_unchecked_const_iterator@V?$_Tree_val@U?$_Tree_simple_types@U?$pair@$$CBHPAVBaseGameEntity@@@std@@@std@@@std@@U_Iterator_base12@2@@std@@QAE@ABV01@@Z
_TEXT	SEGMENT
_this$ = -4						; size = 4
___that$ = 8						; size = 4
??0?$_Tree_unchecked_const_iterator@V?$_Tree_val@U?$_Tree_simple_types@U?$pair@$$CBHPAVBaseGameEntity@@@std@@@std@@@std@@U_Iterator_base12@2@@std@@QAE@ABV01@@Z PROC ; std::_Tree_unchecked_const_iterator<std::_Tree_val<std::_Tree_simple_types<std::pair<int const ,BaseGameEntity *> > >,std::_Iterator_base12>::_Tree_unchecked_const_iterator<std::_Tree_val<std::_Tree_simple_types<std::pair<int const ,BaseGameEntity *> > >,std::_Iterator_base12>, COMDAT
; _this$ = ecx
	push	ebp
	mov	ebp, esp
	push	ecx
	mov	DWORD PTR [ebp-4], -858993460		; ccccccccH
	mov	DWORD PTR _this$[ebp], ecx
	mov	eax, DWORD PTR ___that$[ebp]
	push	eax
	mov	ecx, DWORD PTR _this$[ebp]
	call	??0_Iterator_base12@std@@QAE@ABU01@@Z	; std::_Iterator_base12::_Iterator_base12
	mov	ecx, DWORD PTR _this$[ebp]
	mov	edx, DWORD PTR ___that$[ebp]
	mov	eax, DWORD PTR [edx+8]
	mov	DWORD PTR [ecx+8], eax
	mov	eax, DWORD PTR _this$[ebp]
	add	esp, 4
	cmp	ebp, esp
	call	__RTC_CheckEsp
	mov	esp, ebp
	pop	ebp
	ret	4
??0?$_Tree_unchecked_const_iterator@V?$_Tree_val@U?$_Tree_simple_types@U?$pair@$$CBHPAVBaseGameEntity@@@std@@@std@@@std@@U_Iterator_base12@2@@std@@QAE@ABV01@@Z ENDP ; std::_Tree_unchecked_const_iterator<std::_Tree_val<std::_Tree_simple_types<std::pair<int const ,BaseGameEntity *> > >,std::_Iterator_base12>::_Tree_unchecked_const_iterator<std::_Tree_val<std::_Tree_simple_types<std::pair<int const ,BaseGameEntity *> > >,std::_Iterator_base12>
_TEXT	ENDS
; Function compile flags: /Odtp /RTCsu
;	COMDAT ??1?$_Tree_unchecked_const_iterator@V?$_Tree_val@U?$_Tree_simple_types@U?$pair@$$CBHPAVBaseGameEntity@@@std@@@std@@@std@@U_Iterator_base12@2@@std@@QAE@XZ
_TEXT	SEGMENT
_this$ = -4						; size = 4
??1?$_Tree_unchecked_const_iterator@V?$_Tree_val@U?$_Tree_simple_types@U?$pair@$$CBHPAVBaseGameEntity@@@std@@@std@@@std@@U_Iterator_base12@2@@std@@QAE@XZ PROC ; std::_Tree_unchecked_const_iterator<std::_Tree_val<std::_Tree_simple_types<std::pair<int const ,BaseGameEntity *> > >,std::_Iterator_base12>::~_Tree_unchecked_const_iterator<std::_Tree_val<std::_Tree_simple_types<std::pair<int const ,BaseGameEntity *> > >,std::_Iterator_base12>, COMDAT
; _this$ = ecx
	push	ebp
	mov	ebp, esp
	push	ecx
	mov	DWORD PTR [ebp-4], -858993460		; ccccccccH
	mov	DWORD PTR _this$[ebp], ecx
	mov	ecx, DWORD PTR _this$[ebp]
	call	??1_Iterator_base12@std@@QAE@XZ		; std::_Iterator_base12::~_Iterator_base12
	add	esp, 4
	cmp	ebp, esp
	call	__RTC_CheckEsp
	mov	esp, ebp
	pop	ebp
	ret	0
??1?$_Tree_unchecked_const_iterator@V?$_Tree_val@U?$_Tree_simple_types@U?$pair@$$CBHPAVBaseGameEntity@@@std@@@std@@@std@@U_Iterator_base12@2@@std@@QAE@XZ ENDP ; std::_Tree_unchecked_const_iterator<std::_Tree_val<std::_Tree_simple_types<std::pair<int const ,BaseGameEntity *> > >,std::_Iterator_base12>::~_Tree_unchecked_const_iterator<std::_Tree_val<std::_Tree_simple_types<std::pair<int const ,BaseGameEntity *> > >,std::_Iterator_base12>
_TEXT	ENDS
; Function compile flags: /Odtp /RTCsu
; File c:\program files (x86)\microsoft visual studio\2017\community\vc\tools\msvc\14.15.26726\include\xtree
;	COMDAT ??F?$_Tree_unchecked_const_iterator@V?$_Tree_val@U?$_Tree_simple_types@U?$pair@$$CBHPAVBaseGameEntity@@@std@@@std@@@std@@U_Iterator_base12@2@@std@@QAEAAV01@XZ
_TEXT	SEGMENT
__Pnode$1 = -8						; size = 4
_this$ = -4						; size = 4
??F?$_Tree_unchecked_const_iterator@V?$_Tree_val@U?$_Tree_simple_types@U?$pair@$$CBHPAVBaseGameEntity@@@std@@@std@@@std@@U_Iterator_base12@2@@std@@QAEAAV01@XZ PROC ; std::_Tree_unchecked_const_iterator<std::_Tree_val<std::_Tree_simple_types<std::pair<int const ,BaseGameEntity *> > >,std::_Iterator_base12>::operator--, COMDAT
; _this$ = ecx

; 85   : 		{	// predecrement

	push	ebp
	mov	ebp, esp
	sub	esp, 8
	mov	DWORD PTR [ebp-8], -858993460		; ccccccccH
	mov	DWORD PTR [ebp-4], -858993460		; ccccccccH
	mov	DWORD PTR _this$[ebp], ecx

; 86   : 		if (_Ptr->_Isnil)

	mov	eax, DWORD PTR _this$[ebp]
	mov	ecx, DWORD PTR [eax+8]
	movsx	edx, BYTE PTR [ecx+13]
	test	edx, edx
	je	SHORT $LN4@operator

; 87   : 			{
; 88   : 			_Ptr = _Ptr->_Right;	// end() ==> rightmost

	mov	eax, DWORD PTR _this$[ebp]
	mov	ecx, DWORD PTR [eax+8]
	mov	edx, DWORD PTR _this$[ebp]
	mov	eax, DWORD PTR [ecx+8]
	mov	DWORD PTR [edx+8], eax
	jmp	SHORT $LN5@operator
$LN4@operator:

; 89   : 			}
; 90   : 		else if (_Ptr->_Left->_Isnil)

	mov	ecx, DWORD PTR _this$[ebp]
	mov	edx, DWORD PTR [ecx+8]
	mov	eax, DWORD PTR [edx]
	movsx	ecx, BYTE PTR [eax+13]
	test	ecx, ecx
	je	SHORT $LN6@operator
$LN2@operator:

; 91   : 			{	// climb looking for left subtree
; 92   : 			_Nodeptr _Pnode;
; 93   : 			while (!(_Pnode = _Ptr->_Parent)->_Isnil && _Ptr == _Pnode->_Left)

	mov	edx, DWORD PTR _this$[ebp]
	mov	eax, DWORD PTR [edx+8]
	mov	ecx, DWORD PTR [eax+4]
	mov	DWORD PTR __Pnode$1[ebp], ecx
	mov	edx, DWORD PTR __Pnode$1[ebp]
	movsx	eax, BYTE PTR [edx+13]
	test	eax, eax
	jne	SHORT $LN3@operator
	mov	ecx, DWORD PTR _this$[ebp]
	mov	edx, DWORD PTR __Pnode$1[ebp]
	mov	eax, DWORD PTR [ecx+8]
	cmp	eax, DWORD PTR [edx]
	jne	SHORT $LN3@operator

; 94   : 				{
; 95   : 				_Ptr = _Pnode;	// ==> parent while left subtree

	mov	ecx, DWORD PTR _this$[ebp]
	mov	edx, DWORD PTR __Pnode$1[ebp]
	mov	DWORD PTR [ecx+8], edx

; 96   : 				}

	jmp	SHORT $LN2@operator
$LN3@operator:

; 97   : 
; 98   : 			if (!_Ptr->_Isnil)

	mov	eax, DWORD PTR _this$[ebp]
	mov	ecx, DWORD PTR [eax+8]
	movsx	edx, BYTE PTR [ecx+13]
	test	edx, edx
	jne	SHORT $LN8@operator

; 99   : 				{	// decrement non-begin()
; 100  : 				_Ptr = _Pnode;	// ==> parent if not head

	mov	eax, DWORD PTR _this$[ebp]
	mov	ecx, DWORD PTR __Pnode$1[ebp]
	mov	DWORD PTR [eax+8], ecx
$LN8@operator:

; 101  : 				}
; 102  : 			}
; 103  : 		else

	jmp	SHORT $LN5@operator
$LN6@operator:

; 104  : 			{
; 105  : 			_Ptr = _Mytree::_Max(_Ptr->_Left);	// ==> largest of left subtree

	mov	edx, DWORD PTR _this$[ebp]
	mov	eax, DWORD PTR [edx+8]
	mov	ecx, DWORD PTR [eax]
	push	ecx
	call	?_Max@?$_Tree_val@U?$_Tree_simple_types@U?$pair@$$CBHPAVBaseGameEntity@@@std@@@std@@@std@@SAPAU?$_Tree_node@U?$pair@$$CBHPAVBaseGameEntity@@@std@@PAX@2@PAU32@@Z ; std::_Tree_val<std::_Tree_simple_types<std::pair<int const ,BaseGameEntity *> > >::_Max
	add	esp, 4
	mov	edx, DWORD PTR _this$[ebp]
	mov	DWORD PTR [edx+8], eax
$LN5@operator:

; 106  : 			}
; 107  : 
; 108  : 		return (*this);

	mov	eax, DWORD PTR _this$[ebp]

; 109  : 		}

	add	esp, 8
	cmp	ebp, esp
	call	__RTC_CheckEsp
	mov	esp, ebp
	pop	ebp
	ret	0
??F?$_Tree_unchecked_const_iterator@V?$_Tree_val@U?$_Tree_simple_types@U?$pair@$$CBHPAVBaseGameEntity@@@std@@@std@@@std@@U_Iterator_base12@2@@std@@QAEAAV01@XZ ENDP ; std::_Tree_unchecked_const_iterator<std::_Tree_val<std::_Tree_simple_types<std::pair<int const ,BaseGameEntity *> > >,std::_Iterator_base12>::operator--
_TEXT	ENDS
; Function compile flags: /Odtp /RTCsu
; File c:\program files (x86)\microsoft visual studio\2017\community\vc\tools\msvc\14.15.26726\include\xtree
;	COMDAT ??E?$_Tree_unchecked_const_iterator@V?$_Tree_val@U?$_Tree_simple_types@U?$pair@$$CBHPAVBaseGameEntity@@@std@@@std@@@std@@U_Iterator_base12@2@@std@@QAEAAV01@XZ
_TEXT	SEGMENT
__Pnode$1 = -8						; size = 4
_this$ = -4						; size = 4
??E?$_Tree_unchecked_const_iterator@V?$_Tree_val@U?$_Tree_simple_types@U?$pair@$$CBHPAVBaseGameEntity@@@std@@@std@@@std@@U_Iterator_base12@2@@std@@QAEAAV01@XZ PROC ; std::_Tree_unchecked_const_iterator<std::_Tree_val<std::_Tree_simple_types<std::pair<int const ,BaseGameEntity *> > >,std::_Iterator_base12>::operator++, COMDAT
; _this$ = ecx

; 58   : 		{	// preincrement

	push	ebp
	mov	ebp, esp
	sub	esp, 8
	mov	DWORD PTR [ebp-8], -858993460		; ccccccccH
	mov	DWORD PTR [ebp-4], -858993460		; ccccccccH
	mov	DWORD PTR _this$[ebp], ecx

; 59   : 		if (_Ptr->_Right->_Isnil)

	mov	eax, DWORD PTR _this$[ebp]
	mov	ecx, DWORD PTR [eax+8]
	mov	edx, DWORD PTR [ecx+8]
	movsx	eax, BYTE PTR [edx+13]
	test	eax, eax
	je	SHORT $LN4@operator
$LN2@operator:

; 60   : 			{	// climb looking for right subtree
; 61   : 			_Nodeptr _Pnode;
; 62   : 			while (!(_Pnode = _Ptr->_Parent)->_Isnil && _Ptr == _Pnode->_Right)

	mov	ecx, DWORD PTR _this$[ebp]
	mov	edx, DWORD PTR [ecx+8]
	mov	eax, DWORD PTR [edx+4]
	mov	DWORD PTR __Pnode$1[ebp], eax
	mov	ecx, DWORD PTR __Pnode$1[ebp]
	movsx	edx, BYTE PTR [ecx+13]
	test	edx, edx
	jne	SHORT $LN3@operator
	mov	eax, DWORD PTR _this$[ebp]
	mov	ecx, DWORD PTR __Pnode$1[ebp]
	mov	edx, DWORD PTR [eax+8]
	cmp	edx, DWORD PTR [ecx+8]
	jne	SHORT $LN3@operator

; 63   : 				{
; 64   : 				_Ptr = _Pnode;	// ==> parent while right subtree

	mov	eax, DWORD PTR _this$[ebp]
	mov	ecx, DWORD PTR __Pnode$1[ebp]
	mov	DWORD PTR [eax+8], ecx

; 65   : 				}

	jmp	SHORT $LN2@operator
$LN3@operator:

; 66   : 
; 67   : 			_Ptr = _Pnode;	// ==> parent (head if end())

	mov	edx, DWORD PTR _this$[ebp]
	mov	eax, DWORD PTR __Pnode$1[ebp]
	mov	DWORD PTR [edx+8], eax

; 68   : 			}
; 69   : 		else

	jmp	SHORT $LN5@operator
$LN4@operator:

; 70   : 			{
; 71   : 			_Ptr = _Mytree::_Min(_Ptr->_Right);	// ==> smallest of right subtree

	mov	ecx, DWORD PTR _this$[ebp]
	mov	edx, DWORD PTR [ecx+8]
	mov	eax, DWORD PTR [edx+8]
	push	eax
	call	?_Min@?$_Tree_val@U?$_Tree_simple_types@U?$pair@$$CBHPAVBaseGameEntity@@@std@@@std@@@std@@SAPAU?$_Tree_node@U?$pair@$$CBHPAVBaseGameEntity@@@std@@PAX@2@PAU32@@Z ; std::_Tree_val<std::_Tree_simple_types<std::pair<int const ,BaseGameEntity *> > >::_Min
	add	esp, 4
	mov	ecx, DWORD PTR _this$[ebp]
	mov	DWORD PTR [ecx+8], eax
$LN5@operator:

; 72   : 			}
; 73   : 
; 74   : 		return (*this);

	mov	eax, DWORD PTR _this$[ebp]

; 75   : 		}

	add	esp, 8
	cmp	ebp, esp
	call	__RTC_CheckEsp
	mov	esp, ebp
	pop	ebp
	ret	0
??E?$_Tree_unchecked_const_iterator@V?$_Tree_val@U?$_Tree_simple_types@U?$pair@$$CBHPAVBaseGameEntity@@@std@@@std@@@std@@U_Iterator_base12@2@@std@@QAEAAV01@XZ ENDP ; std::_Tree_unchecked_const_iterator<std::_Tree_val<std::_Tree_simple_types<std::pair<int const ,BaseGameEntity *> > >,std::_Iterator_base12>::operator++
_TEXT	ENDS
; Function compile flags: /Odtp /RTCsu
; File c:\program files (x86)\microsoft visual studio\2017\community\vc\tools\msvc\14.15.26726\include\xtree
;	COMDAT ??0?$_Tree_unchecked_const_iterator@V?$_Tree_val@U?$_Tree_simple_types@U?$pair@$$CBHPAVBaseGameEntity@@@std@@@std@@@std@@U_Iterator_base12@2@@std@@QAE@PAU?$_Tree_node@U?$pair@$$CBHPAVBaseGameEntity@@@std@@PAX@1@PBV?$_Tree_val@U?$_Tree_simple_types@U?$pair@$$CBHPAVBaseGameEntity@@@std@@@std@@@1@@Z
_TEXT	SEGMENT
_this$ = -4						; size = 4
__Pnode$ = 8						; size = 4
__Plist$ = 12						; size = 4
??0?$_Tree_unchecked_const_iterator@V?$_Tree_val@U?$_Tree_simple_types@U?$pair@$$CBHPAVBaseGameEntity@@@std@@@std@@@std@@U_Iterator_base12@2@@std@@QAE@PAU?$_Tree_node@U?$pair@$$CBHPAVBaseGameEntity@@@std@@PAX@1@PBV?$_Tree_val@U?$_Tree_simple_types@U?$pair@$$CBHPAVBaseGameEntity@@@std@@@std@@@1@@Z PROC ; std::_Tree_unchecked_const_iterator<std::_Tree_val<std::_Tree_simple_types<std::pair<int const ,BaseGameEntity *> > >,std::_Iterator_base12>::_Tree_unchecked_const_iterator<std::_Tree_val<std::_Tree_simple_types<std::pair<int const ,BaseGameEntity *> > >,std::_Iterator_base12>, COMDAT
; _this$ = ecx

; 43   : 		{	// construct with node pointer _Pnode

	push	ebp
	mov	ebp, esp
	push	ecx
	mov	DWORD PTR [ebp-4], -858993460		; ccccccccH
	mov	DWORD PTR _this$[ebp], ecx
	mov	ecx, DWORD PTR _this$[ebp]
	call	??0_Iterator_base12@std@@QAE@XZ		; std::_Iterator_base12::_Iterator_base12

; 42   : 		: _Ptr(_Pnode)

	mov	eax, DWORD PTR _this$[ebp]
	mov	ecx, DWORD PTR __Pnode$[ebp]
	mov	DWORD PTR [eax+8], ecx

; 44   : 		this->_Adopt(_Plist);

	mov	edx, DWORD PTR __Plist$[ebp]
	push	edx
	mov	ecx, DWORD PTR _this$[ebp]
	call	?_Adopt@_Iterator_base12@std@@QAEXPBU_Container_base12@2@@Z ; std::_Iterator_base12::_Adopt

; 45   : 		}

	mov	eax, DWORD PTR _this$[ebp]
	add	esp, 4
	cmp	ebp, esp
	call	__RTC_CheckEsp
	mov	esp, ebp
	pop	ebp
	ret	8
??0?$_Tree_unchecked_const_iterator@V?$_Tree_val@U?$_Tree_simple_types@U?$pair@$$CBHPAVBaseGameEntity@@@std@@@std@@@std@@U_Iterator_base12@2@@std@@QAE@PAU?$_Tree_node@U?$pair@$$CBHPAVBaseGameEntity@@@std@@PAX@1@PBV?$_Tree_val@U?$_Tree_simple_types@U?$pair@$$CBHPAVBaseGameEntity@@@std@@@std@@@1@@Z ENDP ; std::_Tree_unchecked_const_iterator<std::_Tree_val<std::_Tree_simple_types<std::pair<int const ,BaseGameEntity *> > >,std::_Iterator_base12>::_Tree_unchecked_const_iterator<std::_Tree_val<std::_Tree_simple_types<std::pair<int const ,BaseGameEntity *> > >,std::_Iterator_base12>
_TEXT	ENDS
; Function compile flags: /Odtp /RTCsu
;	COMDAT ??__Finstance@?1??Instance@EntityManager@@SAPAV1@XZ@YAXXZ
text$yd	SEGMENT
??__Finstance@?1??Instance@EntityManager@@SAPAV1@XZ@YAXXZ PROC ; `EntityManager::Instance'::`2'::`dynamic atexit destructor for 'instance'', COMDAT
	push	ebp
	mov	ebp, esp
	mov	ecx, OFFSET ?instance@?1??Instance@EntityManager@@SAPAV2@XZ@4V2@A
	call	??1EntityManager@@QAE@XZ
	cmp	ebp, esp
	call	__RTC_CheckEsp
	pop	ebp
	ret	0
??__Finstance@?1??Instance@EntityManager@@SAPAV1@XZ@YAXXZ ENDP ; `EntityManager::Instance'::`2'::`dynamic atexit destructor for 'instance''
text$yd	ENDS
; Function compile flags: /Odtp /RTCsu
; File c:\users\utilisateur\documents\gitkraken\8iar125-projetraven\vs2015\common\game\basegameentity.h
;	COMDAT ?ID@BaseGameEntity@@QBEHXZ
_TEXT	SEGMENT
_this$ = -4						; size = 4
?ID@BaseGameEntity@@QBEHXZ PROC				; BaseGameEntity::ID, COMDAT
; _this$ = ecx

; 94   :   int          ID()const{return m_ID;}

	push	ebp
	mov	ebp, esp
	push	ecx
	mov	DWORD PTR [ebp-4], -858993460		; ccccccccH
	mov	DWORD PTR _this$[ebp], ecx
	mov	eax, DWORD PTR _this$[ebp]
	mov	eax, DWORD PTR [eax+8]
	mov	esp, ebp
	pop	ebp
	ret	0
?ID@BaseGameEntity@@QBEHXZ ENDP				; BaseGameEntity::ID
_TEXT	ENDS
; Function compile flags: /Odtp /RTCsu
; File c:\users\utilisateur\documents\gitkraken\8iar125-projetraven\vs2015\common\misc\utils.h
;	COMDAT ??__EMinFloat@@YAXXZ
text$di	SEGMENT
??__EMinFloat@@YAXXZ PROC				; `dynamic initializer for 'MinFloat'', COMDAT

; 27   : const float   MinFloat  = (std::numeric_limits<float>::min)();

	push	ebp
	mov	ebp, esp
	call	?min@?$numeric_limits@M@std@@SAMXZ	; std::numeric_limits<float>::min
	fstp	DWORD PTR ?MinFloat@@3MB
	cmp	ebp, esp
	call	__RTC_CheckEsp
	pop	ebp
	ret	0
??__EMinFloat@@YAXXZ ENDP				; `dynamic initializer for 'MinFloat''
text$di	ENDS
; Function compile flags: /Odtp /RTCsu
; File c:\users\utilisateur\documents\gitkraken\8iar125-projetraven\vs2015\common\misc\utils.h
;	COMDAT ??__EMaxFloat@@YAXXZ
text$di	SEGMENT
??__EMaxFloat@@YAXXZ PROC				; `dynamic initializer for 'MaxFloat'', COMDAT

; 26   : const float   MaxFloat  = (std::numeric_limits<float>::max)();

	push	ebp
	mov	ebp, esp
	call	?max@?$numeric_limits@M@std@@SAMXZ	; std::numeric_limits<float>::max
	fstp	DWORD PTR ?MaxFloat@@3MB
	cmp	ebp, esp
	call	__RTC_CheckEsp
	pop	ebp
	ret	0
??__EMaxFloat@@YAXXZ ENDP				; `dynamic initializer for 'MaxFloat''
text$di	ENDS
; Function compile flags: /Odtp /RTCsu
; File c:\users\utilisateur\documents\gitkraken\8iar125-projetraven\vs2015\common\misc\utils.h
;	COMDAT ??__EMinDouble@@YAXXZ
text$di	SEGMENT
??__EMinDouble@@YAXXZ PROC				; `dynamic initializer for 'MinDouble'', COMDAT

; 25   : const double  MinDouble = (std::numeric_limits<double>::min)();

	push	ebp
	mov	ebp, esp
	call	?min@?$numeric_limits@N@std@@SANXZ	; std::numeric_limits<double>::min
	fstp	QWORD PTR ?MinDouble@@3NB
	cmp	ebp, esp
	call	__RTC_CheckEsp
	pop	ebp
	ret	0
??__EMinDouble@@YAXXZ ENDP				; `dynamic initializer for 'MinDouble''
text$di	ENDS
; Function compile flags: /Odtp /RTCsu
; File c:\users\utilisateur\documents\gitkraken\8iar125-projetraven\vs2015\common\misc\utils.h
;	COMDAT ??__EMaxDouble@@YAXXZ
text$di	SEGMENT
??__EMaxDouble@@YAXXZ PROC				; `dynamic initializer for 'MaxDouble'', COMDAT

; 24   : const double  MaxDouble = (std::numeric_limits<double>::max)();

	push	ebp
	mov	ebp, esp
	call	?max@?$numeric_limits@N@std@@SANXZ	; std::numeric_limits<double>::max
	fstp	QWORD PTR ?MaxDouble@@3NB
	cmp	ebp, esp
	call	__RTC_CheckEsp
	pop	ebp
	ret	0
??__EMaxDouble@@YAXXZ ENDP				; `dynamic initializer for 'MaxDouble''
text$di	ENDS
; Function compile flags: /Odtp /RTCsu
; File c:\users\utilisateur\documents\gitkraken\8iar125-projetraven\vs2015\common\misc\utils.h
;	COMDAT ??__EMaxInt@@YAXXZ
text$di	SEGMENT
??__EMaxInt@@YAXXZ PROC					; `dynamic initializer for 'MaxInt'', COMDAT

; 23   : const int     MaxInt    = (std::numeric_limits<int>::max)();

	push	ebp
	mov	ebp, esp
	call	?max@?$numeric_limits@H@std@@SAHXZ	; std::numeric_limits<int>::max
	mov	DWORD PTR ?MaxInt@@3HB, eax
	cmp	ebp, esp
	call	__RTC_CheckEsp
	pop	ebp
	ret	0
??__EMaxInt@@YAXXZ ENDP					; `dynamic initializer for 'MaxInt''
text$di	ENDS
; Function compile flags: /Odtp /RTCsu
;	COMDAT ??1EntityManager@@QAE@XZ
_TEXT	SEGMENT
_this$ = -4						; size = 4
??1EntityManager@@QAE@XZ PROC				; EntityManager::~EntityManager, COMDAT
; _this$ = ecx
	push	ebp
	mov	ebp, esp
	push	ecx
	mov	DWORD PTR [ebp-4], -858993460		; ccccccccH
	mov	DWORD PTR _this$[ebp], ecx
	mov	ecx, DWORD PTR _this$[ebp]
	call	??1?$map@HPAVBaseGameEntity@@U?$less@H@std@@V?$allocator@U?$pair@$$CBHPAVBaseGameEntity@@@std@@@3@@std@@QAE@XZ
	add	esp, 4
	cmp	ebp, esp
	call	__RTC_CheckEsp
	mov	esp, ebp
	pop	ebp
	ret	0
??1EntityManager@@QAE@XZ ENDP				; EntityManager::~EntityManager
_TEXT	ENDS
; Function compile flags: /Odtp /RTCsu
; File c:\users\utilisateur\documents\gitkraken\8iar125-projetraven\vs2015\common\game\entitymanager.cpp
_TEXT	SEGMENT
tv129 = -28						; size = 4
$T1 = -24						; size = 12
$T2 = -12						; size = 4
$T3 = -8						; size = 4
_this$ = -4						; size = 4
_pEntity$ = 8						; size = 4
?RemoveEntity@EntityManager@@QAEXPAVBaseGameEntity@@@Z PROC ; EntityManager::RemoveEntity
; _this$ = ecx

; 32   : {    

	push	ebp
	mov	ebp, esp
	sub	esp, 28					; 0000001cH
	mov	eax, -858993460				; ccccccccH
	mov	DWORD PTR [ebp-28], eax
	mov	DWORD PTR [ebp-24], eax
	mov	DWORD PTR [ebp-20], eax
	mov	DWORD PTR [ebp-16], eax
	mov	DWORD PTR [ebp-12], eax
	mov	DWORD PTR [ebp-8], eax
	mov	DWORD PTR [ebp-4], eax
	mov	DWORD PTR _this$[ebp], ecx

; 33   :   m_EntityMap.erase(m_EntityMap.find(pEntity->ID()));

	mov	ecx, DWORD PTR _pEntity$[ebp]
	call	?ID@BaseGameEntity@@QBEHXZ		; BaseGameEntity::ID
	mov	DWORD PTR $T2[ebp], eax
	sub	esp, 12					; 0000000cH
	mov	eax, esp
	mov	DWORD PTR $T3[ebp], esp
	lea	ecx, DWORD PTR $T2[ebp]
	push	ecx
	push	eax
	mov	ecx, DWORD PTR _this$[ebp]
	call	?find@?$_Tree@V?$_Tmap_traits@HPAVBaseGameEntity@@U?$less@H@std@@V?$allocator@U?$pair@$$CBHPAVBaseGameEntity@@@std@@@3@$0A@@std@@@std@@QAE?AV?$_Tree_iterator@V?$_Tree_val@U?$_Tree_simple_types@U?$pair@$$CBHPAVBaseGameEntity@@@std@@@std@@@std@@@2@ABH@Z ; std::_Tree<std::_Tmap_traits<int,BaseGameEntity *,std::less<int>,std::allocator<std::pair<int const ,BaseGameEntity *> >,0> >::find
	lea	edx, DWORD PTR $T1[ebp]
	push	edx
	mov	ecx, DWORD PTR _this$[ebp]
	call	??$erase@V?$_Tree_iterator@V?$_Tree_val@U?$_Tree_simple_types@U?$pair@$$CBHPAVBaseGameEntity@@@std@@@std@@@std@@@std@@X@?$_Tree@V?$_Tmap_traits@HPAVBaseGameEntity@@U?$less@H@std@@V?$allocator@U?$pair@$$CBHPAVBaseGameEntity@@@std@@@3@$0A@@std@@@std@@QAE?AV?$_Tree_iterator@V?$_Tree_val@U?$_Tree_simple_types@U?$pair@$$CBHPAVBaseGameEntity@@@std@@@std@@@std@@@1@V21@@Z ; std::_Tree<std::_Tmap_traits<int,BaseGameEntity *,std::less<int>,std::allocator<std::pair<int const ,BaseGameEntity *> >,0> >::erase<std::_Tree_iterator<std::_Tree_val<std::_Tree_simple_types<std::pair<int const ,BaseGameEntity *> > > >,void>
	mov	DWORD PTR tv129[ebp], eax
	lea	ecx, DWORD PTR $T1[ebp]
	call	??1?$_Tree_iterator@V?$_Tree_val@U?$_Tree_simple_types@U?$pair@$$CBHPAVBaseGameEntity@@@std@@@std@@@std@@@std@@QAE@XZ

; 34   : } 

	add	esp, 28					; 0000001cH
	cmp	ebp, esp
	call	__RTC_CheckEsp
	mov	esp, ebp
	pop	ebp
	ret	4
?RemoveEntity@EntityManager@@QAEXPAVBaseGameEntity@@@Z ENDP ; EntityManager::RemoveEntity
_TEXT	ENDS
; Function compile flags: /Odtp /RTCsu
; File c:\users\utilisateur\documents\gitkraken\8iar125-projetraven\vs2015\common\game\entitymanager.cpp
_TEXT	SEGMENT
tv134 = -64						; size = 4
tv70 = -60						; size = 4
$T2 = -56						; size = 4
$T3 = -52						; size = 4
$T4 = -48						; size = 12
_ent$ = -32						; size = 12
_this$ = -16						; size = 4
__$EHRec$ = -12						; size = 12
_id$ = 8						; size = 4
?GetEntityFromID@EntityManager@@QBEPAVBaseGameEntity@@H@Z PROC ; EntityManager::GetEntityFromID
; _this$ = ecx

; 19   : {

	push	ebp
	mov	ebp, esp
	push	-1
	push	__ehhandler$?GetEntityFromID@EntityManager@@QBEPAVBaseGameEntity@@H@Z
	mov	eax, DWORD PTR fs:0
	push	eax
	sub	esp, 52					; 00000034H
	push	edi
	push	ecx
	lea	edi, DWORD PTR [ebp-64]
	mov	ecx, 13					; 0000000dH
	mov	eax, -858993460				; ccccccccH
	rep stosd
	pop	ecx
	mov	eax, DWORD PTR ___security_cookie
	xor	eax, ebp
	push	eax
	lea	eax, DWORD PTR __$EHRec$[ebp]
	mov	DWORD PTR fs:0, eax
	mov	DWORD PTR _this$[ebp], ecx
	mov	DWORD PTR $T2[ebp], 0

; 20   :   //find the entity
; 21   :   EntityMap::const_iterator ent = m_EntityMap.find(id);

	lea	eax, DWORD PTR _id$[ebp]
	push	eax
	lea	ecx, DWORD PTR _ent$[ebp]
	push	ecx
	mov	ecx, DWORD PTR _this$[ebp]
	call	?find@?$_Tree@V?$_Tmap_traits@HPAVBaseGameEntity@@U?$less@H@std@@V?$allocator@U?$pair@$$CBHPAVBaseGameEntity@@@std@@@3@$0A@@std@@@std@@QBE?AV?$_Tree_const_iterator@V?$_Tree_val@U?$_Tree_simple_types@U?$pair@$$CBHPAVBaseGameEntity@@@std@@@std@@@std@@@2@ABH@Z ; std::_Tree<std::_Tmap_traits<int,BaseGameEntity *,std::less<int>,std::allocator<std::pair<int const ,BaseGameEntity *> >,0> >::find
	mov	DWORD PTR __$EHRec$[ebp+8], 0

; 22   : 
; 23   :   //assert that the entity is a member of the map
; 24   :   assert ( (ent !=  m_EntityMap.end()) && "<EntityManager::GetEntityFromID>: invalid ID");

	lea	edx, DWORD PTR $T4[ebp]
	push	edx
	mov	ecx, DWORD PTR _this$[ebp]
	call	?end@?$_Tree@V?$_Tmap_traits@HPAVBaseGameEntity@@U?$less@H@std@@V?$allocator@U?$pair@$$CBHPAVBaseGameEntity@@@std@@@3@$0A@@std@@@std@@QBE?AV?$_Tree_const_iterator@V?$_Tree_val@U?$_Tree_simple_types@U?$pair@$$CBHPAVBaseGameEntity@@@std@@@std@@@std@@@2@XZ ; std::_Tree<std::_Tmap_traits<int,BaseGameEntity *,std::less<int>,std::allocator<std::pair<int const ,BaseGameEntity *> >,0> >::end
	mov	DWORD PTR tv70[ebp], eax
	mov	eax, DWORD PTR tv70[ebp]
	mov	DWORD PTR tv134[ebp], eax
	mov	BYTE PTR __$EHRec$[ebp+8], 1
	mov	ecx, DWORD PTR $T2[ebp]
	or	ecx, 1
	mov	DWORD PTR $T2[ebp], ecx
	mov	edx, DWORD PTR tv134[ebp]
	push	edx
	lea	ecx, DWORD PTR _ent$[ebp]
	call	??9?$_Tree_const_iterator@V?$_Tree_val@U?$_Tree_simple_types@U?$pair@$$CBHPAVBaseGameEntity@@@std@@@std@@@std@@@std@@QBE_NABV01@@Z ; std::_Tree_const_iterator<std::_Tree_val<std::_Tree_simple_types<std::pair<int const ,BaseGameEntity *> > > >::operator!=
	movzx	eax, al
	test	eax, eax
	je	SHORT $LN3@GetEntityF
	mov	ecx, OFFSET $SG148374
	test	ecx, ecx
	jne	SHORT $LN4@GetEntityF
$LN3@GetEntityF:
	push	24					; 00000018H
	push	OFFSET $SG148375
	push	OFFSET $SG148376
	call	__wassert
	add	esp, 12					; 0000000cH
$LN4@GetEntityF:
	mov	DWORD PTR __$EHRec$[ebp+8], 0
	mov	eax, DWORD PTR $T2[ebp]
	and	eax, 1
	je	SHORT $LN8@GetEntityF
	and	DWORD PTR $T2[ebp], -2			; fffffffeH
	lea	ecx, DWORD PTR $T4[ebp]
	call	??1?$_Tree_const_iterator@V?$_Tree_val@U?$_Tree_simple_types@U?$pair@$$CBHPAVBaseGameEntity@@@std@@@std@@@std@@@std@@QAE@XZ
$LN8@GetEntityF:

; 25   : 
; 26   :   return ent->second;

	lea	ecx, DWORD PTR _ent$[ebp]
	call	??C?$_Tree_const_iterator@V?$_Tree_val@U?$_Tree_simple_types@U?$pair@$$CBHPAVBaseGameEntity@@@std@@@std@@@std@@@std@@QBEPBU?$pair@$$CBHPAVBaseGameEntity@@@1@XZ ; std::_Tree_const_iterator<std::_Tree_val<std::_Tree_simple_types<std::pair<int const ,BaseGameEntity *> > > >::operator->
	mov	ecx, DWORD PTR [eax+4]
	mov	DWORD PTR $T3[ebp], ecx
	mov	DWORD PTR __$EHRec$[ebp+8], -1
	lea	ecx, DWORD PTR _ent$[ebp]
	call	??1?$_Tree_const_iterator@V?$_Tree_val@U?$_Tree_simple_types@U?$pair@$$CBHPAVBaseGameEntity@@@std@@@std@@@std@@@std@@QAE@XZ
	mov	eax, DWORD PTR $T3[ebp]

; 27   : }

	push	edx
	mov	ecx, ebp
	push	eax
	lea	edx, DWORD PTR $LN12@GetEntityF
	call	@_RTC_CheckStackVars@8
	pop	eax
	pop	edx
	mov	ecx, DWORD PTR __$EHRec$[ebp]
	mov	DWORD PTR fs:0, ecx
	pop	ecx
	pop	edi
	add	esp, 64					; 00000040H
	cmp	ebp, esp
	call	__RTC_CheckEsp
	mov	esp, ebp
	pop	ebp
	ret	4
	npad	2
$LN12@GetEntityF:
	DD	1
	DD	$LN11@GetEntityF
$LN11@GetEntityF:
	DD	-32					; ffffffe0H
	DD	12					; 0000000cH
	DD	$LN9@GetEntityF
$LN9@GetEntityF:
	DB	101					; 00000065H
	DB	110					; 0000006eH
	DB	116					; 00000074H
	DB	0
_TEXT	ENDS
text$x	SEGMENT
__unwindfunclet$?GetEntityFromID@EntityManager@@QBEPAVBaseGameEntity@@H@Z$0:
	lea	ecx, DWORD PTR _ent$[ebp]
	jmp	??1?$_Tree_const_iterator@V?$_Tree_val@U?$_Tree_simple_types@U?$pair@$$CBHPAVBaseGameEntity@@@std@@@std@@@std@@@std@@QAE@XZ
__unwindfunclet$?GetEntityFromID@EntityManager@@QBEPAVBaseGameEntity@@H@Z$1:
	mov	eax, DWORD PTR $T2[ebp]
	and	eax, 1
	je	$LN7@GetEntityF
	and	DWORD PTR $T2[ebp], -2			; fffffffeH
	lea	ecx, DWORD PTR $T4[ebp]
	jmp	??1?$_Tree_const_iterator@V?$_Tree_val@U?$_Tree_simple_types@U?$pair@$$CBHPAVBaseGameEntity@@@std@@@std@@@std@@@std@@QAE@XZ
$LN7@GetEntityF:
	ret	0
__ehhandler$?GetEntityFromID@EntityManager@@QBEPAVBaseGameEntity@@H@Z:
	mov	edx, DWORD PTR [esp+8]
	lea	eax, DWORD PTR [edx+12]
	mov	ecx, DWORD PTR [edx-60]
	xor	ecx, eax
	call	@__security_check_cookie@4
	mov	eax, OFFSET __ehfuncinfo$?GetEntityFromID@EntityManager@@QBEPAVBaseGameEntity@@H@Z
	jmp	___CxxFrameHandler3
text$x	ENDS
?GetEntityFromID@EntityManager@@QBEPAVBaseGameEntity@@H@Z ENDP ; EntityManager::GetEntityFromID
; Function compile flags: /Odtp /RTCsu
; File c:\users\utilisateur\documents\gitkraken\8iar125-projetraven\vs2015\common\game\entitymanager.cpp
_TEXT	SEGMENT
$T1 = -32						; size = 16
$T2 = -16						; size = 8
$T3 = -8						; size = 4
_this$ = -4						; size = 4
_NewEntity$ = 8						; size = 4
?RegisterEntity@EntityManager@@QAEXPAVBaseGameEntity@@@Z PROC ; EntityManager::RegisterEntity
; _this$ = ecx

; 39   : {

	push	ebp
	mov	ebp, esp
	sub	esp, 32					; 00000020H
	mov	eax, -858993460				; ccccccccH
	mov	DWORD PTR [ebp-32], eax
	mov	DWORD PTR [ebp-28], eax
	mov	DWORD PTR [ebp-24], eax
	mov	DWORD PTR [ebp-20], eax
	mov	DWORD PTR [ebp-16], eax
	mov	DWORD PTR [ebp-12], eax
	mov	DWORD PTR [ebp-8], eax
	mov	DWORD PTR [ebp-4], eax
	mov	DWORD PTR _this$[ebp], ecx

; 40   :   m_EntityMap.insert(std::make_pair(NewEntity->ID(), NewEntity));

	mov	ecx, DWORD PTR _NewEntity$[ebp]
	call	?ID@BaseGameEntity@@QBEHXZ		; BaseGameEntity::ID
	mov	DWORD PTR $T3[ebp], eax
	lea	eax, DWORD PTR _NewEntity$[ebp]
	push	eax
	lea	ecx, DWORD PTR $T3[ebp]
	push	ecx
	lea	edx, DWORD PTR $T2[ebp]
	push	edx
	call	??$make_pair@HAAPAVBaseGameEntity@@@std@@YA?AU?$pair@HPAVBaseGameEntity@@@0@$$QAHAAPAVBaseGameEntity@@@Z ; std::make_pair<int,BaseGameEntity * &>
	add	esp, 12					; 0000000cH
	push	eax
	lea	eax, DWORD PTR $T1[ebp]
	push	eax
	mov	ecx, DWORD PTR _this$[ebp]
	call	??$insert@U?$pair@HPAVBaseGameEntity@@@std@@X@?$map@HPAVBaseGameEntity@@U?$less@H@std@@V?$allocator@U?$pair@$$CBHPAVBaseGameEntity@@@std@@@3@@std@@QAE?AU?$pair@V?$_Tree_iterator@V?$_Tree_val@U?$_Tree_simple_types@U?$pair@$$CBHPAVBaseGameEntity@@@std@@@std@@@std@@@std@@_N@1@$$QAU?$pair@HPAVBaseGameEntity@@@1@@Z ; std::map<int,BaseGameEntity *,std::less<int>,std::allocator<std::pair<int const ,BaseGameEntity *> > >::insert<std::pair<int,BaseGameEntity *>,void>
	lea	ecx, DWORD PTR $T1[ebp]
	call	??1?$pair@V?$_Tree_iterator@V?$_Tree_val@U?$_Tree_simple_types@U?$pair@$$CBHPAVBaseGameEntity@@@std@@@std@@@std@@@std@@_N@std@@QAE@XZ

; 41   : }

	add	esp, 32					; 00000020H
	cmp	ebp, esp
	call	__RTC_CheckEsp
	mov	esp, ebp
	pop	ebp
	ret	4
?RegisterEntity@EntityManager@@QAEXPAVBaseGameEntity@@@Z ENDP ; EntityManager::RegisterEntity
_TEXT	ENDS
; Function compile flags: /Odtp /RTCsu
; File c:\users\utilisateur\documents\gitkraken\8iar125-projetraven\vs2015\common\game\entitymanager.cpp
_TEXT	SEGMENT
__$EHRec$ = -12						; size = 12
?Instance@EntityManager@@SAPAV1@XZ PROC			; EntityManager::Instance

; 10   : {

	push	ebp
	mov	ebp, esp
	push	-1
	push	__ehhandler$?Instance@EntityManager@@SAPAV1@XZ
	mov	eax, DWORD PTR fs:0
	push	eax
	mov	eax, DWORD PTR ___security_cookie
	xor	eax, ebp
	push	eax
	lea	eax, DWORD PTR __$EHRec$[ebp]
	mov	DWORD PTR fs:0, eax

; 11   :   static EntityManager instance;

	mov	eax, DWORD PTR __tls_index
	mov	ecx, DWORD PTR fs:__tls_array
	mov	edx, DWORD PTR [ecx+eax*4]
	mov	eax, DWORD PTR ?$TSS0@?1??Instance@EntityManager@@SAPAV2@XZ@4HA
	cmp	eax, DWORD PTR __Init_thread_epoch[edx]
	jle	SHORT $LN2@Instance
	push	OFFSET ?$TSS0@?1??Instance@EntityManager@@SAPAV2@XZ@4HA
	call	__Init_thread_header
	add	esp, 4
	cmp	DWORD PTR ?$TSS0@?1??Instance@EntityManager@@SAPAV2@XZ@4HA, -1
	jne	SHORT $LN2@Instance
	mov	DWORD PTR __$EHRec$[ebp+8], 0
	mov	ecx, OFFSET ?instance@?1??Instance@EntityManager@@SAPAV2@XZ@4V2@A
	call	??0EntityManager@@AAE@XZ		; EntityManager::EntityManager
	push	OFFSET ??__Finstance@?1??Instance@EntityManager@@SAPAV1@XZ@YAXXZ ; `EntityManager::Instance'::`2'::`dynamic atexit destructor for 'instance''
	call	_atexit
	add	esp, 4
	mov	DWORD PTR __$EHRec$[ebp+8], -1
	push	OFFSET ?$TSS0@?1??Instance@EntityManager@@SAPAV2@XZ@4HA
	call	__Init_thread_footer
	add	esp, 4
$LN2@Instance:

; 12   : 
; 13   :   return &instance;

	mov	eax, OFFSET ?instance@?1??Instance@EntityManager@@SAPAV2@XZ@4V2@A

; 14   : }

	mov	ecx, DWORD PTR __$EHRec$[ebp]
	mov	DWORD PTR fs:0, ecx
	pop	ecx
	add	esp, 12					; 0000000cH
	cmp	ebp, esp
	call	__RTC_CheckEsp
	mov	esp, ebp
	pop	ebp
	ret	0
_TEXT	ENDS
text$x	SEGMENT
__unwindfunclet$?Instance@EntityManager@@SAPAV1@XZ$0:
	push	OFFSET ?$TSS0@?1??Instance@EntityManager@@SAPAV2@XZ@4HA
	call	__Init_thread_abort
	pop	ecx
	ret	0
__ehhandler$?Instance@EntityManager@@SAPAV1@XZ:
	mov	edx, DWORD PTR [esp+8]
	lea	eax, DWORD PTR [edx+12]
	mov	ecx, DWORD PTR [edx-4]
	xor	ecx, eax
	call	@__security_check_cookie@4
	mov	eax, OFFSET __ehfuncinfo$?Instance@EntityManager@@SAPAV1@XZ
	jmp	___CxxFrameHandler3
text$x	ENDS
?Instance@EntityManager@@SAPAV1@XZ ENDP			; EntityManager::Instance
; Function compile flags: /Odtp /RTCsu
; File c:\users\utilisateur\documents\gitkraken\8iar125-projetraven\vs2015\common\game\entitymanager.h
;	COMDAT ??0EntityManager@@AAE@XZ
_TEXT	SEGMENT
_this$ = -4						; size = 4
??0EntityManager@@AAE@XZ PROC				; EntityManager::EntityManager, COMDAT
; _this$ = ecx

; 36   :   EntityManager(){}

	push	ebp
	mov	ebp, esp
	push	ecx
	mov	DWORD PTR [ebp-4], -858993460		; ccccccccH
	mov	DWORD PTR _this$[ebp], ecx
	mov	ecx, DWORD PTR _this$[ebp]
	call	??0?$map@HPAVBaseGameEntity@@U?$less@H@std@@V?$allocator@U?$pair@$$CBHPAVBaseGameEntity@@@std@@@3@@std@@QAE@XZ ; std::map<int,BaseGameEntity *,std::less<int>,std::allocator<std::pair<int const ,BaseGameEntity *> > >::map<int,BaseGameEntity *,std::less<int>,std::allocator<std::pair<int const ,BaseGameEntity *> > >
	mov	eax, DWORD PTR _this$[ebp]
	add	esp, 4
	cmp	ebp, esp
	call	__RTC_CheckEsp
	mov	esp, ebp
	pop	ebp
	ret	0
??0EntityManager@@AAE@XZ ENDP				; EntityManager::EntityManager
_TEXT	ENDS
; Function compile flags: /Odtp /RTCsu
;	COMDAT ??1?$map@HPAVBaseGameEntity@@U?$less@H@std@@V?$allocator@U?$pair@$$CBHPAVBaseGameEntity@@@std@@@3@@std@@QAE@XZ
_TEXT	SEGMENT
_this$ = -4						; size = 4
??1?$map@HPAVBaseGameEntity@@U?$less@H@std@@V?$allocator@U?$pair@$$CBHPAVBaseGameEntity@@@std@@@3@@std@@QAE@XZ PROC ; std::map<int,BaseGameEntity *,std::less<int>,std::allocator<std::pair<int const ,BaseGameEntity *> > >::~map<int,BaseGameEntity *,std::less<int>,std::allocator<std::pair<int const ,BaseGameEntity *> > >, COMDAT
; _this$ = ecx
	push	ebp
	mov	ebp, esp
	push	ecx
	mov	DWORD PTR [ebp-4], -858993460		; ccccccccH
	mov	DWORD PTR _this$[ebp], ecx
	mov	ecx, DWORD PTR _this$[ebp]
	call	??1?$_Tree@V?$_Tmap_traits@HPAVBaseGameEntity@@U?$less@H@std@@V?$allocator@U?$pair@$$CBHPAVBaseGameEntity@@@std@@@3@$0A@@std@@@std@@QAE@XZ ; std::_Tree<std::_Tmap_traits<int,BaseGameEntity *,std::less<int>,std::allocator<std::pair<int const ,BaseGameEntity *> >,0> >::~_Tree<std::_Tmap_traits<int,BaseGameEntity *,std::less<int>,std::allocator<std::pair<int const ,BaseGameEntity *> >,0> >
	add	esp, 4
	cmp	ebp, esp
	call	__RTC_CheckEsp
	mov	esp, ebp
	pop	ebp
	ret	0
??1?$map@HPAVBaseGameEntity@@U?$less@H@std@@V?$allocator@U?$pair@$$CBHPAVBaseGameEntity@@@std@@@3@@std@@QAE@XZ ENDP ; std::map<int,BaseGameEntity *,std::less<int>,std::allocator<std::pair<int const ,BaseGameEntity *> > >::~map<int,BaseGameEntity *,std::less<int>,std::allocator<std::pair<int const ,BaseGameEntity *> > >
_TEXT	ENDS
; Function compile flags: /Odtp /RTCsu
; File c:\program files (x86)\microsoft visual studio\2017\community\vc\tools\msvc\14.15.26726\include\map
;	COMDAT ??0?$map@HPAVBaseGameEntity@@U?$less@H@std@@V?$allocator@U?$pair@$$CBHPAVBaseGameEntity@@@std@@@3@@std@@QAE@XZ
_TEXT	SEGMENT
$T1 = -5						; size = 1
_this$ = -4						; size = 4
??0?$map@HPAVBaseGameEntity@@U?$less@H@std@@V?$allocator@U?$pair@$$CBHPAVBaseGameEntity@@@std@@@3@@std@@QAE@XZ PROC ; std::map<int,BaseGameEntity *,std::less<int>,std::allocator<std::pair<int const ,BaseGameEntity *> > >::map<int,BaseGameEntity *,std::less<int>,std::allocator<std::pair<int const ,BaseGameEntity *> > >, COMDAT
; _this$ = ecx

; 115  : 		{	// construct empty map from defaults

	push	ebp
	mov	ebp, esp
	sub	esp, 8
	mov	DWORD PTR [ebp-8], -858993460		; ccccccccH
	mov	DWORD PTR [ebp-4], -858993460		; ccccccccH
	mov	DWORD PTR _this$[ebp], ecx

; 114  : 		: _Mybase(key_compare())

	lea	eax, DWORD PTR $T1[ebp]
	push	eax
	mov	ecx, DWORD PTR _this$[ebp]
	call	??0?$_Tree@V?$_Tmap_traits@HPAVBaseGameEntity@@U?$less@H@std@@V?$allocator@U?$pair@$$CBHPAVBaseGameEntity@@@std@@@3@$0A@@std@@@std@@QAE@ABU?$less@H@1@@Z ; std::_Tree<std::_Tmap_traits<int,BaseGameEntity *,std::less<int>,std::allocator<std::pair<int const ,BaseGameEntity *> >,0> >::_Tree<std::_Tmap_traits<int,BaseGameEntity *,std::less<int>,std::allocator<std::pair<int const ,BaseGameEntity *> >,0> >

; 116  : 		}

	mov	eax, DWORD PTR _this$[ebp]
	add	esp, 8
	cmp	ebp, esp
	call	__RTC_CheckEsp
	mov	esp, ebp
	pop	ebp
	ret	0
??0?$map@HPAVBaseGameEntity@@U?$less@H@std@@V?$allocator@U?$pair@$$CBHPAVBaseGameEntity@@@std@@@3@@std@@QAE@XZ ENDP ; std::map<int,BaseGameEntity *,std::less<int>,std::allocator<std::pair<int const ,BaseGameEntity *> > >::map<int,BaseGameEntity *,std::less<int>,std::allocator<std::pair<int const ,BaseGameEntity *> > >
_TEXT	ENDS
; Function compile flags: /Odtp /RTCsu
; File c:\program files (x86)\microsoft visual studio\2017\community\vc\tools\msvc\14.15.26726\include\xtree
;	COMDAT ?_Key@?$_Tree@V?$_Tmap_traits@HPAVBaseGameEntity@@U?$less@H@std@@V?$allocator@U?$pair@$$CBHPAVBaseGameEntity@@@std@@@3@$0A@@std@@@std@@IBEABHPAU?$_Tree_node@U?$pair@$$CBHPAVBaseGameEntity@@@std@@PAX@2@@Z
_TEXT	SEGMENT
_this$ = -4						; size = 4
__Pnode$ = 8						; size = 4
?_Key@?$_Tree@V?$_Tmap_traits@HPAVBaseGameEntity@@U?$less@H@std@@V?$allocator@U?$pair@$$CBHPAVBaseGameEntity@@@std@@@3@$0A@@std@@@std@@IBEABHPAU?$_Tree_node@U?$pair@$$CBHPAVBaseGameEntity@@@std@@PAX@2@@Z PROC ; std::_Tree<std::_Tmap_traits<int,BaseGameEntity *,std::less<int>,std::allocator<std::pair<int const ,BaseGameEntity *> >,0> >::_Key, COMDAT
; _this$ = ecx

; 2122 : 		{	// return reference to key in node

	push	ebp
	mov	ebp, esp
	push	ecx
	mov	DWORD PTR [ebp-4], -858993460		; ccccccccH
	mov	DWORD PTR _this$[ebp], ecx

; 2123 : 		return (this->_Kfn(_Pnode->_Myval));

	mov	eax, DWORD PTR __Pnode$[ebp]
	add	eax, 16					; 00000010H
	push	eax
	mov	ecx, DWORD PTR _this$[ebp]
	call	?_Kfn@?$_Tree@V?$_Tmap_traits@HPAVBaseGameEntity@@U?$less@H@std@@V?$allocator@U?$pair@$$CBHPAVBaseGameEntity@@@std@@@3@$0A@@std@@@std@@IBEABHABU?$pair@$$CBHPAVBaseGameEntity@@@2@@Z ; std::_Tree<std::_Tmap_traits<int,BaseGameEntity *,std::less<int>,std::allocator<std::pair<int const ,BaseGameEntity *> >,0> >::_Kfn

; 2124 : 		}

	add	esp, 4
	cmp	ebp, esp
	call	__RTC_CheckEsp
	mov	esp, ebp
	pop	ebp
	ret	4
?_Key@?$_Tree@V?$_Tmap_traits@HPAVBaseGameEntity@@U?$less@H@std@@V?$allocator@U?$pair@$$CBHPAVBaseGameEntity@@@std@@@3@$0A@@std@@@std@@IBEABHPAU?$_Tree_node@U?$pair@$$CBHPAVBaseGameEntity@@@std@@PAX@2@@Z ENDP ; std::_Tree<std::_Tmap_traits<int,BaseGameEntity *,std::less<int>,std::allocator<std::pair<int const ,BaseGameEntity *> >,0> >::_Key
_TEXT	ENDS
; Function compile flags: /Odtp /RTCsu
; File c:\program files (x86)\microsoft visual studio\2017\community\vc\tools\msvc\14.15.26726\include\xtree
;	COMDAT ?_Kfn@?$_Tree@V?$_Tmap_traits@HPAVBaseGameEntity@@U?$less@H@std@@V?$allocator@U?$pair@$$CBHPAVBaseGameEntity@@@std@@@3@$0A@@std@@@std@@IBEABHABU?$pair@$$CBHPAVBaseGameEntity@@@2@@Z
_TEXT	SEGMENT
_this$ = -4						; size = 4
__Val$ = 8						; size = 4
?_Kfn@?$_Tree@V?$_Tmap_traits@HPAVBaseGameEntity@@U?$less@H@std@@V?$allocator@U?$pair@$$CBHPAVBaseGameEntity@@@std@@@3@$0A@@std@@@std@@IBEABHABU?$pair@$$CBHPAVBaseGameEntity@@@2@@Z PROC ; std::_Tree<std::_Tmap_traits<int,BaseGameEntity *,std::less<int>,std::allocator<std::pair<int const ,BaseGameEntity *> >,0> >::_Kfn, COMDAT
; _this$ = ecx

; 2117 : 		{	// get key from value

	push	ebp
	mov	ebp, esp
	push	ecx
	mov	DWORD PTR [ebp-4], -858993460		; ccccccccH
	mov	DWORD PTR _this$[ebp], ecx

; 2118 : 		return (_Traits::_Kfn(_Val));

	mov	eax, DWORD PTR __Val$[ebp]
	push	eax
	call	??$_Kfn@$$CBHPAVBaseGameEntity@@@?$_Tmap_traits@HPAVBaseGameEntity@@U?$less@H@std@@V?$allocator@U?$pair@$$CBHPAVBaseGameEntity@@@std@@@3@$0A@@std@@SAABHABU?$pair@$$CBHPAVBaseGameEntity@@@1@@Z ; std::_Tmap_traits<int,BaseGameEntity *,std::less<int>,std::allocator<std::pair<int const ,BaseGameEntity *> >,0>::_Kfn<int const ,BaseGameEntity *>
	add	esp, 4

; 2119 : 		}

	add	esp, 4
	cmp	ebp, esp
	call	__RTC_CheckEsp
	mov	esp, ebp
	pop	ebp
	ret	4
?_Kfn@?$_Tree@V?$_Tmap_traits@HPAVBaseGameEntity@@U?$less@H@std@@V?$allocator@U?$pair@$$CBHPAVBaseGameEntity@@@std@@@3@$0A@@std@@@std@@IBEABHABU?$pair@$$CBHPAVBaseGameEntity@@@2@@Z ENDP ; std::_Tree<std::_Tmap_traits<int,BaseGameEntity *,std::less<int>,std::allocator<std::pair<int const ,BaseGameEntity *> >,0> >::_Kfn
_TEXT	ENDS
; Function compile flags: /Odtp /RTCsu
; File c:\program files (x86)\microsoft visual studio\2017\community\vc\tools\msvc\14.15.26726\include\xtree
;	COMDAT ?_Tidy@?$_Tree@V?$_Tmap_traits@HPAVBaseGameEntity@@U?$less@H@std@@V?$allocator@U?$pair@$$CBHPAVBaseGameEntity@@@std@@@3@$0A@@std@@@std@@IAEXXZ
_TEXT	SEGMENT
tv149 = -80						; size = 4
tv151 = -76						; size = 4
tv157 = -72						; size = 4
tv146 = -68						; size = 4
tv156 = -64						; size = 4
$T2 = -60						; size = 12
$T3 = -48						; size = 12
$T4 = -36						; size = 4
$T5 = -32						; size = 12
$T6 = -20						; size = 4
_this$ = -16						; size = 4
__$EHRec$ = -12						; size = 12
?_Tidy@?$_Tree@V?$_Tmap_traits@HPAVBaseGameEntity@@U?$less@H@std@@V?$allocator@U?$pair@$$CBHPAVBaseGameEntity@@@std@@@3@$0A@@std@@@std@@IAEXXZ PROC ; std::_Tree<std::_Tmap_traits<int,BaseGameEntity *,std::less<int>,std::allocator<std::pair<int const ,BaseGameEntity *> >,0> >::_Tidy, COMDAT
; _this$ = ecx

; 2112 : 		{	// free all storage

	push	ebp
	mov	ebp, esp
	push	-1
	push	__ehhandler$?_Tidy@?$_Tree@V?$_Tmap_traits@HPAVBaseGameEntity@@U?$less@H@std@@V?$allocator@U?$pair@$$CBHPAVBaseGameEntity@@@std@@@3@$0A@@std@@@std@@IAEXXZ
	mov	eax, DWORD PTR fs:0
	push	eax
	sub	esp, 68					; 00000044H
	push	esi
	push	edi
	push	ecx
	lea	edi, DWORD PTR [ebp-80]
	mov	ecx, 17					; 00000011H
	mov	eax, -858993460				; ccccccccH
	rep stosd
	pop	ecx
	mov	eax, DWORD PTR ___security_cookie
	xor	eax, ebp
	push	eax
	lea	eax, DWORD PTR __$EHRec$[ebp]
	mov	DWORD PTR fs:0, eax
	mov	DWORD PTR _this$[ebp], ecx

; 2113 : 		erase(begin(), end());

	sub	esp, 12					; 0000000cH
	mov	esi, esp
	mov	DWORD PTR $T6[ebp], esp
	lea	eax, DWORD PTR $T5[ebp]
	push	eax
	mov	ecx, DWORD PTR _this$[ebp]
	call	?end@?$_Tree@V?$_Tmap_traits@HPAVBaseGameEntity@@U?$less@H@std@@V?$allocator@U?$pair@$$CBHPAVBaseGameEntity@@@std@@@3@$0A@@std@@@std@@QAE?AV?$_Tree_iterator@V?$_Tree_val@U?$_Tree_simple_types@U?$pair@$$CBHPAVBaseGameEntity@@@std@@@std@@@std@@@2@XZ ; std::_Tree<std::_Tmap_traits<int,BaseGameEntity *,std::less<int>,std::allocator<std::pair<int const ,BaseGameEntity *> >,0> >::end
	mov	DWORD PTR tv156[ebp], eax
	mov	ecx, DWORD PTR tv156[ebp]
	mov	DWORD PTR tv146[ebp], ecx
	mov	DWORD PTR __$EHRec$[ebp+8], 0
	mov	edx, DWORD PTR tv146[ebp]
	push	edx
	mov	ecx, esi
	call	??0?$_Tree_const_iterator@V?$_Tree_val@U?$_Tree_simple_types@U?$pair@$$CBHPAVBaseGameEntity@@@std@@@std@@@std@@@std@@QAE@$$QAV01@@Z
	sub	esp, 12					; 0000000cH
	mov	esi, esp
	mov	DWORD PTR $T4[ebp], esp
	lea	eax, DWORD PTR $T3[ebp]
	push	eax
	mov	ecx, DWORD PTR _this$[ebp]
	call	?begin@?$_Tree@V?$_Tmap_traits@HPAVBaseGameEntity@@U?$less@H@std@@V?$allocator@U?$pair@$$CBHPAVBaseGameEntity@@@std@@@3@$0A@@std@@@std@@QAE?AV?$_Tree_iterator@V?$_Tree_val@U?$_Tree_simple_types@U?$pair@$$CBHPAVBaseGameEntity@@@std@@@std@@@std@@@2@XZ ; std::_Tree<std::_Tmap_traits<int,BaseGameEntity *,std::less<int>,std::allocator<std::pair<int const ,BaseGameEntity *> >,0> >::begin
	mov	DWORD PTR tv157[ebp], eax
	mov	ecx, DWORD PTR tv157[ebp]
	mov	DWORD PTR tv151[ebp], ecx
	mov	BYTE PTR __$EHRec$[ebp+8], 1
	mov	edx, DWORD PTR tv151[ebp]
	push	edx
	mov	ecx, esi
	call	??0?$_Tree_const_iterator@V?$_Tree_val@U?$_Tree_simple_types@U?$pair@$$CBHPAVBaseGameEntity@@@std@@@std@@@std@@@std@@QAE@$$QAV01@@Z
	lea	eax, DWORD PTR $T2[ebp]
	push	eax
	mov	ecx, DWORD PTR _this$[ebp]
	call	?erase@?$_Tree@V?$_Tmap_traits@HPAVBaseGameEntity@@U?$less@H@std@@V?$allocator@U?$pair@$$CBHPAVBaseGameEntity@@@std@@@3@$0A@@std@@@std@@QAE?AV?$_Tree_iterator@V?$_Tree_val@U?$_Tree_simple_types@U?$pair@$$CBHPAVBaseGameEntity@@@std@@@std@@@std@@@2@V?$_Tree_const_iterator@V?$_Tree_val@U?$_Tree_simple_types@U?$pair@$$CBHPAVBaseGameEntity@@@std@@@std@@@std@@@2@0@Z ; std::_Tree<std::_Tmap_traits<int,BaseGameEntity *,std::less<int>,std::allocator<std::pair<int const ,BaseGameEntity *> >,0> >::erase
	mov	DWORD PTR tv149[ebp], eax
	lea	ecx, DWORD PTR $T2[ebp]
	call	??1?$_Tree_iterator@V?$_Tree_val@U?$_Tree_simple_types@U?$pair@$$CBHPAVBaseGameEntity@@@std@@@std@@@std@@@std@@QAE@XZ
	mov	BYTE PTR __$EHRec$[ebp+8], 0
	lea	ecx, DWORD PTR $T3[ebp]
	call	??1?$_Tree_iterator@V?$_Tree_val@U?$_Tree_simple_types@U?$pair@$$CBHPAVBaseGameEntity@@@std@@@std@@@std@@@std@@QAE@XZ
	mov	DWORD PTR __$EHRec$[ebp+8], -1
	lea	ecx, DWORD PTR $T5[ebp]
	call	??1?$_Tree_iterator@V?$_Tree_val@U?$_Tree_simple_types@U?$pair@$$CBHPAVBaseGameEntity@@@std@@@std@@@std@@@std@@QAE@XZ

; 2114 : 		}

	mov	ecx, DWORD PTR __$EHRec$[ebp]
	mov	DWORD PTR fs:0, ecx
	pop	ecx
	pop	edi
	pop	esi
	add	esp, 80					; 00000050H
	cmp	ebp, esp
	call	__RTC_CheckEsp
	mov	esp, ebp
	pop	ebp
	ret	0
_TEXT	ENDS
;	COMDAT text$x
text$x	SEGMENT
__unwindfunclet$?_Tidy@?$_Tree@V?$_Tmap_traits@HPAVBaseGameEntity@@U?$less@H@std@@V?$allocator@U?$pair@$$CBHPAVBaseGameEntity@@@std@@@3@$0A@@std@@@std@@IAEXXZ$0:
	lea	ecx, DWORD PTR $T5[ebp]
	jmp	??1?$_Tree_iterator@V?$_Tree_val@U?$_Tree_simple_types@U?$pair@$$CBHPAVBaseGameEntity@@@std@@@std@@@std@@@std@@QAE@XZ
__unwindfunclet$?_Tidy@?$_Tree@V?$_Tmap_traits@HPAVBaseGameEntity@@U?$less@H@std@@V?$allocator@U?$pair@$$CBHPAVBaseGameEntity@@@std@@@3@$0A@@std@@@std@@IAEXXZ$2:
	lea	ecx, DWORD PTR $T3[ebp]
	jmp	??1?$_Tree_iterator@V?$_Tree_val@U?$_Tree_simple_types@U?$pair@$$CBHPAVBaseGameEntity@@@std@@@std@@@std@@@std@@QAE@XZ
__ehhandler$?_Tidy@?$_Tree@V?$_Tmap_traits@HPAVBaseGameEntity@@U?$less@H@std@@V?$allocator@U?$pair@$$CBHPAVBaseGameEntity@@@std@@@3@$0A@@std@@@std@@IAEXXZ:
	mov	edx, DWORD PTR [esp+8]
	lea	eax, DWORD PTR [edx+12]
	mov	ecx, DWORD PTR [edx-80]
	xor	ecx, eax
	call	@__security_check_cookie@4
	mov	eax, OFFSET __ehfuncinfo$?_Tidy@?$_Tree@V?$_Tmap_traits@HPAVBaseGameEntity@@U?$less@H@std@@V?$allocator@U?$pair@$$CBHPAVBaseGameEntity@@@std@@@3@$0A@@std@@@std@@IAEXXZ
	jmp	___CxxFrameHandler3
text$x	ENDS
?_Tidy@?$_Tree@V?$_Tmap_traits@HPAVBaseGameEntity@@U?$less@H@std@@V?$allocator@U?$pair@$$CBHPAVBaseGameEntity@@@std@@@3@$0A@@std@@@std@@IAEXXZ ENDP ; std::_Tree<std::_Tmap_traits<int,BaseGameEntity *,std::less<int>,std::allocator<std::pair<int const ,BaseGameEntity *> >,0> >::_Tidy
; Function compile flags: /Odtp /RTCsu
; File c:\program files (x86)\microsoft visual studio\2017\community\vc\tools\msvc\14.15.26726\include\xtree
;	COMDAT ?_Orphan_ptr@?$_Tree@V?$_Tmap_traits@HPAVBaseGameEntity@@U?$less@H@std@@V?$allocator@U?$pair@$$CBHPAVBaseGameEntity@@@std@@@3@$0A@@std@@@std@@IAEXPAU?$_Tree_node@U?$pair@$$CBHPAVBaseGameEntity@@@std@@PAX@2@@Z
_TEXT	SEGMENT
__Pnext$ = -32						; size = 4
__Lock$ = -24						; size = 4
_this$ = -16						; size = 4
__$EHRec$ = -12						; size = 12
__Ptr$ = 8						; size = 4
?_Orphan_ptr@?$_Tree@V?$_Tmap_traits@HPAVBaseGameEntity@@U?$less@H@std@@V?$allocator@U?$pair@$$CBHPAVBaseGameEntity@@@std@@@3@$0A@@std@@@std@@IAEXPAU?$_Tree_node@U?$pair@$$CBHPAVBaseGameEntity@@@std@@PAX@2@@Z PROC ; std::_Tree<std::_Tmap_traits<int,BaseGameEntity *,std::less<int>,std::allocator<std::pair<int const ,BaseGameEntity *> >,0> >::_Orphan_ptr, COMDAT
; _this$ = ecx

; 2089 : 		{	// orphan iterators with specified node pointers

	push	ebp
	mov	ebp, esp
	push	-1
	push	__ehhandler$?_Orphan_ptr@?$_Tree@V?$_Tmap_traits@HPAVBaseGameEntity@@U?$less@H@std@@V?$allocator@U?$pair@$$CBHPAVBaseGameEntity@@@std@@@3@$0A@@std@@@std@@IAEXPAU?$_Tree_node@U?$pair@$$CBHPAVBaseGameEntity@@@std@@PAX@2@@Z
	mov	eax, DWORD PTR fs:0
	push	eax
	sub	esp, 20					; 00000014H
	push	esi
	mov	eax, -858993460				; ccccccccH
	mov	DWORD PTR [ebp-32], eax
	mov	DWORD PTR [ebp-28], eax
	mov	DWORD PTR [ebp-24], eax
	mov	DWORD PTR [ebp-20], eax
	mov	DWORD PTR [ebp-16], eax
	mov	eax, DWORD PTR ___security_cookie
	xor	eax, ebp
	push	eax
	lea	eax, DWORD PTR __$EHRec$[ebp]
	mov	DWORD PTR fs:0, eax
	mov	DWORD PTR _this$[ebp], ecx

; 2090 : 		_Lockit _Lock(_LOCK_DEBUG);

	push	3
	lea	ecx, DWORD PTR __Lock$[ebp]
	call	??0_Lockit@std@@QAE@H@Z			; std::_Lockit::_Lockit
	mov	DWORD PTR __$EHRec$[ebp+8], 0

; 2091 : 		const_iterator **_Pnext = (const_iterator **)this->_Getpfirst();

	mov	ecx, DWORD PTR _this$[ebp]
	call	?_Getpfirst@?$_Tree_comp_alloc@V?$_Tmap_traits@HPAVBaseGameEntity@@U?$less@H@std@@V?$allocator@U?$pair@$$CBHPAVBaseGameEntity@@@std@@@3@$0A@@std@@@std@@QBEPAPAU_Iterator_base12@2@XZ ; std::_Tree_comp_alloc<std::_Tmap_traits<int,BaseGameEntity *,std::less<int>,std::allocator<std::pair<int const ,BaseGameEntity *> >,0> >::_Getpfirst
	mov	DWORD PTR __Pnext$[ebp], eax

; 2092 : 		if (_Pnext != nullptr)

	cmp	DWORD PTR __Pnext$[ebp], 0
	je	SHORT $LN4@Orphan_ptr
$LN2@Orphan_ptr:

; 2093 : 			{
; 2094 : 			while (*_Pnext != nullptr)

	mov	eax, DWORD PTR __Pnext$[ebp]
	cmp	DWORD PTR [eax], 0
	je	SHORT $LN4@Orphan_ptr

; 2095 : 				{
; 2096 : 				if ((*_Pnext)->_Ptr == this->_Get_data()._Myhead
; 2097 : 					|| (_Ptr != nullptr && (*_Pnext)->_Ptr != _Ptr))

	mov	ecx, DWORD PTR __Pnext$[ebp]
	mov	esi, DWORD PTR [ecx]
	mov	ecx, DWORD PTR _this$[ebp]
	call	?_Get_data@?$_Tree_comp_alloc@V?$_Tmap_traits@HPAVBaseGameEntity@@U?$less@H@std@@V?$allocator@U?$pair@$$CBHPAVBaseGameEntity@@@std@@@3@$0A@@std@@@std@@QAEAAV?$_Tree_val@U?$_Tree_simple_types@U?$pair@$$CBHPAVBaseGameEntity@@@std@@@std@@@2@XZ ; std::_Tree_comp_alloc<std::_Tmap_traits<int,BaseGameEntity *,std::less<int>,std::allocator<std::pair<int const ,BaseGameEntity *> >,0> >::_Get_data
	mov	edx, DWORD PTR [esi+8]
	cmp	edx, DWORD PTR [eax+4]
	je	SHORT $LN7@Orphan_ptr
	cmp	DWORD PTR __Ptr$[ebp], 0
	je	SHORT $LN5@Orphan_ptr
	mov	eax, DWORD PTR __Pnext$[ebp]
	mov	ecx, DWORD PTR [eax]
	mov	edx, DWORD PTR [ecx+8]
	cmp	edx, DWORD PTR __Ptr$[ebp]
	je	SHORT $LN5@Orphan_ptr
$LN7@Orphan_ptr:

; 2098 : 					{
; 2099 : 					_Pnext = (const_iterator **)(*_Pnext)->_Getpnext();

	mov	eax, DWORD PTR __Pnext$[ebp]
	mov	ecx, DWORD PTR [eax]
	call	?_Getpnext@_Iterator_base12@std@@QAEPAPAU12@XZ ; std::_Iterator_base12::_Getpnext
	mov	DWORD PTR __Pnext$[ebp], eax

; 2100 : 					}
; 2101 : 				else

	jmp	SHORT $LN6@Orphan_ptr
$LN5@Orphan_ptr:

; 2102 : 					{	// orphan the iterator
; 2103 : 					(*_Pnext)->_Clrcont();

	mov	ecx, DWORD PTR __Pnext$[ebp]
	mov	ecx, DWORD PTR [ecx]
	call	?_Clrcont@_Iterator_base12@std@@QAEXXZ	; std::_Iterator_base12::_Clrcont

; 2104 : 					*_Pnext = *(const_iterator **)(*_Pnext)->_Getpnext();

	mov	edx, DWORD PTR __Pnext$[ebp]
	mov	ecx, DWORD PTR [edx]
	call	?_Getpnext@_Iterator_base12@std@@QAEPAPAU12@XZ ; std::_Iterator_base12::_Getpnext
	mov	ecx, DWORD PTR __Pnext$[ebp]
	mov	edx, DWORD PTR [eax]
	mov	DWORD PTR [ecx], edx
$LN6@Orphan_ptr:

; 2105 : 					}
; 2106 : 				}

	jmp	SHORT $LN2@Orphan_ptr
$LN4@Orphan_ptr:

; 2107 : 			}
; 2108 : 		}

	mov	DWORD PTR __$EHRec$[ebp+8], -1
	lea	ecx, DWORD PTR __Lock$[ebp]
	call	??1_Lockit@std@@QAE@XZ			; std::_Lockit::~_Lockit
	push	edx
	mov	ecx, ebp
	push	eax
	lea	edx, DWORD PTR $LN13@Orphan_ptr
	call	@_RTC_CheckStackVars@8
	pop	eax
	pop	edx
	mov	ecx, DWORD PTR __$EHRec$[ebp]
	mov	DWORD PTR fs:0, ecx
	pop	ecx
	pop	esi
	add	esp, 32					; 00000020H
	cmp	ebp, esp
	call	__RTC_CheckEsp
	mov	esp, ebp
	pop	ebp
	ret	4
	npad	1
$LN13@Orphan_ptr:
	DD	1
	DD	$LN12@Orphan_ptr
$LN12@Orphan_ptr:
	DD	-24					; ffffffe8H
	DD	4
	DD	$LN10@Orphan_ptr
$LN10@Orphan_ptr:
	DB	95					; 0000005fH
	DB	76					; 0000004cH
	DB	111					; 0000006fH
	DB	99					; 00000063H
	DB	107					; 0000006bH
	DB	0
_TEXT	ENDS
;	COMDAT text$x
text$x	SEGMENT
__unwindfunclet$?_Orphan_ptr@?$_Tree@V?$_Tmap_traits@HPAVBaseGameEntity@@U?$less@H@std@@V?$allocator@U?$pair@$$CBHPAVBaseGameEntity@@@std@@@3@$0A@@std@@@std@@IAEXPAU?$_Tree_node@U?$pair@$$CBHPAVBaseGameEntity@@@std@@PAX@2@@Z$0:
	lea	ecx, DWORD PTR __Lock$[ebp]
	jmp	??1_Lockit@std@@QAE@XZ			; std::_Lockit::~_Lockit
__ehhandler$?_Orphan_ptr@?$_Tree@V?$_Tmap_traits@HPAVBaseGameEntity@@U?$less@H@std@@V?$allocator@U?$pair@$$CBHPAVBaseGameEntity@@@std@@@3@$0A@@std@@@std@@IAEXPAU?$_Tree_node@U?$pair@$$CBHPAVBaseGameEntity@@@std@@PAX@2@@Z:
	mov	edx, DWORD PTR [esp+8]
	lea	eax, DWORD PTR [edx+12]
	mov	ecx, DWORD PTR [edx-28]
	xor	ecx, eax
	call	@__security_check_cookie@4
	mov	eax, OFFSET __ehfuncinfo$?_Orphan_ptr@?$_Tree@V?$_Tmap_traits@HPAVBaseGameEntity@@U?$less@H@std@@V?$allocator@U?$pair@$$CBHPAVBaseGameEntity@@@std@@@3@$0A@@std@@@std@@IAEXPAU?$_Tree_node@U?$pair@$$CBHPAVBaseGameEntity@@@std@@PAX@2@@Z
	jmp	___CxxFrameHandler3
text$x	ENDS
?_Orphan_ptr@?$_Tree@V?$_Tmap_traits@HPAVBaseGameEntity@@U?$less@H@std@@V?$allocator@U?$pair@$$CBHPAVBaseGameEntity@@@std@@@3@$0A@@std@@@std@@IAEXPAU?$_Tree_node@U?$pair@$$CBHPAVBaseGameEntity@@@std@@PAX@2@@Z ENDP ; std::_Tree<std::_Tmap_traits<int,BaseGameEntity *,std::less<int>,std::allocator<std::pair<int const ,BaseGameEntity *> >,0> >::_Orphan_ptr
; Function compile flags: /Odtp /RTCsu
; File c:\program files (x86)\microsoft visual studio\2017\community\vc\tools\msvc\14.15.26726\include\xtree
;	COMDAT ?_Compare@?$_Tree@V?$_Tmap_traits@HPAVBaseGameEntity@@U?$less@H@std@@V?$allocator@U?$pair@$$CBHPAVBaseGameEntity@@@std@@@3@$0A@@std@@@std@@IBE_NABH0@Z
_TEXT	SEGMENT
_this$ = -4						; size = 4
__Left$ = 8						; size = 4
__Right$ = 12						; size = 4
?_Compare@?$_Tree@V?$_Tmap_traits@HPAVBaseGameEntity@@U?$less@H@std@@V?$allocator@U?$pair@$$CBHPAVBaseGameEntity@@@std@@@3@$0A@@std@@@std@@IBE_NABH0@Z PROC ; std::_Tree<std::_Tmap_traits<int,BaseGameEntity *,std::less<int>,std::allocator<std::pair<int const ,BaseGameEntity *> >,0> >::_Compare, COMDAT
; _this$ = ecx

; 2031 : 		{	// compare key_type to key_type, with debug checks

	push	ebp
	mov	ebp, esp
	push	ecx
	mov	DWORD PTR [ebp-4], -858993460		; ccccccccH
	mov	DWORD PTR _this$[ebp], ecx

; 2032 : 		return (_DEBUG_LT_PRED(this->_Getcomp(), _Left, _Right));

	mov	eax, DWORD PTR __Right$[ebp]
	push	eax
	mov	ecx, DWORD PTR __Left$[ebp]
	push	ecx
	mov	ecx, DWORD PTR _this$[ebp]
	call	?_Getcomp@?$_Tree_comp_alloc@V?$_Tmap_traits@HPAVBaseGameEntity@@U?$less@H@std@@V?$allocator@U?$pair@$$CBHPAVBaseGameEntity@@@std@@@3@$0A@@std@@@std@@QBEABU?$less@H@2@XZ ; std::_Tree_comp_alloc<std::_Tmap_traits<int,BaseGameEntity *,std::less<int>,std::allocator<std::pair<int const ,BaseGameEntity *> >,0> >::_Getcomp
	push	eax
	call	??$_Debug_lt_pred@ABU?$less@H@std@@ABHABH@std@@YA_NABU?$less@H@0@ABH1@Z ; std::_Debug_lt_pred<std::less<int> const &,int const &,int const &>
	add	esp, 12					; 0000000cH

; 2033 : 		}

	add	esp, 4
	cmp	ebp, esp
	call	__RTC_CheckEsp
	mov	esp, ebp
	pop	ebp
	ret	8
?_Compare@?$_Tree@V?$_Tmap_traits@HPAVBaseGameEntity@@U?$less@H@std@@V?$allocator@U?$pair@$$CBHPAVBaseGameEntity@@@std@@@3@$0A@@std@@@std@@IBE_NABH0@Z ENDP ; std::_Tree<std::_Tmap_traits<int,BaseGameEntity *,std::less<int>,std::allocator<std::pair<int const ,BaseGameEntity *> >,0> >::_Compare
_TEXT	ENDS
; Function compile flags: /Odtp /RTCsu
; File c:\program files (x86)\microsoft visual studio\2017\community\vc\tools\msvc\14.15.26726\include\xtree
;	COMDAT ?_Erase@?$_Tree@V?$_Tmap_traits@HPAVBaseGameEntity@@U?$less@H@std@@V?$allocator@U?$pair@$$CBHPAVBaseGameEntity@@@std@@@3@$0A@@std@@@std@@IAEXPAU?$_Tree_node@U?$pair@$$CBHPAVBaseGameEntity@@@std@@PAX@2@@Z
_TEXT	SEGMENT
__Al$1 = -12						; size = 4
__Pnode$2 = -8						; size = 4
_this$ = -4						; size = 4
__Rootnode$ = 8						; size = 4
?_Erase@?$_Tree@V?$_Tmap_traits@HPAVBaseGameEntity@@U?$less@H@std@@V?$allocator@U?$pair@$$CBHPAVBaseGameEntity@@@std@@@3@$0A@@std@@@std@@IAEXPAU?$_Tree_node@U?$pair@$$CBHPAVBaseGameEntity@@@std@@PAX@2@@Z PROC ; std::_Tree<std::_Tmap_traits<int,BaseGameEntity *,std::less<int>,std::allocator<std::pair<int const ,BaseGameEntity *> >,0> >::_Erase, COMDAT
; _this$ = ecx

; 2019 : 		{	// free entire subtree, recursively

	push	ebp
	mov	ebp, esp
	sub	esp, 12					; 0000000cH
	mov	DWORD PTR [ebp-12], -858993460		; ccccccccH
	mov	DWORD PTR [ebp-8], -858993460		; ccccccccH
	mov	DWORD PTR [ebp-4], -858993460		; ccccccccH
	mov	DWORD PTR _this$[ebp], ecx

; 2020 : 		for (_Nodeptr _Pnode = _Rootnode; !_Pnode->_Isnil; _Rootnode = _Pnode)

	mov	eax, DWORD PTR __Rootnode$[ebp]
	mov	DWORD PTR __Pnode$2[ebp], eax
	jmp	SHORT $LN4@Erase
$LN2@Erase:
	mov	ecx, DWORD PTR __Pnode$2[ebp]
	mov	DWORD PTR __Rootnode$[ebp], ecx
$LN4@Erase:
	mov	edx, DWORD PTR __Pnode$2[ebp]
	movsx	eax, BYTE PTR [edx+13]
	test	eax, eax
	jne	SHORT $LN1@Erase

; 2021 : 			{	// free subtrees, then node
; 2022 : 			_Erase(_Pnode->_Right);

	mov	ecx, DWORD PTR __Pnode$2[ebp]
	mov	edx, DWORD PTR [ecx+8]
	push	edx
	mov	ecx, DWORD PTR _this$[ebp]
	call	?_Erase@?$_Tree@V?$_Tmap_traits@HPAVBaseGameEntity@@U?$less@H@std@@V?$allocator@U?$pair@$$CBHPAVBaseGameEntity@@@std@@@3@$0A@@std@@@std@@IAEXPAU?$_Tree_node@U?$pair@$$CBHPAVBaseGameEntity@@@std@@PAX@2@@Z ; std::_Tree<std::_Tmap_traits<int,BaseGameEntity *,std::less<int>,std::allocator<std::pair<int const ,BaseGameEntity *> >,0> >::_Erase

; 2023 : 			_Pnode = _Pnode->_Left;

	mov	eax, DWORD PTR __Pnode$2[ebp]
	mov	ecx, DWORD PTR [eax]
	mov	DWORD PTR __Pnode$2[ebp], ecx

; 2024 : 			_Alnode& _Al = this->_Getal();

	mov	ecx, DWORD PTR _this$[ebp]
	call	?_Getal@?$_Tree_comp_alloc@V?$_Tmap_traits@HPAVBaseGameEntity@@U?$less@H@std@@V?$allocator@U?$pair@$$CBHPAVBaseGameEntity@@@std@@@3@$0A@@std@@@std@@QAEAAV?$allocator@U?$_Tree_node@U?$pair@$$CBHPAVBaseGameEntity@@@std@@PAX@std@@@2@XZ ; std::_Tree_comp_alloc<std::_Tmap_traits<int,BaseGameEntity *,std::less<int>,std::allocator<std::pair<int const ,BaseGameEntity *> >,0> >::_Getal
	mov	DWORD PTR __Al$1[ebp], eax

; 2025 : 			_Alnode_traits::destroy(_Al, _STD addressof(_Rootnode->_Myval));

	mov	edx, DWORD PTR __Rootnode$[ebp]
	add	edx, 16					; 00000010H
	push	edx
	call	??$addressof@U?$pair@$$CBHPAVBaseGameEntity@@@std@@@std@@YAPAU?$pair@$$CBHPAVBaseGameEntity@@@0@AAU10@@Z ; std::addressof<std::pair<int const ,BaseGameEntity *> >
	add	esp, 4
	push	eax
	mov	eax, DWORD PTR __Al$1[ebp]
	push	eax
	call	??$destroy@U?$pair@$$CBHPAVBaseGameEntity@@@std@@@?$_Default_allocator_traits@V?$allocator@U?$_Tree_node@U?$pair@$$CBHPAVBaseGameEntity@@@std@@PAX@std@@@std@@@std@@SAXAAV?$allocator@U?$_Tree_node@U?$pair@$$CBHPAVBaseGameEntity@@@std@@PAX@std@@@1@QAU?$pair@$$CBHPAVBaseGameEntity@@@1@@Z ; std::_Default_allocator_traits<std::allocator<std::_Tree_node<std::pair<int const ,BaseGameEntity *>,void *> > >::destroy<std::pair<int const ,BaseGameEntity *> >
	add	esp, 8

; 2026 : 			_Node::_Freenode0(_Al, _Rootnode);

	mov	ecx, DWORD PTR __Rootnode$[ebp]
	push	ecx
	mov	edx, DWORD PTR __Al$1[ebp]
	push	edx
	call	??$_Freenode0@V?$allocator@U?$_Tree_node@U?$pair@$$CBHPAVBaseGameEntity@@@std@@PAX@std@@@std@@@?$_Tree_node@U?$pair@$$CBHPAVBaseGameEntity@@@std@@PAX@std@@SAXAAV?$allocator@U?$_Tree_node@U?$pair@$$CBHPAVBaseGameEntity@@@std@@PAX@std@@@1@PAU01@@Z ; std::_Tree_node<std::pair<int const ,BaseGameEntity *>,void *>::_Freenode0<std::allocator<std::_Tree_node<std::pair<int const ,BaseGameEntity *>,void *> > >
	add	esp, 8

; 2027 : 			}

	jmp	SHORT $LN2@Erase
$LN1@Erase:

; 2028 : 		}

	add	esp, 12					; 0000000cH
	cmp	ebp, esp
	call	__RTC_CheckEsp
	mov	esp, ebp
	pop	ebp
	ret	4
?_Erase@?$_Tree@V?$_Tmap_traits@HPAVBaseGameEntity@@U?$less@H@std@@V?$allocator@U?$pair@$$CBHPAVBaseGameEntity@@@std@@@3@$0A@@std@@@std@@IAEXPAU?$_Tree_node@U?$pair@$$CBHPAVBaseGameEntity@@@std@@PAX@2@@Z ENDP ; std::_Tree<std::_Tmap_traits<int,BaseGameEntity *,std::less<int>,std::allocator<std::pair<int const ,BaseGameEntity *> >,0> >::_Erase
_TEXT	ENDS
; Function compile flags: /Odtp /RTCsu
; File c:\program files (x86)\microsoft visual studio\2017\community\vc\tools\msvc\14.15.26726\include\xtree
;	COMDAT ?_Destroy_if_node@?$_Tree@V?$_Tmap_traits@HPAVBaseGameEntity@@U?$less@H@std@@V?$allocator@U?$pair@$$CBHPAVBaseGameEntity@@@std@@@3@$0A@@std@@@std@@IAEXPAU?$_Tree_node@U?$pair@$$CBHPAVBaseGameEntity@@@std@@PAX@2@@Z
_TEXT	SEGMENT
__Al$ = -8						; size = 4
_this$ = -4						; size = 4
__Newnode$ = 8						; size = 4
?_Destroy_if_node@?$_Tree@V?$_Tmap_traits@HPAVBaseGameEntity@@U?$less@H@std@@V?$allocator@U?$pair@$$CBHPAVBaseGameEntity@@@std@@@3@$0A@@std@@@std@@IAEXPAU?$_Tree_node@U?$pair@$$CBHPAVBaseGameEntity@@@std@@PAX@2@@Z PROC ; std::_Tree<std::_Tmap_traits<int,BaseGameEntity *,std::less<int>,std::allocator<std::pair<int const ,BaseGameEntity *> >,0> >::_Destroy_if_node, COMDAT
; _this$ = ecx

; 1585 : 		{	// node exists, destroy it

	push	ebp
	mov	ebp, esp
	sub	esp, 8
	mov	DWORD PTR [ebp-8], -858993460		; ccccccccH
	mov	DWORD PTR [ebp-4], -858993460		; ccccccccH
	mov	DWORD PTR _this$[ebp], ecx

; 1586 : 		_Alnode& _Al = this->_Getal();

	mov	ecx, DWORD PTR _this$[ebp]
	call	?_Getal@?$_Tree_comp_alloc@V?$_Tmap_traits@HPAVBaseGameEntity@@U?$less@H@std@@V?$allocator@U?$pair@$$CBHPAVBaseGameEntity@@@std@@@3@$0A@@std@@@std@@QAEAAV?$allocator@U?$_Tree_node@U?$pair@$$CBHPAVBaseGameEntity@@@std@@PAX@std@@@2@XZ ; std::_Tree_comp_alloc<std::_Tmap_traits<int,BaseGameEntity *,std::less<int>,std::allocator<std::pair<int const ,BaseGameEntity *> >,0> >::_Getal
	mov	DWORD PTR __Al$[ebp], eax

; 1587 : 		_Alnode_traits::destroy(_Al, _STD addressof(_Newnode->_Myval));

	mov	eax, DWORD PTR __Newnode$[ebp]
	add	eax, 16					; 00000010H
	push	eax
	call	??$addressof@U?$pair@$$CBHPAVBaseGameEntity@@@std@@@std@@YAPAU?$pair@$$CBHPAVBaseGameEntity@@@0@AAU10@@Z ; std::addressof<std::pair<int const ,BaseGameEntity *> >
	add	esp, 4
	push	eax
	mov	ecx, DWORD PTR __Al$[ebp]
	push	ecx
	call	??$destroy@U?$pair@$$CBHPAVBaseGameEntity@@@std@@@?$_Default_allocator_traits@V?$allocator@U?$_Tree_node@U?$pair@$$CBHPAVBaseGameEntity@@@std@@PAX@std@@@std@@@std@@SAXAAV?$allocator@U?$_Tree_node@U?$pair@$$CBHPAVBaseGameEntity@@@std@@PAX@std@@@1@QAU?$pair@$$CBHPAVBaseGameEntity@@@1@@Z ; std::_Default_allocator_traits<std::allocator<std::_Tree_node<std::pair<int const ,BaseGameEntity *>,void *> > >::destroy<std::pair<int const ,BaseGameEntity *> >
	add	esp, 8

; 1588 : 		_Node::_Freenode0(_Al, _Newnode);

	mov	edx, DWORD PTR __Newnode$[ebp]
	push	edx
	mov	eax, DWORD PTR __Al$[ebp]
	push	eax
	call	??$_Freenode0@V?$allocator@U?$_Tree_node@U?$pair@$$CBHPAVBaseGameEntity@@@std@@PAX@std@@@std@@@?$_Tree_node@U?$pair@$$CBHPAVBaseGameEntity@@@std@@PAX@std@@SAXAAV?$allocator@U?$_Tree_node@U?$pair@$$CBHPAVBaseGameEntity@@@std@@PAX@std@@@1@PAU01@@Z ; std::_Tree_node<std::pair<int const ,BaseGameEntity *>,void *>::_Freenode0<std::allocator<std::_Tree_node<std::pair<int const ,BaseGameEntity *>,void *> > >
	add	esp, 8

; 1589 : 		}

	add	esp, 8
	cmp	ebp, esp
	call	__RTC_CheckEsp
	mov	esp, ebp
	pop	ebp
	ret	4
?_Destroy_if_node@?$_Tree@V?$_Tmap_traits@HPAVBaseGameEntity@@U?$less@H@std@@V?$allocator@U?$pair@$$CBHPAVBaseGameEntity@@@std@@@3@$0A@@std@@@std@@IAEXPAU?$_Tree_node@U?$pair@$$CBHPAVBaseGameEntity@@@std@@PAX@2@@Z ENDP ; std::_Tree<std::_Tmap_traits<int,BaseGameEntity *,std::less<int>,std::allocator<std::pair<int const ,BaseGameEntity *> >,0> >::_Destroy_if_node
_TEXT	ENDS
; Function compile flags: /Odtp /RTCsu
; File c:\program files (x86)\microsoft visual studio\2017\community\vc\tools\msvc\14.15.26726\include\xtree
;	COMDAT ?lower_bound@?$_Tree@V?$_Tmap_traits@HPAVBaseGameEntity@@U?$less@H@std@@V?$allocator@U?$pair@$$CBHPAVBaseGameEntity@@@std@@@3@$0A@@std@@@std@@QBE?AV?$_Tree_const_iterator@V?$_Tree_val@U?$_Tree_simple_types@U?$pair@$$CBHPAVBaseGameEntity@@@std@@@std@@@std@@@2@ABH@Z
_TEXT	SEGMENT
$T1 = -8						; size = 4
_this$ = -4						; size = 4
___$ReturnUdt$ = 8					; size = 4
__Keyval$ = 12						; size = 4
?lower_bound@?$_Tree@V?$_Tmap_traits@HPAVBaseGameEntity@@U?$less@H@std@@V?$allocator@U?$pair@$$CBHPAVBaseGameEntity@@@std@@@3@$0A@@std@@@std@@QBE?AV?$_Tree_const_iterator@V?$_Tree_val@U?$_Tree_simple_types@U?$pair@$$CBHPAVBaseGameEntity@@@std@@@std@@@std@@@2@ABH@Z PROC ; std::_Tree<std::_Tmap_traits<int,BaseGameEntity *,std::less<int>,std::allocator<std::pair<int const ,BaseGameEntity *> >,0> >::lower_bound, COMDAT
; _this$ = ecx

; 1485 : 		{	// find leftmost node not less than _Keyval in nonmutable tree

	push	ebp
	mov	ebp, esp
	sub	esp, 8
	mov	DWORD PTR [ebp-8], -858993460		; ccccccccH
	mov	DWORD PTR [ebp-4], -858993460		; ccccccccH
	mov	DWORD PTR _this$[ebp], ecx
	mov	DWORD PTR $T1[ebp], 0

; 1486 : 		return (const_iterator(_Lbound(_Keyval), _STD addressof(this->_Get_data())));

	mov	ecx, DWORD PTR _this$[ebp]
	call	?_Get_data@?$_Tree_comp_alloc@V?$_Tmap_traits@HPAVBaseGameEntity@@U?$less@H@std@@V?$allocator@U?$pair@$$CBHPAVBaseGameEntity@@@std@@@3@$0A@@std@@@std@@QBEABV?$_Tree_val@U?$_Tree_simple_types@U?$pair@$$CBHPAVBaseGameEntity@@@std@@@std@@@2@XZ ; std::_Tree_comp_alloc<std::_Tmap_traits<int,BaseGameEntity *,std::less<int>,std::allocator<std::pair<int const ,BaseGameEntity *> >,0> >::_Get_data
	push	eax
	call	??$addressof@$$CBV?$_Tree_val@U?$_Tree_simple_types@U?$pair@$$CBHPAVBaseGameEntity@@@std@@@std@@@std@@@std@@YAPBV?$_Tree_val@U?$_Tree_simple_types@U?$pair@$$CBHPAVBaseGameEntity@@@std@@@std@@@0@ABV10@@Z ; std::addressof<std::_Tree_val<std::_Tree_simple_types<std::pair<int const ,BaseGameEntity *> > > const >
	add	esp, 4
	push	eax
	mov	eax, DWORD PTR __Keyval$[ebp]
	push	eax
	mov	ecx, DWORD PTR _this$[ebp]
	call	??$_Lbound@H@?$_Tree@V?$_Tmap_traits@HPAVBaseGameEntity@@U?$less@H@std@@V?$allocator@U?$pair@$$CBHPAVBaseGameEntity@@@std@@@3@$0A@@std@@@std@@IBEPAU?$_Tree_node@U?$pair@$$CBHPAVBaseGameEntity@@@std@@PAX@1@ABH@Z ; std::_Tree<std::_Tmap_traits<int,BaseGameEntity *,std::less<int>,std::allocator<std::pair<int const ,BaseGameEntity *> >,0> >::_Lbound<int>
	push	eax
	mov	ecx, DWORD PTR ___$ReturnUdt$[ebp]
	call	??0?$_Tree_const_iterator@V?$_Tree_val@U?$_Tree_simple_types@U?$pair@$$CBHPAVBaseGameEntity@@@std@@@std@@@std@@@std@@QAE@PAU?$_Tree_node@U?$pair@$$CBHPAVBaseGameEntity@@@std@@PAX@1@PBV?$_Tree_val@U?$_Tree_simple_types@U?$pair@$$CBHPAVBaseGameEntity@@@std@@@std@@@1@@Z ; std::_Tree_const_iterator<std::_Tree_val<std::_Tree_simple_types<std::pair<int const ,BaseGameEntity *> > > >::_Tree_const_iterator<std::_Tree_val<std::_Tree_simple_types<std::pair<int const ,BaseGameEntity *> > > >
	mov	ecx, DWORD PTR $T1[ebp]
	or	ecx, 1
	mov	DWORD PTR $T1[ebp], ecx
	mov	eax, DWORD PTR ___$ReturnUdt$[ebp]

; 1487 : 		}

	add	esp, 8
	cmp	ebp, esp
	call	__RTC_CheckEsp
	mov	esp, ebp
	pop	ebp
	ret	8
?lower_bound@?$_Tree@V?$_Tmap_traits@HPAVBaseGameEntity@@U?$less@H@std@@V?$allocator@U?$pair@$$CBHPAVBaseGameEntity@@@std@@@3@$0A@@std@@@std@@QBE?AV?$_Tree_const_iterator@V?$_Tree_val@U?$_Tree_simple_types@U?$pair@$$CBHPAVBaseGameEntity@@@std@@@std@@@std@@@2@ABH@Z ENDP ; std::_Tree<std::_Tmap_traits<int,BaseGameEntity *,std::less<int>,std::allocator<std::pair<int const ,BaseGameEntity *> >,0> >::lower_bound
_TEXT	ENDS
; Function compile flags: /Odtp /RTCsu
; File c:\program files (x86)\microsoft visual studio\2017\community\vc\tools\msvc\14.15.26726\include\xtree
;	COMDAT ?lower_bound@?$_Tree@V?$_Tmap_traits@HPAVBaseGameEntity@@U?$less@H@std@@V?$allocator@U?$pair@$$CBHPAVBaseGameEntity@@@std@@@3@$0A@@std@@@std@@QAE?AV?$_Tree_iterator@V?$_Tree_val@U?$_Tree_simple_types@U?$pair@$$CBHPAVBaseGameEntity@@@std@@@std@@@std@@@2@ABH@Z
_TEXT	SEGMENT
$T1 = -8						; size = 4
_this$ = -4						; size = 4
___$ReturnUdt$ = 8					; size = 4
__Keyval$ = 12						; size = 4
?lower_bound@?$_Tree@V?$_Tmap_traits@HPAVBaseGameEntity@@U?$less@H@std@@V?$allocator@U?$pair@$$CBHPAVBaseGameEntity@@@std@@@3@$0A@@std@@@std@@QAE?AV?$_Tree_iterator@V?$_Tree_val@U?$_Tree_simple_types@U?$pair@$$CBHPAVBaseGameEntity@@@std@@@std@@@std@@@2@ABH@Z PROC ; std::_Tree<std::_Tmap_traits<int,BaseGameEntity *,std::less<int>,std::allocator<std::pair<int const ,BaseGameEntity *> >,0> >::lower_bound, COMDAT
; _this$ = ecx

; 1480 : 		{	// find leftmost node not less than _Keyval in mutable tree

	push	ebp
	mov	ebp, esp
	sub	esp, 8
	mov	DWORD PTR [ebp-8], -858993460		; ccccccccH
	mov	DWORD PTR [ebp-4], -858993460		; ccccccccH
	mov	DWORD PTR _this$[ebp], ecx
	mov	DWORD PTR $T1[ebp], 0

; 1481 : 		return (iterator(_Lbound(_Keyval), _STD addressof(this->_Get_data())));

	mov	ecx, DWORD PTR _this$[ebp]
	call	?_Get_data@?$_Tree_comp_alloc@V?$_Tmap_traits@HPAVBaseGameEntity@@U?$less@H@std@@V?$allocator@U?$pair@$$CBHPAVBaseGameEntity@@@std@@@3@$0A@@std@@@std@@QAEAAV?$_Tree_val@U?$_Tree_simple_types@U?$pair@$$CBHPAVBaseGameEntity@@@std@@@std@@@2@XZ ; std::_Tree_comp_alloc<std::_Tmap_traits<int,BaseGameEntity *,std::less<int>,std::allocator<std::pair<int const ,BaseGameEntity *> >,0> >::_Get_data
	push	eax
	call	??$addressof@V?$_Tree_val@U?$_Tree_simple_types@U?$pair@$$CBHPAVBaseGameEntity@@@std@@@std@@@std@@@std@@YAPAV?$_Tree_val@U?$_Tree_simple_types@U?$pair@$$CBHPAVBaseGameEntity@@@std@@@std@@@0@AAV10@@Z ; std::addressof<std::_Tree_val<std::_Tree_simple_types<std::pair<int const ,BaseGameEntity *> > > >
	add	esp, 4
	push	eax
	mov	eax, DWORD PTR __Keyval$[ebp]
	push	eax
	mov	ecx, DWORD PTR _this$[ebp]
	call	??$_Lbound@H@?$_Tree@V?$_Tmap_traits@HPAVBaseGameEntity@@U?$less@H@std@@V?$allocator@U?$pair@$$CBHPAVBaseGameEntity@@@std@@@3@$0A@@std@@@std@@IBEPAU?$_Tree_node@U?$pair@$$CBHPAVBaseGameEntity@@@std@@PAX@1@ABH@Z ; std::_Tree<std::_Tmap_traits<int,BaseGameEntity *,std::less<int>,std::allocator<std::pair<int const ,BaseGameEntity *> >,0> >::_Lbound<int>
	push	eax
	mov	ecx, DWORD PTR ___$ReturnUdt$[ebp]
	call	??0?$_Tree_iterator@V?$_Tree_val@U?$_Tree_simple_types@U?$pair@$$CBHPAVBaseGameEntity@@@std@@@std@@@std@@@std@@QAE@PAU?$_Tree_node@U?$pair@$$CBHPAVBaseGameEntity@@@std@@PAX@1@PBV?$_Tree_val@U?$_Tree_simple_types@U?$pair@$$CBHPAVBaseGameEntity@@@std@@@std@@@1@@Z ; std::_Tree_iterator<std::_Tree_val<std::_Tree_simple_types<std::pair<int const ,BaseGameEntity *> > > >::_Tree_iterator<std::_Tree_val<std::_Tree_simple_types<std::pair<int const ,BaseGameEntity *> > > >
	mov	ecx, DWORD PTR $T1[ebp]
	or	ecx, 1
	mov	DWORD PTR $T1[ebp], ecx
	mov	eax, DWORD PTR ___$ReturnUdt$[ebp]

; 1482 : 		}

	add	esp, 8
	cmp	ebp, esp
	call	__RTC_CheckEsp
	mov	esp, ebp
	pop	ebp
	ret	8
?lower_bound@?$_Tree@V?$_Tmap_traits@HPAVBaseGameEntity@@U?$less@H@std@@V?$allocator@U?$pair@$$CBHPAVBaseGameEntity@@@std@@@3@$0A@@std@@@std@@QAE?AV?$_Tree_iterator@V?$_Tree_val@U?$_Tree_simple_types@U?$pair@$$CBHPAVBaseGameEntity@@@std@@@std@@@std@@@2@ABH@Z ENDP ; std::_Tree<std::_Tmap_traits<int,BaseGameEntity *,std::less<int>,std::allocator<std::pair<int const ,BaseGameEntity *> >,0> >::lower_bound
_TEXT	ENDS
; Function compile flags: /Odtp /RTCsu
; File c:\program files (x86)\microsoft visual studio\2017\community\vc\tools\msvc\14.15.26726\include\xtree
;	COMDAT ?find@?$_Tree@V?$_Tmap_traits@HPAVBaseGameEntity@@U?$less@H@std@@V?$allocator@U?$pair@$$CBHPAVBaseGameEntity@@@std@@@3@$0A@@std@@@std@@QBE?AV?$_Tree_const_iterator@V?$_Tree_val@U?$_Tree_simple_types@U?$pair@$$CBHPAVBaseGameEntity@@@std@@@std@@@std@@@2@ABH@Z
_TEXT	SEGMENT
tv161 = -100						; size = 4
tv143 = -96						; size = 4
tv156 = -92						; size = 4
tv151 = -88						; size = 4
tv65 = -84						; size = 4
$T2 = -80						; size = 4
$T3 = -76						; size = 12
$T4 = -64						; size = 12
$T5 = -52						; size = 12
$T6 = -40						; size = 4
__Where$ = -32						; size = 12
_this$ = -16						; size = 4
__$EHRec$ = -12						; size = 12
___$ReturnUdt$ = 8					; size = 4
__Keyval$ = 12						; size = 4
?find@?$_Tree@V?$_Tmap_traits@HPAVBaseGameEntity@@U?$less@H@std@@V?$allocator@U?$pair@$$CBHPAVBaseGameEntity@@@std@@@3@$0A@@std@@@std@@QBE?AV?$_Tree_const_iterator@V?$_Tree_val@U?$_Tree_simple_types@U?$pair@$$CBHPAVBaseGameEntity@@@std@@@std@@@std@@@2@ABH@Z PROC ; std::_Tree<std::_Tmap_traits<int,BaseGameEntity *,std::less<int>,std::allocator<std::pair<int const ,BaseGameEntity *> >,0> >::find, COMDAT
; _this$ = ecx

; 1432 : 		{	// find an element in nonmutable sequence that matches _Keyval

	push	ebp
	mov	ebp, esp
	push	-1
	push	__ehhandler$?find@?$_Tree@V?$_Tmap_traits@HPAVBaseGameEntity@@U?$less@H@std@@V?$allocator@U?$pair@$$CBHPAVBaseGameEntity@@@std@@@3@$0A@@std@@@std@@QBE?AV?$_Tree_const_iterator@V?$_Tree_val@U?$_Tree_simple_types@U?$pair@$$CBHPAVBaseGameEntity@@@std@@@std@@@std@@@2@ABH@Z
	mov	eax, DWORD PTR fs:0
	push	eax
	sub	esp, 88					; 00000058H
	push	edi
	push	ecx
	lea	edi, DWORD PTR [ebp-100]
	mov	ecx, 22					; 00000016H
	mov	eax, -858993460				; ccccccccH
	rep stosd
	pop	ecx
	mov	eax, DWORD PTR ___security_cookie
	xor	eax, ebp
	push	eax
	lea	eax, DWORD PTR __$EHRec$[ebp]
	mov	DWORD PTR fs:0, eax
	mov	DWORD PTR _this$[ebp], ecx
	mov	DWORD PTR $T2[ebp], 0

; 1433 : 		const_iterator _Where = lower_bound(_Keyval);

	mov	eax, DWORD PTR __Keyval$[ebp]
	push	eax
	lea	ecx, DWORD PTR __Where$[ebp]
	push	ecx
	mov	ecx, DWORD PTR _this$[ebp]
	call	?lower_bound@?$_Tree@V?$_Tmap_traits@HPAVBaseGameEntity@@U?$less@H@std@@V?$allocator@U?$pair@$$CBHPAVBaseGameEntity@@@std@@@3@$0A@@std@@@std@@QBE?AV?$_Tree_const_iterator@V?$_Tree_val@U?$_Tree_simple_types@U?$pair@$$CBHPAVBaseGameEntity@@@std@@@std@@@std@@@2@ABH@Z ; std::_Tree<std::_Tmap_traits<int,BaseGameEntity *,std::less<int>,std::allocator<std::pair<int const ,BaseGameEntity *> >,0> >::lower_bound
	mov	DWORD PTR __$EHRec$[ebp+8], 0

; 1434 : 		return (_Where == end()

	lea	edx, DWORD PTR $T5[ebp]
	push	edx
	mov	ecx, DWORD PTR _this$[ebp]
	call	?end@?$_Tree@V?$_Tmap_traits@HPAVBaseGameEntity@@U?$less@H@std@@V?$allocator@U?$pair@$$CBHPAVBaseGameEntity@@@std@@@3@$0A@@std@@@std@@QBE?AV?$_Tree_const_iterator@V?$_Tree_val@U?$_Tree_simple_types@U?$pair@$$CBHPAVBaseGameEntity@@@std@@@std@@@std@@@2@XZ ; std::_Tree<std::_Tmap_traits<int,BaseGameEntity *,std::less<int>,std::allocator<std::pair<int const ,BaseGameEntity *> >,0> >::end
	mov	DWORD PTR tv65[ebp], eax
	mov	eax, DWORD PTR tv65[ebp]
	mov	DWORD PTR tv151[ebp], eax
	mov	BYTE PTR __$EHRec$[ebp+8], 1
	mov	ecx, DWORD PTR $T2[ebp]
	or	ecx, 1
	mov	DWORD PTR $T2[ebp], ecx
	mov	edx, DWORD PTR tv151[ebp]
	push	edx
	lea	ecx, DWORD PTR __Where$[ebp]
	call	??8?$_Tree_const_iterator@V?$_Tree_val@U?$_Tree_simple_types@U?$pair@$$CBHPAVBaseGameEntity@@@std@@@std@@@std@@@std@@QBE_NABV01@@Z ; std::_Tree_const_iterator<std::_Tree_val<std::_Tree_simple_types<std::pair<int const ,BaseGameEntity *> > > >::operator==
	movzx	eax, al
	test	eax, eax
	jne	SHORT $LN3@find
	mov	ecx, DWORD PTR __Where$[ebp+8]
	push	ecx
	mov	ecx, DWORD PTR _this$[ebp]
	call	?_Key@?$_Tree@V?$_Tmap_traits@HPAVBaseGameEntity@@U?$less@H@std@@V?$allocator@U?$pair@$$CBHPAVBaseGameEntity@@@std@@@3@$0A@@std@@@std@@IBEABHPAU?$_Tree_node@U?$pair@$$CBHPAVBaseGameEntity@@@std@@PAX@2@@Z ; std::_Tree<std::_Tmap_traits<int,BaseGameEntity *,std::less<int>,std::allocator<std::pair<int const ,BaseGameEntity *> >,0> >::_Key
	push	eax
	mov	edx, DWORD PTR __Keyval$[ebp]
	push	edx
	mov	ecx, DWORD PTR _this$[ebp]
	call	?_Getcomp@?$_Tree_comp_alloc@V?$_Tmap_traits@HPAVBaseGameEntity@@U?$less@H@std@@V?$allocator@U?$pair@$$CBHPAVBaseGameEntity@@@std@@@3@$0A@@std@@@std@@QBEABU?$less@H@2@XZ ; std::_Tree_comp_alloc<std::_Tmap_traits<int,BaseGameEntity *,std::less<int>,std::allocator<std::pair<int const ,BaseGameEntity *> >,0> >::_Getcomp
	push	eax
	call	??$_Debug_lt_pred@ABU?$less@H@std@@ABHABH@std@@YA_NABU?$less@H@0@ABH1@Z ; std::_Debug_lt_pred<std::less<int> const &,int const &,int const &>
	add	esp, 12					; 0000000cH
	movzx	eax, al
	test	eax, eax
	jne	SHORT $LN3@find
	lea	ecx, DWORD PTR __Where$[ebp]
	push	ecx
	lea	ecx, DWORD PTR $T3[ebp]
	call	??0?$_Tree_const_iterator@V?$_Tree_val@U?$_Tree_simple_types@U?$pair@$$CBHPAVBaseGameEntity@@@std@@@std@@@std@@@std@@QAE@ABV01@@Z
	mov	DWORD PTR tv156[ebp], eax
	mov	edx, DWORD PTR $T2[ebp]
	or	edx, 2
	mov	DWORD PTR $T2[ebp], edx
	mov	eax, DWORD PTR tv156[ebp]
	mov	DWORD PTR tv143[ebp], eax
	jmp	SHORT $LN4@find
$LN3@find:
	lea	ecx, DWORD PTR $T4[ebp]
	push	ecx
	mov	ecx, DWORD PTR _this$[ebp]
	call	?end@?$_Tree@V?$_Tmap_traits@HPAVBaseGameEntity@@U?$less@H@std@@V?$allocator@U?$pair@$$CBHPAVBaseGameEntity@@@std@@@3@$0A@@std@@@std@@QBE?AV?$_Tree_const_iterator@V?$_Tree_val@U?$_Tree_simple_types@U?$pair@$$CBHPAVBaseGameEntity@@@std@@@std@@@std@@@2@XZ ; std::_Tree<std::_Tmap_traits<int,BaseGameEntity *,std::less<int>,std::allocator<std::pair<int const ,BaseGameEntity *> >,0> >::end
	mov	DWORD PTR tv161[ebp], eax
	mov	edx, DWORD PTR $T2[ebp]
	or	edx, 4
	mov	DWORD PTR $T2[ebp], edx
	mov	eax, DWORD PTR tv161[ebp]
	mov	DWORD PTR tv143[ebp], eax
$LN4@find:
	mov	ecx, DWORD PTR tv143[ebp]
	mov	DWORD PTR $T6[ebp], ecx
	mov	edx, DWORD PTR $T6[ebp]
	push	edx
	mov	ecx, DWORD PTR ___$ReturnUdt$[ebp]
	call	??0?$_Tree_const_iterator@V?$_Tree_val@U?$_Tree_simple_types@U?$pair@$$CBHPAVBaseGameEntity@@@std@@@std@@@std@@@std@@QAE@$$QAV01@@Z
	mov	eax, DWORD PTR $T2[ebp]
	or	eax, 8
	mov	DWORD PTR $T2[ebp], eax
	mov	ecx, DWORD PTR $T2[ebp]
	and	ecx, 4
	je	SHORT $LN14@find
	and	DWORD PTR $T2[ebp], -5			; fffffffbH
	lea	ecx, DWORD PTR $T4[ebp]
	call	??1?$_Tree_const_iterator@V?$_Tree_val@U?$_Tree_simple_types@U?$pair@$$CBHPAVBaseGameEntity@@@std@@@std@@@std@@@std@@QAE@XZ
$LN14@find:
	mov	edx, DWORD PTR $T2[ebp]
	and	edx, 2
	je	SHORT $LN15@find
	and	DWORD PTR $T2[ebp], -3			; fffffffdH
	lea	ecx, DWORD PTR $T3[ebp]
	call	??1?$_Tree_const_iterator@V?$_Tree_val@U?$_Tree_simple_types@U?$pair@$$CBHPAVBaseGameEntity@@@std@@@std@@@std@@@std@@QAE@XZ
$LN15@find:
	mov	DWORD PTR __$EHRec$[ebp+8], 0
	mov	eax, DWORD PTR $T2[ebp]
	and	eax, 1
	je	SHORT $LN16@find
	and	DWORD PTR $T2[ebp], -2			; fffffffeH
	lea	ecx, DWORD PTR $T5[ebp]
	call	??1?$_Tree_const_iterator@V?$_Tree_val@U?$_Tree_simple_types@U?$pair@$$CBHPAVBaseGameEntity@@@std@@@std@@@std@@@std@@QAE@XZ
$LN16@find:
	mov	DWORD PTR __$EHRec$[ebp+8], -1
	lea	ecx, DWORD PTR __Where$[ebp]
	call	??1?$_Tree_const_iterator@V?$_Tree_val@U?$_Tree_simple_types@U?$pair@$$CBHPAVBaseGameEntity@@@std@@@std@@@std@@@std@@QAE@XZ
	mov	eax, DWORD PTR ___$ReturnUdt$[ebp]

; 1435 : 			|| _DEBUG_LT_PRED(this->_Getcomp(),
; 1436 : 				_Keyval, this->_Key(_Where._Ptr))
; 1437 : 					? end() : _Where);
; 1438 : 		}

	push	edx
	mov	ecx, ebp
	push	eax
	lea	edx, DWORD PTR $LN20@find
	call	@_RTC_CheckStackVars@8
	pop	eax
	pop	edx
	mov	ecx, DWORD PTR __$EHRec$[ebp]
	mov	DWORD PTR fs:0, ecx
	pop	ecx
	pop	edi
	add	esp, 100				; 00000064H
	cmp	ebp, esp
	call	__RTC_CheckEsp
	mov	esp, ebp
	pop	ebp
	ret	8
	npad	3
$LN20@find:
	DD	1
	DD	$LN19@find
$LN19@find:
	DD	-32					; ffffffe0H
	DD	12					; 0000000cH
	DD	$LN17@find
$LN17@find:
	DB	95					; 0000005fH
	DB	87					; 00000057H
	DB	104					; 00000068H
	DB	101					; 00000065H
	DB	114					; 00000072H
	DB	101					; 00000065H
	DB	0
_TEXT	ENDS
;	COMDAT text$x
text$x	SEGMENT
__unwindfunclet$?find@?$_Tree@V?$_Tmap_traits@HPAVBaseGameEntity@@U?$less@H@std@@V?$allocator@U?$pair@$$CBHPAVBaseGameEntity@@@std@@@3@$0A@@std@@@std@@QBE?AV?$_Tree_const_iterator@V?$_Tree_val@U?$_Tree_simple_types@U?$pair@$$CBHPAVBaseGameEntity@@@std@@@std@@@std@@@2@ABH@Z$0:
	lea	ecx, DWORD PTR __Where$[ebp]
	jmp	??1?$_Tree_const_iterator@V?$_Tree_val@U?$_Tree_simple_types@U?$pair@$$CBHPAVBaseGameEntity@@@std@@@std@@@std@@@std@@QAE@XZ
__unwindfunclet$?find@?$_Tree@V?$_Tmap_traits@HPAVBaseGameEntity@@U?$less@H@std@@V?$allocator@U?$pair@$$CBHPAVBaseGameEntity@@@std@@@3@$0A@@std@@@std@@QBE?AV?$_Tree_const_iterator@V?$_Tree_val@U?$_Tree_simple_types@U?$pair@$$CBHPAVBaseGameEntity@@@std@@@std@@@std@@@2@ABH@Z$1:
	mov	eax, DWORD PTR $T2[ebp]
	and	eax, 1
	je	$LN7@find
	and	DWORD PTR $T2[ebp], -2			; fffffffeH
	lea	ecx, DWORD PTR $T5[ebp]
	jmp	??1?$_Tree_const_iterator@V?$_Tree_val@U?$_Tree_simple_types@U?$pair@$$CBHPAVBaseGameEntity@@@std@@@std@@@std@@@std@@QAE@XZ
$LN7@find:
	ret	0
__ehhandler$?find@?$_Tree@V?$_Tmap_traits@HPAVBaseGameEntity@@U?$less@H@std@@V?$allocator@U?$pair@$$CBHPAVBaseGameEntity@@@std@@@3@$0A@@std@@@std@@QBE?AV?$_Tree_const_iterator@V?$_Tree_val@U?$_Tree_simple_types@U?$pair@$$CBHPAVBaseGameEntity@@@std@@@std@@@std@@@2@ABH@Z:
	mov	edx, DWORD PTR [esp+8]
	lea	eax, DWORD PTR [edx+12]
	mov	ecx, DWORD PTR [edx-96]
	xor	ecx, eax
	call	@__security_check_cookie@4
	mov	eax, OFFSET __ehfuncinfo$?find@?$_Tree@V?$_Tmap_traits@HPAVBaseGameEntity@@U?$less@H@std@@V?$allocator@U?$pair@$$CBHPAVBaseGameEntity@@@std@@@3@$0A@@std@@@std@@QBE?AV?$_Tree_const_iterator@V?$_Tree_val@U?$_Tree_simple_types@U?$pair@$$CBHPAVBaseGameEntity@@@std@@@std@@@std@@@2@ABH@Z
	jmp	___CxxFrameHandler3
text$x	ENDS
?find@?$_Tree@V?$_Tmap_traits@HPAVBaseGameEntity@@U?$less@H@std@@V?$allocator@U?$pair@$$CBHPAVBaseGameEntity@@@std@@@3@$0A@@std@@@std@@QBE?AV?$_Tree_const_iterator@V?$_Tree_val@U?$_Tree_simple_types@U?$pair@$$CBHPAVBaseGameEntity@@@std@@@std@@@std@@@2@ABH@Z ENDP ; std::_Tree<std::_Tmap_traits<int,BaseGameEntity *,std::less<int>,std::allocator<std::pair<int const ,BaseGameEntity *> >,0> >::find
; Function compile flags: /Odtp /RTCsu
; File c:\program files (x86)\microsoft visual studio\2017\community\vc\tools\msvc\14.15.26726\include\xtree
;	COMDAT ?find@?$_Tree@V?$_Tmap_traits@HPAVBaseGameEntity@@U?$less@H@std@@V?$allocator@U?$pair@$$CBHPAVBaseGameEntity@@@std@@@3@$0A@@std@@@std@@QAE?AV?$_Tree_iterator@V?$_Tree_val@U?$_Tree_simple_types@U?$pair@$$CBHPAVBaseGameEntity@@@std@@@std@@@std@@@2@ABH@Z
_TEXT	SEGMENT
tv169 = -100						; size = 4
tv151 = -96						; size = 4
tv164 = -92						; size = 4
tv159 = -88						; size = 4
tv65 = -84						; size = 4
$T2 = -80						; size = 4
$T3 = -76						; size = 12
$T4 = -64						; size = 12
$T5 = -52						; size = 12
$T6 = -40						; size = 4
__Where$ = -32						; size = 12
_this$ = -16						; size = 4
__$EHRec$ = -12						; size = 12
___$ReturnUdt$ = 8					; size = 4
__Keyval$ = 12						; size = 4
?find@?$_Tree@V?$_Tmap_traits@HPAVBaseGameEntity@@U?$less@H@std@@V?$allocator@U?$pair@$$CBHPAVBaseGameEntity@@@std@@@3@$0A@@std@@@std@@QAE?AV?$_Tree_iterator@V?$_Tree_val@U?$_Tree_simple_types@U?$pair@$$CBHPAVBaseGameEntity@@@std@@@std@@@std@@@2@ABH@Z PROC ; std::_Tree<std::_Tmap_traits<int,BaseGameEntity *,std::less<int>,std::allocator<std::pair<int const ,BaseGameEntity *> >,0> >::find, COMDAT
; _this$ = ecx

; 1423 : 		{	// find an element in mutable sequence that matches _Keyval

	push	ebp
	mov	ebp, esp
	push	-1
	push	__ehhandler$?find@?$_Tree@V?$_Tmap_traits@HPAVBaseGameEntity@@U?$less@H@std@@V?$allocator@U?$pair@$$CBHPAVBaseGameEntity@@@std@@@3@$0A@@std@@@std@@QAE?AV?$_Tree_iterator@V?$_Tree_val@U?$_Tree_simple_types@U?$pair@$$CBHPAVBaseGameEntity@@@std@@@std@@@std@@@2@ABH@Z
	mov	eax, DWORD PTR fs:0
	push	eax
	sub	esp, 88					; 00000058H
	push	edi
	push	ecx
	lea	edi, DWORD PTR [ebp-100]
	mov	ecx, 22					; 00000016H
	mov	eax, -858993460				; ccccccccH
	rep stosd
	pop	ecx
	mov	eax, DWORD PTR ___security_cookie
	xor	eax, ebp
	push	eax
	lea	eax, DWORD PTR __$EHRec$[ebp]
	mov	DWORD PTR fs:0, eax
	mov	DWORD PTR _this$[ebp], ecx
	mov	DWORD PTR $T2[ebp], 0

; 1424 : 		iterator _Where = lower_bound(_Keyval);

	mov	eax, DWORD PTR __Keyval$[ebp]
	push	eax
	lea	ecx, DWORD PTR __Where$[ebp]
	push	ecx
	mov	ecx, DWORD PTR _this$[ebp]
	call	?lower_bound@?$_Tree@V?$_Tmap_traits@HPAVBaseGameEntity@@U?$less@H@std@@V?$allocator@U?$pair@$$CBHPAVBaseGameEntity@@@std@@@3@$0A@@std@@@std@@QAE?AV?$_Tree_iterator@V?$_Tree_val@U?$_Tree_simple_types@U?$pair@$$CBHPAVBaseGameEntity@@@std@@@std@@@std@@@2@ABH@Z ; std::_Tree<std::_Tmap_traits<int,BaseGameEntity *,std::less<int>,std::allocator<std::pair<int const ,BaseGameEntity *> >,0> >::lower_bound
	mov	DWORD PTR __$EHRec$[ebp+8], 0

; 1425 : 		return (_Where == end()

	lea	edx, DWORD PTR $T5[ebp]
	push	edx
	mov	ecx, DWORD PTR _this$[ebp]
	call	?end@?$_Tree@V?$_Tmap_traits@HPAVBaseGameEntity@@U?$less@H@std@@V?$allocator@U?$pair@$$CBHPAVBaseGameEntity@@@std@@@3@$0A@@std@@@std@@QAE?AV?$_Tree_iterator@V?$_Tree_val@U?$_Tree_simple_types@U?$pair@$$CBHPAVBaseGameEntity@@@std@@@std@@@std@@@2@XZ ; std::_Tree<std::_Tmap_traits<int,BaseGameEntity *,std::less<int>,std::allocator<std::pair<int const ,BaseGameEntity *> >,0> >::end
	mov	DWORD PTR tv65[ebp], eax
	mov	eax, DWORD PTR tv65[ebp]
	mov	DWORD PTR tv159[ebp], eax
	mov	BYTE PTR __$EHRec$[ebp+8], 1
	mov	ecx, DWORD PTR $T2[ebp]
	or	ecx, 1
	mov	DWORD PTR $T2[ebp], ecx
	mov	edx, DWORD PTR tv159[ebp]
	push	edx
	lea	ecx, DWORD PTR __Where$[ebp]
	call	??8?$_Tree_const_iterator@V?$_Tree_val@U?$_Tree_simple_types@U?$pair@$$CBHPAVBaseGameEntity@@@std@@@std@@@std@@@std@@QBE_NABV01@@Z ; std::_Tree_const_iterator<std::_Tree_val<std::_Tree_simple_types<std::pair<int const ,BaseGameEntity *> > > >::operator==
	movzx	eax, al
	test	eax, eax
	jne	SHORT $LN3@find
	mov	ecx, DWORD PTR __Where$[ebp+8]
	push	ecx
	mov	ecx, DWORD PTR _this$[ebp]
	call	?_Key@?$_Tree@V?$_Tmap_traits@HPAVBaseGameEntity@@U?$less@H@std@@V?$allocator@U?$pair@$$CBHPAVBaseGameEntity@@@std@@@3@$0A@@std@@@std@@IBEABHPAU?$_Tree_node@U?$pair@$$CBHPAVBaseGameEntity@@@std@@PAX@2@@Z ; std::_Tree<std::_Tmap_traits<int,BaseGameEntity *,std::less<int>,std::allocator<std::pair<int const ,BaseGameEntity *> >,0> >::_Key
	push	eax
	mov	edx, DWORD PTR __Keyval$[ebp]
	push	edx
	mov	ecx, DWORD PTR _this$[ebp]
	call	?_Getcomp@?$_Tree_comp_alloc@V?$_Tmap_traits@HPAVBaseGameEntity@@U?$less@H@std@@V?$allocator@U?$pair@$$CBHPAVBaseGameEntity@@@std@@@3@$0A@@std@@@std@@QAEAAU?$less@H@2@XZ ; std::_Tree_comp_alloc<std::_Tmap_traits<int,BaseGameEntity *,std::less<int>,std::allocator<std::pair<int const ,BaseGameEntity *> >,0> >::_Getcomp
	push	eax
	call	??$_Debug_lt_pred@AAU?$less@H@std@@ABHABH@std@@YA_NAAU?$less@H@0@ABH1@Z ; std::_Debug_lt_pred<std::less<int> &,int const &,int const &>
	add	esp, 12					; 0000000cH
	movzx	eax, al
	test	eax, eax
	jne	SHORT $LN3@find
	lea	ecx, DWORD PTR __Where$[ebp]
	push	ecx
	lea	ecx, DWORD PTR $T3[ebp]
	call	??0?$_Tree_iterator@V?$_Tree_val@U?$_Tree_simple_types@U?$pair@$$CBHPAVBaseGameEntity@@@std@@@std@@@std@@@std@@QAE@ABV01@@Z
	mov	DWORD PTR tv164[ebp], eax
	mov	edx, DWORD PTR $T2[ebp]
	or	edx, 2
	mov	DWORD PTR $T2[ebp], edx
	mov	eax, DWORD PTR tv164[ebp]
	mov	DWORD PTR tv151[ebp], eax
	jmp	SHORT $LN4@find
$LN3@find:
	lea	ecx, DWORD PTR $T4[ebp]
	push	ecx
	mov	ecx, DWORD PTR _this$[ebp]
	call	?end@?$_Tree@V?$_Tmap_traits@HPAVBaseGameEntity@@U?$less@H@std@@V?$allocator@U?$pair@$$CBHPAVBaseGameEntity@@@std@@@3@$0A@@std@@@std@@QAE?AV?$_Tree_iterator@V?$_Tree_val@U?$_Tree_simple_types@U?$pair@$$CBHPAVBaseGameEntity@@@std@@@std@@@std@@@2@XZ ; std::_Tree<std::_Tmap_traits<int,BaseGameEntity *,std::less<int>,std::allocator<std::pair<int const ,BaseGameEntity *> >,0> >::end
	mov	DWORD PTR tv169[ebp], eax
	mov	edx, DWORD PTR $T2[ebp]
	or	edx, 4
	mov	DWORD PTR $T2[ebp], edx
	mov	eax, DWORD PTR tv169[ebp]
	mov	DWORD PTR tv151[ebp], eax
$LN4@find:
	mov	ecx, DWORD PTR tv151[ebp]
	mov	DWORD PTR $T6[ebp], ecx
	mov	edx, DWORD PTR $T6[ebp]
	push	edx
	mov	ecx, DWORD PTR ___$ReturnUdt$[ebp]
	call	??0?$_Tree_iterator@V?$_Tree_val@U?$_Tree_simple_types@U?$pair@$$CBHPAVBaseGameEntity@@@std@@@std@@@std@@@std@@QAE@$$QAV01@@Z
	mov	eax, DWORD PTR $T2[ebp]
	or	eax, 8
	mov	DWORD PTR $T2[ebp], eax
	mov	ecx, DWORD PTR $T2[ebp]
	and	ecx, 4
	je	SHORT $LN14@find
	and	DWORD PTR $T2[ebp], -5			; fffffffbH
	lea	ecx, DWORD PTR $T4[ebp]
	call	??1?$_Tree_iterator@V?$_Tree_val@U?$_Tree_simple_types@U?$pair@$$CBHPAVBaseGameEntity@@@std@@@std@@@std@@@std@@QAE@XZ
$LN14@find:
	mov	edx, DWORD PTR $T2[ebp]
	and	edx, 2
	je	SHORT $LN15@find
	and	DWORD PTR $T2[ebp], -3			; fffffffdH
	lea	ecx, DWORD PTR $T3[ebp]
	call	??1?$_Tree_iterator@V?$_Tree_val@U?$_Tree_simple_types@U?$pair@$$CBHPAVBaseGameEntity@@@std@@@std@@@std@@@std@@QAE@XZ
$LN15@find:
	mov	DWORD PTR __$EHRec$[ebp+8], 0
	mov	eax, DWORD PTR $T2[ebp]
	and	eax, 1
	je	SHORT $LN16@find
	and	DWORD PTR $T2[ebp], -2			; fffffffeH
	lea	ecx, DWORD PTR $T5[ebp]
	call	??1?$_Tree_iterator@V?$_Tree_val@U?$_Tree_simple_types@U?$pair@$$CBHPAVBaseGameEntity@@@std@@@std@@@std@@@std@@QAE@XZ
$LN16@find:
	mov	DWORD PTR __$EHRec$[ebp+8], -1
	lea	ecx, DWORD PTR __Where$[ebp]
	call	??1?$_Tree_iterator@V?$_Tree_val@U?$_Tree_simple_types@U?$pair@$$CBHPAVBaseGameEntity@@@std@@@std@@@std@@@std@@QAE@XZ
	mov	eax, DWORD PTR ___$ReturnUdt$[ebp]

; 1426 : 			|| _DEBUG_LT_PRED(this->_Getcomp(),
; 1427 : 				_Keyval, this->_Key(_Where._Ptr))
; 1428 : 					? end() : _Where);
; 1429 : 		}

	push	edx
	mov	ecx, ebp
	push	eax
	lea	edx, DWORD PTR $LN20@find
	call	@_RTC_CheckStackVars@8
	pop	eax
	pop	edx
	mov	ecx, DWORD PTR __$EHRec$[ebp]
	mov	DWORD PTR fs:0, ecx
	pop	ecx
	pop	edi
	add	esp, 100				; 00000064H
	cmp	ebp, esp
	call	__RTC_CheckEsp
	mov	esp, ebp
	pop	ebp
	ret	8
	npad	3
$LN20@find:
	DD	1
	DD	$LN19@find
$LN19@find:
	DD	-32					; ffffffe0H
	DD	12					; 0000000cH
	DD	$LN17@find
$LN17@find:
	DB	95					; 0000005fH
	DB	87					; 00000057H
	DB	104					; 00000068H
	DB	101					; 00000065H
	DB	114					; 00000072H
	DB	101					; 00000065H
	DB	0
_TEXT	ENDS
;	COMDAT text$x
text$x	SEGMENT
__unwindfunclet$?find@?$_Tree@V?$_Tmap_traits@HPAVBaseGameEntity@@U?$less@H@std@@V?$allocator@U?$pair@$$CBHPAVBaseGameEntity@@@std@@@3@$0A@@std@@@std@@QAE?AV?$_Tree_iterator@V?$_Tree_val@U?$_Tree_simple_types@U?$pair@$$CBHPAVBaseGameEntity@@@std@@@std@@@std@@@2@ABH@Z$0:
	lea	ecx, DWORD PTR __Where$[ebp]
	jmp	??1?$_Tree_iterator@V?$_Tree_val@U?$_Tree_simple_types@U?$pair@$$CBHPAVBaseGameEntity@@@std@@@std@@@std@@@std@@QAE@XZ
__unwindfunclet$?find@?$_Tree@V?$_Tmap_traits@HPAVBaseGameEntity@@U?$less@H@std@@V?$allocator@U?$pair@$$CBHPAVBaseGameEntity@@@std@@@3@$0A@@std@@@std@@QAE?AV?$_Tree_iterator@V?$_Tree_val@U?$_Tree_simple_types@U?$pair@$$CBHPAVBaseGameEntity@@@std@@@std@@@std@@@2@ABH@Z$1:
	mov	eax, DWORD PTR $T2[ebp]
	and	eax, 1
	je	$LN7@find
	and	DWORD PTR $T2[ebp], -2			; fffffffeH
	lea	ecx, DWORD PTR $T5[ebp]
	jmp	??1?$_Tree_iterator@V?$_Tree_val@U?$_Tree_simple_types@U?$pair@$$CBHPAVBaseGameEntity@@@std@@@std@@@std@@@std@@QAE@XZ
$LN7@find:
	ret	0
__ehhandler$?find@?$_Tree@V?$_Tmap_traits@HPAVBaseGameEntity@@U?$less@H@std@@V?$allocator@U?$pair@$$CBHPAVBaseGameEntity@@@std@@@3@$0A@@std@@@std@@QAE?AV?$_Tree_iterator@V?$_Tree_val@U?$_Tree_simple_types@U?$pair@$$CBHPAVBaseGameEntity@@@std@@@std@@@std@@@2@ABH@Z:
	mov	edx, DWORD PTR [esp+8]
	lea	eax, DWORD PTR [edx+12]
	mov	ecx, DWORD PTR [edx-96]
	xor	ecx, eax
	call	@__security_check_cookie@4
	mov	eax, OFFSET __ehfuncinfo$?find@?$_Tree@V?$_Tmap_traits@HPAVBaseGameEntity@@U?$less@H@std@@V?$allocator@U?$pair@$$CBHPAVBaseGameEntity@@@std@@@3@$0A@@std@@@std@@QAE?AV?$_Tree_iterator@V?$_Tree_val@U?$_Tree_simple_types@U?$pair@$$CBHPAVBaseGameEntity@@@std@@@std@@@std@@@2@ABH@Z
	jmp	___CxxFrameHandler3
text$x	ENDS
?find@?$_Tree@V?$_Tmap_traits@HPAVBaseGameEntity@@U?$less@H@std@@V?$allocator@U?$pair@$$CBHPAVBaseGameEntity@@@std@@@3@$0A@@std@@@std@@QAE?AV?$_Tree_iterator@V?$_Tree_val@U?$_Tree_simple_types@U?$pair@$$CBHPAVBaseGameEntity@@@std@@@std@@@std@@@2@ABH@Z ENDP ; std::_Tree<std::_Tmap_traits<int,BaseGameEntity *,std::less<int>,std::allocator<std::pair<int const ,BaseGameEntity *> >,0> >::find
; Function compile flags: /Odtp /RTCsu
; File c:\program files (x86)\microsoft visual studio\2017\community\vc\tools\msvc\14.15.26726\include\xtree
;	COMDAT ?clear@?$_Tree@V?$_Tmap_traits@HPAVBaseGameEntity@@U?$less@H@std@@V?$allocator@U?$pair@$$CBHPAVBaseGameEntity@@@std@@@3@$0A@@std@@@std@@QAEXXZ
_TEXT	SEGMENT
__Head$ = -24						; size = 4
__My_data$ = -20					; size = 4
_this$ = -16						; size = 4
__$EHRec$ = -12						; size = 12
?clear@?$_Tree@V?$_Tmap_traits@HPAVBaseGameEntity@@U?$less@H@std@@V?$allocator@U?$pair@$$CBHPAVBaseGameEntity@@@std@@@3@$0A@@std@@@std@@QAEXXZ PROC ; std::_Tree<std::_Tmap_traits<int,BaseGameEntity *,std::less<int>,std::allocator<std::pair<int const ,BaseGameEntity *> >,0> >::clear, COMDAT
; _this$ = ecx

; 1408 : 		{	// erase all

	push	ebp
	mov	ebp, esp
	push	-1
	push	__ehhandler$?clear@?$_Tree@V?$_Tmap_traits@HPAVBaseGameEntity@@U?$less@H@std@@V?$allocator@U?$pair@$$CBHPAVBaseGameEntity@@@std@@@3@$0A@@std@@@std@@QAEXXZ
	mov	eax, DWORD PTR fs:0
	push	eax
	sub	esp, 12					; 0000000cH
	mov	DWORD PTR [ebp-24], -858993460		; ccccccccH
	mov	DWORD PTR [ebp-20], -858993460		; ccccccccH
	mov	DWORD PTR [ebp-16], -858993460		; ccccccccH
	mov	eax, DWORD PTR ___security_cookie
	xor	eax, ebp
	push	eax
	lea	eax, DWORD PTR __$EHRec$[ebp]
	mov	DWORD PTR fs:0, eax
	mov	DWORD PTR _this$[ebp], ecx

; 1409 :  #if _ITERATOR_DEBUG_LEVEL == 2
; 1410 : 		this->_Orphan_ptr(nullptr);

	push	0
	mov	ecx, DWORD PTR _this$[ebp]
	call	?_Orphan_ptr@?$_Tree@V?$_Tmap_traits@HPAVBaseGameEntity@@U?$less@H@std@@V?$allocator@U?$pair@$$CBHPAVBaseGameEntity@@@std@@@3@$0A@@std@@@std@@IAEXPAU?$_Tree_node@U?$pair@$$CBHPAVBaseGameEntity@@@std@@PAX@2@@Z ; std::_Tree<std::_Tmap_traits<int,BaseGameEntity *,std::less<int>,std::allocator<std::pair<int const ,BaseGameEntity *> >,0> >::_Orphan_ptr

; 1411 :  #endif /* _ITERATOR_DEBUG_LEVEL == 2 */
; 1412 : 
; 1413 : 		auto& _My_data = this->_Get_data();

	mov	ecx, DWORD PTR _this$[ebp]
	call	?_Get_data@?$_Tree_comp_alloc@V?$_Tmap_traits@HPAVBaseGameEntity@@U?$less@H@std@@V?$allocator@U?$pair@$$CBHPAVBaseGameEntity@@@std@@@3@$0A@@std@@@std@@QAEAAV?$_Tree_val@U?$_Tree_simple_types@U?$pair@$$CBHPAVBaseGameEntity@@@std@@@std@@@2@XZ ; std::_Tree_comp_alloc<std::_Tmap_traits<int,BaseGameEntity *,std::less<int>,std::allocator<std::pair<int const ,BaseGameEntity *> >,0> >::_Get_data
	mov	DWORD PTR __My_data$[ebp], eax

; 1414 : 		auto _Head = _My_data._Myhead;

	mov	eax, DWORD PTR __My_data$[ebp]
	mov	ecx, DWORD PTR [eax+4]
	mov	DWORD PTR __Head$[ebp], ecx

; 1415 : 		_Erase(_My_data._Root());

	mov	ecx, DWORD PTR __My_data$[ebp]
	call	?_Root@?$_Tree_val@U?$_Tree_simple_types@U?$pair@$$CBHPAVBaseGameEntity@@@std@@@std@@@std@@QBEAAPAU?$_Tree_node@U?$pair@$$CBHPAVBaseGameEntity@@@std@@PAX@2@XZ ; std::_Tree_val<std::_Tree_simple_types<std::pair<int const ,BaseGameEntity *> > >::_Root
	mov	edx, DWORD PTR [eax]
	push	edx
	mov	ecx, DWORD PTR _this$[ebp]
	call	?_Erase@?$_Tree@V?$_Tmap_traits@HPAVBaseGameEntity@@U?$less@H@std@@V?$allocator@U?$pair@$$CBHPAVBaseGameEntity@@@std@@@3@$0A@@std@@@std@@IAEXPAU?$_Tree_node@U?$pair@$$CBHPAVBaseGameEntity@@@std@@PAX@2@@Z ; std::_Tree<std::_Tmap_traits<int,BaseGameEntity *,std::less<int>,std::allocator<std::pair<int const ,BaseGameEntity *> >,0> >::_Erase

; 1416 : 		_My_data._Root() = _Head;

	mov	ecx, DWORD PTR __My_data$[ebp]
	call	?_Root@?$_Tree_val@U?$_Tree_simple_types@U?$pair@$$CBHPAVBaseGameEntity@@@std@@@std@@@std@@QBEAAPAU?$_Tree_node@U?$pair@$$CBHPAVBaseGameEntity@@@std@@PAX@2@XZ ; std::_Tree_val<std::_Tree_simple_types<std::pair<int const ,BaseGameEntity *> > >::_Root
	mov	ecx, DWORD PTR __Head$[ebp]
	mov	DWORD PTR [eax], ecx

; 1417 : 		_My_data._Lmost() = _Head;

	mov	ecx, DWORD PTR __My_data$[ebp]
	call	?_Lmost@?$_Tree_val@U?$_Tree_simple_types@U?$pair@$$CBHPAVBaseGameEntity@@@std@@@std@@@std@@QBEAAPAU?$_Tree_node@U?$pair@$$CBHPAVBaseGameEntity@@@std@@PAX@2@XZ ; std::_Tree_val<std::_Tree_simple_types<std::pair<int const ,BaseGameEntity *> > >::_Lmost
	mov	edx, DWORD PTR __Head$[ebp]
	mov	DWORD PTR [eax], edx

; 1418 : 		_My_data._Rmost() = _Head;

	mov	ecx, DWORD PTR __My_data$[ebp]
	call	?_Rmost@?$_Tree_val@U?$_Tree_simple_types@U?$pair@$$CBHPAVBaseGameEntity@@@std@@@std@@@std@@QBEAAPAU?$_Tree_node@U?$pair@$$CBHPAVBaseGameEntity@@@std@@PAX@2@XZ ; std::_Tree_val<std::_Tree_simple_types<std::pair<int const ,BaseGameEntity *> > >::_Rmost
	mov	ecx, DWORD PTR __Head$[ebp]
	mov	DWORD PTR [eax], ecx

; 1419 : 		_My_data._Mysize = 0;

	mov	edx, DWORD PTR __My_data$[ebp]
	mov	DWORD PTR [edx+8], 0

; 1420 : 		}

	mov	ecx, DWORD PTR __$EHRec$[ebp]
	mov	DWORD PTR fs:0, ecx
	pop	ecx
	add	esp, 24					; 00000018H
	cmp	ebp, esp
	call	__RTC_CheckEsp
	mov	esp, ebp
	pop	ebp
	ret	0
_TEXT	ENDS
;	COMDAT text$x
text$x	SEGMENT
__ehhandler$?clear@?$_Tree@V?$_Tmap_traits@HPAVBaseGameEntity@@U?$less@H@std@@V?$allocator@U?$pair@$$CBHPAVBaseGameEntity@@@std@@@3@$0A@@std@@@std@@QAEXXZ:
	mov	edx, DWORD PTR [esp+8]
	lea	eax, DWORD PTR [edx+12]
	mov	ecx, DWORD PTR [edx-16]
	xor	ecx, eax
	call	@__security_check_cookie@4
	mov	eax, OFFSET __ehfuncinfo$?clear@?$_Tree@V?$_Tmap_traits@HPAVBaseGameEntity@@U?$less@H@std@@V?$allocator@U?$pair@$$CBHPAVBaseGameEntity@@@std@@@3@$0A@@std@@@std@@QAEXXZ
	jmp	___CxxFrameHandler3
text$x	ENDS
?clear@?$_Tree@V?$_Tmap_traits@HPAVBaseGameEntity@@U?$less@H@std@@V?$allocator@U?$pair@$$CBHPAVBaseGameEntity@@@std@@@3@$0A@@std@@@std@@QAEXXZ ENDP ; std::_Tree<std::_Tmap_traits<int,BaseGameEntity *,std::less<int>,std::allocator<std::pair<int const ,BaseGameEntity *> >,0> >::clear
; Function compile flags: /Odtp /RTCsu
; File c:\program files (x86)\microsoft visual studio\2017\community\vc\tools\msvc\14.15.26726\include\xtree
;	COMDAT ?erase@?$_Tree@V?$_Tmap_traits@HPAVBaseGameEntity@@U?$less@H@std@@V?$allocator@U?$pair@$$CBHPAVBaseGameEntity@@@std@@@3@$0A@@std@@@std@@QAE?AV?$_Tree_iterator@V?$_Tree_val@U?$_Tree_simple_types@U?$pair@$$CBHPAVBaseGameEntity@@@std@@@std@@@std@@@2@V?$_Tree_const_iterator@V?$_Tree_val@U?$_Tree_simple_types@U?$pair@$$CBHPAVBaseGameEntity@@@std@@@std@@@std@@@2@0@Z
_TEXT	SEGMENT
tv201 = -88						; size = 4
tv94 = -84						; size = 4
tv188 = -80						; size = 4
tv208 = -76						; size = 4
tv183 = -72						; size = 4
tv160 = -68						; size = 4
$T2 = -64						; size = 4
$T3 = -60						; size = 12
$T4 = -48						; size = 4
$T5 = -44						; size = 12
$T6 = -32						; size = 12
$T7 = -17						; size = 1
_this$ = -16						; size = 4
__$EHRec$ = -12						; size = 12
___$ReturnUdt$ = 8					; size = 4
__First$ = 12						; size = 12
__Last$ = 24						; size = 12
?erase@?$_Tree@V?$_Tmap_traits@HPAVBaseGameEntity@@U?$less@H@std@@V?$allocator@U?$pair@$$CBHPAVBaseGameEntity@@@std@@@3@$0A@@std@@@std@@QAE?AV?$_Tree_iterator@V?$_Tree_val@U?$_Tree_simple_types@U?$pair@$$CBHPAVBaseGameEntity@@@std@@@std@@@std@@@2@V?$_Tree_const_iterator@V?$_Tree_val@U?$_Tree_simple_types@U?$pair@$$CBHPAVBaseGameEntity@@@std@@@std@@@std@@@2@0@Z PROC ; std::_Tree<std::_Tmap_traits<int,BaseGameEntity *,std::less<int>,std::allocator<std::pair<int const ,BaseGameEntity *> >,0> >::erase, COMDAT
; _this$ = ecx

; 1385 : 		{	// erase [_First, _Last)

	push	ebp
	mov	ebp, esp
	push	-1
	push	__ehhandler$?erase@?$_Tree@V?$_Tmap_traits@HPAVBaseGameEntity@@U?$less@H@std@@V?$allocator@U?$pair@$$CBHPAVBaseGameEntity@@@std@@@3@$0A@@std@@@std@@QAE?AV?$_Tree_iterator@V?$_Tree_val@U?$_Tree_simple_types@U?$pair@$$CBHPAVBaseGameEntity@@@std@@@std@@@std@@@2@V?$_Tree_const_iterator@V?$_Tree_val@U?$_Tree_simple_types@U?$pair@$$CBHPAVBaseGameEntity@@@std@@@std@@@std@@@2@0@Z
	mov	eax, DWORD PTR fs:0
	push	eax
	sub	esp, 76					; 0000004cH
	push	edi
	push	ecx
	lea	edi, DWORD PTR [ebp-88]
	mov	ecx, 19					; 00000013H
	mov	eax, -858993460				; ccccccccH
	rep stosd
	pop	ecx
	mov	eax, DWORD PTR ___security_cookie
	xor	eax, ebp
	push	eax
	lea	eax, DWORD PTR __$EHRec$[ebp]
	mov	DWORD PTR fs:0, eax
	mov	DWORD PTR _this$[ebp], ecx
	mov	DWORD PTR $T2[ebp], 0
	mov	DWORD PTR __$EHRec$[ebp+8], 1

; 1386 : 		if (_First == begin() && _Last == end())

	lea	eax, DWORD PTR $T6[ebp]
	push	eax
	mov	ecx, DWORD PTR _this$[ebp]
	call	?begin@?$_Tree@V?$_Tmap_traits@HPAVBaseGameEntity@@U?$less@H@std@@V?$allocator@U?$pair@$$CBHPAVBaseGameEntity@@@std@@@3@$0A@@std@@@std@@QAE?AV?$_Tree_iterator@V?$_Tree_val@U?$_Tree_simple_types@U?$pair@$$CBHPAVBaseGameEntity@@@std@@@std@@@std@@@2@XZ ; std::_Tree<std::_Tmap_traits<int,BaseGameEntity *,std::less<int>,std::allocator<std::pair<int const ,BaseGameEntity *> >,0> >::begin
	mov	DWORD PTR tv160[ebp], eax
	mov	ecx, DWORD PTR tv160[ebp]
	mov	DWORD PTR tv183[ebp], ecx
	mov	BYTE PTR __$EHRec$[ebp+8], 2
	mov	edx, DWORD PTR $T2[ebp]
	or	edx, 1
	mov	DWORD PTR $T2[ebp], edx
	mov	eax, DWORD PTR tv183[ebp]
	push	eax
	lea	ecx, DWORD PTR __First$[ebp]
	call	??8?$_Tree_const_iterator@V?$_Tree_val@U?$_Tree_simple_types@U?$pair@$$CBHPAVBaseGameEntity@@@std@@@std@@@std@@@std@@QBE_NABV01@@Z ; std::_Tree_const_iterator<std::_Tree_val<std::_Tree_simple_types<std::pair<int const ,BaseGameEntity *> > > >::operator==
	movzx	ecx, al
	test	ecx, ecx
	je	SHORT $LN7@erase
	lea	edx, DWORD PTR $T5[ebp]
	push	edx
	mov	ecx, DWORD PTR _this$[ebp]
	call	?end@?$_Tree@V?$_Tmap_traits@HPAVBaseGameEntity@@U?$less@H@std@@V?$allocator@U?$pair@$$CBHPAVBaseGameEntity@@@std@@@3@$0A@@std@@@std@@QAE?AV?$_Tree_iterator@V?$_Tree_val@U?$_Tree_simple_types@U?$pair@$$CBHPAVBaseGameEntity@@@std@@@std@@@std@@@2@XZ ; std::_Tree<std::_Tmap_traits<int,BaseGameEntity *,std::less<int>,std::allocator<std::pair<int const ,BaseGameEntity *> >,0> >::end
	mov	DWORD PTR tv208[ebp], eax
	mov	eax, DWORD PTR tv208[ebp]
	mov	DWORD PTR tv188[ebp], eax
	mov	DWORD PTR __$EHRec$[ebp+8], 3
	mov	ecx, DWORD PTR $T2[ebp]
	or	ecx, 2
	mov	DWORD PTR $T2[ebp], ecx
	mov	edx, DWORD PTR tv188[ebp]
	push	edx
	lea	ecx, DWORD PTR __Last$[ebp]
	call	??8?$_Tree_const_iterator@V?$_Tree_val@U?$_Tree_simple_types@U?$pair@$$CBHPAVBaseGameEntity@@@std@@@std@@@std@@@std@@QBE_NABV01@@Z ; std::_Tree_const_iterator<std::_Tree_val<std::_Tree_simple_types<std::pair<int const ,BaseGameEntity *> > > >::operator==
	movzx	eax, al
	test	eax, eax
	je	SHORT $LN7@erase
	mov	DWORD PTR tv94[ebp], 1
	jmp	SHORT $LN8@erase
$LN7@erase:
	mov	DWORD PTR tv94[ebp], 0
$LN8@erase:
	mov	cl, BYTE PTR tv94[ebp]
	mov	BYTE PTR $T7[ebp], cl
	mov	DWORD PTR __$EHRec$[ebp+8], 2
	mov	edx, DWORD PTR $T2[ebp]
	and	edx, 2
	je	SHORT $LN15@erase
	and	DWORD PTR $T2[ebp], -3			; fffffffdH
	lea	ecx, DWORD PTR $T5[ebp]
	call	??1?$_Tree_iterator@V?$_Tree_val@U?$_Tree_simple_types@U?$pair@$$CBHPAVBaseGameEntity@@@std@@@std@@@std@@@std@@QAE@XZ
$LN15@erase:
	mov	DWORD PTR __$EHRec$[ebp+8], 1
	mov	eax, DWORD PTR $T2[ebp]
	and	eax, 1
	je	SHORT $LN16@erase
	and	DWORD PTR $T2[ebp], -2			; fffffffeH
	lea	ecx, DWORD PTR $T6[ebp]
	call	??1?$_Tree_iterator@V?$_Tree_val@U?$_Tree_simple_types@U?$pair@$$CBHPAVBaseGameEntity@@@std@@@std@@@std@@@std@@QAE@XZ
$LN16@erase:
	movzx	ecx, BYTE PTR $T7[ebp]
	test	ecx, ecx
	je	SHORT $LN2@erase

; 1387 : 			{	// erase all
; 1388 : 			clear();

	mov	ecx, DWORD PTR _this$[ebp]
	call	?clear@?$_Tree@V?$_Tmap_traits@HPAVBaseGameEntity@@U?$less@H@std@@V?$allocator@U?$pair@$$CBHPAVBaseGameEntity@@@std@@@3@$0A@@std@@@std@@QAEXXZ ; std::_Tree<std::_Tmap_traits<int,BaseGameEntity *,std::less<int>,std::allocator<std::pair<int const ,BaseGameEntity *> >,0> >::clear

; 1389 : 			return (begin());

	mov	edx, DWORD PTR ___$ReturnUdt$[ebp]
	push	edx
	mov	ecx, DWORD PTR _this$[ebp]
	call	?begin@?$_Tree@V?$_Tmap_traits@HPAVBaseGameEntity@@U?$less@H@std@@V?$allocator@U?$pair@$$CBHPAVBaseGameEntity@@@std@@@3@$0A@@std@@@std@@QAE?AV?$_Tree_iterator@V?$_Tree_val@U?$_Tree_simple_types@U?$pair@$$CBHPAVBaseGameEntity@@@std@@@std@@@std@@@2@XZ ; std::_Tree<std::_Tmap_traits<int,BaseGameEntity *,std::less<int>,std::allocator<std::pair<int const ,BaseGameEntity *> >,0> >::begin
	mov	eax, DWORD PTR $T2[ebp]
	or	eax, 4
	mov	DWORD PTR $T2[ebp], eax
	mov	BYTE PTR __$EHRec$[ebp+8], 0
	lea	ecx, DWORD PTR __First$[ebp]
	call	??1?$_Tree_const_iterator@V?$_Tree_val@U?$_Tree_simple_types@U?$pair@$$CBHPAVBaseGameEntity@@@std@@@std@@@std@@@std@@QAE@XZ
	mov	DWORD PTR __$EHRec$[ebp+8], -1
	lea	ecx, DWORD PTR __Last$[ebp]
	call	??1?$_Tree_const_iterator@V?$_Tree_val@U?$_Tree_simple_types@U?$pair@$$CBHPAVBaseGameEntity@@@std@@@std@@@std@@@std@@QAE@XZ
	mov	eax, DWORD PTR ___$ReturnUdt$[ebp]
	jmp	$LN1@erase

; 1390 : 			}
; 1391 : 		else

	jmp	$LN5@erase
$LN2@erase:

; 1392 : 			{	// partial erase, one at a time
; 1393 : 			while (_First != _Last)

	lea	ecx, DWORD PTR __Last$[ebp]
	push	ecx
	lea	ecx, DWORD PTR __First$[ebp]
	call	??9?$_Tree_const_iterator@V?$_Tree_val@U?$_Tree_simple_types@U?$pair@$$CBHPAVBaseGameEntity@@@std@@@std@@@std@@@std@@QBE_NABV01@@Z ; std::_Tree_const_iterator<std::_Tree_val<std::_Tree_simple_types<std::pair<int const ,BaseGameEntity *> > > >::operator!=
	movzx	edx, al
	test	edx, edx
	je	SHORT $LN3@erase

; 1394 : 				erase(_First++);

	sub	esp, 12					; 0000000cH
	mov	eax, esp
	mov	DWORD PTR $T4[ebp], esp
	push	0
	push	eax
	lea	ecx, DWORD PTR __First$[ebp]
	call	??E?$_Tree_const_iterator@V?$_Tree_val@U?$_Tree_simple_types@U?$pair@$$CBHPAVBaseGameEntity@@@std@@@std@@@std@@@std@@QAE?AV01@H@Z ; std::_Tree_const_iterator<std::_Tree_val<std::_Tree_simple_types<std::pair<int const ,BaseGameEntity *> > > >::operator++
	lea	ecx, DWORD PTR $T3[ebp]
	push	ecx
	mov	ecx, DWORD PTR _this$[ebp]
	call	?erase@?$_Tree@V?$_Tmap_traits@HPAVBaseGameEntity@@U?$less@H@std@@V?$allocator@U?$pair@$$CBHPAVBaseGameEntity@@@std@@@3@$0A@@std@@@std@@QAE?AV?$_Tree_iterator@V?$_Tree_val@U?$_Tree_simple_types@U?$pair@$$CBHPAVBaseGameEntity@@@std@@@std@@@std@@@2@V?$_Tree_const_iterator@V?$_Tree_val@U?$_Tree_simple_types@U?$pair@$$CBHPAVBaseGameEntity@@@std@@@std@@@std@@@2@@Z ; std::_Tree<std::_Tmap_traits<int,BaseGameEntity *,std::less<int>,std::allocator<std::pair<int const ,BaseGameEntity *> >,0> >::erase
	mov	DWORD PTR tv201[ebp], eax
	lea	ecx, DWORD PTR $T3[ebp]
	call	??1?$_Tree_iterator@V?$_Tree_val@U?$_Tree_simple_types@U?$pair@$$CBHPAVBaseGameEntity@@@std@@@std@@@std@@@std@@QAE@XZ
	jmp	SHORT $LN2@erase
$LN3@erase:

; 1395 : 			return (iterator(_First._Ptr, _STD addressof(this->_Get_data())));

	mov	ecx, DWORD PTR _this$[ebp]
	call	?_Get_data@?$_Tree_comp_alloc@V?$_Tmap_traits@HPAVBaseGameEntity@@U?$less@H@std@@V?$allocator@U?$pair@$$CBHPAVBaseGameEntity@@@std@@@3@$0A@@std@@@std@@QAEAAV?$_Tree_val@U?$_Tree_simple_types@U?$pair@$$CBHPAVBaseGameEntity@@@std@@@std@@@2@XZ ; std::_Tree_comp_alloc<std::_Tmap_traits<int,BaseGameEntity *,std::less<int>,std::allocator<std::pair<int const ,BaseGameEntity *> >,0> >::_Get_data
	push	eax
	call	??$addressof@V?$_Tree_val@U?$_Tree_simple_types@U?$pair@$$CBHPAVBaseGameEntity@@@std@@@std@@@std@@@std@@YAPAV?$_Tree_val@U?$_Tree_simple_types@U?$pair@$$CBHPAVBaseGameEntity@@@std@@@std@@@0@AAV10@@Z ; std::addressof<std::_Tree_val<std::_Tree_simple_types<std::pair<int const ,BaseGameEntity *> > > >
	add	esp, 4
	push	eax
	mov	edx, DWORD PTR __First$[ebp+8]
	push	edx
	mov	ecx, DWORD PTR ___$ReturnUdt$[ebp]
	call	??0?$_Tree_iterator@V?$_Tree_val@U?$_Tree_simple_types@U?$pair@$$CBHPAVBaseGameEntity@@@std@@@std@@@std@@@std@@QAE@PAU?$_Tree_node@U?$pair@$$CBHPAVBaseGameEntity@@@std@@PAX@1@PBV?$_Tree_val@U?$_Tree_simple_types@U?$pair@$$CBHPAVBaseGameEntity@@@std@@@std@@@1@@Z ; std::_Tree_iterator<std::_Tree_val<std::_Tree_simple_types<std::pair<int const ,BaseGameEntity *> > > >::_Tree_iterator<std::_Tree_val<std::_Tree_simple_types<std::pair<int const ,BaseGameEntity *> > > >
	mov	eax, DWORD PTR $T2[ebp]
	or	eax, 4
	mov	DWORD PTR $T2[ebp], eax
	mov	BYTE PTR __$EHRec$[ebp+8], 0
	lea	ecx, DWORD PTR __First$[ebp]
	call	??1?$_Tree_const_iterator@V?$_Tree_val@U?$_Tree_simple_types@U?$pair@$$CBHPAVBaseGameEntity@@@std@@@std@@@std@@@std@@QAE@XZ
	mov	DWORD PTR __$EHRec$[ebp+8], -1
	lea	ecx, DWORD PTR __Last$[ebp]
	call	??1?$_Tree_const_iterator@V?$_Tree_val@U?$_Tree_simple_types@U?$pair@$$CBHPAVBaseGameEntity@@@std@@@std@@@std@@@std@@QAE@XZ
	mov	eax, DWORD PTR ___$ReturnUdt$[ebp]
	jmp	SHORT $LN1@erase
$LN5@erase:

; 1396 : 			}
; 1397 : 		}

	mov	BYTE PTR __$EHRec$[ebp+8], 0
	lea	ecx, DWORD PTR __First$[ebp]
	call	??1?$_Tree_const_iterator@V?$_Tree_val@U?$_Tree_simple_types@U?$pair@$$CBHPAVBaseGameEntity@@@std@@@std@@@std@@@std@@QAE@XZ
	mov	DWORD PTR __$EHRec$[ebp+8], -1
	lea	ecx, DWORD PTR __Last$[ebp]
	call	??1?$_Tree_const_iterator@V?$_Tree_val@U?$_Tree_simple_types@U?$pair@$$CBHPAVBaseGameEntity@@@std@@@std@@@std@@@std@@QAE@XZ
$LN1@erase:
	mov	ecx, DWORD PTR __$EHRec$[ebp]
	mov	DWORD PTR fs:0, ecx
	pop	ecx
	pop	edi
	add	esp, 88					; 00000058H
	cmp	ebp, esp
	call	__RTC_CheckEsp
	mov	esp, ebp
	pop	ebp
	ret	28					; 0000001cH
_TEXT	ENDS
;	COMDAT text$x
text$x	SEGMENT
__unwindfunclet$?erase@?$_Tree@V?$_Tmap_traits@HPAVBaseGameEntity@@U?$less@H@std@@V?$allocator@U?$pair@$$CBHPAVBaseGameEntity@@@std@@@3@$0A@@std@@@std@@QAE?AV?$_Tree_iterator@V?$_Tree_val@U?$_Tree_simple_types@U?$pair@$$CBHPAVBaseGameEntity@@@std@@@std@@@std@@@2@V?$_Tree_const_iterator@V?$_Tree_val@U?$_Tree_simple_types@U?$pair@$$CBHPAVBaseGameEntity@@@std@@@std@@@std@@@2@0@Z$0:
	lea	ecx, DWORD PTR __Last$[ebp]
	jmp	??1?$_Tree_const_iterator@V?$_Tree_val@U?$_Tree_simple_types@U?$pair@$$CBHPAVBaseGameEntity@@@std@@@std@@@std@@@std@@QAE@XZ
__unwindfunclet$?erase@?$_Tree@V?$_Tmap_traits@HPAVBaseGameEntity@@U?$less@H@std@@V?$allocator@U?$pair@$$CBHPAVBaseGameEntity@@@std@@@3@$0A@@std@@@std@@QAE?AV?$_Tree_iterator@V?$_Tree_val@U?$_Tree_simple_types@U?$pair@$$CBHPAVBaseGameEntity@@@std@@@std@@@std@@@2@V?$_Tree_const_iterator@V?$_Tree_val@U?$_Tree_simple_types@U?$pair@$$CBHPAVBaseGameEntity@@@std@@@std@@@std@@@2@0@Z$1:
	lea	ecx, DWORD PTR __First$[ebp]
	jmp	??1?$_Tree_const_iterator@V?$_Tree_val@U?$_Tree_simple_types@U?$pair@$$CBHPAVBaseGameEntity@@@std@@@std@@@std@@@std@@QAE@XZ
__unwindfunclet$?erase@?$_Tree@V?$_Tmap_traits@HPAVBaseGameEntity@@U?$less@H@std@@V?$allocator@U?$pair@$$CBHPAVBaseGameEntity@@@std@@@3@$0A@@std@@@std@@QAE?AV?$_Tree_iterator@V?$_Tree_val@U?$_Tree_simple_types@U?$pair@$$CBHPAVBaseGameEntity@@@std@@@std@@@std@@@2@V?$_Tree_const_iterator@V?$_Tree_val@U?$_Tree_simple_types@U?$pair@$$CBHPAVBaseGameEntity@@@std@@@std@@@std@@@2@0@Z$2:
	mov	eax, DWORD PTR $T2[ebp]
	and	eax, 1
	je	$LN12@erase
	and	DWORD PTR $T2[ebp], -2			; fffffffeH
	lea	ecx, DWORD PTR $T6[ebp]
	jmp	??1?$_Tree_iterator@V?$_Tree_val@U?$_Tree_simple_types@U?$pair@$$CBHPAVBaseGameEntity@@@std@@@std@@@std@@@std@@QAE@XZ
$LN12@erase:
	ret	0
__unwindfunclet$?erase@?$_Tree@V?$_Tmap_traits@HPAVBaseGameEntity@@U?$less@H@std@@V?$allocator@U?$pair@$$CBHPAVBaseGameEntity@@@std@@@3@$0A@@std@@@std@@QAE?AV?$_Tree_iterator@V?$_Tree_val@U?$_Tree_simple_types@U?$pair@$$CBHPAVBaseGameEntity@@@std@@@std@@@std@@@2@V?$_Tree_const_iterator@V?$_Tree_val@U?$_Tree_simple_types@U?$pair@$$CBHPAVBaseGameEntity@@@std@@@std@@@std@@@2@0@Z$3:
	mov	eax, DWORD PTR $T2[ebp]
	and	eax, 2
	je	$LN14@erase
	and	DWORD PTR $T2[ebp], -3			; fffffffdH
	lea	ecx, DWORD PTR $T5[ebp]
	jmp	??1?$_Tree_iterator@V?$_Tree_val@U?$_Tree_simple_types@U?$pair@$$CBHPAVBaseGameEntity@@@std@@@std@@@std@@@std@@QAE@XZ
$LN14@erase:
	ret	0
__ehhandler$?erase@?$_Tree@V?$_Tmap_traits@HPAVBaseGameEntity@@U?$less@H@std@@V?$allocator@U?$pair@$$CBHPAVBaseGameEntity@@@std@@@3@$0A@@std@@@std@@QAE?AV?$_Tree_iterator@V?$_Tree_val@U?$_Tree_simple_types@U?$pair@$$CBHPAVBaseGameEntity@@@std@@@std@@@std@@@2@V?$_Tree_const_iterator@V?$_Tree_val@U?$_Tree_simple_types@U?$pair@$$CBHPAVBaseGameEntity@@@std@@@std@@@std@@@2@0@Z:
	mov	edx, DWORD PTR [esp+8]
	lea	eax, DWORD PTR [edx+12]
	mov	ecx, DWORD PTR [edx-84]
	xor	ecx, eax
	call	@__security_check_cookie@4
	mov	eax, OFFSET __ehfuncinfo$?erase@?$_Tree@V?$_Tmap_traits@HPAVBaseGameEntity@@U?$less@H@std@@V?$allocator@U?$pair@$$CBHPAVBaseGameEntity@@@std@@@3@$0A@@std@@@std@@QAE?AV?$_Tree_iterator@V?$_Tree_val@U?$_Tree_simple_types@U?$pair@$$CBHPAVBaseGameEntity@@@std@@@std@@@std@@@2@V?$_Tree_const_iterator@V?$_Tree_val@U?$_Tree_simple_types@U?$pair@$$CBHPAVBaseGameEntity@@@std@@@std@@@std@@@2@0@Z
	jmp	___CxxFrameHandler3
text$x	ENDS
?erase@?$_Tree@V?$_Tmap_traits@HPAVBaseGameEntity@@U?$less@H@std@@V?$allocator@U?$pair@$$CBHPAVBaseGameEntity@@@std@@@3@$0A@@std@@@std@@QAE?AV?$_Tree_iterator@V?$_Tree_val@U?$_Tree_simple_types@U?$pair@$$CBHPAVBaseGameEntity@@@std@@@std@@@std@@@2@V?$_Tree_const_iterator@V?$_Tree_val@U?$_Tree_simple_types@U?$pair@$$CBHPAVBaseGameEntity@@@std@@@std@@@std@@@2@0@Z ENDP ; std::_Tree<std::_Tmap_traits<int,BaseGameEntity *,std::less<int>,std::allocator<std::pair<int const ,BaseGameEntity *> >,0> >::erase
; Function compile flags: /Odtp /RTCsu
; File c:\program files (x86)\microsoft visual studio\2017\community\vc\tools\msvc\14.15.26726\include\xtree
;	COMDAT ?erase@?$_Tree@V?$_Tmap_traits@HPAVBaseGameEntity@@U?$less@H@std@@V?$allocator@U?$pair@$$CBHPAVBaseGameEntity@@@std@@@3@$0A@@std@@@std@@QAE?AV?$_Tree_iterator@V?$_Tree_val@U?$_Tree_simple_types@U?$pair@$$CBHPAVBaseGameEntity@@@std@@@std@@@std@@@2@V?$_Tree_const_iterator@V?$_Tree_val@U?$_Tree_simple_types@U?$pair@$$CBHPAVBaseGameEntity@@@std@@@std@@@std@@@2@@Z
_TEXT	SEGMENT
tv192 = -60						; size = 4
$T2 = -56						; size = 4
$T3 = -52						; size = 4
__Al$ = -48						; size = 4
__Erasednode$ = -44					; size = 4
__Successor$ = -36					; size = 12
__My_data$ = -20					; size = 4
_this$ = -16						; size = 4
__$EHRec$ = -12						; size = 12
___$ReturnUdt$ = 8					; size = 4
__Where$ = 12						; size = 12
?erase@?$_Tree@V?$_Tmap_traits@HPAVBaseGameEntity@@U?$less@H@std@@V?$allocator@U?$pair@$$CBHPAVBaseGameEntity@@@std@@@3@$0A@@std@@@std@@QAE?AV?$_Tree_iterator@V?$_Tree_val@U?$_Tree_simple_types@U?$pair@$$CBHPAVBaseGameEntity@@@std@@@std@@@std@@@2@V?$_Tree_const_iterator@V?$_Tree_val@U?$_Tree_simple_types@U?$pair@$$CBHPAVBaseGameEntity@@@std@@@std@@@std@@@2@@Z PROC ; std::_Tree<std::_Tmap_traits<int,BaseGameEntity *,std::less<int>,std::allocator<std::pair<int const ,BaseGameEntity *> >,0> >::erase, COMDAT
; _this$ = ecx

; 1362 : 		{	// erase element at _Where

	push	ebp
	mov	ebp, esp
	push	-1
	push	__ehhandler$?erase@?$_Tree@V?$_Tmap_traits@HPAVBaseGameEntity@@U?$less@H@std@@V?$allocator@U?$pair@$$CBHPAVBaseGameEntity@@@std@@@3@$0A@@std@@@std@@QAE?AV?$_Tree_iterator@V?$_Tree_val@U?$_Tree_simple_types@U?$pair@$$CBHPAVBaseGameEntity@@@std@@@std@@@std@@@2@V?$_Tree_const_iterator@V?$_Tree_val@U?$_Tree_simple_types@U?$pair@$$CBHPAVBaseGameEntity@@@std@@@std@@@std@@@2@@Z
	mov	eax, DWORD PTR fs:0
	push	eax
	sub	esp, 48					; 00000030H
	push	esi
	push	edi
	push	ecx
	lea	edi, DWORD PTR [ebp-60]
	mov	ecx, 12					; 0000000cH
	mov	eax, -858993460				; ccccccccH
	rep stosd
	pop	ecx
	mov	eax, DWORD PTR ___security_cookie
	xor	eax, ebp
	push	eax
	lea	eax, DWORD PTR __$EHRec$[ebp]
	mov	DWORD PTR fs:0, eax
	mov	DWORD PTR _this$[ebp], ecx
	mov	DWORD PTR $T2[ebp], 0
	mov	DWORD PTR __$EHRec$[ebp+8], 0

; 1363 : 		auto& _My_data = this->_Get_data();

	mov	ecx, DWORD PTR _this$[ebp]
	call	?_Get_data@?$_Tree_comp_alloc@V?$_Tmap_traits@HPAVBaseGameEntity@@U?$less@H@std@@V?$allocator@U?$pair@$$CBHPAVBaseGameEntity@@@std@@@3@$0A@@std@@@std@@QAEAAV?$_Tree_val@U?$_Tree_simple_types@U?$pair@$$CBHPAVBaseGameEntity@@@std@@@std@@@2@XZ ; std::_Tree_comp_alloc<std::_Tmap_traits<int,BaseGameEntity *,std::less<int>,std::allocator<std::pair<int const ,BaseGameEntity *> >,0> >::_Get_data
	mov	DWORD PTR __My_data$[ebp], eax
$LN4@erase:

; 1364 :  #if _ITERATOR_DEBUG_LEVEL == 2
; 1365 : 		_STL_VERIFY(_Where._Getcont() == _STD addressof(_My_data)

	lea	ecx, DWORD PTR __Where$[ebp]
	call	?_Getcont@_Iterator_base12@std@@QBEPBU_Container_base12@2@XZ ; std::_Iterator_base12::_Getcont
	mov	esi, eax
	mov	eax, DWORD PTR __My_data$[ebp]
	push	eax
	call	??$addressof@V?$_Tree_val@U?$_Tree_simple_types@U?$pair@$$CBHPAVBaseGameEntity@@@std@@@std@@@std@@@std@@YAPAV?$_Tree_val@U?$_Tree_simple_types@U?$pair@$$CBHPAVBaseGameEntity@@@std@@@std@@@0@AAV10@@Z ; std::addressof<std::_Tree_val<std::_Tree_simple_types<std::pair<int const ,BaseGameEntity *> > > >
	add	esp, 4
	cmp	esi, eax
	jne	SHORT $LN7@erase
	mov	ecx, DWORD PTR __Where$[ebp+8]
	movsx	edx, BYTE PTR [ecx+13]
	test	edx, edx
	jne	SHORT $LN7@erase
	jmp	SHORT $LN2@erase
$LN7@erase:
	push	OFFSET ??_C@_0CF@JILFNJOL@map?1set?5erase?5iterator?5outside?5@
	push	OFFSET ??_C@_02DKCKIIND@?$CFs@
	push	0
	push	1366					; 00000556H
	push	OFFSET ??_C@_0GG@KBILHLPB@c?3?2program?5files?5?$CIx86?$CJ?2microsof@
	push	2
	call	__CrtDbgReport
	add	esp, 24					; 00000018H
	cmp	eax, 1
	jne	SHORT $LN11@erase
	int	3
$LN11@erase:
	push	0
	push	1366					; 00000556H
	push	OFFSET ??_C@_1MM@ECCNBGLC@?$AAc?$AA?3?$AA?2?$AAp?$AAr?$AAo?$AAg?$AAr?$AAa?$AAm?$AA?5?$AAf?$AAi?$AAl?$AAe@
	push	OFFSET ??_C@_1BFG@GENLFAEE@?$AAs?$AAt?$AAd?$AA?3?$AA?3?$AA_?$AAT?$AAr?$AAe?$AAe?$AA?$DM?$AAc?$AAl?$AAa?$AAs@
	push	OFFSET ??_C@_1EO@CEDAEPC@?$AA?$CC?$AAm?$AAa?$AAp?$AA?1?$AAs?$AAe?$AAt?$AA?5?$AAe?$AAr?$AAa?$AAs?$AAe?$AA?5@
	call	__invalid_parameter
	add	esp, 20					; 00000014H

; 1366 : 			&& !_Where._Ptr->_Isnil, "map/set erase iterator outside range");

	xor	ecx, ecx
	jne	SHORT $LN7@erase
$LN2@erase:
	xor	edx, edx
	jne	SHORT $LN4@erase

; 1367 :  #endif /* _ITERATOR_DEBUG_LEVEL == 2 */
; 1368 : 
; 1369 : 		const_iterator _Successor = _Where;

	lea	eax, DWORD PTR __Where$[ebp]
	push	eax
	lea	ecx, DWORD PTR __Successor$[ebp]
	call	??0?$_Tree_const_iterator@V?$_Tree_val@U?$_Tree_simple_types@U?$pair@$$CBHPAVBaseGameEntity@@@std@@@std@@@std@@@std@@QAE@ABV01@@Z
	mov	BYTE PTR __$EHRec$[ebp+8], 1

; 1370 : 		++_Successor;	// save successor iterator for return

	lea	ecx, DWORD PTR __Successor$[ebp]
	call	??E?$_Tree_const_iterator@V?$_Tree_val@U?$_Tree_simple_types@U?$pair@$$CBHPAVBaseGameEntity@@@std@@@std@@@std@@@std@@QAEAAV01@XZ ; std::_Tree_const_iterator<std::_Tree_val<std::_Tree_simple_types<std::pair<int const ,BaseGameEntity *> > > >::operator++

; 1371 : 		_Nodeptr _Erasednode = _My_data._Extract(_Where);	// node to erase

	sub	esp, 12					; 0000000cH
	mov	ecx, esp
	mov	DWORD PTR $T3[ebp], esp
	lea	edx, DWORD PTR __Where$[ebp]
	push	edx
	call	??0?$_Tree_const_iterator@V?$_Tree_val@U?$_Tree_simple_types@U?$pair@$$CBHPAVBaseGameEntity@@@std@@@std@@@std@@@std@@QAE@ABV01@@Z
	mov	ecx, DWORD PTR __My_data$[ebp]
	call	?_Extract@?$_Tree_val@U?$_Tree_simple_types@U?$pair@$$CBHPAVBaseGameEntity@@@std@@@std@@@std@@QAEPAU?$_Tree_node@U?$pair@$$CBHPAVBaseGameEntity@@@std@@PAX@2@V?$_Tree_const_iterator@V?$_Tree_val@U?$_Tree_simple_types@U?$pair@$$CBHPAVBaseGameEntity@@@std@@@std@@@std@@@2@@Z ; std::_Tree_val<std::_Tree_simple_types<std::pair<int const ,BaseGameEntity *> > >::_Extract
	mov	DWORD PTR tv192[ebp], eax
	mov	eax, DWORD PTR tv192[ebp]
	mov	DWORD PTR __Erasednode$[ebp], eax

; 1372 : 
; 1373 :  #if _ITERATOR_DEBUG_LEVEL == 2
; 1374 : 		_Orphan_ptr(_Erasednode);

	mov	ecx, DWORD PTR __Erasednode$[ebp]
	push	ecx
	mov	ecx, DWORD PTR _this$[ebp]
	call	?_Orphan_ptr@?$_Tree@V?$_Tmap_traits@HPAVBaseGameEntity@@U?$less@H@std@@V?$allocator@U?$pair@$$CBHPAVBaseGameEntity@@@std@@@3@$0A@@std@@@std@@IAEXPAU?$_Tree_node@U?$pair@$$CBHPAVBaseGameEntity@@@std@@PAX@2@@Z ; std::_Tree<std::_Tmap_traits<int,BaseGameEntity *,std::less<int>,std::allocator<std::pair<int const ,BaseGameEntity *> >,0> >::_Orphan_ptr

; 1375 :  #endif /* _ITERATOR_DEBUG_LEVEL == 2 */
; 1376 : 
; 1377 : 		_Alnode& _Al = this->_Getal();

	mov	ecx, DWORD PTR _this$[ebp]
	call	?_Getal@?$_Tree_comp_alloc@V?$_Tmap_traits@HPAVBaseGameEntity@@U?$less@H@std@@V?$allocator@U?$pair@$$CBHPAVBaseGameEntity@@@std@@@3@$0A@@std@@@std@@QAEAAV?$allocator@U?$_Tree_node@U?$pair@$$CBHPAVBaseGameEntity@@@std@@PAX@std@@@2@XZ ; std::_Tree_comp_alloc<std::_Tmap_traits<int,BaseGameEntity *,std::less<int>,std::allocator<std::pair<int const ,BaseGameEntity *> >,0> >::_Getal
	mov	DWORD PTR __Al$[ebp], eax

; 1378 : 		_Alnode_traits::destroy(_Al, _STD addressof(_Erasednode->_Myval));	// delete erased node

	mov	edx, DWORD PTR __Erasednode$[ebp]
	add	edx, 16					; 00000010H
	push	edx
	call	??$addressof@U?$pair@$$CBHPAVBaseGameEntity@@@std@@@std@@YAPAU?$pair@$$CBHPAVBaseGameEntity@@@0@AAU10@@Z ; std::addressof<std::pair<int const ,BaseGameEntity *> >
	add	esp, 4
	push	eax
	mov	eax, DWORD PTR __Al$[ebp]
	push	eax
	call	??$destroy@U?$pair@$$CBHPAVBaseGameEntity@@@std@@@?$_Default_allocator_traits@V?$allocator@U?$_Tree_node@U?$pair@$$CBHPAVBaseGameEntity@@@std@@PAX@std@@@std@@@std@@SAXAAV?$allocator@U?$_Tree_node@U?$pair@$$CBHPAVBaseGameEntity@@@std@@PAX@std@@@1@QAU?$pair@$$CBHPAVBaseGameEntity@@@1@@Z ; std::_Default_allocator_traits<std::allocator<std::_Tree_node<std::pair<int const ,BaseGameEntity *>,void *> > >::destroy<std::pair<int const ,BaseGameEntity *> >
	add	esp, 8

; 1379 : 		_Node::_Freenode0(_Al, _Erasednode);

	mov	ecx, DWORD PTR __Erasednode$[ebp]
	push	ecx
	mov	edx, DWORD PTR __Al$[ebp]
	push	edx
	call	??$_Freenode0@V?$allocator@U?$_Tree_node@U?$pair@$$CBHPAVBaseGameEntity@@@std@@PAX@std@@@std@@@?$_Tree_node@U?$pair@$$CBHPAVBaseGameEntity@@@std@@PAX@std@@SAXAAV?$allocator@U?$_Tree_node@U?$pair@$$CBHPAVBaseGameEntity@@@std@@PAX@std@@@1@PAU01@@Z ; std::_Tree_node<std::pair<int const ,BaseGameEntity *>,void *>::_Freenode0<std::allocator<std::_Tree_node<std::pair<int const ,BaseGameEntity *>,void *> > >
	add	esp, 8

; 1380 : 
; 1381 : 		return (iterator(_Successor._Ptr, _STD addressof(_My_data)));	// return successor iterator

	mov	eax, DWORD PTR __My_data$[ebp]
	push	eax
	call	??$addressof@V?$_Tree_val@U?$_Tree_simple_types@U?$pair@$$CBHPAVBaseGameEntity@@@std@@@std@@@std@@@std@@YAPAV?$_Tree_val@U?$_Tree_simple_types@U?$pair@$$CBHPAVBaseGameEntity@@@std@@@std@@@0@AAV10@@Z ; std::addressof<std::_Tree_val<std::_Tree_simple_types<std::pair<int const ,BaseGameEntity *> > > >
	add	esp, 4
	push	eax
	mov	ecx, DWORD PTR __Successor$[ebp+8]
	push	ecx
	mov	ecx, DWORD PTR ___$ReturnUdt$[ebp]
	call	??0?$_Tree_iterator@V?$_Tree_val@U?$_Tree_simple_types@U?$pair@$$CBHPAVBaseGameEntity@@@std@@@std@@@std@@@std@@QAE@PAU?$_Tree_node@U?$pair@$$CBHPAVBaseGameEntity@@@std@@PAX@1@PBV?$_Tree_val@U?$_Tree_simple_types@U?$pair@$$CBHPAVBaseGameEntity@@@std@@@std@@@1@@Z ; std::_Tree_iterator<std::_Tree_val<std::_Tree_simple_types<std::pair<int const ,BaseGameEntity *> > > >::_Tree_iterator<std::_Tree_val<std::_Tree_simple_types<std::pair<int const ,BaseGameEntity *> > > >
	mov	edx, DWORD PTR $T2[ebp]
	or	edx, 1
	mov	DWORD PTR $T2[ebp], edx
	mov	BYTE PTR __$EHRec$[ebp+8], 0
	lea	ecx, DWORD PTR __Successor$[ebp]
	call	??1?$_Tree_const_iterator@V?$_Tree_val@U?$_Tree_simple_types@U?$pair@$$CBHPAVBaseGameEntity@@@std@@@std@@@std@@@std@@QAE@XZ
	mov	DWORD PTR __$EHRec$[ebp+8], -1
	lea	ecx, DWORD PTR __Where$[ebp]
	call	??1?$_Tree_const_iterator@V?$_Tree_val@U?$_Tree_simple_types@U?$pair@$$CBHPAVBaseGameEntity@@@std@@@std@@@std@@@std@@QAE@XZ
	mov	eax, DWORD PTR ___$ReturnUdt$[ebp]

; 1382 : 		}

	push	edx
	mov	ecx, ebp
	push	eax
	lea	edx, DWORD PTR $LN20@erase
	call	@_RTC_CheckStackVars@8
	pop	eax
	pop	edx
	mov	ecx, DWORD PTR __$EHRec$[ebp]
	mov	DWORD PTR fs:0, ecx
	pop	ecx
	pop	edi
	pop	esi
	add	esp, 60					; 0000003cH
	cmp	ebp, esp
	call	__RTC_CheckEsp
	mov	esp, ebp
	pop	ebp
	ret	16					; 00000010H
	npad	2
$LN20@erase:
	DD	1
	DD	$LN19@erase
$LN19@erase:
	DD	-36					; ffffffdcH
	DD	12					; 0000000cH
	DD	$LN17@erase
$LN17@erase:
	DB	95					; 0000005fH
	DB	83					; 00000053H
	DB	117					; 00000075H
	DB	99					; 00000063H
	DB	99					; 00000063H
	DB	101					; 00000065H
	DB	115					; 00000073H
	DB	115					; 00000073H
	DB	111					; 0000006fH
	DB	114					; 00000072H
	DB	0
_TEXT	ENDS
;	COMDAT text$x
text$x	SEGMENT
__unwindfunclet$?erase@?$_Tree@V?$_Tmap_traits@HPAVBaseGameEntity@@U?$less@H@std@@V?$allocator@U?$pair@$$CBHPAVBaseGameEntity@@@std@@@3@$0A@@std@@@std@@QAE?AV?$_Tree_iterator@V?$_Tree_val@U?$_Tree_simple_types@U?$pair@$$CBHPAVBaseGameEntity@@@std@@@std@@@std@@@2@V?$_Tree_const_iterator@V?$_Tree_val@U?$_Tree_simple_types@U?$pair@$$CBHPAVBaseGameEntity@@@std@@@std@@@std@@@2@@Z$0:
	lea	ecx, DWORD PTR __Where$[ebp]
	jmp	??1?$_Tree_const_iterator@V?$_Tree_val@U?$_Tree_simple_types@U?$pair@$$CBHPAVBaseGameEntity@@@std@@@std@@@std@@@std@@QAE@XZ
__unwindfunclet$?erase@?$_Tree@V?$_Tmap_traits@HPAVBaseGameEntity@@U?$less@H@std@@V?$allocator@U?$pair@$$CBHPAVBaseGameEntity@@@std@@@3@$0A@@std@@@std@@QAE?AV?$_Tree_iterator@V?$_Tree_val@U?$_Tree_simple_types@U?$pair@$$CBHPAVBaseGameEntity@@@std@@@std@@@std@@@2@V?$_Tree_const_iterator@V?$_Tree_val@U?$_Tree_simple_types@U?$pair@$$CBHPAVBaseGameEntity@@@std@@@std@@@std@@@2@@Z$1:
	lea	ecx, DWORD PTR __Successor$[ebp]
	jmp	??1?$_Tree_const_iterator@V?$_Tree_val@U?$_Tree_simple_types@U?$pair@$$CBHPAVBaseGameEntity@@@std@@@std@@@std@@@std@@QAE@XZ
__ehhandler$?erase@?$_Tree@V?$_Tmap_traits@HPAVBaseGameEntity@@U?$less@H@std@@V?$allocator@U?$pair@$$CBHPAVBaseGameEntity@@@std@@@3@$0A@@std@@@std@@QAE?AV?$_Tree_iterator@V?$_Tree_val@U?$_Tree_simple_types@U?$pair@$$CBHPAVBaseGameEntity@@@std@@@std@@@std@@@2@V?$_Tree_const_iterator@V?$_Tree_val@U?$_Tree_simple_types@U?$pair@$$CBHPAVBaseGameEntity@@@std@@@std@@@std@@@2@@Z:
	mov	edx, DWORD PTR [esp+8]
	lea	eax, DWORD PTR [edx+12]
	mov	ecx, DWORD PTR [edx-60]
	xor	ecx, eax
	call	@__security_check_cookie@4
	mov	eax, OFFSET __ehfuncinfo$?erase@?$_Tree@V?$_Tmap_traits@HPAVBaseGameEntity@@U?$less@H@std@@V?$allocator@U?$pair@$$CBHPAVBaseGameEntity@@@std@@@3@$0A@@std@@@std@@QAE?AV?$_Tree_iterator@V?$_Tree_val@U?$_Tree_simple_types@U?$pair@$$CBHPAVBaseGameEntity@@@std@@@std@@@std@@@2@V?$_Tree_const_iterator@V?$_Tree_val@U?$_Tree_simple_types@U?$pair@$$CBHPAVBaseGameEntity@@@std@@@std@@@std@@@2@@Z
	jmp	___CxxFrameHandler3
text$x	ENDS
?erase@?$_Tree@V?$_Tmap_traits@HPAVBaseGameEntity@@U?$less@H@std@@V?$allocator@U?$pair@$$CBHPAVBaseGameEntity@@@std@@@3@$0A@@std@@@std@@QAE?AV?$_Tree_iterator@V?$_Tree_val@U?$_Tree_simple_types@U?$pair@$$CBHPAVBaseGameEntity@@@std@@@std@@@std@@@2@V?$_Tree_const_iterator@V?$_Tree_val@U?$_Tree_simple_types@U?$pair@$$CBHPAVBaseGameEntity@@@std@@@std@@@std@@@2@@Z ENDP ; std::_Tree<std::_Tmap_traits<int,BaseGameEntity *,std::less<int>,std::allocator<std::pair<int const ,BaseGameEntity *> >,0> >::erase
; Function compile flags: /Odtp /RTCsu
; File c:\program files (x86)\microsoft visual studio\2017\community\vc\tools\msvc\14.15.26726\include\xtree
;	COMDAT ?max_size@?$_Tree@V?$_Tmap_traits@HPAVBaseGameEntity@@U?$less@H@std@@V?$allocator@U?$pair@$$CBHPAVBaseGameEntity@@@std@@@3@$0A@@std@@@std@@QBEIXZ
_TEXT	SEGMENT
_this$ = -4						; size = 4
?max_size@?$_Tree@V?$_Tmap_traits@HPAVBaseGameEntity@@U?$less@H@std@@V?$allocator@U?$pair@$$CBHPAVBaseGameEntity@@@std@@@3@$0A@@std@@@std@@QBEIXZ PROC ; std::_Tree<std::_Tmap_traits<int,BaseGameEntity *,std::less<int>,std::allocator<std::pair<int const ,BaseGameEntity *> >,0> >::max_size, COMDAT
; _this$ = ecx

; 1274 : 		{	// return maximum possible length of sequence

	push	ebp
	mov	ebp, esp
	push	ecx
	mov	DWORD PTR [ebp-4], -858993460		; ccccccccH
	mov	DWORD PTR _this$[ebp], ecx

; 1275 : 		return (_Alnode_traits::max_size(this->_Getal()));

	mov	ecx, DWORD PTR _this$[ebp]
	call	?_Getal@?$_Tree_comp_alloc@V?$_Tmap_traits@HPAVBaseGameEntity@@U?$less@H@std@@V?$allocator@U?$pair@$$CBHPAVBaseGameEntity@@@std@@@3@$0A@@std@@@std@@QBEABV?$allocator@U?$_Tree_node@U?$pair@$$CBHPAVBaseGameEntity@@@std@@PAX@std@@@2@XZ ; std::_Tree_comp_alloc<std::_Tmap_traits<int,BaseGameEntity *,std::less<int>,std::allocator<std::pair<int const ,BaseGameEntity *> >,0> >::_Getal
	push	eax
	call	?max_size@?$_Default_allocator_traits@V?$allocator@U?$_Tree_node@U?$pair@$$CBHPAVBaseGameEntity@@@std@@PAX@std@@@std@@@std@@SAIABV?$allocator@U?$_Tree_node@U?$pair@$$CBHPAVBaseGameEntity@@@std@@PAX@std@@@2@@Z ; std::_Default_allocator_traits<std::allocator<std::_Tree_node<std::pair<int const ,BaseGameEntity *>,void *> > >::max_size
	add	esp, 4

; 1276 : 		}

	add	esp, 4
	cmp	ebp, esp
	call	__RTC_CheckEsp
	mov	esp, ebp
	pop	ebp
	ret	0
?max_size@?$_Tree@V?$_Tmap_traits@HPAVBaseGameEntity@@U?$less@H@std@@V?$allocator@U?$pair@$$CBHPAVBaseGameEntity@@@std@@@3@$0A@@std@@@std@@QBEIXZ ENDP ; std::_Tree<std::_Tmap_traits<int,BaseGameEntity *,std::less<int>,std::allocator<std::pair<int const ,BaseGameEntity *> >,0> >::max_size
_TEXT	ENDS
; Function compile flags: /Odtp /RTCsu
; File c:\program files (x86)\microsoft visual studio\2017\community\vc\tools\msvc\14.15.26726\include\xtree
;	COMDAT ?end@?$_Tree@V?$_Tmap_traits@HPAVBaseGameEntity@@U?$less@H@std@@V?$allocator@U?$pair@$$CBHPAVBaseGameEntity@@@std@@@3@$0A@@std@@@std@@QBE?AV?$_Tree_const_iterator@V?$_Tree_val@U?$_Tree_simple_types@U?$pair@$$CBHPAVBaseGameEntity@@@std@@@std@@@std@@@2@XZ
_TEXT	SEGMENT
__My_data$ = -20					; size = 4
_this$ = -16						; size = 4
__$EHRec$ = -12						; size = 12
___$ReturnUdt$ = 8					; size = 4
?end@?$_Tree@V?$_Tmap_traits@HPAVBaseGameEntity@@U?$less@H@std@@V?$allocator@U?$pair@$$CBHPAVBaseGameEntity@@@std@@@3@$0A@@std@@@std@@QBE?AV?$_Tree_const_iterator@V?$_Tree_val@U?$_Tree_simple_types@U?$pair@$$CBHPAVBaseGameEntity@@@std@@@std@@@std@@@2@XZ PROC ; std::_Tree<std::_Tmap_traits<int,BaseGameEntity *,std::less<int>,std::allocator<std::pair<int const ,BaseGameEntity *> >,0> >::end, COMDAT
; _this$ = ecx

; 1203 : 		{	// return iterator for end of nonmutable sequence

	push	ebp
	mov	ebp, esp
	push	-1
	push	__ehhandler$?end@?$_Tree@V?$_Tmap_traits@HPAVBaseGameEntity@@U?$less@H@std@@V?$allocator@U?$pair@$$CBHPAVBaseGameEntity@@@std@@@3@$0A@@std@@@std@@QBE?AV?$_Tree_const_iterator@V?$_Tree_val@U?$_Tree_simple_types@U?$pair@$$CBHPAVBaseGameEntity@@@std@@@std@@@std@@@2@XZ
	mov	eax, DWORD PTR fs:0
	push	eax
	sub	esp, 8
	mov	DWORD PTR [ebp-20], -858993460		; ccccccccH
	mov	DWORD PTR [ebp-16], -858993460		; ccccccccH
	mov	eax, DWORD PTR ___security_cookie
	xor	eax, ebp
	push	eax
	lea	eax, DWORD PTR __$EHRec$[ebp]
	mov	DWORD PTR fs:0, eax
	mov	DWORD PTR _this$[ebp], ecx

; 1204 : 		auto& _My_data = this->_Get_data();

	mov	ecx, DWORD PTR _this$[ebp]
	call	?_Get_data@?$_Tree_comp_alloc@V?$_Tmap_traits@HPAVBaseGameEntity@@U?$less@H@std@@V?$allocator@U?$pair@$$CBHPAVBaseGameEntity@@@std@@@3@$0A@@std@@@std@@QBEABV?$_Tree_val@U?$_Tree_simple_types@U?$pair@$$CBHPAVBaseGameEntity@@@std@@@std@@@2@XZ ; std::_Tree_comp_alloc<std::_Tmap_traits<int,BaseGameEntity *,std::less<int>,std::allocator<std::pair<int const ,BaseGameEntity *> >,0> >::_Get_data
	mov	DWORD PTR __My_data$[ebp], eax

; 1205 : 		return (const_iterator(_My_data._Myhead, _STD addressof(_My_data)));

	mov	eax, DWORD PTR __My_data$[ebp]
	push	eax
	call	??$addressof@$$CBV?$_Tree_val@U?$_Tree_simple_types@U?$pair@$$CBHPAVBaseGameEntity@@@std@@@std@@@std@@@std@@YAPBV?$_Tree_val@U?$_Tree_simple_types@U?$pair@$$CBHPAVBaseGameEntity@@@std@@@std@@@0@ABV10@@Z ; std::addressof<std::_Tree_val<std::_Tree_simple_types<std::pair<int const ,BaseGameEntity *> > > const >
	add	esp, 4
	push	eax
	mov	ecx, DWORD PTR __My_data$[ebp]
	mov	edx, DWORD PTR [ecx+4]
	push	edx
	mov	ecx, DWORD PTR ___$ReturnUdt$[ebp]
	call	??0?$_Tree_const_iterator@V?$_Tree_val@U?$_Tree_simple_types@U?$pair@$$CBHPAVBaseGameEntity@@@std@@@std@@@std@@@std@@QAE@PAU?$_Tree_node@U?$pair@$$CBHPAVBaseGameEntity@@@std@@PAX@1@PBV?$_Tree_val@U?$_Tree_simple_types@U?$pair@$$CBHPAVBaseGameEntity@@@std@@@std@@@1@@Z ; std::_Tree_const_iterator<std::_Tree_val<std::_Tree_simple_types<std::pair<int const ,BaseGameEntity *> > > >::_Tree_const_iterator<std::_Tree_val<std::_Tree_simple_types<std::pair<int const ,BaseGameEntity *> > > >
	mov	eax, DWORD PTR ___$ReturnUdt$[ebp]

; 1206 : 		}

	mov	ecx, DWORD PTR __$EHRec$[ebp]
	mov	DWORD PTR fs:0, ecx
	pop	ecx
	add	esp, 20					; 00000014H
	cmp	ebp, esp
	call	__RTC_CheckEsp
	mov	esp, ebp
	pop	ebp
	ret	4
_TEXT	ENDS
;	COMDAT text$x
text$x	SEGMENT
__ehhandler$?end@?$_Tree@V?$_Tmap_traits@HPAVBaseGameEntity@@U?$less@H@std@@V?$allocator@U?$pair@$$CBHPAVBaseGameEntity@@@std@@@3@$0A@@std@@@std@@QBE?AV?$_Tree_const_iterator@V?$_Tree_val@U?$_Tree_simple_types@U?$pair@$$CBHPAVBaseGameEntity@@@std@@@std@@@std@@@2@XZ:
	mov	edx, DWORD PTR [esp+8]
	lea	eax, DWORD PTR [edx+12]
	mov	ecx, DWORD PTR [edx-12]
	xor	ecx, eax
	call	@__security_check_cookie@4
	mov	eax, OFFSET __ehfuncinfo$?end@?$_Tree@V?$_Tmap_traits@HPAVBaseGameEntity@@U?$less@H@std@@V?$allocator@U?$pair@$$CBHPAVBaseGameEntity@@@std@@@3@$0A@@std@@@std@@QBE?AV?$_Tree_const_iterator@V?$_Tree_val@U?$_Tree_simple_types@U?$pair@$$CBHPAVBaseGameEntity@@@std@@@std@@@std@@@2@XZ
	jmp	___CxxFrameHandler3
text$x	ENDS
?end@?$_Tree@V?$_Tmap_traits@HPAVBaseGameEntity@@U?$less@H@std@@V?$allocator@U?$pair@$$CBHPAVBaseGameEntity@@@std@@@3@$0A@@std@@@std@@QBE?AV?$_Tree_const_iterator@V?$_Tree_val@U?$_Tree_simple_types@U?$pair@$$CBHPAVBaseGameEntity@@@std@@@std@@@std@@@2@XZ ENDP ; std::_Tree<std::_Tmap_traits<int,BaseGameEntity *,std::less<int>,std::allocator<std::pair<int const ,BaseGameEntity *> >,0> >::end
; Function compile flags: /Odtp /RTCsu
; File c:\program files (x86)\microsoft visual studio\2017\community\vc\tools\msvc\14.15.26726\include\xtree
;	COMDAT ?end@?$_Tree@V?$_Tmap_traits@HPAVBaseGameEntity@@U?$less@H@std@@V?$allocator@U?$pair@$$CBHPAVBaseGameEntity@@@std@@@3@$0A@@std@@@std@@QAE?AV?$_Tree_iterator@V?$_Tree_val@U?$_Tree_simple_types@U?$pair@$$CBHPAVBaseGameEntity@@@std@@@std@@@std@@@2@XZ
_TEXT	SEGMENT
__My_data$ = -20					; size = 4
_this$ = -16						; size = 4
__$EHRec$ = -12						; size = 12
___$ReturnUdt$ = 8					; size = 4
?end@?$_Tree@V?$_Tmap_traits@HPAVBaseGameEntity@@U?$less@H@std@@V?$allocator@U?$pair@$$CBHPAVBaseGameEntity@@@std@@@3@$0A@@std@@@std@@QAE?AV?$_Tree_iterator@V?$_Tree_val@U?$_Tree_simple_types@U?$pair@$$CBHPAVBaseGameEntity@@@std@@@std@@@std@@@2@XZ PROC ; std::_Tree<std::_Tmap_traits<int,BaseGameEntity *,std::less<int>,std::allocator<std::pair<int const ,BaseGameEntity *> >,0> >::end, COMDAT
; _this$ = ecx

; 1197 : 		{	// return iterator for end of mutable sequence

	push	ebp
	mov	ebp, esp
	push	-1
	push	__ehhandler$?end@?$_Tree@V?$_Tmap_traits@HPAVBaseGameEntity@@U?$less@H@std@@V?$allocator@U?$pair@$$CBHPAVBaseGameEntity@@@std@@@3@$0A@@std@@@std@@QAE?AV?$_Tree_iterator@V?$_Tree_val@U?$_Tree_simple_types@U?$pair@$$CBHPAVBaseGameEntity@@@std@@@std@@@std@@@2@XZ
	mov	eax, DWORD PTR fs:0
	push	eax
	sub	esp, 8
	mov	DWORD PTR [ebp-20], -858993460		; ccccccccH
	mov	DWORD PTR [ebp-16], -858993460		; ccccccccH
	mov	eax, DWORD PTR ___security_cookie
	xor	eax, ebp
	push	eax
	lea	eax, DWORD PTR __$EHRec$[ebp]
	mov	DWORD PTR fs:0, eax
	mov	DWORD PTR _this$[ebp], ecx

; 1198 : 		auto& _My_data = this->_Get_data();

	mov	ecx, DWORD PTR _this$[ebp]
	call	?_Get_data@?$_Tree_comp_alloc@V?$_Tmap_traits@HPAVBaseGameEntity@@U?$less@H@std@@V?$allocator@U?$pair@$$CBHPAVBaseGameEntity@@@std@@@3@$0A@@std@@@std@@QAEAAV?$_Tree_val@U?$_Tree_simple_types@U?$pair@$$CBHPAVBaseGameEntity@@@std@@@std@@@2@XZ ; std::_Tree_comp_alloc<std::_Tmap_traits<int,BaseGameEntity *,std::less<int>,std::allocator<std::pair<int const ,BaseGameEntity *> >,0> >::_Get_data
	mov	DWORD PTR __My_data$[ebp], eax

; 1199 : 		return (iterator(_My_data._Myhead, _STD addressof(_My_data)));

	mov	eax, DWORD PTR __My_data$[ebp]
	push	eax
	call	??$addressof@V?$_Tree_val@U?$_Tree_simple_types@U?$pair@$$CBHPAVBaseGameEntity@@@std@@@std@@@std@@@std@@YAPAV?$_Tree_val@U?$_Tree_simple_types@U?$pair@$$CBHPAVBaseGameEntity@@@std@@@std@@@0@AAV10@@Z ; std::addressof<std::_Tree_val<std::_Tree_simple_types<std::pair<int const ,BaseGameEntity *> > > >
	add	esp, 4
	push	eax
	mov	ecx, DWORD PTR __My_data$[ebp]
	mov	edx, DWORD PTR [ecx+4]
	push	edx
	mov	ecx, DWORD PTR ___$ReturnUdt$[ebp]
	call	??0?$_Tree_iterator@V?$_Tree_val@U?$_Tree_simple_types@U?$pair@$$CBHPAVBaseGameEntity@@@std@@@std@@@std@@@std@@QAE@PAU?$_Tree_node@U?$pair@$$CBHPAVBaseGameEntity@@@std@@PAX@1@PBV?$_Tree_val@U?$_Tree_simple_types@U?$pair@$$CBHPAVBaseGameEntity@@@std@@@std@@@1@@Z ; std::_Tree_iterator<std::_Tree_val<std::_Tree_simple_types<std::pair<int const ,BaseGameEntity *> > > >::_Tree_iterator<std::_Tree_val<std::_Tree_simple_types<std::pair<int const ,BaseGameEntity *> > > >
	mov	eax, DWORD PTR ___$ReturnUdt$[ebp]

; 1200 : 		}

	mov	ecx, DWORD PTR __$EHRec$[ebp]
	mov	DWORD PTR fs:0, ecx
	pop	ecx
	add	esp, 20					; 00000014H
	cmp	ebp, esp
	call	__RTC_CheckEsp
	mov	esp, ebp
	pop	ebp
	ret	4
_TEXT	ENDS
;	COMDAT text$x
text$x	SEGMENT
__ehhandler$?end@?$_Tree@V?$_Tmap_traits@HPAVBaseGameEntity@@U?$less@H@std@@V?$allocator@U?$pair@$$CBHPAVBaseGameEntity@@@std@@@3@$0A@@std@@@std@@QAE?AV?$_Tree_iterator@V?$_Tree_val@U?$_Tree_simple_types@U?$pair@$$CBHPAVBaseGameEntity@@@std@@@std@@@std@@@2@XZ:
	mov	edx, DWORD PTR [esp+8]
	lea	eax, DWORD PTR [edx+12]
	mov	ecx, DWORD PTR [edx-12]
	xor	ecx, eax
	call	@__security_check_cookie@4
	mov	eax, OFFSET __ehfuncinfo$?end@?$_Tree@V?$_Tmap_traits@HPAVBaseGameEntity@@U?$less@H@std@@V?$allocator@U?$pair@$$CBHPAVBaseGameEntity@@@std@@@3@$0A@@std@@@std@@QAE?AV?$_Tree_iterator@V?$_Tree_val@U?$_Tree_simple_types@U?$pair@$$CBHPAVBaseGameEntity@@@std@@@std@@@std@@@2@XZ
	jmp	___CxxFrameHandler3
text$x	ENDS
?end@?$_Tree@V?$_Tmap_traits@HPAVBaseGameEntity@@U?$less@H@std@@V?$allocator@U?$pair@$$CBHPAVBaseGameEntity@@@std@@@3@$0A@@std@@@std@@QAE?AV?$_Tree_iterator@V?$_Tree_val@U?$_Tree_simple_types@U?$pair@$$CBHPAVBaseGameEntity@@@std@@@std@@@std@@@2@XZ ENDP ; std::_Tree<std::_Tmap_traits<int,BaseGameEntity *,std::less<int>,std::allocator<std::pair<int const ,BaseGameEntity *> >,0> >::end
; Function compile flags: /Odtp /RTCsu
; File c:\program files (x86)\microsoft visual studio\2017\community\vc\tools\msvc\14.15.26726\include\xtree
;	COMDAT ?begin@?$_Tree@V?$_Tmap_traits@HPAVBaseGameEntity@@U?$less@H@std@@V?$allocator@U?$pair@$$CBHPAVBaseGameEntity@@@std@@@3@$0A@@std@@@std@@QAE?AV?$_Tree_iterator@V?$_Tree_val@U?$_Tree_simple_types@U?$pair@$$CBHPAVBaseGameEntity@@@std@@@std@@@std@@@2@XZ
_TEXT	SEGMENT
__My_data$ = -20					; size = 4
_this$ = -16						; size = 4
__$EHRec$ = -12						; size = 12
___$ReturnUdt$ = 8					; size = 4
?begin@?$_Tree@V?$_Tmap_traits@HPAVBaseGameEntity@@U?$less@H@std@@V?$allocator@U?$pair@$$CBHPAVBaseGameEntity@@@std@@@3@$0A@@std@@@std@@QAE?AV?$_Tree_iterator@V?$_Tree_val@U?$_Tree_simple_types@U?$pair@$$CBHPAVBaseGameEntity@@@std@@@std@@@std@@@2@XZ PROC ; std::_Tree<std::_Tmap_traits<int,BaseGameEntity *,std::less<int>,std::allocator<std::pair<int const ,BaseGameEntity *> >,0> >::begin, COMDAT
; _this$ = ecx

; 1185 : 		{	// return iterator for beginning of mutable sequence

	push	ebp
	mov	ebp, esp
	push	-1
	push	__ehhandler$?begin@?$_Tree@V?$_Tmap_traits@HPAVBaseGameEntity@@U?$less@H@std@@V?$allocator@U?$pair@$$CBHPAVBaseGameEntity@@@std@@@3@$0A@@std@@@std@@QAE?AV?$_Tree_iterator@V?$_Tree_val@U?$_Tree_simple_types@U?$pair@$$CBHPAVBaseGameEntity@@@std@@@std@@@std@@@2@XZ
	mov	eax, DWORD PTR fs:0
	push	eax
	sub	esp, 8
	mov	DWORD PTR [ebp-20], -858993460		; ccccccccH
	mov	DWORD PTR [ebp-16], -858993460		; ccccccccH
	mov	eax, DWORD PTR ___security_cookie
	xor	eax, ebp
	push	eax
	lea	eax, DWORD PTR __$EHRec$[ebp]
	mov	DWORD PTR fs:0, eax
	mov	DWORD PTR _this$[ebp], ecx

; 1186 : 		auto& _My_data = this->_Get_data();

	mov	ecx, DWORD PTR _this$[ebp]
	call	?_Get_data@?$_Tree_comp_alloc@V?$_Tmap_traits@HPAVBaseGameEntity@@U?$less@H@std@@V?$allocator@U?$pair@$$CBHPAVBaseGameEntity@@@std@@@3@$0A@@std@@@std@@QAEAAV?$_Tree_val@U?$_Tree_simple_types@U?$pair@$$CBHPAVBaseGameEntity@@@std@@@std@@@2@XZ ; std::_Tree_comp_alloc<std::_Tmap_traits<int,BaseGameEntity *,std::less<int>,std::allocator<std::pair<int const ,BaseGameEntity *> >,0> >::_Get_data
	mov	DWORD PTR __My_data$[ebp], eax

; 1187 : 		return (iterator(_My_data._Lmost(), _STD addressof(_My_data)));

	mov	eax, DWORD PTR __My_data$[ebp]
	push	eax
	call	??$addressof@V?$_Tree_val@U?$_Tree_simple_types@U?$pair@$$CBHPAVBaseGameEntity@@@std@@@std@@@std@@@std@@YAPAV?$_Tree_val@U?$_Tree_simple_types@U?$pair@$$CBHPAVBaseGameEntity@@@std@@@std@@@0@AAV10@@Z ; std::addressof<std::_Tree_val<std::_Tree_simple_types<std::pair<int const ,BaseGameEntity *> > > >
	add	esp, 4
	push	eax
	mov	ecx, DWORD PTR __My_data$[ebp]
	call	?_Lmost@?$_Tree_val@U?$_Tree_simple_types@U?$pair@$$CBHPAVBaseGameEntity@@@std@@@std@@@std@@QBEAAPAU?$_Tree_node@U?$pair@$$CBHPAVBaseGameEntity@@@std@@PAX@2@XZ ; std::_Tree_val<std::_Tree_simple_types<std::pair<int const ,BaseGameEntity *> > >::_Lmost
	mov	ecx, DWORD PTR [eax]
	push	ecx
	mov	ecx, DWORD PTR ___$ReturnUdt$[ebp]
	call	??0?$_Tree_iterator@V?$_Tree_val@U?$_Tree_simple_types@U?$pair@$$CBHPAVBaseGameEntity@@@std@@@std@@@std@@@std@@QAE@PAU?$_Tree_node@U?$pair@$$CBHPAVBaseGameEntity@@@std@@PAX@1@PBV?$_Tree_val@U?$_Tree_simple_types@U?$pair@$$CBHPAVBaseGameEntity@@@std@@@std@@@1@@Z ; std::_Tree_iterator<std::_Tree_val<std::_Tree_simple_types<std::pair<int const ,BaseGameEntity *> > > >::_Tree_iterator<std::_Tree_val<std::_Tree_simple_types<std::pair<int const ,BaseGameEntity *> > > >
	mov	eax, DWORD PTR ___$ReturnUdt$[ebp]

; 1188 : 		}

	mov	ecx, DWORD PTR __$EHRec$[ebp]
	mov	DWORD PTR fs:0, ecx
	pop	ecx
	add	esp, 20					; 00000014H
	cmp	ebp, esp
	call	__RTC_CheckEsp
	mov	esp, ebp
	pop	ebp
	ret	4
_TEXT	ENDS
;	COMDAT text$x
text$x	SEGMENT
__ehhandler$?begin@?$_Tree@V?$_Tmap_traits@HPAVBaseGameEntity@@U?$less@H@std@@V?$allocator@U?$pair@$$CBHPAVBaseGameEntity@@@std@@@3@$0A@@std@@@std@@QAE?AV?$_Tree_iterator@V?$_Tree_val@U?$_Tree_simple_types@U?$pair@$$CBHPAVBaseGameEntity@@@std@@@std@@@std@@@2@XZ:
	mov	edx, DWORD PTR [esp+8]
	lea	eax, DWORD PTR [edx+12]
	mov	ecx, DWORD PTR [edx-12]
	xor	ecx, eax
	call	@__security_check_cookie@4
	mov	eax, OFFSET __ehfuncinfo$?begin@?$_Tree@V?$_Tmap_traits@HPAVBaseGameEntity@@U?$less@H@std@@V?$allocator@U?$pair@$$CBHPAVBaseGameEntity@@@std@@@3@$0A@@std@@@std@@QAE?AV?$_Tree_iterator@V?$_Tree_val@U?$_Tree_simple_types@U?$pair@$$CBHPAVBaseGameEntity@@@std@@@std@@@std@@@2@XZ
	jmp	___CxxFrameHandler3
text$x	ENDS
?begin@?$_Tree@V?$_Tmap_traits@HPAVBaseGameEntity@@U?$less@H@std@@V?$allocator@U?$pair@$$CBHPAVBaseGameEntity@@@std@@@3@$0A@@std@@@std@@QAE?AV?$_Tree_iterator@V?$_Tree_val@U?$_Tree_simple_types@U?$pair@$$CBHPAVBaseGameEntity@@@std@@@std@@@std@@@2@XZ ENDP ; std::_Tree<std::_Tmap_traits<int,BaseGameEntity *,std::less<int>,std::allocator<std::pair<int const ,BaseGameEntity *> >,0> >::begin
; Function compile flags: /Odtp /RTCsu
; File c:\program files (x86)\microsoft visual studio\2017\community\vc\tools\msvc\14.15.26726\include\xtree
;	COMDAT ??1?$_Tree@V?$_Tmap_traits@HPAVBaseGameEntity@@U?$less@H@std@@V?$allocator@U?$pair@$$CBHPAVBaseGameEntity@@@std@@@3@$0A@@std@@@std@@QAE@XZ
_TEXT	SEGMENT
_this$ = -16						; size = 4
__$EHRec$ = -12						; size = 12
??1?$_Tree@V?$_Tmap_traits@HPAVBaseGameEntity@@U?$less@H@std@@V?$allocator@U?$pair@$$CBHPAVBaseGameEntity@@@std@@@3@$0A@@std@@@std@@QAE@XZ PROC ; std::_Tree<std::_Tmap_traits<int,BaseGameEntity *,std::less<int>,std::allocator<std::pair<int const ,BaseGameEntity *> >,0> >::~_Tree<std::_Tmap_traits<int,BaseGameEntity *,std::less<int>,std::allocator<std::pair<int const ,BaseGameEntity *> >,0> >, COMDAT
; _this$ = ecx

; 1167 : 		{	// destroy tree

	push	ebp
	mov	ebp, esp
	push	-1
	push	__ehhandler$??1?$_Tree@V?$_Tmap_traits@HPAVBaseGameEntity@@U?$less@H@std@@V?$allocator@U?$pair@$$CBHPAVBaseGameEntity@@@std@@@3@$0A@@std@@@std@@QAE@XZ
	mov	eax, DWORD PTR fs:0
	push	eax
	push	ecx
	mov	DWORD PTR [ebp-16], -858993460		; ccccccccH
	mov	eax, DWORD PTR ___security_cookie
	xor	eax, ebp
	push	eax
	lea	eax, DWORD PTR __$EHRec$[ebp]
	mov	DWORD PTR fs:0, eax
	mov	DWORD PTR _this$[ebp], ecx

; 1168 : 		_Tidy();

	mov	ecx, DWORD PTR _this$[ebp]
	call	?_Tidy@?$_Tree@V?$_Tmap_traits@HPAVBaseGameEntity@@U?$less@H@std@@V?$allocator@U?$pair@$$CBHPAVBaseGameEntity@@@std@@@3@$0A@@std@@@std@@IAEXXZ ; std::_Tree<std::_Tmap_traits<int,BaseGameEntity *,std::less<int>,std::allocator<std::pair<int const ,BaseGameEntity *> >,0> >::_Tidy

; 1169 : 		}

	mov	ecx, DWORD PTR _this$[ebp]
	call	??1?$_Tree_comp_alloc@V?$_Tmap_traits@HPAVBaseGameEntity@@U?$less@H@std@@V?$allocator@U?$pair@$$CBHPAVBaseGameEntity@@@std@@@3@$0A@@std@@@std@@QAE@XZ ; std::_Tree_comp_alloc<std::_Tmap_traits<int,BaseGameEntity *,std::less<int>,std::allocator<std::pair<int const ,BaseGameEntity *> >,0> >::~_Tree_comp_alloc<std::_Tmap_traits<int,BaseGameEntity *,std::less<int>,std::allocator<std::pair<int const ,BaseGameEntity *> >,0> >
	mov	ecx, DWORD PTR __$EHRec$[ebp]
	mov	DWORD PTR fs:0, ecx
	pop	ecx
	add	esp, 16					; 00000010H
	cmp	ebp, esp
	call	__RTC_CheckEsp
	mov	esp, ebp
	pop	ebp
	ret	0
_TEXT	ENDS
;	COMDAT text$x
text$x	SEGMENT
__ehhandler$??1?$_Tree@V?$_Tmap_traits@HPAVBaseGameEntity@@U?$less@H@std@@V?$allocator@U?$pair@$$CBHPAVBaseGameEntity@@@std@@@3@$0A@@std@@@std@@QAE@XZ:
	mov	edx, DWORD PTR [esp+8]
	lea	eax, DWORD PTR [edx+12]
	mov	ecx, DWORD PTR [edx-8]
	xor	ecx, eax
	call	@__security_check_cookie@4
	mov	eax, OFFSET __ehfuncinfo$??1?$_Tree@V?$_Tmap_traits@HPAVBaseGameEntity@@U?$less@H@std@@V?$allocator@U?$pair@$$CBHPAVBaseGameEntity@@@std@@@3@$0A@@std@@@std@@QAE@XZ
	jmp	___CxxFrameHandler3
text$x	ENDS
??1?$_Tree@V?$_Tmap_traits@HPAVBaseGameEntity@@U?$less@H@std@@V?$allocator@U?$pair@$$CBHPAVBaseGameEntity@@@std@@@3@$0A@@std@@@std@@QAE@XZ ENDP ; std::_Tree<std::_Tmap_traits<int,BaseGameEntity *,std::less<int>,std::allocator<std::pair<int const ,BaseGameEntity *> >,0> >::~_Tree<std::_Tmap_traits<int,BaseGameEntity *,std::less<int>,std::allocator<std::pair<int const ,BaseGameEntity *> >,0> >
; Function compile flags: /Odtp /RTCsu
; File c:\program files (x86)\microsoft visual studio\2017\community\vc\tools\msvc\14.15.26726\include\xtree
;	COMDAT ??0?$_Tree@V?$_Tmap_traits@HPAVBaseGameEntity@@U?$less@H@std@@V?$allocator@U?$pair@$$CBHPAVBaseGameEntity@@@std@@@3@$0A@@std@@@std@@QAE@ABU?$less@H@1@@Z
_TEXT	SEGMENT
_this$ = -4						; size = 4
__Parg$ = 8						; size = 4
??0?$_Tree@V?$_Tmap_traits@HPAVBaseGameEntity@@U?$less@H@std@@V?$allocator@U?$pair@$$CBHPAVBaseGameEntity@@@std@@@3@$0A@@std@@@std@@QAE@ABU?$less@H@1@@Z PROC ; std::_Tree<std::_Tmap_traits<int,BaseGameEntity *,std::less<int>,std::allocator<std::pair<int const ,BaseGameEntity *> >,0> >::_Tree<std::_Tmap_traits<int,BaseGameEntity *,std::less<int>,std::allocator<std::pair<int const ,BaseGameEntity *> >,0> >, COMDAT
; _this$ = ecx

; 1085 : 		{	// construct empty tree from comparator

	push	ebp
	mov	ebp, esp
	push	ecx
	mov	DWORD PTR [ebp-4], -858993460		; ccccccccH
	mov	DWORD PTR _this$[ebp], ecx

; 1084 : 		: _Mybase(_Parg)

	mov	eax, DWORD PTR __Parg$[ebp]
	push	eax
	mov	ecx, DWORD PTR _this$[ebp]
	call	??0?$_Tree_comp_alloc@V?$_Tmap_traits@HPAVBaseGameEntity@@U?$less@H@std@@V?$allocator@U?$pair@$$CBHPAVBaseGameEntity@@@std@@@3@$0A@@std@@@std@@QAE@ABU?$less@H@1@@Z ; std::_Tree_comp_alloc<std::_Tmap_traits<int,BaseGameEntity *,std::less<int>,std::allocator<std::pair<int const ,BaseGameEntity *> >,0> >::_Tree_comp_alloc<std::_Tmap_traits<int,BaseGameEntity *,std::less<int>,std::allocator<std::pair<int const ,BaseGameEntity *> >,0> >

; 1086 : 		}

	mov	eax, DWORD PTR _this$[ebp]
	add	esp, 4
	cmp	ebp, esp
	call	__RTC_CheckEsp
	mov	esp, ebp
	pop	ebp
	ret	4
??0?$_Tree@V?$_Tmap_traits@HPAVBaseGameEntity@@U?$less@H@std@@V?$allocator@U?$pair@$$CBHPAVBaseGameEntity@@@std@@@3@$0A@@std@@@std@@QAE@ABU?$less@H@1@@Z ENDP ; std::_Tree<std::_Tmap_traits<int,BaseGameEntity *,std::less<int>,std::allocator<std::pair<int const ,BaseGameEntity *> >,0> >::_Tree<std::_Tmap_traits<int,BaseGameEntity *,std::less<int>,std::allocator<std::pair<int const ,BaseGameEntity *> >,0> >
_TEXT	ENDS
; Function compile flags: /Odtp /RTCsu
; File c:\program files (x86)\microsoft visual studio\2017\community\vc\tools\msvc\14.15.26726\include\xutility
;	COMDAT ?_Get_second@?$_Compressed_pair@U?$less@H@std@@V?$_Compressed_pair@V?$allocator@U?$_Tree_node@U?$pair@$$CBHPAVBaseGameEntity@@@std@@PAX@std@@@std@@V?$_Tree_val@U?$_Tree_simple_types@U?$pair@$$CBHPAVBaseGameEntity@@@std@@@std@@@2@$00@2@$00@std@@QBEABV?$_Compressed_pair@V?$allocator@U?$_Tree_node@U?$pair@$$CBHPAVBaseGameEntity@@@std@@PAX@std@@@std@@V?$_Tree_val@U?$_Tree_simple_types@U?$pair@$$CBHPAVBaseGameEntity@@@std@@@std@@@2@$00@2@XZ
_TEXT	SEGMENT
_this$ = -4						; size = 4
?_Get_second@?$_Compressed_pair@U?$less@H@std@@V?$_Compressed_pair@V?$allocator@U?$_Tree_node@U?$pair@$$CBHPAVBaseGameEntity@@@std@@PAX@std@@@std@@V?$_Tree_val@U?$_Tree_simple_types@U?$pair@$$CBHPAVBaseGameEntity@@@std@@@std@@@2@$00@2@$00@std@@QBEABV?$_Compressed_pair@V?$allocator@U?$_Tree_node@U?$pair@$$CBHPAVBaseGameEntity@@@std@@PAX@std@@@std@@V?$_Tree_val@U?$_Tree_simple_types@U?$pair@$$CBHPAVBaseGameEntity@@@std@@@std@@@2@$00@2@XZ PROC ; std::_Compressed_pair<std::less<int>,std::_Compressed_pair<std::allocator<std::_Tree_node<std::pair<int const ,BaseGameEntity *>,void *> >,std::_Tree_val<std::_Tree_simple_types<std::pair<int const ,BaseGameEntity *> > >,1>,1>::_Get_second, COMDAT
; _this$ = ecx

; 306  : 		{	// return const reference to second

	push	ebp
	mov	ebp, esp
	push	ecx
	mov	DWORD PTR [ebp-4], -858993460		; ccccccccH
	mov	DWORD PTR _this$[ebp], ecx

; 307  : 		return (_Myval2);

	mov	eax, DWORD PTR _this$[ebp]

; 308  : 		}

	mov	esp, ebp
	pop	ebp
	ret	0
?_Get_second@?$_Compressed_pair@U?$less@H@std@@V?$_Compressed_pair@V?$allocator@U?$_Tree_node@U?$pair@$$CBHPAVBaseGameEntity@@@std@@PAX@std@@@std@@V?$_Tree_val@U?$_Tree_simple_types@U?$pair@$$CBHPAVBaseGameEntity@@@std@@@std@@@2@$00@2@$00@std@@QBEABV?$_Compressed_pair@V?$allocator@U?$_Tree_node@U?$pair@$$CBHPAVBaseGameEntity@@@std@@PAX@std@@@std@@V?$_Tree_val@U?$_Tree_simple_types@U?$pair@$$CBHPAVBaseGameEntity@@@std@@@std@@@2@$00@2@XZ ENDP ; std::_Compressed_pair<std::less<int>,std::_Compressed_pair<std::allocator<std::_Tree_node<std::pair<int const ,BaseGameEntity *>,void *> >,std::_Tree_val<std::_Tree_simple_types<std::pair<int const ,BaseGameEntity *> > >,1>,1>::_Get_second
_TEXT	ENDS
; Function compile flags: /Odtp /RTCsu
; File c:\program files (x86)\microsoft visual studio\2017\community\vc\tools\msvc\14.15.26726\include\xutility
;	COMDAT ?_Get_second@?$_Compressed_pair@U?$less@H@std@@V?$_Compressed_pair@V?$allocator@U?$_Tree_node@U?$pair@$$CBHPAVBaseGameEntity@@@std@@PAX@std@@@std@@V?$_Tree_val@U?$_Tree_simple_types@U?$pair@$$CBHPAVBaseGameEntity@@@std@@@std@@@2@$00@2@$00@std@@QAEAAV?$_Compressed_pair@V?$allocator@U?$_Tree_node@U?$pair@$$CBHPAVBaseGameEntity@@@std@@PAX@std@@@std@@V?$_Tree_val@U?$_Tree_simple_types@U?$pair@$$CBHPAVBaseGameEntity@@@std@@@std@@@2@$00@2@XZ
_TEXT	SEGMENT
_this$ = -4						; size = 4
?_Get_second@?$_Compressed_pair@U?$less@H@std@@V?$_Compressed_pair@V?$allocator@U?$_Tree_node@U?$pair@$$CBHPAVBaseGameEntity@@@std@@PAX@std@@@std@@V?$_Tree_val@U?$_Tree_simple_types@U?$pair@$$CBHPAVBaseGameEntity@@@std@@@std@@@2@$00@2@$00@std@@QAEAAV?$_Compressed_pair@V?$allocator@U?$_Tree_node@U?$pair@$$CBHPAVBaseGameEntity@@@std@@PAX@std@@@std@@V?$_Tree_val@U?$_Tree_simple_types@U?$pair@$$CBHPAVBaseGameEntity@@@std@@@std@@@2@$00@2@XZ PROC ; std::_Compressed_pair<std::less<int>,std::_Compressed_pair<std::allocator<std::_Tree_node<std::pair<int const ,BaseGameEntity *>,void *> >,std::_Tree_val<std::_Tree_simple_types<std::pair<int const ,BaseGameEntity *> > >,1>,1>::_Get_second, COMDAT
; _this$ = ecx

; 301  : 		{	// return reference to second

	push	ebp
	mov	ebp, esp
	push	ecx
	mov	DWORD PTR [ebp-4], -858993460		; ccccccccH
	mov	DWORD PTR _this$[ebp], ecx

; 302  : 		return (_Myval2);

	mov	eax, DWORD PTR _this$[ebp]

; 303  : 		}

	mov	esp, ebp
	pop	ebp
	ret	0
?_Get_second@?$_Compressed_pair@U?$less@H@std@@V?$_Compressed_pair@V?$allocator@U?$_Tree_node@U?$pair@$$CBHPAVBaseGameEntity@@@std@@PAX@std@@@std@@V?$_Tree_val@U?$_Tree_simple_types@U?$pair@$$CBHPAVBaseGameEntity@@@std@@@std@@@2@$00@2@$00@std@@QAEAAV?$_Compressed_pair@V?$allocator@U?$_Tree_node@U?$pair@$$CBHPAVBaseGameEntity@@@std@@PAX@std@@@std@@V?$_Tree_val@U?$_Tree_simple_types@U?$pair@$$CBHPAVBaseGameEntity@@@std@@@std@@@2@$00@2@XZ ENDP ; std::_Compressed_pair<std::less<int>,std::_Compressed_pair<std::allocator<std::_Tree_node<std::pair<int const ,BaseGameEntity *>,void *> >,std::_Tree_val<std::_Tree_simple_types<std::pair<int const ,BaseGameEntity *> > >,1>,1>::_Get_second
_TEXT	ENDS
; Function compile flags: /Odtp /RTCsu
; File c:\program files (x86)\microsoft visual studio\2017\community\vc\tools\msvc\14.15.26726\include\xutility
;	COMDAT ?_Get_first@?$_Compressed_pair@U?$less@H@std@@V?$_Compressed_pair@V?$allocator@U?$_Tree_node@U?$pair@$$CBHPAVBaseGameEntity@@@std@@PAX@std@@@std@@V?$_Tree_val@U?$_Tree_simple_types@U?$pair@$$CBHPAVBaseGameEntity@@@std@@@std@@@2@$00@2@$00@std@@QBEABU?$less@H@2@XZ
_TEXT	SEGMENT
_this$ = -4						; size = 4
?_Get_first@?$_Compressed_pair@U?$less@H@std@@V?$_Compressed_pair@V?$allocator@U?$_Tree_node@U?$pair@$$CBHPAVBaseGameEntity@@@std@@PAX@std@@@std@@V?$_Tree_val@U?$_Tree_simple_types@U?$pair@$$CBHPAVBaseGameEntity@@@std@@@std@@@2@$00@2@$00@std@@QBEABU?$less@H@2@XZ PROC ; std::_Compressed_pair<std::less<int>,std::_Compressed_pair<std::allocator<std::_Tree_node<std::pair<int const ,BaseGameEntity *>,void *> >,std::_Tree_val<std::_Tree_simple_types<std::pair<int const ,BaseGameEntity *> > >,1>,1>::_Get_first, COMDAT
; _this$ = ecx

; 296  : 		{	// return const reference to first

	push	ebp
	mov	ebp, esp
	push	ecx
	mov	DWORD PTR [ebp-4], -858993460		; ccccccccH
	mov	DWORD PTR _this$[ebp], ecx

; 297  : 		return (*this);

	mov	eax, DWORD PTR _this$[ebp]

; 298  : 		}

	mov	esp, ebp
	pop	ebp
	ret	0
?_Get_first@?$_Compressed_pair@U?$less@H@std@@V?$_Compressed_pair@V?$allocator@U?$_Tree_node@U?$pair@$$CBHPAVBaseGameEntity@@@std@@PAX@std@@@std@@V?$_Tree_val@U?$_Tree_simple_types@U?$pair@$$CBHPAVBaseGameEntity@@@std@@@std@@@2@$00@2@$00@std@@QBEABU?$less@H@2@XZ ENDP ; std::_Compressed_pair<std::less<int>,std::_Compressed_pair<std::allocator<std::_Tree_node<std::pair<int const ,BaseGameEntity *>,void *> >,std::_Tree_val<std::_Tree_simple_types<std::pair<int const ,BaseGameEntity *> > >,1>,1>::_Get_first
_TEXT	ENDS
; Function compile flags: /Odtp /RTCsu
; File c:\program files (x86)\microsoft visual studio\2017\community\vc\tools\msvc\14.15.26726\include\xutility
;	COMDAT ?_Get_first@?$_Compressed_pair@U?$less@H@std@@V?$_Compressed_pair@V?$allocator@U?$_Tree_node@U?$pair@$$CBHPAVBaseGameEntity@@@std@@PAX@std@@@std@@V?$_Tree_val@U?$_Tree_simple_types@U?$pair@$$CBHPAVBaseGameEntity@@@std@@@std@@@2@$00@2@$00@std@@QAEAAU?$less@H@2@XZ
_TEXT	SEGMENT
_this$ = -4						; size = 4
?_Get_first@?$_Compressed_pair@U?$less@H@std@@V?$_Compressed_pair@V?$allocator@U?$_Tree_node@U?$pair@$$CBHPAVBaseGameEntity@@@std@@PAX@std@@@std@@V?$_Tree_val@U?$_Tree_simple_types@U?$pair@$$CBHPAVBaseGameEntity@@@std@@@std@@@2@$00@2@$00@std@@QAEAAU?$less@H@2@XZ PROC ; std::_Compressed_pair<std::less<int>,std::_Compressed_pair<std::allocator<std::_Tree_node<std::pair<int const ,BaseGameEntity *>,void *> >,std::_Tree_val<std::_Tree_simple_types<std::pair<int const ,BaseGameEntity *> > >,1>,1>::_Get_first, COMDAT
; _this$ = ecx

; 291  : 		{	// return reference to first

	push	ebp
	mov	ebp, esp
	push	ecx
	mov	DWORD PTR [ebp-4], -858993460		; ccccccccH
	mov	DWORD PTR _this$[ebp], ecx

; 292  : 		return (*this);

	mov	eax, DWORD PTR _this$[ebp]

; 293  : 		}

	mov	esp, ebp
	pop	ebp
	ret	0
?_Get_first@?$_Compressed_pair@U?$less@H@std@@V?$_Compressed_pair@V?$allocator@U?$_Tree_node@U?$pair@$$CBHPAVBaseGameEntity@@@std@@PAX@std@@@std@@V?$_Tree_val@U?$_Tree_simple_types@U?$pair@$$CBHPAVBaseGameEntity@@@std@@@std@@@2@$00@2@$00@std@@QAEAAU?$less@H@2@XZ ENDP ; std::_Compressed_pair<std::less<int>,std::_Compressed_pair<std::allocator<std::_Tree_node<std::pair<int const ,BaseGameEntity *>,void *> >,std::_Tree_val<std::_Tree_simple_types<std::pair<int const ,BaseGameEntity *> > >,1>,1>::_Get_first
_TEXT	ENDS
; Function compile flags: /Odtp /RTCsu
; File c:\program files (x86)\microsoft visual studio\2017\community\vc\tools\msvc\14.15.26726\include\xutility
;	COMDAT ?_Get_second@?$_Compressed_pair@V?$allocator@U?$_Tree_node@U?$pair@$$CBHPAVBaseGameEntity@@@std@@PAX@std@@@std@@V?$_Tree_val@U?$_Tree_simple_types@U?$pair@$$CBHPAVBaseGameEntity@@@std@@@std@@@2@$00@std@@QBEABV?$_Tree_val@U?$_Tree_simple_types@U?$pair@$$CBHPAVBaseGameEntity@@@std@@@std@@@2@XZ
_TEXT	SEGMENT
_this$ = -4						; size = 4
?_Get_second@?$_Compressed_pair@V?$allocator@U?$_Tree_node@U?$pair@$$CBHPAVBaseGameEntity@@@std@@PAX@std@@@std@@V?$_Tree_val@U?$_Tree_simple_types@U?$pair@$$CBHPAVBaseGameEntity@@@std@@@std@@@2@$00@std@@QBEABV?$_Tree_val@U?$_Tree_simple_types@U?$pair@$$CBHPAVBaseGameEntity@@@std@@@std@@@2@XZ PROC ; std::_Compressed_pair<std::allocator<std::_Tree_node<std::pair<int const ,BaseGameEntity *>,void *> >,std::_Tree_val<std::_Tree_simple_types<std::pair<int const ,BaseGameEntity *> > >,1>::_Get_second, COMDAT
; _this$ = ecx

; 306  : 		{	// return const reference to second

	push	ebp
	mov	ebp, esp
	push	ecx
	mov	DWORD PTR [ebp-4], -858993460		; ccccccccH
	mov	DWORD PTR _this$[ebp], ecx

; 307  : 		return (_Myval2);

	mov	eax, DWORD PTR _this$[ebp]

; 308  : 		}

	mov	esp, ebp
	pop	ebp
	ret	0
?_Get_second@?$_Compressed_pair@V?$allocator@U?$_Tree_node@U?$pair@$$CBHPAVBaseGameEntity@@@std@@PAX@std@@@std@@V?$_Tree_val@U?$_Tree_simple_types@U?$pair@$$CBHPAVBaseGameEntity@@@std@@@std@@@2@$00@std@@QBEABV?$_Tree_val@U?$_Tree_simple_types@U?$pair@$$CBHPAVBaseGameEntity@@@std@@@std@@@2@XZ ENDP ; std::_Compressed_pair<std::allocator<std::_Tree_node<std::pair<int const ,BaseGameEntity *>,void *> >,std::_Tree_val<std::_Tree_simple_types<std::pair<int const ,BaseGameEntity *> > >,1>::_Get_second
_TEXT	ENDS
; Function compile flags: /Odtp /RTCsu
; File c:\program files (x86)\microsoft visual studio\2017\community\vc\tools\msvc\14.15.26726\include\xutility
;	COMDAT ?_Get_second@?$_Compressed_pair@V?$allocator@U?$_Tree_node@U?$pair@$$CBHPAVBaseGameEntity@@@std@@PAX@std@@@std@@V?$_Tree_val@U?$_Tree_simple_types@U?$pair@$$CBHPAVBaseGameEntity@@@std@@@std@@@2@$00@std@@QAEAAV?$_Tree_val@U?$_Tree_simple_types@U?$pair@$$CBHPAVBaseGameEntity@@@std@@@std@@@2@XZ
_TEXT	SEGMENT
_this$ = -4						; size = 4
?_Get_second@?$_Compressed_pair@V?$allocator@U?$_Tree_node@U?$pair@$$CBHPAVBaseGameEntity@@@std@@PAX@std@@@std@@V?$_Tree_val@U?$_Tree_simple_types@U?$pair@$$CBHPAVBaseGameEntity@@@std@@@std@@@2@$00@std@@QAEAAV?$_Tree_val@U?$_Tree_simple_types@U?$pair@$$CBHPAVBaseGameEntity@@@std@@@std@@@2@XZ PROC ; std::_Compressed_pair<std::allocator<std::_Tree_node<std::pair<int const ,BaseGameEntity *>,void *> >,std::_Tree_val<std::_Tree_simple_types<std::pair<int const ,BaseGameEntity *> > >,1>::_Get_second, COMDAT
; _this$ = ecx

; 301  : 		{	// return reference to second

	push	ebp
	mov	ebp, esp
	push	ecx
	mov	DWORD PTR [ebp-4], -858993460		; ccccccccH
	mov	DWORD PTR _this$[ebp], ecx

; 302  : 		return (_Myval2);

	mov	eax, DWORD PTR _this$[ebp]

; 303  : 		}

	mov	esp, ebp
	pop	ebp
	ret	0
?_Get_second@?$_Compressed_pair@V?$allocator@U?$_Tree_node@U?$pair@$$CBHPAVBaseGameEntity@@@std@@PAX@std@@@std@@V?$_Tree_val@U?$_Tree_simple_types@U?$pair@$$CBHPAVBaseGameEntity@@@std@@@std@@@2@$00@std@@QAEAAV?$_Tree_val@U?$_Tree_simple_types@U?$pair@$$CBHPAVBaseGameEntity@@@std@@@std@@@2@XZ ENDP ; std::_Compressed_pair<std::allocator<std::_Tree_node<std::pair<int const ,BaseGameEntity *>,void *> >,std::_Tree_val<std::_Tree_simple_types<std::pair<int const ,BaseGameEntity *> > >,1>::_Get_second
_TEXT	ENDS
; Function compile flags: /Odtp /RTCsu
; File c:\program files (x86)\microsoft visual studio\2017\community\vc\tools\msvc\14.15.26726\include\xutility
;	COMDAT ?_Get_first@?$_Compressed_pair@V?$allocator@U?$_Tree_node@U?$pair@$$CBHPAVBaseGameEntity@@@std@@PAX@std@@@std@@V?$_Tree_val@U?$_Tree_simple_types@U?$pair@$$CBHPAVBaseGameEntity@@@std@@@std@@@2@$00@std@@QBEABV?$allocator@U?$_Tree_node@U?$pair@$$CBHPAVBaseGameEntity@@@std@@PAX@std@@@2@XZ
_TEXT	SEGMENT
_this$ = -4						; size = 4
?_Get_first@?$_Compressed_pair@V?$allocator@U?$_Tree_node@U?$pair@$$CBHPAVBaseGameEntity@@@std@@PAX@std@@@std@@V?$_Tree_val@U?$_Tree_simple_types@U?$pair@$$CBHPAVBaseGameEntity@@@std@@@std@@@2@$00@std@@QBEABV?$allocator@U?$_Tree_node@U?$pair@$$CBHPAVBaseGameEntity@@@std@@PAX@std@@@2@XZ PROC ; std::_Compressed_pair<std::allocator<std::_Tree_node<std::pair<int const ,BaseGameEntity *>,void *> >,std::_Tree_val<std::_Tree_simple_types<std::pair<int const ,BaseGameEntity *> > >,1>::_Get_first, COMDAT
; _this$ = ecx

; 296  : 		{	// return const reference to first

	push	ebp
	mov	ebp, esp
	push	ecx
	mov	DWORD PTR [ebp-4], -858993460		; ccccccccH
	mov	DWORD PTR _this$[ebp], ecx

; 297  : 		return (*this);

	mov	eax, DWORD PTR _this$[ebp]

; 298  : 		}

	mov	esp, ebp
	pop	ebp
	ret	0
?_Get_first@?$_Compressed_pair@V?$allocator@U?$_Tree_node@U?$pair@$$CBHPAVBaseGameEntity@@@std@@PAX@std@@@std@@V?$_Tree_val@U?$_Tree_simple_types@U?$pair@$$CBHPAVBaseGameEntity@@@std@@@std@@@2@$00@std@@QBEABV?$allocator@U?$_Tree_node@U?$pair@$$CBHPAVBaseGameEntity@@@std@@PAX@std@@@2@XZ ENDP ; std::_Compressed_pair<std::allocator<std::_Tree_node<std::pair<int const ,BaseGameEntity *>,void *> >,std::_Tree_val<std::_Tree_simple_types<std::pair<int const ,BaseGameEntity *> > >,1>::_Get_first
_TEXT	ENDS
; Function compile flags: /Odtp /RTCsu
; File c:\program files (x86)\microsoft visual studio\2017\community\vc\tools\msvc\14.15.26726\include\xutility
;	COMDAT ?_Get_first@?$_Compressed_pair@V?$allocator@U?$_Tree_node@U?$pair@$$CBHPAVBaseGameEntity@@@std@@PAX@std@@@std@@V?$_Tree_val@U?$_Tree_simple_types@U?$pair@$$CBHPAVBaseGameEntity@@@std@@@std@@@2@$00@std@@QAEAAV?$allocator@U?$_Tree_node@U?$pair@$$CBHPAVBaseGameEntity@@@std@@PAX@std@@@2@XZ
_TEXT	SEGMENT
_this$ = -4						; size = 4
?_Get_first@?$_Compressed_pair@V?$allocator@U?$_Tree_node@U?$pair@$$CBHPAVBaseGameEntity@@@std@@PAX@std@@@std@@V?$_Tree_val@U?$_Tree_simple_types@U?$pair@$$CBHPAVBaseGameEntity@@@std@@@std@@@2@$00@std@@QAEAAV?$allocator@U?$_Tree_node@U?$pair@$$CBHPAVBaseGameEntity@@@std@@PAX@std@@@2@XZ PROC ; std::_Compressed_pair<std::allocator<std::_Tree_node<std::pair<int const ,BaseGameEntity *>,void *> >,std::_Tree_val<std::_Tree_simple_types<std::pair<int const ,BaseGameEntity *> > >,1>::_Get_first, COMDAT
; _this$ = ecx

; 291  : 		{	// return reference to first

	push	ebp
	mov	ebp, esp
	push	ecx
	mov	DWORD PTR [ebp-4], -858993460		; ccccccccH
	mov	DWORD PTR _this$[ebp], ecx

; 292  : 		return (*this);

	mov	eax, DWORD PTR _this$[ebp]

; 293  : 		}

	mov	esp, ebp
	pop	ebp
	ret	0
?_Get_first@?$_Compressed_pair@V?$allocator@U?$_Tree_node@U?$pair@$$CBHPAVBaseGameEntity@@@std@@PAX@std@@@std@@V?$_Tree_val@U?$_Tree_simple_types@U?$pair@$$CBHPAVBaseGameEntity@@@std@@@std@@@2@$00@std@@QAEAAV?$allocator@U?$_Tree_node@U?$pair@$$CBHPAVBaseGameEntity@@@std@@PAX@std@@@2@XZ ENDP ; std::_Compressed_pair<std::allocator<std::_Tree_node<std::pair<int const ,BaseGameEntity *>,void *> >,std::_Tree_val<std::_Tree_simple_types<std::pair<int const ,BaseGameEntity *> > >,1>::_Get_first
_TEXT	ENDS
; Function compile flags: /Odtp /RTCsu
; File c:\program files (x86)\microsoft visual studio\2017\community\vc\tools\msvc\14.15.26726\include\xtree
;	COMDAT ?_Extract@?$_Tree_val@U?$_Tree_simple_types@U?$pair@$$CBHPAVBaseGameEntity@@@std@@@std@@@std@@QAEPAU?$_Tree_node@U?$pair@$$CBHPAVBaseGameEntity@@@std@@PAX@2@V?$_Tree_const_iterator@V?$_Tree_val@U?$_Tree_simple_types@U?$pair@$$CBHPAVBaseGameEntity@@@std@@@std@@@std@@@2@@Z
_TEXT	SEGMENT
tv190 = -44						; size = 4
tv179 = -40						; size = 4
$T2 = -36						; size = 4
__Pnode$ = -32						; size = 4
__Fixnodeparent$ = -28					; size = 4
__Fixnode$ = -24					; size = 4
__Erasednode$ = -20					; size = 4
_this$ = -16						; size = 4
__$EHRec$ = -12						; size = 12
__Where$ = 8						; size = 12
?_Extract@?$_Tree_val@U?$_Tree_simple_types@U?$pair@$$CBHPAVBaseGameEntity@@@std@@@std@@@std@@QAEPAU?$_Tree_node@U?$pair@$$CBHPAVBaseGameEntity@@@std@@PAX@2@V?$_Tree_const_iterator@V?$_Tree_val@U?$_Tree_simple_types@U?$pair@$$CBHPAVBaseGameEntity@@@std@@@std@@@std@@@2@@Z PROC ; std::_Tree_val<std::_Tree_simple_types<std::pair<int const ,BaseGameEntity *> > >::_Extract, COMDAT
; _this$ = ecx

; 562  : 		{	// extract node at _Where

	push	ebp
	mov	ebp, esp
	push	-1
	push	__ehhandler$?_Extract@?$_Tree_val@U?$_Tree_simple_types@U?$pair@$$CBHPAVBaseGameEntity@@@std@@@std@@@std@@QAEPAU?$_Tree_node@U?$pair@$$CBHPAVBaseGameEntity@@@std@@PAX@2@V?$_Tree_const_iterator@V?$_Tree_val@U?$_Tree_simple_types@U?$pair@$$CBHPAVBaseGameEntity@@@std@@@std@@@std@@@2@@Z
	mov	eax, DWORD PTR fs:0
	push	eax
	sub	esp, 32					; 00000020H
	mov	eax, -858993460				; ccccccccH
	mov	DWORD PTR [ebp-44], eax
	mov	DWORD PTR [ebp-40], eax
	mov	DWORD PTR [ebp-36], eax
	mov	DWORD PTR [ebp-32], eax
	mov	DWORD PTR [ebp-28], eax
	mov	DWORD PTR [ebp-24], eax
	mov	DWORD PTR [ebp-20], eax
	mov	DWORD PTR [ebp-16], eax
	mov	eax, DWORD PTR ___security_cookie
	xor	eax, ebp
	push	eax
	lea	eax, DWORD PTR __$EHRec$[ebp]
	mov	DWORD PTR fs:0, eax
	mov	DWORD PTR _this$[ebp], ecx
	mov	DWORD PTR __$EHRec$[ebp+8], 0
$LN4@Extract:

; 563  :  #if _ITERATOR_DEBUG_LEVEL == 2
; 564  : 		_STL_VERIFY(_Where._Getcont() == this

	lea	ecx, DWORD PTR __Where$[ebp]
	call	?_Getcont@_Iterator_base12@std@@QBEPBU_Container_base12@2@XZ ; std::_Iterator_base12::_Getcont
	cmp	eax, DWORD PTR _this$[ebp]
	jne	SHORT $LN7@Extract
	mov	eax, DWORD PTR __Where$[ebp+8]
	movsx	ecx, BYTE PTR [eax+13]
	test	ecx, ecx
	jne	SHORT $LN7@Extract
	jmp	SHORT $LN2@Extract
$LN7@Extract:
	push	OFFSET ??_C@_0CF@JILFNJOL@map?1set?5erase?5iterator?5outside?5@
	push	OFFSET ??_C@_02DKCKIIND@?$CFs@
	push	0
	push	565					; 00000235H
	push	OFFSET ??_C@_0GG@KBILHLPB@c?3?2program?5files?5?$CIx86?$CJ?2microsof@
	push	2
	call	__CrtDbgReport
	add	esp, 24					; 00000018H
	cmp	eax, 1
	jne	SHORT $LN50@Extract
	int	3
$LN50@Extract:
	push	0
	push	565					; 00000235H
	push	OFFSET ??_C@_1MM@ECCNBGLC@?$AAc?$AA?3?$AA?2?$AAp?$AAr?$AAo?$AAg?$AAr?$AAa?$AAm?$AA?5?$AAf?$AAi?$AAl?$AAe@
	push	OFFSET ??_C@_1OA@DEKLBHMG@?$AAs?$AAt?$AAd?$AA?3?$AA?3?$AA_?$AAT?$AAr?$AAe?$AAe?$AA_?$AAv?$AAa?$AAl?$AA?$DM@
	push	OFFSET ??_C@_1EO@CEDAEPC@?$AA?$CC?$AAm?$AAa?$AAp?$AA?1?$AAs?$AAe?$AAt?$AA?5?$AAe?$AAr?$AAa?$AAs?$AAe?$AA?5@
	call	__invalid_parameter
	add	esp, 20					; 00000014H

; 565  : 			&& !_Where._Ptr->_Isnil, "map/set erase iterator outside range");

	xor	eax, eax
	jne	SHORT $LN7@Extract
$LN2@Extract:
	xor	ecx, ecx
	jne	SHORT $LN4@Extract

; 566  :  #endif /* _ITERATOR_DEBUG_LEVEL == 2 */
; 567  : 
; 568  : 		_Nodeptr _Erasednode = _Where._Ptr;	// node to erase

	mov	edx, DWORD PTR __Where$[ebp+8]
	mov	DWORD PTR __Erasednode$[ebp], edx

; 569  : 		++_Where;	// save successor iterator for return

	lea	ecx, DWORD PTR __Where$[ebp]
	call	??E?$_Tree_const_iterator@V?$_Tree_val@U?$_Tree_simple_types@U?$pair@$$CBHPAVBaseGameEntity@@@std@@@std@@@std@@@std@@QAEAAV01@XZ ; std::_Tree_const_iterator<std::_Tree_val<std::_Tree_simple_types<std::pair<int const ,BaseGameEntity *> > > >::operator++

; 570  : 
; 571  : 		_Nodeptr _Fixnode;	// the node to recolor as needed
; 572  : 		_Nodeptr _Fixnodeparent;	// parent of _Fixnode (which may be nil)
; 573  : 		_Nodeptr _Pnode = _Erasednode;

	mov	eax, DWORD PTR __Erasednode$[ebp]
	mov	DWORD PTR __Pnode$[ebp], eax

; 574  : 
; 575  : 		if (_Pnode->_Left->_Isnil)

	mov	ecx, DWORD PTR __Pnode$[ebp]
	mov	edx, DWORD PTR [ecx]
	movsx	eax, BYTE PTR [edx+13]
	test	eax, eax
	je	SHORT $LN13@Extract

; 576  : 			{
; 577  : 			_Fixnode = _Pnode->_Right;	// stitch up right subtree

	mov	ecx, DWORD PTR __Pnode$[ebp]
	mov	edx, DWORD PTR [ecx+8]
	mov	DWORD PTR __Fixnode$[ebp], edx
	jmp	SHORT $LN14@Extract
$LN13@Extract:

; 578  : 			}
; 579  : 		else if (_Pnode->_Right->_Isnil)

	mov	eax, DWORD PTR __Pnode$[ebp]
	mov	ecx, DWORD PTR [eax+8]
	movsx	edx, BYTE PTR [ecx+13]
	test	edx, edx
	je	SHORT $LN15@Extract

; 580  : 			{
; 581  : 			_Fixnode = _Pnode->_Left;	// stitch up left subtree

	mov	eax, DWORD PTR __Pnode$[ebp]
	mov	ecx, DWORD PTR [eax]
	mov	DWORD PTR __Fixnode$[ebp], ecx

; 582  : 			}
; 583  : 		else

	jmp	SHORT $LN14@Extract
$LN15@Extract:

; 584  : 			{	// two subtrees, must lift successor node to replace erased
; 585  : 			_Pnode = _Where._Ptr;	// _Pnode is successor node

	mov	edx, DWORD PTR __Where$[ebp+8]
	mov	DWORD PTR __Pnode$[ebp], edx

; 586  : 			_Fixnode = _Pnode->_Right;	// _Fixnode is only subtree

	mov	eax, DWORD PTR __Pnode$[ebp]
	mov	ecx, DWORD PTR [eax+8]
	mov	DWORD PTR __Fixnode$[ebp], ecx
$LN14@Extract:

; 587  : 			}
; 588  : 
; 589  : 		if (_Pnode == _Erasednode)

	mov	edx, DWORD PTR __Pnode$[ebp]
	cmp	edx, DWORD PTR __Erasednode$[ebp]
	jne	$LN17@Extract

; 590  : 			{	// at most one subtree, relink it
; 591  : 			_Fixnodeparent = _Erasednode->_Parent;

	mov	eax, DWORD PTR __Erasednode$[ebp]
	mov	ecx, DWORD PTR [eax+4]
	mov	DWORD PTR __Fixnodeparent$[ebp], ecx

; 592  : 			if (!_Fixnode->_Isnil)

	mov	edx, DWORD PTR __Fixnode$[ebp]
	movsx	eax, BYTE PTR [edx+13]
	test	eax, eax
	jne	SHORT $LN19@Extract

; 593  : 				_Fixnode->_Parent = _Fixnodeparent;	// link up

	mov	ecx, DWORD PTR __Fixnode$[ebp]
	mov	edx, DWORD PTR __Fixnodeparent$[ebp]
	mov	DWORD PTR [ecx+4], edx
$LN19@Extract:

; 594  : 
; 595  : 			if (_Root() == _Erasednode)

	mov	ecx, DWORD PTR _this$[ebp]
	call	?_Root@?$_Tree_val@U?$_Tree_simple_types@U?$pair@$$CBHPAVBaseGameEntity@@@std@@@std@@@std@@QBEAAPAU?$_Tree_node@U?$pair@$$CBHPAVBaseGameEntity@@@std@@PAX@2@XZ ; std::_Tree_val<std::_Tree_simple_types<std::pair<int const ,BaseGameEntity *> > >::_Root
	mov	eax, DWORD PTR [eax]
	cmp	eax, DWORD PTR __Erasednode$[ebp]
	jne	SHORT $LN20@Extract

; 596  : 				{
; 597  : 				_Root() = _Fixnode;	// link down from root

	mov	ecx, DWORD PTR _this$[ebp]
	call	?_Root@?$_Tree_val@U?$_Tree_simple_types@U?$pair@$$CBHPAVBaseGameEntity@@@std@@@std@@@std@@QBEAAPAU?$_Tree_node@U?$pair@$$CBHPAVBaseGameEntity@@@std@@PAX@2@XZ ; std::_Tree_val<std::_Tree_simple_types<std::pair<int const ,BaseGameEntity *> > >::_Root
	mov	ecx, DWORD PTR __Fixnode$[ebp]
	mov	DWORD PTR [eax], ecx
	jmp	SHORT $LN21@Extract
$LN20@Extract:

; 598  : 				}
; 599  : 			else if (_Fixnodeparent->_Left == _Erasednode)

	mov	edx, DWORD PTR __Fixnodeparent$[ebp]
	mov	eax, DWORD PTR [edx]
	cmp	eax, DWORD PTR __Erasednode$[ebp]
	jne	SHORT $LN22@Extract

; 600  : 				{
; 601  : 				_Fixnodeparent->_Left = _Fixnode;	// link down to left

	mov	ecx, DWORD PTR __Fixnodeparent$[ebp]
	mov	edx, DWORD PTR __Fixnode$[ebp]
	mov	DWORD PTR [ecx], edx

; 602  : 				}
; 603  : 			else

	jmp	SHORT $LN21@Extract
$LN22@Extract:

; 604  : 				{
; 605  : 				_Fixnodeparent->_Right = _Fixnode;	// link down to right

	mov	eax, DWORD PTR __Fixnodeparent$[ebp]
	mov	ecx, DWORD PTR __Fixnode$[ebp]
	mov	DWORD PTR [eax+8], ecx
$LN21@Extract:

; 606  : 				}
; 607  : 
; 608  : 			if (_Lmost() == _Erasednode)

	mov	ecx, DWORD PTR _this$[ebp]
	call	?_Lmost@?$_Tree_val@U?$_Tree_simple_types@U?$pair@$$CBHPAVBaseGameEntity@@@std@@@std@@@std@@QBEAAPAU?$_Tree_node@U?$pair@$$CBHPAVBaseGameEntity@@@std@@PAX@2@XZ ; std::_Tree_val<std::_Tree_simple_types<std::pair<int const ,BaseGameEntity *> > >::_Lmost
	mov	edx, DWORD PTR [eax]
	cmp	edx, DWORD PTR __Erasednode$[ebp]
	jne	SHORT $LN24@Extract

; 609  : 				{
; 610  : 				_Lmost() = _Fixnode->_Isnil

	mov	eax, DWORD PTR __Fixnode$[ebp]
	movsx	ecx, BYTE PTR [eax+13]
	test	ecx, ecx
	je	SHORT $LN51@Extract
	mov	edx, DWORD PTR __Fixnodeparent$[ebp]
	mov	DWORD PTR tv179[ebp], edx
	jmp	SHORT $LN52@Extract
$LN51@Extract:
	mov	eax, DWORD PTR __Fixnode$[ebp]
	push	eax
	call	?_Min@?$_Tree_val@U?$_Tree_simple_types@U?$pair@$$CBHPAVBaseGameEntity@@@std@@@std@@@std@@SAPAU?$_Tree_node@U?$pair@$$CBHPAVBaseGameEntity@@@std@@PAX@2@PAU32@@Z ; std::_Tree_val<std::_Tree_simple_types<std::pair<int const ,BaseGameEntity *> > >::_Min
	add	esp, 4
	mov	DWORD PTR tv179[ebp], eax
$LN52@Extract:
	mov	ecx, DWORD PTR _this$[ebp]
	call	?_Lmost@?$_Tree_val@U?$_Tree_simple_types@U?$pair@$$CBHPAVBaseGameEntity@@@std@@@std@@@std@@QBEAAPAU?$_Tree_node@U?$pair@$$CBHPAVBaseGameEntity@@@std@@PAX@2@XZ ; std::_Tree_val<std::_Tree_simple_types<std::pair<int const ,BaseGameEntity *> > >::_Lmost
	mov	ecx, DWORD PTR tv179[ebp]
	mov	DWORD PTR [eax], ecx
$LN24@Extract:

; 611  : 					? _Fixnodeparent	// smallest is parent of erased node
; 612  : 					: _Min(_Fixnode);	// smallest in relinked subtree
; 613  : 				}
; 614  : 
; 615  : 			if (_Rmost() == _Erasednode)

	mov	ecx, DWORD PTR _this$[ebp]
	call	?_Rmost@?$_Tree_val@U?$_Tree_simple_types@U?$pair@$$CBHPAVBaseGameEntity@@@std@@@std@@@std@@QBEAAPAU?$_Tree_node@U?$pair@$$CBHPAVBaseGameEntity@@@std@@PAX@2@XZ ; std::_Tree_val<std::_Tree_simple_types<std::pair<int const ,BaseGameEntity *> > >::_Rmost
	mov	edx, DWORD PTR [eax]
	cmp	edx, DWORD PTR __Erasednode$[ebp]
	jne	SHORT $LN25@Extract

; 616  : 				{
; 617  : 				_Rmost() = _Fixnode->_Isnil

	mov	eax, DWORD PTR __Fixnode$[ebp]
	movsx	ecx, BYTE PTR [eax+13]
	test	ecx, ecx
	je	SHORT $LN53@Extract
	mov	edx, DWORD PTR __Fixnodeparent$[ebp]
	mov	DWORD PTR tv190[ebp], edx
	jmp	SHORT $LN54@Extract
$LN53@Extract:
	mov	eax, DWORD PTR __Fixnode$[ebp]
	push	eax
	call	?_Max@?$_Tree_val@U?$_Tree_simple_types@U?$pair@$$CBHPAVBaseGameEntity@@@std@@@std@@@std@@SAPAU?$_Tree_node@U?$pair@$$CBHPAVBaseGameEntity@@@std@@PAX@2@PAU32@@Z ; std::_Tree_val<std::_Tree_simple_types<std::pair<int const ,BaseGameEntity *> > >::_Max
	add	esp, 4
	mov	DWORD PTR tv190[ebp], eax
$LN54@Extract:
	mov	ecx, DWORD PTR _this$[ebp]
	call	?_Rmost@?$_Tree_val@U?$_Tree_simple_types@U?$pair@$$CBHPAVBaseGameEntity@@@std@@@std@@@std@@QBEAAPAU?$_Tree_node@U?$pair@$$CBHPAVBaseGameEntity@@@std@@PAX@2@XZ ; std::_Tree_val<std::_Tree_simple_types<std::pair<int const ,BaseGameEntity *> > >::_Rmost
	mov	ecx, DWORD PTR tv190[ebp]
	mov	DWORD PTR [eax], ecx
$LN25@Extract:

; 618  : 					? _Fixnodeparent	// largest is parent of erased node
; 619  : 					: _Max(_Fixnode);	// largest in relinked subtree
; 620  : 				}
; 621  : 			}
; 622  : 		else

	jmp	$LN18@Extract
$LN17@Extract:

; 623  : 			{	// erased has two subtrees, _Pnode is successor to erased
; 624  : 			_Erasednode->_Left->_Parent = _Pnode;	// link left up

	mov	edx, DWORD PTR __Erasednode$[ebp]
	mov	eax, DWORD PTR [edx]
	mov	ecx, DWORD PTR __Pnode$[ebp]
	mov	DWORD PTR [eax+4], ecx

; 625  : 			_Pnode->_Left = _Erasednode->_Left;	// link successor down

	mov	edx, DWORD PTR __Pnode$[ebp]
	mov	eax, DWORD PTR __Erasednode$[ebp]
	mov	ecx, DWORD PTR [eax]
	mov	DWORD PTR [edx], ecx

; 626  : 
; 627  : 			if (_Pnode == _Erasednode->_Right)

	mov	edx, DWORD PTR __Erasednode$[ebp]
	mov	eax, DWORD PTR __Pnode$[ebp]
	cmp	eax, DWORD PTR [edx+8]
	jne	SHORT $LN26@Extract

; 628  : 				{
; 629  : 				_Fixnodeparent = _Pnode;	// successor is next to erased

	mov	ecx, DWORD PTR __Pnode$[ebp]
	mov	DWORD PTR __Fixnodeparent$[ebp], ecx

; 630  : 				}
; 631  : 			else

	jmp	SHORT $LN27@Extract
$LN26@Extract:

; 632  : 				{	// successor further down, link in place of erased
; 633  : 				_Fixnodeparent = _Pnode->_Parent;	// parent is successor's

	mov	edx, DWORD PTR __Pnode$[ebp]
	mov	eax, DWORD PTR [edx+4]
	mov	DWORD PTR __Fixnodeparent$[ebp], eax

; 634  : 				if (!_Fixnode->_Isnil)

	mov	ecx, DWORD PTR __Fixnode$[ebp]
	movsx	edx, BYTE PTR [ecx+13]
	test	edx, edx
	jne	SHORT $LN28@Extract

; 635  : 					{
; 636  : 					_Fixnode->_Parent = _Fixnodeparent;	// link fix up

	mov	eax, DWORD PTR __Fixnode$[ebp]
	mov	ecx, DWORD PTR __Fixnodeparent$[ebp]
	mov	DWORD PTR [eax+4], ecx
$LN28@Extract:

; 637  : 					}
; 638  : 
; 639  : 				_Fixnodeparent->_Left = _Fixnode;	// link fix down

	mov	edx, DWORD PTR __Fixnodeparent$[ebp]
	mov	eax, DWORD PTR __Fixnode$[ebp]
	mov	DWORD PTR [edx], eax

; 640  : 				_Pnode->_Right = _Erasednode->_Right;	// link next down

	mov	ecx, DWORD PTR __Pnode$[ebp]
	mov	edx, DWORD PTR __Erasednode$[ebp]
	mov	eax, DWORD PTR [edx+8]
	mov	DWORD PTR [ecx+8], eax

; 641  : 				_Erasednode->_Right->_Parent = _Pnode;	// right up

	mov	ecx, DWORD PTR __Erasednode$[ebp]
	mov	edx, DWORD PTR [ecx+8]
	mov	eax, DWORD PTR __Pnode$[ebp]
	mov	DWORD PTR [edx+4], eax
$LN27@Extract:

; 642  : 				}
; 643  : 
; 644  : 			if (_Root() == _Erasednode)

	mov	ecx, DWORD PTR _this$[ebp]
	call	?_Root@?$_Tree_val@U?$_Tree_simple_types@U?$pair@$$CBHPAVBaseGameEntity@@@std@@@std@@@std@@QBEAAPAU?$_Tree_node@U?$pair@$$CBHPAVBaseGameEntity@@@std@@PAX@2@XZ ; std::_Tree_val<std::_Tree_simple_types<std::pair<int const ,BaseGameEntity *> > >::_Root
	mov	ecx, DWORD PTR [eax]
	cmp	ecx, DWORD PTR __Erasednode$[ebp]
	jne	SHORT $LN29@Extract

; 645  : 				{
; 646  : 				_Root() = _Pnode;	// link down from root

	mov	ecx, DWORD PTR _this$[ebp]
	call	?_Root@?$_Tree_val@U?$_Tree_simple_types@U?$pair@$$CBHPAVBaseGameEntity@@@std@@@std@@@std@@QBEAAPAU?$_Tree_node@U?$pair@$$CBHPAVBaseGameEntity@@@std@@PAX@2@XZ ; std::_Tree_val<std::_Tree_simple_types<std::pair<int const ,BaseGameEntity *> > >::_Root
	mov	edx, DWORD PTR __Pnode$[ebp]
	mov	DWORD PTR [eax], edx
	jmp	SHORT $LN30@Extract
$LN29@Extract:

; 647  : 				}
; 648  : 			else if (_Erasednode->_Parent->_Left == _Erasednode)

	mov	eax, DWORD PTR __Erasednode$[ebp]
	mov	ecx, DWORD PTR [eax+4]
	mov	edx, DWORD PTR [ecx]
	cmp	edx, DWORD PTR __Erasednode$[ebp]
	jne	SHORT $LN31@Extract

; 649  : 				{
; 650  : 				_Erasednode->_Parent->_Left = _Pnode;	// link down to left

	mov	eax, DWORD PTR __Erasednode$[ebp]
	mov	ecx, DWORD PTR [eax+4]
	mov	edx, DWORD PTR __Pnode$[ebp]
	mov	DWORD PTR [ecx], edx

; 651  : 				}
; 652  : 			else

	jmp	SHORT $LN30@Extract
$LN31@Extract:

; 653  : 				{
; 654  : 				_Erasednode->_Parent->_Right = _Pnode;	// link down to right

	mov	eax, DWORD PTR __Erasednode$[ebp]
	mov	ecx, DWORD PTR [eax+4]
	mov	edx, DWORD PTR __Pnode$[ebp]
	mov	DWORD PTR [ecx+8], edx
$LN30@Extract:

; 655  : 				}
; 656  : 
; 657  : 			_Pnode->_Parent = _Erasednode->_Parent;	// link successor up

	mov	eax, DWORD PTR __Pnode$[ebp]
	mov	ecx, DWORD PTR __Erasednode$[ebp]
	mov	edx, DWORD PTR [ecx+4]
	mov	DWORD PTR [eax+4], edx

; 658  : 			_STD swap(_Pnode->_Color, _Erasednode->_Color);	// recolor it

	mov	eax, DWORD PTR __Erasednode$[ebp]
	add	eax, 12					; 0000000cH
	push	eax
	mov	ecx, DWORD PTR __Pnode$[ebp]
	add	ecx, 12					; 0000000cH
	push	ecx
	call	??$swap@DX@std@@YAXAAD0@Z		; std::swap<char,void>
	add	esp, 8
$LN18@Extract:

; 659  : 			}
; 660  : 
; 661  : 		if (_Erasednode->_Color == this->_Black)

	mov	edx, DWORD PTR __Erasednode$[ebp]
	movsx	eax, BYTE PTR [edx+12]
	cmp	eax, 1
	jne	$LN33@Extract

; 662  : 			{	// erasing black link, must recolor/rebalance tree
; 663  : 			for (; _Fixnode != _Root()

	jmp	SHORT $LN10@Extract
$LN8@Extract:

; 665  : 				_Fixnodeparent = _Fixnode->_Parent)

	mov	ecx, DWORD PTR __Fixnode$[ebp]
	mov	edx, DWORD PTR [ecx+4]
	mov	DWORD PTR __Fixnodeparent$[ebp], edx
$LN10@Extract:

; 664  : 				&& _Fixnode->_Color == this->_Black;

	mov	ecx, DWORD PTR _this$[ebp]
	call	?_Root@?$_Tree_val@U?$_Tree_simple_types@U?$pair@$$CBHPAVBaseGameEntity@@@std@@@std@@@std@@QBEAAPAU?$_Tree_node@U?$pair@$$CBHPAVBaseGameEntity@@@std@@PAX@2@XZ ; std::_Tree_val<std::_Tree_simple_types<std::pair<int const ,BaseGameEntity *> > >::_Root
	mov	ecx, DWORD PTR __Fixnode$[ebp]
	cmp	ecx, DWORD PTR [eax]
	je	$LN9@Extract
	mov	edx, DWORD PTR __Fixnode$[ebp]
	movsx	eax, BYTE PTR [edx+12]
	cmp	eax, 1
	jne	$LN9@Extract

; 666  : 				if (_Fixnode == _Fixnodeparent->_Left)

	mov	ecx, DWORD PTR __Fixnodeparent$[ebp]
	mov	edx, DWORD PTR __Fixnode$[ebp]
	cmp	edx, DWORD PTR [ecx]
	jne	$LN34@Extract

; 667  : 					{	// fixup left subtree
; 668  : 					_Pnode = _Fixnodeparent->_Right;

	mov	eax, DWORD PTR __Fixnodeparent$[ebp]
	mov	ecx, DWORD PTR [eax+8]
	mov	DWORD PTR __Pnode$[ebp], ecx

; 669  : 					if (_Pnode->_Color == this->_Red)

	mov	edx, DWORD PTR __Pnode$[ebp]
	movsx	eax, BYTE PTR [edx+12]
	test	eax, eax
	jne	SHORT $LN36@Extract

; 670  : 						{	// rotate red up from right subtree
; 671  : 						_Pnode->_Color = this->_Black;

	mov	ecx, DWORD PTR __Pnode$[ebp]
	mov	BYTE PTR [ecx+12], 1

; 672  : 						_Fixnodeparent->_Color = this->_Red;

	mov	edx, DWORD PTR __Fixnodeparent$[ebp]
	mov	BYTE PTR [edx+12], 0

; 673  : 						_Lrotate(_Fixnodeparent);

	mov	eax, DWORD PTR __Fixnodeparent$[ebp]
	push	eax
	mov	ecx, DWORD PTR _this$[ebp]
	call	?_Lrotate@?$_Tree_val@U?$_Tree_simple_types@U?$pair@$$CBHPAVBaseGameEntity@@@std@@@std@@@std@@QAEXPAU?$_Tree_node@U?$pair@$$CBHPAVBaseGameEntity@@@std@@PAX@2@@Z ; std::_Tree_val<std::_Tree_simple_types<std::pair<int const ,BaseGameEntity *> > >::_Lrotate

; 674  : 						_Pnode = _Fixnodeparent->_Right;

	mov	ecx, DWORD PTR __Fixnodeparent$[ebp]
	mov	edx, DWORD PTR [ecx+8]
	mov	DWORD PTR __Pnode$[ebp], edx
$LN36@Extract:

; 675  : 						}
; 676  : 
; 677  : 					if (_Pnode->_Isnil)

	mov	eax, DWORD PTR __Pnode$[ebp]
	movsx	ecx, BYTE PTR [eax+13]
	test	ecx, ecx
	je	SHORT $LN37@Extract

; 678  : 						_Fixnode = _Fixnodeparent;	// shouldn't happen

	mov	edx, DWORD PTR __Fixnodeparent$[ebp]
	mov	DWORD PTR __Fixnode$[ebp], edx

; 679  : 					else if (_Pnode->_Left->_Color == this->_Black

	jmp	$LN38@Extract
$LN37@Extract:

; 680  : 						&& _Pnode->_Right->_Color == this->_Black)

	mov	eax, DWORD PTR __Pnode$[ebp]
	mov	ecx, DWORD PTR [eax]
	movsx	edx, BYTE PTR [ecx+12]
	cmp	edx, 1
	jne	SHORT $LN39@Extract
	mov	eax, DWORD PTR __Pnode$[ebp]
	mov	ecx, DWORD PTR [eax+8]
	movsx	edx, BYTE PTR [ecx+12]
	cmp	edx, 1
	jne	SHORT $LN39@Extract

; 681  : 						{	// redden right subtree with black children
; 682  : 						_Pnode->_Color = this->_Red;

	mov	eax, DWORD PTR __Pnode$[ebp]
	mov	BYTE PTR [eax+12], 0

; 683  : 						_Fixnode = _Fixnodeparent;

	mov	ecx, DWORD PTR __Fixnodeparent$[ebp]
	mov	DWORD PTR __Fixnode$[ebp], ecx

; 684  : 						}
; 685  : 					else

	jmp	SHORT $LN38@Extract
$LN39@Extract:

; 686  : 						{	// must rearrange right subtree
; 687  : 						if (_Pnode->_Right->_Color == this->_Black)

	mov	edx, DWORD PTR __Pnode$[ebp]
	mov	eax, DWORD PTR [edx+8]
	movsx	ecx, BYTE PTR [eax+12]
	cmp	ecx, 1
	jne	SHORT $LN41@Extract

; 688  : 							{	// rotate red up from left sub-subtree
; 689  : 							_Pnode->_Left->_Color = this->_Black;

	mov	edx, DWORD PTR __Pnode$[ebp]
	mov	eax, DWORD PTR [edx]
	mov	BYTE PTR [eax+12], 1

; 690  : 							_Pnode->_Color = this->_Red;

	mov	ecx, DWORD PTR __Pnode$[ebp]
	mov	BYTE PTR [ecx+12], 0

; 691  : 							_Rrotate(_Pnode);

	mov	edx, DWORD PTR __Pnode$[ebp]
	push	edx
	mov	ecx, DWORD PTR _this$[ebp]
	call	?_Rrotate@?$_Tree_val@U?$_Tree_simple_types@U?$pair@$$CBHPAVBaseGameEntity@@@std@@@std@@@std@@QAEXPAU?$_Tree_node@U?$pair@$$CBHPAVBaseGameEntity@@@std@@PAX@2@@Z ; std::_Tree_val<std::_Tree_simple_types<std::pair<int const ,BaseGameEntity *> > >::_Rrotate

; 692  : 							_Pnode = _Fixnodeparent->_Right;

	mov	eax, DWORD PTR __Fixnodeparent$[ebp]
	mov	ecx, DWORD PTR [eax+8]
	mov	DWORD PTR __Pnode$[ebp], ecx
$LN41@Extract:

; 693  : 							}
; 694  : 
; 695  : 						_Pnode->_Color = _Fixnodeparent->_Color;

	mov	edx, DWORD PTR __Pnode$[ebp]
	mov	eax, DWORD PTR __Fixnodeparent$[ebp]
	mov	cl, BYTE PTR [eax+12]
	mov	BYTE PTR [edx+12], cl

; 696  : 						_Fixnodeparent->_Color = this->_Black;

	mov	edx, DWORD PTR __Fixnodeparent$[ebp]
	mov	BYTE PTR [edx+12], 1

; 697  : 						_Pnode->_Right->_Color = this->_Black;

	mov	eax, DWORD PTR __Pnode$[ebp]
	mov	ecx, DWORD PTR [eax+8]
	mov	BYTE PTR [ecx+12], 1

; 698  : 						_Lrotate(_Fixnodeparent);

	mov	edx, DWORD PTR __Fixnodeparent$[ebp]
	push	edx
	mov	ecx, DWORD PTR _this$[ebp]
	call	?_Lrotate@?$_Tree_val@U?$_Tree_simple_types@U?$pair@$$CBHPAVBaseGameEntity@@@std@@@std@@@std@@QAEXPAU?$_Tree_node@U?$pair@$$CBHPAVBaseGameEntity@@@std@@PAX@2@@Z ; std::_Tree_val<std::_Tree_simple_types<std::pair<int const ,BaseGameEntity *> > >::_Lrotate

; 699  : 						break;	// tree now recolored/rebalanced

	jmp	$LN9@Extract
$LN38@Extract:

; 700  : 						}
; 701  : 					}
; 702  : 				else

	jmp	$LN35@Extract
$LN34@Extract:

; 703  : 					{	// fixup right subtree
; 704  : 					_Pnode = _Fixnodeparent->_Left;

	mov	eax, DWORD PTR __Fixnodeparent$[ebp]
	mov	ecx, DWORD PTR [eax]
	mov	DWORD PTR __Pnode$[ebp], ecx

; 705  : 					if (_Pnode->_Color == this->_Red)

	mov	edx, DWORD PTR __Pnode$[ebp]
	movsx	eax, BYTE PTR [edx+12]
	test	eax, eax
	jne	SHORT $LN42@Extract

; 706  : 						{	// rotate red up from left subtree
; 707  : 						_Pnode->_Color = this->_Black;

	mov	ecx, DWORD PTR __Pnode$[ebp]
	mov	BYTE PTR [ecx+12], 1

; 708  : 						_Fixnodeparent->_Color = this->_Red;

	mov	edx, DWORD PTR __Fixnodeparent$[ebp]
	mov	BYTE PTR [edx+12], 0

; 709  : 						_Rrotate(_Fixnodeparent);

	mov	eax, DWORD PTR __Fixnodeparent$[ebp]
	push	eax
	mov	ecx, DWORD PTR _this$[ebp]
	call	?_Rrotate@?$_Tree_val@U?$_Tree_simple_types@U?$pair@$$CBHPAVBaseGameEntity@@@std@@@std@@@std@@QAEXPAU?$_Tree_node@U?$pair@$$CBHPAVBaseGameEntity@@@std@@PAX@2@@Z ; std::_Tree_val<std::_Tree_simple_types<std::pair<int const ,BaseGameEntity *> > >::_Rrotate

; 710  : 						_Pnode = _Fixnodeparent->_Left;

	mov	ecx, DWORD PTR __Fixnodeparent$[ebp]
	mov	edx, DWORD PTR [ecx]
	mov	DWORD PTR __Pnode$[ebp], edx
$LN42@Extract:

; 711  : 						}
; 712  : 
; 713  : 					if (_Pnode->_Isnil)

	mov	eax, DWORD PTR __Pnode$[ebp]
	movsx	ecx, BYTE PTR [eax+13]
	test	ecx, ecx
	je	SHORT $LN43@Extract

; 714  : 						_Fixnode = _Fixnodeparent;	// shouldn't happen

	mov	edx, DWORD PTR __Fixnodeparent$[ebp]
	mov	DWORD PTR __Fixnode$[ebp], edx

; 715  : 					else if (_Pnode->_Right->_Color == this->_Black

	jmp	$LN35@Extract
$LN43@Extract:

; 716  : 						&& _Pnode->_Left->_Color == this->_Black)

	mov	eax, DWORD PTR __Pnode$[ebp]
	mov	ecx, DWORD PTR [eax+8]
	movsx	edx, BYTE PTR [ecx+12]
	cmp	edx, 1
	jne	SHORT $LN45@Extract
	mov	eax, DWORD PTR __Pnode$[ebp]
	mov	ecx, DWORD PTR [eax]
	movsx	edx, BYTE PTR [ecx+12]
	cmp	edx, 1
	jne	SHORT $LN45@Extract

; 717  : 						{	// redden left subtree with black children
; 718  : 						_Pnode->_Color = this->_Red;

	mov	eax, DWORD PTR __Pnode$[ebp]
	mov	BYTE PTR [eax+12], 0

; 719  : 						_Fixnode = _Fixnodeparent;

	mov	ecx, DWORD PTR __Fixnodeparent$[ebp]
	mov	DWORD PTR __Fixnode$[ebp], ecx

; 720  : 						}
; 721  : 					else

	jmp	SHORT $LN35@Extract
$LN45@Extract:

; 722  : 						{	// must rearrange left subtree
; 723  : 						if (_Pnode->_Left->_Color == this->_Black)

	mov	edx, DWORD PTR __Pnode$[ebp]
	mov	eax, DWORD PTR [edx]
	movsx	ecx, BYTE PTR [eax+12]
	cmp	ecx, 1
	jne	SHORT $LN47@Extract

; 724  : 							{	// rotate red up from right sub-subtree
; 725  : 							_Pnode->_Right->_Color = this->_Black;

	mov	edx, DWORD PTR __Pnode$[ebp]
	mov	eax, DWORD PTR [edx+8]
	mov	BYTE PTR [eax+12], 1

; 726  : 							_Pnode->_Color = this->_Red;

	mov	ecx, DWORD PTR __Pnode$[ebp]
	mov	BYTE PTR [ecx+12], 0

; 727  : 							_Lrotate(_Pnode);

	mov	edx, DWORD PTR __Pnode$[ebp]
	push	edx
	mov	ecx, DWORD PTR _this$[ebp]
	call	?_Lrotate@?$_Tree_val@U?$_Tree_simple_types@U?$pair@$$CBHPAVBaseGameEntity@@@std@@@std@@@std@@QAEXPAU?$_Tree_node@U?$pair@$$CBHPAVBaseGameEntity@@@std@@PAX@2@@Z ; std::_Tree_val<std::_Tree_simple_types<std::pair<int const ,BaseGameEntity *> > >::_Lrotate

; 728  : 							_Pnode = _Fixnodeparent->_Left;

	mov	eax, DWORD PTR __Fixnodeparent$[ebp]
	mov	ecx, DWORD PTR [eax]
	mov	DWORD PTR __Pnode$[ebp], ecx
$LN47@Extract:

; 729  : 							}
; 730  : 
; 731  : 						_Pnode->_Color = _Fixnodeparent->_Color;

	mov	edx, DWORD PTR __Pnode$[ebp]
	mov	eax, DWORD PTR __Fixnodeparent$[ebp]
	mov	cl, BYTE PTR [eax+12]
	mov	BYTE PTR [edx+12], cl

; 732  : 						_Fixnodeparent->_Color = this->_Black;

	mov	edx, DWORD PTR __Fixnodeparent$[ebp]
	mov	BYTE PTR [edx+12], 1

; 733  : 						_Pnode->_Left->_Color = this->_Black;

	mov	eax, DWORD PTR __Pnode$[ebp]
	mov	ecx, DWORD PTR [eax]
	mov	BYTE PTR [ecx+12], 1

; 734  : 						_Rrotate(_Fixnodeparent);

	mov	edx, DWORD PTR __Fixnodeparent$[ebp]
	push	edx
	mov	ecx, DWORD PTR _this$[ebp]
	call	?_Rrotate@?$_Tree_val@U?$_Tree_simple_types@U?$pair@$$CBHPAVBaseGameEntity@@@std@@@std@@@std@@QAEXPAU?$_Tree_node@U?$pair@$$CBHPAVBaseGameEntity@@@std@@PAX@2@@Z ; std::_Tree_val<std::_Tree_simple_types<std::pair<int const ,BaseGameEntity *> > >::_Rrotate

; 735  : 						break;	// tree now recolored/rebalanced

	jmp	SHORT $LN9@Extract
$LN35@Extract:

; 736  : 						}
; 737  : 					}

	jmp	$LN8@Extract
$LN9@Extract:

; 738  : 
; 739  : 			_Fixnode->_Color = this->_Black;	// stopping node is black

	mov	eax, DWORD PTR __Fixnode$[ebp]
	mov	BYTE PTR [eax+12], 1
$LN33@Extract:

; 740  : 			}
; 741  : 
; 742  : 		if (0 < _Mysize)

	mov	ecx, DWORD PTR _this$[ebp]
	cmp	DWORD PTR [ecx+8], 0
	jbe	SHORT $LN48@Extract

; 743  : 			--_Mysize;

	mov	edx, DWORD PTR _this$[ebp]
	mov	eax, DWORD PTR [edx+8]
	sub	eax, 1
	mov	ecx, DWORD PTR _this$[ebp]
	mov	DWORD PTR [ecx+8], eax
$LN48@Extract:

; 744  : 
; 745  : 		return (_Erasednode);

	mov	edx, DWORD PTR __Erasednode$[ebp]
	mov	DWORD PTR $T2[ebp], edx
	mov	DWORD PTR __$EHRec$[ebp+8], -1
	lea	ecx, DWORD PTR __Where$[ebp]
	call	??1?$_Tree_const_iterator@V?$_Tree_val@U?$_Tree_simple_types@U?$pair@$$CBHPAVBaseGameEntity@@@std@@@std@@@std@@@std@@QAE@XZ
	mov	eax, DWORD PTR $T2[ebp]

; 746  : 		}

	mov	ecx, DWORD PTR __$EHRec$[ebp]
	mov	DWORD PTR fs:0, ecx
	pop	ecx
	add	esp, 44					; 0000002cH
	cmp	ebp, esp
	call	__RTC_CheckEsp
	mov	esp, ebp
	pop	ebp
	ret	12					; 0000000cH
_TEXT	ENDS
;	COMDAT text$x
text$x	SEGMENT
__unwindfunclet$?_Extract@?$_Tree_val@U?$_Tree_simple_types@U?$pair@$$CBHPAVBaseGameEntity@@@std@@@std@@@std@@QAEPAU?$_Tree_node@U?$pair@$$CBHPAVBaseGameEntity@@@std@@PAX@2@V?$_Tree_const_iterator@V?$_Tree_val@U?$_Tree_simple_types@U?$pair@$$CBHPAVBaseGameEntity@@@std@@@std@@@std@@@2@@Z$0:
	lea	ecx, DWORD PTR __Where$[ebp]
	jmp	??1?$_Tree_const_iterator@V?$_Tree_val@U?$_Tree_simple_types@U?$pair@$$CBHPAVBaseGameEntity@@@std@@@std@@@std@@@std@@QAE@XZ
__ehhandler$?_Extract@?$_Tree_val@U?$_Tree_simple_types@U?$pair@$$CBHPAVBaseGameEntity@@@std@@@std@@@std@@QAEPAU?$_Tree_node@U?$pair@$$CBHPAVBaseGameEntity@@@std@@PAX@2@V?$_Tree_const_iterator@V?$_Tree_val@U?$_Tree_simple_types@U?$pair@$$CBHPAVBaseGameEntity@@@std@@@std@@@std@@@2@@Z:
	mov	edx, DWORD PTR [esp+8]
	lea	eax, DWORD PTR [edx+12]
	mov	ecx, DWORD PTR [edx-36]
	xor	ecx, eax
	call	@__security_check_cookie@4
	mov	eax, OFFSET __ehfuncinfo$?_Extract@?$_Tree_val@U?$_Tree_simple_types@U?$pair@$$CBHPAVBaseGameEntity@@@std@@@std@@@std@@QAEPAU?$_Tree_node@U?$pair@$$CBHPAVBaseGameEntity@@@std@@PAX@2@V?$_Tree_const_iterator@V?$_Tree_val@U?$_Tree_simple_types@U?$pair@$$CBHPAVBaseGameEntity@@@std@@@std@@@std@@@2@@Z
	jmp	___CxxFrameHandler3
text$x	ENDS
?_Extract@?$_Tree_val@U?$_Tree_simple_types@U?$pair@$$CBHPAVBaseGameEntity@@@std@@@std@@@std@@QAEPAU?$_Tree_node@U?$pair@$$CBHPAVBaseGameEntity@@@std@@PAX@2@V?$_Tree_const_iterator@V?$_Tree_val@U?$_Tree_simple_types@U?$pair@$$CBHPAVBaseGameEntity@@@std@@@std@@@std@@@2@@Z ENDP ; std::_Tree_val<std::_Tree_simple_types<std::pair<int const ,BaseGameEntity *> > >::_Extract
; Function compile flags: /Odtp /RTCsu
; File c:\program files (x86)\microsoft visual studio\2017\community\vc\tools\msvc\14.15.26726\include\xtree
;	COMDAT ?_Rrotate@?$_Tree_val@U?$_Tree_simple_types@U?$pair@$$CBHPAVBaseGameEntity@@@std@@@std@@@std@@QAEXPAU?$_Tree_node@U?$pair@$$CBHPAVBaseGameEntity@@@std@@PAX@2@@Z
_TEXT	SEGMENT
__Pnode$ = -8						; size = 4
_this$ = -4						; size = 4
__Wherenode$ = 8					; size = 4
?_Rrotate@?$_Tree_val@U?$_Tree_simple_types@U?$pair@$$CBHPAVBaseGameEntity@@@std@@@std@@@std@@QAEXPAU?$_Tree_node@U?$pair@$$CBHPAVBaseGameEntity@@@std@@PAX@2@@Z PROC ; std::_Tree_val<std::_Tree_simple_types<std::pair<int const ,BaseGameEntity *> > >::_Rrotate, COMDAT
; _this$ = ecx

; 536  : 		{	// promote left node to root of subtree

	push	ebp
	mov	ebp, esp
	sub	esp, 8
	mov	DWORD PTR [ebp-8], -858993460		; ccccccccH
	mov	DWORD PTR [ebp-4], -858993460		; ccccccccH
	mov	DWORD PTR _this$[ebp], ecx

; 537  : 		_Nodeptr _Pnode = _Wherenode->_Left;

	mov	eax, DWORD PTR __Wherenode$[ebp]
	mov	ecx, DWORD PTR [eax]
	mov	DWORD PTR __Pnode$[ebp], ecx

; 538  : 		_Wherenode->_Left = _Pnode->_Right;

	mov	edx, DWORD PTR __Wherenode$[ebp]
	mov	eax, DWORD PTR __Pnode$[ebp]
	mov	ecx, DWORD PTR [eax+8]
	mov	DWORD PTR [edx], ecx

; 539  : 
; 540  : 		if (!_Pnode->_Right->_Isnil)

	mov	edx, DWORD PTR __Pnode$[ebp]
	mov	eax, DWORD PTR [edx+8]
	movsx	ecx, BYTE PTR [eax+13]
	test	ecx, ecx
	jne	SHORT $LN2@Rrotate

; 541  : 			_Pnode->_Right->_Parent = _Wherenode;

	mov	edx, DWORD PTR __Pnode$[ebp]
	mov	eax, DWORD PTR [edx+8]
	mov	ecx, DWORD PTR __Wherenode$[ebp]
	mov	DWORD PTR [eax+4], ecx
$LN2@Rrotate:

; 542  : 		_Pnode->_Parent = _Wherenode->_Parent;

	mov	edx, DWORD PTR __Pnode$[ebp]
	mov	eax, DWORD PTR __Wherenode$[ebp]
	mov	ecx, DWORD PTR [eax+4]
	mov	DWORD PTR [edx+4], ecx

; 543  : 
; 544  : 		if (_Wherenode == _Myhead->_Parent)

	mov	edx, DWORD PTR _this$[ebp]
	mov	eax, DWORD PTR [edx+4]
	mov	ecx, DWORD PTR __Wherenode$[ebp]
	cmp	ecx, DWORD PTR [eax+4]
	jne	SHORT $LN3@Rrotate

; 545  : 			{
; 546  : 			_Myhead->_Parent = _Pnode;

	mov	edx, DWORD PTR _this$[ebp]
	mov	eax, DWORD PTR [edx+4]
	mov	ecx, DWORD PTR __Pnode$[ebp]
	mov	DWORD PTR [eax+4], ecx
	jmp	SHORT $LN4@Rrotate
$LN3@Rrotate:

; 547  : 			}
; 548  : 		else if (_Wherenode == _Wherenode->_Parent->_Right)

	mov	edx, DWORD PTR __Wherenode$[ebp]
	mov	eax, DWORD PTR [edx+4]
	mov	ecx, DWORD PTR __Wherenode$[ebp]
	cmp	ecx, DWORD PTR [eax+8]
	jne	SHORT $LN5@Rrotate

; 549  : 			{
; 550  : 			_Wherenode->_Parent->_Right = _Pnode;

	mov	edx, DWORD PTR __Wherenode$[ebp]
	mov	eax, DWORD PTR [edx+4]
	mov	ecx, DWORD PTR __Pnode$[ebp]
	mov	DWORD PTR [eax+8], ecx

; 551  : 			}
; 552  : 		else

	jmp	SHORT $LN4@Rrotate
$LN5@Rrotate:

; 553  : 			{
; 554  : 			_Wherenode->_Parent->_Left = _Pnode;

	mov	edx, DWORD PTR __Wherenode$[ebp]
	mov	eax, DWORD PTR [edx+4]
	mov	ecx, DWORD PTR __Pnode$[ebp]
	mov	DWORD PTR [eax], ecx
$LN4@Rrotate:

; 555  : 			}
; 556  : 
; 557  : 		_Pnode->_Right = _Wherenode;

	mov	edx, DWORD PTR __Pnode$[ebp]
	mov	eax, DWORD PTR __Wherenode$[ebp]
	mov	DWORD PTR [edx+8], eax

; 558  : 		_Wherenode->_Parent = _Pnode;

	mov	ecx, DWORD PTR __Wherenode$[ebp]
	mov	edx, DWORD PTR __Pnode$[ebp]
	mov	DWORD PTR [ecx+4], edx

; 559  : 		}

	mov	esp, ebp
	pop	ebp
	ret	4
?_Rrotate@?$_Tree_val@U?$_Tree_simple_types@U?$pair@$$CBHPAVBaseGameEntity@@@std@@@std@@@std@@QAEXPAU?$_Tree_node@U?$pair@$$CBHPAVBaseGameEntity@@@std@@PAX@2@@Z ENDP ; std::_Tree_val<std::_Tree_simple_types<std::pair<int const ,BaseGameEntity *> > >::_Rrotate
_TEXT	ENDS
; Function compile flags: /Odtp /RTCsu
; File c:\program files (x86)\microsoft visual studio\2017\community\vc\tools\msvc\14.15.26726\include\xtree
;	COMDAT ?_Lrotate@?$_Tree_val@U?$_Tree_simple_types@U?$pair@$$CBHPAVBaseGameEntity@@@std@@@std@@@std@@QAEXPAU?$_Tree_node@U?$pair@$$CBHPAVBaseGameEntity@@@std@@PAX@2@@Z
_TEXT	SEGMENT
__Pnode$ = -8						; size = 4
_this$ = -4						; size = 4
__Wherenode$ = 8					; size = 4
?_Lrotate@?$_Tree_val@U?$_Tree_simple_types@U?$pair@$$CBHPAVBaseGameEntity@@@std@@@std@@@std@@QAEXPAU?$_Tree_node@U?$pair@$$CBHPAVBaseGameEntity@@@std@@PAX@2@@Z PROC ; std::_Tree_val<std::_Tree_simple_types<std::pair<int const ,BaseGameEntity *> > >::_Lrotate, COMDAT
; _this$ = ecx

; 507  : 		{	// promote right node to root of subtree

	push	ebp
	mov	ebp, esp
	sub	esp, 8
	mov	DWORD PTR [ebp-8], -858993460		; ccccccccH
	mov	DWORD PTR [ebp-4], -858993460		; ccccccccH
	mov	DWORD PTR _this$[ebp], ecx

; 508  : 		_Nodeptr _Pnode = _Wherenode->_Right;

	mov	eax, DWORD PTR __Wherenode$[ebp]
	mov	ecx, DWORD PTR [eax+8]
	mov	DWORD PTR __Pnode$[ebp], ecx

; 509  : 		_Wherenode->_Right = _Pnode->_Left;

	mov	edx, DWORD PTR __Wherenode$[ebp]
	mov	eax, DWORD PTR __Pnode$[ebp]
	mov	ecx, DWORD PTR [eax]
	mov	DWORD PTR [edx+8], ecx

; 510  : 
; 511  : 		if (!_Pnode->_Left->_Isnil)

	mov	edx, DWORD PTR __Pnode$[ebp]
	mov	eax, DWORD PTR [edx]
	movsx	ecx, BYTE PTR [eax+13]
	test	ecx, ecx
	jne	SHORT $LN2@Lrotate

; 512  : 			{
; 513  : 			_Pnode->_Left->_Parent = _Wherenode;

	mov	edx, DWORD PTR __Pnode$[ebp]
	mov	eax, DWORD PTR [edx]
	mov	ecx, DWORD PTR __Wherenode$[ebp]
	mov	DWORD PTR [eax+4], ecx
$LN2@Lrotate:

; 514  : 			}
; 515  : 
; 516  : 		_Pnode->_Parent = _Wherenode->_Parent;

	mov	edx, DWORD PTR __Pnode$[ebp]
	mov	eax, DWORD PTR __Wherenode$[ebp]
	mov	ecx, DWORD PTR [eax+4]
	mov	DWORD PTR [edx+4], ecx

; 517  : 
; 518  : 		if (_Wherenode == _Myhead->_Parent)

	mov	edx, DWORD PTR _this$[ebp]
	mov	eax, DWORD PTR [edx+4]
	mov	ecx, DWORD PTR __Wherenode$[ebp]
	cmp	ecx, DWORD PTR [eax+4]
	jne	SHORT $LN3@Lrotate

; 519  : 			{
; 520  : 			_Myhead->_Parent = _Pnode;

	mov	edx, DWORD PTR _this$[ebp]
	mov	eax, DWORD PTR [edx+4]
	mov	ecx, DWORD PTR __Pnode$[ebp]
	mov	DWORD PTR [eax+4], ecx
	jmp	SHORT $LN4@Lrotate
$LN3@Lrotate:

; 521  : 			}
; 522  : 		else if (_Wherenode == _Wherenode->_Parent->_Left)

	mov	edx, DWORD PTR __Wherenode$[ebp]
	mov	eax, DWORD PTR [edx+4]
	mov	ecx, DWORD PTR __Wherenode$[ebp]
	cmp	ecx, DWORD PTR [eax]
	jne	SHORT $LN5@Lrotate

; 523  : 			{
; 524  : 			_Wherenode->_Parent->_Left = _Pnode;

	mov	edx, DWORD PTR __Wherenode$[ebp]
	mov	eax, DWORD PTR [edx+4]
	mov	ecx, DWORD PTR __Pnode$[ebp]
	mov	DWORD PTR [eax], ecx

; 525  : 			}
; 526  : 		else

	jmp	SHORT $LN4@Lrotate
$LN5@Lrotate:

; 527  : 			{
; 528  : 			_Wherenode->_Parent->_Right = _Pnode;

	mov	edx, DWORD PTR __Wherenode$[ebp]
	mov	eax, DWORD PTR [edx+4]
	mov	ecx, DWORD PTR __Pnode$[ebp]
	mov	DWORD PTR [eax+8], ecx
$LN4@Lrotate:

; 529  : 			}
; 530  : 
; 531  : 		_Pnode->_Left = _Wherenode;

	mov	edx, DWORD PTR __Pnode$[ebp]
	mov	eax, DWORD PTR __Wherenode$[ebp]
	mov	DWORD PTR [edx], eax

; 532  : 		_Wherenode->_Parent = _Pnode;

	mov	ecx, DWORD PTR __Wherenode$[ebp]
	mov	edx, DWORD PTR __Pnode$[ebp]
	mov	DWORD PTR [ecx+4], edx

; 533  : 		}

	mov	esp, ebp
	pop	ebp
	ret	4
?_Lrotate@?$_Tree_val@U?$_Tree_simple_types@U?$pair@$$CBHPAVBaseGameEntity@@@std@@@std@@@std@@QAEXPAU?$_Tree_node@U?$pair@$$CBHPAVBaseGameEntity@@@std@@PAX@2@@Z ENDP ; std::_Tree_val<std::_Tree_simple_types<std::pair<int const ,BaseGameEntity *> > >::_Lrotate
_TEXT	ENDS
; Function compile flags: /Odtp /RTCsu
; File c:\program files (x86)\microsoft visual studio\2017\community\vc\tools\msvc\14.15.26726\include\xtree
;	COMDAT ?_Rmost@?$_Tree_val@U?$_Tree_simple_types@U?$pair@$$CBHPAVBaseGameEntity@@@std@@@std@@@std@@QBEAAPAU?$_Tree_node@U?$pair@$$CBHPAVBaseGameEntity@@@std@@PAX@2@XZ
_TEXT	SEGMENT
_this$ = -4						; size = 4
?_Rmost@?$_Tree_val@U?$_Tree_simple_types@U?$pair@$$CBHPAVBaseGameEntity@@@std@@@std@@@std@@QBEAAPAU?$_Tree_node@U?$pair@$$CBHPAVBaseGameEntity@@@std@@PAX@2@XZ PROC ; std::_Tree_val<std::_Tree_simple_types<std::pair<int const ,BaseGameEntity *> > >::_Rmost, COMDAT
; _this$ = ecx

; 502  : 		{	// return rightmost node in nonmutable tree

	push	ebp
	mov	ebp, esp
	push	ecx
	mov	DWORD PTR [ebp-4], -858993460		; ccccccccH
	mov	DWORD PTR _this$[ebp], ecx

; 503  : 		return (_Myhead->_Right);

	mov	eax, DWORD PTR _this$[ebp]
	mov	eax, DWORD PTR [eax+4]
	add	eax, 8

; 504  : 		}

	mov	esp, ebp
	pop	ebp
	ret	0
?_Rmost@?$_Tree_val@U?$_Tree_simple_types@U?$pair@$$CBHPAVBaseGameEntity@@@std@@@std@@@std@@QBEAAPAU?$_Tree_node@U?$pair@$$CBHPAVBaseGameEntity@@@std@@PAX@2@XZ ENDP ; std::_Tree_val<std::_Tree_simple_types<std::pair<int const ,BaseGameEntity *> > >::_Rmost
_TEXT	ENDS
; Function compile flags: /Odtp /RTCsu
; File c:\program files (x86)\microsoft visual studio\2017\community\vc\tools\msvc\14.15.26726\include\xtree
;	COMDAT ?_Lmost@?$_Tree_val@U?$_Tree_simple_types@U?$pair@$$CBHPAVBaseGameEntity@@@std@@@std@@@std@@QBEAAPAU?$_Tree_node@U?$pair@$$CBHPAVBaseGameEntity@@@std@@PAX@2@XZ
_TEXT	SEGMENT
_this$ = -4						; size = 4
?_Lmost@?$_Tree_val@U?$_Tree_simple_types@U?$pair@$$CBHPAVBaseGameEntity@@@std@@@std@@@std@@QBEAAPAU?$_Tree_node@U?$pair@$$CBHPAVBaseGameEntity@@@std@@PAX@2@XZ PROC ; std::_Tree_val<std::_Tree_simple_types<std::pair<int const ,BaseGameEntity *> > >::_Lmost, COMDAT
; _this$ = ecx

; 497  : 		{	// return leftmost node in nonmutable tree

	push	ebp
	mov	ebp, esp
	push	ecx
	mov	DWORD PTR [ebp-4], -858993460		; ccccccccH
	mov	DWORD PTR _this$[ebp], ecx

; 498  : 		return (_Myhead->_Left);

	mov	eax, DWORD PTR _this$[ebp]
	mov	eax, DWORD PTR [eax+4]

; 499  : 		}

	mov	esp, ebp
	pop	ebp
	ret	0
?_Lmost@?$_Tree_val@U?$_Tree_simple_types@U?$pair@$$CBHPAVBaseGameEntity@@@std@@@std@@@std@@QBEAAPAU?$_Tree_node@U?$pair@$$CBHPAVBaseGameEntity@@@std@@PAX@2@XZ ENDP ; std::_Tree_val<std::_Tree_simple_types<std::pair<int const ,BaseGameEntity *> > >::_Lmost
_TEXT	ENDS
; Function compile flags: /Odtp /RTCsu
; File c:\program files (x86)\microsoft visual studio\2017\community\vc\tools\msvc\14.15.26726\include\xtree
;	COMDAT ?_Root@?$_Tree_val@U?$_Tree_simple_types@U?$pair@$$CBHPAVBaseGameEntity@@@std@@@std@@@std@@QBEAAPAU?$_Tree_node@U?$pair@$$CBHPAVBaseGameEntity@@@std@@PAX@2@XZ
_TEXT	SEGMENT
_this$ = -4						; size = 4
?_Root@?$_Tree_val@U?$_Tree_simple_types@U?$pair@$$CBHPAVBaseGameEntity@@@std@@@std@@@std@@QBEAAPAU?$_Tree_node@U?$pair@$$CBHPAVBaseGameEntity@@@std@@PAX@2@XZ PROC ; std::_Tree_val<std::_Tree_simple_types<std::pair<int const ,BaseGameEntity *> > >::_Root, COMDAT
; _this$ = ecx

; 492  : 		{	// return root of nonmutable tree

	push	ebp
	mov	ebp, esp
	push	ecx
	mov	DWORD PTR [ebp-4], -858993460		; ccccccccH
	mov	DWORD PTR _this$[ebp], ecx

; 493  : 		return (_Myhead->_Parent);

	mov	eax, DWORD PTR _this$[ebp]
	mov	eax, DWORD PTR [eax+4]
	add	eax, 4

; 494  : 		}

	mov	esp, ebp
	pop	ebp
	ret	0
?_Root@?$_Tree_val@U?$_Tree_simple_types@U?$pair@$$CBHPAVBaseGameEntity@@@std@@@std@@@std@@QBEAAPAU?$_Tree_node@U?$pair@$$CBHPAVBaseGameEntity@@@std@@PAX@2@XZ ENDP ; std::_Tree_val<std::_Tree_simple_types<std::pair<int const ,BaseGameEntity *> > >::_Root
_TEXT	ENDS
; Function compile flags: /Odtp /RTCsu
; File c:\program files (x86)\microsoft visual studio\2017\community\vc\tools\msvc\14.15.26726\include\xtree
;	COMDAT ?_Min@?$_Tree_val@U?$_Tree_simple_types@U?$pair@$$CBHPAVBaseGameEntity@@@std@@@std@@@std@@SAPAU?$_Tree_node@U?$pair@$$CBHPAVBaseGameEntity@@@std@@PAX@2@PAU32@@Z
_TEXT	SEGMENT
__Pnode$ = 8						; size = 4
?_Min@?$_Tree_val@U?$_Tree_simple_types@U?$pair@$$CBHPAVBaseGameEntity@@@std@@@std@@@std@@SAPAU?$_Tree_node@U?$pair@$$CBHPAVBaseGameEntity@@@std@@PAX@2@PAU32@@Z PROC ; std::_Tree_val<std::_Tree_simple_types<std::pair<int const ,BaseGameEntity *> > >::_Min, COMDAT

; 485  : 		{	// return leftmost node in subtree at _Pnode

	push	ebp
	mov	ebp, esp
$LN2@Min:

; 486  : 		while (!_Pnode->_Left->_Isnil)

	mov	eax, DWORD PTR __Pnode$[ebp]
	mov	ecx, DWORD PTR [eax]
	movsx	edx, BYTE PTR [ecx+13]
	test	edx, edx
	jne	SHORT $LN3@Min

; 487  : 			_Pnode = _Pnode->_Left;

	mov	eax, DWORD PTR __Pnode$[ebp]
	mov	ecx, DWORD PTR [eax]
	mov	DWORD PTR __Pnode$[ebp], ecx
	jmp	SHORT $LN2@Min
$LN3@Min:

; 488  : 		return (_Pnode);

	mov	eax, DWORD PTR __Pnode$[ebp]

; 489  : 		}

	pop	ebp
	ret	0
?_Min@?$_Tree_val@U?$_Tree_simple_types@U?$pair@$$CBHPAVBaseGameEntity@@@std@@@std@@@std@@SAPAU?$_Tree_node@U?$pair@$$CBHPAVBaseGameEntity@@@std@@PAX@2@PAU32@@Z ENDP ; std::_Tree_val<std::_Tree_simple_types<std::pair<int const ,BaseGameEntity *> > >::_Min
_TEXT	ENDS
; Function compile flags: /Odtp /RTCsu
; File c:\program files (x86)\microsoft visual studio\2017\community\vc\tools\msvc\14.15.26726\include\xtree
;	COMDAT ?_Max@?$_Tree_val@U?$_Tree_simple_types@U?$pair@$$CBHPAVBaseGameEntity@@@std@@@std@@@std@@SAPAU?$_Tree_node@U?$pair@$$CBHPAVBaseGameEntity@@@std@@PAX@2@PAU32@@Z
_TEXT	SEGMENT
__Pnode$ = 8						; size = 4
?_Max@?$_Tree_val@U?$_Tree_simple_types@U?$pair@$$CBHPAVBaseGameEntity@@@std@@@std@@@std@@SAPAU?$_Tree_node@U?$pair@$$CBHPAVBaseGameEntity@@@std@@PAX@2@PAU32@@Z PROC ; std::_Tree_val<std::_Tree_simple_types<std::pair<int const ,BaseGameEntity *> > >::_Max, COMDAT

; 478  : 		{	// return rightmost node in subtree at _Pnode

	push	ebp
	mov	ebp, esp
$LN2@Max:

; 479  : 		while (!_Pnode->_Right->_Isnil)

	mov	eax, DWORD PTR __Pnode$[ebp]
	mov	ecx, DWORD PTR [eax+8]
	movsx	edx, BYTE PTR [ecx+13]
	test	edx, edx
	jne	SHORT $LN3@Max

; 480  : 			_Pnode = _Pnode->_Right;

	mov	eax, DWORD PTR __Pnode$[ebp]
	mov	ecx, DWORD PTR [eax+8]
	mov	DWORD PTR __Pnode$[ebp], ecx
	jmp	SHORT $LN2@Max
$LN3@Max:

; 481  : 		return (_Pnode);

	mov	eax, DWORD PTR __Pnode$[ebp]

; 482  : 		}

	pop	ebp
	ret	0
?_Max@?$_Tree_val@U?$_Tree_simple_types@U?$pair@$$CBHPAVBaseGameEntity@@@std@@@std@@@std@@SAPAU?$_Tree_node@U?$pair@$$CBHPAVBaseGameEntity@@@std@@PAX@2@PAU32@@Z ENDP ; std::_Tree_val<std::_Tree_simple_types<std::pair<int const ,BaseGameEntity *> > >::_Max
_TEXT	ENDS
; Function compile flags: /Odtp /RTCsu
; File c:\program files (x86)\microsoft visual studio\2017\community\vc\tools\msvc\14.15.26726\include\xtree
;	COMDAT ??0?$_Tree_val@U?$_Tree_simple_types@U?$pair@$$CBHPAVBaseGameEntity@@@std@@@std@@@std@@QAE@XZ
_TEXT	SEGMENT
_this$ = -4						; size = 4
??0?$_Tree_val@U?$_Tree_simple_types@U?$pair@$$CBHPAVBaseGameEntity@@@std@@@std@@@std@@QAE@XZ PROC ; std::_Tree_val<std::_Tree_simple_types<std::pair<int const ,BaseGameEntity *> > >::_Tree_val<std::_Tree_simple_types<std::pair<int const ,BaseGameEntity *> > >, COMDAT
; _this$ = ecx

; 470  : 		{	// initialize data

	push	ebp
	mov	ebp, esp
	push	ecx
	mov	DWORD PTR [ebp-4], -858993460		; ccccccccH
	mov	DWORD PTR _this$[ebp], ecx
	mov	ecx, DWORD PTR _this$[ebp]
	call	??0_Container_base12@std@@QAE@XZ	; std::_Container_base12::_Container_base12

; 468  : 		: _Myhead(),

	mov	eax, DWORD PTR _this$[ebp]
	mov	DWORD PTR [eax+4], 0

; 469  : 		_Mysize(0)

	mov	ecx, DWORD PTR _this$[ebp]
	mov	DWORD PTR [ecx+8], 0

; 471  : 		}

	mov	eax, DWORD PTR _this$[ebp]
	add	esp, 4
	cmp	ebp, esp
	call	__RTC_CheckEsp
	mov	esp, ebp
	pop	ebp
	ret	0
??0?$_Tree_val@U?$_Tree_simple_types@U?$pair@$$CBHPAVBaseGameEntity@@@std@@@std@@@std@@QAE@XZ ENDP ; std::_Tree_val<std::_Tree_simple_types<std::pair<int const ,BaseGameEntity *> > >::_Tree_val<std::_Tree_simple_types<std::pair<int const ,BaseGameEntity *> > >
_TEXT	ENDS
; Function compile flags: /Odtp /RTCsu
; File c:\program files (x86)\microsoft visual studio\2017\community\vc\tools\msvc\14.15.26726\include\xstddef
;	COMDAT ??R?$less@H@std@@QBE_NABH0@Z
_TEXT	SEGMENT
tv65 = -8						; size = 4
_this$ = -4						; size = 4
__Left$ = 8						; size = 4
__Right$ = 12						; size = 4
??R?$less@H@std@@QBE_NABH0@Z PROC			; std::less<int>::operator(), COMDAT
; _this$ = ecx

; 140  : 		{	// apply operator< to operands

	push	ebp
	mov	ebp, esp
	sub	esp, 8
	mov	DWORD PTR [ebp-8], -858993460		; ccccccccH
	mov	DWORD PTR [ebp-4], -858993460		; ccccccccH
	mov	DWORD PTR _this$[ebp], ecx

; 141  : 		return (_Left < _Right);

	mov	eax, DWORD PTR __Left$[ebp]
	mov	ecx, DWORD PTR __Right$[ebp]
	mov	edx, DWORD PTR [eax]
	cmp	edx, DWORD PTR [ecx]
	jge	SHORT $LN3@operator
	mov	DWORD PTR tv65[ebp], 1
	jmp	SHORT $LN4@operator
$LN3@operator:
	mov	DWORD PTR tv65[ebp], 0
$LN4@operator:
	mov	al, BYTE PTR tv65[ebp]

; 142  : 		}

	mov	esp, ebp
	pop	ebp
	ret	8
??R?$less@H@std@@QBE_NABH0@Z ENDP			; std::less<int>::operator()
_TEXT	ENDS
; Function compile flags: /Odtp /RTCsu
; File c:\program files (x86)\microsoft visual studio\2017\community\vc\tools\msvc\14.15.26726\include\xtree
;	COMDAT ?_Get_data@?$_Tree_comp_alloc@V?$_Tmap_traits@HPAVBaseGameEntity@@U?$less@H@std@@V?$allocator@U?$pair@$$CBHPAVBaseGameEntity@@@std@@@3@$0A@@std@@@std@@QBEABV?$_Tree_val@U?$_Tree_simple_types@U?$pair@$$CBHPAVBaseGameEntity@@@std@@@std@@@2@XZ
_TEXT	SEGMENT
_this$ = -4						; size = 4
?_Get_data@?$_Tree_comp_alloc@V?$_Tmap_traits@HPAVBaseGameEntity@@U?$less@H@std@@V?$allocator@U?$pair@$$CBHPAVBaseGameEntity@@@std@@@3@$0A@@std@@@std@@QBEABV?$_Tree_val@U?$_Tree_simple_types@U?$pair@$$CBHPAVBaseGameEntity@@@std@@@std@@@2@XZ PROC ; std::_Tree_comp_alloc<std::_Tmap_traits<int,BaseGameEntity *,std::less<int>,std::allocator<std::pair<int const ,BaseGameEntity *> >,0> >::_Get_data, COMDAT
; _this$ = ecx

; 1019 : 		{	// return const reference to _Tree_val

	push	ebp
	mov	ebp, esp
	push	ecx
	mov	DWORD PTR [ebp-4], -858993460		; ccccccccH
	mov	DWORD PTR _this$[ebp], ecx

; 1020 : 		return (_Mypair._Get_second()._Get_second());

	mov	ecx, DWORD PTR _this$[ebp]
	call	?_Get_second@?$_Compressed_pair@U?$less@H@std@@V?$_Compressed_pair@V?$allocator@U?$_Tree_node@U?$pair@$$CBHPAVBaseGameEntity@@@std@@PAX@std@@@std@@V?$_Tree_val@U?$_Tree_simple_types@U?$pair@$$CBHPAVBaseGameEntity@@@std@@@std@@@2@$00@2@$00@std@@QBEABV?$_Compressed_pair@V?$allocator@U?$_Tree_node@U?$pair@$$CBHPAVBaseGameEntity@@@std@@PAX@std@@@std@@V?$_Tree_val@U?$_Tree_simple_types@U?$pair@$$CBHPAVBaseGameEntity@@@std@@@std@@@2@$00@2@XZ ; std::_Compressed_pair<std::less<int>,std::_Compressed_pair<std::allocator<std::_Tree_node<std::pair<int const ,BaseGameEntity *>,void *> >,std::_Tree_val<std::_Tree_simple_types<std::pair<int const ,BaseGameEntity *> > >,1>,1>::_Get_second
	mov	ecx, eax
	call	?_Get_second@?$_Compressed_pair@V?$allocator@U?$_Tree_node@U?$pair@$$CBHPAVBaseGameEntity@@@std@@PAX@std@@@std@@V?$_Tree_val@U?$_Tree_simple_types@U?$pair@$$CBHPAVBaseGameEntity@@@std@@@std@@@2@$00@std@@QBEABV?$_Tree_val@U?$_Tree_simple_types@U?$pair@$$CBHPAVBaseGameEntity@@@std@@@std@@@2@XZ ; std::_Compressed_pair<std::allocator<std::_Tree_node<std::pair<int const ,BaseGameEntity *>,void *> >,std::_Tree_val<std::_Tree_simple_types<std::pair<int const ,BaseGameEntity *> > >,1>::_Get_second

; 1021 : 		}

	add	esp, 4
	cmp	ebp, esp
	call	__RTC_CheckEsp
	mov	esp, ebp
	pop	ebp
	ret	0
?_Get_data@?$_Tree_comp_alloc@V?$_Tmap_traits@HPAVBaseGameEntity@@U?$less@H@std@@V?$allocator@U?$pair@$$CBHPAVBaseGameEntity@@@std@@@3@$0A@@std@@@std@@QBEABV?$_Tree_val@U?$_Tree_simple_types@U?$pair@$$CBHPAVBaseGameEntity@@@std@@@std@@@2@XZ ENDP ; std::_Tree_comp_alloc<std::_Tmap_traits<int,BaseGameEntity *,std::less<int>,std::allocator<std::pair<int const ,BaseGameEntity *> >,0> >::_Get_data
_TEXT	ENDS
; Function compile flags: /Odtp /RTCsu
; File c:\program files (x86)\microsoft visual studio\2017\community\vc\tools\msvc\14.15.26726\include\xtree
;	COMDAT ?_Get_data@?$_Tree_comp_alloc@V?$_Tmap_traits@HPAVBaseGameEntity@@U?$less@H@std@@V?$allocator@U?$pair@$$CBHPAVBaseGameEntity@@@std@@@3@$0A@@std@@@std@@QAEAAV?$_Tree_val@U?$_Tree_simple_types@U?$pair@$$CBHPAVBaseGameEntity@@@std@@@std@@@2@XZ
_TEXT	SEGMENT
_this$ = -4						; size = 4
?_Get_data@?$_Tree_comp_alloc@V?$_Tmap_traits@HPAVBaseGameEntity@@U?$less@H@std@@V?$allocator@U?$pair@$$CBHPAVBaseGameEntity@@@std@@@3@$0A@@std@@@std@@QAEAAV?$_Tree_val@U?$_Tree_simple_types@U?$pair@$$CBHPAVBaseGameEntity@@@std@@@std@@@2@XZ PROC ; std::_Tree_comp_alloc<std::_Tmap_traits<int,BaseGameEntity *,std::less<int>,std::allocator<std::pair<int const ,BaseGameEntity *> >,0> >::_Get_data, COMDAT
; _this$ = ecx

; 1014 : 		{	// return reference to _Tree_val

	push	ebp
	mov	ebp, esp
	push	ecx
	mov	DWORD PTR [ebp-4], -858993460		; ccccccccH
	mov	DWORD PTR _this$[ebp], ecx

; 1015 : 		return (_Mypair._Get_second()._Get_second());

	mov	ecx, DWORD PTR _this$[ebp]
	call	?_Get_second@?$_Compressed_pair@U?$less@H@std@@V?$_Compressed_pair@V?$allocator@U?$_Tree_node@U?$pair@$$CBHPAVBaseGameEntity@@@std@@PAX@std@@@std@@V?$_Tree_val@U?$_Tree_simple_types@U?$pair@$$CBHPAVBaseGameEntity@@@std@@@std@@@2@$00@2@$00@std@@QAEAAV?$_Compressed_pair@V?$allocator@U?$_Tree_node@U?$pair@$$CBHPAVBaseGameEntity@@@std@@PAX@std@@@std@@V?$_Tree_val@U?$_Tree_simple_types@U?$pair@$$CBHPAVBaseGameEntity@@@std@@@std@@@2@$00@2@XZ ; std::_Compressed_pair<std::less<int>,std::_Compressed_pair<std::allocator<std::_Tree_node<std::pair<int const ,BaseGameEntity *>,void *> >,std::_Tree_val<std::_Tree_simple_types<std::pair<int const ,BaseGameEntity *> > >,1>,1>::_Get_second
	mov	ecx, eax
	call	?_Get_second@?$_Compressed_pair@V?$allocator@U?$_Tree_node@U?$pair@$$CBHPAVBaseGameEntity@@@std@@PAX@std@@@std@@V?$_Tree_val@U?$_Tree_simple_types@U?$pair@$$CBHPAVBaseGameEntity@@@std@@@std@@@2@$00@std@@QAEAAV?$_Tree_val@U?$_Tree_simple_types@U?$pair@$$CBHPAVBaseGameEntity@@@std@@@std@@@2@XZ ; std::_Compressed_pair<std::allocator<std::_Tree_node<std::pair<int const ,BaseGameEntity *>,void *> >,std::_Tree_val<std::_Tree_simple_types<std::pair<int const ,BaseGameEntity *> > >,1>::_Get_second

; 1016 : 		}

	add	esp, 4
	cmp	ebp, esp
	call	__RTC_CheckEsp
	mov	esp, ebp
	pop	ebp
	ret	0
?_Get_data@?$_Tree_comp_alloc@V?$_Tmap_traits@HPAVBaseGameEntity@@U?$less@H@std@@V?$allocator@U?$pair@$$CBHPAVBaseGameEntity@@@std@@@3@$0A@@std@@@std@@QAEAAV?$_Tree_val@U?$_Tree_simple_types@U?$pair@$$CBHPAVBaseGameEntity@@@std@@@std@@@2@XZ ENDP ; std::_Tree_comp_alloc<std::_Tmap_traits<int,BaseGameEntity *,std::less<int>,std::allocator<std::pair<int const ,BaseGameEntity *> >,0> >::_Get_data
_TEXT	ENDS
; Function compile flags: /Odtp /RTCsu
; File c:\program files (x86)\microsoft visual studio\2017\community\vc\tools\msvc\14.15.26726\include\xtree
;	COMDAT ?_Getal@?$_Tree_comp_alloc@V?$_Tmap_traits@HPAVBaseGameEntity@@U?$less@H@std@@V?$allocator@U?$pair@$$CBHPAVBaseGameEntity@@@std@@@3@$0A@@std@@@std@@QBEABV?$allocator@U?$_Tree_node@U?$pair@$$CBHPAVBaseGameEntity@@@std@@PAX@std@@@2@XZ
_TEXT	SEGMENT
_this$ = -4						; size = 4
?_Getal@?$_Tree_comp_alloc@V?$_Tmap_traits@HPAVBaseGameEntity@@U?$less@H@std@@V?$allocator@U?$pair@$$CBHPAVBaseGameEntity@@@std@@@3@$0A@@std@@@std@@QBEABV?$allocator@U?$_Tree_node@U?$pair@$$CBHPAVBaseGameEntity@@@std@@PAX@std@@@2@XZ PROC ; std::_Tree_comp_alloc<std::_Tmap_traits<int,BaseGameEntity *,std::less<int>,std::allocator<std::pair<int const ,BaseGameEntity *> >,0> >::_Getal, COMDAT
; _this$ = ecx

; 1009 : 		{	// return const reference to allocator

	push	ebp
	mov	ebp, esp
	push	ecx
	mov	DWORD PTR [ebp-4], -858993460		; ccccccccH
	mov	DWORD PTR _this$[ebp], ecx

; 1010 : 		return (_Mypair._Get_second()._Get_first());

	mov	ecx, DWORD PTR _this$[ebp]
	call	?_Get_second@?$_Compressed_pair@U?$less@H@std@@V?$_Compressed_pair@V?$allocator@U?$_Tree_node@U?$pair@$$CBHPAVBaseGameEntity@@@std@@PAX@std@@@std@@V?$_Tree_val@U?$_Tree_simple_types@U?$pair@$$CBHPAVBaseGameEntity@@@std@@@std@@@2@$00@2@$00@std@@QBEABV?$_Compressed_pair@V?$allocator@U?$_Tree_node@U?$pair@$$CBHPAVBaseGameEntity@@@std@@PAX@std@@@std@@V?$_Tree_val@U?$_Tree_simple_types@U?$pair@$$CBHPAVBaseGameEntity@@@std@@@std@@@2@$00@2@XZ ; std::_Compressed_pair<std::less<int>,std::_Compressed_pair<std::allocator<std::_Tree_node<std::pair<int const ,BaseGameEntity *>,void *> >,std::_Tree_val<std::_Tree_simple_types<std::pair<int const ,BaseGameEntity *> > >,1>,1>::_Get_second
	mov	ecx, eax
	call	?_Get_first@?$_Compressed_pair@V?$allocator@U?$_Tree_node@U?$pair@$$CBHPAVBaseGameEntity@@@std@@PAX@std@@@std@@V?$_Tree_val@U?$_Tree_simple_types@U?$pair@$$CBHPAVBaseGameEntity@@@std@@@std@@@2@$00@std@@QBEABV?$allocator@U?$_Tree_node@U?$pair@$$CBHPAVBaseGameEntity@@@std@@PAX@std@@@2@XZ ; std::_Compressed_pair<std::allocator<std::_Tree_node<std::pair<int const ,BaseGameEntity *>,void *> >,std::_Tree_val<std::_Tree_simple_types<std::pair<int const ,BaseGameEntity *> > >,1>::_Get_first

; 1011 : 		}

	add	esp, 4
	cmp	ebp, esp
	call	__RTC_CheckEsp
	mov	esp, ebp
	pop	ebp
	ret	0
?_Getal@?$_Tree_comp_alloc@V?$_Tmap_traits@HPAVBaseGameEntity@@U?$less@H@std@@V?$allocator@U?$pair@$$CBHPAVBaseGameEntity@@@std@@@3@$0A@@std@@@std@@QBEABV?$allocator@U?$_Tree_node@U?$pair@$$CBHPAVBaseGameEntity@@@std@@PAX@std@@@2@XZ ENDP ; std::_Tree_comp_alloc<std::_Tmap_traits<int,BaseGameEntity *,std::less<int>,std::allocator<std::pair<int const ,BaseGameEntity *> >,0> >::_Getal
_TEXT	ENDS
; Function compile flags: /Odtp /RTCsu
; File c:\program files (x86)\microsoft visual studio\2017\community\vc\tools\msvc\14.15.26726\include\xtree
;	COMDAT ?_Getal@?$_Tree_comp_alloc@V?$_Tmap_traits@HPAVBaseGameEntity@@U?$less@H@std@@V?$allocator@U?$pair@$$CBHPAVBaseGameEntity@@@std@@@3@$0A@@std@@@std@@QAEAAV?$allocator@U?$_Tree_node@U?$pair@$$CBHPAVBaseGameEntity@@@std@@PAX@std@@@2@XZ
_TEXT	SEGMENT
_this$ = -4						; size = 4
?_Getal@?$_Tree_comp_alloc@V?$_Tmap_traits@HPAVBaseGameEntity@@U?$less@H@std@@V?$allocator@U?$pair@$$CBHPAVBaseGameEntity@@@std@@@3@$0A@@std@@@std@@QAEAAV?$allocator@U?$_Tree_node@U?$pair@$$CBHPAVBaseGameEntity@@@std@@PAX@std@@@2@XZ PROC ; std::_Tree_comp_alloc<std::_Tmap_traits<int,BaseGameEntity *,std::less<int>,std::allocator<std::pair<int const ,BaseGameEntity *> >,0> >::_Getal, COMDAT
; _this$ = ecx

; 1004 : 		{	// return reference to allocator

	push	ebp
	mov	ebp, esp
	push	ecx
	mov	DWORD PTR [ebp-4], -858993460		; ccccccccH
	mov	DWORD PTR _this$[ebp], ecx

; 1005 : 		return (_Mypair._Get_second()._Get_first());

	mov	ecx, DWORD PTR _this$[ebp]
	call	?_Get_second@?$_Compressed_pair@U?$less@H@std@@V?$_Compressed_pair@V?$allocator@U?$_Tree_node@U?$pair@$$CBHPAVBaseGameEntity@@@std@@PAX@std@@@std@@V?$_Tree_val@U?$_Tree_simple_types@U?$pair@$$CBHPAVBaseGameEntity@@@std@@@std@@@2@$00@2@$00@std@@QAEAAV?$_Compressed_pair@V?$allocator@U?$_Tree_node@U?$pair@$$CBHPAVBaseGameEntity@@@std@@PAX@std@@@std@@V?$_Tree_val@U?$_Tree_simple_types@U?$pair@$$CBHPAVBaseGameEntity@@@std@@@std@@@2@$00@2@XZ ; std::_Compressed_pair<std::less<int>,std::_Compressed_pair<std::allocator<std::_Tree_node<std::pair<int const ,BaseGameEntity *>,void *> >,std::_Tree_val<std::_Tree_simple_types<std::pair<int const ,BaseGameEntity *> > >,1>,1>::_Get_second
	mov	ecx, eax
	call	?_Get_first@?$_Compressed_pair@V?$allocator@U?$_Tree_node@U?$pair@$$CBHPAVBaseGameEntity@@@std@@PAX@std@@@std@@V?$_Tree_val@U?$_Tree_simple_types@U?$pair@$$CBHPAVBaseGameEntity@@@std@@@std@@@2@$00@std@@QAEAAV?$allocator@U?$_Tree_node@U?$pair@$$CBHPAVBaseGameEntity@@@std@@PAX@std@@@2@XZ ; std::_Compressed_pair<std::allocator<std::_Tree_node<std::pair<int const ,BaseGameEntity *>,void *> >,std::_Tree_val<std::_Tree_simple_types<std::pair<int const ,BaseGameEntity *> > >,1>::_Get_first

; 1006 : 		}

	add	esp, 4
	cmp	ebp, esp
	call	__RTC_CheckEsp
	mov	esp, ebp
	pop	ebp
	ret	0
?_Getal@?$_Tree_comp_alloc@V?$_Tmap_traits@HPAVBaseGameEntity@@U?$less@H@std@@V?$allocator@U?$pair@$$CBHPAVBaseGameEntity@@@std@@@3@$0A@@std@@@std@@QAEAAV?$allocator@U?$_Tree_node@U?$pair@$$CBHPAVBaseGameEntity@@@std@@PAX@std@@@2@XZ ENDP ; std::_Tree_comp_alloc<std::_Tmap_traits<int,BaseGameEntity *,std::less<int>,std::allocator<std::pair<int const ,BaseGameEntity *> >,0> >::_Getal
_TEXT	ENDS
; Function compile flags: /Odtp /RTCsu
; File c:\program files (x86)\microsoft visual studio\2017\community\vc\tools\msvc\14.15.26726\include\xtree
;	COMDAT ?_Getcomp@?$_Tree_comp_alloc@V?$_Tmap_traits@HPAVBaseGameEntity@@U?$less@H@std@@V?$allocator@U?$pair@$$CBHPAVBaseGameEntity@@@std@@@3@$0A@@std@@@std@@QBEABU?$less@H@2@XZ
_TEXT	SEGMENT
_this$ = -4						; size = 4
?_Getcomp@?$_Tree_comp_alloc@V?$_Tmap_traits@HPAVBaseGameEntity@@U?$less@H@std@@V?$allocator@U?$pair@$$CBHPAVBaseGameEntity@@@std@@@3@$0A@@std@@@std@@QBEABU?$less@H@2@XZ PROC ; std::_Tree_comp_alloc<std::_Tmap_traits<int,BaseGameEntity *,std::less<int>,std::allocator<std::pair<int const ,BaseGameEntity *> >,0> >::_Getcomp, COMDAT
; _this$ = ecx

; 999  : 		{	// return const reference to ordering predicate

	push	ebp
	mov	ebp, esp
	push	ecx
	mov	DWORD PTR [ebp-4], -858993460		; ccccccccH
	mov	DWORD PTR _this$[ebp], ecx

; 1000 : 		return (_Mypair._Get_first());

	mov	ecx, DWORD PTR _this$[ebp]
	call	?_Get_first@?$_Compressed_pair@U?$less@H@std@@V?$_Compressed_pair@V?$allocator@U?$_Tree_node@U?$pair@$$CBHPAVBaseGameEntity@@@std@@PAX@std@@@std@@V?$_Tree_val@U?$_Tree_simple_types@U?$pair@$$CBHPAVBaseGameEntity@@@std@@@std@@@2@$00@2@$00@std@@QBEABU?$less@H@2@XZ ; std::_Compressed_pair<std::less<int>,std::_Compressed_pair<std::allocator<std::_Tree_node<std::pair<int const ,BaseGameEntity *>,void *> >,std::_Tree_val<std::_Tree_simple_types<std::pair<int const ,BaseGameEntity *> > >,1>,1>::_Get_first

; 1001 : 		}

	add	esp, 4
	cmp	ebp, esp
	call	__RTC_CheckEsp
	mov	esp, ebp
	pop	ebp
	ret	0
?_Getcomp@?$_Tree_comp_alloc@V?$_Tmap_traits@HPAVBaseGameEntity@@U?$less@H@std@@V?$allocator@U?$pair@$$CBHPAVBaseGameEntity@@@std@@@3@$0A@@std@@@std@@QBEABU?$less@H@2@XZ ENDP ; std::_Tree_comp_alloc<std::_Tmap_traits<int,BaseGameEntity *,std::less<int>,std::allocator<std::pair<int const ,BaseGameEntity *> >,0> >::_Getcomp
_TEXT	ENDS
; Function compile flags: /Odtp /RTCsu
; File c:\program files (x86)\microsoft visual studio\2017\community\vc\tools\msvc\14.15.26726\include\xtree
;	COMDAT ?_Getcomp@?$_Tree_comp_alloc@V?$_Tmap_traits@HPAVBaseGameEntity@@U?$less@H@std@@V?$allocator@U?$pair@$$CBHPAVBaseGameEntity@@@std@@@3@$0A@@std@@@std@@QAEAAU?$less@H@2@XZ
_TEXT	SEGMENT
_this$ = -4						; size = 4
?_Getcomp@?$_Tree_comp_alloc@V?$_Tmap_traits@HPAVBaseGameEntity@@U?$less@H@std@@V?$allocator@U?$pair@$$CBHPAVBaseGameEntity@@@std@@@3@$0A@@std@@@std@@QAEAAU?$less@H@2@XZ PROC ; std::_Tree_comp_alloc<std::_Tmap_traits<int,BaseGameEntity *,std::less<int>,std::allocator<std::pair<int const ,BaseGameEntity *> >,0> >::_Getcomp, COMDAT
; _this$ = ecx

; 994  : 		{	// return reference to ordering predicate

	push	ebp
	mov	ebp, esp
	push	ecx
	mov	DWORD PTR [ebp-4], -858993460		; ccccccccH
	mov	DWORD PTR _this$[ebp], ecx

; 995  : 		return (_Mypair._Get_first());

	mov	ecx, DWORD PTR _this$[ebp]
	call	?_Get_first@?$_Compressed_pair@U?$less@H@std@@V?$_Compressed_pair@V?$allocator@U?$_Tree_node@U?$pair@$$CBHPAVBaseGameEntity@@@std@@PAX@std@@@std@@V?$_Tree_val@U?$_Tree_simple_types@U?$pair@$$CBHPAVBaseGameEntity@@@std@@@std@@@2@$00@2@$00@std@@QAEAAU?$less@H@2@XZ ; std::_Compressed_pair<std::less<int>,std::_Compressed_pair<std::allocator<std::_Tree_node<std::pair<int const ,BaseGameEntity *>,void *> >,std::_Tree_val<std::_Tree_simple_types<std::pair<int const ,BaseGameEntity *> > >,1>,1>::_Get_first

; 996  : 		}

	add	esp, 4
	cmp	ebp, esp
	call	__RTC_CheckEsp
	mov	esp, ebp
	pop	ebp
	ret	0
?_Getcomp@?$_Tree_comp_alloc@V?$_Tmap_traits@HPAVBaseGameEntity@@U?$less@H@std@@V?$allocator@U?$pair@$$CBHPAVBaseGameEntity@@@std@@@3@$0A@@std@@@std@@QAEAAU?$less@H@2@XZ ENDP ; std::_Tree_comp_alloc<std::_Tmap_traits<int,BaseGameEntity *,std::less<int>,std::allocator<std::pair<int const ,BaseGameEntity *> >,0> >::_Getcomp
_TEXT	ENDS
; Function compile flags: /Odtp /RTCsu
; File c:\program files (x86)\microsoft visual studio\2017\community\vc\tools\msvc\14.15.26726\include\xtree
;	COMDAT ?_Freenode0@?$_Tree_comp_alloc@V?$_Tmap_traits@HPAVBaseGameEntity@@U?$less@H@std@@V?$allocator@U?$pair@$$CBHPAVBaseGameEntity@@@std@@@3@$0A@@std@@@std@@QAEXPAU?$_Tree_node@U?$pair@$$CBHPAVBaseGameEntity@@@std@@PAX@2@@Z
_TEXT	SEGMENT
_this$ = -4						; size = 4
__Pnode$ = 8						; size = 4
?_Freenode0@?$_Tree_comp_alloc@V?$_Tmap_traits@HPAVBaseGameEntity@@U?$less@H@std@@V?$allocator@U?$pair@$$CBHPAVBaseGameEntity@@@std@@@3@$0A@@std@@@std@@QAEXPAU?$_Tree_node@U?$pair@$$CBHPAVBaseGameEntity@@@std@@PAX@2@@Z PROC ; std::_Tree_comp_alloc<std::_Tmap_traits<int,BaseGameEntity *,std::less<int>,std::allocator<std::pair<int const ,BaseGameEntity *> >,0> >::_Freenode0, COMDAT
; _this$ = ecx

; 970  : 		{	// free non-value node using current allocator

	push	ebp
	mov	ebp, esp
	push	ecx
	mov	DWORD PTR [ebp-4], -858993460		; ccccccccH
	mov	DWORD PTR _this$[ebp], ecx

; 971  : 		_Node::_Freenode0(_Getal(), _Pnode);

	mov	eax, DWORD PTR __Pnode$[ebp]
	push	eax
	mov	ecx, DWORD PTR _this$[ebp]
	call	?_Getal@?$_Tree_comp_alloc@V?$_Tmap_traits@HPAVBaseGameEntity@@U?$less@H@std@@V?$allocator@U?$pair@$$CBHPAVBaseGameEntity@@@std@@@3@$0A@@std@@@std@@QAEAAV?$allocator@U?$_Tree_node@U?$pair@$$CBHPAVBaseGameEntity@@@std@@PAX@std@@@2@XZ ; std::_Tree_comp_alloc<std::_Tmap_traits<int,BaseGameEntity *,std::less<int>,std::allocator<std::pair<int const ,BaseGameEntity *> >,0> >::_Getal
	push	eax
	call	??$_Freenode0@V?$allocator@U?$_Tree_node@U?$pair@$$CBHPAVBaseGameEntity@@@std@@PAX@std@@@std@@@?$_Tree_node@U?$pair@$$CBHPAVBaseGameEntity@@@std@@PAX@std@@SAXAAV?$allocator@U?$_Tree_node@U?$pair@$$CBHPAVBaseGameEntity@@@std@@PAX@std@@@1@PAU01@@Z ; std::_Tree_node<std::pair<int const ,BaseGameEntity *>,void *>::_Freenode0<std::allocator<std::_Tree_node<std::pair<int const ,BaseGameEntity *>,void *> > >
	add	esp, 8

; 972  : 		}

	add	esp, 4
	cmp	ebp, esp
	call	__RTC_CheckEsp
	mov	esp, ebp
	pop	ebp
	ret	4
?_Freenode0@?$_Tree_comp_alloc@V?$_Tmap_traits@HPAVBaseGameEntity@@U?$less@H@std@@V?$allocator@U?$pair@$$CBHPAVBaseGameEntity@@@std@@@3@$0A@@std@@@std@@QAEXPAU?$_Tree_node@U?$pair@$$CBHPAVBaseGameEntity@@@std@@PAX@2@@Z ENDP ; std::_Tree_comp_alloc<std::_Tmap_traits<int,BaseGameEntity *,std::less<int>,std::allocator<std::pair<int const ,BaseGameEntity *> >,0> >::_Freenode0
_TEXT	ENDS
; Function compile flags: /Odtp /RTCsu
; File c:\program files (x86)\microsoft visual studio\2017\community\vc\tools\msvc\14.15.26726\include\xtree
;	COMDAT ?_Buynode0@?$_Tree_comp_alloc@V?$_Tmap_traits@HPAVBaseGameEntity@@U?$less@H@std@@V?$allocator@U?$pair@$$CBHPAVBaseGameEntity@@@std@@@3@$0A@@std@@@std@@QAEPAU?$_Tree_node@U?$pair@$$CBHPAVBaseGameEntity@@@std@@PAX@2@XZ
_TEXT	SEGMENT
__My_data$ = -32					; size = 4
__Pnode$ = -28						; size = 4
__Al$ = -24						; size = 4
_this$ = -20						; size = 4
__$EHRec$ = -16						; size = 16
?_Buynode0@?$_Tree_comp_alloc@V?$_Tmap_traits@HPAVBaseGameEntity@@U?$less@H@std@@V?$allocator@U?$pair@$$CBHPAVBaseGameEntity@@@std@@@3@$0A@@std@@@std@@QAEPAU?$_Tree_node@U?$pair@$$CBHPAVBaseGameEntity@@@std@@PAX@2@XZ PROC ; std::_Tree_comp_alloc<std::_Tmap_traits<int,BaseGameEntity *,std::less<int>,std::allocator<std::pair<int const ,BaseGameEntity *> >,0> >::_Buynode0, COMDAT
; _this$ = ecx

; 951  : 		{	// allocate a non-value node

	push	ebp
	mov	ebp, esp
	push	-1
	push	__ehhandler$?_Buynode0@?$_Tree_comp_alloc@V?$_Tmap_traits@HPAVBaseGameEntity@@U?$less@H@std@@V?$allocator@U?$pair@$$CBHPAVBaseGameEntity@@@std@@@3@$0A@@std@@@std@@QAEPAU?$_Tree_node@U?$pair@$$CBHPAVBaseGameEntity@@@std@@PAX@2@XZ
	mov	eax, DWORD PTR fs:0
	push	eax
	push	ecx
	sub	esp, 16					; 00000010H
	push	ebx
	push	esi
	push	edi
	mov	eax, -858993460				; ccccccccH
	mov	DWORD PTR [ebp-32], eax
	mov	DWORD PTR [ebp-28], eax
	mov	DWORD PTR [ebp-24], eax
	mov	DWORD PTR [ebp-20], eax
	mov	eax, DWORD PTR ___security_cookie
	xor	eax, ebp
	push	eax
	lea	eax, DWORD PTR __$EHRec$[ebp+4]
	mov	DWORD PTR fs:0, eax
	mov	DWORD PTR __$EHRec$[ebp], esp
	mov	DWORD PTR _this$[ebp], ecx

; 952  : 		_Alnode& _Al = _Getal();

	mov	ecx, DWORD PTR _this$[ebp]
	call	?_Getal@?$_Tree_comp_alloc@V?$_Tmap_traits@HPAVBaseGameEntity@@U?$less@H@std@@V?$allocator@U?$pair@$$CBHPAVBaseGameEntity@@@std@@@3@$0A@@std@@@std@@QAEAAV?$allocator@U?$_Tree_node@U?$pair@$$CBHPAVBaseGameEntity@@@std@@PAX@std@@@2@XZ ; std::_Tree_comp_alloc<std::_Tmap_traits<int,BaseGameEntity *,std::less<int>,std::allocator<std::pair<int const ,BaseGameEntity *> >,0> >::_Getal
	mov	DWORD PTR __Al$[ebp], eax

; 953  : 		_Nodeptr _Pnode = _Al.allocate(1);

	push	1
	mov	ecx, DWORD PTR __Al$[ebp]
	call	?allocate@?$allocator@U?$_Tree_node@U?$pair@$$CBHPAVBaseGameEntity@@@std@@PAX@std@@@std@@QAEPAU?$_Tree_node@U?$pair@$$CBHPAVBaseGameEntity@@@std@@PAX@2@I@Z ; std::allocator<std::_Tree_node<std::pair<int const ,BaseGameEntity *>,void *> >::allocate
	mov	DWORD PTR __Pnode$[ebp], eax

; 954  : 
; 955  : 		auto& _My_data = _Get_data();

	mov	ecx, DWORD PTR _this$[ebp]
	call	?_Get_data@?$_Tree_comp_alloc@V?$_Tmap_traits@HPAVBaseGameEntity@@U?$less@H@std@@V?$allocator@U?$pair@$$CBHPAVBaseGameEntity@@@std@@@3@$0A@@std@@@std@@QAEAAV?$_Tree_val@U?$_Tree_simple_types@U?$pair@$$CBHPAVBaseGameEntity@@@std@@@std@@@2@XZ ; std::_Tree_comp_alloc<std::_Tmap_traits<int,BaseGameEntity *,std::less<int>,std::allocator<std::pair<int const ,BaseGameEntity *> >,0> >::_Get_data
	mov	DWORD PTR __My_data$[ebp], eax

; 956  : 
; 957  : 		_TRY_BEGIN

	mov	DWORD PTR __$EHRec$[ebp+12], 0

; 958  : 		_Alnode_traits::construct(_Al, _STD addressof(_Pnode->_Left), _My_data._Myhead);

	mov	eax, DWORD PTR __My_data$[ebp]
	add	eax, 4
	push	eax
	mov	ecx, DWORD PTR __Pnode$[ebp]
	push	ecx
	call	??$addressof@PAU?$_Tree_node@U?$pair@$$CBHPAVBaseGameEntity@@@std@@PAX@std@@@std@@YAPAPAU?$_Tree_node@U?$pair@$$CBHPAVBaseGameEntity@@@std@@PAX@0@AAPAU10@@Z ; std::addressof<std::_Tree_node<std::pair<int const ,BaseGameEntity *>,void *> *>
	add	esp, 4
	push	eax
	mov	edx, DWORD PTR __Al$[ebp]
	push	edx
	call	??$construct@PAU?$_Tree_node@U?$pair@$$CBHPAVBaseGameEntity@@@std@@PAX@std@@AAPAU12@@?$_Default_allocator_traits@V?$allocator@U?$_Tree_node@U?$pair@$$CBHPAVBaseGameEntity@@@std@@PAX@std@@@std@@@std@@SAXAAV?$allocator@U?$_Tree_node@U?$pair@$$CBHPAVBaseGameEntity@@@std@@PAX@std@@@1@QAPAU?$_Tree_node@U?$pair@$$CBHPAVBaseGameEntity@@@std@@PAX@1@AAPAU31@@Z ; std::_Default_allocator_traits<std::allocator<std::_Tree_node<std::pair<int const ,BaseGameEntity *>,void *> > >::construct<std::_Tree_node<std::pair<int const ,BaseGameEntity *>,void *> *,std::_Tree_node<std::pair<int const ,BaseGameEntity *>,void *> * &>
	add	esp, 12					; 0000000cH

; 959  : 		_Alnode_traits::construct(_Al, _STD addressof(_Pnode->_Parent), _My_data._Myhead);

	mov	eax, DWORD PTR __My_data$[ebp]
	add	eax, 4
	push	eax
	mov	ecx, DWORD PTR __Pnode$[ebp]
	add	ecx, 4
	push	ecx
	call	??$addressof@PAU?$_Tree_node@U?$pair@$$CBHPAVBaseGameEntity@@@std@@PAX@std@@@std@@YAPAPAU?$_Tree_node@U?$pair@$$CBHPAVBaseGameEntity@@@std@@PAX@0@AAPAU10@@Z ; std::addressof<std::_Tree_node<std::pair<int const ,BaseGameEntity *>,void *> *>
	add	esp, 4
	push	eax
	mov	edx, DWORD PTR __Al$[ebp]
	push	edx
	call	??$construct@PAU?$_Tree_node@U?$pair@$$CBHPAVBaseGameEntity@@@std@@PAX@std@@AAPAU12@@?$_Default_allocator_traits@V?$allocator@U?$_Tree_node@U?$pair@$$CBHPAVBaseGameEntity@@@std@@PAX@std@@@std@@@std@@SAXAAV?$allocator@U?$_Tree_node@U?$pair@$$CBHPAVBaseGameEntity@@@std@@PAX@std@@@1@QAPAU?$_Tree_node@U?$pair@$$CBHPAVBaseGameEntity@@@std@@PAX@1@AAPAU31@@Z ; std::_Default_allocator_traits<std::allocator<std::_Tree_node<std::pair<int const ,BaseGameEntity *>,void *> > >::construct<std::_Tree_node<std::pair<int const ,BaseGameEntity *>,void *> *,std::_Tree_node<std::pair<int const ,BaseGameEntity *>,void *> * &>
	add	esp, 12					; 0000000cH

; 960  : 		_Alnode_traits::construct(_Al, _STD addressof(_Pnode->_Right), _My_data._Myhead);

	mov	eax, DWORD PTR __My_data$[ebp]
	add	eax, 4
	push	eax
	mov	ecx, DWORD PTR __Pnode$[ebp]
	add	ecx, 8
	push	ecx
	call	??$addressof@PAU?$_Tree_node@U?$pair@$$CBHPAVBaseGameEntity@@@std@@PAX@std@@@std@@YAPAPAU?$_Tree_node@U?$pair@$$CBHPAVBaseGameEntity@@@std@@PAX@0@AAPAU10@@Z ; std::addressof<std::_Tree_node<std::pair<int const ,BaseGameEntity *>,void *> *>
	add	esp, 4
	push	eax
	mov	edx, DWORD PTR __Al$[ebp]
	push	edx
	call	??$construct@PAU?$_Tree_node@U?$pair@$$CBHPAVBaseGameEntity@@@std@@PAX@std@@AAPAU12@@?$_Default_allocator_traits@V?$allocator@U?$_Tree_node@U?$pair@$$CBHPAVBaseGameEntity@@@std@@PAX@std@@@std@@@std@@SAXAAV?$allocator@U?$_Tree_node@U?$pair@$$CBHPAVBaseGameEntity@@@std@@PAX@std@@@1@QAPAU?$_Tree_node@U?$pair@$$CBHPAVBaseGameEntity@@@std@@PAX@1@AAPAU31@@Z ; std::_Default_allocator_traits<std::allocator<std::_Tree_node<std::pair<int const ,BaseGameEntity *>,void *> > >::construct<std::_Tree_node<std::pair<int const ,BaseGameEntity *>,void *> *,std::_Tree_node<std::pair<int const ,BaseGameEntity *>,void *> * &>
	add	esp, 12					; 0000000cH
	jmp	SHORT $LN4@Buynode0
__catch$?_Buynode0@?$_Tree_comp_alloc@V?$_Tmap_traits@HPAVBaseGameEntity@@U?$less@H@std@@V?$allocator@U?$pair@$$CBHPAVBaseGameEntity@@@std@@@3@$0A@@std@@@std@@QAEPAU?$_Tree_node@U?$pair@$$CBHPAVBaseGameEntity@@@std@@PAX@2@XZ$0:

; 961  : 		_CATCH_ALL
; 962  : 		_Al.deallocate(_Pnode, 1);

	push	1
	mov	eax, DWORD PTR __Pnode$[ebp]
	push	eax
	mov	ecx, DWORD PTR __Al$[ebp]
	call	?deallocate@?$allocator@U?$_Tree_node@U?$pair@$$CBHPAVBaseGameEntity@@@std@@PAX@std@@@std@@QAEXQAU?$_Tree_node@U?$pair@$$CBHPAVBaseGameEntity@@@std@@PAX@2@I@Z ; std::allocator<std::_Tree_node<std::pair<int const ,BaseGameEntity *>,void *> >::deallocate

; 963  : 		_RERAISE;

	push	0
	push	0
	call	__CxxThrowException@8

; 964  : 		_CATCH_END

	mov	eax, $LN7@Buynode0
	ret	0
$LN4@Buynode0:
	mov	DWORD PTR __$EHRec$[ebp+12], -1
	jmp	SHORT __tryend$?_Buynode0@?$_Tree_comp_alloc@V?$_Tmap_traits@HPAVBaseGameEntity@@U?$less@H@std@@V?$allocator@U?$pair@$$CBHPAVBaseGameEntity@@@std@@@3@$0A@@std@@@std@@QAEPAU?$_Tree_node@U?$pair@$$CBHPAVBaseGameEntity@@@std@@PAX@2@XZ$1
$LN7@Buynode0:
	mov	DWORD PTR __$EHRec$[ebp+12], -1
__tryend$?_Buynode0@?$_Tree_comp_alloc@V?$_Tmap_traits@HPAVBaseGameEntity@@U?$less@H@std@@V?$allocator@U?$pair@$$CBHPAVBaseGameEntity@@@std@@@3@$0A@@std@@@std@@QAEPAU?$_Tree_node@U?$pair@$$CBHPAVBaseGameEntity@@@std@@PAX@2@XZ$1:

; 965  : 
; 966  : 		return (_Pnode);

	mov	eax, DWORD PTR __Pnode$[ebp]
$LN3@Buynode0:

; 967  : 		}

	mov	ecx, DWORD PTR __$EHRec$[ebp+4]
	mov	DWORD PTR fs:0, ecx
	pop	ecx
	pop	edi
	pop	esi
	pop	ebx
	add	esp, 32					; 00000020H
	cmp	ebp, esp
	call	__RTC_CheckEsp
	mov	esp, ebp
	pop	ebp
	ret	0
_TEXT	ENDS
;	COMDAT text$x
text$x	SEGMENT
__ehhandler$?_Buynode0@?$_Tree_comp_alloc@V?$_Tmap_traits@HPAVBaseGameEntity@@U?$less@H@std@@V?$allocator@U?$pair@$$CBHPAVBaseGameEntity@@@std@@@3@$0A@@std@@@std@@QAEPAU?$_Tree_node@U?$pair@$$CBHPAVBaseGameEntity@@@std@@PAX@2@XZ:
	mov	edx, DWORD PTR [esp+8]
	lea	eax, DWORD PTR [edx+12]
	mov	ecx, DWORD PTR [edx-36]
	xor	ecx, eax
	call	@__security_check_cookie@4
	mov	eax, OFFSET __ehfuncinfo$?_Buynode0@?$_Tree_comp_alloc@V?$_Tmap_traits@HPAVBaseGameEntity@@U?$less@H@std@@V?$allocator@U?$pair@$$CBHPAVBaseGameEntity@@@std@@@3@$0A@@std@@@std@@QAEPAU?$_Tree_node@U?$pair@$$CBHPAVBaseGameEntity@@@std@@PAX@2@XZ
	jmp	___CxxFrameHandler3
text$x	ENDS
?_Buynode0@?$_Tree_comp_alloc@V?$_Tmap_traits@HPAVBaseGameEntity@@U?$less@H@std@@V?$allocator@U?$pair@$$CBHPAVBaseGameEntity@@@std@@@3@$0A@@std@@@std@@QAEPAU?$_Tree_node@U?$pair@$$CBHPAVBaseGameEntity@@@std@@PAX@2@XZ ENDP ; std::_Tree_comp_alloc<std::_Tmap_traits<int,BaseGameEntity *,std::less<int>,std::allocator<std::pair<int const ,BaseGameEntity *> >,0> >::_Buynode0
; Function compile flags: /Odtp /RTCsu
; File c:\program files (x86)\microsoft visual studio\2017\community\vc\tools\msvc\14.15.26726\include\xtree
;	COMDAT ?_Freeheadnode@?$_Tree_comp_alloc@V?$_Tmap_traits@HPAVBaseGameEntity@@U?$less@H@std@@V?$allocator@U?$pair@$$CBHPAVBaseGameEntity@@@std@@@3@$0A@@std@@@std@@QAEXPAU?$_Tree_node@U?$pair@$$CBHPAVBaseGameEntity@@@std@@PAX@2@@Z
_TEXT	SEGMENT
_this$ = -4						; size = 4
__Pnode$ = 8						; size = 4
?_Freeheadnode@?$_Tree_comp_alloc@V?$_Tmap_traits@HPAVBaseGameEntity@@U?$less@H@std@@V?$allocator@U?$pair@$$CBHPAVBaseGameEntity@@@std@@@3@$0A@@std@@@std@@QAEXPAU?$_Tree_node@U?$pair@$$CBHPAVBaseGameEntity@@@std@@PAX@2@@Z PROC ; std::_Tree_comp_alloc<std::_Tmap_traits<int,BaseGameEntity *,std::less<int>,std::allocator<std::pair<int const ,BaseGameEntity *> >,0> >::_Freeheadnode, COMDAT
; _this$ = ecx

; 946  : 		{	// free head node using current allocator

	push	ebp
	mov	ebp, esp
	push	ecx
	mov	DWORD PTR [ebp-4], -858993460		; ccccccccH
	mov	DWORD PTR _this$[ebp], ecx

; 947  : 		_Node::_Freenode0(_Getal(), _Pnode);

	mov	eax, DWORD PTR __Pnode$[ebp]
	push	eax
	mov	ecx, DWORD PTR _this$[ebp]
	call	?_Getal@?$_Tree_comp_alloc@V?$_Tmap_traits@HPAVBaseGameEntity@@U?$less@H@std@@V?$allocator@U?$pair@$$CBHPAVBaseGameEntity@@@std@@@3@$0A@@std@@@std@@QAEAAV?$allocator@U?$_Tree_node@U?$pair@$$CBHPAVBaseGameEntity@@@std@@PAX@std@@@2@XZ ; std::_Tree_comp_alloc<std::_Tmap_traits<int,BaseGameEntity *,std::less<int>,std::allocator<std::pair<int const ,BaseGameEntity *> >,0> >::_Getal
	push	eax
	call	??$_Freenode0@V?$allocator@U?$_Tree_node@U?$pair@$$CBHPAVBaseGameEntity@@@std@@PAX@std@@@std@@@?$_Tree_node@U?$pair@$$CBHPAVBaseGameEntity@@@std@@PAX@std@@SAXAAV?$allocator@U?$_Tree_node@U?$pair@$$CBHPAVBaseGameEntity@@@std@@PAX@std@@@1@PAU01@@Z ; std::_Tree_node<std::pair<int const ,BaseGameEntity *>,void *>::_Freenode0<std::allocator<std::_Tree_node<std::pair<int const ,BaseGameEntity *>,void *> > >
	add	esp, 8

; 948  : 		}

	add	esp, 4
	cmp	ebp, esp
	call	__RTC_CheckEsp
	mov	esp, ebp
	pop	ebp
	ret	4
?_Freeheadnode@?$_Tree_comp_alloc@V?$_Tmap_traits@HPAVBaseGameEntity@@U?$less@H@std@@V?$allocator@U?$pair@$$CBHPAVBaseGameEntity@@@std@@@3@$0A@@std@@@std@@QAEXPAU?$_Tree_node@U?$pair@$$CBHPAVBaseGameEntity@@@std@@PAX@2@@Z ENDP ; std::_Tree_comp_alloc<std::_Tmap_traits<int,BaseGameEntity *,std::less<int>,std::allocator<std::pair<int const ,BaseGameEntity *> >,0> >::_Freeheadnode
_TEXT	ENDS
; Function compile flags: /Odtp /RTCsu
; File c:\program files (x86)\microsoft visual studio\2017\community\vc\tools\msvc\14.15.26726\include\xtree
;	COMDAT ?_Buyheadnode@?$_Tree_comp_alloc@V?$_Tmap_traits@HPAVBaseGameEntity@@U?$less@H@std@@V?$allocator@U?$pair@$$CBHPAVBaseGameEntity@@@std@@@3@$0A@@std@@@std@@QAEPAU?$_Tree_node@U?$pair@$$CBHPAVBaseGameEntity@@@std@@PAX@2@XZ
_TEXT	SEGMENT
__Pnode$ = -32						; size = 4
__Al$ = -24						; size = 4
_this$ = -20						; size = 4
__$EHRec$ = -16						; size = 16
?_Buyheadnode@?$_Tree_comp_alloc@V?$_Tmap_traits@HPAVBaseGameEntity@@U?$less@H@std@@V?$allocator@U?$pair@$$CBHPAVBaseGameEntity@@@std@@@3@$0A@@std@@@std@@QAEPAU?$_Tree_node@U?$pair@$$CBHPAVBaseGameEntity@@@std@@PAX@2@XZ PROC ; std::_Tree_comp_alloc<std::_Tmap_traits<int,BaseGameEntity *,std::less<int>,std::allocator<std::pair<int const ,BaseGameEntity *> >,0> >::_Buyheadnode, COMDAT
; _this$ = ecx

; 927  : 		{	// get head node using current allocator

	push	ebp
	mov	ebp, esp
	push	-1
	push	__ehhandler$?_Buyheadnode@?$_Tree_comp_alloc@V?$_Tmap_traits@HPAVBaseGameEntity@@U?$less@H@std@@V?$allocator@U?$pair@$$CBHPAVBaseGameEntity@@@std@@@3@$0A@@std@@@std@@QAEPAU?$_Tree_node@U?$pair@$$CBHPAVBaseGameEntity@@@std@@PAX@2@XZ
	mov	eax, DWORD PTR fs:0
	push	eax
	push	ecx
	sub	esp, 20					; 00000014H
	push	ebx
	push	esi
	push	edi
	mov	eax, -858993460				; ccccccccH
	mov	DWORD PTR [ebp-36], eax
	mov	DWORD PTR [ebp-32], eax
	mov	DWORD PTR [ebp-28], eax
	mov	DWORD PTR [ebp-24], eax
	mov	DWORD PTR [ebp-20], eax
	mov	eax, DWORD PTR ___security_cookie
	xor	eax, ebp
	push	eax
	lea	eax, DWORD PTR __$EHRec$[ebp+4]
	mov	DWORD PTR fs:0, eax
	mov	DWORD PTR __$EHRec$[ebp], esp
	mov	DWORD PTR _this$[ebp], ecx

; 928  : 		_Alnode& _Al = _Getal();

	mov	ecx, DWORD PTR _this$[ebp]
	call	?_Getal@?$_Tree_comp_alloc@V?$_Tmap_traits@HPAVBaseGameEntity@@U?$less@H@std@@V?$allocator@U?$pair@$$CBHPAVBaseGameEntity@@@std@@@3@$0A@@std@@@std@@QAEAAV?$allocator@U?$_Tree_node@U?$pair@$$CBHPAVBaseGameEntity@@@std@@PAX@std@@@2@XZ ; std::_Tree_comp_alloc<std::_Tmap_traits<int,BaseGameEntity *,std::less<int>,std::allocator<std::pair<int const ,BaseGameEntity *> >,0> >::_Getal
	mov	DWORD PTR __Al$[ebp], eax

; 929  : 		_Nodeptr _Pnode = _Al.allocate(1);

	push	1
	mov	ecx, DWORD PTR __Al$[ebp]
	call	?allocate@?$allocator@U?$_Tree_node@U?$pair@$$CBHPAVBaseGameEntity@@@std@@PAX@std@@@std@@QAEPAU?$_Tree_node@U?$pair@$$CBHPAVBaseGameEntity@@@std@@PAX@2@I@Z ; std::allocator<std::_Tree_node<std::pair<int const ,BaseGameEntity *>,void *> >::allocate
	mov	DWORD PTR __Pnode$[ebp], eax

; 930  : 
; 931  : 		_TRY_BEGIN

	mov	DWORD PTR __$EHRec$[ebp+12], 0

; 932  : 		_Alnode_traits::construct(_Al, _STD addressof(_Pnode->_Left), _Pnode);

	lea	eax, DWORD PTR __Pnode$[ebp]
	push	eax
	mov	ecx, DWORD PTR __Pnode$[ebp]
	push	ecx
	call	??$addressof@PAU?$_Tree_node@U?$pair@$$CBHPAVBaseGameEntity@@@std@@PAX@std@@@std@@YAPAPAU?$_Tree_node@U?$pair@$$CBHPAVBaseGameEntity@@@std@@PAX@0@AAPAU10@@Z ; std::addressof<std::_Tree_node<std::pair<int const ,BaseGameEntity *>,void *> *>
	add	esp, 4
	push	eax
	mov	edx, DWORD PTR __Al$[ebp]
	push	edx
	call	??$construct@PAU?$_Tree_node@U?$pair@$$CBHPAVBaseGameEntity@@@std@@PAX@std@@AAPAU12@@?$_Default_allocator_traits@V?$allocator@U?$_Tree_node@U?$pair@$$CBHPAVBaseGameEntity@@@std@@PAX@std@@@std@@@std@@SAXAAV?$allocator@U?$_Tree_node@U?$pair@$$CBHPAVBaseGameEntity@@@std@@PAX@std@@@1@QAPAU?$_Tree_node@U?$pair@$$CBHPAVBaseGameEntity@@@std@@PAX@1@AAPAU31@@Z ; std::_Default_allocator_traits<std::allocator<std::_Tree_node<std::pair<int const ,BaseGameEntity *>,void *> > >::construct<std::_Tree_node<std::pair<int const ,BaseGameEntity *>,void *> *,std::_Tree_node<std::pair<int const ,BaseGameEntity *>,void *> * &>
	add	esp, 12					; 0000000cH

; 933  : 		_Alnode_traits::construct(_Al, _STD addressof(_Pnode->_Parent), _Pnode);

	lea	eax, DWORD PTR __Pnode$[ebp]
	push	eax
	mov	ecx, DWORD PTR __Pnode$[ebp]
	add	ecx, 4
	push	ecx
	call	??$addressof@PAU?$_Tree_node@U?$pair@$$CBHPAVBaseGameEntity@@@std@@PAX@std@@@std@@YAPAPAU?$_Tree_node@U?$pair@$$CBHPAVBaseGameEntity@@@std@@PAX@0@AAPAU10@@Z ; std::addressof<std::_Tree_node<std::pair<int const ,BaseGameEntity *>,void *> *>
	add	esp, 4
	push	eax
	mov	edx, DWORD PTR __Al$[ebp]
	push	edx
	call	??$construct@PAU?$_Tree_node@U?$pair@$$CBHPAVBaseGameEntity@@@std@@PAX@std@@AAPAU12@@?$_Default_allocator_traits@V?$allocator@U?$_Tree_node@U?$pair@$$CBHPAVBaseGameEntity@@@std@@PAX@std@@@std@@@std@@SAXAAV?$allocator@U?$_Tree_node@U?$pair@$$CBHPAVBaseGameEntity@@@std@@PAX@std@@@1@QAPAU?$_Tree_node@U?$pair@$$CBHPAVBaseGameEntity@@@std@@PAX@1@AAPAU31@@Z ; std::_Default_allocator_traits<std::allocator<std::_Tree_node<std::pair<int const ,BaseGameEntity *>,void *> > >::construct<std::_Tree_node<std::pair<int const ,BaseGameEntity *>,void *> *,std::_Tree_node<std::pair<int const ,BaseGameEntity *>,void *> * &>
	add	esp, 12					; 0000000cH

; 934  : 		_Alnode_traits::construct(_Al, _STD addressof(_Pnode->_Right), _Pnode);

	lea	eax, DWORD PTR __Pnode$[ebp]
	push	eax
	mov	ecx, DWORD PTR __Pnode$[ebp]
	add	ecx, 8
	push	ecx
	call	??$addressof@PAU?$_Tree_node@U?$pair@$$CBHPAVBaseGameEntity@@@std@@PAX@std@@@std@@YAPAPAU?$_Tree_node@U?$pair@$$CBHPAVBaseGameEntity@@@std@@PAX@0@AAPAU10@@Z ; std::addressof<std::_Tree_node<std::pair<int const ,BaseGameEntity *>,void *> *>
	add	esp, 4
	push	eax
	mov	edx, DWORD PTR __Al$[ebp]
	push	edx
	call	??$construct@PAU?$_Tree_node@U?$pair@$$CBHPAVBaseGameEntity@@@std@@PAX@std@@AAPAU12@@?$_Default_allocator_traits@V?$allocator@U?$_Tree_node@U?$pair@$$CBHPAVBaseGameEntity@@@std@@PAX@std@@@std@@@std@@SAXAAV?$allocator@U?$_Tree_node@U?$pair@$$CBHPAVBaseGameEntity@@@std@@PAX@std@@@1@QAPAU?$_Tree_node@U?$pair@$$CBHPAVBaseGameEntity@@@std@@PAX@1@AAPAU31@@Z ; std::_Default_allocator_traits<std::allocator<std::_Tree_node<std::pair<int const ,BaseGameEntity *>,void *> > >::construct<std::_Tree_node<std::pair<int const ,BaseGameEntity *>,void *> *,std::_Tree_node<std::pair<int const ,BaseGameEntity *>,void *> * &>
	add	esp, 12					; 0000000cH
	jmp	SHORT $LN4@Buyheadnod
__catch$?_Buyheadnode@?$_Tree_comp_alloc@V?$_Tmap_traits@HPAVBaseGameEntity@@U?$less@H@std@@V?$allocator@U?$pair@$$CBHPAVBaseGameEntity@@@std@@@3@$0A@@std@@@std@@QAEPAU?$_Tree_node@U?$pair@$$CBHPAVBaseGameEntity@@@std@@PAX@2@XZ$0:

; 935  : 		_CATCH_ALL
; 936  : 		_Al.deallocate(_Pnode, 1);

	push	1
	mov	eax, DWORD PTR __Pnode$[ebp]
	push	eax
	mov	ecx, DWORD PTR __Al$[ebp]
	call	?deallocate@?$allocator@U?$_Tree_node@U?$pair@$$CBHPAVBaseGameEntity@@@std@@PAX@std@@@std@@QAEXQAU?$_Tree_node@U?$pair@$$CBHPAVBaseGameEntity@@@std@@PAX@2@I@Z ; std::allocator<std::_Tree_node<std::pair<int const ,BaseGameEntity *>,void *> >::deallocate

; 937  : 		_RERAISE;

	push	0
	push	0
	call	__CxxThrowException@8

; 938  : 		_CATCH_END

	mov	eax, $LN7@Buyheadnod
	ret	0
$LN4@Buyheadnod:
	mov	DWORD PTR __$EHRec$[ebp+12], -1
	jmp	SHORT __tryend$?_Buyheadnode@?$_Tree_comp_alloc@V?$_Tmap_traits@HPAVBaseGameEntity@@U?$less@H@std@@V?$allocator@U?$pair@$$CBHPAVBaseGameEntity@@@std@@@3@$0A@@std@@@std@@QAEPAU?$_Tree_node@U?$pair@$$CBHPAVBaseGameEntity@@@std@@PAX@2@XZ$1
$LN7@Buyheadnod:
	mov	DWORD PTR __$EHRec$[ebp+12], -1
__tryend$?_Buyheadnode@?$_Tree_comp_alloc@V?$_Tmap_traits@HPAVBaseGameEntity@@U?$less@H@std@@V?$allocator@U?$pair@$$CBHPAVBaseGameEntity@@@std@@@3@$0A@@std@@@std@@QAEPAU?$_Tree_node@U?$pair@$$CBHPAVBaseGameEntity@@@std@@PAX@2@XZ$1:

; 939  : 
; 940  : 		_Pnode->_Color = _Black;

	mov	ecx, DWORD PTR __Pnode$[ebp]
	mov	BYTE PTR [ecx+12], 1

; 941  : 		_Pnode->_Isnil = true;

	mov	edx, DWORD PTR __Pnode$[ebp]
	mov	BYTE PTR [edx+13], 1

; 942  : 		return (_Pnode);

	mov	eax, DWORD PTR __Pnode$[ebp]
$LN3@Buyheadnod:

; 943  : 		}

	push	edx
	mov	ecx, ebp
	push	eax
	lea	edx, DWORD PTR $LN11@Buyheadnod
	call	@_RTC_CheckStackVars@8
	pop	eax
	pop	edx
	mov	ecx, DWORD PTR __$EHRec$[ebp+4]
	mov	DWORD PTR fs:0, ecx
	pop	ecx
	pop	edi
	pop	esi
	pop	ebx
	add	esp, 36					; 00000024H
	cmp	ebp, esp
	call	__RTC_CheckEsp
	mov	esp, ebp
	pop	ebp
	ret	0
$LN11@Buyheadnod:
	DD	1
	DD	$LN10@Buyheadnod
$LN10@Buyheadnod:
	DD	-32					; ffffffe0H
	DD	4
	DD	$LN8@Buyheadnod
$LN8@Buyheadnod:
	DB	95					; 0000005fH
	DB	80					; 00000050H
	DB	110					; 0000006eH
	DB	111					; 0000006fH
	DB	100					; 00000064H
	DB	101					; 00000065H
	DB	0
_TEXT	ENDS
;	COMDAT text$x
text$x	SEGMENT
__ehhandler$?_Buyheadnode@?$_Tree_comp_alloc@V?$_Tmap_traits@HPAVBaseGameEntity@@U?$less@H@std@@V?$allocator@U?$pair@$$CBHPAVBaseGameEntity@@@std@@@3@$0A@@std@@@std@@QAEPAU?$_Tree_node@U?$pair@$$CBHPAVBaseGameEntity@@@std@@PAX@2@XZ:
	mov	edx, DWORD PTR [esp+8]
	lea	eax, DWORD PTR [edx+12]
	mov	ecx, DWORD PTR [edx-40]
	xor	ecx, eax
	call	@__security_check_cookie@4
	mov	eax, OFFSET __ehfuncinfo$?_Buyheadnode@?$_Tree_comp_alloc@V?$_Tmap_traits@HPAVBaseGameEntity@@U?$less@H@std@@V?$allocator@U?$pair@$$CBHPAVBaseGameEntity@@@std@@@3@$0A@@std@@@std@@QAEPAU?$_Tree_node@U?$pair@$$CBHPAVBaseGameEntity@@@std@@PAX@2@XZ
	jmp	___CxxFrameHandler3
text$x	ENDS
?_Buyheadnode@?$_Tree_comp_alloc@V?$_Tmap_traits@HPAVBaseGameEntity@@U?$less@H@std@@V?$allocator@U?$pair@$$CBHPAVBaseGameEntity@@@std@@@3@$0A@@std@@@std@@QAEPAU?$_Tree_node@U?$pair@$$CBHPAVBaseGameEntity@@@std@@PAX@2@XZ ENDP ; std::_Tree_comp_alloc<std::_Tmap_traits<int,BaseGameEntity *,std::less<int>,std::allocator<std::pair<int const ,BaseGameEntity *> >,0> >::_Buyheadnode
; Function compile flags: /Odtp /RTCsu
; File c:\program files (x86)\microsoft visual studio\2017\community\vc\tools\msvc\14.15.26726\include\xtree
;	COMDAT ?_Orphan_all@?$_Tree_comp_alloc@V?$_Tmap_traits@HPAVBaseGameEntity@@U?$less@H@std@@V?$allocator@U?$pair@$$CBHPAVBaseGameEntity@@@std@@@3@$0A@@std@@@std@@QAEXXZ
_TEXT	SEGMENT
_this$ = -4						; size = 4
?_Orphan_all@?$_Tree_comp_alloc@V?$_Tmap_traits@HPAVBaseGameEntity@@U?$less@H@std@@V?$allocator@U?$pair@$$CBHPAVBaseGameEntity@@@std@@@3@$0A@@std@@@std@@QAEXXZ PROC ; std::_Tree_comp_alloc<std::_Tmap_traits<int,BaseGameEntity *,std::less<int>,std::allocator<std::pair<int const ,BaseGameEntity *> >,0> >::_Orphan_all, COMDAT
; _this$ = ecx

; 917  : 		{	// orphan all iterators

	push	ebp
	mov	ebp, esp
	push	ecx
	mov	DWORD PTR [ebp-4], -858993460		; ccccccccH
	mov	DWORD PTR _this$[ebp], ecx

; 918  : 		_Get_data()._Orphan_all();

	mov	ecx, DWORD PTR _this$[ebp]
	call	?_Get_data@?$_Tree_comp_alloc@V?$_Tmap_traits@HPAVBaseGameEntity@@U?$less@H@std@@V?$allocator@U?$pair@$$CBHPAVBaseGameEntity@@@std@@@3@$0A@@std@@@std@@QAEAAV?$_Tree_val@U?$_Tree_simple_types@U?$pair@$$CBHPAVBaseGameEntity@@@std@@@std@@@2@XZ ; std::_Tree_comp_alloc<std::_Tmap_traits<int,BaseGameEntity *,std::less<int>,std::allocator<std::pair<int const ,BaseGameEntity *> >,0> >::_Get_data
	mov	ecx, eax
	call	?_Orphan_all@_Container_base12@std@@QAEXXZ ; std::_Container_base12::_Orphan_all

; 919  : 		}

	add	esp, 4
	cmp	ebp, esp
	call	__RTC_CheckEsp
	mov	esp, ebp
	pop	ebp
	ret	0
?_Orphan_all@?$_Tree_comp_alloc@V?$_Tmap_traits@HPAVBaseGameEntity@@U?$less@H@std@@V?$allocator@U?$pair@$$CBHPAVBaseGameEntity@@@std@@@3@$0A@@std@@@std@@QAEXXZ ENDP ; std::_Tree_comp_alloc<std::_Tmap_traits<int,BaseGameEntity *,std::less<int>,std::allocator<std::pair<int const ,BaseGameEntity *> >,0> >::_Orphan_all
_TEXT	ENDS
; Function compile flags: /Odtp /RTCsu
; File c:\program files (x86)\microsoft visual studio\2017\community\vc\tools\msvc\14.15.26726\include\xtree
;	COMDAT ?_Myproxy@?$_Tree_comp_alloc@V?$_Tmap_traits@HPAVBaseGameEntity@@U?$less@H@std@@V?$allocator@U?$pair@$$CBHPAVBaseGameEntity@@@std@@@3@$0A@@std@@@std@@QAEAAPAU_Container_proxy@2@XZ
_TEXT	SEGMENT
_this$ = -4						; size = 4
?_Myproxy@?$_Tree_comp_alloc@V?$_Tmap_traits@HPAVBaseGameEntity@@U?$less@H@std@@V?$allocator@U?$pair@$$CBHPAVBaseGameEntity@@@std@@@3@$0A@@std@@@std@@QAEAAPAU_Container_proxy@2@XZ PROC ; std::_Tree_comp_alloc<std::_Tmap_traits<int,BaseGameEntity *,std::less<int>,std::allocator<std::pair<int const ,BaseGameEntity *> >,0> >::_Myproxy, COMDAT
; _this$ = ecx

; 866  : 		{	// return reference to _Myproxy

	push	ebp
	mov	ebp, esp
	push	ecx
	mov	DWORD PTR [ebp-4], -858993460		; ccccccccH
	mov	DWORD PTR _this$[ebp], ecx

; 867  : 		return (_Get_data()._Myproxy);

	mov	ecx, DWORD PTR _this$[ebp]
	call	?_Get_data@?$_Tree_comp_alloc@V?$_Tmap_traits@HPAVBaseGameEntity@@U?$less@H@std@@V?$allocator@U?$pair@$$CBHPAVBaseGameEntity@@@std@@@3@$0A@@std@@@std@@QAEAAV?$_Tree_val@U?$_Tree_simple_types@U?$pair@$$CBHPAVBaseGameEntity@@@std@@@std@@@2@XZ ; std::_Tree_comp_alloc<std::_Tmap_traits<int,BaseGameEntity *,std::less<int>,std::allocator<std::pair<int const ,BaseGameEntity *> >,0> >::_Get_data

; 868  : 		}

	add	esp, 4
	cmp	ebp, esp
	call	__RTC_CheckEsp
	mov	esp, ebp
	pop	ebp
	ret	0
?_Myproxy@?$_Tree_comp_alloc@V?$_Tmap_traits@HPAVBaseGameEntity@@U?$less@H@std@@V?$allocator@U?$pair@$$CBHPAVBaseGameEntity@@@std@@@3@$0A@@std@@@std@@QAEAAPAU_Container_proxy@2@XZ ENDP ; std::_Tree_comp_alloc<std::_Tmap_traits<int,BaseGameEntity *,std::less<int>,std::allocator<std::pair<int const ,BaseGameEntity *> >,0> >::_Myproxy
_TEXT	ENDS
; Function compile flags: /Odtp /RTCsu
; File c:\program files (x86)\microsoft visual studio\2017\community\vc\tools\msvc\14.15.26726\include\xtree
;	COMDAT ?_Getpfirst@?$_Tree_comp_alloc@V?$_Tmap_traits@HPAVBaseGameEntity@@U?$less@H@std@@V?$allocator@U?$pair@$$CBHPAVBaseGameEntity@@@std@@@3@$0A@@std@@@std@@QBEPAPAU_Iterator_base12@2@XZ
_TEXT	SEGMENT
_this$ = -4						; size = 4
?_Getpfirst@?$_Tree_comp_alloc@V?$_Tmap_traits@HPAVBaseGameEntity@@U?$less@H@std@@V?$allocator@U?$pair@$$CBHPAVBaseGameEntity@@@std@@@3@$0A@@std@@@std@@QBEPAPAU_Iterator_base12@2@XZ PROC ; std::_Tree_comp_alloc<std::_Tmap_traits<int,BaseGameEntity *,std::less<int>,std::allocator<std::pair<int const ,BaseGameEntity *> >,0> >::_Getpfirst, COMDAT
; _this$ = ecx

; 861  : 		{	// get address of iterator chain

	push	ebp
	mov	ebp, esp
	push	ecx
	mov	DWORD PTR [ebp-4], -858993460		; ccccccccH
	mov	DWORD PTR _this$[ebp], ecx

; 862  : 		return (_Get_data()._Getpfirst());

	mov	ecx, DWORD PTR _this$[ebp]
	call	?_Get_data@?$_Tree_comp_alloc@V?$_Tmap_traits@HPAVBaseGameEntity@@U?$less@H@std@@V?$allocator@U?$pair@$$CBHPAVBaseGameEntity@@@std@@@3@$0A@@std@@@std@@QBEABV?$_Tree_val@U?$_Tree_simple_types@U?$pair@$$CBHPAVBaseGameEntity@@@std@@@std@@@2@XZ ; std::_Tree_comp_alloc<std::_Tmap_traits<int,BaseGameEntity *,std::less<int>,std::allocator<std::pair<int const ,BaseGameEntity *> >,0> >::_Get_data
	mov	ecx, eax
	call	?_Getpfirst@_Container_base12@std@@QBEPAPAU_Iterator_base12@2@XZ ; std::_Container_base12::_Getpfirst

; 863  : 		}

	add	esp, 4
	cmp	ebp, esp
	call	__RTC_CheckEsp
	mov	esp, ebp
	pop	ebp
	ret	0
?_Getpfirst@?$_Tree_comp_alloc@V?$_Tmap_traits@HPAVBaseGameEntity@@U?$less@H@std@@V?$allocator@U?$pair@$$CBHPAVBaseGameEntity@@@std@@@3@$0A@@std@@@std@@QBEPAPAU_Iterator_base12@2@XZ ENDP ; std::_Tree_comp_alloc<std::_Tmap_traits<int,BaseGameEntity *,std::less<int>,std::allocator<std::pair<int const ,BaseGameEntity *> >,0> >::_Getpfirst
_TEXT	ENDS
; Function compile flags: /Odtp /RTCsu
; File c:\program files (x86)\microsoft visual studio\2017\community\vc\tools\msvc\14.15.26726\include\xtree
;	COMDAT ?_Free_proxy@?$_Tree_comp_alloc@V?$_Tmap_traits@HPAVBaseGameEntity@@U?$less@H@std@@V?$allocator@U?$pair@$$CBHPAVBaseGameEntity@@@std@@@3@$0A@@std@@@std@@QAEXXZ
_TEXT	SEGMENT
__Proxy_allocator$ = -9					; size = 1
_this$ = -4						; size = 4
?_Free_proxy@?$_Tree_comp_alloc@V?$_Tmap_traits@HPAVBaseGameEntity@@U?$less@H@std@@V?$allocator@U?$pair@$$CBHPAVBaseGameEntity@@@std@@@3@$0A@@std@@@std@@QAEXXZ PROC ; std::_Tree_comp_alloc<std::_Tmap_traits<int,BaseGameEntity *,std::less<int>,std::allocator<std::pair<int const ,BaseGameEntity *> >,0> >::_Free_proxy, COMDAT
; _this$ = ecx

; 852  : 		{	// destroy proxy

	push	ebp
	mov	ebp, esp
	sub	esp, 16					; 00000010H
	mov	eax, -858993460				; ccccccccH
	mov	DWORD PTR [ebp-16], eax
	mov	DWORD PTR [ebp-12], eax
	mov	DWORD PTR [ebp-8], eax
	mov	DWORD PTR [ebp-4], eax
	mov	DWORD PTR _this$[ebp], ecx

; 853  : 		_Alproxy _Proxy_allocator(_Getal());

	mov	ecx, DWORD PTR _this$[ebp]
	call	?_Getal@?$_Tree_comp_alloc@V?$_Tmap_traits@HPAVBaseGameEntity@@U?$less@H@std@@V?$allocator@U?$pair@$$CBHPAVBaseGameEntity@@@std@@@3@$0A@@std@@@std@@QAEAAV?$allocator@U?$_Tree_node@U?$pair@$$CBHPAVBaseGameEntity@@@std@@PAX@std@@@2@XZ ; std::_Tree_comp_alloc<std::_Tmap_traits<int,BaseGameEntity *,std::less<int>,std::allocator<std::pair<int const ,BaseGameEntity *> >,0> >::_Getal
	push	eax
	lea	ecx, DWORD PTR __Proxy_allocator$[ebp]
	call	??$?0U?$_Tree_node@U?$pair@$$CBHPAVBaseGameEntity@@@std@@PAX@std@@@?$allocator@U_Container_proxy@std@@@std@@QAE@ABV?$allocator@U?$_Tree_node@U?$pair@$$CBHPAVBaseGameEntity@@@std@@PAX@std@@@1@@Z ; std::allocator<std::_Container_proxy>::allocator<std::_Container_proxy><std::_Tree_node<std::pair<int const ,BaseGameEntity *>,void *> >

; 854  : 		_Orphan_all();

	mov	ecx, DWORD PTR _this$[ebp]
	call	?_Orphan_all@?$_Tree_comp_alloc@V?$_Tmap_traits@HPAVBaseGameEntity@@U?$less@H@std@@V?$allocator@U?$pair@$$CBHPAVBaseGameEntity@@@std@@@3@$0A@@std@@@std@@QAEXXZ ; std::_Tree_comp_alloc<std::_Tmap_traits<int,BaseGameEntity *,std::less<int>,std::allocator<std::pair<int const ,BaseGameEntity *> >,0> >::_Orphan_all

; 855  : 		_Alproxy_traits::destroy(_Proxy_allocator, _Myproxy());

	mov	ecx, DWORD PTR _this$[ebp]
	call	?_Myproxy@?$_Tree_comp_alloc@V?$_Tmap_traits@HPAVBaseGameEntity@@U?$less@H@std@@V?$allocator@U?$pair@$$CBHPAVBaseGameEntity@@@std@@@3@$0A@@std@@@std@@QAEAAPAU_Container_proxy@2@XZ ; std::_Tree_comp_alloc<std::_Tmap_traits<int,BaseGameEntity *,std::less<int>,std::allocator<std::pair<int const ,BaseGameEntity *> >,0> >::_Myproxy
	mov	eax, DWORD PTR [eax]
	push	eax
	lea	ecx, DWORD PTR __Proxy_allocator$[ebp]
	push	ecx
	call	??$destroy@U_Container_proxy@std@@@?$_Default_allocator_traits@V?$allocator@U_Container_proxy@std@@@std@@@std@@SAXAAV?$allocator@U_Container_proxy@std@@@1@QAU_Container_proxy@1@@Z ; std::_Default_allocator_traits<std::allocator<std::_Container_proxy> >::destroy<std::_Container_proxy>
	add	esp, 8

; 856  : 		_Deallocate_plain(_Proxy_allocator, _Myproxy());

	mov	ecx, DWORD PTR _this$[ebp]
	call	?_Myproxy@?$_Tree_comp_alloc@V?$_Tmap_traits@HPAVBaseGameEntity@@U?$less@H@std@@V?$allocator@U?$pair@$$CBHPAVBaseGameEntity@@@std@@@3@$0A@@std@@@std@@QAEAAPAU_Container_proxy@2@XZ ; std::_Tree_comp_alloc<std::_Tmap_traits<int,BaseGameEntity *,std::less<int>,std::allocator<std::pair<int const ,BaseGameEntity *> >,0> >::_Myproxy
	mov	edx, DWORD PTR [eax]
	push	edx
	lea	eax, DWORD PTR __Proxy_allocator$[ebp]
	push	eax
	call	??$_Deallocate_plain@V?$allocator@U_Container_proxy@std@@@std@@$0A@@std@@YAXAAV?$allocator@U_Container_proxy@std@@@0@QAU_Container_proxy@0@@Z ; std::_Deallocate_plain<std::allocator<std::_Container_proxy>,0>
	add	esp, 8

; 857  : 		_Myproxy() = nullptr;

	mov	ecx, DWORD PTR _this$[ebp]
	call	?_Myproxy@?$_Tree_comp_alloc@V?$_Tmap_traits@HPAVBaseGameEntity@@U?$less@H@std@@V?$allocator@U?$pair@$$CBHPAVBaseGameEntity@@@std@@@3@$0A@@std@@@std@@QAEAAPAU_Container_proxy@2@XZ ; std::_Tree_comp_alloc<std::_Tmap_traits<int,BaseGameEntity *,std::less<int>,std::allocator<std::pair<int const ,BaseGameEntity *> >,0> >::_Myproxy
	mov	DWORD PTR [eax], 0

; 858  : 		}

	push	edx
	mov	ecx, ebp
	push	eax
	lea	edx, DWORD PTR $LN5@Free_proxy
	call	@_RTC_CheckStackVars@8
	pop	eax
	pop	edx
	add	esp, 16					; 00000010H
	cmp	ebp, esp
	call	__RTC_CheckEsp
	mov	esp, ebp
	pop	ebp
	ret	0
	npad	2
$LN5@Free_proxy:
	DD	1
	DD	$LN4@Free_proxy
$LN4@Free_proxy:
	DD	-9					; fffffff7H
	DD	1
	DD	$LN3@Free_proxy
$LN3@Free_proxy:
	DB	95					; 0000005fH
	DB	80					; 00000050H
	DB	114					; 00000072H
	DB	111					; 0000006fH
	DB	120					; 00000078H
	DB	121					; 00000079H
	DB	95					; 0000005fH
	DB	97					; 00000061H
	DB	108					; 0000006cH
	DB	108					; 0000006cH
	DB	111					; 0000006fH
	DB	99					; 00000063H
	DB	97					; 00000061H
	DB	116					; 00000074H
	DB	111					; 0000006fH
	DB	114					; 00000072H
	DB	0
?_Free_proxy@?$_Tree_comp_alloc@V?$_Tmap_traits@HPAVBaseGameEntity@@U?$less@H@std@@V?$allocator@U?$pair@$$CBHPAVBaseGameEntity@@@std@@@3@$0A@@std@@@std@@QAEXXZ ENDP ; std::_Tree_comp_alloc<std::_Tmap_traits<int,BaseGameEntity *,std::less<int>,std::allocator<std::pair<int const ,BaseGameEntity *> >,0> >::_Free_proxy
_TEXT	ENDS
; Function compile flags: /Odtp /RTCsu
; File c:\program files (x86)\microsoft visual studio\2017\community\vc\tools\msvc\14.15.26726\include\xtree
;	COMDAT ?_Alloc_proxy@?$_Tree_comp_alloc@V?$_Tmap_traits@HPAVBaseGameEntity@@U?$less@H@std@@V?$allocator@U?$pair@$$CBHPAVBaseGameEntity@@@std@@@3@$0A@@std@@@std@@QAEXXZ
_TEXT	SEGMENT
$T1 = -24						; size = 8
__Proxy_allocator$ = -9					; size = 1
_this$ = -4						; size = 4
?_Alloc_proxy@?$_Tree_comp_alloc@V?$_Tmap_traits@HPAVBaseGameEntity@@U?$less@H@std@@V?$allocator@U?$pair@$$CBHPAVBaseGameEntity@@@std@@@3@$0A@@std@@@std@@QAEXXZ PROC ; std::_Tree_comp_alloc<std::_Tmap_traits<int,BaseGameEntity *,std::less<int>,std::allocator<std::pair<int const ,BaseGameEntity *> >,0> >::_Alloc_proxy, COMDAT
; _this$ = ecx

; 844  : 		{	// construct proxy

	push	ebp
	mov	ebp, esp
	sub	esp, 24					; 00000018H
	push	esi
	mov	eax, -858993460				; ccccccccH
	mov	DWORD PTR [ebp-24], eax
	mov	DWORD PTR [ebp-20], eax
	mov	DWORD PTR [ebp-16], eax
	mov	DWORD PTR [ebp-12], eax
	mov	DWORD PTR [ebp-8], eax
	mov	DWORD PTR [ebp-4], eax
	mov	DWORD PTR _this$[ebp], ecx

; 845  : 		_Alproxy _Proxy_allocator(_Getal());

	mov	ecx, DWORD PTR _this$[ebp]
	call	?_Getal@?$_Tree_comp_alloc@V?$_Tmap_traits@HPAVBaseGameEntity@@U?$less@H@std@@V?$allocator@U?$pair@$$CBHPAVBaseGameEntity@@@std@@@3@$0A@@std@@@std@@QAEAAV?$allocator@U?$_Tree_node@U?$pair@$$CBHPAVBaseGameEntity@@@std@@PAX@std@@@2@XZ ; std::_Tree_comp_alloc<std::_Tmap_traits<int,BaseGameEntity *,std::less<int>,std::allocator<std::pair<int const ,BaseGameEntity *> >,0> >::_Getal
	push	eax
	lea	ecx, DWORD PTR __Proxy_allocator$[ebp]
	call	??$?0U?$_Tree_node@U?$pair@$$CBHPAVBaseGameEntity@@@std@@PAX@std@@@?$allocator@U_Container_proxy@std@@@std@@QAE@ABV?$allocator@U?$_Tree_node@U?$pair@$$CBHPAVBaseGameEntity@@@std@@PAX@std@@@1@@Z ; std::allocator<std::_Container_proxy>::allocator<std::_Container_proxy><std::_Tree_node<std::pair<int const ,BaseGameEntity *>,void *> >

; 846  : 		_Myproxy() = _Unfancy(_Proxy_allocator.allocate(1));

	push	1
	lea	ecx, DWORD PTR __Proxy_allocator$[ebp]
	call	?allocate@?$allocator@U_Container_proxy@std@@@std@@QAEPAU_Container_proxy@2@I@Z ; std::allocator<std::_Container_proxy>::allocate
	push	eax
	call	??$_Unfancy@U_Container_proxy@std@@@std@@YAPAU_Container_proxy@0@PAU10@@Z ; std::_Unfancy<std::_Container_proxy>
	add	esp, 4
	mov	esi, eax
	mov	ecx, DWORD PTR _this$[ebp]
	call	?_Myproxy@?$_Tree_comp_alloc@V?$_Tmap_traits@HPAVBaseGameEntity@@U?$less@H@std@@V?$allocator@U?$pair@$$CBHPAVBaseGameEntity@@@std@@@3@$0A@@std@@@std@@QAEAAPAU_Container_proxy@2@XZ ; std::_Tree_comp_alloc<std::_Tmap_traits<int,BaseGameEntity *,std::less<int>,std::allocator<std::pair<int const ,BaseGameEntity *> >,0> >::_Myproxy
	mov	DWORD PTR [eax], esi

; 847  : 		_Alproxy_traits::construct(_Proxy_allocator, _Myproxy(), _Container_proxy());

	lea	ecx, DWORD PTR $T1[ebp]
	call	??0_Container_proxy@std@@QAE@XZ		; std::_Container_proxy::_Container_proxy
	push	eax
	mov	ecx, DWORD PTR _this$[ebp]
	call	?_Myproxy@?$_Tree_comp_alloc@V?$_Tmap_traits@HPAVBaseGameEntity@@U?$less@H@std@@V?$allocator@U?$pair@$$CBHPAVBaseGameEntity@@@std@@@3@$0A@@std@@@std@@QAEAAPAU_Container_proxy@2@XZ ; std::_Tree_comp_alloc<std::_Tmap_traits<int,BaseGameEntity *,std::less<int>,std::allocator<std::pair<int const ,BaseGameEntity *> >,0> >::_Myproxy
	mov	eax, DWORD PTR [eax]
	push	eax
	lea	ecx, DWORD PTR __Proxy_allocator$[ebp]
	push	ecx
	call	??$construct@U_Container_proxy@std@@U12@@?$_Default_allocator_traits@V?$allocator@U_Container_proxy@std@@@std@@@std@@SAXAAV?$allocator@U_Container_proxy@std@@@1@QAU_Container_proxy@1@$$QAU31@@Z ; std::_Default_allocator_traits<std::allocator<std::_Container_proxy> >::construct<std::_Container_proxy,std::_Container_proxy>
	add	esp, 12					; 0000000cH

; 848  : 		_Myproxy()->_Mycont = _STD addressof(_Get_data());

	mov	ecx, DWORD PTR _this$[ebp]
	call	?_Get_data@?$_Tree_comp_alloc@V?$_Tmap_traits@HPAVBaseGameEntity@@U?$less@H@std@@V?$allocator@U?$pair@$$CBHPAVBaseGameEntity@@@std@@@3@$0A@@std@@@std@@QAEAAV?$_Tree_val@U?$_Tree_simple_types@U?$pair@$$CBHPAVBaseGameEntity@@@std@@@std@@@2@XZ ; std::_Tree_comp_alloc<std::_Tmap_traits<int,BaseGameEntity *,std::less<int>,std::allocator<std::pair<int const ,BaseGameEntity *> >,0> >::_Get_data
	push	eax
	call	??$addressof@V?$_Tree_val@U?$_Tree_simple_types@U?$pair@$$CBHPAVBaseGameEntity@@@std@@@std@@@std@@@std@@YAPAV?$_Tree_val@U?$_Tree_simple_types@U?$pair@$$CBHPAVBaseGameEntity@@@std@@@std@@@0@AAV10@@Z ; std::addressof<std::_Tree_val<std::_Tree_simple_types<std::pair<int const ,BaseGameEntity *> > > >
	add	esp, 4
	mov	esi, eax
	mov	ecx, DWORD PTR _this$[ebp]
	call	?_Myproxy@?$_Tree_comp_alloc@V?$_Tmap_traits@HPAVBaseGameEntity@@U?$less@H@std@@V?$allocator@U?$pair@$$CBHPAVBaseGameEntity@@@std@@@3@$0A@@std@@@std@@QAEAAPAU_Container_proxy@2@XZ ; std::_Tree_comp_alloc<std::_Tmap_traits<int,BaseGameEntity *,std::less<int>,std::allocator<std::pair<int const ,BaseGameEntity *> >,0> >::_Myproxy
	mov	edx, DWORD PTR [eax]
	mov	DWORD PTR [edx], esi

; 849  : 		}

	push	edx
	mov	ecx, ebp
	push	eax
	lea	edx, DWORD PTR $LN5@Alloc_prox
	call	@_RTC_CheckStackVars@8
	pop	eax
	pop	edx
	pop	esi
	add	esp, 24					; 00000018H
	cmp	ebp, esp
	call	__RTC_CheckEsp
	mov	esp, ebp
	pop	ebp
	ret	0
$LN5@Alloc_prox:
	DD	1
	DD	$LN4@Alloc_prox
$LN4@Alloc_prox:
	DD	-9					; fffffff7H
	DD	1
	DD	$LN3@Alloc_prox
$LN3@Alloc_prox:
	DB	95					; 0000005fH
	DB	80					; 00000050H
	DB	114					; 00000072H
	DB	111					; 0000006fH
	DB	120					; 00000078H
	DB	121					; 00000079H
	DB	95					; 0000005fH
	DB	97					; 00000061H
	DB	108					; 0000006cH
	DB	108					; 0000006cH
	DB	111					; 0000006fH
	DB	99					; 00000063H
	DB	97					; 00000061H
	DB	116					; 00000074H
	DB	111					; 0000006fH
	DB	114					; 00000072H
	DB	0
?_Alloc_proxy@?$_Tree_comp_alloc@V?$_Tmap_traits@HPAVBaseGameEntity@@U?$less@H@std@@V?$allocator@U?$pair@$$CBHPAVBaseGameEntity@@@std@@@3@$0A@@std@@@std@@QAEXXZ ENDP ; std::_Tree_comp_alloc<std::_Tmap_traits<int,BaseGameEntity *,std::less<int>,std::allocator<std::pair<int const ,BaseGameEntity *> >,0> >::_Alloc_proxy
_TEXT	ENDS
; Function compile flags: /Odtp /RTCsu
; File c:\program files (x86)\microsoft visual studio\2017\community\vc\tools\msvc\14.15.26726\include\xtree
;	COMDAT ??1?$_Tree_comp_alloc@V?$_Tmap_traits@HPAVBaseGameEntity@@U?$less@H@std@@V?$allocator@U?$pair@$$CBHPAVBaseGameEntity@@@std@@@3@$0A@@std@@@std@@QAE@XZ
_TEXT	SEGMENT
_this$ = -16						; size = 4
__$EHRec$ = -12						; size = 12
??1?$_Tree_comp_alloc@V?$_Tmap_traits@HPAVBaseGameEntity@@U?$less@H@std@@V?$allocator@U?$pair@$$CBHPAVBaseGameEntity@@@std@@@3@$0A@@std@@@std@@QAE@XZ PROC ; std::_Tree_comp_alloc<std::_Tmap_traits<int,BaseGameEntity *,std::less<int>,std::allocator<std::pair<int const ,BaseGameEntity *> >,0> >::~_Tree_comp_alloc<std::_Tmap_traits<int,BaseGameEntity *,std::less<int>,std::allocator<std::pair<int const ,BaseGameEntity *> >,0> >, COMDAT
; _this$ = ecx

; 838  : 		{	// destroy head node, proxy

	push	ebp
	mov	ebp, esp
	push	-1
	push	__ehhandler$??1?$_Tree_comp_alloc@V?$_Tmap_traits@HPAVBaseGameEntity@@U?$less@H@std@@V?$allocator@U?$pair@$$CBHPAVBaseGameEntity@@@std@@@3@$0A@@std@@@std@@QAE@XZ
	mov	eax, DWORD PTR fs:0
	push	eax
	push	ecx
	mov	DWORD PTR [ebp-16], -858993460		; ccccccccH
	mov	eax, DWORD PTR ___security_cookie
	xor	eax, ebp
	push	eax
	lea	eax, DWORD PTR __$EHRec$[ebp]
	mov	DWORD PTR fs:0, eax
	mov	DWORD PTR _this$[ebp], ecx

; 839  : 		_Freeheadnode(_Get_data()._Myhead);

	mov	ecx, DWORD PTR _this$[ebp]
	call	?_Get_data@?$_Tree_comp_alloc@V?$_Tmap_traits@HPAVBaseGameEntity@@U?$less@H@std@@V?$allocator@U?$pair@$$CBHPAVBaseGameEntity@@@std@@@3@$0A@@std@@@std@@QAEAAV?$_Tree_val@U?$_Tree_simple_types@U?$pair@$$CBHPAVBaseGameEntity@@@std@@@std@@@2@XZ ; std::_Tree_comp_alloc<std::_Tmap_traits<int,BaseGameEntity *,std::less<int>,std::allocator<std::pair<int const ,BaseGameEntity *> >,0> >::_Get_data
	mov	eax, DWORD PTR [eax+4]
	push	eax
	mov	ecx, DWORD PTR _this$[ebp]
	call	?_Freeheadnode@?$_Tree_comp_alloc@V?$_Tmap_traits@HPAVBaseGameEntity@@U?$less@H@std@@V?$allocator@U?$pair@$$CBHPAVBaseGameEntity@@@std@@@3@$0A@@std@@@std@@QAEXPAU?$_Tree_node@U?$pair@$$CBHPAVBaseGameEntity@@@std@@PAX@2@@Z ; std::_Tree_comp_alloc<std::_Tmap_traits<int,BaseGameEntity *,std::less<int>,std::allocator<std::pair<int const ,BaseGameEntity *> >,0> >::_Freeheadnode

; 840  : 		_Free_proxy();

	mov	ecx, DWORD PTR _this$[ebp]
	call	?_Free_proxy@?$_Tree_comp_alloc@V?$_Tmap_traits@HPAVBaseGameEntity@@U?$less@H@std@@V?$allocator@U?$pair@$$CBHPAVBaseGameEntity@@@std@@@3@$0A@@std@@@std@@QAEXXZ ; std::_Tree_comp_alloc<std::_Tmap_traits<int,BaseGameEntity *,std::less<int>,std::allocator<std::pair<int const ,BaseGameEntity *> >,0> >::_Free_proxy

; 841  : 		}

	mov	ecx, DWORD PTR __$EHRec$[ebp]
	mov	DWORD PTR fs:0, ecx
	pop	ecx
	add	esp, 16					; 00000010H
	cmp	ebp, esp
	call	__RTC_CheckEsp
	mov	esp, ebp
	pop	ebp
	ret	0
_TEXT	ENDS
;	COMDAT text$x
text$x	SEGMENT
__ehhandler$??1?$_Tree_comp_alloc@V?$_Tmap_traits@HPAVBaseGameEntity@@U?$less@H@std@@V?$allocator@U?$pair@$$CBHPAVBaseGameEntity@@@std@@@3@$0A@@std@@@std@@QAE@XZ:
	mov	edx, DWORD PTR [esp+8]
	lea	eax, DWORD PTR [edx+12]
	mov	ecx, DWORD PTR [edx-8]
	xor	ecx, eax
	call	@__security_check_cookie@4
	mov	eax, OFFSET __ehfuncinfo$??1?$_Tree_comp_alloc@V?$_Tmap_traits@HPAVBaseGameEntity@@U?$less@H@std@@V?$allocator@U?$pair@$$CBHPAVBaseGameEntity@@@std@@@3@$0A@@std@@@std@@QAE@XZ
	jmp	___CxxFrameHandler3
text$x	ENDS
??1?$_Tree_comp_alloc@V?$_Tmap_traits@HPAVBaseGameEntity@@U?$less@H@std@@V?$allocator@U?$pair@$$CBHPAVBaseGameEntity@@@std@@@3@$0A@@std@@@std@@QAE@XZ ENDP ; std::_Tree_comp_alloc<std::_Tmap_traits<int,BaseGameEntity *,std::less<int>,std::allocator<std::pair<int const ,BaseGameEntity *> >,0> >::~_Tree_comp_alloc<std::_Tmap_traits<int,BaseGameEntity *,std::less<int>,std::allocator<std::pair<int const ,BaseGameEntity *> >,0> >
; Function compile flags: /Odtp /RTCsu
; File c:\program files (x86)\microsoft visual studio\2017\community\vc\tools\msvc\14.15.26726\include\xtree
;	COMDAT ?_Construct@?$_Tree_comp_alloc@V?$_Tmap_traits@HPAVBaseGameEntity@@U?$less@H@std@@V?$allocator@U?$pair@$$CBHPAVBaseGameEntity@@@std@@@3@$0A@@std@@@std@@QAEXXZ
_TEXT	SEGMENT
__My_data$ = -24					; size = 4
_this$ = -20						; size = 4
__$EHRec$ = -16						; size = 16
?_Construct@?$_Tree_comp_alloc@V?$_Tmap_traits@HPAVBaseGameEntity@@U?$less@H@std@@V?$allocator@U?$pair@$$CBHPAVBaseGameEntity@@@std@@@3@$0A@@std@@@std@@QAEXXZ PROC ; std::_Tree_comp_alloc<std::_Tmap_traits<int,BaseGameEntity *,std::less<int>,std::allocator<std::pair<int const ,BaseGameEntity *> >,0> >::_Construct, COMDAT
; _this$ = ecx

; 826  : 		{	// construct head node, proxy

	push	ebp
	mov	ebp, esp
	push	-1
	push	__ehhandler$?_Construct@?$_Tree_comp_alloc@V?$_Tmap_traits@HPAVBaseGameEntity@@U?$less@H@std@@V?$allocator@U?$pair@$$CBHPAVBaseGameEntity@@@std@@@3@$0A@@std@@@std@@QAEXXZ
	mov	eax, DWORD PTR fs:0
	push	eax
	push	ecx
	sub	esp, 8
	push	ebx
	push	esi
	push	edi
	mov	DWORD PTR [ebp-24], -858993460		; ccccccccH
	mov	DWORD PTR [ebp-20], -858993460		; ccccccccH
	mov	eax, DWORD PTR ___security_cookie
	xor	eax, ebp
	push	eax
	lea	eax, DWORD PTR __$EHRec$[ebp+4]
	mov	DWORD PTR fs:0, eax
	mov	DWORD PTR __$EHRec$[ebp], esp
	mov	DWORD PTR _this$[ebp], ecx

; 827  : 		auto& _My_data = _Get_data();

	mov	ecx, DWORD PTR _this$[ebp]
	call	?_Get_data@?$_Tree_comp_alloc@V?$_Tmap_traits@HPAVBaseGameEntity@@U?$less@H@std@@V?$allocator@U?$pair@$$CBHPAVBaseGameEntity@@@std@@@3@$0A@@std@@@std@@QAEAAV?$_Tree_val@U?$_Tree_simple_types@U?$pair@$$CBHPAVBaseGameEntity@@@std@@@std@@@2@XZ ; std::_Tree_comp_alloc<std::_Tmap_traits<int,BaseGameEntity *,std::less<int>,std::allocator<std::pair<int const ,BaseGameEntity *> >,0> >::_Get_data
	mov	DWORD PTR __My_data$[ebp], eax

; 828  : 		_My_data._Myhead = _Buyheadnode();

	mov	ecx, DWORD PTR _this$[ebp]
	call	?_Buyheadnode@?$_Tree_comp_alloc@V?$_Tmap_traits@HPAVBaseGameEntity@@U?$less@H@std@@V?$allocator@U?$pair@$$CBHPAVBaseGameEntity@@@std@@@3@$0A@@std@@@std@@QAEPAU?$_Tree_node@U?$pair@$$CBHPAVBaseGameEntity@@@std@@PAX@2@XZ ; std::_Tree_comp_alloc<std::_Tmap_traits<int,BaseGameEntity *,std::less<int>,std::allocator<std::pair<int const ,BaseGameEntity *> >,0> >::_Buyheadnode
	mov	ecx, DWORD PTR __My_data$[ebp]
	mov	DWORD PTR [ecx+4], eax

; 829  : 		_TRY_BEGIN

	mov	DWORD PTR __$EHRec$[ebp+12], 0

; 830  : 		_Alloc_proxy();

	mov	ecx, DWORD PTR _this$[ebp]
	call	?_Alloc_proxy@?$_Tree_comp_alloc@V?$_Tmap_traits@HPAVBaseGameEntity@@U?$less@H@std@@V?$allocator@U?$pair@$$CBHPAVBaseGameEntity@@@std@@@3@$0A@@std@@@std@@QAEXXZ ; std::_Tree_comp_alloc<std::_Tmap_traits<int,BaseGameEntity *,std::less<int>,std::allocator<std::pair<int const ,BaseGameEntity *> >,0> >::_Alloc_proxy
	jmp	SHORT $LN4@Construct
__catch$?_Construct@?$_Tree_comp_alloc@V?$_Tmap_traits@HPAVBaseGameEntity@@U?$less@H@std@@V?$allocator@U?$pair@$$CBHPAVBaseGameEntity@@@std@@@3@$0A@@std@@@std@@QAEXXZ$0:

; 831  : 		_CATCH_ALL
; 832  : 		_Freeheadnode(_My_data._Myhead);

	mov	edx, DWORD PTR __My_data$[ebp]
	mov	eax, DWORD PTR [edx+4]
	push	eax
	mov	ecx, DWORD PTR _this$[ebp]
	call	?_Freeheadnode@?$_Tree_comp_alloc@V?$_Tmap_traits@HPAVBaseGameEntity@@U?$less@H@std@@V?$allocator@U?$pair@$$CBHPAVBaseGameEntity@@@std@@@3@$0A@@std@@@std@@QAEXPAU?$_Tree_node@U?$pair@$$CBHPAVBaseGameEntity@@@std@@PAX@2@@Z ; std::_Tree_comp_alloc<std::_Tmap_traits<int,BaseGameEntity *,std::less<int>,std::allocator<std::pair<int const ,BaseGameEntity *> >,0> >::_Freeheadnode

; 833  : 		_RERAISE;

	push	0
	push	0
	call	__CxxThrowException@8

; 834  : 		_CATCH_END

	mov	eax, $LN7@Construct
	ret	0
$LN4@Construct:
	mov	DWORD PTR __$EHRec$[ebp+12], -1
	jmp	SHORT $LN3@Construct
$LN7@Construct:
	mov	DWORD PTR __$EHRec$[ebp+12], -1
$LN3@Construct:

; 835  : 		}

	mov	ecx, DWORD PTR __$EHRec$[ebp+4]
	mov	DWORD PTR fs:0, ecx
	pop	ecx
	pop	edi
	pop	esi
	pop	ebx
	add	esp, 24					; 00000018H
	cmp	ebp, esp
	call	__RTC_CheckEsp
	mov	esp, ebp
	pop	ebp
	ret	0
_TEXT	ENDS
;	COMDAT text$x
text$x	SEGMENT
__ehhandler$?_Construct@?$_Tree_comp_alloc@V?$_Tmap_traits@HPAVBaseGameEntity@@U?$less@H@std@@V?$allocator@U?$pair@$$CBHPAVBaseGameEntity@@@std@@@3@$0A@@std@@@std@@QAEXXZ:
	mov	edx, DWORD PTR [esp+8]
	lea	eax, DWORD PTR [edx+12]
	mov	ecx, DWORD PTR [edx-28]
	xor	ecx, eax
	call	@__security_check_cookie@4
	mov	eax, OFFSET __ehfuncinfo$?_Construct@?$_Tree_comp_alloc@V?$_Tmap_traits@HPAVBaseGameEntity@@U?$less@H@std@@V?$allocator@U?$pair@$$CBHPAVBaseGameEntity@@@std@@@3@$0A@@std@@@std@@QAEXXZ
	jmp	___CxxFrameHandler3
text$x	ENDS
?_Construct@?$_Tree_comp_alloc@V?$_Tmap_traits@HPAVBaseGameEntity@@U?$less@H@std@@V?$allocator@U?$pair@$$CBHPAVBaseGameEntity@@@std@@@3@$0A@@std@@@std@@QAEXXZ ENDP ; std::_Tree_comp_alloc<std::_Tmap_traits<int,BaseGameEntity *,std::less<int>,std::allocator<std::pair<int const ,BaseGameEntity *> >,0> >::_Construct
; Function compile flags: /Odtp /RTCsu
; File c:\program files (x86)\microsoft visual studio\2017\community\vc\tools\msvc\14.15.26726\include\xtree
;	COMDAT ??0?$_Tree_comp_alloc@V?$_Tmap_traits@HPAVBaseGameEntity@@U?$less@H@std@@V?$allocator@U?$pair@$$CBHPAVBaseGameEntity@@@std@@@3@$0A@@std@@@std@@QAE@ABU?$less@H@1@@Z
_TEXT	SEGMENT
$T1 = -6						; size = 1
$T2 = -5						; size = 1
_this$ = -4						; size = 4
__Parg$ = 8						; size = 4
??0?$_Tree_comp_alloc@V?$_Tmap_traits@HPAVBaseGameEntity@@U?$less@H@std@@V?$allocator@U?$pair@$$CBHPAVBaseGameEntity@@@std@@@3@$0A@@std@@@std@@QAE@ABU?$less@H@1@@Z PROC ; std::_Tree_comp_alloc<std::_Tmap_traits<int,BaseGameEntity *,std::less<int>,std::allocator<std::pair<int const ,BaseGameEntity *> >,0> >::_Tree_comp_alloc<std::_Tmap_traits<int,BaseGameEntity *,std::less<int>,std::allocator<std::pair<int const ,BaseGameEntity *> >,0> >, COMDAT
; _this$ = ecx

; 791  : 		{	// construct from comparator

	push	ebp
	mov	ebp, esp
	sub	esp, 8
	mov	DWORD PTR [ebp-8], -858993460		; ccccccccH
	mov	DWORD PTR [ebp-4], -858993460		; ccccccccH
	mov	DWORD PTR _this$[ebp], ecx

; 789  : 		: _Mypair(_One_then_variadic_args_t(), _Parg,

	lea	eax, DWORD PTR $T2[ebp]
	push	eax
	mov	ecx, DWORD PTR __Parg$[ebp]
	push	ecx
	movzx	edx, BYTE PTR $T1[ebp]
	push	edx
	mov	ecx, DWORD PTR _this$[ebp]
	call	??$?0ABU?$less@H@std@@U_Zero_then_variadic_args_t@1@@?$_Compressed_pair@U?$less@H@std@@V?$_Compressed_pair@V?$allocator@U?$_Tree_node@U?$pair@$$CBHPAVBaseGameEntity@@@std@@PAX@std@@@std@@V?$_Tree_val@U?$_Tree_simple_types@U?$pair@$$CBHPAVBaseGameEntity@@@std@@@std@@@2@$00@2@$00@std@@QAE@U_One_then_variadic_args_t@1@ABU?$less@H@1@$$QAU_Zero_then_variadic_args_t@1@@Z ; std::_Compressed_pair<std::less<int>,std::_Compressed_pair<std::allocator<std::_Tree_node<std::pair<int const ,BaseGameEntity *>,void *> >,std::_Tree_val<std::_Tree_simple_types<std::pair<int const ,BaseGameEntity *> > >,1>,1>::_Compressed_pair<std::less<int>,std::_Compressed_pair<std::allocator<std::_Tree_node<std::pair<int const ,BaseGameEntity *>,void *> >,std::_Tree_val<std::_Tree_simple_types<std::pair<int const ,BaseGameEntity *> > >,1>,1><std::less<int> const &,std::_Zero_then_variadic_args_t>

; 792  : 		_Construct();

	mov	ecx, DWORD PTR _this$[ebp]
	call	?_Construct@?$_Tree_comp_alloc@V?$_Tmap_traits@HPAVBaseGameEntity@@U?$less@H@std@@V?$allocator@U?$pair@$$CBHPAVBaseGameEntity@@@std@@@3@$0A@@std@@@std@@QAEXXZ ; std::_Tree_comp_alloc<std::_Tmap_traits<int,BaseGameEntity *,std::less<int>,std::allocator<std::pair<int const ,BaseGameEntity *> >,0> >::_Construct

; 793  : 		}

	mov	eax, DWORD PTR _this$[ebp]
	add	esp, 8
	cmp	ebp, esp
	call	__RTC_CheckEsp
	mov	esp, ebp
	pop	ebp
	ret	4
??0?$_Tree_comp_alloc@V?$_Tmap_traits@HPAVBaseGameEntity@@U?$less@H@std@@V?$allocator@U?$pair@$$CBHPAVBaseGameEntity@@@std@@@3@$0A@@std@@@std@@QAE@ABU?$less@H@1@@Z ENDP ; std::_Tree_comp_alloc<std::_Tmap_traits<int,BaseGameEntity *,std::less<int>,std::allocator<std::pair<int const ,BaseGameEntity *> >,0> >::_Tree_comp_alloc<std::_Tmap_traits<int,BaseGameEntity *,std::less<int>,std::allocator<std::pair<int const ,BaseGameEntity *> >,0> >
_TEXT	ENDS
; Function compile flags: /Odtp /RTCsu
; File c:\program files (x86)\microsoft visual studio\2017\community\vc\tools\msvc\14.15.26726\include\xmemory0
;	COMDAT ?max_size@?$_Default_allocator_traits@V?$allocator@U?$_Tree_node@U?$pair@$$CBHPAVBaseGameEntity@@@std@@PAX@std@@@std@@@std@@SAIABV?$allocator@U?$_Tree_node@U?$pair@$$CBHPAVBaseGameEntity@@@std@@PAX@std@@@2@@Z
_TEXT	SEGMENT
___formal$ = 8						; size = 4
?max_size@?$_Default_allocator_traits@V?$allocator@U?$_Tree_node@U?$pair@$$CBHPAVBaseGameEntity@@@std@@PAX@std@@@std@@@std@@SAIABV?$allocator@U?$_Tree_node@U?$pair@$$CBHPAVBaseGameEntity@@@std@@PAX@std@@@2@@Z PROC ; std::_Default_allocator_traits<std::allocator<std::_Tree_node<std::pair<int const ,BaseGameEntity *>,void *> > >::max_size, COMDAT

; 891  : 		{	// get maximum size

	push	ebp
	mov	ebp, esp

; 892  : 		return (static_cast<size_t>(-1) / sizeof(value_type));

	mov	eax, 178956970				; 0aaaaaaaH

; 893  : 		}

	pop	ebp
	ret	0
?max_size@?$_Default_allocator_traits@V?$allocator@U?$_Tree_node@U?$pair@$$CBHPAVBaseGameEntity@@@std@@PAX@std@@@std@@@std@@SAIABV?$allocator@U?$_Tree_node@U?$pair@$$CBHPAVBaseGameEntity@@@std@@PAX@std@@@2@@Z ENDP ; std::_Default_allocator_traits<std::allocator<std::_Tree_node<std::pair<int const ,BaseGameEntity *>,void *> > >::max_size
_TEXT	ENDS
; Function compile flags: /Odtp /RTCsu
; File c:\program files (x86)\microsoft visual studio\2017\community\vc\tools\msvc\14.15.26726\include\xmemory0
;	COMDAT ?deallocate@?$_Default_allocator_traits@V?$allocator@U?$_Tree_node@U?$pair@$$CBHPAVBaseGameEntity@@@std@@PAX@std@@@std@@@std@@SAXAAV?$allocator@U?$_Tree_node@U?$pair@$$CBHPAVBaseGameEntity@@@std@@PAX@std@@@2@QAU?$_Tree_node@U?$pair@$$CBHPAVBaseGameEntity@@@std@@PAX@2@I@Z
_TEXT	SEGMENT
___formal$ = 8						; size = 4
__Ptr$ = 12						; size = 4
__Count$ = 16						; size = 4
?deallocate@?$_Default_allocator_traits@V?$allocator@U?$_Tree_node@U?$pair@$$CBHPAVBaseGameEntity@@@std@@PAX@std@@@std@@@std@@SAXAAV?$allocator@U?$_Tree_node@U?$pair@$$CBHPAVBaseGameEntity@@@std@@PAX@std@@@2@QAU?$_Tree_node@U?$pair@$$CBHPAVBaseGameEntity@@@std@@PAX@2@I@Z PROC ; std::_Default_allocator_traits<std::allocator<std::_Tree_node<std::pair<int const ,BaseGameEntity *>,void *> > >::deallocate, COMDAT

; 871  : 		{	// deallocate _Count elements at _Ptr

	push	ebp
	mov	ebp, esp

; 872  : 		// no overflow check on the following multiply; we assume _Allocate did that check
; 873  : 		_Deallocate<_New_alignof<value_type>>(_Ptr, sizeof(value_type) * _Count);

	imul	eax, DWORD PTR __Count$[ebp], 24
	push	eax
	mov	ecx, DWORD PTR __Ptr$[ebp]
	push	ecx
	call	??$_Deallocate@$07$0A@@std@@YAXPAXI@Z	; std::_Deallocate<8,0>
	add	esp, 8

; 874  : 		}

	cmp	ebp, esp
	call	__RTC_CheckEsp
	pop	ebp
	ret	0
?deallocate@?$_Default_allocator_traits@V?$allocator@U?$_Tree_node@U?$pair@$$CBHPAVBaseGameEntity@@@std@@PAX@std@@@std@@@std@@SAXAAV?$allocator@U?$_Tree_node@U?$pair@$$CBHPAVBaseGameEntity@@@std@@PAX@std@@@2@QAU?$_Tree_node@U?$pair@$$CBHPAVBaseGameEntity@@@std@@PAX@2@I@Z ENDP ; std::_Default_allocator_traits<std::allocator<std::_Tree_node<std::pair<int const ,BaseGameEntity *>,void *> > >::deallocate
_TEXT	ENDS
; Function compile flags: /Odtp /RTCsu
; File c:\program files (x86)\microsoft visual studio\2017\community\vc\tools\msvc\14.15.26726\include\xmemory0
;	COMDAT ?allocate@?$allocator@U?$_Tree_node@U?$pair@$$CBHPAVBaseGameEntity@@@std@@PAX@std@@@std@@QAEPAU?$_Tree_node@U?$pair@$$CBHPAVBaseGameEntity@@@std@@PAX@2@I@Z
_TEXT	SEGMENT
_this$ = -4						; size = 4
__Count$ = 8						; size = 4
?allocate@?$allocator@U?$_Tree_node@U?$pair@$$CBHPAVBaseGameEntity@@@std@@PAX@std@@@std@@QAEPAU?$_Tree_node@U?$pair@$$CBHPAVBaseGameEntity@@@std@@PAX@2@I@Z PROC ; std::allocator<std::_Tree_node<std::pair<int const ,BaseGameEntity *>,void *> >::allocate, COMDAT
; _this$ = ecx

; 996  : 		{	// allocate array of _Count elements

	push	ebp
	mov	ebp, esp
	push	ecx
	mov	DWORD PTR [ebp-4], -858993460		; ccccccccH
	mov	DWORD PTR _this$[ebp], ecx

; 997  : 		return (static_cast<_Ty *>(_Allocate<_New_alignof<_Ty>>(_Get_size_of_n<sizeof(_Ty)>(_Count))));

	mov	eax, DWORD PTR __Count$[ebp]
	push	eax
	call	??$_Get_size_of_n@$0BI@@std@@YAII@Z	; std::_Get_size_of_n<24>
	add	esp, 4
	push	eax
	call	??$_Allocate@$07U_Default_allocate_traits@std@@$0A@@std@@YAPAXI@Z ; std::_Allocate<8,std::_Default_allocate_traits,0>
	add	esp, 4

; 998  : 		}

	add	esp, 4
	cmp	ebp, esp
	call	__RTC_CheckEsp
	mov	esp, ebp
	pop	ebp
	ret	4
?allocate@?$allocator@U?$_Tree_node@U?$pair@$$CBHPAVBaseGameEntity@@@std@@PAX@std@@@std@@QAEPAU?$_Tree_node@U?$pair@$$CBHPAVBaseGameEntity@@@std@@PAX@2@I@Z ENDP ; std::allocator<std::_Tree_node<std::pair<int const ,BaseGameEntity *>,void *> >::allocate
_TEXT	ENDS
; Function compile flags: /Odtp /RTCsu
; File c:\program files (x86)\microsoft visual studio\2017\community\vc\tools\msvc\14.15.26726\include\xmemory0
;	COMDAT ?deallocate@?$allocator@U?$_Tree_node@U?$pair@$$CBHPAVBaseGameEntity@@@std@@PAX@std@@@std@@QAEXQAU?$_Tree_node@U?$pair@$$CBHPAVBaseGameEntity@@@std@@PAX@2@I@Z
_TEXT	SEGMENT
_this$ = -4						; size = 4
__Ptr$ = 8						; size = 4
__Count$ = 12						; size = 4
?deallocate@?$allocator@U?$_Tree_node@U?$pair@$$CBHPAVBaseGameEntity@@@std@@PAX@std@@@std@@QAEXQAU?$_Tree_node@U?$pair@$$CBHPAVBaseGameEntity@@@std@@PAX@2@I@Z PROC ; std::allocator<std::_Tree_node<std::pair<int const ,BaseGameEntity *>,void *> >::deallocate, COMDAT
; _this$ = ecx

; 990  : 		{	// deallocate object at _Ptr

	push	ebp
	mov	ebp, esp
	push	ecx
	mov	DWORD PTR [ebp-4], -858993460		; ccccccccH
	mov	DWORD PTR _this$[ebp], ecx

; 991  : 		// no overflow check on the following multiply; we assume _Allocate did that check
; 992  : 		_Deallocate<_New_alignof<_Ty>>(_Ptr, sizeof(_Ty) * _Count);

	imul	eax, DWORD PTR __Count$[ebp], 24
	push	eax
	mov	ecx, DWORD PTR __Ptr$[ebp]
	push	ecx
	call	??$_Deallocate@$07$0A@@std@@YAXPAXI@Z	; std::_Deallocate<8,0>
	add	esp, 8

; 993  : 		}

	add	esp, 4
	cmp	ebp, esp
	call	__RTC_CheckEsp
	mov	esp, ebp
	pop	ebp
	ret	8
?deallocate@?$allocator@U?$_Tree_node@U?$pair@$$CBHPAVBaseGameEntity@@@std@@PAX@std@@@std@@QAEXQAU?$_Tree_node@U?$pair@$$CBHPAVBaseGameEntity@@@std@@PAX@2@I@Z ENDP ; std::allocator<std::_Tree_node<std::pair<int const ,BaseGameEntity *>,void *> >::deallocate
_TEXT	ENDS
; Function compile flags: /Odtp /RTCsu
; File c:\program files (x86)\microsoft visual studio\2017\community\vc\tools\msvc\14.15.26726\include\xmemory0
;	COMDAT ??0?$allocator@U?$_Tree_node@U?$pair@$$CBHPAVBaseGameEntity@@@std@@PAX@std@@@std@@QAE@XZ
_TEXT	SEGMENT
_this$ = -4						; size = 4
??0?$allocator@U?$_Tree_node@U?$pair@$$CBHPAVBaseGameEntity@@@std@@PAX@std@@@std@@QAE@XZ PROC ; std::allocator<std::_Tree_node<std::pair<int const ,BaseGameEntity *>,void *> >::allocator<std::_Tree_node<std::pair<int const ,BaseGameEntity *>,void *> >, COMDAT
; _this$ = ecx

; 979  : 	constexpr allocator() noexcept

	push	ebp
	mov	ebp, esp
	push	ecx
	mov	DWORD PTR [ebp-4], -858993460		; ccccccccH
	mov	DWORD PTR _this$[ebp], ecx

; 980  : 		{	// construct default allocator (do nothing)
; 981  : 		}

	mov	eax, DWORD PTR _this$[ebp]
	mov	esp, ebp
	pop	ebp
	ret	0
??0?$allocator@U?$_Tree_node@U?$pair@$$CBHPAVBaseGameEntity@@@std@@PAX@std@@@std@@QAE@XZ ENDP ; std::allocator<std::_Tree_node<std::pair<int const ,BaseGameEntity *>,void *> >::allocator<std::_Tree_node<std::pair<int const ,BaseGameEntity *>,void *> >
_TEXT	ENDS
; Function compile flags: /Odtp /RTCsu
; File c:\program files (x86)\microsoft visual studio\2017\community\vc\tools\msvc\14.15.26726\include\xmemory0
;	COMDAT ?_Adjust_manually_vector_aligned@std@@YAXAAPAXAAI@Z
_TEXT	SEGMENT
__Back_shift$ = -16					; size = 4
__Min_back_shift$ = -12					; size = 4
__Ptr_container$ = -8					; size = 4
__Ptr_user$ = -4					; size = 4
__Ptr$ = 8						; size = 4
__Bytes$ = 12						; size = 4
?_Adjust_manually_vector_aligned@std@@YAXAAPAXAAI@Z PROC ; std::_Adjust_manually_vector_aligned, COMDAT

; 114  : 	{	// adjust parameters from _Allocate_manually_vector_aligned to pass to operator delete

	push	ebp
	mov	ebp, esp
	sub	esp, 16					; 00000010H
	mov	eax, -858993460				; ccccccccH
	mov	DWORD PTR [ebp-16], eax
	mov	DWORD PTR [ebp-12], eax
	mov	DWORD PTR [ebp-8], eax
	mov	DWORD PTR [ebp-4], eax

; 115  : 	_Bytes += _Non_user_size;

	mov	eax, DWORD PTR __Bytes$[ebp]
	mov	ecx, DWORD PTR [eax]
	add	ecx, 39					; 00000027H
	mov	edx, DWORD PTR __Bytes$[ebp]
	mov	DWORD PTR [edx], ecx

; 116  : 
; 117  : 	const uintptr_t * const _Ptr_user = reinterpret_cast<uintptr_t *>(_Ptr);

	mov	eax, DWORD PTR __Ptr$[ebp]
	mov	ecx, DWORD PTR [eax]
	mov	DWORD PTR __Ptr_user$[ebp], ecx

; 118  : 	const uintptr_t _Ptr_container = _Ptr_user[-1];

	mov	edx, 4
	imul	eax, edx, -1
	mov	ecx, DWORD PTR __Ptr_user$[ebp]
	mov	edx, DWORD PTR [ecx+eax]
	mov	DWORD PTR __Ptr_container$[ebp], edx
$LN4@Adjust_man:

; 119  : 
; 120  : 	// If the following asserts, it likely means that we are performing
; 121  : 	// an aligned delete on memory coming from an unaligned allocation.
; 122  : 	_STL_ASSERT(_Ptr_user[-2] == _Big_allocation_sentinel, "invalid argument");

	mov	eax, 4
	imul	ecx, eax, -2
	mov	edx, DWORD PTR __Ptr_user$[ebp]
	cmp	DWORD PTR [edx+ecx], -84215046		; fafafafaH
	jne	SHORT $LN7@Adjust_man
	jmp	SHORT $LN2@Adjust_man
$LN7@Adjust_man:
	push	OFFSET ??_C@_0BB@FCMFBGOM@invalid?5argument@
	push	OFFSET ??_C@_02DKCKIIND@?$CFs@
	push	0
	push	122					; 0000007aH
	push	OFFSET ??_C@_0GJ@CAJJPMGE@c?3?2program?5files?5?$CIx86?$CJ?2microsof@
	push	2
	call	__CrtDbgReport
	add	esp, 24					; 00000018H
	cmp	eax, 1
	jne	SHORT $LN19@Adjust_man
	int	3
$LN19@Adjust_man:
	push	0
	push	122					; 0000007aH
	push	OFFSET ??_C@_1NC@ICJKIMIP@?$AAc?$AA?3?$AA?2?$AAp?$AAr?$AAo?$AAg?$AAr?$AAa?$AAm?$AA?5?$AAf?$AAi?$AAl?$AAe@
	push	OFFSET ??_C@_1EK@NIFDJFDG@?$AAs?$AAt?$AAd?$AA?3?$AA?3?$AA_?$AAA?$AAd?$AAj?$AAu?$AAs?$AAt?$AA_?$AAm?$AAa@
	push	OFFSET ??_C@_1CG@JNLFBNGN@?$AA?$CC?$AAi?$AAn?$AAv?$AAa?$AAl?$AAi?$AAd?$AA?5?$AAa?$AAr?$AAg?$AAu?$AAm?$AAe@
	call	__invalid_parameter
	add	esp, 20					; 00000014H
	xor	ecx, ecx
	jne	SHORT $LN7@Adjust_man
$LN2@Adjust_man:
	xor	edx, edx
	jne	SHORT $LN4@Adjust_man

; 123  : 
; 124  : 	// Extra paranoia on aligned allocation/deallocation; ensure _Ptr_container is
; 125  : 	// in range [_Min_back_shift, _Non_user_size]
; 126  :   #ifdef _DEBUG
; 127  : 	constexpr uintptr_t _Min_back_shift = 2 * sizeof(void *);

	mov	DWORD PTR __Min_back_shift$[ebp], 8

; 128  :   #else /* ^^^ _DEBUG ^^^ // vvv !_DEBUG vvv */
; 129  : 	constexpr uintptr_t _Min_back_shift = sizeof(void *);
; 130  :   #endif /* _DEBUG */
; 131  : 	const uintptr_t _Back_shift = reinterpret_cast<uintptr_t>(_Ptr) - _Ptr_container;

	mov	eax, DWORD PTR __Ptr$[ebp]
	mov	ecx, DWORD PTR [eax]
	sub	ecx, DWORD PTR __Ptr_container$[ebp]
	mov	DWORD PTR __Back_shift$[ebp], ecx
$LN10@Adjust_man:

; 132  : 	_STL_VERIFY(_Back_shift >= _Min_back_shift && _Back_shift <= _Non_user_size, "invalid argument");

	cmp	DWORD PTR __Back_shift$[ebp], 8
	jb	SHORT $LN13@Adjust_man
	cmp	DWORD PTR __Back_shift$[ebp], 39	; 00000027H
	ja	SHORT $LN13@Adjust_man
	jmp	SHORT $LN8@Adjust_man
$LN13@Adjust_man:
	push	OFFSET ??_C@_0BB@FCMFBGOM@invalid?5argument@
	push	OFFSET ??_C@_02DKCKIIND@?$CFs@
	push	0
	push	132					; 00000084H
	push	OFFSET ??_C@_0GJ@CAJJPMGE@c?3?2program?5files?5?$CIx86?$CJ?2microsof@
	push	2
	call	__CrtDbgReport
	add	esp, 24					; 00000018H
	cmp	eax, 1
	jne	SHORT $LN20@Adjust_man
	int	3
$LN20@Adjust_man:
	push	0
	push	132					; 00000084H
	push	OFFSET ??_C@_1NC@ICJKIMIP@?$AAc?$AA?3?$AA?2?$AAp?$AAr?$AAo?$AAg?$AAr?$AAa?$AAm?$AA?5?$AAf?$AAi?$AAl?$AAe@
	push	OFFSET ??_C@_1EK@NIFDJFDG@?$AAs?$AAt?$AAd?$AA?3?$AA?3?$AA_?$AAA?$AAd?$AAj?$AAu?$AAs?$AAt?$AA_?$AAm?$AAa@
	push	OFFSET ??_C@_1CG@JNLFBNGN@?$AA?$CC?$AAi?$AAn?$AAv?$AAa?$AAl?$AAi?$AAd?$AA?5?$AAa?$AAr?$AAg?$AAu?$AAm?$AAe@
	call	__invalid_parameter
	add	esp, 20					; 00000014H
	xor	eax, eax
	jne	SHORT $LN13@Adjust_man
$LN8@Adjust_man:
	xor	ecx, ecx
	jne	SHORT $LN10@Adjust_man

; 133  : 	_Ptr = reinterpret_cast<void *>(_Ptr_container);

	mov	edx, DWORD PTR __Ptr$[ebp]
	mov	eax, DWORD PTR __Ptr_container$[ebp]
	mov	DWORD PTR [edx], eax

; 134  : 	}

	add	esp, 16					; 00000010H
	cmp	ebp, esp
	call	__RTC_CheckEsp
	mov	esp, ebp
	pop	ebp
	ret	0
?_Adjust_manually_vector_aligned@std@@YAXAAPAXAAI@Z ENDP ; std::_Adjust_manually_vector_aligned
_TEXT	ENDS
; Function compile flags: /Odtp /RTCsu
; File c:\program files (x86)\microsoft visual studio\2017\community\vc\tools\msvc\14.15.26726\include\xmemory0
;	COMDAT ?_Allocate@_Default_allocate_traits@std@@SAPAXI@Z
_TEXT	SEGMENT
__Bytes$ = 8						; size = 4
?_Allocate@_Default_allocate_traits@std@@SAPAXI@Z PROC	; std::_Default_allocate_traits::_Allocate, COMDAT

; 51   : 		{

	push	ebp
	mov	ebp, esp

; 52   : 		return (::operator new(_Bytes));

	mov	eax, DWORD PTR __Bytes$[ebp]
	push	eax
	call	??2@YAPAXI@Z				; operator new
	add	esp, 4

; 53   : 		}

	cmp	ebp, esp
	call	__RTC_CheckEsp
	pop	ebp
	ret	0
?_Allocate@_Default_allocate_traits@std@@SAPAXI@Z ENDP	; std::_Default_allocate_traits::_Allocate
_TEXT	ENDS
; Function compile flags: /Odtp /RTCsu
; File c:\program files (x86)\microsoft visual studio\2017\community\vc\tools\msvc\14.15.26726\include\limits
;	COMDAT ?max@?$numeric_limits@N@std@@SANXZ
_TEXT	SEGMENT
?max@?$numeric_limits@N@std@@SANXZ PROC			; std::numeric_limits<double>::max, COMDAT

; 1062 : 		{	// return maximum value

	push	ebp
	mov	ebp, esp

; 1063 : 		return (DBL_MAX);

	fld	QWORD PTR __real@7fefffffffffffff

; 1064 : 		}

	pop	ebp
	ret	0
?max@?$numeric_limits@N@std@@SANXZ ENDP			; std::numeric_limits<double>::max
_TEXT	ENDS
; Function compile flags: /Odtp /RTCsu
; File c:\program files (x86)\microsoft visual studio\2017\community\vc\tools\msvc\14.15.26726\include\limits
;	COMDAT ?min@?$numeric_limits@N@std@@SANXZ
_TEXT	SEGMENT
?min@?$numeric_limits@N@std@@SANXZ PROC			; std::numeric_limits<double>::min, COMDAT

; 1057 : 		{	// return minimum value

	push	ebp
	mov	ebp, esp

; 1058 : 		return (DBL_MIN);

	fld	QWORD PTR __real@0010000000000000

; 1059 : 		}

	pop	ebp
	ret	0
?min@?$numeric_limits@N@std@@SANXZ ENDP			; std::numeric_limits<double>::min
_TEXT	ENDS
; Function compile flags: /Odtp /RTCsu
; File c:\program files (x86)\microsoft visual studio\2017\community\vc\tools\msvc\14.15.26726\include\limits
;	COMDAT ?max@?$numeric_limits@M@std@@SAMXZ
_TEXT	SEGMENT
?max@?$numeric_limits@M@std@@SAMXZ PROC			; std::numeric_limits<float>::max, COMDAT

; 1003 : 		{	// return maximum value

	push	ebp
	mov	ebp, esp

; 1004 : 		return (FLT_MAX);

	fld	DWORD PTR __real@7f7fffff

; 1005 : 		}

	pop	ebp
	ret	0
?max@?$numeric_limits@M@std@@SAMXZ ENDP			; std::numeric_limits<float>::max
_TEXT	ENDS
; Function compile flags: /Odtp /RTCsu
; File c:\program files (x86)\microsoft visual studio\2017\community\vc\tools\msvc\14.15.26726\include\limits
;	COMDAT ?min@?$numeric_limits@M@std@@SAMXZ
_TEXT	SEGMENT
?min@?$numeric_limits@M@std@@SAMXZ PROC			; std::numeric_limits<float>::min, COMDAT

; 998  : 		{	// return minimum value

	push	ebp
	mov	ebp, esp

; 999  : 		return (FLT_MIN);

	fld	DWORD PTR __real@00800000

; 1000 : 		}

	pop	ebp
	ret	0
?min@?$numeric_limits@M@std@@SAMXZ ENDP			; std::numeric_limits<float>::min
_TEXT	ENDS
; Function compile flags: /Odtp /RTCsu
; File c:\program files (x86)\microsoft visual studio\2017\community\vc\tools\msvc\14.15.26726\include\limits
;	COMDAT ?max@?$numeric_limits@H@std@@SAHXZ
_TEXT	SEGMENT
?max@?$numeric_limits@H@std@@SAHXZ PROC			; std::numeric_limits<int>::max, COMDAT

; 616  : 		{	// return maximum value

	push	ebp
	mov	ebp, esp

; 617  : 		return (INT_MAX);

	mov	eax, 2147483647				; 7fffffffH

; 618  : 		}

	pop	ebp
	ret	0
?max@?$numeric_limits@H@std@@SAHXZ ENDP			; std::numeric_limits<int>::max
_TEXT	ENDS
; Function compile flags: /Odtp /RTCsu
; File c:\program files (x86)\microsoft visual studio\2017\community\vc\tools\msvc\14.15.26726\include\xutility
;	COMDAT ?_Orphan_me@_Iterator_base12@std@@QAEXXZ
_TEXT	SEGMENT
__Pnext$1 = -8						; size = 4
_this$ = -4						; size = 4
?_Orphan_me@_Iterator_base12@std@@QAEXXZ PROC		; std::_Iterator_base12::_Orphan_me, COMDAT
; _this$ = ecx

; 191  : 		{	// cut ties with parent

	push	ebp
	mov	ebp, esp
	sub	esp, 8
	mov	DWORD PTR [ebp-8], -858993460		; ccccccccH
	mov	DWORD PTR [ebp-4], -858993460		; ccccccccH
	mov	DWORD PTR _this$[ebp], ecx

; 192  :  #if _ITERATOR_DEBUG_LEVEL == 2
; 193  : 		if (_Myproxy != nullptr)

	mov	eax, DWORD PTR _this$[ebp]
	cmp	DWORD PTR [eax], 0
	je	$LN13@Orphan_me

; 194  : 			{	// adopted, remove self from list
; 195  : 			_Iterator_base12 **_Pnext = &_Myproxy->_Myfirstiter;

	mov	ecx, DWORD PTR _this$[ebp]
	mov	edx, DWORD PTR [ecx]
	add	edx, 4
	mov	DWORD PTR __Pnext$1[ebp], edx
$LN2@Orphan_me:

; 196  : 			while (*_Pnext != nullptr && *_Pnext != this)

	mov	eax, DWORD PTR __Pnext$1[ebp]
	cmp	DWORD PTR [eax], 0
	je	SHORT $LN6@Orphan_me
	mov	ecx, DWORD PTR __Pnext$1[ebp]
	mov	edx, DWORD PTR [ecx]
	cmp	edx, DWORD PTR _this$[ebp]
	je	SHORT $LN6@Orphan_me

; 197  : 				_Pnext = &(*_Pnext)->_Mynextiter;

	mov	eax, DWORD PTR __Pnext$1[ebp]
	mov	ecx, DWORD PTR [eax]
	add	ecx, 4
	mov	DWORD PTR __Pnext$1[ebp], ecx
	jmp	SHORT $LN2@Orphan_me
$LN6@Orphan_me:

; 198  : 
; 199  : 			_STL_VERIFY(*_Pnext, "ITERATOR LIST CORRUPTED!");

	mov	edx, DWORD PTR __Pnext$1[ebp]
	cmp	DWORD PTR [edx], 0
	je	SHORT $LN9@Orphan_me
	jmp	SHORT $LN4@Orphan_me
$LN9@Orphan_me:
	push	OFFSET ??_C@_0BJ@LFDBABJJ@ITERATOR?5LIST?5CORRUPTED?$CB@
	push	OFFSET ??_C@_02DKCKIIND@?$CFs@
	push	0
	push	199					; 000000c7H
	push	OFFSET ??_C@_0GJ@DMCEMOMH@c?3?2program?5files?5?$CIx86?$CJ?2microsof@
	push	2
	call	__CrtDbgReport
	add	esp, 24					; 00000018H
	cmp	eax, 1
	jne	SHORT $LN14@Orphan_me
	int	3
$LN14@Orphan_me:
	push	0
	push	199					; 000000c7H
	push	OFFSET ??_C@_1NC@HPHBFJCM@?$AAc?$AA?3?$AA?2?$AAp?$AAr?$AAo?$AAg?$AAr?$AAa?$AAm?$AA?5?$AAf?$AAi?$AAl?$AAe@
	push	OFFSET ??_C@_1EE@KLDMFDFL@?$AAs?$AAt?$AAd?$AA?3?$AA?3?$AA_?$AAI?$AAt?$AAe?$AAr?$AAa?$AAt?$AAo?$AAr?$AA_@
	push	OFFSET ??_C@_1DG@PLBPCAEM@?$AA?$CC?$AAI?$AAT?$AAE?$AAR?$AAA?$AAT?$AAO?$AAR?$AA?5?$AAL?$AAI?$AAS?$AAT?$AA?5@
	call	__invalid_parameter
	add	esp, 20					; 00000014H
	xor	ecx, ecx
	jne	SHORT $LN9@Orphan_me
$LN4@Orphan_me:
	xor	edx, edx
	jne	SHORT $LN6@Orphan_me

; 200  : 			*_Pnext = _Mynextiter;

	mov	eax, DWORD PTR __Pnext$1[ebp]
	mov	ecx, DWORD PTR _this$[ebp]
	mov	edx, DWORD PTR [ecx+4]
	mov	DWORD PTR [eax], edx

; 201  : 			_Myproxy = nullptr;

	mov	eax, DWORD PTR _this$[ebp]
	mov	DWORD PTR [eax], 0
$LN13@Orphan_me:

; 202  : 			}
; 203  :  #endif /* _ITERATOR_DEBUG_LEVEL == 2 */
; 204  : 		}

	add	esp, 8
	cmp	ebp, esp
	call	__RTC_CheckEsp
	mov	esp, ebp
	pop	ebp
	ret	0
?_Orphan_me@_Iterator_base12@std@@QAEXXZ ENDP		; std::_Iterator_base12::_Orphan_me
_TEXT	ENDS
; Function compile flags: /Odtp /RTCsu
; File c:\program files (x86)\microsoft visual studio\2017\community\vc\tools\msvc\14.15.26726\include\xutility
;	COMDAT ?_Getpnext@_Iterator_base12@std@@QAEPAPAU12@XZ
_TEXT	SEGMENT
_this$ = -4						; size = 4
?_Getpnext@_Iterator_base12@std@@QAEPAPAU12@XZ PROC	; std::_Iterator_base12::_Getpnext, COMDAT
; _this$ = ecx

; 186  : 		{	// get address of remaining iterator chain

	push	ebp
	mov	ebp, esp
	push	ecx
	mov	DWORD PTR [ebp-4], -858993460		; ccccccccH
	mov	DWORD PTR _this$[ebp], ecx

; 187  : 		return (&_Mynextiter);

	mov	eax, DWORD PTR _this$[ebp]
	add	eax, 4

; 188  : 		}

	mov	esp, ebp
	pop	ebp
	ret	0
?_Getpnext@_Iterator_base12@std@@QAEPAPAU12@XZ ENDP	; std::_Iterator_base12::_Getpnext
_TEXT	ENDS
; Function compile flags: /Odtp /RTCsu
; File c:\program files (x86)\microsoft visual studio\2017\community\vc\tools\msvc\14.15.26726\include\xutility
;	COMDAT ?_Getcont@_Iterator_base12@std@@QBEPBU_Container_base12@2@XZ
_TEXT	SEGMENT
tv68 = -8						; size = 4
_this$ = -4						; size = 4
?_Getcont@_Iterator_base12@std@@QBEPBU_Container_base12@2@XZ PROC ; std::_Iterator_base12::_Getcont, COMDAT
; _this$ = ecx

; 181  : 		{	// get owning container

	push	ebp
	mov	ebp, esp
	sub	esp, 8
	mov	DWORD PTR [ebp-8], -858993460		; ccccccccH
	mov	DWORD PTR [ebp-4], -858993460		; ccccccccH
	mov	DWORD PTR _this$[ebp], ecx

; 182  : 		return (_Myproxy == nullptr ? nullptr : _Myproxy->_Mycont);

	mov	eax, DWORD PTR _this$[ebp]
	cmp	DWORD PTR [eax], 0
	jne	SHORT $LN3@Getcont
	mov	DWORD PTR tv68[ebp], 0
	jmp	SHORT $LN4@Getcont
$LN3@Getcont:
	mov	ecx, DWORD PTR _this$[ebp]
	mov	edx, DWORD PTR [ecx]
	mov	eax, DWORD PTR [edx]
	mov	DWORD PTR tv68[ebp], eax
$LN4@Getcont:
	mov	eax, DWORD PTR tv68[ebp]

; 183  : 		}

	mov	esp, ebp
	pop	ebp
	ret	0
?_Getcont@_Iterator_base12@std@@QBEPBU_Container_base12@2@XZ ENDP ; std::_Iterator_base12::_Getcont
_TEXT	ENDS
; Function compile flags: /Odtp /RTCsu
; File c:\program files (x86)\microsoft visual studio\2017\community\vc\tools\msvc\14.15.26726\include\xutility
;	COMDAT ?_Clrcont@_Iterator_base12@std@@QAEXXZ
_TEXT	SEGMENT
_this$ = -4						; size = 4
?_Clrcont@_Iterator_base12@std@@QAEXXZ PROC		; std::_Iterator_base12::_Clrcont, COMDAT
; _this$ = ecx

; 176  : 		{	// disown owning container

	push	ebp
	mov	ebp, esp
	push	ecx
	mov	DWORD PTR [ebp-4], -858993460		; ccccccccH
	mov	DWORD PTR _this$[ebp], ecx

; 177  : 		_Myproxy = nullptr;

	mov	eax, DWORD PTR _this$[ebp]
	mov	DWORD PTR [eax], 0

; 178  : 		}

	mov	esp, ebp
	pop	ebp
	ret	0
?_Clrcont@_Iterator_base12@std@@QAEXXZ ENDP		; std::_Iterator_base12::_Clrcont
_TEXT	ENDS
; Function compile flags: /Odtp /RTCsu
; File c:\program files (x86)\microsoft visual studio\2017\community\vc\tools\msvc\14.15.26726\include\xutility
;	COMDAT ?_Adopt@_Iterator_base12@std@@QAEXPBU_Container_base12@2@@Z
_TEXT	SEGMENT
__Lock$2 = -40						; size = 4
__Parent_proxy$3 = -32					; size = 4
__Lock$4 = -24						; size = 4
_this$ = -16						; size = 4
__$EHRec$ = -12						; size = 12
__Parent$ = 8						; size = 4
?_Adopt@_Iterator_base12@std@@QAEXPBU_Container_base12@2@@Z PROC ; std::_Iterator_base12::_Adopt, COMDAT
; _this$ = ecx

; 147  : 		{	// adopt this iterator by parent

	push	ebp
	mov	ebp, esp
	push	-1
	push	__ehhandler$?_Adopt@_Iterator_base12@std@@QAEXPBU_Container_base12@2@@Z
	mov	eax, DWORD PTR fs:0
	push	eax
	sub	esp, 32					; 00000020H
	mov	eax, -858993460				; ccccccccH
	mov	DWORD PTR [ebp-44], eax
	mov	DWORD PTR [ebp-40], eax
	mov	DWORD PTR [ebp-36], eax
	mov	DWORD PTR [ebp-32], eax
	mov	DWORD PTR [ebp-28], eax
	mov	DWORD PTR [ebp-24], eax
	mov	DWORD PTR [ebp-20], eax
	mov	DWORD PTR [ebp-16], eax
	mov	eax, DWORD PTR ___security_cookie
	xor	eax, ebp
	push	eax
	lea	eax, DWORD PTR __$EHRec$[ebp]
	mov	DWORD PTR fs:0, eax
	mov	DWORD PTR _this$[ebp], ecx

; 148  : 		if (_Parent == nullptr)

	cmp	DWORD PTR __Parent$[ebp], 0
	jne	SHORT $LN2@Adopt

; 149  : 			{	// no future parent, just disown current parent
; 150  :  #if _ITERATOR_DEBUG_LEVEL == 2
; 151  : 			_Lockit _Lock(_LOCK_DEBUG);

	push	3
	lea	ecx, DWORD PTR __Lock$4[ebp]
	call	??0_Lockit@std@@QAE@H@Z			; std::_Lockit::_Lockit

; 152  : 			_Orphan_me();

	mov	ecx, DWORD PTR _this$[ebp]
	call	?_Orphan_me@_Iterator_base12@std@@QAEXXZ ; std::_Iterator_base12::_Orphan_me

; 153  :  #endif /* _ITERATOR_DEBUG_LEVEL == 2 */
; 154  : 			}

	lea	ecx, DWORD PTR __Lock$4[ebp]
	call	??1_Lockit@std@@QAE@XZ			; std::_Lockit::~_Lockit

; 155  : 		else

	jmp	SHORT $LN5@Adopt
$LN2@Adopt:

; 156  : 			{	// have a parent, do adoption
; 157  : 			_Container_proxy *_Parent_proxy = _Parent->_Myproxy;

	mov	eax, DWORD PTR __Parent$[ebp]
	mov	ecx, DWORD PTR [eax]
	mov	DWORD PTR __Parent_proxy$3[ebp], ecx

; 158  : 
; 159  :  #if _ITERATOR_DEBUG_LEVEL == 2
; 160  : 			if (_Myproxy != _Parent_proxy)

	mov	edx, DWORD PTR _this$[ebp]
	mov	eax, DWORD PTR [edx]
	cmp	eax, DWORD PTR __Parent_proxy$3[ebp]
	je	SHORT $LN5@Adopt

; 161  : 				{	// change parentage
; 162  : 				_Lockit _Lock(_LOCK_DEBUG);

	push	3
	lea	ecx, DWORD PTR __Lock$2[ebp]
	call	??0_Lockit@std@@QAE@H@Z			; std::_Lockit::_Lockit

; 163  : 				_Orphan_me();

	mov	ecx, DWORD PTR _this$[ebp]
	call	?_Orphan_me@_Iterator_base12@std@@QAEXXZ ; std::_Iterator_base12::_Orphan_me

; 164  : 				_Mynextiter = _Parent_proxy->_Myfirstiter;

	mov	ecx, DWORD PTR _this$[ebp]
	mov	edx, DWORD PTR __Parent_proxy$3[ebp]
	mov	eax, DWORD PTR [edx+4]
	mov	DWORD PTR [ecx+4], eax

; 165  : 				_Parent_proxy->_Myfirstiter = this;

	mov	ecx, DWORD PTR __Parent_proxy$3[ebp]
	mov	edx, DWORD PTR _this$[ebp]
	mov	DWORD PTR [ecx+4], edx

; 166  : 				_Myproxy = _Parent_proxy;

	mov	eax, DWORD PTR _this$[ebp]
	mov	ecx, DWORD PTR __Parent_proxy$3[ebp]
	mov	DWORD PTR [eax], ecx

; 167  : 				}

	lea	ecx, DWORD PTR __Lock$2[ebp]
	call	??1_Lockit@std@@QAE@XZ			; std::_Lockit::~_Lockit
$LN5@Adopt:

; 168  : 
; 169  :  #else /* _ITERATOR_DEBUG_LEVEL == 2 */
; 170  : 			_Myproxy = _Parent_proxy;
; 171  :  #endif /* _ITERATOR_DEBUG_LEVEL == 2 */
; 172  : 			}
; 173  : 		}

	push	edx
	mov	ecx, ebp
	push	eax
	lea	edx, DWORD PTR $LN10@Adopt
	call	@_RTC_CheckStackVars@8
	pop	eax
	pop	edx
	mov	ecx, DWORD PTR __$EHRec$[ebp]
	mov	DWORD PTR fs:0, ecx
	pop	ecx
	add	esp, 44					; 0000002cH
	cmp	ebp, esp
	call	__RTC_CheckEsp
	mov	esp, ebp
	pop	ebp
	ret	4
$LN10@Adopt:
	DD	2
	DD	$LN9@Adopt
$LN9@Adopt:
	DD	-24					; ffffffe8H
	DD	4
	DD	$LN6@Adopt
	DD	-40					; ffffffd8H
	DD	4
	DD	$LN7@Adopt
$LN7@Adopt:
	DB	95					; 0000005fH
	DB	76					; 0000004cH
	DB	111					; 0000006fH
	DB	99					; 00000063H
	DB	107					; 0000006bH
	DB	0
$LN6@Adopt:
	DB	95					; 0000005fH
	DB	76					; 0000004cH
	DB	111					; 0000006fH
	DB	99					; 00000063H
	DB	107					; 0000006bH
	DB	0
_TEXT	ENDS
;	COMDAT text$x
text$x	SEGMENT
__ehhandler$?_Adopt@_Iterator_base12@std@@QAEXPBU_Container_base12@2@@Z:
	mov	edx, DWORD PTR [esp+8]
	lea	eax, DWORD PTR [edx+12]
	mov	ecx, DWORD PTR [edx-36]
	xor	ecx, eax
	call	@__security_check_cookie@4
	mov	eax, OFFSET __ehfuncinfo$?_Adopt@_Iterator_base12@std@@QAEXPBU_Container_base12@2@@Z
	jmp	___CxxFrameHandler3
text$x	ENDS
?_Adopt@_Iterator_base12@std@@QAEXPBU_Container_base12@2@@Z ENDP ; std::_Iterator_base12::_Adopt
; Function compile flags: /Odtp /RTCsu
; File c:\program files (x86)\microsoft visual studio\2017\community\vc\tools\msvc\14.15.26726\include\xutility
;	COMDAT ??1_Iterator_base12@std@@QAE@XZ
_TEXT	SEGMENT
__Lock$ = -24						; size = 4
_this$ = -16						; size = 4
__$EHRec$ = -12						; size = 12
??1_Iterator_base12@std@@QAE@XZ PROC			; std::_Iterator_base12::~_Iterator_base12, COMDAT
; _this$ = ecx

; 139  : 		{	// destroy the iterator

	push	ebp
	mov	ebp, esp
	push	-1
	push	__ehhandler$??1_Iterator_base12@std@@QAE@XZ
	mov	eax, DWORD PTR fs:0
	push	eax
	sub	esp, 16					; 00000010H
	mov	eax, -858993460				; ccccccccH
	mov	DWORD PTR [ebp-28], eax
	mov	DWORD PTR [ebp-24], eax
	mov	DWORD PTR [ebp-20], eax
	mov	DWORD PTR [ebp-16], eax
	mov	eax, DWORD PTR ___security_cookie
	xor	eax, ebp
	push	eax
	lea	eax, DWORD PTR __$EHRec$[ebp]
	mov	DWORD PTR fs:0, eax
	mov	DWORD PTR _this$[ebp], ecx

; 140  :  #if _ITERATOR_DEBUG_LEVEL == 2
; 141  : 		_Lockit _Lock(_LOCK_DEBUG);

	push	3
	lea	ecx, DWORD PTR __Lock$[ebp]
	call	??0_Lockit@std@@QAE@H@Z			; std::_Lockit::_Lockit

; 142  : 		_Orphan_me();

	mov	ecx, DWORD PTR _this$[ebp]
	call	?_Orphan_me@_Iterator_base12@std@@QAEXXZ ; std::_Iterator_base12::_Orphan_me

; 143  :  #endif /* _ITERATOR_DEBUG_LEVEL == 2 */
; 144  : 		}

	lea	ecx, DWORD PTR __Lock$[ebp]
	call	??1_Lockit@std@@QAE@XZ			; std::_Lockit::~_Lockit
	push	edx
	mov	ecx, ebp
	push	eax
	lea	edx, DWORD PTR $LN6@Iterator_b
	call	@_RTC_CheckStackVars@8
	pop	eax
	pop	edx
	mov	ecx, DWORD PTR __$EHRec$[ebp]
	mov	DWORD PTR fs:0, ecx
	pop	ecx
	add	esp, 28					; 0000001cH
	cmp	ebp, esp
	call	__RTC_CheckEsp
	mov	esp, ebp
	pop	ebp
	ret	0
	npad	3
$LN6@Iterator_b:
	DD	1
	DD	$LN5@Iterator_b
$LN5@Iterator_b:
	DD	-24					; ffffffe8H
	DD	4
	DD	$LN3@Iterator_b
$LN3@Iterator_b:
	DB	95					; 0000005fH
	DB	76					; 0000004cH
	DB	111					; 0000006fH
	DB	99					; 00000063H
	DB	107					; 0000006bH
	DB	0
_TEXT	ENDS
;	COMDAT text$x
text$x	SEGMENT
__ehhandler$??1_Iterator_base12@std@@QAE@XZ:
	mov	edx, DWORD PTR [esp+8]
	lea	eax, DWORD PTR [edx+12]
	mov	ecx, DWORD PTR [edx-20]
	xor	ecx, eax
	call	@__security_check_cookie@4
	mov	eax, OFFSET __ehfuncinfo$??1_Iterator_base12@std@@QAE@XZ
	jmp	___CxxFrameHandler3
text$x	ENDS
??1_Iterator_base12@std@@QAE@XZ ENDP			; std::_Iterator_base12::~_Iterator_base12
; Function compile flags: /Odtp /RTCsu
; File c:\program files (x86)\microsoft visual studio\2017\community\vc\tools\msvc\14.15.26726\include\xutility
;	COMDAT ??4_Iterator_base12@std@@QAEAAU01@ABU01@@Z
_TEXT	SEGMENT
__Lock$2 = -24						; size = 4
_this$ = -16						; size = 4
__$EHRec$ = -12						; size = 12
__Right$ = 8						; size = 4
??4_Iterator_base12@std@@QAEAAU01@ABU01@@Z PROC		; std::_Iterator_base12::operator=, COMDAT
; _this$ = ecx

; 119  : 		{	// assign an iterator

	push	ebp
	mov	ebp, esp
	push	-1
	push	__ehhandler$??4_Iterator_base12@std@@QAEAAU01@ABU01@@Z
	mov	eax, DWORD PTR fs:0
	push	eax
	sub	esp, 16					; 00000010H
	mov	eax, -858993460				; ccccccccH
	mov	DWORD PTR [ebp-28], eax
	mov	DWORD PTR [ebp-24], eax
	mov	DWORD PTR [ebp-20], eax
	mov	DWORD PTR [ebp-16], eax
	mov	eax, DWORD PTR ___security_cookie
	xor	eax, ebp
	push	eax
	lea	eax, DWORD PTR __$EHRec$[ebp]
	mov	DWORD PTR fs:0, eax
	mov	DWORD PTR _this$[ebp], ecx

; 120  : 		if (_Myproxy != _Right._Myproxy)

	mov	eax, DWORD PTR _this$[ebp]
	mov	ecx, DWORD PTR __Right$[ebp]
	mov	edx, DWORD PTR [eax]
	cmp	edx, DWORD PTR [ecx]
	je	SHORT $LN2@operator

; 121  : 			{
; 122  : 			if (_Right._Myproxy == nullptr)

	mov	eax, DWORD PTR __Right$[ebp]
	cmp	DWORD PTR [eax], 0
	jne	SHORT $LN3@operator

; 123  : 				{	// becoming invalid, disown current parent
; 124  :  #if _ITERATOR_DEBUG_LEVEL == 2
; 125  : 				_Lockit _Lock(_LOCK_DEBUG);

	push	3
	lea	ecx, DWORD PTR __Lock$2[ebp]
	call	??0_Lockit@std@@QAE@H@Z			; std::_Lockit::_Lockit

; 126  : 				_Orphan_me();

	mov	ecx, DWORD PTR _this$[ebp]
	call	?_Orphan_me@_Iterator_base12@std@@QAEXXZ ; std::_Iterator_base12::_Orphan_me

; 127  :  #endif /* _ITERATOR_DEBUG_LEVEL == 2 */
; 128  : 				}

	lea	ecx, DWORD PTR __Lock$2[ebp]
	call	??1_Lockit@std@@QAE@XZ			; std::_Lockit::~_Lockit

; 129  : 			else

	jmp	SHORT $LN2@operator
$LN3@operator:

; 130  : 				{
; 131  : 				_Adopt(_Right._Myproxy->_Mycont);

	mov	ecx, DWORD PTR __Right$[ebp]
	mov	edx, DWORD PTR [ecx]
	mov	eax, DWORD PTR [edx]
	push	eax
	mov	ecx, DWORD PTR _this$[ebp]
	call	?_Adopt@_Iterator_base12@std@@QAEXPBU_Container_base12@2@@Z ; std::_Iterator_base12::_Adopt
$LN2@operator:

; 132  : 				}
; 133  : 			}
; 134  : 
; 135  : 		return (*this);

	mov	eax, DWORD PTR _this$[ebp]

; 136  : 		}

	push	edx
	mov	ecx, ebp
	push	eax
	lea	edx, DWORD PTR $LN9@operator
	call	@_RTC_CheckStackVars@8
	pop	eax
	pop	edx
	mov	ecx, DWORD PTR __$EHRec$[ebp]
	mov	DWORD PTR fs:0, ecx
	pop	ecx
	add	esp, 28					; 0000001cH
	cmp	ebp, esp
	call	__RTC_CheckEsp
	mov	esp, ebp
	pop	ebp
	ret	4
$LN9@operator:
	DD	1
	DD	$LN8@operator
$LN8@operator:
	DD	-24					; ffffffe8H
	DD	4
	DD	$LN6@operator
$LN6@operator:
	DB	95					; 0000005fH
	DB	76					; 0000004cH
	DB	111					; 0000006fH
	DB	99					; 00000063H
	DB	107					; 0000006bH
	DB	0
_TEXT	ENDS
;	COMDAT text$x
text$x	SEGMENT
__ehhandler$??4_Iterator_base12@std@@QAEAAU01@ABU01@@Z:
	mov	edx, DWORD PTR [esp+8]
	lea	eax, DWORD PTR [edx+12]
	mov	ecx, DWORD PTR [edx-20]
	xor	ecx, eax
	call	@__security_check_cookie@4
	mov	eax, OFFSET __ehfuncinfo$??4_Iterator_base12@std@@QAEAAU01@ABU01@@Z
	jmp	___CxxFrameHandler3
text$x	ENDS
??4_Iterator_base12@std@@QAEAAU01@ABU01@@Z ENDP		; std::_Iterator_base12::operator=
; Function compile flags: /Odtp /RTCsu
; File c:\program files (x86)\microsoft visual studio\2017\community\vc\tools\msvc\14.15.26726\include\xutility
;	COMDAT ??0_Iterator_base12@std@@QAE@ABU01@@Z
_TEXT	SEGMENT
_this$ = -4						; size = 4
__Right$ = 8						; size = 4
??0_Iterator_base12@std@@QAE@ABU01@@Z PROC		; std::_Iterator_base12::_Iterator_base12, COMDAT
; _this$ = ecx

; 114  : 		{	// copy an iterator

	push	ebp
	mov	ebp, esp
	push	ecx
	mov	DWORD PTR [ebp-4], -858993460		; ccccccccH
	mov	DWORD PTR _this$[ebp], ecx

; 113  : 		: _Myproxy(nullptr), _Mynextiter(nullptr)

	mov	eax, DWORD PTR _this$[ebp]
	mov	DWORD PTR [eax], 0
	mov	ecx, DWORD PTR _this$[ebp]
	mov	DWORD PTR [ecx+4], 0

; 115  : 		*this = _Right;

	mov	edx, DWORD PTR __Right$[ebp]
	push	edx
	mov	ecx, DWORD PTR _this$[ebp]
	call	??4_Iterator_base12@std@@QAEAAU01@ABU01@@Z ; std::_Iterator_base12::operator=

; 116  : 		}

	mov	eax, DWORD PTR _this$[ebp]
	add	esp, 4
	cmp	ebp, esp
	call	__RTC_CheckEsp
	mov	esp, ebp
	pop	ebp
	ret	4
??0_Iterator_base12@std@@QAE@ABU01@@Z ENDP		; std::_Iterator_base12::_Iterator_base12
_TEXT	ENDS
; Function compile flags: /Odtp /RTCsu
; File c:\program files (x86)\microsoft visual studio\2017\community\vc\tools\msvc\14.15.26726\include\xutility
;	COMDAT ??0_Iterator_base12@std@@QAE@XZ
_TEXT	SEGMENT
_this$ = -4						; size = 4
??0_Iterator_base12@std@@QAE@XZ PROC			; std::_Iterator_base12::_Iterator_base12, COMDAT
; _this$ = ecx

; 109  : 		{	// construct orphaned iterator

	push	ebp
	mov	ebp, esp
	push	ecx
	mov	DWORD PTR [ebp-4], -858993460		; ccccccccH
	mov	DWORD PTR _this$[ebp], ecx

; 108  : 		: _Myproxy(nullptr), _Mynextiter(nullptr)

	mov	eax, DWORD PTR _this$[ebp]
	mov	DWORD PTR [eax], 0
	mov	ecx, DWORD PTR _this$[ebp]
	mov	DWORD PTR [ecx+4], 0

; 110  : 		}

	mov	eax, DWORD PTR _this$[ebp]
	mov	esp, ebp
	pop	ebp
	ret	0
??0_Iterator_base12@std@@QAE@XZ ENDP			; std::_Iterator_base12::_Iterator_base12
_TEXT	ENDS
; Function compile flags: /Odtp /RTCsu
; File c:\program files (x86)\microsoft visual studio\2017\community\vc\tools\msvc\14.15.26726\include\xutility
;	COMDAT ?_Orphan_all@_Container_base12@std@@QAEXXZ
_TEXT	SEGMENT
__Pnext$2 = -32						; size = 4
__Lock$3 = -24						; size = 4
_this$ = -16						; size = 4
__$EHRec$ = -12						; size = 12
?_Orphan_all@_Container_base12@std@@QAEXXZ PROC		; std::_Container_base12::_Orphan_all, COMDAT
; _this$ = ecx

; 214  : 	{	// orphan all iterators

	push	ebp
	mov	ebp, esp
	push	-1
	push	__ehhandler$?_Orphan_all@_Container_base12@std@@QAEXXZ
	mov	eax, DWORD PTR fs:0
	push	eax
	sub	esp, 20					; 00000014H
	mov	eax, -858993460				; ccccccccH
	mov	DWORD PTR [ebp-32], eax
	mov	DWORD PTR [ebp-28], eax
	mov	DWORD PTR [ebp-24], eax
	mov	DWORD PTR [ebp-20], eax
	mov	DWORD PTR [ebp-16], eax
	mov	eax, DWORD PTR ___security_cookie
	xor	eax, ebp
	push	eax
	lea	eax, DWORD PTR __$EHRec$[ebp]
	mov	DWORD PTR fs:0, eax
	mov	DWORD PTR _this$[ebp], ecx

; 215  :  #if _ITERATOR_DEBUG_LEVEL == 2
; 216  : 	if (_Myproxy != nullptr)

	mov	eax, DWORD PTR _this$[ebp]
	cmp	DWORD PTR [eax], 0
	je	SHORT $LN6@Orphan_all

; 217  : 		{	// proxy allocated, drain it
; 218  : 		_Lockit _Lock(_LOCK_DEBUG);

	push	3
	lea	ecx, DWORD PTR __Lock$3[ebp]
	call	??0_Lockit@std@@QAE@H@Z			; std::_Lockit::_Lockit

; 219  : 
; 220  : 		for (_Iterator_base12 **_Pnext = &_Myproxy->_Myfirstiter;

	mov	ecx, DWORD PTR _this$[ebp]
	mov	edx, DWORD PTR [ecx]
	add	edx, 4
	mov	DWORD PTR __Pnext$2[ebp], edx
	jmp	SHORT $LN4@Orphan_all
$LN2@Orphan_all:

; 221  : 			*_Pnext != nullptr; *_Pnext = (*_Pnext)->_Mynextiter)

	mov	eax, DWORD PTR __Pnext$2[ebp]
	mov	ecx, DWORD PTR [eax]
	mov	edx, DWORD PTR __Pnext$2[ebp]
	mov	eax, DWORD PTR [ecx+4]
	mov	DWORD PTR [edx], eax
$LN4@Orphan_all:
	mov	ecx, DWORD PTR __Pnext$2[ebp]
	cmp	DWORD PTR [ecx], 0
	je	SHORT $LN3@Orphan_all

; 222  : 			(*_Pnext)->_Myproxy = nullptr;

	mov	edx, DWORD PTR __Pnext$2[ebp]
	mov	eax, DWORD PTR [edx]
	mov	DWORD PTR [eax], 0
	jmp	SHORT $LN2@Orphan_all
$LN3@Orphan_all:

; 223  : 		_Myproxy->_Myfirstiter = nullptr;

	mov	ecx, DWORD PTR _this$[ebp]
	mov	edx, DWORD PTR [ecx]
	mov	DWORD PTR [edx+4], 0

; 224  : 		}

	lea	ecx, DWORD PTR __Lock$3[ebp]
	call	??1_Lockit@std@@QAE@XZ			; std::_Lockit::~_Lockit
$LN6@Orphan_all:

; 225  :  #endif /* _ITERATOR_DEBUG_LEVEL == 2 */
; 226  : 	}

	push	edx
	mov	ecx, ebp
	push	eax
	lea	edx, DWORD PTR $LN10@Orphan_all
	call	@_RTC_CheckStackVars@8
	pop	eax
	pop	edx
	mov	ecx, DWORD PTR __$EHRec$[ebp]
	mov	DWORD PTR fs:0, ecx
	pop	ecx
	add	esp, 32					; 00000020H
	cmp	ebp, esp
	call	__RTC_CheckEsp
	mov	esp, ebp
	pop	ebp
	ret	0
	npad	1
$LN10@Orphan_all:
	DD	1
	DD	$LN9@Orphan_all
$LN9@Orphan_all:
	DD	-24					; ffffffe8H
	DD	4
	DD	$LN7@Orphan_all
$LN7@Orphan_all:
	DB	95					; 0000005fH
	DB	76					; 0000004cH
	DB	111					; 0000006fH
	DB	99					; 00000063H
	DB	107					; 0000006bH
	DB	0
_TEXT	ENDS
;	COMDAT text$x
text$x	SEGMENT
__ehhandler$?_Orphan_all@_Container_base12@std@@QAEXXZ:
	mov	edx, DWORD PTR [esp+8]
	lea	eax, DWORD PTR [edx+12]
	mov	ecx, DWORD PTR [edx-24]
	xor	ecx, eax
	call	@__security_check_cookie@4
	mov	eax, OFFSET __ehfuncinfo$?_Orphan_all@_Container_base12@std@@QAEXXZ
	jmp	___CxxFrameHandler3
text$x	ENDS
?_Orphan_all@_Container_base12@std@@QAEXXZ ENDP		; std::_Container_base12::_Orphan_all
; Function compile flags: /Odtp /RTCsu
; File c:\program files (x86)\microsoft visual studio\2017\community\vc\tools\msvc\14.15.26726\include\xutility
;	COMDAT ?_Getpfirst@_Container_base12@std@@QBEPAPAU_Iterator_base12@2@XZ
_TEXT	SEGMENT
tv68 = -8						; size = 4
_this$ = -4						; size = 4
?_Getpfirst@_Container_base12@std@@QBEPAPAU_Iterator_base12@2@XZ PROC ; std::_Container_base12::_Getpfirst, COMDAT
; _this$ = ecx

; 95   : 		{	// get address of iterator chain

	push	ebp
	mov	ebp, esp
	sub	esp, 8
	mov	DWORD PTR [ebp-8], -858993460		; ccccccccH
	mov	DWORD PTR [ebp-4], -858993460		; ccccccccH
	mov	DWORD PTR _this$[ebp], ecx

; 96   : 		return (_Myproxy == nullptr ? nullptr : &_Myproxy->_Myfirstiter);

	mov	eax, DWORD PTR _this$[ebp]
	cmp	DWORD PTR [eax], 0
	jne	SHORT $LN3@Getpfirst
	mov	DWORD PTR tv68[ebp], 0
	jmp	SHORT $LN4@Getpfirst
$LN3@Getpfirst:
	mov	ecx, DWORD PTR _this$[ebp]
	mov	edx, DWORD PTR [ecx]
	add	edx, 4
	mov	DWORD PTR tv68[ebp], edx
$LN4@Getpfirst:
	mov	eax, DWORD PTR tv68[ebp]

; 97   : 		}

	mov	esp, ebp
	pop	ebp
	ret	0
?_Getpfirst@_Container_base12@std@@QBEPAPAU_Iterator_base12@2@XZ ENDP ; std::_Container_base12::_Getpfirst
_TEXT	ENDS
; Function compile flags: /Odtp /RTCsu
; File c:\program files (x86)\microsoft visual studio\2017\community\vc\tools\msvc\14.15.26726\include\xutility
;	COMDAT ??0_Container_base12@std@@QAE@XZ
_TEXT	SEGMENT
_this$ = -4						; size = 4
??0_Container_base12@std@@QAE@XZ PROC			; std::_Container_base12::_Container_base12, COMDAT
; _this$ = ecx

; 81   : 		{	// construct childless container

	push	ebp
	mov	ebp, esp
	push	ecx
	mov	DWORD PTR [ebp-4], -858993460		; ccccccccH
	mov	DWORD PTR _this$[ebp], ecx

; 80   : 		: _Myproxy(nullptr)

	mov	eax, DWORD PTR _this$[ebp]
	mov	DWORD PTR [eax], 0

; 82   : 		}

	mov	eax, DWORD PTR _this$[ebp]
	mov	esp, ebp
	pop	ebp
	ret	0
??0_Container_base12@std@@QAE@XZ ENDP			; std::_Container_base12::_Container_base12
_TEXT	ENDS
; Function compile flags: /Odtp /RTCsu
; File c:\program files (x86)\microsoft visual studio\2017\community\vc\tools\msvc\14.15.26726\include\xutility
;	COMDAT ??0_Container_proxy@std@@QAE@XZ
_TEXT	SEGMENT
_this$ = -4						; size = 4
??0_Container_proxy@std@@QAE@XZ PROC			; std::_Container_proxy::_Container_proxy, COMDAT
; _this$ = ecx

; 69   : 		{	// construct from pointers

	push	ebp
	mov	ebp, esp
	push	ecx
	mov	DWORD PTR [ebp-4], -858993460		; ccccccccH
	mov	DWORD PTR _this$[ebp], ecx

; 68   : 		: _Mycont(nullptr), _Myfirstiter(nullptr)

	mov	eax, DWORD PTR _this$[ebp]
	mov	DWORD PTR [eax], 0
	mov	ecx, DWORD PTR _this$[ebp]
	mov	DWORD PTR [ecx+4], 0

; 70   : 		}

	mov	eax, DWORD PTR _this$[ebp]
	mov	esp, ebp
	pop	ebp
	ret	0
??0_Container_proxy@std@@QAE@XZ ENDP			; std::_Container_proxy::_Container_proxy
_TEXT	ENDS
; Function compile flags: /Odtp /RTCsu
; File c:\program files (x86)\microsoft visual studio\2017\community\vc\tools\msvc\14.15.26726\include\vcruntime_new.h
;	COMDAT ??2@YAPAXIPAX@Z
_TEXT	SEGMENT
__Size$ = 8						; size = 4
__Where$ = 12						; size = 4
??2@YAPAXIPAX@Z PROC					; operator new, COMDAT

; 185  :     {

	push	ebp
	mov	ebp, esp

; 186  :         (void)_Size;
; 187  :         return _Where;

	mov	eax, DWORD PTR __Where$[ebp]

; 188  :     }

	pop	ebp
	ret	0
??2@YAPAXIPAX@Z ENDP					; operator new
_TEXT	ENDS
; Function compile flags: /Odtp /RTCsu
; File c:\users\utilisateur\documents\gitkraken\8iar125-projetraven\vs2015\common\game\entitymanager.cpp
;	COMDAT ?__empty_global_delete@@YAXPAXI@Z
_TEXT	SEGMENT
___formal$ = 8						; size = 4
___formal$ = 12						; size = 4
?__empty_global_delete@@YAXPAXI@Z PROC			; __empty_global_delete, COMDAT

	push	ebp
	mov	ebp, esp
	pop	ebp
	ret	0
?__empty_global_delete@@YAXPAXI@Z ENDP			; __empty_global_delete
_TEXT	ENDS
; Function compile flags: /Odtp /RTCsu
; File c:\users\utilisateur\documents\gitkraken\8iar125-projetraven\vs2015\common\game\entitymanager.cpp
;	COMDAT ?__empty_global_delete@@YAXPAX@Z
_TEXT	SEGMENT
___formal$ = 8						; size = 4
?__empty_global_delete@@YAXPAX@Z PROC			; __empty_global_delete, COMDAT

	push	ebp
	mov	ebp, esp
	pop	ebp
	ret	0
?__empty_global_delete@@YAXPAX@Z ENDP			; __empty_global_delete
_TEXT	ENDS
END
