; Listing generated by Microsoft (R) Optimizing Compiler Version 19.15.26730.0 

	TITLE	C:\Users\Utilisateur\Documents\GitKraken\8IAR125-ProjetRaven\VS2015\Buckland_Chapter7 to 10_Raven\goals\Goal_GetItem.cpp
	.686P
	.XMM
	include listing.inc
	.model	flat

INCLUDELIB LIBCMTD
INCLUDELIB OLDNAMES

CONST	SEGMENT
?colors@@3QBKB DD 0ffH					; colors
	DD	0ff0000H
	DD	0ff00H
	DD	00H
	DD	0c8c8ffH
	DD	0c8c8c8H
	DD	0ffffH
	DD	0aaffH
	DD	0aa00ffH
	DD	05a85H
	DD	0ffffffH
	DD	06400H
	DD	0ffff00H
	DD	0c8c8c8H
	DD	0e6e6ffH
$SG160939 DB	'Goal_GetItem cannot determine item type', 00H
CONST	ENDS
PUBLIC	?__empty_global_delete@@YAXPAX@Z		; __empty_global_delete
PUBLIC	?__empty_global_delete@@YAXPAXI@Z		; __empty_global_delete
PUBLIC	?max@?$numeric_limits@H@std@@SAHXZ		; std::numeric_limits<int>::max
PUBLIC	?min@?$numeric_limits@M@std@@SAMXZ		; std::numeric_limits<float>::min
PUBLIC	?max@?$numeric_limits@M@std@@SAMXZ		; std::numeric_limits<float>::max
PUBLIC	?min@?$numeric_limits@N@std@@SANXZ		; std::numeric_limits<double>::min
PUBLIC	?max@?$numeric_limits@N@std@@SANXZ		; std::numeric_limits<double>::max
PUBLIC	??0exception@std@@QAE@QBD@Z			; std::exception::exception
PUBLIC	??0exception@std@@QAE@ABV01@@Z			; std::exception::exception
PUBLIC	??1exception@std@@UAE@XZ			; std::exception::~exception
PUBLIC	?what@exception@std@@UBEPBDXZ			; std::exception::what
PUBLIC	??_Gexception@std@@UAEPAXI@Z			; std::exception::`scalar deleting destructor'
PUBLIC	?assign@?$char_traits@D@std@@SAXAADABD@Z	; std::char_traits<char>::assign
PUBLIC	?_Getpfirst@_Container_base12@std@@QBEPAPAU_Iterator_base12@2@XZ ; std::_Container_base12::_Getpfirst
PUBLIC	?_Orphan_all@_Container_base12@std@@QAEXXZ	; std::_Container_base12::_Orphan_all
PUBLIC	??0_Iterator_base12@std@@QAE@XZ			; std::_Iterator_base12::_Iterator_base12
PUBLIC	??0_Iterator_base12@std@@QAE@ABU01@@Z		; std::_Iterator_base12::_Iterator_base12
PUBLIC	??4_Iterator_base12@std@@QAEAAU01@ABU01@@Z	; std::_Iterator_base12::operator=
PUBLIC	??1_Iterator_base12@std@@QAE@XZ			; std::_Iterator_base12::~_Iterator_base12
PUBLIC	?_Adopt@_Iterator_base12@std@@QAEXPBU_Container_base12@2@@Z ; std::_Iterator_base12::_Adopt
PUBLIC	?_Clrcont@_Iterator_base12@std@@QAEXXZ		; std::_Iterator_base12::_Clrcont
PUBLIC	?_Getcont@_Iterator_base12@std@@QBEPBU_Container_base12@2@XZ ; std::_Iterator_base12::_Getcont
PUBLIC	?_Getpnext@_Iterator_base12@std@@QAEPAPAU12@XZ	; std::_Iterator_base12::_Getpnext
PUBLIC	?_Orphan_me@_Iterator_base12@std@@QAEXXZ	; std::_Iterator_base12::_Orphan_me
PUBLIC	?_Adjust_manually_vector_aligned@std@@YAXAAPAXAAI@Z ; std::_Adjust_manually_vector_aligned
PUBLIC	?deallocate@?$allocator@D@std@@QAEXQADI@Z	; std::allocator<char>::deallocate
PUBLIC	?_Myptr@?$_String_val@U?$_Simple_types@D@std@@@std@@QBEPBDXZ ; std::_String_val<std::_Simple_types<char> >::_Myptr
PUBLIC	?_Large_string_engaged@?$_String_val@U?$_Simple_types@D@std@@@std@@QBE_NXZ ; std::_String_val<std::_Simple_types<char> >::_Large_string_engaged
PUBLIC	??1_Bxty@?$_String_val@U?$_Simple_types@D@std@@@std@@QAE@XZ ; std::_String_val<std::_Simple_types<char> >::_Bxty::~_Bxty
PUBLIC	??1?$_String_val@U?$_Simple_types@D@std@@@std@@QAE@XZ ; std::_String_val<std::_Simple_types<char> >::~_String_val<std::_Simple_types<char> >
PUBLIC	??1?$_String_alloc@U?$_String_base_types@DV?$allocator@D@std@@@std@@@std@@QAE@XZ ; std::_String_alloc<std::_String_base_types<char,std::allocator<char> > >::~_String_alloc<std::_String_base_types<char,std::allocator<char> > >
PUBLIC	?_Free_proxy@?$_String_alloc@U?$_String_base_types@DV?$allocator@D@std@@@std@@@std@@QAEXXZ ; std::_String_alloc<std::_String_base_types<char,std::allocator<char> > >::_Free_proxy
PUBLIC	?_Myproxy@?$_String_alloc@U?$_String_base_types@DV?$allocator@D@std@@@std@@@std@@QAEAAPAU_Container_proxy@2@XZ ; std::_String_alloc<std::_String_base_types<char,std::allocator<char> > >::_Myproxy
PUBLIC	?_Orphan_all@?$_String_alloc@U?$_String_base_types@DV?$allocator@D@std@@@std@@@std@@QAEXXZ ; std::_String_alloc<std::_String_base_types<char,std::allocator<char> > >::_Orphan_all
PUBLIC	?_Getal@?$_String_alloc@U?$_String_base_types@DV?$allocator@D@std@@@std@@@std@@QAEAAV?$allocator@D@2@XZ ; std::_String_alloc<std::_String_base_types<char,std::allocator<char> > >::_Getal
PUBLIC	?_Get_data@?$_String_alloc@U?$_String_base_types@DV?$allocator@D@std@@@std@@@std@@QAEAAV?$_String_val@U?$_Simple_types@D@std@@@2@XZ ; std::_String_alloc<std::_String_base_types<char,std::allocator<char> > >::_Get_data
PUBLIC	?_Get_data@?$_String_alloc@U?$_String_base_types@DV?$allocator@D@std@@@std@@@std@@QBEABV?$_String_val@U?$_Simple_types@D@std@@@2@XZ ; std::_String_alloc<std::_String_base_types<char,std::allocator<char> > >::_Get_data
PUBLIC	?_Get_first@?$_Compressed_pair@V?$allocator@D@std@@V?$_String_val@U?$_Simple_types@D@std@@@2@$00@std@@QAEAAV?$allocator@D@2@XZ ; std::_Compressed_pair<std::allocator<char>,std::_String_val<std::_Simple_types<char> >,1>::_Get_first
PUBLIC	?_Get_second@?$_Compressed_pair@V?$allocator@D@std@@V?$_String_val@U?$_Simple_types@D@std@@@2@$00@std@@QAEAAV?$_String_val@U?$_Simple_types@D@std@@@2@XZ ; std::_Compressed_pair<std::allocator<char>,std::_String_val<std::_Simple_types<char> >,1>::_Get_second
PUBLIC	?_Get_second@?$_Compressed_pair@V?$allocator@D@std@@V?$_String_val@U?$_Simple_types@D@std@@@2@$00@std@@QBEABV?$_String_val@U?$_Simple_types@D@std@@@2@XZ ; std::_Compressed_pair<std::allocator<char>,std::_String_val<std::_Simple_types<char> >,1>::_Get_second
PUBLIC	??1?$_Compressed_pair@V?$allocator@D@std@@V?$_String_val@U?$_Simple_types@D@std@@@2@$00@std@@QAE@XZ ; std::_Compressed_pair<std::allocator<char>,std::_String_val<std::_Simple_types<char> >,1>::~_Compressed_pair<std::allocator<char>,std::_String_val<std::_Simple_types<char> >,1>
PUBLIC	??1?$basic_string@DU?$char_traits@D@std@@V?$allocator@D@2@@std@@QAE@XZ ; std::basic_string<char,std::char_traits<char>,std::allocator<char> >::~basic_string<char,std::char_traits<char>,std::allocator<char> >
PUBLIC	?c_str@?$basic_string@DU?$char_traits@D@std@@V?$allocator@D@2@@std@@QBEPBDXZ ; std::basic_string<char,std::char_traits<char>,std::allocator<char> >::c_str
PUBLIC	?size@?$basic_string@DU?$char_traits@D@std@@V?$allocator@D@2@@std@@QBEIXZ ; std::basic_string<char,std::char_traits<char>,std::allocator<char> >::size
PUBLIC	?_Tidy_deallocate@?$basic_string@DU?$char_traits@D@std@@V?$allocator@D@2@@std@@QAEXXZ ; std::basic_string<char,std::char_traits<char>,std::allocator<char> >::_Tidy_deallocate
PUBLIC	??0runtime_error@std@@QAE@PBD@Z			; std::runtime_error::runtime_error
PUBLIC	??1runtime_error@std@@UAE@XZ			; std::runtime_error::~runtime_error
PUBLIC	??0runtime_error@std@@QAE@ABV01@@Z		; std::runtime_error::runtime_error
PUBLIC	??_Gruntime_error@std@@UAEPAXI@Z		; std::runtime_error::`scalar deleting destructor'
PUBLIC	??0id@locale@std@@QAE@I@Z			; std::locale::id::id
PUBLIC	?TextAtPos@Cgdi@@QAEXNNABV?$basic_string@DU?$char_traits@D@std@@V?$allocator@D@2@@std@@@Z ; Cgdi::TextAtPos
PUBLIC	?TransparentText@Cgdi@@QAEXXZ			; Cgdi::TransparentText
PUBLIC	?TextColor@Cgdi@@QAEXHHH@Z			; Cgdi::TextColor
PUBLIC	?Pos@BaseGameEntity@@QBE?AUVector2D@@XZ		; BaseGameEntity::Pos
PUBLIC	?GetPathPlanner@Raven_Bot@@QAEQAVRaven_PathPlanner@@XZ ; Raven_Bot::GetPathPlanner
PUBLIC	?ItemTypeToGoalType@@YAHH@Z			; ItemTypeToGoalType
PUBLIC	?ActivateIfInactive@?$Goal@VRaven_Bot@@@@IAEXXZ	; Goal<Raven_Bot>::ActivateIfInactive
PUBLIC	??0?$Goal@VRaven_Bot@@@@QAE@PAVRaven_Bot@@H@Z	; Goal<Raven_Bot>::Goal<Raven_Bot>
PUBLIC	??1?$Goal@VRaven_Bot@@@@UAE@XZ			; Goal<Raven_Bot>::~Goal<Raven_Bot>
PUBLIC	?HandleMessage@?$Goal@VRaven_Bot@@@@UAE_NABUTelegram@@@Z ; Goal<Raven_Bot>::HandleMessage
PUBLIC	?AddSubgoal@?$Goal@VRaven_Bot@@@@UAEXPAV1@@Z	; Goal<Raven_Bot>::AddSubgoal
PUBLIC	?isComplete@?$Goal@VRaven_Bot@@@@QBE_NXZ	; Goal<Raven_Bot>::isComplete
PUBLIC	?isActive@?$Goal@VRaven_Bot@@@@QBE_NXZ		; Goal<Raven_Bot>::isActive
PUBLIC	?isInactive@?$Goal@VRaven_Bot@@@@QBE_NXZ	; Goal<Raven_Bot>::isInactive
PUBLIC	?hasFailed@?$Goal@VRaven_Bot@@@@QBE_NXZ		; Goal<Raven_Bot>::hasFailed
PUBLIC	?GetType@?$Goal@VRaven_Bot@@@@QBEHXZ		; Goal<Raven_Bot>::GetType
PUBLIC	?RenderAtPos@?$Goal@VRaven_Bot@@@@UBEXAAUVector2D@@PAVTypeToString@@@Z ; Goal<Raven_Bot>::RenderAtPos
PUBLIC	?Render@?$Goal@VRaven_Bot@@@@UAEXXZ		; Goal<Raven_Bot>::Render
PUBLIC	??_G?$Goal@VRaven_Bot@@@@UAEPAXI@Z		; Goal<Raven_Bot>::`scalar deleting destructor'
PUBLIC	?deallocate@?$_Default_allocator_traits@V?$allocator@U?$_List_node@PAV?$Goal@VRaven_Bot@@@@PAX@std@@@std@@@std@@SAXAAV?$allocator@U?$_List_node@PAV?$Goal@VRaven_Bot@@@@PAX@std@@@2@QAU?$_List_node@PAV?$Goal@VRaven_Bot@@@@PAX@2@I@Z ; std::_Default_allocator_traits<std::allocator<std::_List_node<Goal<Raven_Bot> *,void *> > >::deallocate
PUBLIC	?_Getpfirst@?$_List_alloc@U?$_List_base_types@PAV?$Goal@VRaven_Bot@@@@V?$allocator@PAV?$Goal@VRaven_Bot@@@@@std@@@std@@@std@@QBEPAPAU_Iterator_base12@2@XZ ; std::_List_alloc<std::_List_base_types<Goal<Raven_Bot> *,std::allocator<Goal<Raven_Bot> *> > >::_Getpfirst
PUBLIC	?_Getal@?$_List_alloc@U?$_List_base_types@PAV?$Goal@VRaven_Bot@@@@V?$allocator@PAV?$Goal@VRaven_Bot@@@@@std@@@std@@@std@@QAEAAV?$allocator@U?$_List_node@PAV?$Goal@VRaven_Bot@@@@PAX@std@@@2@XZ ; std::_List_alloc<std::_List_base_types<Goal<Raven_Bot> *,std::allocator<Goal<Raven_Bot> *> > >::_Getal
PUBLIC	?_Get_data@?$_List_alloc@U?$_List_base_types@PAV?$Goal@VRaven_Bot@@@@V?$allocator@PAV?$Goal@VRaven_Bot@@@@@std@@@std@@@std@@QAEAAV?$_List_val@U?$_List_simple_types@PAV?$Goal@VRaven_Bot@@@@@std@@@2@XZ ; std::_List_alloc<std::_List_base_types<Goal<Raven_Bot> *,std::allocator<Goal<Raven_Bot> *> > >::_Get_data
PUBLIC	?_Get_data@?$_List_alloc@U?$_List_base_types@PAV?$Goal@VRaven_Bot@@@@V?$allocator@PAV?$Goal@VRaven_Bot@@@@@std@@@std@@@std@@QBEABV?$_List_val@U?$_List_simple_types@PAV?$Goal@VRaven_Bot@@@@@std@@@2@XZ ; std::_List_alloc<std::_List_base_types<Goal<Raven_Bot> *,std::allocator<Goal<Raven_Bot> *> > >::_Get_data
PUBLIC	?_Myhead@?$_List_alloc@U?$_List_base_types@PAV?$Goal@VRaven_Bot@@@@V?$allocator@PAV?$Goal@VRaven_Bot@@@@@std@@@std@@@std@@QAEAAPAU?$_List_node@PAV?$Goal@VRaven_Bot@@@@PAX@2@XZ ; std::_List_alloc<std::_List_base_types<Goal<Raven_Bot> *,std::allocator<Goal<Raven_Bot> *> > >::_Myhead
PUBLIC	?_Mysize@?$_List_alloc@U?$_List_base_types@PAV?$Goal@VRaven_Bot@@@@V?$allocator@PAV?$Goal@VRaven_Bot@@@@@std@@@std@@@std@@QAEAAIXZ ; std::_List_alloc<std::_List_base_types<Goal<Raven_Bot> *,std::allocator<Goal<Raven_Bot> *> > >::_Mysize
PUBLIC	?_Mysize@?$_List_alloc@U?$_List_base_types@PAV?$Goal@VRaven_Bot@@@@V?$allocator@PAV?$Goal@VRaven_Bot@@@@@std@@@std@@@std@@QBEABIXZ ; std::_List_alloc<std::_List_base_types<Goal<Raven_Bot> *,std::allocator<Goal<Raven_Bot> *> > >::_Mysize
PUBLIC	?_Get_first@?$_Compressed_pair@V?$allocator@U?$_List_node@PAV?$Goal@VRaven_Bot@@@@PAX@std@@@std@@V?$_List_val@U?$_List_simple_types@PAV?$Goal@VRaven_Bot@@@@@std@@@2@$00@std@@QAEAAV?$allocator@U?$_List_node@PAV?$Goal@VRaven_Bot@@@@PAX@std@@@2@XZ ; std::_Compressed_pair<std::allocator<std::_List_node<Goal<Raven_Bot> *,void *> >,std::_List_val<std::_List_simple_types<Goal<Raven_Bot> *> >,1>::_Get_first
PUBLIC	?_Get_second@?$_Compressed_pair@V?$allocator@U?$_List_node@PAV?$Goal@VRaven_Bot@@@@PAX@std@@@std@@V?$_List_val@U?$_List_simple_types@PAV?$Goal@VRaven_Bot@@@@@std@@@2@$00@std@@QAEAAV?$_List_val@U?$_List_simple_types@PAV?$Goal@VRaven_Bot@@@@@std@@@2@XZ ; std::_Compressed_pair<std::allocator<std::_List_node<Goal<Raven_Bot> *,void *> >,std::_List_val<std::_List_simple_types<Goal<Raven_Bot> *> >,1>::_Get_second
PUBLIC	?_Get_second@?$_Compressed_pair@V?$allocator@U?$_List_node@PAV?$Goal@VRaven_Bot@@@@PAX@std@@@std@@V?$_List_val@U?$_List_simple_types@PAV?$Goal@VRaven_Bot@@@@@std@@@2@$00@std@@QBEABV?$_List_val@U?$_List_simple_types@PAV?$Goal@VRaven_Bot@@@@@std@@@2@XZ ; std::_Compressed_pair<std::allocator<std::_List_node<Goal<Raven_Bot> *,void *> >,std::_List_val<std::_List_simple_types<Goal<Raven_Bot> *> >,1>::_Get_second
PUBLIC	?_Freenode@?$_List_buy@PAV?$Goal@VRaven_Bot@@@@V?$allocator@PAV?$Goal@VRaven_Bot@@@@@std@@@std@@QAEXPAU?$_List_node@PAV?$Goal@VRaven_Bot@@@@PAX@2@@Z ; std::_List_buy<Goal<Raven_Bot> *,std::allocator<Goal<Raven_Bot> *> >::_Freenode
PUBLIC	?begin@?$list@PAV?$Goal@VRaven_Bot@@@@V?$allocator@PAV?$Goal@VRaven_Bot@@@@@std@@@std@@QAE?AV?$_List_iterator@V?$_List_val@U?$_List_simple_types@PAV?$Goal@VRaven_Bot@@@@@std@@@std@@@2@XZ ; std::list<Goal<Raven_Bot> *,std::allocator<Goal<Raven_Bot> *> >::begin
PUBLIC	?end@?$list@PAV?$Goal@VRaven_Bot@@@@V?$allocator@PAV?$Goal@VRaven_Bot@@@@@std@@@std@@QAE?AV?$_List_iterator@V?$_List_val@U?$_List_simple_types@PAV?$Goal@VRaven_Bot@@@@@std@@@std@@@2@XZ ; std::list<Goal<Raven_Bot> *,std::allocator<Goal<Raven_Bot> *> >::end
PUBLIC	?_Make_iter@?$list@PAV?$Goal@VRaven_Bot@@@@V?$allocator@PAV?$Goal@VRaven_Bot@@@@@std@@@std@@QBE?AV?$_List_iterator@V?$_List_val@U?$_List_simple_types@PAV?$Goal@VRaven_Bot@@@@@std@@@std@@@2@V?$_List_const_iterator@V?$_List_val@U?$_List_simple_types@PAV?$Goal@VRaven_Bot@@@@@std@@@std@@@2@@Z ; std::list<Goal<Raven_Bot> *,std::allocator<Goal<Raven_Bot> *> >::_Make_iter
PUBLIC	?size@?$list@PAV?$Goal@VRaven_Bot@@@@V?$allocator@PAV?$Goal@VRaven_Bot@@@@@std@@@std@@QBEIXZ ; std::list<Goal<Raven_Bot> *,std::allocator<Goal<Raven_Bot> *> >::size
PUBLIC	?empty@?$list@PAV?$Goal@VRaven_Bot@@@@V?$allocator@PAV?$Goal@VRaven_Bot@@@@@std@@@std@@QBE_NXZ ; std::list<Goal<Raven_Bot> *,std::allocator<Goal<Raven_Bot> *> >::empty
PUBLIC	?front@?$list@PAV?$Goal@VRaven_Bot@@@@V?$allocator@PAV?$Goal@VRaven_Bot@@@@@std@@@std@@QAEAAPAV?$Goal@VRaven_Bot@@@@XZ ; std::list<Goal<Raven_Bot> *,std::allocator<Goal<Raven_Bot> *> >::front
PUBLIC	?pop_front@?$list@PAV?$Goal@VRaven_Bot@@@@V?$allocator@PAV?$Goal@VRaven_Bot@@@@@std@@@std@@QAEXXZ ; std::list<Goal<Raven_Bot> *,std::allocator<Goal<Raven_Bot> *> >::pop_front
PUBLIC	?_Unlinknode@?$list@PAV?$Goal@VRaven_Bot@@@@V?$allocator@PAV?$Goal@VRaven_Bot@@@@@std@@@std@@QAEPAU?$_List_node@PAV?$Goal@VRaven_Bot@@@@PAX@2@V?$_List_const_iterator@V?$_List_val@U?$_List_simple_types@PAV?$Goal@VRaven_Bot@@@@@std@@@std@@@2@@Z ; std::list<Goal<Raven_Bot> *,std::allocator<Goal<Raven_Bot> *> >::_Unlinknode
PUBLIC	?erase@?$list@PAV?$Goal@VRaven_Bot@@@@V?$allocator@PAV?$Goal@VRaven_Bot@@@@@std@@@std@@QAE?AV?$_List_iterator@V?$_List_val@U?$_List_simple_types@PAV?$Goal@VRaven_Bot@@@@@std@@@std@@@2@V?$_List_const_iterator@V?$_List_val@U?$_List_simple_types@PAV?$Goal@VRaven_Bot@@@@@std@@@std@@@2@@Z ; std::list<Goal<Raven_Bot> *,std::allocator<Goal<Raven_Bot> *> >::erase
PUBLIC	?clear@?$list@PAV?$Goal@VRaven_Bot@@@@V?$allocator@PAV?$Goal@VRaven_Bot@@@@@std@@@std@@QAEXXZ ; std::list<Goal<Raven_Bot> *,std::allocator<Goal<Raven_Bot> *> >::clear
PUBLIC	?_Orphan_ptr@?$list@PAV?$Goal@VRaven_Bot@@@@V?$allocator@PAV?$Goal@VRaven_Bot@@@@@std@@@std@@QAEXPAU?$_List_node@PAV?$Goal@VRaven_Bot@@@@PAX@2@@Z ; std::list<Goal<Raven_Bot> *,std::allocator<Goal<Raven_Bot> *> >::_Orphan_ptr
PUBLIC	?ProcessSubgoals@?$Goal_Composite@VRaven_Bot@@@@IAEHXZ ; Goal_Composite<Raven_Bot>::ProcessSubgoals
PUBLIC	?ForwardMessageToFrontMostSubgoal@?$Goal_Composite@VRaven_Bot@@@@IAE_NABUTelegram@@@Z ; Goal_Composite<Raven_Bot>::ForwardMessageToFrontMostSubgoal
PUBLIC	?RemoveAllSubgoals@?$Goal_Composite@VRaven_Bot@@@@QAEXXZ ; Goal_Composite<Raven_Bot>::RemoveAllSubgoals
PUBLIC	?hasItemBeenStolen@Goal_GetItem@@ABE_NXZ	; Goal_GetItem::hasItemBeenStolen
PUBLIC	?Activate@Goal_GetItem@@UAEXXZ			; Goal_GetItem::Activate
PUBLIC	?Process@Goal_GetItem@@UAEHXZ			; Goal_GetItem::Process
PUBLIC	?HandleMessage@Goal_GetItem@@UAE_NABUTelegram@@@Z ; Goal_GetItem::HandleMessage
PUBLIC	??0Goal_Wander@@QAE@PAVRaven_Bot@@@Z		; Goal_Wander::Goal_Wander
PUBLIC	??1Goal_Wander@@UAE@XZ				; Goal_Wander::~Goal_Wander
PUBLIC	??_GGoal_Wander@@UAEPAXI@Z			; Goal_Wander::`scalar deleting destructor'
PUBLIC	?isActive@?$Trigger@VRaven_Bot@@@@QAE_NXZ	; Trigger<Raven_Bot>::isActive
PUBLIC	??$_Unfancy@D@std@@YAPADPAD@Z			; std::_Unfancy<char>
PUBLIC	??$addressof@PAD@std@@YAPAPADAAPAD@Z		; std::addressof<char *>
PUBLIC	??$destroy@PAD@?$_Default_allocator_traits@V?$allocator@D@std@@@std@@SAXAAV?$allocator@D@1@QAPAD@Z ; std::_Default_allocator_traits<std::allocator<char> >::destroy<char *>
PUBLIC	??$_Deallocate@$07$0A@@std@@YAXPAXI@Z		; std::_Deallocate<8,0>
PUBLIC	?deallocate@?$_Default_allocator_traits@V?$allocator@U_Container_proxy@std@@@std@@@std@@SAXAAV?$allocator@U_Container_proxy@std@@@2@QAU_Container_proxy@2@I@Z ; std::_Default_allocator_traits<std::allocator<std::_Container_proxy> >::deallocate
PUBLIC	??$destroy@U_Container_proxy@std@@@?$_Default_allocator_traits@V?$allocator@U_Container_proxy@std@@@std@@@std@@SAXAAV?$allocator@U_Container_proxy@std@@@1@QAU_Container_proxy@1@@Z ; std::_Default_allocator_traits<std::allocator<std::_Container_proxy> >::destroy<std::_Container_proxy>
PUBLIC	??$_Deallocate_plain@V?$allocator@U_Container_proxy@std@@@std@@$0A@@std@@YAXAAV?$allocator@U_Container_proxy@std@@@0@QAU_Container_proxy@0@@Z ; std::_Deallocate_plain<std::allocator<std::_Container_proxy>,0>
PUBLIC	??$?0D@?$allocator@U_Container_proxy@std@@@std@@QAE@ABV?$allocator@D@1@@Z ; std::allocator<std::_Container_proxy>::allocator<std::_Container_proxy><char>
PUBLIC	??$_Freenode0@V?$allocator@U?$_List_node@PAV?$Goal@VRaven_Bot@@@@PAX@std@@@std@@@?$_List_node@PAV?$Goal@VRaven_Bot@@@@PAX@std@@SAXAAV?$allocator@U?$_List_node@PAV?$Goal@VRaven_Bot@@@@PAX@std@@@1@PAU01@@Z ; std::_List_node<Goal<Raven_Bot> *,void *>::_Freenode0<std::allocator<std::_List_node<Goal<Raven_Bot> *,void *> > >
PUBLIC	??$addressof@V?$_List_val@U?$_List_simple_types@PAV?$Goal@VRaven_Bot@@@@@std@@@std@@@std@@YAPAV?$_List_val@U?$_List_simple_types@PAV?$Goal@VRaven_Bot@@@@@std@@@0@AAV10@@Z ; std::addressof<std::_List_val<std::_List_simple_types<Goal<Raven_Bot> *> > >
PUBLIC	??$addressof@PAV?$Goal@VRaven_Bot@@@@@std@@YAPAPAV?$Goal@VRaven_Bot@@@@AAPAV1@@Z ; std::addressof<Goal<Raven_Bot> *>
PUBLIC	??$destroy@PAV?$Goal@VRaven_Bot@@@@@?$_Default_allocator_traits@V?$allocator@U?$_List_node@PAV?$Goal@VRaven_Bot@@@@PAX@std@@@std@@@std@@SAXAAV?$allocator@U?$_List_node@PAV?$Goal@VRaven_Bot@@@@PAX@std@@@1@QAPAV?$Goal@VRaven_Bot@@@@@Z ; std::_Default_allocator_traits<std::allocator<std::_List_node<Goal<Raven_Bot> *,void *> > >::destroy<Goal<Raven_Bot> *>
PUBLIC	??0?$_List_unchecked_const_iterator@V?$_List_val@U?$_List_simple_types@PAV?$Goal@VRaven_Bot@@@@@std@@@std@@U_Iterator_base12@2@@std@@QAE@PAU?$_List_node@PAV?$Goal@VRaven_Bot@@@@PAX@1@PBV?$_List_val@U?$_List_simple_types@PAV?$Goal@VRaven_Bot@@@@@std@@@1@@Z ; std::_List_unchecked_const_iterator<std::_List_val<std::_List_simple_types<Goal<Raven_Bot> *> >,std::_Iterator_base12>::_List_unchecked_const_iterator<std::_List_val<std::_List_simple_types<Goal<Raven_Bot> *> >,std::_Iterator_base12>
PUBLIC	??1?$_List_unchecked_const_iterator@V?$_List_val@U?$_List_simple_types@PAV?$Goal@VRaven_Bot@@@@@std@@@std@@U_Iterator_base12@2@@std@@QAE@XZ ; std::_List_unchecked_const_iterator<std::_List_val<std::_List_simple_types<Goal<Raven_Bot> *> >,std::_Iterator_base12>::~_List_unchecked_const_iterator<std::_List_val<std::_List_simple_types<Goal<Raven_Bot> *> >,std::_Iterator_base12>
PUBLIC	??0?$_List_unchecked_const_iterator@V?$_List_val@U?$_List_simple_types@PAV?$Goal@VRaven_Bot@@@@@std@@@std@@U_Iterator_base12@2@@std@@QAE@ABV01@@Z ; std::_List_unchecked_const_iterator<std::_List_val<std::_List_simple_types<Goal<Raven_Bot> *> >,std::_Iterator_base12>::_List_unchecked_const_iterator<std::_List_val<std::_List_simple_types<Goal<Raven_Bot> *> >,std::_Iterator_base12>
PUBLIC	??0?$_List_unchecked_const_iterator@V?$_List_val@U?$_List_simple_types@PAV?$Goal@VRaven_Bot@@@@@std@@@std@@U_Iterator_base12@2@@std@@QAE@$$QAV01@@Z ; std::_List_unchecked_const_iterator<std::_List_val<std::_List_simple_types<Goal<Raven_Bot> *> >,std::_Iterator_base12>::_List_unchecked_const_iterator<std::_List_val<std::_List_simple_types<Goal<Raven_Bot> *> >,std::_Iterator_base12>
PUBLIC	??0?$_List_const_iterator@V?$_List_val@U?$_List_simple_types@PAV?$Goal@VRaven_Bot@@@@@std@@@std@@@std@@QAE@PAU?$_List_node@PAV?$Goal@VRaven_Bot@@@@PAX@1@PBV?$_List_val@U?$_List_simple_types@PAV?$Goal@VRaven_Bot@@@@@std@@@1@@Z ; std::_List_const_iterator<std::_List_val<std::_List_simple_types<Goal<Raven_Bot> *> > >::_List_const_iterator<std::_List_val<std::_List_simple_types<Goal<Raven_Bot> *> > >
PUBLIC	??D?$_List_const_iterator@V?$_List_val@U?$_List_simple_types@PAV?$Goal@VRaven_Bot@@@@@std@@@std@@@std@@QBEABQAV?$Goal@VRaven_Bot@@@@XZ ; std::_List_const_iterator<std::_List_val<std::_List_simple_types<Goal<Raven_Bot> *> > >::operator*
PUBLIC	??E?$_List_const_iterator@V?$_List_val@U?$_List_simple_types@PAV?$Goal@VRaven_Bot@@@@@std@@@std@@@std@@QAEAAV01@XZ ; std::_List_const_iterator<std::_List_val<std::_List_simple_types<Goal<Raven_Bot> *> > >::operator++
PUBLIC	??E?$_List_const_iterator@V?$_List_val@U?$_List_simple_types@PAV?$Goal@VRaven_Bot@@@@@std@@@std@@@std@@QAE?AV01@H@Z ; std::_List_const_iterator<std::_List_val<std::_List_simple_types<Goal<Raven_Bot> *> > >::operator++
PUBLIC	??8?$_List_const_iterator@V?$_List_val@U?$_List_simple_types@PAV?$Goal@VRaven_Bot@@@@@std@@@std@@@std@@QBE_NABV01@@Z ; std::_List_const_iterator<std::_List_val<std::_List_simple_types<Goal<Raven_Bot> *> > >::operator==
PUBLIC	??9?$_List_const_iterator@V?$_List_val@U?$_List_simple_types@PAV?$Goal@VRaven_Bot@@@@@std@@@std@@@std@@QBE_NABV01@@Z ; std::_List_const_iterator<std::_List_val<std::_List_simple_types<Goal<Raven_Bot> *> > >::operator!=
PUBLIC	??1?$_List_const_iterator@V?$_List_val@U?$_List_simple_types@PAV?$Goal@VRaven_Bot@@@@@std@@@std@@@std@@QAE@XZ ; std::_List_const_iterator<std::_List_val<std::_List_simple_types<Goal<Raven_Bot> *> > >::~_List_const_iterator<std::_List_val<std::_List_simple_types<Goal<Raven_Bot> *> > >
PUBLIC	??0?$_List_const_iterator@V?$_List_val@U?$_List_simple_types@PAV?$Goal@VRaven_Bot@@@@@std@@@std@@@std@@QAE@ABV01@@Z ; std::_List_const_iterator<std::_List_val<std::_List_simple_types<Goal<Raven_Bot> *> > >::_List_const_iterator<std::_List_val<std::_List_simple_types<Goal<Raven_Bot> *> > >
PUBLIC	??0?$_List_const_iterator@V?$_List_val@U?$_List_simple_types@PAV?$Goal@VRaven_Bot@@@@@std@@@std@@@std@@QAE@$$QAV01@@Z ; std::_List_const_iterator<std::_List_val<std::_List_simple_types<Goal<Raven_Bot> *> > >::_List_const_iterator<std::_List_val<std::_List_simple_types<Goal<Raven_Bot> *> > >
PUBLIC	??$addressof@PAU?$_List_node@PAV?$Goal@VRaven_Bot@@@@PAX@std@@@std@@YAPAPAU?$_List_node@PAV?$Goal@VRaven_Bot@@@@PAX@0@AAPAU10@@Z ; std::addressof<std::_List_node<Goal<Raven_Bot> *,void *> *>
PUBLIC	??0?$_List_iterator@V?$_List_val@U?$_List_simple_types@PAV?$Goal@VRaven_Bot@@@@@std@@@std@@@std@@QAE@PAU?$_List_node@PAV?$Goal@VRaven_Bot@@@@PAX@1@PBV?$_List_val@U?$_List_simple_types@PAV?$Goal@VRaven_Bot@@@@@std@@@1@@Z ; std::_List_iterator<std::_List_val<std::_List_simple_types<Goal<Raven_Bot> *> > >::_List_iterator<std::_List_val<std::_List_simple_types<Goal<Raven_Bot> *> > >
PUBLIC	??D?$_List_iterator@V?$_List_val@U?$_List_simple_types@PAV?$Goal@VRaven_Bot@@@@@std@@@std@@@std@@QBEAAPAV?$Goal@VRaven_Bot@@@@XZ ; std::_List_iterator<std::_List_val<std::_List_simple_types<Goal<Raven_Bot> *> > >::operator*
PUBLIC	??E?$_List_iterator@V?$_List_val@U?$_List_simple_types@PAV?$Goal@VRaven_Bot@@@@@std@@@std@@@std@@QAEAAV01@XZ ; std::_List_iterator<std::_List_val<std::_List_simple_types<Goal<Raven_Bot> *> > >::operator++
PUBLIC	??1?$_List_iterator@V?$_List_val@U?$_List_simple_types@PAV?$Goal@VRaven_Bot@@@@@std@@@std@@@std@@QAE@XZ ; std::_List_iterator<std::_List_val<std::_List_simple_types<Goal<Raven_Bot> *> > >::~_List_iterator<std::_List_val<std::_List_simple_types<Goal<Raven_Bot> *> > >
PUBLIC	??$destroy@PAU?$_List_node@PAV?$Goal@VRaven_Bot@@@@PAX@std@@@?$_Default_allocator_traits@V?$allocator@U?$_List_node@PAV?$Goal@VRaven_Bot@@@@PAX@std@@@std@@@std@@SAXAAV?$allocator@U?$_List_node@PAV?$Goal@VRaven_Bot@@@@PAX@std@@@1@QAPAU?$_List_node@PAV?$Goal@VRaven_Bot@@@@PAX@1@@Z ; std::_Default_allocator_traits<std::allocator<std::_List_node<Goal<Raven_Bot> *,void *> > >::destroy<std::_List_node<Goal<Raven_Bot> *,void *> *>
PUBLIC	??$addressof@$$CBV?$_List_val@U?$_List_simple_types@PAV?$Goal@VRaven_Bot@@@@@std@@@std@@@std@@YAPBV?$_List_val@U?$_List_simple_types@PAV?$Goal@VRaven_Bot@@@@@std@@@0@ABV10@@Z ; std::addressof<std::_List_val<std::_List_simple_types<Goal<Raven_Bot> *> > const >
PUBLIC	??_7exception@std@@6B@				; std::exception::`vftable'
PUBLIC	??_C@_0BC@EOODALEL@Unknown?5exception@		; `string'
PUBLIC	??_C@_0BB@FCMFBGOM@invalid?5argument@		; `string'
PUBLIC	??_C@_02DKCKIIND@?$CFs@				; `string'
PUBLIC	??_C@_1CG@JNLFBNGN@?$AA?$CC?$AAi?$AAn?$AAv?$AAa?$AAl?$AAi?$AAd?$AA?5?$AAa?$AAr?$AAg?$AAu?$AAm?$AAe@ ; `string'
PUBLIC	??_C@_0BJ@LFDBABJJ@ITERATOR?5LIST?5CORRUPTED?$CB@ ; `string'
PUBLIC	??_C@_0GJ@DMCEMOMH@c?3?2program?5files?5?$CIx86?$CJ?2microsof@ ; `string'
PUBLIC	??_C@_1NC@HPHBFJCM@?$AAc?$AA?3?$AA?2?$AAp?$AAr?$AAo?$AAg?$AAr?$AAa?$AAm?$AA?5?$AAf?$AAi?$AAl?$AAe@ ; `string'
PUBLIC	??_C@_1EE@KLDMFDFL@?$AAs?$AAt?$AAd?$AA?3?$AA?3?$AA_?$AAI?$AAt?$AAe?$AAr?$AAa?$AAt?$AAo?$AAr?$AA_@ ; `string'
PUBLIC	??_C@_1DG@PLBPCAEM@?$AA?$CC?$AAI?$AAT?$AAE?$AAR?$AAA?$AAT?$AAO?$AAR?$AA?5?$AAL?$AAI?$AAS?$AAT?$AA?5@ ; `string'
PUBLIC	??_C@_0GJ@CAJJPMGE@c?3?2program?5files?5?$CIx86?$CJ?2microsof@ ; `string'
PUBLIC	??_C@_1NC@ICJKIMIP@?$AAc?$AA?3?$AA?2?$AAp?$AAr?$AAo?$AAg?$AAr?$AAa?$AAm?$AA?5?$AAf?$AAi?$AAl?$AAe@ ; `string'
PUBLIC	??_C@_1EK@NIFDJFDG@?$AAs?$AAt?$AAd?$AA?3?$AA?3?$AA_?$AAA?$AAd?$AAj?$AAu?$AAs?$AAt?$AA_?$AAm?$AAa@ ; `string'
PUBLIC	??_7runtime_error@std@@6B@			; std::runtime_error::`vftable'
PUBLIC	__TI2?AVruntime_error@std@@
PUBLIC	__CTA2?AVruntime_error@std@@
PUBLIC	??_R0?AVruntime_error@std@@@8			; std::runtime_error `RTTI Type Descriptor'
PUBLIC	__CT??_R0?AVruntime_error@std@@@8??0runtime_error@std@@QAE@ABV01@@Z12
PUBLIC	??_R0?AVexception@std@@@8			; std::exception `RTTI Type Descriptor'
PUBLIC	__CT??_R0?AVexception@std@@@8??0exception@std@@QAE@ABV01@@Z12
PUBLIC	??_7?$Goal@VRaven_Bot@@@@6B@			; Goal<Raven_Bot>::`vftable'
PUBLIC	??_7Goal_Wander@@6B@				; Goal_Wander::`vftable'
PUBLIC	??_C@_0CB@OHIHCHGJ@Cannot?5add?5goals?5to?5atomic?5goal@ ; `string'
PUBLIC	?id@?$codecvt@DDU_Mbstatet@@@std@@2V0locale@2@A	; std::codecvt<char,char,_Mbstatet>::id
PUBLIC	?id@?$num_put@DV?$ostreambuf_iterator@DU?$char_traits@D@std@@@std@@@std@@2V0locale@2@A ; std::num_put<char,std::ostreambuf_iterator<char,std::char_traits<char> > >::id
PUBLIC	?id@?$numpunct@D@std@@2V0locale@2@A		; std::numpunct<char>::id
PUBLIC	?id@?$num_get@DV?$istreambuf_iterator@DU?$char_traits@D@std@@@std@@@std@@2V0locale@2@A ; std::num_get<char,std::istreambuf_iterator<char,std::char_traits<char> > >::id
PUBLIC	??_C@_0BM@BALDKKHE@list?5iterators?5incompatible@ ; `string'
PUBLIC	??_C@_0GF@CDIONFB@c?3?2program?5files?5?$CIx86?$CJ?2microsof@ ; `string'
PUBLIC	??_C@_1MK@MDLCPFJD@?$AAc?$AA?3?$AA?2?$AAp?$AAr?$AAo?$AAg?$AAr?$AAa?$AAm?$AA?5?$AAf?$AAi?$AAl?$AAe@ ; `string'
PUBLIC	??_C@_1PM@NGMJNEOB@?$AAs?$AAt?$AAd?$AA?3?$AA?3?$AA_?$AAL?$AAi?$AAs?$AAt?$AA_?$AAc?$AAo?$AAn?$AAs@ ; `string'
PUBLIC	??_C@_1DM@KDLJAKOP@?$AA?$CC?$AAl?$AAi?$AAs?$AAt?$AA?5?$AAi?$AAt?$AAe?$AAr?$AAa?$AAt?$AAo?$AAr?$AAs@ ; `string'
PUBLIC	??_C@_0DB@ENBCPNKO@cannot?5increment?5value?9initiali@ ; `string'
PUBLIC	??_C@_1PM@HGDEDNCE@?$AAs?$AAt?$AAd?$AA?3?$AA?3?$AA_?$AAL?$AAi?$AAs?$AAt?$AA_?$AAc?$AAo?$AAn?$AAs@ ; `string'
PUBLIC	??_C@_1GG@JLMAGPNK@?$AA?$CC?$AAc?$AAa?$AAn?$AAn?$AAo?$AAt?$AA?5?$AAi?$AAn?$AAc?$AAr?$AAe?$AAm?$AAe@ ; `string'
PUBLIC	??_C@_0CD@PMFMCEG@cannot?5increment?5end?5list?5itera@ ; `string'
PUBLIC	??_C@_1EK@OKKCFDJN@?$AA?$CC?$AAc?$AAa?$AAn?$AAn?$AAo?$AAt?$AA?5?$AAi?$AAn?$AAc?$AAr?$AAe?$AAm?$AAe@ ; `string'
PUBLIC	??_C@_0DD@MBIHGLJE@cannot?5dereference?5value?9initia@ ; `string'
PUBLIC	??_C@_1PK@KKMOJEL@?$AAs?$AAt?$AAd?$AA?3?$AA?3?$AA_?$AAL?$AAi?$AAs?$AAt?$AA_?$AAc?$AAo?$AAn?$AAs@ ; `string'
PUBLIC	??_C@_1GK@NKIMOCIG@?$AA?$CC?$AAc?$AAa?$AAn?$AAn?$AAo?$AAt?$AA?5?$AAd?$AAe?$AAr?$AAe?$AAf?$AAe?$AAr@ ; `string'
PUBLIC	??_C@_0CF@JCBFHMPL@cannot?5dereference?5end?5list?5ite@ ; `string'
PUBLIC	??_C@_1EO@CNEFBDCF@?$AA?$CC?$AAc?$AAa?$AAn?$AAn?$AAo?$AAt?$AA?5?$AAd?$AAe?$AAr?$AAe?$AAf?$AAe?$AAr@ ; `string'
PUBLIC	??_C@_0CC@KEJJOMBH@list?5erase?5iterator?5outside?5ran@ ; `string'
PUBLIC	??_C@_1NG@CFOJKHE@?$AAs?$AAt?$AAd?$AA?3?$AA?3?$AAl?$AAi?$AAs?$AAt?$AA?$DM?$AAc?$AAl?$AAa?$AAs?$AAs@ ; `string'
PUBLIC	??_C@_1EI@FHIDKIBN@?$AA?$CC?$AAl?$AAi?$AAs?$AAt?$AA?5?$AAe?$AAr?$AAa?$AAs?$AAe?$AA?5?$AAi?$AAt?$AAe@ ; `string'
PUBLIC	??_R4exception@std@@6B@				; std::exception::`RTTI Complete Object Locator'
PUBLIC	??_R3exception@std@@8				; std::exception::`RTTI Class Hierarchy Descriptor'
PUBLIC	??_R2exception@std@@8				; std::exception::`RTTI Base Class Array'
PUBLIC	??_R1A@?0A@EA@exception@std@@8			; std::exception::`RTTI Base Class Descriptor at (0,-1,0,64)'
PUBLIC	??_R4runtime_error@std@@6B@			; std::runtime_error::`RTTI Complete Object Locator'
PUBLIC	??_R3runtime_error@std@@8			; std::runtime_error::`RTTI Class Hierarchy Descriptor'
PUBLIC	??_R2runtime_error@std@@8			; std::runtime_error::`RTTI Base Class Array'
PUBLIC	??_R1A@?0A@EA@runtime_error@std@@8		; std::runtime_error::`RTTI Base Class Descriptor at (0,-1,0,64)'
PUBLIC	??_R1A@?0A@EA@?$Goal@VRaven_Bot@@@@8		; Goal<Raven_Bot>::`RTTI Base Class Descriptor at (0,-1,0,64)'
PUBLIC	??_R0?AV?$Goal@VRaven_Bot@@@@@8			; Goal<Raven_Bot> `RTTI Type Descriptor'
PUBLIC	??_R3?$Goal@VRaven_Bot@@@@8			; Goal<Raven_Bot>::`RTTI Class Hierarchy Descriptor'
PUBLIC	??_R2?$Goal@VRaven_Bot@@@@8			; Goal<Raven_Bot>::`RTTI Base Class Array'
PUBLIC	??_R4?$Goal@VRaven_Bot@@@@6B@			; Goal<Raven_Bot>::`RTTI Complete Object Locator'
PUBLIC	??_R4Goal_Wander@@6B@				; Goal_Wander::`RTTI Complete Object Locator'
PUBLIC	??_R0?AVGoal_Wander@@@8				; Goal_Wander `RTTI Type Descriptor'
PUBLIC	??_R3Goal_Wander@@8				; Goal_Wander::`RTTI Class Hierarchy Descriptor'
PUBLIC	??_R2Goal_Wander@@8				; Goal_Wander::`RTTI Base Class Array'
PUBLIC	??_R1A@?0A@EA@Goal_Wander@@8			; Goal_Wander::`RTTI Base Class Descriptor at (0,-1,0,64)'
PUBLIC	__real@0010000000000000
PUBLIC	__real@00800000
PUBLIC	__real@402e000000000000
PUBLIC	__real@7f7fffff
PUBLIC	__real@7fefffffffffffff
EXTRN	__purecall:PROC
EXTRN	??2@YAPAXI@Z:PROC				; operator new
EXTRN	??3@YAXPAXI@Z:PROC				; operator delete
EXTRN	__invalid_parameter:PROC
EXTRN	__CrtDbgReport:PROC
EXTRN	??0_Lockit@std@@QAE@H@Z:PROC			; std::_Lockit::_Lockit
EXTRN	??1_Lockit@std@@QAE@XZ:PROC			; std::_Lockit::~_Lockit
EXTRN	___std_exception_copy:PROC
EXTRN	___std_exception_destroy:PROC
EXTRN	??_Eexception@std@@UAEPAXI@Z:PROC		; std::exception::`vector deleting destructor'
EXTRN	??_Eruntime_error@std@@UAEPAXI@Z:PROC		; std::runtime_error::`vector deleting destructor'
EXTRN	__imp__SetBkMode@8:PROC
EXTRN	__imp__SetTextColor@8:PROC
EXTRN	__imp__TextOutA@20:PROC
EXTRN	?Instance@Cgdi@@SAPAV1@XZ:PROC			; Cgdi::Instance
EXTRN	?hasLOSto@Raven_Bot@@QBE_NUVector2D@@@Z:PROC	; Raven_Bot::hasLOSto
EXTRN	??_E?$Goal@VRaven_Bot@@@@UAEPAXI@Z:PROC		; Goal<Raven_Bot>::`vector deleting destructor'
EXTRN	?RequestPathToItem@Raven_PathPlanner@@QAE_NI@Z:PROC ; Raven_PathPlanner::RequestPathToItem
EXTRN	?GetPath@Raven_PathPlanner@@QAE?AV?$list@VPathEdge@@V?$allocator@VPathEdge@@@std@@@std@@XZ:PROC ; Raven_PathPlanner::GetPath
EXTRN	?Activate@Goal_Wander@@UAEXXZ:PROC		; Goal_Wander::Activate
EXTRN	?Process@Goal_Wander@@UAEHXZ:PROC		; Goal_Wander::Process
EXTRN	?Terminate@Goal_Wander@@UAEXXZ:PROC		; Goal_Wander::Terminate
EXTRN	??_EGoal_Wander@@UAEPAXI@Z:PROC			; Goal_Wander::`vector deleting destructor'
EXTRN	??0Goal_FollowPath@@QAE@PAVRaven_Bot@@V?$list@VPathEdge@@V?$allocator@VPathEdge@@@std@@@std@@@Z:PROC ; Goal_FollowPath::Goal_FollowPath
EXTRN	@_RTC_CheckStackVars@8:PROC
EXTRN	@__security_check_cookie@4:PROC
EXTRN	__CxxThrowException@8:PROC
EXTRN	__RTC_CheckEsp:PROC
EXTRN	__RTC_InitBase:PROC
EXTRN	__RTC_Shutdown:PROC
EXTRN	___CxxFrameHandler3:PROC
EXTRN	??_7type_info@@6B@:QWORD			; type_info::`vftable'
EXTRN	___security_cookie:DWORD
EXTRN	__fltused:DWORD
_BSS	SEGMENT
?MaxInt@@3HB DD	01H DUP (?)				; MaxInt
	ALIGN	8

?MaxDouble@@3NB DQ 01H DUP (?)				; MaxDouble
?MinDouble@@3NB DQ 01H DUP (?)				; MinDouble
?MaxFloat@@3MB DD 01H DUP (?)				; MaxFloat
?MinFloat@@3MB DD 01H DUP (?)				; MinFloat
_BSS	ENDS
;	COMDAT ?id@?$codecvt@DDU_Mbstatet@@@std@@2V0locale@2@A
_BSS	SEGMENT
?id@?$codecvt@DDU_Mbstatet@@@std@@2V0locale@2@A DD 01H DUP (?) ; std::codecvt<char,char,_Mbstatet>::id
_BSS	ENDS
;	COMDAT ?id@?$num_put@DV?$ostreambuf_iterator@DU?$char_traits@D@std@@@std@@@std@@2V0locale@2@A
_BSS	SEGMENT
?id@?$num_put@DV?$ostreambuf_iterator@DU?$char_traits@D@std@@@std@@@std@@2V0locale@2@A DD 01H DUP (?) ; std::num_put<char,std::ostreambuf_iterator<char,std::char_traits<char> > >::id
_BSS	ENDS
;	COMDAT ?id@?$numpunct@D@std@@2V0locale@2@A
_BSS	SEGMENT
?id@?$numpunct@D@std@@2V0locale@2@A DD 01H DUP (?)	; std::numpunct<char>::id
_BSS	ENDS
;	COMDAT ?id@?$num_get@DV?$istreambuf_iterator@DU?$char_traits@D@std@@@std@@@std@@2V0locale@2@A
_BSS	SEGMENT
?id@?$num_get@DV?$istreambuf_iterator@DU?$char_traits@D@std@@@std@@@std@@2V0locale@2@A DD 01H DUP (?) ; std::num_get<char,std::istreambuf_iterator<char,std::char_traits<char> > >::id
_BSS	ENDS
CRT$XCU	SEGMENT
?MaxInt$initializer$@@3P6AXXZA DD FLAT:??__EMaxInt@@YAXXZ ; MaxInt$initializer$
CRT$XCU	ENDS
;	COMDAT __real@7fefffffffffffff
CONST	SEGMENT
__real@7fefffffffffffff DQ 07fefffffffffffffr	; 1.79769e+308
CONST	ENDS
;	COMDAT __real@7f7fffff
CONST	SEGMENT
__real@7f7fffff DD 07f7fffffr			; 3.40282e+38
CONST	ENDS
;	COMDAT __real@402e000000000000
CONST	SEGMENT
__real@402e000000000000 DQ 0402e000000000000r	; 15
CONST	ENDS
;	COMDAT __real@00800000
CONST	SEGMENT
__real@00800000 DD 000800000r			; 1.17549e-38
CONST	ENDS
;	COMDAT __real@0010000000000000
CONST	SEGMENT
__real@0010000000000000 DQ 00010000000000000r	; 2.22507e-308
CONST	ENDS
;	COMDAT rtc$TMZ
rtc$TMZ	SEGMENT
__RTC_Shutdown.rtc$TMZ DD FLAT:__RTC_Shutdown
rtc$TMZ	ENDS
;	COMDAT rtc$IMZ
rtc$IMZ	SEGMENT
__RTC_InitBase.rtc$IMZ DD FLAT:__RTC_InitBase
rtc$IMZ	ENDS
;	COMDAT ??_R1A@?0A@EA@Goal_Wander@@8
rdata$r	SEGMENT
??_R1A@?0A@EA@Goal_Wander@@8 DD FLAT:??_R0?AVGoal_Wander@@@8 ; Goal_Wander::`RTTI Base Class Descriptor at (0,-1,0,64)'
	DD	01H
	DD	00H
	DD	0ffffffffH
	DD	00H
	DD	040H
	DD	FLAT:??_R3Goal_Wander@@8
rdata$r	ENDS
;	COMDAT ??_R2Goal_Wander@@8
rdata$r	SEGMENT
??_R2Goal_Wander@@8 DD FLAT:??_R1A@?0A@EA@Goal_Wander@@8 ; Goal_Wander::`RTTI Base Class Array'
	DD	FLAT:??_R1A@?0A@EA@?$Goal@VRaven_Bot@@@@8
rdata$r	ENDS
;	COMDAT ??_R3Goal_Wander@@8
rdata$r	SEGMENT
??_R3Goal_Wander@@8 DD 00H				; Goal_Wander::`RTTI Class Hierarchy Descriptor'
	DD	00H
	DD	02H
	DD	FLAT:??_R2Goal_Wander@@8
rdata$r	ENDS
;	COMDAT ??_R0?AVGoal_Wander@@@8
data$r	SEGMENT
??_R0?AVGoal_Wander@@@8 DD FLAT:??_7type_info@@6B@	; Goal_Wander `RTTI Type Descriptor'
	DD	00H
	DB	'.?AVGoal_Wander@@', 00H
data$r	ENDS
;	COMDAT ??_R4Goal_Wander@@6B@
rdata$r	SEGMENT
??_R4Goal_Wander@@6B@ DD 00H				; Goal_Wander::`RTTI Complete Object Locator'
	DD	00H
	DD	00H
	DD	FLAT:??_R0?AVGoal_Wander@@@8
	DD	FLAT:??_R3Goal_Wander@@8
rdata$r	ENDS
;	COMDAT ??_R4?$Goal@VRaven_Bot@@@@6B@
rdata$r	SEGMENT
??_R4?$Goal@VRaven_Bot@@@@6B@ DD 00H			; Goal<Raven_Bot>::`RTTI Complete Object Locator'
	DD	00H
	DD	00H
	DD	FLAT:??_R0?AV?$Goal@VRaven_Bot@@@@@8
	DD	FLAT:??_R3?$Goal@VRaven_Bot@@@@8
rdata$r	ENDS
;	COMDAT ??_R2?$Goal@VRaven_Bot@@@@8
rdata$r	SEGMENT
??_R2?$Goal@VRaven_Bot@@@@8 DD FLAT:??_R1A@?0A@EA@?$Goal@VRaven_Bot@@@@8 ; Goal<Raven_Bot>::`RTTI Base Class Array'
rdata$r	ENDS
;	COMDAT ??_R3?$Goal@VRaven_Bot@@@@8
rdata$r	SEGMENT
??_R3?$Goal@VRaven_Bot@@@@8 DD 00H			; Goal<Raven_Bot>::`RTTI Class Hierarchy Descriptor'
	DD	00H
	DD	01H
	DD	FLAT:??_R2?$Goal@VRaven_Bot@@@@8
rdata$r	ENDS
;	COMDAT ??_R0?AV?$Goal@VRaven_Bot@@@@@8
data$r	SEGMENT
??_R0?AV?$Goal@VRaven_Bot@@@@@8 DD FLAT:??_7type_info@@6B@ ; Goal<Raven_Bot> `RTTI Type Descriptor'
	DD	00H
	DB	'.?AV?$Goal@VRaven_Bot@@@@', 00H
data$r	ENDS
;	COMDAT ??_R1A@?0A@EA@?$Goal@VRaven_Bot@@@@8
rdata$r	SEGMENT
??_R1A@?0A@EA@?$Goal@VRaven_Bot@@@@8 DD FLAT:??_R0?AV?$Goal@VRaven_Bot@@@@@8 ; Goal<Raven_Bot>::`RTTI Base Class Descriptor at (0,-1,0,64)'
	DD	00H
	DD	00H
	DD	0ffffffffH
	DD	00H
	DD	040H
	DD	FLAT:??_R3?$Goal@VRaven_Bot@@@@8
rdata$r	ENDS
;	COMDAT ??_R1A@?0A@EA@runtime_error@std@@8
rdata$r	SEGMENT
??_R1A@?0A@EA@runtime_error@std@@8 DD FLAT:??_R0?AVruntime_error@std@@@8 ; std::runtime_error::`RTTI Base Class Descriptor at (0,-1,0,64)'
	DD	01H
	DD	00H
	DD	0ffffffffH
	DD	00H
	DD	040H
	DD	FLAT:??_R3runtime_error@std@@8
rdata$r	ENDS
;	COMDAT ??_R2runtime_error@std@@8
rdata$r	SEGMENT
??_R2runtime_error@std@@8 DD FLAT:??_R1A@?0A@EA@runtime_error@std@@8 ; std::runtime_error::`RTTI Base Class Array'
	DD	FLAT:??_R1A@?0A@EA@exception@std@@8
rdata$r	ENDS
;	COMDAT ??_R3runtime_error@std@@8
rdata$r	SEGMENT
??_R3runtime_error@std@@8 DD 00H			; std::runtime_error::`RTTI Class Hierarchy Descriptor'
	DD	00H
	DD	02H
	DD	FLAT:??_R2runtime_error@std@@8
rdata$r	ENDS
;	COMDAT ??_R4runtime_error@std@@6B@
rdata$r	SEGMENT
??_R4runtime_error@std@@6B@ DD 00H			; std::runtime_error::`RTTI Complete Object Locator'
	DD	00H
	DD	00H
	DD	FLAT:??_R0?AVruntime_error@std@@@8
	DD	FLAT:??_R3runtime_error@std@@8
rdata$r	ENDS
;	COMDAT ??_R1A@?0A@EA@exception@std@@8
rdata$r	SEGMENT
??_R1A@?0A@EA@exception@std@@8 DD FLAT:??_R0?AVexception@std@@@8 ; std::exception::`RTTI Base Class Descriptor at (0,-1,0,64)'
	DD	00H
	DD	00H
	DD	0ffffffffH
	DD	00H
	DD	040H
	DD	FLAT:??_R3exception@std@@8
rdata$r	ENDS
;	COMDAT ??_R2exception@std@@8
rdata$r	SEGMENT
??_R2exception@std@@8 DD FLAT:??_R1A@?0A@EA@exception@std@@8 ; std::exception::`RTTI Base Class Array'
rdata$r	ENDS
;	COMDAT ??_R3exception@std@@8
rdata$r	SEGMENT
??_R3exception@std@@8 DD 00H				; std::exception::`RTTI Class Hierarchy Descriptor'
	DD	00H
	DD	01H
	DD	FLAT:??_R2exception@std@@8
rdata$r	ENDS
;	COMDAT ??_R4exception@std@@6B@
rdata$r	SEGMENT
??_R4exception@std@@6B@ DD 00H				; std::exception::`RTTI Complete Object Locator'
	DD	00H
	DD	00H
	DD	FLAT:??_R0?AVexception@std@@@8
	DD	FLAT:??_R3exception@std@@8
rdata$r	ENDS
;	COMDAT ??_C@_1EI@FHIDKIBN@?$AA?$CC?$AAl?$AAi?$AAs?$AAt?$AA?5?$AAe?$AAr?$AAa?$AAs?$AAe?$AA?5?$AAi?$AAt?$AAe@
CONST	SEGMENT
??_C@_1EI@FHIDKIBN@?$AA?$CC?$AAl?$AAi?$AAs?$AAt?$AA?5?$AAe?$AAr?$AAa?$AAs?$AAe?$AA?5?$AAi?$AAt?$AAe@ DB '"'
	DB	00H, 'l', 00H, 'i', 00H, 's', 00H, 't', 00H, ' ', 00H, 'e', 00H
	DB	'r', 00H, 'a', 00H, 's', 00H, 'e', 00H, ' ', 00H, 'i', 00H, 't'
	DB	00H, 'e', 00H, 'r', 00H, 'a', 00H, 't', 00H, 'o', 00H, 'r', 00H
	DB	' ', 00H, 'o', 00H, 'u', 00H, 't', 00H, 's', 00H, 'i', 00H, 'd'
	DB	00H, 'e', 00H, ' ', 00H, 'r', 00H, 'a', 00H, 'n', 00H, 'g', 00H
	DB	'e', 00H, '"', 00H, 00H, 00H			; `string'
CONST	ENDS
;	COMDAT ??_C@_1NG@CFOJKHE@?$AAs?$AAt?$AAd?$AA?3?$AA?3?$AAl?$AAi?$AAs?$AAt?$AA?$DM?$AAc?$AAl?$AAa?$AAs?$AAs@
CONST	SEGMENT
??_C@_1NG@CFOJKHE@?$AAs?$AAt?$AAd?$AA?3?$AA?3?$AAl?$AAi?$AAs?$AAt?$AA?$DM?$AAc?$AAl?$AAa?$AAs?$AAs@ DB 's'
	DB	00H, 't', 00H, 'd', 00H, ':', 00H, ':', 00H, 'l', 00H, 'i', 00H
	DB	's', 00H, 't', 00H, '<', 00H, 'c', 00H, 'l', 00H, 'a', 00H, 's'
	DB	00H, 's', 00H, ' ', 00H, 'G', 00H, 'o', 00H, 'a', 00H, 'l', 00H
	DB	'<', 00H, 'c', 00H, 'l', 00H, 'a', 00H, 's', 00H, 's', 00H, ' '
	DB	00H, 'R', 00H, 'a', 00H, 'v', 00H, 'e', 00H, 'n', 00H, '_', 00H
	DB	'B', 00H, 'o', 00H, 't', 00H, '>', 00H, ' ', 00H, '*', 00H, ','
	DB	00H, 'c', 00H, 'l', 00H, 'a', 00H, 's', 00H, 's', 00H, ' ', 00H
	DB	's', 00H, 't', 00H, 'd', 00H, ':', 00H, ':', 00H, 'a', 00H, 'l'
	DB	00H, 'l', 00H, 'o', 00H, 'c', 00H, 'a', 00H, 't', 00H, 'o', 00H
	DB	'r', 00H, '<', 00H, 'c', 00H, 'l', 00H, 'a', 00H, 's', 00H, 's'
	DB	00H, ' ', 00H, 'G', 00H, 'o', 00H, 'a', 00H, 'l', 00H, '<', 00H
	DB	'c', 00H, 'l', 00H, 'a', 00H, 's', 00H, 's', 00H, ' ', 00H, 'R'
	DB	00H, 'a', 00H, 'v', 00H, 'e', 00H, 'n', 00H, '_', 00H, 'B', 00H
	DB	'o', 00H, 't', 00H, '>', 00H, ' ', 00H, '*', 00H, '>', 00H, ' '
	DB	00H, '>', 00H, ':', 00H, ':', 00H, '_', 00H, 'U', 00H, 'n', 00H
	DB	'l', 00H, 'i', 00H, 'n', 00H, 'k', 00H, 'n', 00H, 'o', 00H, 'd'
	DB	00H, 'e', 00H, 00H, 00H			; `string'
CONST	ENDS
;	COMDAT ??_C@_0CC@KEJJOMBH@list?5erase?5iterator?5outside?5ran@
CONST	SEGMENT
??_C@_0CC@KEJJOMBH@list?5erase?5iterator?5outside?5ran@ DB 'list erase it'
	DB	'erator outside range', 00H			; `string'
CONST	ENDS
;	COMDAT ??_C@_1EO@CNEFBDCF@?$AA?$CC?$AAc?$AAa?$AAn?$AAn?$AAo?$AAt?$AA?5?$AAd?$AAe?$AAr?$AAe?$AAf?$AAe?$AAr@
CONST	SEGMENT
??_C@_1EO@CNEFBDCF@?$AA?$CC?$AAc?$AAa?$AAn?$AAn?$AAo?$AAt?$AA?5?$AAd?$AAe?$AAr?$AAe?$AAf?$AAe?$AAr@ DB '"'
	DB	00H, 'c', 00H, 'a', 00H, 'n', 00H, 'n', 00H, 'o', 00H, 't', 00H
	DB	' ', 00H, 'd', 00H, 'e', 00H, 'r', 00H, 'e', 00H, 'f', 00H, 'e'
	DB	00H, 'r', 00H, 'e', 00H, 'n', 00H, 'c', 00H, 'e', 00H, ' ', 00H
	DB	'e', 00H, 'n', 00H, 'd', 00H, ' ', 00H, 'l', 00H, 'i', 00H, 's'
	DB	00H, 't', 00H, ' ', 00H, 'i', 00H, 't', 00H, 'e', 00H, 'r', 00H
	DB	'a', 00H, 't', 00H, 'o', 00H, 'r', 00H, '"', 00H, 00H, 00H ; `string'
CONST	ENDS
;	COMDAT ??_C@_0CF@JCBFHMPL@cannot?5dereference?5end?5list?5ite@
CONST	SEGMENT
??_C@_0CF@JCBFHMPL@cannot?5dereference?5end?5list?5ite@ DB 'cannot derefe'
	DB	'rence end list iterator', 00H		; `string'
CONST	ENDS
;	COMDAT ??_C@_1GK@NKIMOCIG@?$AA?$CC?$AAc?$AAa?$AAn?$AAn?$AAo?$AAt?$AA?5?$AAd?$AAe?$AAr?$AAe?$AAf?$AAe?$AAr@
CONST	SEGMENT
??_C@_1GK@NKIMOCIG@?$AA?$CC?$AAc?$AAa?$AAn?$AAn?$AAo?$AAt?$AA?5?$AAd?$AAe?$AAr?$AAe?$AAf?$AAe?$AAr@ DB '"'
	DB	00H, 'c', 00H, 'a', 00H, 'n', 00H, 'n', 00H, 'o', 00H, 't', 00H
	DB	' ', 00H, 'd', 00H, 'e', 00H, 'r', 00H, 'e', 00H, 'f', 00H, 'e'
	DB	00H, 'r', 00H, 'e', 00H, 'n', 00H, 'c', 00H, 'e', 00H, ' ', 00H
	DB	'v', 00H, 'a', 00H, 'l', 00H, 'u', 00H, 'e', 00H, '-', 00H, 'i'
	DB	00H, 'n', 00H, 'i', 00H, 't', 00H, 'i', 00H, 'a', 00H, 'l', 00H
	DB	'i', 00H, 'z', 00H, 'e', 00H, 'd', 00H, ' ', 00H, 'l', 00H, 'i'
	DB	00H, 's', 00H, 't', 00H, ' ', 00H, 'i', 00H, 't', 00H, 'e', 00H
	DB	'r', 00H, 'a', 00H, 't', 00H, 'o', 00H, 'r', 00H, '"', 00H, 00H
	DB	00H						; `string'
CONST	ENDS
;	COMDAT ??_C@_1PK@KKMOJEL@?$AAs?$AAt?$AAd?$AA?3?$AA?3?$AA_?$AAL?$AAi?$AAs?$AAt?$AA_?$AAc?$AAo?$AAn?$AAs@
CONST	SEGMENT
??_C@_1PK@KKMOJEL@?$AAs?$AAt?$AAd?$AA?3?$AA?3?$AA_?$AAL?$AAi?$AAs?$AAt?$AA_?$AAc?$AAo?$AAn?$AAs@ DB 's'
	DB	00H, 't', 00H, 'd', 00H, ':', 00H, ':', 00H, '_', 00H, 'L', 00H
	DB	'i', 00H, 's', 00H, 't', 00H, '_', 00H, 'c', 00H, 'o', 00H, 'n'
	DB	00H, 's', 00H, 't', 00H, '_', 00H, 'i', 00H, 't', 00H, 'e', 00H
	DB	'r', 00H, 'a', 00H, 't', 00H, 'o', 00H, 'r', 00H, '<', 00H, 'c'
	DB	00H, 'l', 00H, 'a', 00H, 's', 00H, 's', 00H, ' ', 00H, 's', 00H
	DB	't', 00H, 'd', 00H, ':', 00H, ':', 00H, '_', 00H, 'L', 00H, 'i'
	DB	00H, 's', 00H, 't', 00H, '_', 00H, 'v', 00H, 'a', 00H, 'l', 00H
	DB	'<', 00H, 's', 00H, 't', 00H, 'r', 00H, 'u', 00H, 'c', 00H, 't'
	DB	00H, ' ', 00H, 's', 00H, 't', 00H, 'd', 00H, ':', 00H, ':', 00H
	DB	'_', 00H, 'L', 00H, 'i', 00H, 's', 00H, 't', 00H, '_', 00H, 's'
	DB	00H, 'i', 00H, 'm', 00H, 'p', 00H, 'l', 00H, 'e', 00H, '_', 00H
	DB	't', 00H, 'y', 00H, 'p', 00H, 'e', 00H, 's', 00H, '<', 00H, 'c'
	DB	00H, 'l', 00H, 'a', 00H, 's', 00H, 's', 00H, ' ', 00H, 'G', 00H
	DB	'o', 00H, 'a', 00H, 'l', 00H, '<', 00H, 'c', 00H, 'l', 00H, 'a'
	DB	00H, 's', 00H, 's', 00H, ' ', 00H, 'R', 00H, 'a', 00H, 'v', 00H
	DB	'e', 00H, 'n', 00H, '_', 00H, 'B', 00H, 'o', 00H, 't', 00H, '>'
	DB	00H, ' ', 00H, '*', 00H, '>', 00H, ' ', 00H, '>', 00H, ' ', 00H
	DB	'>', 00H, ':', 00H, ':', 00H, 'o', 00H, 'p', 00H, 'e', 00H, 'r'
	DB	00H, 'a', 00H, 't', 00H, 'o', 00H, 'r', 00H, ' ', 00H, '*', 00H
	DB	00H, 00H					; `string'
CONST	ENDS
;	COMDAT ??_C@_0DD@MBIHGLJE@cannot?5dereference?5value?9initia@
CONST	SEGMENT
??_C@_0DD@MBIHGLJE@cannot?5dereference?5value?9initia@ DB 'cannot derefer'
	DB	'ence value-initialized list iterator', 00H	; `string'
CONST	ENDS
;	COMDAT ??_C@_1EK@OKKCFDJN@?$AA?$CC?$AAc?$AAa?$AAn?$AAn?$AAo?$AAt?$AA?5?$AAi?$AAn?$AAc?$AAr?$AAe?$AAm?$AAe@
CONST	SEGMENT
??_C@_1EK@OKKCFDJN@?$AA?$CC?$AAc?$AAa?$AAn?$AAn?$AAo?$AAt?$AA?5?$AAi?$AAn?$AAc?$AAr?$AAe?$AAm?$AAe@ DB '"'
	DB	00H, 'c', 00H, 'a', 00H, 'n', 00H, 'n', 00H, 'o', 00H, 't', 00H
	DB	' ', 00H, 'i', 00H, 'n', 00H, 'c', 00H, 'r', 00H, 'e', 00H, 'm'
	DB	00H, 'e', 00H, 'n', 00H, 't', 00H, ' ', 00H, 'e', 00H, 'n', 00H
	DB	'd', 00H, ' ', 00H, 'l', 00H, 'i', 00H, 's', 00H, 't', 00H, ' '
	DB	00H, 'i', 00H, 't', 00H, 'e', 00H, 'r', 00H, 'a', 00H, 't', 00H
	DB	'o', 00H, 'r', 00H, '"', 00H, 00H, 00H	; `string'
CONST	ENDS
;	COMDAT ??_C@_0CD@PMFMCEG@cannot?5increment?5end?5list?5itera@
CONST	SEGMENT
??_C@_0CD@PMFMCEG@cannot?5increment?5end?5list?5itera@ DB 'cannot increme'
	DB	'nt end list iterator', 00H			; `string'
CONST	ENDS
;	COMDAT ??_C@_1GG@JLMAGPNK@?$AA?$CC?$AAc?$AAa?$AAn?$AAn?$AAo?$AAt?$AA?5?$AAi?$AAn?$AAc?$AAr?$AAe?$AAm?$AAe@
CONST	SEGMENT
??_C@_1GG@JLMAGPNK@?$AA?$CC?$AAc?$AAa?$AAn?$AAn?$AAo?$AAt?$AA?5?$AAi?$AAn?$AAc?$AAr?$AAe?$AAm?$AAe@ DB '"'
	DB	00H, 'c', 00H, 'a', 00H, 'n', 00H, 'n', 00H, 'o', 00H, 't', 00H
	DB	' ', 00H, 'i', 00H, 'n', 00H, 'c', 00H, 'r', 00H, 'e', 00H, 'm'
	DB	00H, 'e', 00H, 'n', 00H, 't', 00H, ' ', 00H, 'v', 00H, 'a', 00H
	DB	'l', 00H, 'u', 00H, 'e', 00H, '-', 00H, 'i', 00H, 'n', 00H, 'i'
	DB	00H, 't', 00H, 'i', 00H, 'a', 00H, 'l', 00H, 'i', 00H, 'z', 00H
	DB	'e', 00H, 'd', 00H, ' ', 00H, 'l', 00H, 'i', 00H, 's', 00H, 't'
	DB	00H, ' ', 00H, 'i', 00H, 't', 00H, 'e', 00H, 'r', 00H, 'a', 00H
	DB	't', 00H, 'o', 00H, 'r', 00H, '"', 00H, 00H, 00H ; `string'
CONST	ENDS
;	COMDAT ??_C@_1PM@HGDEDNCE@?$AAs?$AAt?$AAd?$AA?3?$AA?3?$AA_?$AAL?$AAi?$AAs?$AAt?$AA_?$AAc?$AAo?$AAn?$AAs@
CONST	SEGMENT
??_C@_1PM@HGDEDNCE@?$AAs?$AAt?$AAd?$AA?3?$AA?3?$AA_?$AAL?$AAi?$AAs?$AAt?$AA_?$AAc?$AAo?$AAn?$AAs@ DB 's'
	DB	00H, 't', 00H, 'd', 00H, ':', 00H, ':', 00H, '_', 00H, 'L', 00H
	DB	'i', 00H, 's', 00H, 't', 00H, '_', 00H, 'c', 00H, 'o', 00H, 'n'
	DB	00H, 's', 00H, 't', 00H, '_', 00H, 'i', 00H, 't', 00H, 'e', 00H
	DB	'r', 00H, 'a', 00H, 't', 00H, 'o', 00H, 'r', 00H, '<', 00H, 'c'
	DB	00H, 'l', 00H, 'a', 00H, 's', 00H, 's', 00H, ' ', 00H, 's', 00H
	DB	't', 00H, 'd', 00H, ':', 00H, ':', 00H, '_', 00H, 'L', 00H, 'i'
	DB	00H, 's', 00H, 't', 00H, '_', 00H, 'v', 00H, 'a', 00H, 'l', 00H
	DB	'<', 00H, 's', 00H, 't', 00H, 'r', 00H, 'u', 00H, 'c', 00H, 't'
	DB	00H, ' ', 00H, 's', 00H, 't', 00H, 'd', 00H, ':', 00H, ':', 00H
	DB	'_', 00H, 'L', 00H, 'i', 00H, 's', 00H, 't', 00H, '_', 00H, 's'
	DB	00H, 'i', 00H, 'm', 00H, 'p', 00H, 'l', 00H, 'e', 00H, '_', 00H
	DB	't', 00H, 'y', 00H, 'p', 00H, 'e', 00H, 's', 00H, '<', 00H, 'c'
	DB	00H, 'l', 00H, 'a', 00H, 's', 00H, 's', 00H, ' ', 00H, 'G', 00H
	DB	'o', 00H, 'a', 00H, 'l', 00H, '<', 00H, 'c', 00H, 'l', 00H, 'a'
	DB	00H, 's', 00H, 's', 00H, ' ', 00H, 'R', 00H, 'a', 00H, 'v', 00H
	DB	'e', 00H, 'n', 00H, '_', 00H, 'B', 00H, 'o', 00H, 't', 00H, '>'
	DB	00H, ' ', 00H, '*', 00H, '>', 00H, ' ', 00H, '>', 00H, ' ', 00H
	DB	'>', 00H, ':', 00H, ':', 00H, 'o', 00H, 'p', 00H, 'e', 00H, 'r'
	DB	00H, 'a', 00H, 't', 00H, 'o', 00H, 'r', 00H, ' ', 00H, '+', 00H
	DB	'+', 00H, 00H, 00H				; `string'
CONST	ENDS
;	COMDAT ??_C@_0DB@ENBCPNKO@cannot?5increment?5value?9initiali@
CONST	SEGMENT
??_C@_0DB@ENBCPNKO@cannot?5increment?5value?9initiali@ DB 'cannot increme'
	DB	'nt value-initialized list iterator', 00H	; `string'
CONST	ENDS
;	COMDAT ??_C@_1DM@KDLJAKOP@?$AA?$CC?$AAl?$AAi?$AAs?$AAt?$AA?5?$AAi?$AAt?$AAe?$AAr?$AAa?$AAt?$AAo?$AAr?$AAs@
CONST	SEGMENT
??_C@_1DM@KDLJAKOP@?$AA?$CC?$AAl?$AAi?$AAs?$AAt?$AA?5?$AAi?$AAt?$AAe?$AAr?$AAa?$AAt?$AAo?$AAr?$AAs@ DB '"'
	DB	00H, 'l', 00H, 'i', 00H, 's', 00H, 't', 00H, ' ', 00H, 'i', 00H
	DB	't', 00H, 'e', 00H, 'r', 00H, 'a', 00H, 't', 00H, 'o', 00H, 'r'
	DB	00H, 's', 00H, ' ', 00H, 'i', 00H, 'n', 00H, 'c', 00H, 'o', 00H
	DB	'm', 00H, 'p', 00H, 'a', 00H, 't', 00H, 'i', 00H, 'b', 00H, 'l'
	DB	00H, 'e', 00H, '"', 00H, 00H, 00H		; `string'
CONST	ENDS
;	COMDAT ??_C@_1PM@NGMJNEOB@?$AAs?$AAt?$AAd?$AA?3?$AA?3?$AA_?$AAL?$AAi?$AAs?$AAt?$AA_?$AAc?$AAo?$AAn?$AAs@
CONST	SEGMENT
??_C@_1PM@NGMJNEOB@?$AAs?$AAt?$AAd?$AA?3?$AA?3?$AA_?$AAL?$AAi?$AAs?$AAt?$AA_?$AAc?$AAo?$AAn?$AAs@ DB 's'
	DB	00H, 't', 00H, 'd', 00H, ':', 00H, ':', 00H, '_', 00H, 'L', 00H
	DB	'i', 00H, 's', 00H, 't', 00H, '_', 00H, 'c', 00H, 'o', 00H, 'n'
	DB	00H, 's', 00H, 't', 00H, '_', 00H, 'i', 00H, 't', 00H, 'e', 00H
	DB	'r', 00H, 'a', 00H, 't', 00H, 'o', 00H, 'r', 00H, '<', 00H, 'c'
	DB	00H, 'l', 00H, 'a', 00H, 's', 00H, 's', 00H, ' ', 00H, 's', 00H
	DB	't', 00H, 'd', 00H, ':', 00H, ':', 00H, '_', 00H, 'L', 00H, 'i'
	DB	00H, 's', 00H, 't', 00H, '_', 00H, 'v', 00H, 'a', 00H, 'l', 00H
	DB	'<', 00H, 's', 00H, 't', 00H, 'r', 00H, 'u', 00H, 'c', 00H, 't'
	DB	00H, ' ', 00H, 's', 00H, 't', 00H, 'd', 00H, ':', 00H, ':', 00H
	DB	'_', 00H, 'L', 00H, 'i', 00H, 's', 00H, 't', 00H, '_', 00H, 's'
	DB	00H, 'i', 00H, 'm', 00H, 'p', 00H, 'l', 00H, 'e', 00H, '_', 00H
	DB	't', 00H, 'y', 00H, 'p', 00H, 'e', 00H, 's', 00H, '<', 00H, 'c'
	DB	00H, 'l', 00H, 'a', 00H, 's', 00H, 's', 00H, ' ', 00H, 'G', 00H
	DB	'o', 00H, 'a', 00H, 'l', 00H, '<', 00H, 'c', 00H, 'l', 00H, 'a'
	DB	00H, 's', 00H, 's', 00H, ' ', 00H, 'R', 00H, 'a', 00H, 'v', 00H
	DB	'e', 00H, 'n', 00H, '_', 00H, 'B', 00H, 'o', 00H, 't', 00H, '>'
	DB	00H, ' ', 00H, '*', 00H, '>', 00H, ' ', 00H, '>', 00H, ' ', 00H
	DB	'>', 00H, ':', 00H, ':', 00H, 'o', 00H, 'p', 00H, 'e', 00H, 'r'
	DB	00H, 'a', 00H, 't', 00H, 'o', 00H, 'r', 00H, ' ', 00H, '=', 00H
	DB	'=', 00H, 00H, 00H				; `string'
CONST	ENDS
;	COMDAT ??_C@_1MK@MDLCPFJD@?$AAc?$AA?3?$AA?2?$AAp?$AAr?$AAo?$AAg?$AAr?$AAa?$AAm?$AA?5?$AAf?$AAi?$AAl?$AAe@
CONST	SEGMENT
??_C@_1MK@MDLCPFJD@?$AAc?$AA?3?$AA?2?$AAp?$AAr?$AAo?$AAg?$AAr?$AAa?$AAm?$AA?5?$AAf?$AAi?$AAl?$AAe@ DB 'c'
	DB	00H, ':', 00H, '\', 00H, 'p', 00H, 'r', 00H, 'o', 00H, 'g', 00H
	DB	'r', 00H, 'a', 00H, 'm', 00H, ' ', 00H, 'f', 00H, 'i', 00H, 'l'
	DB	00H, 'e', 00H, 's', 00H, ' ', 00H, '(', 00H, 'x', 00H, '8', 00H
	DB	'6', 00H, ')', 00H, '\', 00H, 'm', 00H, 'i', 00H, 'c', 00H, 'r'
	DB	00H, 'o', 00H, 's', 00H, 'o', 00H, 'f', 00H, 't', 00H, ' ', 00H
	DB	'v', 00H, 'i', 00H, 's', 00H, 'u', 00H, 'a', 00H, 'l', 00H, ' '
	DB	00H, 's', 00H, 't', 00H, 'u', 00H, 'd', 00H, 'i', 00H, 'o', 00H
	DB	'\', 00H, '2', 00H, '0', 00H, '1', 00H, '7', 00H, '\', 00H, 'c'
	DB	00H, 'o', 00H, 'm', 00H, 'm', 00H, 'u', 00H, 'n', 00H, 'i', 00H
	DB	't', 00H, 'y', 00H, '\', 00H, 'v', 00H, 'c', 00H, '\', 00H, 't'
	DB	00H, 'o', 00H, 'o', 00H, 'l', 00H, 's', 00H, '\', 00H, 'm', 00H
	DB	's', 00H, 'v', 00H, 'c', 00H, '\', 00H, '1', 00H, '4', 00H, '.'
	DB	00H, '1', 00H, '5', 00H, '.', 00H, '2', 00H, '6', 00H, '7', 00H
	DB	'2', 00H, '6', 00H, '\', 00H, 'i', 00H, 'n', 00H, 'c', 00H, 'l'
	DB	00H, 'u', 00H, 'd', 00H, 'e', 00H, '\', 00H, 'l', 00H, 'i', 00H
	DB	's', 00H, 't', 00H, 00H, 00H			; `string'
CONST	ENDS
;	COMDAT ??_C@_0GF@CDIONFB@c?3?2program?5files?5?$CIx86?$CJ?2microsof@
CONST	SEGMENT
??_C@_0GF@CDIONFB@c?3?2program?5files?5?$CIx86?$CJ?2microsof@ DB 'c:\prog'
	DB	'ram files (x86)\microsoft visual studio\2017\community\vc\too'
	DB	'ls\msvc\14.15.26726\include\list', 00H	; `string'
CONST	ENDS
;	COMDAT ??_C@_0BM@BALDKKHE@list?5iterators?5incompatible@
CONST	SEGMENT
??_C@_0BM@BALDKKHE@list?5iterators?5incompatible@ DB 'list iterators inco'
	DB	'mpatible', 00H				; `string'
CONST	ENDS
;	COMDAT ??_C@_0CB@OHIHCHGJ@Cannot?5add?5goals?5to?5atomic?5goal@
CONST	SEGMENT
??_C@_0CB@OHIHCHGJ@Cannot?5add?5goals?5to?5atomic?5goal@ DB 'Cannot add g'
	DB	'oals to atomic goals', 00H			; `string'
CONST	ENDS
;	COMDAT ??_7Goal_Wander@@6B@
CONST	SEGMENT
??_7Goal_Wander@@6B@ DD FLAT:??_R4Goal_Wander@@6B@	; Goal_Wander::`vftable'
	DD	FLAT:??_EGoal_Wander@@UAEPAXI@Z
	DD	FLAT:?Activate@Goal_Wander@@UAEXXZ
	DD	FLAT:?Process@Goal_Wander@@UAEHXZ
	DD	FLAT:?Terminate@Goal_Wander@@UAEXXZ
	DD	FLAT:?HandleMessage@?$Goal@VRaven_Bot@@@@UAE_NABUTelegram@@@Z
	DD	FLAT:?AddSubgoal@?$Goal@VRaven_Bot@@@@UAEXPAV1@@Z
	DD	FLAT:?RenderAtPos@?$Goal@VRaven_Bot@@@@UBEXAAUVector2D@@PAVTypeToString@@@Z
	DD	FLAT:?Render@?$Goal@VRaven_Bot@@@@UAEXXZ
CONST	ENDS
;	COMDAT ??_7?$Goal@VRaven_Bot@@@@6B@
CONST	SEGMENT
??_7?$Goal@VRaven_Bot@@@@6B@ DD FLAT:??_R4?$Goal@VRaven_Bot@@@@6B@ ; Goal<Raven_Bot>::`vftable'
	DD	FLAT:??_E?$Goal@VRaven_Bot@@@@UAEPAXI@Z
	DD	FLAT:__purecall
	DD	FLAT:__purecall
	DD	FLAT:__purecall
	DD	FLAT:?HandleMessage@?$Goal@VRaven_Bot@@@@UAE_NABUTelegram@@@Z
	DD	FLAT:?AddSubgoal@?$Goal@VRaven_Bot@@@@UAEXPAV1@@Z
	DD	FLAT:?RenderAtPos@?$Goal@VRaven_Bot@@@@UBEXAAUVector2D@@PAVTypeToString@@@Z
	DD	FLAT:?Render@?$Goal@VRaven_Bot@@@@UAEXXZ
CONST	ENDS
;	COMDAT __CT??_R0?AVexception@std@@@8??0exception@std@@QAE@ABV01@@Z12
xdata$x	SEGMENT
__CT??_R0?AVexception@std@@@8??0exception@std@@QAE@ABV01@@Z12 DD 00H
	DD	FLAT:??_R0?AVexception@std@@@8
	DD	00H
	DD	0ffffffffH
	ORG $+4
	DD	0cH
	DD	FLAT:??0exception@std@@QAE@ABV01@@Z
xdata$x	ENDS
;	COMDAT ??_R0?AVexception@std@@@8
data$r	SEGMENT
??_R0?AVexception@std@@@8 DD FLAT:??_7type_info@@6B@	; std::exception `RTTI Type Descriptor'
	DD	00H
	DB	'.?AVexception@std@@', 00H
data$r	ENDS
;	COMDAT __CT??_R0?AVruntime_error@std@@@8??0runtime_error@std@@QAE@ABV01@@Z12
xdata$x	SEGMENT
__CT??_R0?AVruntime_error@std@@@8??0runtime_error@std@@QAE@ABV01@@Z12 DD 00H
	DD	FLAT:??_R0?AVruntime_error@std@@@8
	DD	00H
	DD	0ffffffffH
	ORG $+4
	DD	0cH
	DD	FLAT:??0runtime_error@std@@QAE@ABV01@@Z
xdata$x	ENDS
;	COMDAT ??_R0?AVruntime_error@std@@@8
data$r	SEGMENT
??_R0?AVruntime_error@std@@@8 DD FLAT:??_7type_info@@6B@ ; std::runtime_error `RTTI Type Descriptor'
	DD	00H
	DB	'.?AVruntime_error@std@@', 00H
data$r	ENDS
;	COMDAT __CTA2?AVruntime_error@std@@
xdata$x	SEGMENT
__CTA2?AVruntime_error@std@@ DD 02H
	DD	FLAT:__CT??_R0?AVruntime_error@std@@@8??0runtime_error@std@@QAE@ABV01@@Z12
	DD	FLAT:__CT??_R0?AVexception@std@@@8??0exception@std@@QAE@ABV01@@Z12
xdata$x	ENDS
;	COMDAT __TI2?AVruntime_error@std@@
xdata$x	SEGMENT
__TI2?AVruntime_error@std@@ DD 00H
	DD	FLAT:??1runtime_error@std@@UAE@XZ
	DD	00H
	DD	FLAT:__CTA2?AVruntime_error@std@@
xdata$x	ENDS
;	COMDAT ??_7runtime_error@std@@6B@
CONST	SEGMENT
??_7runtime_error@std@@6B@ DD FLAT:??_R4runtime_error@std@@6B@ ; std::runtime_error::`vftable'
	DD	FLAT:??_Eruntime_error@std@@UAEPAXI@Z
	DD	FLAT:?what@exception@std@@UBEPBDXZ
CONST	ENDS
;	COMDAT ??_C@_1EK@NIFDJFDG@?$AAs?$AAt?$AAd?$AA?3?$AA?3?$AA_?$AAA?$AAd?$AAj?$AAu?$AAs?$AAt?$AA_?$AAm?$AAa@
CONST	SEGMENT
??_C@_1EK@NIFDJFDG@?$AAs?$AAt?$AAd?$AA?3?$AA?3?$AA_?$AAA?$AAd?$AAj?$AAu?$AAs?$AAt?$AA_?$AAm?$AAa@ DB 's'
	DB	00H, 't', 00H, 'd', 00H, ':', 00H, ':', 00H, '_', 00H, 'A', 00H
	DB	'd', 00H, 'j', 00H, 'u', 00H, 's', 00H, 't', 00H, '_', 00H, 'm'
	DB	00H, 'a', 00H, 'n', 00H, 'u', 00H, 'a', 00H, 'l', 00H, 'l', 00H
	DB	'y', 00H, '_', 00H, 'v', 00H, 'e', 00H, 'c', 00H, 't', 00H, 'o'
	DB	00H, 'r', 00H, '_', 00H, 'a', 00H, 'l', 00H, 'i', 00H, 'g', 00H
	DB	'n', 00H, 'e', 00H, 'd', 00H, 00H, 00H	; `string'
CONST	ENDS
;	COMDAT ??_C@_1NC@ICJKIMIP@?$AAc?$AA?3?$AA?2?$AAp?$AAr?$AAo?$AAg?$AAr?$AAa?$AAm?$AA?5?$AAf?$AAi?$AAl?$AAe@
CONST	SEGMENT
??_C@_1NC@ICJKIMIP@?$AAc?$AA?3?$AA?2?$AAp?$AAr?$AAo?$AAg?$AAr?$AAa?$AAm?$AA?5?$AAf?$AAi?$AAl?$AAe@ DB 'c'
	DB	00H, ':', 00H, '\', 00H, 'p', 00H, 'r', 00H, 'o', 00H, 'g', 00H
	DB	'r', 00H, 'a', 00H, 'm', 00H, ' ', 00H, 'f', 00H, 'i', 00H, 'l'
	DB	00H, 'e', 00H, 's', 00H, ' ', 00H, '(', 00H, 'x', 00H, '8', 00H
	DB	'6', 00H, ')', 00H, '\', 00H, 'm', 00H, 'i', 00H, 'c', 00H, 'r'
	DB	00H, 'o', 00H, 's', 00H, 'o', 00H, 'f', 00H, 't', 00H, ' ', 00H
	DB	'v', 00H, 'i', 00H, 's', 00H, 'u', 00H, 'a', 00H, 'l', 00H, ' '
	DB	00H, 's', 00H, 't', 00H, 'u', 00H, 'd', 00H, 'i', 00H, 'o', 00H
	DB	'\', 00H, '2', 00H, '0', 00H, '1', 00H, '7', 00H, '\', 00H, 'c'
	DB	00H, 'o', 00H, 'm', 00H, 'm', 00H, 'u', 00H, 'n', 00H, 'i', 00H
	DB	't', 00H, 'y', 00H, '\', 00H, 'v', 00H, 'c', 00H, '\', 00H, 't'
	DB	00H, 'o', 00H, 'o', 00H, 'l', 00H, 's', 00H, '\', 00H, 'm', 00H
	DB	's', 00H, 'v', 00H, 'c', 00H, '\', 00H, '1', 00H, '4', 00H, '.'
	DB	00H, '1', 00H, '5', 00H, '.', 00H, '2', 00H, '6', 00H, '7', 00H
	DB	'2', 00H, '6', 00H, '\', 00H, 'i', 00H, 'n', 00H, 'c', 00H, 'l'
	DB	00H, 'u', 00H, 'd', 00H, 'e', 00H, '\', 00H, 'x', 00H, 'm', 00H
	DB	'e', 00H, 'm', 00H, 'o', 00H, 'r', 00H, 'y', 00H, '0', 00H, 00H
	DB	00H						; `string'
CONST	ENDS
;	COMDAT ??_C@_0GJ@CAJJPMGE@c?3?2program?5files?5?$CIx86?$CJ?2microsof@
CONST	SEGMENT
??_C@_0GJ@CAJJPMGE@c?3?2program?5files?5?$CIx86?$CJ?2microsof@ DB 'c:\pro'
	DB	'gram files (x86)\microsoft visual studio\2017\community\vc\to'
	DB	'ols\msvc\14.15.26726\include\xmemory0', 00H	; `string'
CONST	ENDS
;	COMDAT ??_C@_1DG@PLBPCAEM@?$AA?$CC?$AAI?$AAT?$AAE?$AAR?$AAA?$AAT?$AAO?$AAR?$AA?5?$AAL?$AAI?$AAS?$AAT?$AA?5@
CONST	SEGMENT
??_C@_1DG@PLBPCAEM@?$AA?$CC?$AAI?$AAT?$AAE?$AAR?$AAA?$AAT?$AAO?$AAR?$AA?5?$AAL?$AAI?$AAS?$AAT?$AA?5@ DB '"'
	DB	00H, 'I', 00H, 'T', 00H, 'E', 00H, 'R', 00H, 'A', 00H, 'T', 00H
	DB	'O', 00H, 'R', 00H, ' ', 00H, 'L', 00H, 'I', 00H, 'S', 00H, 'T'
	DB	00H, ' ', 00H, 'C', 00H, 'O', 00H, 'R', 00H, 'R', 00H, 'U', 00H
	DB	'P', 00H, 'T', 00H, 'E', 00H, 'D', 00H, '!', 00H, '"', 00H, 00H
	DB	00H						; `string'
CONST	ENDS
;	COMDAT ??_C@_1EE@KLDMFDFL@?$AAs?$AAt?$AAd?$AA?3?$AA?3?$AA_?$AAI?$AAt?$AAe?$AAr?$AAa?$AAt?$AAo?$AAr?$AA_@
CONST	SEGMENT
??_C@_1EE@KLDMFDFL@?$AAs?$AAt?$AAd?$AA?3?$AA?3?$AA_?$AAI?$AAt?$AAe?$AAr?$AAa?$AAt?$AAo?$AAr?$AA_@ DB 's'
	DB	00H, 't', 00H, 'd', 00H, ':', 00H, ':', 00H, '_', 00H, 'I', 00H
	DB	't', 00H, 'e', 00H, 'r', 00H, 'a', 00H, 't', 00H, 'o', 00H, 'r'
	DB	00H, '_', 00H, 'b', 00H, 'a', 00H, 's', 00H, 'e', 00H, '1', 00H
	DB	'2', 00H, ':', 00H, ':', 00H, '_', 00H, 'O', 00H, 'r', 00H, 'p'
	DB	00H, 'h', 00H, 'a', 00H, 'n', 00H, '_', 00H, 'm', 00H, 'e', 00H
	DB	00H, 00H					; `string'
CONST	ENDS
;	COMDAT ??_C@_1NC@HPHBFJCM@?$AAc?$AA?3?$AA?2?$AAp?$AAr?$AAo?$AAg?$AAr?$AAa?$AAm?$AA?5?$AAf?$AAi?$AAl?$AAe@
CONST	SEGMENT
??_C@_1NC@HPHBFJCM@?$AAc?$AA?3?$AA?2?$AAp?$AAr?$AAo?$AAg?$AAr?$AAa?$AAm?$AA?5?$AAf?$AAi?$AAl?$AAe@ DB 'c'
	DB	00H, ':', 00H, '\', 00H, 'p', 00H, 'r', 00H, 'o', 00H, 'g', 00H
	DB	'r', 00H, 'a', 00H, 'm', 00H, ' ', 00H, 'f', 00H, 'i', 00H, 'l'
	DB	00H, 'e', 00H, 's', 00H, ' ', 00H, '(', 00H, 'x', 00H, '8', 00H
	DB	'6', 00H, ')', 00H, '\', 00H, 'm', 00H, 'i', 00H, 'c', 00H, 'r'
	DB	00H, 'o', 00H, 's', 00H, 'o', 00H, 'f', 00H, 't', 00H, ' ', 00H
	DB	'v', 00H, 'i', 00H, 's', 00H, 'u', 00H, 'a', 00H, 'l', 00H, ' '
	DB	00H, 's', 00H, 't', 00H, 'u', 00H, 'd', 00H, 'i', 00H, 'o', 00H
	DB	'\', 00H, '2', 00H, '0', 00H, '1', 00H, '7', 00H, '\', 00H, 'c'
	DB	00H, 'o', 00H, 'm', 00H, 'm', 00H, 'u', 00H, 'n', 00H, 'i', 00H
	DB	't', 00H, 'y', 00H, '\', 00H, 'v', 00H, 'c', 00H, '\', 00H, 't'
	DB	00H, 'o', 00H, 'o', 00H, 'l', 00H, 's', 00H, '\', 00H, 'm', 00H
	DB	's', 00H, 'v', 00H, 'c', 00H, '\', 00H, '1', 00H, '4', 00H, '.'
	DB	00H, '1', 00H, '5', 00H, '.', 00H, '2', 00H, '6', 00H, '7', 00H
	DB	'2', 00H, '6', 00H, '\', 00H, 'i', 00H, 'n', 00H, 'c', 00H, 'l'
	DB	00H, 'u', 00H, 'd', 00H, 'e', 00H, '\', 00H, 'x', 00H, 'u', 00H
	DB	't', 00H, 'i', 00H, 'l', 00H, 'i', 00H, 't', 00H, 'y', 00H, 00H
	DB	00H						; `string'
CONST	ENDS
;	COMDAT ??_C@_0GJ@DMCEMOMH@c?3?2program?5files?5?$CIx86?$CJ?2microsof@
CONST	SEGMENT
??_C@_0GJ@DMCEMOMH@c?3?2program?5files?5?$CIx86?$CJ?2microsof@ DB 'c:\pro'
	DB	'gram files (x86)\microsoft visual studio\2017\community\vc\to'
	DB	'ols\msvc\14.15.26726\include\xutility', 00H	; `string'
CONST	ENDS
;	COMDAT ??_C@_0BJ@LFDBABJJ@ITERATOR?5LIST?5CORRUPTED?$CB@
CONST	SEGMENT
??_C@_0BJ@LFDBABJJ@ITERATOR?5LIST?5CORRUPTED?$CB@ DB 'ITERATOR LIST CORRU'
	DB	'PTED!', 00H					; `string'
CONST	ENDS
;	COMDAT ??_C@_1CG@JNLFBNGN@?$AA?$CC?$AAi?$AAn?$AAv?$AAa?$AAl?$AAi?$AAd?$AA?5?$AAa?$AAr?$AAg?$AAu?$AAm?$AAe@
CONST	SEGMENT
??_C@_1CG@JNLFBNGN@?$AA?$CC?$AAi?$AAn?$AAv?$AAa?$AAl?$AAi?$AAd?$AA?5?$AAa?$AAr?$AAg?$AAu?$AAm?$AAe@ DB '"'
	DB	00H, 'i', 00H, 'n', 00H, 'v', 00H, 'a', 00H, 'l', 00H, 'i', 00H
	DB	'd', 00H, ' ', 00H, 'a', 00H, 'r', 00H, 'g', 00H, 'u', 00H, 'm'
	DB	00H, 'e', 00H, 'n', 00H, 't', 00H, '"', 00H, 00H, 00H ; `string'
CONST	ENDS
;	COMDAT ??_C@_02DKCKIIND@?$CFs@
CONST	SEGMENT
??_C@_02DKCKIIND@?$CFs@ DB '%s', 00H			; `string'
CONST	ENDS
;	COMDAT ??_C@_0BB@FCMFBGOM@invalid?5argument@
CONST	SEGMENT
??_C@_0BB@FCMFBGOM@invalid?5argument@ DB 'invalid argument', 00H ; `string'
CONST	ENDS
;	COMDAT ??_C@_0BC@EOODALEL@Unknown?5exception@
CONST	SEGMENT
??_C@_0BC@EOODALEL@Unknown?5exception@ DB 'Unknown exception', 00H ; `string'
CONST	ENDS
;	COMDAT ??_7exception@std@@6B@
CONST	SEGMENT
??_7exception@std@@6B@ DD FLAT:??_R4exception@std@@6B@	; std::exception::`vftable'
	DD	FLAT:??_Eexception@std@@UAEPAXI@Z
	DD	FLAT:?what@exception@std@@UBEPBDXZ
CONST	ENDS
;	COMDAT xdata$x
xdata$x	SEGMENT
__unwindtable$??E?$_List_const_iterator@V?$_List_val@U?$_List_simple_types@PAV?$Goal@VRaven_Bot@@@@@std@@@std@@@std@@QAE?AV01@H@Z DD 0ffffffffH
	DD	FLAT:__unwindfunclet$??E?$_List_const_iterator@V?$_List_val@U?$_List_simple_types@PAV?$Goal@VRaven_Bot@@@@@std@@@std@@@std@@QAE?AV01@H@Z$0
__ehfuncinfo$??E?$_List_const_iterator@V?$_List_val@U?$_List_simple_types@PAV?$Goal@VRaven_Bot@@@@@std@@@std@@@std@@QAE?AV01@H@Z DD 019930522H
	DD	01H
	DD	FLAT:__unwindtable$??E?$_List_const_iterator@V?$_List_val@U?$_List_simple_types@PAV?$Goal@VRaven_Bot@@@@@std@@@std@@@std@@QAE?AV01@H@Z
	DD	2 DUP(00H)
	DD	2 DUP(00H)
	DD	00H
	DD	01H
xdata$x	ENDS
;	COMDAT xdata$x
xdata$x	SEGMENT
__ehfuncinfo$??$_Freenode0@V?$allocator@U?$_List_node@PAV?$Goal@VRaven_Bot@@@@PAX@std@@@std@@@?$_List_node@PAV?$Goal@VRaven_Bot@@@@PAX@std@@SAXAAV?$allocator@U?$_List_node@PAV?$Goal@VRaven_Bot@@@@PAX@std@@@1@PAU01@@Z DD 019930522H
	DD	00H
	DD	00H
	DD	2 DUP(00H)
	DD	2 DUP(00H)
	DD	00H
	DD	05H
xdata$x	ENDS
xdata$x	SEGMENT
__unwindtable$?HandleMessage@Goal_GetItem@@UAE_NABUTelegram@@@Z DD 0ffffffffH
	DD	FLAT:__unwindfunclet$?HandleMessage@Goal_GetItem@@UAE_NABUTelegram@@@Z$0
__unwindtable$?Activate@Goal_GetItem@@UAEXXZ DD 0ffffffffH
	DD	FLAT:__unwindfunclet$?Activate@Goal_GetItem@@UAEXXZ$0
__ehfuncinfo$?HandleMessage@Goal_GetItem@@UAE_NABUTelegram@@@Z DD 019930522H
	DD	01H
	DD	FLAT:__unwindtable$?HandleMessage@Goal_GetItem@@UAE_NABUTelegram@@@Z
	DD	2 DUP(00H)
	DD	2 DUP(00H)
	DD	00H
	DD	01H
__ehfuncinfo$?Activate@Goal_GetItem@@UAEXXZ DD 019930522H
	DD	01H
	DD	FLAT:__unwindtable$?Activate@Goal_GetItem@@UAEXXZ
	DD	2 DUP(00H)
	DD	2 DUP(00H)
	DD	00H
	DD	01H
xdata$x	ENDS
;	COMDAT xdata$x
xdata$x	SEGMENT
__unwindtable$?RemoveAllSubgoals@?$Goal_Composite@VRaven_Bot@@@@QAEXXZ DD 0ffffffffH
	DD	FLAT:__unwindfunclet$?RemoveAllSubgoals@?$Goal_Composite@VRaven_Bot@@@@QAEXXZ$0
	DD	00H
	DD	FLAT:__unwindfunclet$?RemoveAllSubgoals@?$Goal_Composite@VRaven_Bot@@@@QAEXXZ$1
__ehfuncinfo$?RemoveAllSubgoals@?$Goal_Composite@VRaven_Bot@@@@QAEXXZ DD 019930522H
	DD	02H
	DD	FLAT:__unwindtable$?RemoveAllSubgoals@?$Goal_Composite@VRaven_Bot@@@@QAEXXZ
	DD	2 DUP(00H)
	DD	2 DUP(00H)
	DD	00H
	DD	01H
xdata$x	ENDS
;	COMDAT xdata$x
xdata$x	SEGMENT
__unwindtable$?_Orphan_ptr@?$list@PAV?$Goal@VRaven_Bot@@@@V?$allocator@PAV?$Goal@VRaven_Bot@@@@@std@@@std@@QAEXPAU?$_List_node@PAV?$Goal@VRaven_Bot@@@@PAX@2@@Z DD 0ffffffffH
	DD	FLAT:__unwindfunclet$?_Orphan_ptr@?$list@PAV?$Goal@VRaven_Bot@@@@V?$allocator@PAV?$Goal@VRaven_Bot@@@@@std@@@std@@QAEXPAU?$_List_node@PAV?$Goal@VRaven_Bot@@@@PAX@2@@Z$0
__ehfuncinfo$?_Orphan_ptr@?$list@PAV?$Goal@VRaven_Bot@@@@V?$allocator@PAV?$Goal@VRaven_Bot@@@@@std@@@std@@QAEXPAU?$_List_node@PAV?$Goal@VRaven_Bot@@@@PAX@2@@Z DD 019930522H
	DD	01H
	DD	FLAT:__unwindtable$?_Orphan_ptr@?$list@PAV?$Goal@VRaven_Bot@@@@V?$allocator@PAV?$Goal@VRaven_Bot@@@@@std@@@std@@QAEXPAU?$_List_node@PAV?$Goal@VRaven_Bot@@@@PAX@2@@Z
	DD	2 DUP(00H)
	DD	2 DUP(00H)
	DD	00H
	DD	01H
xdata$x	ENDS
;	COMDAT xdata$x
xdata$x	SEGMENT
__ehfuncinfo$?clear@?$list@PAV?$Goal@VRaven_Bot@@@@V?$allocator@PAV?$Goal@VRaven_Bot@@@@@std@@@std@@QAEXXZ DD 019930522H
	DD	00H
	DD	00H
	DD	2 DUP(00H)
	DD	2 DUP(00H)
	DD	00H
	DD	05H
xdata$x	ENDS
;	COMDAT xdata$x
xdata$x	SEGMENT
__unwindtable$?erase@?$list@PAV?$Goal@VRaven_Bot@@@@V?$allocator@PAV?$Goal@VRaven_Bot@@@@@std@@@std@@QAE?AV?$_List_iterator@V?$_List_val@U?$_List_simple_types@PAV?$Goal@VRaven_Bot@@@@@std@@@std@@@2@V?$_List_const_iterator@V?$_List_val@U?$_List_simple_types@PAV?$Goal@VRaven_Bot@@@@@std@@@std@@@2@@Z DD 0ffffffffH
	DD	FLAT:__unwindfunclet$?erase@?$list@PAV?$Goal@VRaven_Bot@@@@V?$allocator@PAV?$Goal@VRaven_Bot@@@@@std@@@std@@QAE?AV?$_List_iterator@V?$_List_val@U?$_List_simple_types@PAV?$Goal@VRaven_Bot@@@@@std@@@std@@@2@V?$_List_const_iterator@V?$_List_val@U?$_List_simple_types@PAV?$Goal@VRaven_Bot@@@@@std@@@std@@@2@@Z$0
__ehfuncinfo$?erase@?$list@PAV?$Goal@VRaven_Bot@@@@V?$allocator@PAV?$Goal@VRaven_Bot@@@@@std@@@std@@QAE?AV?$_List_iterator@V?$_List_val@U?$_List_simple_types@PAV?$Goal@VRaven_Bot@@@@@std@@@std@@@2@V?$_List_const_iterator@V?$_List_val@U?$_List_simple_types@PAV?$Goal@VRaven_Bot@@@@@std@@@std@@@2@@Z DD 019930522H
	DD	01H
	DD	FLAT:__unwindtable$?erase@?$list@PAV?$Goal@VRaven_Bot@@@@V?$allocator@PAV?$Goal@VRaven_Bot@@@@@std@@@std@@QAE?AV?$_List_iterator@V?$_List_val@U?$_List_simple_types@PAV?$Goal@VRaven_Bot@@@@@std@@@std@@@2@V?$_List_const_iterator@V?$_List_val@U?$_List_simple_types@PAV?$Goal@VRaven_Bot@@@@@std@@@std@@@2@@Z
	DD	2 DUP(00H)
	DD	2 DUP(00H)
	DD	00H
	DD	01H
xdata$x	ENDS
;	COMDAT xdata$x
xdata$x	SEGMENT
__unwindtable$?_Unlinknode@?$list@PAV?$Goal@VRaven_Bot@@@@V?$allocator@PAV?$Goal@VRaven_Bot@@@@@std@@@std@@QAEPAU?$_List_node@PAV?$Goal@VRaven_Bot@@@@PAX@2@V?$_List_const_iterator@V?$_List_val@U?$_List_simple_types@PAV?$Goal@VRaven_Bot@@@@@std@@@std@@@2@@Z DD 0ffffffffH
	DD	FLAT:__unwindfunclet$?_Unlinknode@?$list@PAV?$Goal@VRaven_Bot@@@@V?$allocator@PAV?$Goal@VRaven_Bot@@@@@std@@@std@@QAEPAU?$_List_node@PAV?$Goal@VRaven_Bot@@@@PAX@2@V?$_List_const_iterator@V?$_List_val@U?$_List_simple_types@PAV?$Goal@VRaven_Bot@@@@@std@@@std@@@2@@Z$0
__ehfuncinfo$?_Unlinknode@?$list@PAV?$Goal@VRaven_Bot@@@@V?$allocator@PAV?$Goal@VRaven_Bot@@@@@std@@@std@@QAEPAU?$_List_node@PAV?$Goal@VRaven_Bot@@@@PAX@2@V?$_List_const_iterator@V?$_List_val@U?$_List_simple_types@PAV?$Goal@VRaven_Bot@@@@@std@@@std@@@2@@Z DD 019930522H
	DD	01H
	DD	FLAT:__unwindtable$?_Unlinknode@?$list@PAV?$Goal@VRaven_Bot@@@@V?$allocator@PAV?$Goal@VRaven_Bot@@@@@std@@@std@@QAEPAU?$_List_node@PAV?$Goal@VRaven_Bot@@@@PAX@2@V?$_List_const_iterator@V?$_List_val@U?$_List_simple_types@PAV?$Goal@VRaven_Bot@@@@@std@@@std@@@2@@Z
	DD	2 DUP(00H)
	DD	2 DUP(00H)
	DD	00H
	DD	01H
xdata$x	ENDS
;	COMDAT xdata$x
xdata$x	SEGMENT
__unwindtable$?pop_front@?$list@PAV?$Goal@VRaven_Bot@@@@V?$allocator@PAV?$Goal@VRaven_Bot@@@@@std@@@std@@QAEXXZ DD 0ffffffffH
	DD	FLAT:__unwindfunclet$?pop_front@?$list@PAV?$Goal@VRaven_Bot@@@@V?$allocator@PAV?$Goal@VRaven_Bot@@@@@std@@@std@@QAEXXZ$0
__ehfuncinfo$?pop_front@?$list@PAV?$Goal@VRaven_Bot@@@@V?$allocator@PAV?$Goal@VRaven_Bot@@@@@std@@@std@@QAEXXZ DD 019930522H
	DD	01H
	DD	FLAT:__unwindtable$?pop_front@?$list@PAV?$Goal@VRaven_Bot@@@@V?$allocator@PAV?$Goal@VRaven_Bot@@@@@std@@@std@@QAEXXZ
	DD	2 DUP(00H)
	DD	2 DUP(00H)
	DD	00H
	DD	01H
xdata$x	ENDS
;	COMDAT xdata$x
xdata$x	SEGMENT
__unwindtable$?front@?$list@PAV?$Goal@VRaven_Bot@@@@V?$allocator@PAV?$Goal@VRaven_Bot@@@@@std@@@std@@QAEAAPAV?$Goal@VRaven_Bot@@@@XZ DD 0ffffffffH
	DD	FLAT:__unwindfunclet$?front@?$list@PAV?$Goal@VRaven_Bot@@@@V?$allocator@PAV?$Goal@VRaven_Bot@@@@@std@@@std@@QAEAAPAV?$Goal@VRaven_Bot@@@@XZ$0
__ehfuncinfo$?front@?$list@PAV?$Goal@VRaven_Bot@@@@V?$allocator@PAV?$Goal@VRaven_Bot@@@@@std@@@std@@QAEAAPAV?$Goal@VRaven_Bot@@@@XZ DD 019930522H
	DD	01H
	DD	FLAT:__unwindtable$?front@?$list@PAV?$Goal@VRaven_Bot@@@@V?$allocator@PAV?$Goal@VRaven_Bot@@@@@std@@@std@@QAEAAPAV?$Goal@VRaven_Bot@@@@XZ
	DD	2 DUP(00H)
	DD	2 DUP(00H)
	DD	00H
	DD	01H
xdata$x	ENDS
;	COMDAT xdata$x
xdata$x	SEGMENT
__ehfuncinfo$?_Make_iter@?$list@PAV?$Goal@VRaven_Bot@@@@V?$allocator@PAV?$Goal@VRaven_Bot@@@@@std@@@std@@QBE?AV?$_List_iterator@V?$_List_val@U?$_List_simple_types@PAV?$Goal@VRaven_Bot@@@@@std@@@std@@@2@V?$_List_const_iterator@V?$_List_val@U?$_List_simple_types@PAV?$Goal@VRaven_Bot@@@@@std@@@std@@@2@@Z DD 019930522H
	DD	00H
	DD	00H
	DD	2 DUP(00H)
	DD	2 DUP(00H)
	DD	00H
	DD	05H
xdata$x	ENDS
;	COMDAT xdata$x
xdata$x	SEGMENT
__ehfuncinfo$?end@?$list@PAV?$Goal@VRaven_Bot@@@@V?$allocator@PAV?$Goal@VRaven_Bot@@@@@std@@@std@@QAE?AV?$_List_iterator@V?$_List_val@U?$_List_simple_types@PAV?$Goal@VRaven_Bot@@@@@std@@@std@@@2@XZ DD 019930522H
	DD	00H
	DD	00H
	DD	2 DUP(00H)
	DD	2 DUP(00H)
	DD	00H
	DD	05H
xdata$x	ENDS
;	COMDAT xdata$x
xdata$x	SEGMENT
__ehfuncinfo$?begin@?$list@PAV?$Goal@VRaven_Bot@@@@V?$allocator@PAV?$Goal@VRaven_Bot@@@@@std@@@std@@QAE?AV?$_List_iterator@V?$_List_val@U?$_List_simple_types@PAV?$Goal@VRaven_Bot@@@@@std@@@std@@@2@XZ DD 019930522H
	DD	00H
	DD	00H
	DD	2 DUP(00H)
	DD	2 DUP(00H)
	DD	00H
	DD	05H
xdata$x	ENDS
;	COMDAT xdata$x
xdata$x	SEGMENT
__unwindtable$?RenderAtPos@?$Goal@VRaven_Bot@@@@UBEXAAUVector2D@@PAVTypeToString@@@Z DD 0ffffffffH
	DD	FLAT:__unwindfunclet$?RenderAtPos@?$Goal@VRaven_Bot@@@@UBEXAAUVector2D@@PAVTypeToString@@@Z$0
__ehfuncinfo$?RenderAtPos@?$Goal@VRaven_Bot@@@@UBEXAAUVector2D@@PAVTypeToString@@@Z DD 019930522H
	DD	01H
	DD	FLAT:__unwindtable$?RenderAtPos@?$Goal@VRaven_Bot@@@@UBEXAAUVector2D@@PAVTypeToString@@@Z
	DD	2 DUP(00H)
	DD	2 DUP(00H)
	DD	00H
	DD	01H
xdata$x	ENDS
;	COMDAT xdata$x
xdata$x	SEGMENT
__ehfuncinfo$?c_str@?$basic_string@DU?$char_traits@D@std@@V?$allocator@D@2@@std@@QBEPBDXZ DD 019930522H
	DD	00H
	DD	00H
	DD	2 DUP(00H)
	DD	2 DUP(00H)
	DD	00H
	DD	05H
xdata$x	ENDS
;	COMDAT xdata$x
xdata$x	SEGMENT
__ehfuncinfo$??1?$basic_string@DU?$char_traits@D@std@@V?$allocator@D@2@@std@@QAE@XZ DD 019930522H
	DD	00H
	DD	00H
	DD	2 DUP(00H)
	DD	2 DUP(00H)
	DD	00H
	DD	05H
xdata$x	ENDS
;	COMDAT xdata$x
xdata$x	SEGMENT
__ehfuncinfo$??1?$_String_alloc@U?$_String_base_types@DV?$allocator@D@std@@@std@@@std@@QAE@XZ DD 019930522H
	DD	00H
	DD	00H
	DD	2 DUP(00H)
	DD	2 DUP(00H)
	DD	00H
	DD	05H
xdata$x	ENDS
;	COMDAT xdata$x
xdata$x	SEGMENT
__ehfuncinfo$?_Adopt@_Iterator_base12@std@@QAEXPBU_Container_base12@2@@Z DD 019930522H
	DD	00H
	DD	00H
	DD	2 DUP(00H)
	DD	2 DUP(00H)
	DD	00H
	DD	05H
xdata$x	ENDS
;	COMDAT xdata$x
xdata$x	SEGMENT
__ehfuncinfo$??1_Iterator_base12@std@@QAE@XZ DD 019930522H
	DD	00H
	DD	00H
	DD	2 DUP(00H)
	DD	2 DUP(00H)
	DD	00H
	DD	05H
xdata$x	ENDS
;	COMDAT xdata$x
xdata$x	SEGMENT
__ehfuncinfo$??4_Iterator_base12@std@@QAEAAU01@ABU01@@Z DD 019930522H
	DD	00H
	DD	00H
	DD	2 DUP(00H)
	DD	2 DUP(00H)
	DD	00H
	DD	05H
xdata$x	ENDS
;	COMDAT xdata$x
xdata$x	SEGMENT
__ehfuncinfo$?_Orphan_all@_Container_base12@std@@QAEXXZ DD 019930522H
	DD	00H
	DD	00H
	DD	2 DUP(00H)
	DD	2 DUP(00H)
	DD	00H
	DD	05H
xdata$x	ENDS
CRT$XCU	SEGMENT
?MaxDouble$initializer$@@3P6AXXZA DD FLAT:??__EMaxDouble@@YAXXZ ; MaxDouble$initializer$
CRT$XCU	ENDS
CRT$XCU	SEGMENT
?MinDouble$initializer$@@3P6AXXZA DD FLAT:??__EMinDouble@@YAXXZ ; MinDouble$initializer$
CRT$XCU	ENDS
CRT$XCU	SEGMENT
?MaxFloat$initializer$@@3P6AXXZA DD FLAT:??__EMaxFloat@@YAXXZ ; MaxFloat$initializer$
CRT$XCU	ENDS
CRT$XCU	SEGMENT
?MinFloat$initializer$@@3P6AXXZA DD FLAT:??__EMinFloat@@YAXXZ ; MinFloat$initializer$
CRT$XCU	ENDS
;	COMDAT CRT$XCU
CRT$XCU	SEGMENT
??id$initializer$@?$num_put@DV?$ostreambuf_iterator@DU?$char_traits@D@std@@@std@@@std@@2P6AXXZA@@3P6AXXZA DD FLAT:??__E?id@?$num_put@DV?$ostreambuf_iterator@DU?$char_traits@D@std@@@std@@@std@@2V0locale@2@A@@YAXXZ ; ??id$initializer$@?$num_put@DV?$ostreambuf_iterator@DU?$char_traits@D@std@@@std@@@std@@2P6AXXZA@@3P6AXXZA
CRT$XCU	ENDS
;	COMDAT CRT$XCU
CRT$XCU	SEGMENT
??id$initializer$@?$codecvt@DDU_Mbstatet@@@std@@2P6AXXZA@@3P6AXXZA DD FLAT:??__E?id@?$codecvt@DDU_Mbstatet@@@std@@2V0locale@2@A@@YAXXZ ; ??id$initializer$@?$codecvt@DDU_Mbstatet@@@std@@2P6AXXZA@@3P6AXXZA
CRT$XCU	ENDS
;	COMDAT CRT$XCU
CRT$XCU	SEGMENT
??id$initializer$@?$numpunct@D@std@@2P6AXXZA@@3P6AXXZA DD FLAT:??__E?id@?$numpunct@D@std@@2V0locale@2@A@@YAXXZ ; ??id$initializer$@?$numpunct@D@std@@2P6AXXZA@@3P6AXXZA
CRT$XCU	ENDS
;	COMDAT CRT$XCU
CRT$XCU	SEGMENT
??id$initializer$@?$num_get@DV?$istreambuf_iterator@DU?$char_traits@D@std@@@std@@@std@@2P6AXXZA@@3P6AXXZA DD FLAT:??__E?id@?$num_get@DV?$istreambuf_iterator@DU?$char_traits@D@std@@@std@@@std@@2V0locale@2@A@@YAXXZ ; ??id$initializer$@?$num_get@DV?$istreambuf_iterator@DU?$char_traits@D@std@@@std@@@std@@2P6AXXZA@@3P6AXXZA
CRT$XCU	ENDS
; Function compile flags: /Odtp /RTCsu
; File c:\program files (x86)\microsoft visual studio\2017\community\vc\tools\msvc\14.15.26726\include\xlocnum
;	COMDAT ??__E?id@?$num_get@DV?$istreambuf_iterator@DU?$char_traits@D@std@@@std@@@std@@2V0locale@2@A@@YAXXZ
text$di	SEGMENT
??__E?id@?$num_get@DV?$istreambuf_iterator@DU?$char_traits@D@std@@@std@@@std@@2V0locale@2@A@@YAXXZ PROC ; `dynamic initializer for 'std::num_get<char,std::istreambuf_iterator<char,std::char_traits<char> > >::id'', COMDAT

; 1404 : 	__PURE_APPDOMAIN_GLOBAL locale::id num_get<_Elem, _InIt>::id;

	push	ebp
	mov	ebp, esp
	push	0
	mov	ecx, OFFSET ?id@?$num_get@DV?$istreambuf_iterator@DU?$char_traits@D@std@@@std@@@std@@2V0locale@2@A ; std::num_get<char,std::istreambuf_iterator<char,std::char_traits<char> > >::id
	call	??0id@locale@std@@QAE@I@Z		; std::locale::id::id
	cmp	ebp, esp
	call	__RTC_CheckEsp
	pop	ebp
	ret	0
??__E?id@?$num_get@DV?$istreambuf_iterator@DU?$char_traits@D@std@@@std@@@std@@2V0locale@2@A@@YAXXZ ENDP ; `dynamic initializer for 'std::num_get<char,std::istreambuf_iterator<char,std::char_traits<char> > >::id''
text$di	ENDS
; Function compile flags: /Odtp /RTCsu
; File c:\program files (x86)\microsoft visual studio\2017\community\vc\tools\msvc\14.15.26726\include\xlocnum
;	COMDAT ??__E?id@?$numpunct@D@std@@2V0locale@2@A@@YAXXZ
text$di	SEGMENT
??__E?id@?$numpunct@D@std@@2V0locale@2@A@@YAXXZ PROC	; `dynamic initializer for 'std::numpunct<char>::id'', COMDAT

; 297  : 	__PURE_APPDOMAIN_GLOBAL locale::id numpunct<_Elem>::id;

	push	ebp
	mov	ebp, esp
	push	0
	mov	ecx, OFFSET ?id@?$numpunct@D@std@@2V0locale@2@A ; std::numpunct<char>::id
	call	??0id@locale@std@@QAE@I@Z		; std::locale::id::id
	cmp	ebp, esp
	call	__RTC_CheckEsp
	pop	ebp
	ret	0
??__E?id@?$numpunct@D@std@@2V0locale@2@A@@YAXXZ ENDP	; `dynamic initializer for 'std::numpunct<char>::id''
text$di	ENDS
; Function compile flags: /Odtp /RTCsu
; File c:\program files (x86)\microsoft visual studio\2017\community\vc\tools\msvc\14.15.26726\include\xlocale
;	COMDAT ??__E?id@?$codecvt@DDU_Mbstatet@@@std@@2V0locale@2@A@@YAXXZ
text$di	SEGMENT
??__E?id@?$codecvt@DDU_Mbstatet@@@std@@2V0locale@2@A@@YAXXZ PROC ; `dynamic initializer for 'std::codecvt<char,char,_Mbstatet>::id'', COMDAT

; 955  : 	__PURE_APPDOMAIN_GLOBAL locale::id codecvt<_Elem, _Byte, _Statype>::id;

	push	ebp
	mov	ebp, esp
	push	0
	mov	ecx, OFFSET ?id@?$codecvt@DDU_Mbstatet@@@std@@2V0locale@2@A ; std::codecvt<char,char,_Mbstatet>::id
	call	??0id@locale@std@@QAE@I@Z		; std::locale::id::id
	cmp	ebp, esp
	call	__RTC_CheckEsp
	pop	ebp
	ret	0
??__E?id@?$codecvt@DDU_Mbstatet@@@std@@2V0locale@2@A@@YAXXZ ENDP ; `dynamic initializer for 'std::codecvt<char,char,_Mbstatet>::id''
text$di	ENDS
; Function compile flags: /Odtp /RTCsu
; File c:\program files (x86)\microsoft visual studio\2017\community\vc\tools\msvc\14.15.26726\include\xlocnum
;	COMDAT ??__E?id@?$num_put@DV?$ostreambuf_iterator@DU?$char_traits@D@std@@@std@@@std@@2V0locale@2@A@@YAXXZ
text$di	SEGMENT
??__E?id@?$num_put@DV?$ostreambuf_iterator@DU?$char_traits@D@std@@@std@@@std@@2V0locale@2@A@@YAXXZ PROC ; `dynamic initializer for 'std::num_put<char,std::ostreambuf_iterator<char,std::char_traits<char> > >::id'', COMDAT

; 1843 : 	__PURE_APPDOMAIN_GLOBAL locale::id num_put<_Elem, _OutIt>::id;

	push	ebp
	mov	ebp, esp
	push	0
	mov	ecx, OFFSET ?id@?$num_put@DV?$ostreambuf_iterator@DU?$char_traits@D@std@@@std@@@std@@2V0locale@2@A ; std::num_put<char,std::ostreambuf_iterator<char,std::char_traits<char> > >::id
	call	??0id@locale@std@@QAE@I@Z		; std::locale::id::id
	cmp	ebp, esp
	call	__RTC_CheckEsp
	pop	ebp
	ret	0
??__E?id@?$num_put@DV?$ostreambuf_iterator@DU?$char_traits@D@std@@@std@@@std@@2V0locale@2@A@@YAXXZ ENDP ; `dynamic initializer for 'std::num_put<char,std::ostreambuf_iterator<char,std::char_traits<char> > >::id''
text$di	ENDS
; Function compile flags: /Odtp /RTCsu
; File c:\program files (x86)\microsoft visual studio\2017\community\vc\tools\msvc\14.15.26726\include\xstddef
;	COMDAT ??$addressof@$$CBV?$_List_val@U?$_List_simple_types@PAV?$Goal@VRaven_Bot@@@@@std@@@std@@@std@@YAPBV?$_List_val@U?$_List_simple_types@PAV?$Goal@VRaven_Bot@@@@@std@@@0@ABV10@@Z
_TEXT	SEGMENT
__Val$ = 8						; size = 4
??$addressof@$$CBV?$_List_val@U?$_List_simple_types@PAV?$Goal@VRaven_Bot@@@@@std@@@std@@@std@@YAPBV?$_List_val@U?$_List_simple_types@PAV?$Goal@VRaven_Bot@@@@@std@@@0@ABV10@@Z PROC ; std::addressof<std::_List_val<std::_List_simple_types<Goal<Raven_Bot> *> > const >, COMDAT

; 329  : 	{	// return address of _Val

	push	ebp
	mov	ebp, esp

; 330  : 	return (__builtin_addressof(_Val));

	mov	eax, DWORD PTR __Val$[ebp]

; 331  : 	}

	pop	ebp
	ret	0
??$addressof@$$CBV?$_List_val@U?$_List_simple_types@PAV?$Goal@VRaven_Bot@@@@@std@@@std@@@std@@YAPBV?$_List_val@U?$_List_simple_types@PAV?$Goal@VRaven_Bot@@@@@std@@@0@ABV10@@Z ENDP ; std::addressof<std::_List_val<std::_List_simple_types<Goal<Raven_Bot> *> > const >
_TEXT	ENDS
; Function compile flags: /Odtp /RTCsu
; File c:\program files (x86)\microsoft visual studio\2017\community\vc\tools\msvc\14.15.26726\include\xmemory0
;	COMDAT ??$destroy@PAU?$_List_node@PAV?$Goal@VRaven_Bot@@@@PAX@std@@@?$_Default_allocator_traits@V?$allocator@U?$_List_node@PAV?$Goal@VRaven_Bot@@@@PAX@std@@@std@@@std@@SAXAAV?$allocator@U?$_List_node@PAV?$Goal@VRaven_Bot@@@@PAX@std@@@1@QAPAU?$_List_node@PAV?$Goal@VRaven_Bot@@@@PAX@1@@Z
_TEXT	SEGMENT
___formal$ = 8						; size = 4
__Ptr$ = 12						; size = 4
??$destroy@PAU?$_List_node@PAV?$Goal@VRaven_Bot@@@@PAX@std@@@?$_Default_allocator_traits@V?$allocator@U?$_List_node@PAV?$Goal@VRaven_Bot@@@@PAX@std@@@std@@@std@@SAXAAV?$allocator@U?$_List_node@PAV?$Goal@VRaven_Bot@@@@PAX@std@@@1@QAPAU?$_List_node@PAV?$Goal@VRaven_Bot@@@@PAX@1@@Z PROC ; std::_Default_allocator_traits<std::allocator<std::_List_node<Goal<Raven_Bot> *,void *> > >::destroy<std::_List_node<Goal<Raven_Bot> *,void *> *>, COMDAT

; 886  : 		{	// destroy object at _Ptr

	push	ebp
	mov	ebp, esp

; 887  : 		_Ptr->~_Uty();
; 888  : 		}

	pop	ebp
	ret	0
??$destroy@PAU?$_List_node@PAV?$Goal@VRaven_Bot@@@@PAX@std@@@?$_Default_allocator_traits@V?$allocator@U?$_List_node@PAV?$Goal@VRaven_Bot@@@@PAX@std@@@std@@@std@@SAXAAV?$allocator@U?$_List_node@PAV?$Goal@VRaven_Bot@@@@PAX@std@@@1@QAPAU?$_List_node@PAV?$Goal@VRaven_Bot@@@@PAX@1@@Z ENDP ; std::_Default_allocator_traits<std::allocator<std::_List_node<Goal<Raven_Bot> *,void *> > >::destroy<std::_List_node<Goal<Raven_Bot> *,void *> *>
_TEXT	ENDS
; Function compile flags: /Odtp /RTCsu
;	COMDAT ??1?$_List_iterator@V?$_List_val@U?$_List_simple_types@PAV?$Goal@VRaven_Bot@@@@@std@@@std@@@std@@QAE@XZ
_TEXT	SEGMENT
_this$ = -4						; size = 4
??1?$_List_iterator@V?$_List_val@U?$_List_simple_types@PAV?$Goal@VRaven_Bot@@@@@std@@@std@@@std@@QAE@XZ PROC ; std::_List_iterator<std::_List_val<std::_List_simple_types<Goal<Raven_Bot> *> > >::~_List_iterator<std::_List_val<std::_List_simple_types<Goal<Raven_Bot> *> > >, COMDAT
; _this$ = ecx
	push	ebp
	mov	ebp, esp
	push	ecx
	mov	DWORD PTR [ebp-4], -858993460		; ccccccccH
	mov	DWORD PTR _this$[ebp], ecx
	mov	ecx, DWORD PTR _this$[ebp]
	call	??1?$_List_const_iterator@V?$_List_val@U?$_List_simple_types@PAV?$Goal@VRaven_Bot@@@@@std@@@std@@@std@@QAE@XZ
	add	esp, 4
	cmp	ebp, esp
	call	__RTC_CheckEsp
	mov	esp, ebp
	pop	ebp
	ret	0
??1?$_List_iterator@V?$_List_val@U?$_List_simple_types@PAV?$Goal@VRaven_Bot@@@@@std@@@std@@@std@@QAE@XZ ENDP ; std::_List_iterator<std::_List_val<std::_List_simple_types<Goal<Raven_Bot> *> > >::~_List_iterator<std::_List_val<std::_List_simple_types<Goal<Raven_Bot> *> > >
_TEXT	ENDS
; Function compile flags: /Odtp /RTCsu
; File c:\program files (x86)\microsoft visual studio\2017\community\vc\tools\msvc\14.15.26726\include\list
;	COMDAT ??E?$_List_iterator@V?$_List_val@U?$_List_simple_types@PAV?$Goal@VRaven_Bot@@@@@std@@@std@@@std@@QAEAAV01@XZ
_TEXT	SEGMENT
_this$ = -4						; size = 4
??E?$_List_iterator@V?$_List_val@U?$_List_simple_types@PAV?$Goal@VRaven_Bot@@@@@std@@@std@@@std@@QAEAAV01@XZ PROC ; std::_List_iterator<std::_List_val<std::_List_simple_types<Goal<Raven_Bot> *> > >::operator++, COMDAT
; _this$ = ecx

; 305  : 		{	// preincrement

	push	ebp
	mov	ebp, esp
	push	ecx
	mov	DWORD PTR [ebp-4], -858993460		; ccccccccH
	mov	DWORD PTR _this$[ebp], ecx

; 306  : 		++(*(_Mybase *)this);

	mov	ecx, DWORD PTR _this$[ebp]
	call	??E?$_List_const_iterator@V?$_List_val@U?$_List_simple_types@PAV?$Goal@VRaven_Bot@@@@@std@@@std@@@std@@QAEAAV01@XZ ; std::_List_const_iterator<std::_List_val<std::_List_simple_types<Goal<Raven_Bot> *> > >::operator++

; 307  : 		return (*this);

	mov	eax, DWORD PTR _this$[ebp]

; 308  : 		}

	add	esp, 4
	cmp	ebp, esp
	call	__RTC_CheckEsp
	mov	esp, ebp
	pop	ebp
	ret	0
??E?$_List_iterator@V?$_List_val@U?$_List_simple_types@PAV?$Goal@VRaven_Bot@@@@@std@@@std@@@std@@QAEAAV01@XZ ENDP ; std::_List_iterator<std::_List_val<std::_List_simple_types<Goal<Raven_Bot> *> > >::operator++
_TEXT	ENDS
; Function compile flags: /Odtp /RTCsu
; File c:\program files (x86)\microsoft visual studio\2017\community\vc\tools\msvc\14.15.26726\include\list
;	COMDAT ??D?$_List_iterator@V?$_List_val@U?$_List_simple_types@PAV?$Goal@VRaven_Bot@@@@@std@@@std@@@std@@QBEAAPAV?$Goal@VRaven_Bot@@@@XZ
_TEXT	SEGMENT
_this$ = -4						; size = 4
??D?$_List_iterator@V?$_List_val@U?$_List_simple_types@PAV?$Goal@VRaven_Bot@@@@@std@@@std@@@std@@QBEAAPAV?$Goal@VRaven_Bot@@@@XZ PROC ; std::_List_iterator<std::_List_val<std::_List_simple_types<Goal<Raven_Bot> *> > >::operator*, COMDAT
; _this$ = ecx

; 295  : 		{	// return designated value

	push	ebp
	mov	ebp, esp
	push	ecx
	mov	DWORD PTR [ebp-4], -858993460		; ccccccccH
	mov	DWORD PTR _this$[ebp], ecx

; 296  : 		return ((reference)**(_Mybase *)this);

	mov	ecx, DWORD PTR _this$[ebp]
	call	??D?$_List_const_iterator@V?$_List_val@U?$_List_simple_types@PAV?$Goal@VRaven_Bot@@@@@std@@@std@@@std@@QBEABQAV?$Goal@VRaven_Bot@@@@XZ ; std::_List_const_iterator<std::_List_val<std::_List_simple_types<Goal<Raven_Bot> *> > >::operator*

; 297  : 		}

	add	esp, 4
	cmp	ebp, esp
	call	__RTC_CheckEsp
	mov	esp, ebp
	pop	ebp
	ret	0
??D?$_List_iterator@V?$_List_val@U?$_List_simple_types@PAV?$Goal@VRaven_Bot@@@@@std@@@std@@@std@@QBEAAPAV?$Goal@VRaven_Bot@@@@XZ ENDP ; std::_List_iterator<std::_List_val<std::_List_simple_types<Goal<Raven_Bot> *> > >::operator*
_TEXT	ENDS
; Function compile flags: /Odtp /RTCsu
; File c:\program files (x86)\microsoft visual studio\2017\community\vc\tools\msvc\14.15.26726\include\list
;	COMDAT ??0?$_List_iterator@V?$_List_val@U?$_List_simple_types@PAV?$Goal@VRaven_Bot@@@@@std@@@std@@@std@@QAE@PAU?$_List_node@PAV?$Goal@VRaven_Bot@@@@PAX@1@PBV?$_List_val@U?$_List_simple_types@PAV?$Goal@VRaven_Bot@@@@@std@@@1@@Z
_TEXT	SEGMENT
_this$ = -4						; size = 4
__Pnode$ = 8						; size = 4
__Plist$ = 12						; size = 4
??0?$_List_iterator@V?$_List_val@U?$_List_simple_types@PAV?$Goal@VRaven_Bot@@@@@std@@@std@@@std@@QAE@PAU?$_List_node@PAV?$Goal@VRaven_Bot@@@@PAX@1@PBV?$_List_val@U?$_List_simple_types@PAV?$Goal@VRaven_Bot@@@@@std@@@1@@Z PROC ; std::_List_iterator<std::_List_val<std::_List_simple_types<Goal<Raven_Bot> *> > >::_List_iterator<std::_List_val<std::_List_simple_types<Goal<Raven_Bot> *> > >, COMDAT
; _this$ = ecx

; 291  : 		{	// construct with node pointer _Pnode

	push	ebp
	mov	ebp, esp
	push	ecx
	mov	DWORD PTR [ebp-4], -858993460		; ccccccccH
	mov	DWORD PTR _this$[ebp], ecx

; 290  : 		: _Mybase(_Pnode, _Plist)

	mov	eax, DWORD PTR __Plist$[ebp]
	push	eax
	mov	ecx, DWORD PTR __Pnode$[ebp]
	push	ecx
	mov	ecx, DWORD PTR _this$[ebp]
	call	??0?$_List_const_iterator@V?$_List_val@U?$_List_simple_types@PAV?$Goal@VRaven_Bot@@@@@std@@@std@@@std@@QAE@PAU?$_List_node@PAV?$Goal@VRaven_Bot@@@@PAX@1@PBV?$_List_val@U?$_List_simple_types@PAV?$Goal@VRaven_Bot@@@@@std@@@1@@Z ; std::_List_const_iterator<std::_List_val<std::_List_simple_types<Goal<Raven_Bot> *> > >::_List_const_iterator<std::_List_val<std::_List_simple_types<Goal<Raven_Bot> *> > >

; 292  : 		}

	mov	eax, DWORD PTR _this$[ebp]
	add	esp, 4
	cmp	ebp, esp
	call	__RTC_CheckEsp
	mov	esp, ebp
	pop	ebp
	ret	8
??0?$_List_iterator@V?$_List_val@U?$_List_simple_types@PAV?$Goal@VRaven_Bot@@@@@std@@@std@@@std@@QAE@PAU?$_List_node@PAV?$Goal@VRaven_Bot@@@@PAX@1@PBV?$_List_val@U?$_List_simple_types@PAV?$Goal@VRaven_Bot@@@@@std@@@1@@Z ENDP ; std::_List_iterator<std::_List_val<std::_List_simple_types<Goal<Raven_Bot> *> > >::_List_iterator<std::_List_val<std::_List_simple_types<Goal<Raven_Bot> *> > >
_TEXT	ENDS
; Function compile flags: /Odtp /RTCsu
; File c:\program files (x86)\microsoft visual studio\2017\community\vc\tools\msvc\14.15.26726\include\xstddef
;	COMDAT ??$addressof@PAU?$_List_node@PAV?$Goal@VRaven_Bot@@@@PAX@std@@@std@@YAPAPAU?$_List_node@PAV?$Goal@VRaven_Bot@@@@PAX@0@AAPAU10@@Z
_TEXT	SEGMENT
__Val$ = 8						; size = 4
??$addressof@PAU?$_List_node@PAV?$Goal@VRaven_Bot@@@@PAX@std@@@std@@YAPAPAU?$_List_node@PAV?$Goal@VRaven_Bot@@@@PAX@0@AAPAU10@@Z PROC ; std::addressof<std::_List_node<Goal<Raven_Bot> *,void *> *>, COMDAT

; 329  : 	{	// return address of _Val

	push	ebp
	mov	ebp, esp

; 330  : 	return (__builtin_addressof(_Val));

	mov	eax, DWORD PTR __Val$[ebp]

; 331  : 	}

	pop	ebp
	ret	0
??$addressof@PAU?$_List_node@PAV?$Goal@VRaven_Bot@@@@PAX@std@@@std@@YAPAPAU?$_List_node@PAV?$Goal@VRaven_Bot@@@@PAX@0@AAPAU10@@Z ENDP ; std::addressof<std::_List_node<Goal<Raven_Bot> *,void *> *>
_TEXT	ENDS
; Function compile flags: /Odtp /RTCsu
;	COMDAT ??0?$_List_const_iterator@V?$_List_val@U?$_List_simple_types@PAV?$Goal@VRaven_Bot@@@@@std@@@std@@@std@@QAE@$$QAV01@@Z
_TEXT	SEGMENT
_this$ = -4						; size = 4
___that$ = 8						; size = 4
??0?$_List_const_iterator@V?$_List_val@U?$_List_simple_types@PAV?$Goal@VRaven_Bot@@@@@std@@@std@@@std@@QAE@$$QAV01@@Z PROC ; std::_List_const_iterator<std::_List_val<std::_List_simple_types<Goal<Raven_Bot> *> > >::_List_const_iterator<std::_List_val<std::_List_simple_types<Goal<Raven_Bot> *> > >, COMDAT
; _this$ = ecx
	push	ebp
	mov	ebp, esp
	push	ecx
	mov	DWORD PTR [ebp-4], -858993460		; ccccccccH
	mov	DWORD PTR _this$[ebp], ecx
	mov	eax, DWORD PTR ___that$[ebp]
	push	eax
	mov	ecx, DWORD PTR _this$[ebp]
	call	??0?$_List_unchecked_const_iterator@V?$_List_val@U?$_List_simple_types@PAV?$Goal@VRaven_Bot@@@@@std@@@std@@U_Iterator_base12@2@@std@@QAE@$$QAV01@@Z
	mov	eax, DWORD PTR _this$[ebp]
	add	esp, 4
	cmp	ebp, esp
	call	__RTC_CheckEsp
	mov	esp, ebp
	pop	ebp
	ret	4
??0?$_List_const_iterator@V?$_List_val@U?$_List_simple_types@PAV?$Goal@VRaven_Bot@@@@@std@@@std@@@std@@QAE@$$QAV01@@Z ENDP ; std::_List_const_iterator<std::_List_val<std::_List_simple_types<Goal<Raven_Bot> *> > >::_List_const_iterator<std::_List_val<std::_List_simple_types<Goal<Raven_Bot> *> > >
_TEXT	ENDS
; Function compile flags: /Odtp /RTCsu
;	COMDAT ??0?$_List_const_iterator@V?$_List_val@U?$_List_simple_types@PAV?$Goal@VRaven_Bot@@@@@std@@@std@@@std@@QAE@ABV01@@Z
_TEXT	SEGMENT
_this$ = -4						; size = 4
___that$ = 8						; size = 4
??0?$_List_const_iterator@V?$_List_val@U?$_List_simple_types@PAV?$Goal@VRaven_Bot@@@@@std@@@std@@@std@@QAE@ABV01@@Z PROC ; std::_List_const_iterator<std::_List_val<std::_List_simple_types<Goal<Raven_Bot> *> > >::_List_const_iterator<std::_List_val<std::_List_simple_types<Goal<Raven_Bot> *> > >, COMDAT
; _this$ = ecx
	push	ebp
	mov	ebp, esp
	push	ecx
	mov	DWORD PTR [ebp-4], -858993460		; ccccccccH
	mov	DWORD PTR _this$[ebp], ecx
	mov	eax, DWORD PTR ___that$[ebp]
	push	eax
	mov	ecx, DWORD PTR _this$[ebp]
	call	??0?$_List_unchecked_const_iterator@V?$_List_val@U?$_List_simple_types@PAV?$Goal@VRaven_Bot@@@@@std@@@std@@U_Iterator_base12@2@@std@@QAE@ABV01@@Z
	mov	eax, DWORD PTR _this$[ebp]
	add	esp, 4
	cmp	ebp, esp
	call	__RTC_CheckEsp
	mov	esp, ebp
	pop	ebp
	ret	4
??0?$_List_const_iterator@V?$_List_val@U?$_List_simple_types@PAV?$Goal@VRaven_Bot@@@@@std@@@std@@@std@@QAE@ABV01@@Z ENDP ; std::_List_const_iterator<std::_List_val<std::_List_simple_types<Goal<Raven_Bot> *> > >::_List_const_iterator<std::_List_val<std::_List_simple_types<Goal<Raven_Bot> *> > >
_TEXT	ENDS
; Function compile flags: /Odtp /RTCsu
;	COMDAT ??1?$_List_const_iterator@V?$_List_val@U?$_List_simple_types@PAV?$Goal@VRaven_Bot@@@@@std@@@std@@@std@@QAE@XZ
_TEXT	SEGMENT
_this$ = -4						; size = 4
??1?$_List_const_iterator@V?$_List_val@U?$_List_simple_types@PAV?$Goal@VRaven_Bot@@@@@std@@@std@@@std@@QAE@XZ PROC ; std::_List_const_iterator<std::_List_val<std::_List_simple_types<Goal<Raven_Bot> *> > >::~_List_const_iterator<std::_List_val<std::_List_simple_types<Goal<Raven_Bot> *> > >, COMDAT
; _this$ = ecx
	push	ebp
	mov	ebp, esp
	push	ecx
	mov	DWORD PTR [ebp-4], -858993460		; ccccccccH
	mov	DWORD PTR _this$[ebp], ecx
	mov	ecx, DWORD PTR _this$[ebp]
	call	??1?$_List_unchecked_const_iterator@V?$_List_val@U?$_List_simple_types@PAV?$Goal@VRaven_Bot@@@@@std@@@std@@U_Iterator_base12@2@@std@@QAE@XZ
	add	esp, 4
	cmp	ebp, esp
	call	__RTC_CheckEsp
	mov	esp, ebp
	pop	ebp
	ret	0
??1?$_List_const_iterator@V?$_List_val@U?$_List_simple_types@PAV?$Goal@VRaven_Bot@@@@@std@@@std@@@std@@QAE@XZ ENDP ; std::_List_const_iterator<std::_List_val<std::_List_simple_types<Goal<Raven_Bot> *> > >::~_List_const_iterator<std::_List_val<std::_List_simple_types<Goal<Raven_Bot> *> > >
_TEXT	ENDS
; Function compile flags: /Odtp /RTCsu
; File c:\program files (x86)\microsoft visual studio\2017\community\vc\tools\msvc\14.15.26726\include\list
;	COMDAT ??9?$_List_const_iterator@V?$_List_val@U?$_List_simple_types@PAV?$Goal@VRaven_Bot@@@@@std@@@std@@@std@@QBE_NABV01@@Z
_TEXT	SEGMENT
tv69 = -8						; size = 4
_this$ = -4						; size = 4
__Right$ = 8						; size = 4
??9?$_List_const_iterator@V?$_List_val@U?$_List_simple_types@PAV?$Goal@VRaven_Bot@@@@@std@@@std@@@std@@QBE_NABV01@@Z PROC ; std::_List_const_iterator<std::_List_val<std::_List_simple_types<Goal<Raven_Bot> *> > >::operator!=, COMDAT
; _this$ = ecx

; 247  : 		{	// test for iterator inequality

	push	ebp
	mov	ebp, esp
	sub	esp, 8
	mov	DWORD PTR [ebp-8], -858993460		; ccccccccH
	mov	DWORD PTR [ebp-4], -858993460		; ccccccccH
	mov	DWORD PTR _this$[ebp], ecx

; 248  : 		return (!(*this == _Right));

	mov	eax, DWORD PTR __Right$[ebp]
	push	eax
	mov	ecx, DWORD PTR _this$[ebp]
	call	??8?$_List_const_iterator@V?$_List_val@U?$_List_simple_types@PAV?$Goal@VRaven_Bot@@@@@std@@@std@@@std@@QBE_NABV01@@Z ; std::_List_const_iterator<std::_List_val<std::_List_simple_types<Goal<Raven_Bot> *> > >::operator==
	movzx	ecx, al
	test	ecx, ecx
	jne	SHORT $LN3@operator
	mov	DWORD PTR tv69[ebp], 1
	jmp	SHORT $LN4@operator
$LN3@operator:
	mov	DWORD PTR tv69[ebp], 0
$LN4@operator:
	mov	al, BYTE PTR tv69[ebp]

; 249  : 		}

	add	esp, 8
	cmp	ebp, esp
	call	__RTC_CheckEsp
	mov	esp, ebp
	pop	ebp
	ret	4
??9?$_List_const_iterator@V?$_List_val@U?$_List_simple_types@PAV?$Goal@VRaven_Bot@@@@@std@@@std@@@std@@QBE_NABV01@@Z ENDP ; std::_List_const_iterator<std::_List_val<std::_List_simple_types<Goal<Raven_Bot> *> > >::operator!=
_TEXT	ENDS
; Function compile flags: /Odtp /RTCsu
; File c:\program files (x86)\microsoft visual studio\2017\community\vc\tools\msvc\14.15.26726\include\list
;	COMDAT ??8?$_List_const_iterator@V?$_List_val@U?$_List_simple_types@PAV?$Goal@VRaven_Bot@@@@@std@@@std@@@std@@QBE_NABV01@@Z
_TEXT	SEGMENT
tv136 = -8						; size = 4
_this$ = -4						; size = 4
__Right$ = 8						; size = 4
??8?$_List_const_iterator@V?$_List_val@U?$_List_simple_types@PAV?$Goal@VRaven_Bot@@@@@std@@@std@@@std@@QBE_NABV01@@Z PROC ; std::_List_const_iterator<std::_List_val<std::_List_simple_types<Goal<Raven_Bot> *> > >::operator==, COMDAT
; _this$ = ecx

; 238  : 		{	// test for iterator equality

	push	ebp
	mov	ebp, esp
	sub	esp, 8
	push	esi
	mov	DWORD PTR [ebp-8], -858993460		; ccccccccH
	mov	DWORD PTR [ebp-4], -858993460		; ccccccccH
	mov	DWORD PTR _this$[ebp], ecx
$LN4@operator:

; 239  :  #if _ITERATOR_DEBUG_LEVEL != 0
; 240  : 		_STL_VERIFY(this->_Getcont() == _Right._Getcont(), "list iterators incompatible");

	mov	ecx, DWORD PTR _this$[ebp]
	call	?_Getcont@_Iterator_base12@std@@QBEPBU_Container_base12@2@XZ ; std::_Iterator_base12::_Getcont
	mov	esi, eax
	mov	ecx, DWORD PTR __Right$[ebp]
	call	?_Getcont@_Iterator_base12@std@@QBEPBU_Container_base12@2@XZ ; std::_Iterator_base12::_Getcont
	cmp	esi, eax
	jne	SHORT $LN7@operator
	jmp	SHORT $LN2@operator
$LN7@operator:
	push	OFFSET ??_C@_0BM@BALDKKHE@list?5iterators?5incompatible@
	push	OFFSET ??_C@_02DKCKIIND@?$CFs@
	push	0
	push	240					; 000000f0H
	push	OFFSET ??_C@_0GF@CDIONFB@c?3?2program?5files?5?$CIx86?$CJ?2microsof@
	push	2
	call	__CrtDbgReport
	add	esp, 24					; 00000018H
	cmp	eax, 1
	jne	SHORT $LN11@operator
	int	3
$LN11@operator:
	push	0
	push	240					; 000000f0H
	push	OFFSET ??_C@_1MK@MDLCPFJD@?$AAc?$AA?3?$AA?2?$AAp?$AAr?$AAo?$AAg?$AAr?$AAa?$AAm?$AA?5?$AAf?$AAi?$AAl?$AAe@
	push	OFFSET ??_C@_1PM@NGMJNEOB@?$AAs?$AAt?$AAd?$AA?3?$AA?3?$AA_?$AAL?$AAi?$AAs?$AAt?$AA_?$AAc?$AAo?$AAn?$AAs@
	push	OFFSET ??_C@_1DM@KDLJAKOP@?$AA?$CC?$AAl?$AAi?$AAs?$AAt?$AA?5?$AAi?$AAt?$AAe?$AAr?$AAa?$AAt?$AAo?$AAr?$AAs@
	call	__invalid_parameter
	add	esp, 20					; 00000014H
	xor	ecx, ecx
	jne	SHORT $LN7@operator
$LN2@operator:
	xor	edx, edx
	jne	SHORT $LN4@operator

; 241  :  #endif /* _ITERATOR_DEBUG_LEVEL != 0 */
; 242  : 
; 243  : 		return (this->_Ptr == _Right._Ptr);

	mov	eax, DWORD PTR _this$[ebp]
	mov	ecx, DWORD PTR __Right$[ebp]
	mov	edx, DWORD PTR [eax+8]
	cmp	edx, DWORD PTR [ecx+8]
	jne	SHORT $LN12@operator
	mov	DWORD PTR tv136[ebp], 1
	jmp	SHORT $LN13@operator
$LN12@operator:
	mov	DWORD PTR tv136[ebp], 0
$LN13@operator:
	mov	al, BYTE PTR tv136[ebp]

; 244  : 		}

	pop	esi
	add	esp, 8
	cmp	ebp, esp
	call	__RTC_CheckEsp
	mov	esp, ebp
	pop	ebp
	ret	4
??8?$_List_const_iterator@V?$_List_val@U?$_List_simple_types@PAV?$Goal@VRaven_Bot@@@@@std@@@std@@@std@@QBE_NABV01@@Z ENDP ; std::_List_const_iterator<std::_List_val<std::_List_simple_types<Goal<Raven_Bot> *> > >::operator==
_TEXT	ENDS
; Function compile flags: /Odtp /RTCsu
; File c:\program files (x86)\microsoft visual studio\2017\community\vc\tools\msvc\14.15.26726\include\list
;	COMDAT ??E?$_List_const_iterator@V?$_List_val@U?$_List_simple_types@PAV?$Goal@VRaven_Bot@@@@@std@@@std@@@std@@QAE?AV01@H@Z
_TEXT	SEGMENT
$T2 = -40						; size = 4
__Tmp$ = -32						; size = 12
_this$ = -16						; size = 4
__$EHRec$ = -12						; size = 12
___$ReturnUdt$ = 8					; size = 4
___formal$ = 12						; size = 4
??E?$_List_const_iterator@V?$_List_val@U?$_List_simple_types@PAV?$Goal@VRaven_Bot@@@@@std@@@std@@@std@@QAE?AV01@H@Z PROC ; std::_List_const_iterator<std::_List_val<std::_List_simple_types<Goal<Raven_Bot> *> > >::operator++, COMDAT
; _this$ = ecx

; 211  : 		{	// postincrement

	push	ebp
	mov	ebp, esp
	push	-1
	push	__ehhandler$??E?$_List_const_iterator@V?$_List_val@U?$_List_simple_types@PAV?$Goal@VRaven_Bot@@@@@std@@@std@@@std@@QAE?AV01@H@Z
	mov	eax, DWORD PTR fs:0
	push	eax
	sub	esp, 28					; 0000001cH
	mov	eax, -858993460				; ccccccccH
	mov	DWORD PTR [ebp-40], eax
	mov	DWORD PTR [ebp-36], eax
	mov	DWORD PTR [ebp-32], eax
	mov	DWORD PTR [ebp-28], eax
	mov	DWORD PTR [ebp-24], eax
	mov	DWORD PTR [ebp-20], eax
	mov	DWORD PTR [ebp-16], eax
	mov	eax, DWORD PTR ___security_cookie
	xor	eax, ebp
	push	eax
	lea	eax, DWORD PTR __$EHRec$[ebp]
	mov	DWORD PTR fs:0, eax
	mov	DWORD PTR _this$[ebp], ecx
	mov	DWORD PTR $T2[ebp], 0

; 212  : 		_List_const_iterator _Tmp = *this;

	mov	eax, DWORD PTR _this$[ebp]
	push	eax
	lea	ecx, DWORD PTR __Tmp$[ebp]
	call	??0?$_List_const_iterator@V?$_List_val@U?$_List_simple_types@PAV?$Goal@VRaven_Bot@@@@@std@@@std@@@std@@QAE@ABV01@@Z
	mov	DWORD PTR __$EHRec$[ebp+8], 0

; 213  : 		++*this;

	mov	ecx, DWORD PTR _this$[ebp]
	call	??E?$_List_const_iterator@V?$_List_val@U?$_List_simple_types@PAV?$Goal@VRaven_Bot@@@@@std@@@std@@@std@@QAEAAV01@XZ ; std::_List_const_iterator<std::_List_val<std::_List_simple_types<Goal<Raven_Bot> *> > >::operator++

; 214  : 		return (_Tmp);

	lea	ecx, DWORD PTR __Tmp$[ebp]
	push	ecx
	mov	ecx, DWORD PTR ___$ReturnUdt$[ebp]
	call	??0?$_List_const_iterator@V?$_List_val@U?$_List_simple_types@PAV?$Goal@VRaven_Bot@@@@@std@@@std@@@std@@QAE@$$QAV01@@Z
	mov	edx, DWORD PTR $T2[ebp]
	or	edx, 1
	mov	DWORD PTR $T2[ebp], edx
	mov	DWORD PTR __$EHRec$[ebp+8], -1
	lea	ecx, DWORD PTR __Tmp$[ebp]
	call	??1?$_List_const_iterator@V?$_List_val@U?$_List_simple_types@PAV?$Goal@VRaven_Bot@@@@@std@@@std@@@std@@QAE@XZ
	mov	eax, DWORD PTR ___$ReturnUdt$[ebp]

; 215  : 		}

	push	edx
	mov	ecx, ebp
	push	eax
	lea	edx, DWORD PTR $LN9@operator
	call	@_RTC_CheckStackVars@8
	pop	eax
	pop	edx
	mov	ecx, DWORD PTR __$EHRec$[ebp]
	mov	DWORD PTR fs:0, ecx
	pop	ecx
	add	esp, 40					; 00000028H
	cmp	ebp, esp
	call	__RTC_CheckEsp
	mov	esp, ebp
	pop	ebp
	ret	8
	npad	1
$LN9@operator:
	DD	1
	DD	$LN8@operator
$LN8@operator:
	DD	-32					; ffffffe0H
	DD	12					; 0000000cH
	DD	$LN6@operator
$LN6@operator:
	DB	95					; 0000005fH
	DB	84					; 00000054H
	DB	109					; 0000006dH
	DB	112					; 00000070H
	DB	0
_TEXT	ENDS
;	COMDAT text$x
text$x	SEGMENT
__unwindfunclet$??E?$_List_const_iterator@V?$_List_val@U?$_List_simple_types@PAV?$Goal@VRaven_Bot@@@@@std@@@std@@@std@@QAE?AV01@H@Z$0:
	lea	ecx, DWORD PTR __Tmp$[ebp]
	jmp	??1?$_List_const_iterator@V?$_List_val@U?$_List_simple_types@PAV?$Goal@VRaven_Bot@@@@@std@@@std@@@std@@QAE@XZ
__ehhandler$??E?$_List_const_iterator@V?$_List_val@U?$_List_simple_types@PAV?$Goal@VRaven_Bot@@@@@std@@@std@@@std@@QAE?AV01@H@Z:
	mov	edx, DWORD PTR [esp+8]
	lea	eax, DWORD PTR [edx+12]
	mov	ecx, DWORD PTR [edx-32]
	xor	ecx, eax
	call	@__security_check_cookie@4
	mov	eax, OFFSET __ehfuncinfo$??E?$_List_const_iterator@V?$_List_val@U?$_List_simple_types@PAV?$Goal@VRaven_Bot@@@@@std@@@std@@@std@@QAE?AV01@H@Z
	jmp	___CxxFrameHandler3
text$x	ENDS
??E?$_List_const_iterator@V?$_List_val@U?$_List_simple_types@PAV?$Goal@VRaven_Bot@@@@@std@@@std@@@std@@QAE?AV01@H@Z ENDP ; std::_List_const_iterator<std::_List_val<std::_List_simple_types<Goal<Raven_Bot> *> > >::operator++
; Function compile flags: /Odtp /RTCsu
; File c:\program files (x86)\microsoft visual studio\2017\community\vc\tools\msvc\14.15.26726\include\list
;	COMDAT ??E?$_List_const_iterator@V?$_List_val@U?$_List_simple_types@PAV?$Goal@VRaven_Bot@@@@@std@@@std@@@std@@QAEAAV01@XZ
_TEXT	SEGMENT
__Mycont$ = -8						; size = 4
_this$ = -4						; size = 4
??E?$_List_const_iterator@V?$_List_val@U?$_List_simple_types@PAV?$Goal@VRaven_Bot@@@@@std@@@std@@@std@@QAEAAV01@XZ PROC ; std::_List_const_iterator<std::_List_val<std::_List_simple_types<Goal<Raven_Bot> *> > >::operator++, COMDAT
; _this$ = ecx

; 199  : 		{	// preincrement

	push	ebp
	mov	ebp, esp
	sub	esp, 8
	mov	DWORD PTR [ebp-8], -858993460		; ccccccccH
	mov	DWORD PTR [ebp-4], -858993460		; ccccccccH
	mov	DWORD PTR _this$[ebp], ecx

; 200  :  #if _ITERATOR_DEBUG_LEVEL != 0
; 201  : 		const auto _Mycont = static_cast<const _Mylist *>(this->_Getcont());

	mov	ecx, DWORD PTR _this$[ebp]
	call	?_Getcont@_Iterator_base12@std@@QBEPBU_Container_base12@2@XZ ; std::_Iterator_base12::_Getcont
	mov	DWORD PTR __Mycont$[ebp], eax
$LN4@operator:

; 202  : 		_STL_ASSERT(_Mycont, "cannot increment value-initialized list iterator");

	cmp	DWORD PTR __Mycont$[ebp], 0
	je	SHORT $LN7@operator
	jmp	SHORT $LN2@operator
$LN7@operator:
	push	OFFSET ??_C@_0DB@ENBCPNKO@cannot?5increment?5value?9initiali@
	push	OFFSET ??_C@_02DKCKIIND@?$CFs@
	push	0
	push	202					; 000000caH
	push	OFFSET ??_C@_0GF@CDIONFB@c?3?2program?5files?5?$CIx86?$CJ?2microsof@
	push	2
	call	__CrtDbgReport
	add	esp, 24					; 00000018H
	cmp	eax, 1
	jne	SHORT $LN19@operator
	int	3
$LN19@operator:
	push	0
	push	202					; 000000caH
	push	OFFSET ??_C@_1MK@MDLCPFJD@?$AAc?$AA?3?$AA?2?$AAp?$AAr?$AAo?$AAg?$AAr?$AAa?$AAm?$AA?5?$AAf?$AAi?$AAl?$AAe@
	push	OFFSET ??_C@_1PM@HGDEDNCE@?$AAs?$AAt?$AAd?$AA?3?$AA?3?$AA_?$AAL?$AAi?$AAs?$AAt?$AA_?$AAc?$AAo?$AAn?$AAs@
	push	OFFSET ??_C@_1GG@JLMAGPNK@?$AA?$CC?$AAc?$AAa?$AAn?$AAn?$AAo?$AAt?$AA?5?$AAi?$AAn?$AAc?$AAr?$AAe?$AAm?$AAe@
	call	__invalid_parameter
	add	esp, 20					; 00000014H
	xor	ecx, ecx
	jne	SHORT $LN7@operator
$LN2@operator:
	xor	edx, edx
	jne	SHORT $LN4@operator
$LN10@operator:

; 203  : 		_STL_VERIFY(this->_Ptr != _Mycont->_Myhead, "cannot increment end list iterator");

	mov	eax, DWORD PTR _this$[ebp]
	mov	ecx, DWORD PTR __Mycont$[ebp]
	mov	edx, DWORD PTR [eax+8]
	cmp	edx, DWORD PTR [ecx+4]
	je	SHORT $LN13@operator
	jmp	SHORT $LN8@operator
$LN13@operator:
	push	OFFSET ??_C@_0CD@PMFMCEG@cannot?5increment?5end?5list?5itera@
	push	OFFSET ??_C@_02DKCKIIND@?$CFs@
	push	0
	push	203					; 000000cbH
	push	OFFSET ??_C@_0GF@CDIONFB@c?3?2program?5files?5?$CIx86?$CJ?2microsof@
	push	2
	call	__CrtDbgReport
	add	esp, 24					; 00000018H
	cmp	eax, 1
	jne	SHORT $LN20@operator
	int	3
$LN20@operator:
	push	0
	push	203					; 000000cbH
	push	OFFSET ??_C@_1MK@MDLCPFJD@?$AAc?$AA?3?$AA?2?$AAp?$AAr?$AAo?$AAg?$AAr?$AAa?$AAm?$AA?5?$AAf?$AAi?$AAl?$AAe@
	push	OFFSET ??_C@_1PM@HGDEDNCE@?$AAs?$AAt?$AAd?$AA?3?$AA?3?$AA_?$AAL?$AAi?$AAs?$AAt?$AA_?$AAc?$AAo?$AAn?$AAs@
	push	OFFSET ??_C@_1EK@OKKCFDJN@?$AA?$CC?$AAc?$AAa?$AAn?$AAn?$AAo?$AAt?$AA?5?$AAi?$AAn?$AAc?$AAr?$AAe?$AAm?$AAe@
	call	__invalid_parameter
	add	esp, 20					; 00000014H
	xor	ecx, ecx
	jne	SHORT $LN13@operator
$LN8@operator:
	xor	edx, edx
	jne	SHORT $LN10@operator

; 204  :  #endif /* _ITERATOR_DEBUG_LEVEL != 0 */
; 205  : 
; 206  : 		this->_Ptr = this->_Ptr->_Next;

	mov	eax, DWORD PTR _this$[ebp]
	mov	ecx, DWORD PTR [eax+8]
	mov	edx, DWORD PTR _this$[ebp]
	mov	eax, DWORD PTR [ecx]
	mov	DWORD PTR [edx+8], eax

; 207  : 		return (*this);

	mov	eax, DWORD PTR _this$[ebp]

; 208  : 		}

	add	esp, 8
	cmp	ebp, esp
	call	__RTC_CheckEsp
	mov	esp, ebp
	pop	ebp
	ret	0
??E?$_List_const_iterator@V?$_List_val@U?$_List_simple_types@PAV?$Goal@VRaven_Bot@@@@@std@@@std@@@std@@QAEAAV01@XZ ENDP ; std::_List_const_iterator<std::_List_val<std::_List_simple_types<Goal<Raven_Bot> *> > >::operator++
_TEXT	ENDS
; Function compile flags: /Odtp /RTCsu
; File c:\program files (x86)\microsoft visual studio\2017\community\vc\tools\msvc\14.15.26726\include\list
;	COMDAT ??D?$_List_const_iterator@V?$_List_val@U?$_List_simple_types@PAV?$Goal@VRaven_Bot@@@@@std@@@std@@@std@@QBEABQAV?$Goal@VRaven_Bot@@@@XZ
_TEXT	SEGMENT
__Mycont$ = -8						; size = 4
_this$ = -4						; size = 4
??D?$_List_const_iterator@V?$_List_val@U?$_List_simple_types@PAV?$Goal@VRaven_Bot@@@@@std@@@std@@@std@@QBEABQAV?$Goal@VRaven_Bot@@@@XZ PROC ; std::_List_const_iterator<std::_List_val<std::_List_simple_types<Goal<Raven_Bot> *> > >::operator*, COMDAT
; _this$ = ecx

; 183  : 		{	// return designated value

	push	ebp
	mov	ebp, esp
	sub	esp, 8
	mov	DWORD PTR [ebp-8], -858993460		; ccccccccH
	mov	DWORD PTR [ebp-4], -858993460		; ccccccccH
	mov	DWORD PTR _this$[ebp], ecx

; 184  :  #if _ITERATOR_DEBUG_LEVEL != 0
; 185  : 		const auto _Mycont = static_cast<const _Mylist *>(this->_Getcont());

	mov	ecx, DWORD PTR _this$[ebp]
	call	?_Getcont@_Iterator_base12@std@@QBEPBU_Container_base12@2@XZ ; std::_Iterator_base12::_Getcont
	mov	DWORD PTR __Mycont$[ebp], eax
$LN4@operator:

; 186  : 		_STL_ASSERT(_Mycont, "cannot dereference value-initialized list iterator");

	cmp	DWORD PTR __Mycont$[ebp], 0
	je	SHORT $LN7@operator
	jmp	SHORT $LN2@operator
$LN7@operator:
	push	OFFSET ??_C@_0DD@MBIHGLJE@cannot?5dereference?5value?9initia@
	push	OFFSET ??_C@_02DKCKIIND@?$CFs@
	push	0
	push	186					; 000000baH
	push	OFFSET ??_C@_0GF@CDIONFB@c?3?2program?5files?5?$CIx86?$CJ?2microsof@
	push	2
	call	__CrtDbgReport
	add	esp, 24					; 00000018H
	cmp	eax, 1
	jne	SHORT $LN19@operator
	int	3
$LN19@operator:
	push	0
	push	186					; 000000baH
	push	OFFSET ??_C@_1MK@MDLCPFJD@?$AAc?$AA?3?$AA?2?$AAp?$AAr?$AAo?$AAg?$AAr?$AAa?$AAm?$AA?5?$AAf?$AAi?$AAl?$AAe@
	push	OFFSET ??_C@_1PK@KKMOJEL@?$AAs?$AAt?$AAd?$AA?3?$AA?3?$AA_?$AAL?$AAi?$AAs?$AAt?$AA_?$AAc?$AAo?$AAn?$AAs@
	push	OFFSET ??_C@_1GK@NKIMOCIG@?$AA?$CC?$AAc?$AAa?$AAn?$AAn?$AAo?$AAt?$AA?5?$AAd?$AAe?$AAr?$AAe?$AAf?$AAe?$AAr@
	call	__invalid_parameter
	add	esp, 20					; 00000014H
	xor	ecx, ecx
	jne	SHORT $LN7@operator
$LN2@operator:
	xor	edx, edx
	jne	SHORT $LN4@operator
$LN10@operator:

; 187  : 		_STL_VERIFY(this->_Ptr != _Mycont->_Myhead, "cannot dereference end list iterator");

	mov	eax, DWORD PTR _this$[ebp]
	mov	ecx, DWORD PTR __Mycont$[ebp]
	mov	edx, DWORD PTR [eax+8]
	cmp	edx, DWORD PTR [ecx+4]
	je	SHORT $LN13@operator
	jmp	SHORT $LN8@operator
$LN13@operator:
	push	OFFSET ??_C@_0CF@JCBFHMPL@cannot?5dereference?5end?5list?5ite@
	push	OFFSET ??_C@_02DKCKIIND@?$CFs@
	push	0
	push	187					; 000000bbH
	push	OFFSET ??_C@_0GF@CDIONFB@c?3?2program?5files?5?$CIx86?$CJ?2microsof@
	push	2
	call	__CrtDbgReport
	add	esp, 24					; 00000018H
	cmp	eax, 1
	jne	SHORT $LN20@operator
	int	3
$LN20@operator:
	push	0
	push	187					; 000000bbH
	push	OFFSET ??_C@_1MK@MDLCPFJD@?$AAc?$AA?3?$AA?2?$AAp?$AAr?$AAo?$AAg?$AAr?$AAa?$AAm?$AA?5?$AAf?$AAi?$AAl?$AAe@
	push	OFFSET ??_C@_1PK@KKMOJEL@?$AAs?$AAt?$AAd?$AA?3?$AA?3?$AA_?$AAL?$AAi?$AAs?$AAt?$AA_?$AAc?$AAo?$AAn?$AAs@
	push	OFFSET ??_C@_1EO@CNEFBDCF@?$AA?$CC?$AAc?$AAa?$AAn?$AAn?$AAo?$AAt?$AA?5?$AAd?$AAe?$AAr?$AAe?$AAf?$AAe?$AAr@
	call	__invalid_parameter
	add	esp, 20					; 00000014H
	xor	ecx, ecx
	jne	SHORT $LN13@operator
$LN8@operator:
	xor	edx, edx
	jne	SHORT $LN10@operator

; 188  :  #endif /* _ITERATOR_DEBUG_LEVEL != 0 */
; 189  : 
; 190  : 		return (this->_Ptr->_Myval);

	mov	eax, DWORD PTR _this$[ebp]
	mov	eax, DWORD PTR [eax+8]
	add	eax, 8

; 191  : 		}

	add	esp, 8
	cmp	ebp, esp
	call	__RTC_CheckEsp
	mov	esp, ebp
	pop	ebp
	ret	0
??D?$_List_const_iterator@V?$_List_val@U?$_List_simple_types@PAV?$Goal@VRaven_Bot@@@@@std@@@std@@@std@@QBEABQAV?$Goal@VRaven_Bot@@@@XZ ENDP ; std::_List_const_iterator<std::_List_val<std::_List_simple_types<Goal<Raven_Bot> *> > >::operator*
_TEXT	ENDS
; Function compile flags: /Odtp /RTCsu
; File c:\program files (x86)\microsoft visual studio\2017\community\vc\tools\msvc\14.15.26726\include\list
;	COMDAT ??0?$_List_const_iterator@V?$_List_val@U?$_List_simple_types@PAV?$Goal@VRaven_Bot@@@@@std@@@std@@@std@@QAE@PAU?$_List_node@PAV?$Goal@VRaven_Bot@@@@PAX@1@PBV?$_List_val@U?$_List_simple_types@PAV?$Goal@VRaven_Bot@@@@@std@@@1@@Z
_TEXT	SEGMENT
_this$ = -4						; size = 4
__Pnode$ = 8						; size = 4
__Plist$ = 12						; size = 4
??0?$_List_const_iterator@V?$_List_val@U?$_List_simple_types@PAV?$Goal@VRaven_Bot@@@@@std@@@std@@@std@@QAE@PAU?$_List_node@PAV?$Goal@VRaven_Bot@@@@PAX@1@PBV?$_List_val@U?$_List_simple_types@PAV?$Goal@VRaven_Bot@@@@@std@@@1@@Z PROC ; std::_List_const_iterator<std::_List_val<std::_List_simple_types<Goal<Raven_Bot> *> > >::_List_const_iterator<std::_List_val<std::_List_simple_types<Goal<Raven_Bot> *> > >, COMDAT
; _this$ = ecx

; 179  : 		{	// construct with node pointer _Pnode

	push	ebp
	mov	ebp, esp
	push	ecx
	mov	DWORD PTR [ebp-4], -858993460		; ccccccccH
	mov	DWORD PTR _this$[ebp], ecx

; 178  : 		: _Mybase(_Pnode, _Plist)

	mov	eax, DWORD PTR __Plist$[ebp]
	push	eax
	mov	ecx, DWORD PTR __Pnode$[ebp]
	push	ecx
	mov	ecx, DWORD PTR _this$[ebp]
	call	??0?$_List_unchecked_const_iterator@V?$_List_val@U?$_List_simple_types@PAV?$Goal@VRaven_Bot@@@@@std@@@std@@U_Iterator_base12@2@@std@@QAE@PAU?$_List_node@PAV?$Goal@VRaven_Bot@@@@PAX@1@PBV?$_List_val@U?$_List_simple_types@PAV?$Goal@VRaven_Bot@@@@@std@@@1@@Z ; std::_List_unchecked_const_iterator<std::_List_val<std::_List_simple_types<Goal<Raven_Bot> *> >,std::_Iterator_base12>::_List_unchecked_const_iterator<std::_List_val<std::_List_simple_types<Goal<Raven_Bot> *> >,std::_Iterator_base12>

; 180  : 		}

	mov	eax, DWORD PTR _this$[ebp]
	add	esp, 4
	cmp	ebp, esp
	call	__RTC_CheckEsp
	mov	esp, ebp
	pop	ebp
	ret	8
??0?$_List_const_iterator@V?$_List_val@U?$_List_simple_types@PAV?$Goal@VRaven_Bot@@@@@std@@@std@@@std@@QAE@PAU?$_List_node@PAV?$Goal@VRaven_Bot@@@@PAX@1@PBV?$_List_val@U?$_List_simple_types@PAV?$Goal@VRaven_Bot@@@@@std@@@1@@Z ENDP ; std::_List_const_iterator<std::_List_val<std::_List_simple_types<Goal<Raven_Bot> *> > >::_List_const_iterator<std::_List_val<std::_List_simple_types<Goal<Raven_Bot> *> > >
_TEXT	ENDS
; Function compile flags: /Odtp /RTCsu
;	COMDAT ??0?$_List_unchecked_const_iterator@V?$_List_val@U?$_List_simple_types@PAV?$Goal@VRaven_Bot@@@@@std@@@std@@U_Iterator_base12@2@@std@@QAE@$$QAV01@@Z
_TEXT	SEGMENT
_this$ = -4						; size = 4
___that$ = 8						; size = 4
??0?$_List_unchecked_const_iterator@V?$_List_val@U?$_List_simple_types@PAV?$Goal@VRaven_Bot@@@@@std@@@std@@U_Iterator_base12@2@@std@@QAE@$$QAV01@@Z PROC ; std::_List_unchecked_const_iterator<std::_List_val<std::_List_simple_types<Goal<Raven_Bot> *> >,std::_Iterator_base12>::_List_unchecked_const_iterator<std::_List_val<std::_List_simple_types<Goal<Raven_Bot> *> >,std::_Iterator_base12>, COMDAT
; _this$ = ecx
	push	ebp
	mov	ebp, esp
	push	ecx
	mov	DWORD PTR [ebp-4], -858993460		; ccccccccH
	mov	DWORD PTR _this$[ebp], ecx
	mov	eax, DWORD PTR ___that$[ebp]
	push	eax
	mov	ecx, DWORD PTR _this$[ebp]
	call	??0_Iterator_base12@std@@QAE@ABU01@@Z	; std::_Iterator_base12::_Iterator_base12
	mov	ecx, DWORD PTR _this$[ebp]
	mov	edx, DWORD PTR ___that$[ebp]
	mov	eax, DWORD PTR [edx+8]
	mov	DWORD PTR [ecx+8], eax
	mov	eax, DWORD PTR _this$[ebp]
	add	esp, 4
	cmp	ebp, esp
	call	__RTC_CheckEsp
	mov	esp, ebp
	pop	ebp
	ret	4
??0?$_List_unchecked_const_iterator@V?$_List_val@U?$_List_simple_types@PAV?$Goal@VRaven_Bot@@@@@std@@@std@@U_Iterator_base12@2@@std@@QAE@$$QAV01@@Z ENDP ; std::_List_unchecked_const_iterator<std::_List_val<std::_List_simple_types<Goal<Raven_Bot> *> >,std::_Iterator_base12>::_List_unchecked_const_iterator<std::_List_val<std::_List_simple_types<Goal<Raven_Bot> *> >,std::_Iterator_base12>
_TEXT	ENDS
; Function compile flags: /Odtp /RTCsu
;	COMDAT ??0?$_List_unchecked_const_iterator@V?$_List_val@U?$_List_simple_types@PAV?$Goal@VRaven_Bot@@@@@std@@@std@@U_Iterator_base12@2@@std@@QAE@ABV01@@Z
_TEXT	SEGMENT
_this$ = -4						; size = 4
___that$ = 8						; size = 4
??0?$_List_unchecked_const_iterator@V?$_List_val@U?$_List_simple_types@PAV?$Goal@VRaven_Bot@@@@@std@@@std@@U_Iterator_base12@2@@std@@QAE@ABV01@@Z PROC ; std::_List_unchecked_const_iterator<std::_List_val<std::_List_simple_types<Goal<Raven_Bot> *> >,std::_Iterator_base12>::_List_unchecked_const_iterator<std::_List_val<std::_List_simple_types<Goal<Raven_Bot> *> >,std::_Iterator_base12>, COMDAT
; _this$ = ecx
	push	ebp
	mov	ebp, esp
	push	ecx
	mov	DWORD PTR [ebp-4], -858993460		; ccccccccH
	mov	DWORD PTR _this$[ebp], ecx
	mov	eax, DWORD PTR ___that$[ebp]
	push	eax
	mov	ecx, DWORD PTR _this$[ebp]
	call	??0_Iterator_base12@std@@QAE@ABU01@@Z	; std::_Iterator_base12::_Iterator_base12
	mov	ecx, DWORD PTR _this$[ebp]
	mov	edx, DWORD PTR ___that$[ebp]
	mov	eax, DWORD PTR [edx+8]
	mov	DWORD PTR [ecx+8], eax
	mov	eax, DWORD PTR _this$[ebp]
	add	esp, 4
	cmp	ebp, esp
	call	__RTC_CheckEsp
	mov	esp, ebp
	pop	ebp
	ret	4
??0?$_List_unchecked_const_iterator@V?$_List_val@U?$_List_simple_types@PAV?$Goal@VRaven_Bot@@@@@std@@@std@@U_Iterator_base12@2@@std@@QAE@ABV01@@Z ENDP ; std::_List_unchecked_const_iterator<std::_List_val<std::_List_simple_types<Goal<Raven_Bot> *> >,std::_Iterator_base12>::_List_unchecked_const_iterator<std::_List_val<std::_List_simple_types<Goal<Raven_Bot> *> >,std::_Iterator_base12>
_TEXT	ENDS
; Function compile flags: /Odtp /RTCsu
;	COMDAT ??1?$_List_unchecked_const_iterator@V?$_List_val@U?$_List_simple_types@PAV?$Goal@VRaven_Bot@@@@@std@@@std@@U_Iterator_base12@2@@std@@QAE@XZ
_TEXT	SEGMENT
_this$ = -4						; size = 4
??1?$_List_unchecked_const_iterator@V?$_List_val@U?$_List_simple_types@PAV?$Goal@VRaven_Bot@@@@@std@@@std@@U_Iterator_base12@2@@std@@QAE@XZ PROC ; std::_List_unchecked_const_iterator<std::_List_val<std::_List_simple_types<Goal<Raven_Bot> *> >,std::_Iterator_base12>::~_List_unchecked_const_iterator<std::_List_val<std::_List_simple_types<Goal<Raven_Bot> *> >,std::_Iterator_base12>, COMDAT
; _this$ = ecx
	push	ebp
	mov	ebp, esp
	push	ecx
	mov	DWORD PTR [ebp-4], -858993460		; ccccccccH
	mov	DWORD PTR _this$[ebp], ecx
	mov	ecx, DWORD PTR _this$[ebp]
	call	??1_Iterator_base12@std@@QAE@XZ		; std::_Iterator_base12::~_Iterator_base12
	add	esp, 4
	cmp	ebp, esp
	call	__RTC_CheckEsp
	mov	esp, ebp
	pop	ebp
	ret	0
??1?$_List_unchecked_const_iterator@V?$_List_val@U?$_List_simple_types@PAV?$Goal@VRaven_Bot@@@@@std@@@std@@U_Iterator_base12@2@@std@@QAE@XZ ENDP ; std::_List_unchecked_const_iterator<std::_List_val<std::_List_simple_types<Goal<Raven_Bot> *> >,std::_Iterator_base12>::~_List_unchecked_const_iterator<std::_List_val<std::_List_simple_types<Goal<Raven_Bot> *> >,std::_Iterator_base12>
_TEXT	ENDS
; Function compile flags: /Odtp /RTCsu
; File c:\program files (x86)\microsoft visual studio\2017\community\vc\tools\msvc\14.15.26726\include\list
;	COMDAT ??0?$_List_unchecked_const_iterator@V?$_List_val@U?$_List_simple_types@PAV?$Goal@VRaven_Bot@@@@@std@@@std@@U_Iterator_base12@2@@std@@QAE@PAU?$_List_node@PAV?$Goal@VRaven_Bot@@@@PAX@1@PBV?$_List_val@U?$_List_simple_types@PAV?$Goal@VRaven_Bot@@@@@std@@@1@@Z
_TEXT	SEGMENT
_this$ = -4						; size = 4
__Pnode$ = 8						; size = 4
__Plist$ = 12						; size = 4
??0?$_List_unchecked_const_iterator@V?$_List_val@U?$_List_simple_types@PAV?$Goal@VRaven_Bot@@@@@std@@@std@@U_Iterator_base12@2@@std@@QAE@PAU?$_List_node@PAV?$Goal@VRaven_Bot@@@@PAX@1@PBV?$_List_val@U?$_List_simple_types@PAV?$Goal@VRaven_Bot@@@@@std@@@1@@Z PROC ; std::_List_unchecked_const_iterator<std::_List_val<std::_List_simple_types<Goal<Raven_Bot> *> >,std::_Iterator_base12>::_List_unchecked_const_iterator<std::_List_val<std::_List_simple_types<Goal<Raven_Bot> *> >,std::_Iterator_base12>, COMDAT
; _this$ = ecx

; 43   : 		{	// construct with node pointer _Pnode

	push	ebp
	mov	ebp, esp
	push	ecx
	mov	DWORD PTR [ebp-4], -858993460		; ccccccccH
	mov	DWORD PTR _this$[ebp], ecx
	mov	ecx, DWORD PTR _this$[ebp]
	call	??0_Iterator_base12@std@@QAE@XZ		; std::_Iterator_base12::_Iterator_base12

; 42   : 		: _Ptr(_Pnode)

	mov	eax, DWORD PTR _this$[ebp]
	mov	ecx, DWORD PTR __Pnode$[ebp]
	mov	DWORD PTR [eax+8], ecx

; 44   : 		this->_Adopt(_Plist);

	mov	edx, DWORD PTR __Plist$[ebp]
	push	edx
	mov	ecx, DWORD PTR _this$[ebp]
	call	?_Adopt@_Iterator_base12@std@@QAEXPBU_Container_base12@2@@Z ; std::_Iterator_base12::_Adopt

; 45   : 		}

	mov	eax, DWORD PTR _this$[ebp]
	add	esp, 4
	cmp	ebp, esp
	call	__RTC_CheckEsp
	mov	esp, ebp
	pop	ebp
	ret	8
??0?$_List_unchecked_const_iterator@V?$_List_val@U?$_List_simple_types@PAV?$Goal@VRaven_Bot@@@@@std@@@std@@U_Iterator_base12@2@@std@@QAE@PAU?$_List_node@PAV?$Goal@VRaven_Bot@@@@PAX@1@PBV?$_List_val@U?$_List_simple_types@PAV?$Goal@VRaven_Bot@@@@@std@@@1@@Z ENDP ; std::_List_unchecked_const_iterator<std::_List_val<std::_List_simple_types<Goal<Raven_Bot> *> >,std::_Iterator_base12>::_List_unchecked_const_iterator<std::_List_val<std::_List_simple_types<Goal<Raven_Bot> *> >,std::_Iterator_base12>
_TEXT	ENDS
; Function compile flags: /Odtp /RTCsu
; File c:\program files (x86)\microsoft visual studio\2017\community\vc\tools\msvc\14.15.26726\include\xmemory0
;	COMDAT ??$destroy@PAV?$Goal@VRaven_Bot@@@@@?$_Default_allocator_traits@V?$allocator@U?$_List_node@PAV?$Goal@VRaven_Bot@@@@PAX@std@@@std@@@std@@SAXAAV?$allocator@U?$_List_node@PAV?$Goal@VRaven_Bot@@@@PAX@std@@@1@QAPAV?$Goal@VRaven_Bot@@@@@Z
_TEXT	SEGMENT
___formal$ = 8						; size = 4
__Ptr$ = 12						; size = 4
??$destroy@PAV?$Goal@VRaven_Bot@@@@@?$_Default_allocator_traits@V?$allocator@U?$_List_node@PAV?$Goal@VRaven_Bot@@@@PAX@std@@@std@@@std@@SAXAAV?$allocator@U?$_List_node@PAV?$Goal@VRaven_Bot@@@@PAX@std@@@1@QAPAV?$Goal@VRaven_Bot@@@@@Z PROC ; std::_Default_allocator_traits<std::allocator<std::_List_node<Goal<Raven_Bot> *,void *> > >::destroy<Goal<Raven_Bot> *>, COMDAT

; 886  : 		{	// destroy object at _Ptr

	push	ebp
	mov	ebp, esp

; 887  : 		_Ptr->~_Uty();
; 888  : 		}

	pop	ebp
	ret	0
??$destroy@PAV?$Goal@VRaven_Bot@@@@@?$_Default_allocator_traits@V?$allocator@U?$_List_node@PAV?$Goal@VRaven_Bot@@@@PAX@std@@@std@@@std@@SAXAAV?$allocator@U?$_List_node@PAV?$Goal@VRaven_Bot@@@@PAX@std@@@1@QAPAV?$Goal@VRaven_Bot@@@@@Z ENDP ; std::_Default_allocator_traits<std::allocator<std::_List_node<Goal<Raven_Bot> *,void *> > >::destroy<Goal<Raven_Bot> *>
_TEXT	ENDS
; Function compile flags: /Odtp /RTCsu
; File c:\program files (x86)\microsoft visual studio\2017\community\vc\tools\msvc\14.15.26726\include\xstddef
;	COMDAT ??$addressof@PAV?$Goal@VRaven_Bot@@@@@std@@YAPAPAV?$Goal@VRaven_Bot@@@@AAPAV1@@Z
_TEXT	SEGMENT
__Val$ = 8						; size = 4
??$addressof@PAV?$Goal@VRaven_Bot@@@@@std@@YAPAPAV?$Goal@VRaven_Bot@@@@AAPAV1@@Z PROC ; std::addressof<Goal<Raven_Bot> *>, COMDAT

; 329  : 	{	// return address of _Val

	push	ebp
	mov	ebp, esp

; 330  : 	return (__builtin_addressof(_Val));

	mov	eax, DWORD PTR __Val$[ebp]

; 331  : 	}

	pop	ebp
	ret	0
??$addressof@PAV?$Goal@VRaven_Bot@@@@@std@@YAPAPAV?$Goal@VRaven_Bot@@@@AAPAV1@@Z ENDP ; std::addressof<Goal<Raven_Bot> *>
_TEXT	ENDS
; Function compile flags: /Odtp /RTCsu
; File c:\program files (x86)\microsoft visual studio\2017\community\vc\tools\msvc\14.15.26726\include\xstddef
;	COMDAT ??$addressof@V?$_List_val@U?$_List_simple_types@PAV?$Goal@VRaven_Bot@@@@@std@@@std@@@std@@YAPAV?$_List_val@U?$_List_simple_types@PAV?$Goal@VRaven_Bot@@@@@std@@@0@AAV10@@Z
_TEXT	SEGMENT
__Val$ = 8						; size = 4
??$addressof@V?$_List_val@U?$_List_simple_types@PAV?$Goal@VRaven_Bot@@@@@std@@@std@@@std@@YAPAV?$_List_val@U?$_List_simple_types@PAV?$Goal@VRaven_Bot@@@@@std@@@0@AAV10@@Z PROC ; std::addressof<std::_List_val<std::_List_simple_types<Goal<Raven_Bot> *> > >, COMDAT

; 329  : 	{	// return address of _Val

	push	ebp
	mov	ebp, esp

; 330  : 	return (__builtin_addressof(_Val));

	mov	eax, DWORD PTR __Val$[ebp]

; 331  : 	}

	pop	ebp
	ret	0
??$addressof@V?$_List_val@U?$_List_simple_types@PAV?$Goal@VRaven_Bot@@@@@std@@@std@@@std@@YAPAV?$_List_val@U?$_List_simple_types@PAV?$Goal@VRaven_Bot@@@@@std@@@0@AAV10@@Z ENDP ; std::addressof<std::_List_val<std::_List_simple_types<Goal<Raven_Bot> *> > >
_TEXT	ENDS
; Function compile flags: /Odtp /RTCsu
; File c:\program files (x86)\microsoft visual studio\2017\community\vc\tools\msvc\14.15.26726\include\list
;	COMDAT ??$_Freenode0@V?$allocator@U?$_List_node@PAV?$Goal@VRaven_Bot@@@@PAX@std@@@std@@@?$_List_node@PAV?$Goal@VRaven_Bot@@@@PAX@std@@SAXAAV?$allocator@U?$_List_node@PAV?$Goal@VRaven_Bot@@@@PAX@std@@@1@PAU01@@Z
_TEXT	SEGMENT
__Node_alloc$ = -17					; size = 1
__$EHRec$ = -12						; size = 12
__Al$ = 8						; size = 4
__Ptr$ = 12						; size = 4
??$_Freenode0@V?$allocator@U?$_List_node@PAV?$Goal@VRaven_Bot@@@@PAX@std@@@std@@@?$_List_node@PAV?$Goal@VRaven_Bot@@@@PAX@std@@SAXAAV?$allocator@U?$_List_node@PAV?$Goal@VRaven_Bot@@@@PAX@std@@@1@PAU01@@Z PROC ; std::_List_node<Goal<Raven_Bot> *,void *>::_Freenode0<std::allocator<std::_List_node<Goal<Raven_Bot> *,void *> > >, COMDAT

; 368  : 			{

	push	ebp
	mov	ebp, esp
	push	-1
	push	__ehhandler$??$_Freenode0@V?$allocator@U?$_List_node@PAV?$Goal@VRaven_Bot@@@@PAX@std@@@std@@@?$_List_node@PAV?$Goal@VRaven_Bot@@@@PAX@std@@SAXAAV?$allocator@U?$_List_node@PAV?$Goal@VRaven_Bot@@@@PAX@std@@@1@PAU01@@Z
	mov	eax, DWORD PTR fs:0
	push	eax
	sub	esp, 12					; 0000000cH
	mov	DWORD PTR [ebp-24], -858993460		; ccccccccH
	mov	DWORD PTR [ebp-20], -858993460		; ccccccccH
	mov	DWORD PTR [ebp-16], -858993460		; ccccccccH
	mov	eax, DWORD PTR ___security_cookie
	xor	eax, ebp
	push	eax
	lea	eax, DWORD PTR __$EHRec$[ebp]
	mov	DWORD PTR fs:0, eax

; 369  : 			using _Alnode = _Rebind_alloc_t<_Alloc, _List_node>;
; 370  : 			using _Alnode_traits = allocator_traits<_Alnode>;
; 371  : 			_Alnode _Node_alloc(_Al);
; 372  : 			_Alnode_traits::destroy(_Node_alloc, _STD addressof(_Ptr->_Next));

	mov	eax, DWORD PTR __Ptr$[ebp]
	push	eax
	call	??$addressof@PAU?$_List_node@PAV?$Goal@VRaven_Bot@@@@PAX@std@@@std@@YAPAPAU?$_List_node@PAV?$Goal@VRaven_Bot@@@@PAX@0@AAPAU10@@Z ; std::addressof<std::_List_node<Goal<Raven_Bot> *,void *> *>
	add	esp, 4
	push	eax
	lea	ecx, DWORD PTR __Node_alloc$[ebp]
	push	ecx
	call	??$destroy@PAU?$_List_node@PAV?$Goal@VRaven_Bot@@@@PAX@std@@@?$_Default_allocator_traits@V?$allocator@U?$_List_node@PAV?$Goal@VRaven_Bot@@@@PAX@std@@@std@@@std@@SAXAAV?$allocator@U?$_List_node@PAV?$Goal@VRaven_Bot@@@@PAX@std@@@1@QAPAU?$_List_node@PAV?$Goal@VRaven_Bot@@@@PAX@1@@Z ; std::_Default_allocator_traits<std::allocator<std::_List_node<Goal<Raven_Bot> *,void *> > >::destroy<std::_List_node<Goal<Raven_Bot> *,void *> *>
	add	esp, 8

; 373  : 			_Alnode_traits::destroy(_Node_alloc, _STD addressof(_Ptr->_Prev));

	mov	edx, DWORD PTR __Ptr$[ebp]
	add	edx, 4
	push	edx
	call	??$addressof@PAU?$_List_node@PAV?$Goal@VRaven_Bot@@@@PAX@std@@@std@@YAPAPAU?$_List_node@PAV?$Goal@VRaven_Bot@@@@PAX@0@AAPAU10@@Z ; std::addressof<std::_List_node<Goal<Raven_Bot> *,void *> *>
	add	esp, 4
	push	eax
	lea	eax, DWORD PTR __Node_alloc$[ebp]
	push	eax
	call	??$destroy@PAU?$_List_node@PAV?$Goal@VRaven_Bot@@@@PAX@std@@@?$_Default_allocator_traits@V?$allocator@U?$_List_node@PAV?$Goal@VRaven_Bot@@@@PAX@std@@@std@@@std@@SAXAAV?$allocator@U?$_List_node@PAV?$Goal@VRaven_Bot@@@@PAX@std@@@1@QAPAU?$_List_node@PAV?$Goal@VRaven_Bot@@@@PAX@1@@Z ; std::_Default_allocator_traits<std::allocator<std::_List_node<Goal<Raven_Bot> *,void *> > >::destroy<std::_List_node<Goal<Raven_Bot> *,void *> *>
	add	esp, 8

; 374  : 			_Alnode_traits::deallocate(_Node_alloc, _Ptr, 1);

	push	1
	mov	ecx, DWORD PTR __Ptr$[ebp]
	push	ecx
	lea	edx, DWORD PTR __Node_alloc$[ebp]
	push	edx
	call	?deallocate@?$_Default_allocator_traits@V?$allocator@U?$_List_node@PAV?$Goal@VRaven_Bot@@@@PAX@std@@@std@@@std@@SAXAAV?$allocator@U?$_List_node@PAV?$Goal@VRaven_Bot@@@@PAX@std@@@2@QAU?$_List_node@PAV?$Goal@VRaven_Bot@@@@PAX@2@I@Z ; std::_Default_allocator_traits<std::allocator<std::_List_node<Goal<Raven_Bot> *,void *> > >::deallocate
	add	esp, 12					; 0000000cH

; 375  : 			}

	push	edx
	mov	ecx, ebp
	push	eax
	lea	edx, DWORD PTR $LN6@Freenode0
	call	@_RTC_CheckStackVars@8
	pop	eax
	pop	edx
	mov	ecx, DWORD PTR __$EHRec$[ebp]
	mov	DWORD PTR fs:0, ecx
	pop	ecx
	add	esp, 24					; 00000018H
	cmp	ebp, esp
	call	__RTC_CheckEsp
	mov	esp, ebp
	pop	ebp
	ret	0
	npad	1
$LN6@Freenode0:
	DD	1
	DD	$LN5@Freenode0
$LN5@Freenode0:
	DD	-17					; ffffffefH
	DD	1
	DD	$LN3@Freenode0
$LN3@Freenode0:
	DB	95					; 0000005fH
	DB	78					; 0000004eH
	DB	111					; 0000006fH
	DB	100					; 00000064H
	DB	101					; 00000065H
	DB	95					; 0000005fH
	DB	97					; 00000061H
	DB	108					; 0000006cH
	DB	108					; 0000006cH
	DB	111					; 0000006fH
	DB	99					; 00000063H
	DB	0
_TEXT	ENDS
;	COMDAT text$x
text$x	SEGMENT
__ehhandler$??$_Freenode0@V?$allocator@U?$_List_node@PAV?$Goal@VRaven_Bot@@@@PAX@std@@@std@@@?$_List_node@PAV?$Goal@VRaven_Bot@@@@PAX@std@@SAXAAV?$allocator@U?$_List_node@PAV?$Goal@VRaven_Bot@@@@PAX@std@@@1@PAU01@@Z:
	mov	edx, DWORD PTR [esp+8]
	lea	eax, DWORD PTR [edx+12]
	mov	ecx, DWORD PTR [edx-16]
	xor	ecx, eax
	call	@__security_check_cookie@4
	mov	eax, OFFSET __ehfuncinfo$??$_Freenode0@V?$allocator@U?$_List_node@PAV?$Goal@VRaven_Bot@@@@PAX@std@@@std@@@?$_List_node@PAV?$Goal@VRaven_Bot@@@@PAX@std@@SAXAAV?$allocator@U?$_List_node@PAV?$Goal@VRaven_Bot@@@@PAX@std@@@1@PAU01@@Z
	jmp	___CxxFrameHandler3
text$x	ENDS
??$_Freenode0@V?$allocator@U?$_List_node@PAV?$Goal@VRaven_Bot@@@@PAX@std@@@std@@@?$_List_node@PAV?$Goal@VRaven_Bot@@@@PAX@std@@SAXAAV?$allocator@U?$_List_node@PAV?$Goal@VRaven_Bot@@@@PAX@std@@@1@PAU01@@Z ENDP ; std::_List_node<Goal<Raven_Bot> *,void *>::_Freenode0<std::allocator<std::_List_node<Goal<Raven_Bot> *,void *> > >
; Function compile flags: /Odtp /RTCsu
; File c:\program files (x86)\microsoft visual studio\2017\community\vc\tools\msvc\14.15.26726\include\xmemory0
;	COMDAT ??$?0D@?$allocator@U_Container_proxy@std@@@std@@QAE@ABV?$allocator@D@1@@Z
_TEXT	SEGMENT
_this$ = -4						; size = 4
___formal$ = 8						; size = 4
??$?0D@?$allocator@U_Container_proxy@std@@@std@@QAE@ABV?$allocator@D@1@@Z PROC ; std::allocator<std::_Container_proxy>::allocator<std::_Container_proxy><char>, COMDAT
; _this$ = ecx

; 986  : 		{	// construct from a related allocator (do nothing)

	push	ebp
	mov	ebp, esp
	push	ecx
	mov	DWORD PTR [ebp-4], -858993460		; ccccccccH
	mov	DWORD PTR _this$[ebp], ecx

; 987  : 		}

	mov	eax, DWORD PTR _this$[ebp]
	mov	esp, ebp
	pop	ebp
	ret	4
??$?0D@?$allocator@U_Container_proxy@std@@@std@@QAE@ABV?$allocator@D@1@@Z ENDP ; std::allocator<std::_Container_proxy>::allocator<std::_Container_proxy><char>
_TEXT	ENDS
; Function compile flags: /Odtp /RTCsu
; File c:\program files (x86)\microsoft visual studio\2017\community\vc\tools\msvc\14.15.26726\include\xmemory0
;	COMDAT ??$_Deallocate_plain@V?$allocator@U_Container_proxy@std@@@std@@$0A@@std@@YAXAAV?$allocator@U_Container_proxy@std@@@0@QAU_Container_proxy@0@@Z
_TEXT	SEGMENT
__Al$ = 8						; size = 4
__Ptr$ = 12						; size = 4
??$_Deallocate_plain@V?$allocator@U_Container_proxy@std@@@std@@$0A@@std@@YAXAAV?$allocator@U_Container_proxy@std@@@0@QAU_Container_proxy@0@@Z PROC ; std::_Deallocate_plain<std::allocator<std::_Container_proxy>,0>, COMDAT

; 1212 : 	{	// deallocate a plain pointer using an allocator, non-fancy pointers special case

	push	ebp
	mov	ebp, esp

; 1213 : 	allocator_traits<_Alloc>::deallocate(_Al, _Ptr, 1);

	push	1
	mov	eax, DWORD PTR __Ptr$[ebp]
	push	eax
	mov	ecx, DWORD PTR __Al$[ebp]
	push	ecx
	call	?deallocate@?$_Default_allocator_traits@V?$allocator@U_Container_proxy@std@@@std@@@std@@SAXAAV?$allocator@U_Container_proxy@std@@@2@QAU_Container_proxy@2@I@Z ; std::_Default_allocator_traits<std::allocator<std::_Container_proxy> >::deallocate
	add	esp, 12					; 0000000cH

; 1214 : 	}

	cmp	ebp, esp
	call	__RTC_CheckEsp
	pop	ebp
	ret	0
??$_Deallocate_plain@V?$allocator@U_Container_proxy@std@@@std@@$0A@@std@@YAXAAV?$allocator@U_Container_proxy@std@@@0@QAU_Container_proxy@0@@Z ENDP ; std::_Deallocate_plain<std::allocator<std::_Container_proxy>,0>
_TEXT	ENDS
; Function compile flags: /Odtp /RTCsu
; File c:\program files (x86)\microsoft visual studio\2017\community\vc\tools\msvc\14.15.26726\include\xmemory0
;	COMDAT ??$destroy@U_Container_proxy@std@@@?$_Default_allocator_traits@V?$allocator@U_Container_proxy@std@@@std@@@std@@SAXAAV?$allocator@U_Container_proxy@std@@@1@QAU_Container_proxy@1@@Z
_TEXT	SEGMENT
___formal$ = 8						; size = 4
__Ptr$ = 12						; size = 4
??$destroy@U_Container_proxy@std@@@?$_Default_allocator_traits@V?$allocator@U_Container_proxy@std@@@std@@@std@@SAXAAV?$allocator@U_Container_proxy@std@@@1@QAU_Container_proxy@1@@Z PROC ; std::_Default_allocator_traits<std::allocator<std::_Container_proxy> >::destroy<std::_Container_proxy>, COMDAT

; 886  : 		{	// destroy object at _Ptr

	push	ebp
	mov	ebp, esp

; 887  : 		_Ptr->~_Uty();
; 888  : 		}

	pop	ebp
	ret	0
??$destroy@U_Container_proxy@std@@@?$_Default_allocator_traits@V?$allocator@U_Container_proxy@std@@@std@@@std@@SAXAAV?$allocator@U_Container_proxy@std@@@1@QAU_Container_proxy@1@@Z ENDP ; std::_Default_allocator_traits<std::allocator<std::_Container_proxy> >::destroy<std::_Container_proxy>
_TEXT	ENDS
; Function compile flags: /Odtp /RTCsu
; File c:\program files (x86)\microsoft visual studio\2017\community\vc\tools\msvc\14.15.26726\include\xmemory0
;	COMDAT ?deallocate@?$_Default_allocator_traits@V?$allocator@U_Container_proxy@std@@@std@@@std@@SAXAAV?$allocator@U_Container_proxy@std@@@2@QAU_Container_proxy@2@I@Z
_TEXT	SEGMENT
___formal$ = 8						; size = 4
__Ptr$ = 12						; size = 4
__Count$ = 16						; size = 4
?deallocate@?$_Default_allocator_traits@V?$allocator@U_Container_proxy@std@@@std@@@std@@SAXAAV?$allocator@U_Container_proxy@std@@@2@QAU_Container_proxy@2@I@Z PROC ; std::_Default_allocator_traits<std::allocator<std::_Container_proxy> >::deallocate, COMDAT

; 871  : 		{	// deallocate _Count elements at _Ptr

	push	ebp
	mov	ebp, esp

; 872  : 		// no overflow check on the following multiply; we assume _Allocate did that check
; 873  : 		_Deallocate<_New_alignof<value_type>>(_Ptr, sizeof(value_type) * _Count);

	mov	eax, DWORD PTR __Count$[ebp]
	shl	eax, 3
	push	eax
	mov	ecx, DWORD PTR __Ptr$[ebp]
	push	ecx
	call	??$_Deallocate@$07$0A@@std@@YAXPAXI@Z	; std::_Deallocate<8,0>
	add	esp, 8

; 874  : 		}

	cmp	ebp, esp
	call	__RTC_CheckEsp
	pop	ebp
	ret	0
?deallocate@?$_Default_allocator_traits@V?$allocator@U_Container_proxy@std@@@std@@@std@@SAXAAV?$allocator@U_Container_proxy@std@@@2@QAU_Container_proxy@2@I@Z ENDP ; std::_Default_allocator_traits<std::allocator<std::_Container_proxy> >::deallocate
_TEXT	ENDS
; Function compile flags: /Odtp /RTCsu
; File c:\program files (x86)\microsoft visual studio\2017\community\vc\tools\msvc\14.15.26726\include\xmemory0
;	COMDAT ??$_Deallocate@$07$0A@@std@@YAXPAXI@Z
_TEXT	SEGMENT
__Ptr$ = 8						; size = 4
__Bytes$ = 12						; size = 4
??$_Deallocate@$07$0A@@std@@YAXPAXI@Z PROC		; std::_Deallocate<8,0>, COMDAT

; 199  : 	{	// deallocate storage allocated by _Allocate when !_HAS_ALIGNED_NEW || _Align <= __STDCPP_DEFAULT_NEW_ALIGNMENT__

	push	ebp
	mov	ebp, esp

; 200  :  #if defined(_M_IX86) || defined(_M_X64)
; 201  : 	if (_Bytes >= _Big_allocation_threshold)

	cmp	DWORD PTR __Bytes$[ebp], 4096		; 00001000H
	jb	SHORT $LN2@Deallocate

; 202  : 		{	// boost the alignment of big allocations to help autovectorization
; 203  : 		_Adjust_manually_vector_aligned(_Ptr, _Bytes);

	lea	eax, DWORD PTR __Bytes$[ebp]
	push	eax
	lea	ecx, DWORD PTR __Ptr$[ebp]
	push	ecx
	call	?_Adjust_manually_vector_aligned@std@@YAXAAPAXAAI@Z ; std::_Adjust_manually_vector_aligned
	add	esp, 8
$LN2@Deallocate:

; 204  : 		}
; 205  :  #endif /* defined(_M_IX86) || defined(_M_X64) */
; 206  : 
; 207  : 	::operator delete(_Ptr, _Bytes);

	mov	edx, DWORD PTR __Bytes$[ebp]
	push	edx
	mov	eax, DWORD PTR __Ptr$[ebp]
	push	eax
	call	??3@YAXPAXI@Z				; operator delete
	add	esp, 8

; 208  : 	}

	cmp	ebp, esp
	call	__RTC_CheckEsp
	pop	ebp
	ret	0
??$_Deallocate@$07$0A@@std@@YAXPAXI@Z ENDP		; std::_Deallocate<8,0>
_TEXT	ENDS
; Function compile flags: /Odtp /RTCsu
; File c:\program files (x86)\microsoft visual studio\2017\community\vc\tools\msvc\14.15.26726\include\xmemory0
;	COMDAT ??$destroy@PAD@?$_Default_allocator_traits@V?$allocator@D@std@@@std@@SAXAAV?$allocator@D@1@QAPAD@Z
_TEXT	SEGMENT
___formal$ = 8						; size = 4
__Ptr$ = 12						; size = 4
??$destroy@PAD@?$_Default_allocator_traits@V?$allocator@D@std@@@std@@SAXAAV?$allocator@D@1@QAPAD@Z PROC ; std::_Default_allocator_traits<std::allocator<char> >::destroy<char *>, COMDAT

; 886  : 		{	// destroy object at _Ptr

	push	ebp
	mov	ebp, esp

; 887  : 		_Ptr->~_Uty();
; 888  : 		}

	pop	ebp
	ret	0
??$destroy@PAD@?$_Default_allocator_traits@V?$allocator@D@std@@@std@@SAXAAV?$allocator@D@1@QAPAD@Z ENDP ; std::_Default_allocator_traits<std::allocator<char> >::destroy<char *>
_TEXT	ENDS
; Function compile flags: /Odtp /RTCsu
; File c:\program files (x86)\microsoft visual studio\2017\community\vc\tools\msvc\14.15.26726\include\xstddef
;	COMDAT ??$addressof@PAD@std@@YAPAPADAAPAD@Z
_TEXT	SEGMENT
__Val$ = 8						; size = 4
??$addressof@PAD@std@@YAPAPADAAPAD@Z PROC		; std::addressof<char *>, COMDAT

; 329  : 	{	// return address of _Val

	push	ebp
	mov	ebp, esp

; 330  : 	return (__builtin_addressof(_Val));

	mov	eax, DWORD PTR __Val$[ebp]

; 331  : 	}

	pop	ebp
	ret	0
??$addressof@PAD@std@@YAPAPADAAPAD@Z ENDP		; std::addressof<char *>
_TEXT	ENDS
; Function compile flags: /Odtp /RTCsu
; File c:\program files (x86)\microsoft visual studio\2017\community\vc\tools\msvc\14.15.26726\include\xstddef
;	COMDAT ??$_Unfancy@D@std@@YAPADPAD@Z
_TEXT	SEGMENT
__Ptr$ = 8						; size = 4
??$_Unfancy@D@std@@YAPADPAD@Z PROC			; std::_Unfancy<char>, COMDAT

; 345  : 	{	// do nothing for plain pointers

	push	ebp
	mov	ebp, esp

; 346  : 	return (_Ptr);

	mov	eax, DWORD PTR __Ptr$[ebp]

; 347  : 	}

	pop	ebp
	ret	0
??$_Unfancy@D@std@@YAPADPAD@Z ENDP			; std::_Unfancy<char>
_TEXT	ENDS
; Function compile flags: /Odtp /RTCsu
; File c:\users\utilisateur\documents\gitkraken\8iar125-projetraven\vs2015\common\triggers\trigger.h
;	COMDAT ?isActive@?$Trigger@VRaven_Bot@@@@QAE_NXZ
_TEXT	SEGMENT
_this$ = -4						; size = 4
?isActive@?$Trigger@VRaven_Bot@@@@QAE_NXZ PROC		; Trigger<Raven_Bot>::isActive, COMDAT
; _this$ = ecx

; 80   :   bool isActive(){return m_bActive;}

	push	ebp
	mov	ebp, esp
	push	ecx
	mov	DWORD PTR [ebp-4], -858993460		; ccccccccH
	mov	DWORD PTR _this$[ebp], ecx
	mov	eax, DWORD PTR _this$[ebp]
	mov	al, BYTE PTR [eax+69]
	mov	esp, ebp
	pop	ebp
	ret	0
?isActive@?$Trigger@VRaven_Bot@@@@QAE_NXZ ENDP		; Trigger<Raven_Bot>::isActive
_TEXT	ENDS
; Function compile flags: /Odtp /RTCsu
;	COMDAT ??_GGoal_Wander@@UAEPAXI@Z
_TEXT	SEGMENT
_this$ = -4						; size = 4
___flags$ = 8						; size = 4
??_GGoal_Wander@@UAEPAXI@Z PROC				; Goal_Wander::`scalar deleting destructor', COMDAT
; _this$ = ecx
	push	ebp
	mov	ebp, esp
	push	ecx
	mov	DWORD PTR [ebp-4], -858993460		; ccccccccH
	mov	DWORD PTR _this$[ebp], ecx
	mov	ecx, DWORD PTR _this$[ebp]
	call	??1Goal_Wander@@UAE@XZ
	mov	eax, DWORD PTR ___flags$[ebp]
	and	eax, 1
	je	SHORT $LN2@scalar
	push	16					; 00000010H
	mov	ecx, DWORD PTR _this$[ebp]
	push	ecx
	call	??3@YAXPAXI@Z				; operator delete
	add	esp, 8
$LN2@scalar:
	mov	eax, DWORD PTR _this$[ebp]
	add	esp, 4
	cmp	ebp, esp
	call	__RTC_CheckEsp
	mov	esp, ebp
	pop	ebp
	ret	4
??_GGoal_Wander@@UAEPAXI@Z ENDP				; Goal_Wander::`scalar deleting destructor'
_TEXT	ENDS
; Function compile flags: /Odtp /RTCsu
;	COMDAT ??1Goal_Wander@@UAE@XZ
_TEXT	SEGMENT
_this$ = -4						; size = 4
??1Goal_Wander@@UAE@XZ PROC				; Goal_Wander::~Goal_Wander, COMDAT
; _this$ = ecx
	push	ebp
	mov	ebp, esp
	push	ecx
	mov	DWORD PTR [ebp-4], -858993460		; ccccccccH
	mov	DWORD PTR _this$[ebp], ecx
	mov	ecx, DWORD PTR _this$[ebp]
	call	??1?$Goal@VRaven_Bot@@@@UAE@XZ		; Goal<Raven_Bot>::~Goal<Raven_Bot>
	add	esp, 4
	cmp	ebp, esp
	call	__RTC_CheckEsp
	mov	esp, ebp
	pop	ebp
	ret	0
??1Goal_Wander@@UAE@XZ ENDP				; Goal_Wander::~Goal_Wander
_TEXT	ENDS
; Function compile flags: /Odtp /RTCsu
; File c:\users\utilisateur\documents\gitkraken\8iar125-projetraven\vs2015\buckland_chapter7 to 10_raven\goals\goal_wander.h
;	COMDAT ??0Goal_Wander@@QAE@PAVRaven_Bot@@@Z
_TEXT	SEGMENT
_this$ = -4						; size = 4
_pBot$ = 8						; size = 4
??0Goal_Wander@@QAE@PAVRaven_Bot@@@Z PROC		; Goal_Wander::Goal_Wander, COMDAT
; _this$ = ecx

; 24   :   {}

	push	ebp
	mov	ebp, esp
	push	ecx
	mov	DWORD PTR [ebp-4], -858993460		; ccccccccH
	mov	DWORD PTR _this$[ebp], ecx

; 23   :   Goal_Wander(Raven_Bot* pBot):Goal<Raven_Bot>(pBot,goal_wander)

	push	11					; 0000000bH
	mov	eax, DWORD PTR _pBot$[ebp]
	push	eax
	mov	ecx, DWORD PTR _this$[ebp]
	call	??0?$Goal@VRaven_Bot@@@@QAE@PAVRaven_Bot@@H@Z ; Goal<Raven_Bot>::Goal<Raven_Bot>

; 24   :   {}

	mov	ecx, DWORD PTR _this$[ebp]
	mov	DWORD PTR [ecx], OFFSET ??_7Goal_Wander@@6B@
	mov	eax, DWORD PTR _this$[ebp]
	add	esp, 4
	cmp	ebp, esp
	call	__RTC_CheckEsp
	mov	esp, ebp
	pop	ebp
	ret	4
??0Goal_Wander@@QAE@PAVRaven_Bot@@@Z ENDP		; Goal_Wander::Goal_Wander
_TEXT	ENDS
; Function compile flags: /Odtp /RTCsu
; File c:\users\utilisateur\documents\gitkraken\8iar125-projetraven\vs2015\buckland_chapter7 to 10_raven\goals\goal_getitem.cpp
_TEXT	SEGMENT
tv160 = -44						; size = 4
tv175 = -40						; size = 4
tv74 = -36						; size = 4
$T2 = -32						; size = 4
$T3 = -28						; size = 4
$T4 = -24						; size = 4
_bHandled$ = -17					; size = 1
_this$ = -16						; size = 4
__$EHRec$ = -12						; size = 12
_msg$ = 8						; size = 4
?HandleMessage@Goal_GetItem@@UAE_NABUTelegram@@@Z PROC	; Goal_GetItem::HandleMessage
; _this$ = ecx

; 77   : {

	push	ebp
	mov	ebp, esp
	push	-1
	push	__ehhandler$?HandleMessage@Goal_GetItem@@UAE_NABUTelegram@@@Z
	mov	eax, DWORD PTR fs:0
	push	eax
	sub	esp, 32					; 00000020H
	push	esi
	mov	eax, -858993460				; ccccccccH
	mov	DWORD PTR [ebp-44], eax
	mov	DWORD PTR [ebp-40], eax
	mov	DWORD PTR [ebp-36], eax
	mov	DWORD PTR [ebp-32], eax
	mov	DWORD PTR [ebp-28], eax
	mov	DWORD PTR [ebp-24], eax
	mov	DWORD PTR [ebp-20], eax
	mov	DWORD PTR [ebp-16], eax
	mov	eax, DWORD PTR ___security_cookie
	xor	eax, ebp
	push	eax
	lea	eax, DWORD PTR __$EHRec$[ebp]
	mov	DWORD PTR fs:0, eax
	mov	DWORD PTR _this$[ebp], ecx

; 78   :   //first, pass the message down the goal hierarchy
; 79   :   bool bHandled = ForwardMessageToFrontMostSubgoal(msg);

	mov	eax, DWORD PTR _msg$[ebp]
	push	eax
	mov	ecx, DWORD PTR _this$[ebp]
	call	?ForwardMessageToFrontMostSubgoal@?$Goal_Composite@VRaven_Bot@@@@IAE_NABUTelegram@@@Z ; Goal_Composite<Raven_Bot>::ForwardMessageToFrontMostSubgoal
	mov	BYTE PTR _bHandled$[ebp], al

; 80   : 
; 81   :   //if the msg was not handled, test to see if this goal can handle it
; 82   :   if (bHandled == false)

	movzx	ecx, BYTE PTR _bHandled$[ebp]
	test	ecx, ecx
	jne	$LN4@HandleMess

; 83   :   {
; 84   :     switch(msg.Msg)

	mov	edx, DWORD PTR _msg$[ebp]
	mov	eax, DWORD PTR [edx+8]
	mov	DWORD PTR tv74[ebp], eax
	cmp	DWORD PTR tv74[ebp], 1
	je	SHORT $LN5@HandleMess
	cmp	DWORD PTR tv74[ebp], 2
	je	$LN6@HandleMess
	jmp	$LN7@HandleMess
$LN5@HandleMess:

; 85   :     {
; 86   :     case Msg_PathReady:
; 87   : 
; 88   :       //clear any existing goals
; 89   :       RemoveAllSubgoals();

	mov	ecx, DWORD PTR _this$[ebp]
	call	?RemoveAllSubgoals@?$Goal_Composite@VRaven_Bot@@@@QAEXXZ ; Goal_Composite<Raven_Bot>::RemoveAllSubgoals

; 90   : 
; 91   :       AddSubgoal(new Goal_FollowPath(m_pOwner,

	push	40					; 00000028H
	call	??2@YAPAXI@Z				; operator new
	add	esp, 4
	mov	DWORD PTR $T3[ebp], eax
	mov	DWORD PTR __$EHRec$[ebp+8], 0
	cmp	DWORD PTR $T3[ebp], 0
	je	SHORT $LN9@HandleMess
	sub	esp, 12					; 0000000cH
	mov	ecx, esp
	mov	DWORD PTR $T2[ebp], esp
	push	ecx
	mov	edx, DWORD PTR _this$[ebp]
	mov	ecx, DWORD PTR [edx+8]
	call	?GetPathPlanner@Raven_Bot@@QAEQAVRaven_PathPlanner@@XZ ; Raven_Bot::GetPathPlanner
	mov	ecx, eax
	call	?GetPath@Raven_PathPlanner@@QAE?AV?$list@VPathEdge@@V?$allocator@VPathEdge@@@std@@@std@@XZ ; Raven_PathPlanner::GetPath
	mov	eax, DWORD PTR _this$[ebp]
	mov	ecx, DWORD PTR [eax+8]
	push	ecx
	mov	ecx, DWORD PTR $T3[ebp]
	call	??0Goal_FollowPath@@QAE@PAVRaven_Bot@@V?$list@VPathEdge@@V?$allocator@VPathEdge@@@std@@@std@@@Z ; Goal_FollowPath::Goal_FollowPath
	mov	DWORD PTR tv175[ebp], eax
	mov	edx, DWORD PTR tv175[ebp]
	mov	DWORD PTR tv160[ebp], edx
	jmp	SHORT $LN10@HandleMess
$LN9@HandleMess:
	mov	DWORD PTR tv160[ebp], 0
$LN10@HandleMess:
	mov	eax, DWORD PTR tv160[ebp]
	mov	DWORD PTR $T4[ebp], eax
	mov	DWORD PTR __$EHRec$[ebp+8], -1
	mov	esi, esp
	mov	ecx, DWORD PTR $T4[ebp]
	push	ecx
	mov	edx, DWORD PTR _this$[ebp]
	mov	eax, DWORD PTR [edx]
	mov	ecx, DWORD PTR _this$[ebp]
	mov	edx, DWORD PTR [eax+20]
	call	edx
	cmp	esi, esp
	call	__RTC_CheckEsp

; 92   :                                      m_pOwner->GetPathPlanner()->GetPath()));
; 93   : 
; 94   :       //get the pointer to the item
; 95   :       m_pGiverTrigger = static_cast<Raven_Map::TriggerType*>(msg.ExtraInfo);

	mov	eax, DWORD PTR _this$[ebp]
	mov	ecx, DWORD PTR _msg$[ebp]
	mov	edx, DWORD PTR [ecx+24]
	mov	DWORD PTR [eax+32], edx

; 96   : 
; 97   :       return true; //msg handled

	mov	al, 1
	jmp	SHORT $LN1@HandleMess
$LN6@HandleMess:

; 98   : 
; 99   : 
; 100  :     case Msg_NoPathAvailable:
; 101  : 
; 102  :       m_iStatus = failed;

	mov	eax, DWORD PTR _this$[ebp]
	mov	DWORD PTR [eax+12], 3

; 103  : 
; 104  :       return true; //msg handled

	mov	al, 1
	jmp	SHORT $LN1@HandleMess
$LN7@HandleMess:

; 105  : 
; 106  :     default: return false;

	xor	al, al
	jmp	SHORT $LN1@HandleMess
$LN4@HandleMess:

; 107  :     }
; 108  :   }
; 109  : 
; 110  :   //handled by subgoals
; 111  :   return true;

	mov	al, 1
$LN1@HandleMess:

; 112  : }

	mov	ecx, DWORD PTR __$EHRec$[ebp]
	mov	DWORD PTR fs:0, ecx
	pop	ecx
	pop	esi
	add	esp, 44					; 0000002cH
	cmp	ebp, esp
	call	__RTC_CheckEsp
	mov	esp, ebp
	pop	ebp
	ret	4
_TEXT	ENDS
text$x	SEGMENT
__unwindfunclet$?HandleMessage@Goal_GetItem@@UAE_NABUTelegram@@@Z$0:
	push	40					; 00000028H
	mov	eax, DWORD PTR $T3[ebp]
	push	eax
	call	??3@YAXPAXI@Z				; operator delete
	add	esp, 8
	ret	0
__ehhandler$?HandleMessage@Goal_GetItem@@UAE_NABUTelegram@@@Z:
	mov	edx, DWORD PTR [esp+8]
	lea	eax, DWORD PTR [edx+12]
	mov	ecx, DWORD PTR [edx-40]
	xor	ecx, eax
	call	@__security_check_cookie@4
	mov	eax, OFFSET __ehfuncinfo$?HandleMessage@Goal_GetItem@@UAE_NABUTelegram@@@Z
	jmp	___CxxFrameHandler3
text$x	ENDS
?HandleMessage@Goal_GetItem@@UAE_NABUTelegram@@@Z ENDP	; Goal_GetItem::HandleMessage
; Function compile flags: /Odtp /RTCsu
; File c:\users\utilisateur\documents\gitkraken\8iar125-projetraven\vs2015\buckland_chapter7 to 10_raven\goals\goal_getitem.cpp
_TEXT	SEGMENT
_this$ = -4						; size = 4
?Process@Goal_GetItem@@UAEHXZ PROC			; Goal_GetItem::Process
; _this$ = ecx

; 58   : {

	push	ebp
	mov	ebp, esp
	push	ecx
	push	esi
	mov	DWORD PTR [ebp-4], -858993460		; ccccccccH
	mov	DWORD PTR _this$[ebp], ecx

; 59   :   ActivateIfInactive();

	mov	ecx, DWORD PTR _this$[ebp]
	call	?ActivateIfInactive@?$Goal@VRaven_Bot@@@@IAEXXZ ; Goal<Raven_Bot>::ActivateIfInactive

; 60   : 
; 61   :   if (hasItemBeenStolen())

	mov	ecx, DWORD PTR _this$[ebp]
	call	?hasItemBeenStolen@Goal_GetItem@@ABE_NXZ ; Goal_GetItem::hasItemBeenStolen
	movzx	eax, al
	test	eax, eax
	je	SHORT $LN2@Process

; 62   :   {
; 63   :     Terminate();

	mov	ecx, DWORD PTR _this$[ebp]
	mov	edx, DWORD PTR [ecx]
	mov	esi, esp
	mov	ecx, DWORD PTR _this$[ebp]
	mov	eax, DWORD PTR [edx+12]
	call	eax
	cmp	esi, esp
	call	__RTC_CheckEsp

; 64   :   }
; 65   : 
; 66   :   else

	jmp	SHORT $LN3@Process
$LN2@Process:

; 67   :   {
; 68   :     //process the subgoals
; 69   :     m_iStatus = ProcessSubgoals();

	mov	ecx, DWORD PTR _this$[ebp]
	call	?ProcessSubgoals@?$Goal_Composite@VRaven_Bot@@@@IAEHXZ ; Goal_Composite<Raven_Bot>::ProcessSubgoals
	mov	ecx, DWORD PTR _this$[ebp]
	mov	DWORD PTR [ecx+12], eax
$LN3@Process:

; 70   :   }
; 71   : 
; 72   :   return m_iStatus;

	mov	edx, DWORD PTR _this$[ebp]
	mov	eax, DWORD PTR [edx+12]

; 73   : }

	pop	esi
	add	esp, 4
	cmp	ebp, esp
	call	__RTC_CheckEsp
	mov	esp, ebp
	pop	ebp
	ret	0
?Process@Goal_GetItem@@UAEHXZ ENDP			; Goal_GetItem::Process
_TEXT	ENDS
; Function compile flags: /Odtp /RTCsu
; File c:\users\utilisateur\documents\gitkraken\8iar125-projetraven\vs2015\buckland_chapter7 to 10_raven\goals\goal_getitem.cpp
_TEXT	SEGMENT
tv139 = -28						; size = 4
$T2 = -24						; size = 4
$T3 = -20						; size = 4
_this$ = -16						; size = 4
__$EHRec$ = -12						; size = 12
?Activate@Goal_GetItem@@UAEXXZ PROC			; Goal_GetItem::Activate
; _this$ = ecx

; 41   : {

	push	ebp
	mov	ebp, esp
	push	-1
	push	__ehhandler$?Activate@Goal_GetItem@@UAEXXZ
	mov	eax, DWORD PTR fs:0
	push	eax
	sub	esp, 16					; 00000010H
	push	esi
	mov	eax, -858993460				; ccccccccH
	mov	DWORD PTR [ebp-28], eax
	mov	DWORD PTR [ebp-24], eax
	mov	DWORD PTR [ebp-20], eax
	mov	DWORD PTR [ebp-16], eax
	mov	eax, DWORD PTR ___security_cookie
	xor	eax, ebp
	push	eax
	lea	eax, DWORD PTR __$EHRec$[ebp]
	mov	DWORD PTR fs:0, eax
	mov	DWORD PTR _this$[ebp], ecx

; 42   :   m_iStatus = active;

	mov	eax, DWORD PTR _this$[ebp]
	mov	DWORD PTR [eax+12], 0

; 43   :   
; 44   :   m_pGiverTrigger = 0;

	mov	ecx, DWORD PTR _this$[ebp]
	mov	DWORD PTR [ecx+32], 0

; 45   :   
; 46   :   //request a path to the item
; 47   :   m_pOwner->GetPathPlanner()->RequestPathToItem(m_iItemToGet);

	mov	edx, DWORD PTR _this$[ebp]
	mov	eax, DWORD PTR [edx+28]
	push	eax
	mov	ecx, DWORD PTR _this$[ebp]
	mov	ecx, DWORD PTR [ecx+8]
	call	?GetPathPlanner@Raven_Bot@@QAEQAVRaven_PathPlanner@@XZ ; Raven_Bot::GetPathPlanner
	mov	ecx, eax
	call	?RequestPathToItem@Raven_PathPlanner@@QAE_NI@Z ; Raven_PathPlanner::RequestPathToItem

; 48   : 
; 49   :   //the bot may have to wait a few update cycles before a path is calculated
; 50   :   //so for appearances sake it just wanders
; 51   :   AddSubgoal(new Goal_Wander(m_pOwner));

	push	16					; 00000010H
	call	??2@YAPAXI@Z				; operator new
	add	esp, 4
	mov	DWORD PTR $T2[ebp], eax
	mov	DWORD PTR __$EHRec$[ebp+8], 0
	cmp	DWORD PTR $T2[ebp], 0
	je	SHORT $LN3@Activate
	mov	edx, DWORD PTR _this$[ebp]
	mov	eax, DWORD PTR [edx+8]
	push	eax
	mov	ecx, DWORD PTR $T2[ebp]
	call	??0Goal_Wander@@QAE@PAVRaven_Bot@@@Z	; Goal_Wander::Goal_Wander
	mov	DWORD PTR tv139[ebp], eax
	jmp	SHORT $LN4@Activate
$LN3@Activate:
	mov	DWORD PTR tv139[ebp], 0
$LN4@Activate:
	mov	ecx, DWORD PTR tv139[ebp]
	mov	DWORD PTR $T3[ebp], ecx
	mov	DWORD PTR __$EHRec$[ebp+8], -1
	mov	esi, esp
	mov	edx, DWORD PTR $T3[ebp]
	push	edx
	mov	eax, DWORD PTR _this$[ebp]
	mov	edx, DWORD PTR [eax]
	mov	ecx, DWORD PTR _this$[ebp]
	mov	eax, DWORD PTR [edx+20]
	call	eax
	cmp	esi, esp
	call	__RTC_CheckEsp

; 52   : 
; 53   : }

	mov	ecx, DWORD PTR __$EHRec$[ebp]
	mov	DWORD PTR fs:0, ecx
	pop	ecx
	pop	esi
	add	esp, 28					; 0000001cH
	cmp	ebp, esp
	call	__RTC_CheckEsp
	mov	esp, ebp
	pop	ebp
	ret	0
_TEXT	ENDS
text$x	SEGMENT
__unwindfunclet$?Activate@Goal_GetItem@@UAEXXZ$0:
	push	16					; 00000010H
	mov	eax, DWORD PTR $T2[ebp]
	push	eax
	call	??3@YAXPAXI@Z				; operator delete
	add	esp, 8
	ret	0
__ehhandler$?Activate@Goal_GetItem@@UAEXXZ:
	mov	edx, DWORD PTR [esp+8]
	lea	eax, DWORD PTR [edx+12]
	mov	ecx, DWORD PTR [edx-24]
	xor	ecx, eax
	call	@__security_check_cookie@4
	mov	eax, OFFSET __ehfuncinfo$?Activate@Goal_GetItem@@UAEXXZ
	jmp	___CxxFrameHandler3
text$x	ENDS
?Activate@Goal_GetItem@@UAEXXZ ENDP			; Goal_GetItem::Activate
; Function compile flags: /Odtp /RTCsu
; File c:\users\utilisateur\documents\gitkraken\8iar125-projetraven\vs2015\buckland_chapter7 to 10_raven\goals\goal_getitem.cpp
_TEXT	SEGMENT
$T1 = -20						; size = 16
_this$ = -4						; size = 4
?hasItemBeenStolen@Goal_GetItem@@ABE_NXZ PROC		; Goal_GetItem::hasItemBeenStolen
; _this$ = ecx

; 120  : {

	push	ebp
	mov	ebp, esp
	sub	esp, 20					; 00000014H
	mov	eax, -858993460				; ccccccccH
	mov	DWORD PTR [ebp-20], eax
	mov	DWORD PTR [ebp-16], eax
	mov	DWORD PTR [ebp-12], eax
	mov	DWORD PTR [ebp-8], eax
	mov	DWORD PTR [ebp-4], eax
	mov	DWORD PTR _this$[ebp], ecx

; 121  :   if (m_pGiverTrigger &&
; 122  :       !m_pGiverTrigger->isActive() &&

	mov	eax, DWORD PTR _this$[ebp]
	cmp	DWORD PTR [eax+32], 0
	je	SHORT $LN2@hasItemBee
	mov	ecx, DWORD PTR _this$[ebp]
	mov	ecx, DWORD PTR [ecx+32]
	call	?isActive@?$Trigger@VRaven_Bot@@@@QAE_NXZ ; Trigger<Raven_Bot>::isActive
	movzx	edx, al
	test	edx, edx
	jne	SHORT $LN2@hasItemBee
	lea	eax, DWORD PTR $T1[ebp]
	push	eax
	mov	ecx, DWORD PTR _this$[ebp]
	mov	ecx, DWORD PTR [ecx+32]
	call	?Pos@BaseGameEntity@@QBE?AUVector2D@@XZ	; BaseGameEntity::Pos
	sub	esp, 16					; 00000010H
	mov	edx, esp
	mov	ecx, DWORD PTR [eax]
	mov	DWORD PTR [edx], ecx
	mov	ecx, DWORD PTR [eax+4]
	mov	DWORD PTR [edx+4], ecx
	mov	ecx, DWORD PTR [eax+8]
	mov	DWORD PTR [edx+8], ecx
	mov	eax, DWORD PTR [eax+12]
	mov	DWORD PTR [edx+12], eax
	mov	ecx, DWORD PTR _this$[ebp]
	mov	ecx, DWORD PTR [ecx+8]
	call	?hasLOSto@Raven_Bot@@QBE_NUVector2D@@@Z	; Raven_Bot::hasLOSto
	movzx	edx, al
	test	edx, edx
	je	SHORT $LN2@hasItemBee

; 123  :       m_pOwner->hasLOSto(m_pGiverTrigger->Pos()) )
; 124  :   {
; 125  :     return true;

	mov	al, 1
	jmp	SHORT $LN1@hasItemBee
$LN2@hasItemBee:

; 126  :   }
; 127  : 
; 128  :   return false;

	xor	al, al
$LN1@hasItemBee:

; 129  : }

	add	esp, 20					; 00000014H
	cmp	ebp, esp
	call	__RTC_CheckEsp
	mov	esp, ebp
	pop	ebp
	ret	0
?hasItemBeenStolen@Goal_GetItem@@ABE_NXZ ENDP		; Goal_GetItem::hasItemBeenStolen
_TEXT	ENDS
; Function compile flags: /Odtp /RTCsu
; File c:\users\utilisateur\documents\gitkraken\8iar125-projetraven\vs2015\common\goals\goal_composite.h
;	COMDAT ?RemoveAllSubgoals@?$Goal_Composite@VRaven_Bot@@@@QAEXXZ
_TEXT	SEGMENT
tv136 = -76						; size = 4
tv93 = -72						; size = 4
tv141 = -68						; size = 4
tv66 = -64						; size = 4
$T2 = -60						; size = 4
$T3 = -56						; size = 4
$T4 = -52						; size = 12
$T5 = -37						; size = 1
_it$6 = -32						; size = 12
_this$ = -16						; size = 4
__$EHRec$ = -12						; size = 12
?RemoveAllSubgoals@?$Goal_Composite@VRaven_Bot@@@@QAEXXZ PROC ; Goal_Composite<Raven_Bot>::RemoveAllSubgoals, COMDAT
; _this$ = ecx

; 79   : {

	push	ebp
	mov	ebp, esp
	push	-1
	push	__ehhandler$?RemoveAllSubgoals@?$Goal_Composite@VRaven_Bot@@@@QAEXXZ
	mov	eax, DWORD PTR fs:0
	push	eax
	sub	esp, 64					; 00000040H
	push	esi
	push	edi
	push	ecx
	lea	edi, DWORD PTR [ebp-76]
	mov	ecx, 16					; 00000010H
	mov	eax, -858993460				; ccccccccH
	rep stosd
	pop	ecx
	mov	eax, DWORD PTR ___security_cookie
	xor	eax, ebp
	push	eax
	lea	eax, DWORD PTR __$EHRec$[ebp]
	mov	DWORD PTR fs:0, eax
	mov	DWORD PTR _this$[ebp], ecx

; 80   :   for (SubgoalList::iterator it = m_SubGoals.begin();

	lea	eax, DWORD PTR _it$6[ebp]
	push	eax
	mov	ecx, DWORD PTR _this$[ebp]
	add	ecx, 16					; 00000010H
	call	?begin@?$list@PAV?$Goal@VRaven_Bot@@@@V?$allocator@PAV?$Goal@VRaven_Bot@@@@@std@@@std@@QAE?AV?$_List_iterator@V?$_List_val@U?$_List_simple_types@PAV?$Goal@VRaven_Bot@@@@@std@@@std@@@2@XZ ; std::list<Goal<Raven_Bot> *,std::allocator<Goal<Raven_Bot> *> >::begin
	mov	DWORD PTR __$EHRec$[ebp+8], 0
	jmp	SHORT $LN4@RemoveAllS
$LN2@RemoveAllS:

; 82   :        ++it)

	lea	ecx, DWORD PTR _it$6[ebp]
	call	??E?$_List_iterator@V?$_List_val@U?$_List_simple_types@PAV?$Goal@VRaven_Bot@@@@@std@@@std@@@std@@QAEAAV01@XZ ; std::_List_iterator<std::_List_val<std::_List_simple_types<Goal<Raven_Bot> *> > >::operator++
$LN4@RemoveAllS:

; 81   :        it != m_SubGoals.end();

	lea	ecx, DWORD PTR $T4[ebp]
	push	ecx
	mov	ecx, DWORD PTR _this$[ebp]
	add	ecx, 16					; 00000010H
	call	?end@?$list@PAV?$Goal@VRaven_Bot@@@@V?$allocator@PAV?$Goal@VRaven_Bot@@@@@std@@@std@@QAE?AV?$_List_iterator@V?$_List_val@U?$_List_simple_types@PAV?$Goal@VRaven_Bot@@@@@std@@@std@@@2@XZ ; std::list<Goal<Raven_Bot> *,std::allocator<Goal<Raven_Bot> *> >::end
	mov	DWORD PTR tv66[ebp], eax
	mov	edx, DWORD PTR tv66[ebp]
	mov	DWORD PTR tv141[ebp], edx
	mov	BYTE PTR __$EHRec$[ebp+8], 1
	mov	eax, DWORD PTR tv141[ebp]
	push	eax
	lea	ecx, DWORD PTR _it$6[ebp]
	call	??9?$_List_const_iterator@V?$_List_val@U?$_List_simple_types@PAV?$Goal@VRaven_Bot@@@@@std@@@std@@@std@@QBE_NABV01@@Z ; std::_List_const_iterator<std::_List_val<std::_List_simple_types<Goal<Raven_Bot> *> > >::operator!=
	mov	BYTE PTR $T5[ebp], al
	mov	BYTE PTR __$EHRec$[ebp+8], 0
	lea	ecx, DWORD PTR $T4[ebp]
	call	??1?$_List_iterator@V?$_List_val@U?$_List_simple_types@PAV?$Goal@VRaven_Bot@@@@@std@@@std@@@std@@QAE@XZ
	movzx	ecx, BYTE PTR $T5[ebp]
	test	ecx, ecx
	je	SHORT $LN3@RemoveAllS

; 83   :   {  
; 84   :     (*it)->Terminate();

	lea	ecx, DWORD PTR _it$6[ebp]
	call	??D?$_List_iterator@V?$_List_val@U?$_List_simple_types@PAV?$Goal@VRaven_Bot@@@@@std@@@std@@@std@@QBEAAPAV?$Goal@VRaven_Bot@@@@XZ ; std::_List_iterator<std::_List_val<std::_List_simple_types<Goal<Raven_Bot> *> > >::operator*
	mov	edx, DWORD PTR [eax]
	mov	DWORD PTR tv93[ebp], edx
	mov	eax, DWORD PTR tv93[ebp]
	mov	edx, DWORD PTR [eax]
	mov	esi, esp
	mov	ecx, DWORD PTR tv93[ebp]
	mov	eax, DWORD PTR [edx+12]
	call	eax
	cmp	esi, esp
	call	__RTC_CheckEsp

; 85   :     
; 86   :     delete *it;

	lea	ecx, DWORD PTR _it$6[ebp]
	call	??D?$_List_iterator@V?$_List_val@U?$_List_simple_types@PAV?$Goal@VRaven_Bot@@@@@std@@@std@@@std@@QBEAAPAV?$Goal@VRaven_Bot@@@@XZ ; std::_List_iterator<std::_List_val<std::_List_simple_types<Goal<Raven_Bot> *> > >::operator*
	mov	ecx, DWORD PTR [eax]
	mov	DWORD PTR $T2[ebp], ecx
	mov	edx, DWORD PTR $T2[ebp]
	mov	DWORD PTR $T3[ebp], edx
	cmp	DWORD PTR $T3[ebp], 0
	je	SHORT $LN6@RemoveAllS
	mov	esi, esp
	push	1
	mov	eax, DWORD PTR $T3[ebp]
	mov	edx, DWORD PTR [eax]
	mov	ecx, DWORD PTR $T3[ebp]
	mov	eax, DWORD PTR [edx]
	call	eax
	cmp	esi, esp
	call	__RTC_CheckEsp
	mov	DWORD PTR tv136[ebp], eax
	jmp	SHORT $LN7@RemoveAllS
$LN6@RemoveAllS:
	mov	DWORD PTR tv136[ebp], 0
$LN7@RemoveAllS:

; 87   :   }

	jmp	$LN2@RemoveAllS
$LN3@RemoveAllS:
	mov	DWORD PTR __$EHRec$[ebp+8], -1
	lea	ecx, DWORD PTR _it$6[ebp]
	call	??1?$_List_iterator@V?$_List_val@U?$_List_simple_types@PAV?$Goal@VRaven_Bot@@@@@std@@@std@@@std@@QAE@XZ

; 88   : 
; 89   :   m_SubGoals.clear();

	mov	ecx, DWORD PTR _this$[ebp]
	add	ecx, 16					; 00000010H
	call	?clear@?$list@PAV?$Goal@VRaven_Bot@@@@V?$allocator@PAV?$Goal@VRaven_Bot@@@@@std@@@std@@QAEXXZ ; std::list<Goal<Raven_Bot> *,std::allocator<Goal<Raven_Bot> *> >::clear

; 90   : }

	push	edx
	mov	ecx, ebp
	push	eax
	lea	edx, DWORD PTR $LN13@RemoveAllS
	call	@_RTC_CheckStackVars@8
	pop	eax
	pop	edx
	mov	ecx, DWORD PTR __$EHRec$[ebp]
	mov	DWORD PTR fs:0, ecx
	pop	ecx
	pop	edi
	pop	esi
	add	esp, 76					; 0000004cH
	cmp	ebp, esp
	call	__RTC_CheckEsp
	mov	esp, ebp
	pop	ebp
	ret	0
$LN13@RemoveAllS:
	DD	1
	DD	$LN12@RemoveAllS
$LN12@RemoveAllS:
	DD	-32					; ffffffe0H
	DD	12					; 0000000cH
	DD	$LN10@RemoveAllS
$LN10@RemoveAllS:
	DB	105					; 00000069H
	DB	116					; 00000074H
	DB	0
_TEXT	ENDS
;	COMDAT text$x
text$x	SEGMENT
__unwindfunclet$?RemoveAllSubgoals@?$Goal_Composite@VRaven_Bot@@@@QAEXXZ$0:
	lea	ecx, DWORD PTR _it$6[ebp]
	jmp	??1?$_List_iterator@V?$_List_val@U?$_List_simple_types@PAV?$Goal@VRaven_Bot@@@@@std@@@std@@@std@@QAE@XZ
__unwindfunclet$?RemoveAllSubgoals@?$Goal_Composite@VRaven_Bot@@@@QAEXXZ$1:
	lea	ecx, DWORD PTR $T4[ebp]
	jmp	??1?$_List_iterator@V?$_List_val@U?$_List_simple_types@PAV?$Goal@VRaven_Bot@@@@@std@@@std@@@std@@QAE@XZ
__ehhandler$?RemoveAllSubgoals@?$Goal_Composite@VRaven_Bot@@@@QAEXXZ:
	mov	edx, DWORD PTR [esp+8]
	lea	eax, DWORD PTR [edx+12]
	mov	ecx, DWORD PTR [edx-76]
	xor	ecx, eax
	call	@__security_check_cookie@4
	mov	eax, OFFSET __ehfuncinfo$?RemoveAllSubgoals@?$Goal_Composite@VRaven_Bot@@@@QAEXXZ
	jmp	___CxxFrameHandler3
text$x	ENDS
?RemoveAllSubgoals@?$Goal_Composite@VRaven_Bot@@@@QAEXXZ ENDP ; Goal_Composite<Raven_Bot>::RemoveAllSubgoals
; Function compile flags: /Odtp /RTCsu
; File c:\users\utilisateur\documents\gitkraken\8iar125-projetraven\vs2015\common\goals\goal_composite.h
;	COMDAT ?ForwardMessageToFrontMostSubgoal@?$Goal_Composite@VRaven_Bot@@@@IAE_NABUTelegram@@@Z
_TEXT	SEGMENT
tv74 = -8						; size = 4
_this$ = -4						; size = 4
_msg$ = 8						; size = 4
?ForwardMessageToFrontMostSubgoal@?$Goal_Composite@VRaven_Bot@@@@IAE_NABUTelegram@@@Z PROC ; Goal_Composite<Raven_Bot>::ForwardMessageToFrontMostSubgoal, COMDAT
; _this$ = ecx

; 151  : {

	push	ebp
	mov	ebp, esp
	sub	esp, 8
	push	esi
	mov	DWORD PTR [ebp-8], -858993460		; ccccccccH
	mov	DWORD PTR [ebp-4], -858993460		; ccccccccH
	mov	DWORD PTR _this$[ebp], ecx

; 152  :   if (!m_SubGoals.empty())

	mov	ecx, DWORD PTR _this$[ebp]
	add	ecx, 16					; 00000010H
	call	?empty@?$list@PAV?$Goal@VRaven_Bot@@@@V?$allocator@PAV?$Goal@VRaven_Bot@@@@@std@@@std@@QBE_NXZ ; std::list<Goal<Raven_Bot> *,std::allocator<Goal<Raven_Bot> *> >::empty
	movzx	eax, al
	test	eax, eax
	jne	SHORT $LN2@ForwardMes

; 153  :   {
; 154  :     return m_SubGoals.front()->HandleMessage(msg);

	mov	ecx, DWORD PTR _this$[ebp]
	add	ecx, 16					; 00000010H
	call	?front@?$list@PAV?$Goal@VRaven_Bot@@@@V?$allocator@PAV?$Goal@VRaven_Bot@@@@@std@@@std@@QAEAAPAV?$Goal@VRaven_Bot@@@@XZ ; std::list<Goal<Raven_Bot> *,std::allocator<Goal<Raven_Bot> *> >::front
	mov	ecx, DWORD PTR [eax]
	mov	DWORD PTR tv74[ebp], ecx
	mov	esi, esp
	mov	edx, DWORD PTR _msg$[ebp]
	push	edx
	mov	eax, DWORD PTR tv74[ebp]
	mov	edx, DWORD PTR [eax]
	mov	ecx, DWORD PTR tv74[ebp]
	mov	eax, DWORD PTR [edx+16]
	call	eax
	cmp	esi, esp
	call	__RTC_CheckEsp
	jmp	SHORT $LN1@ForwardMes
$LN2@ForwardMes:

; 155  :   }
; 156  : 
; 157  :   //return false if the message has not been handled
; 158  :   return false;

	xor	al, al
$LN1@ForwardMes:

; 159  : }

	pop	esi
	add	esp, 8
	cmp	ebp, esp
	call	__RTC_CheckEsp
	mov	esp, ebp
	pop	ebp
	ret	4
?ForwardMessageToFrontMostSubgoal@?$Goal_Composite@VRaven_Bot@@@@IAE_NABUTelegram@@@Z ENDP ; Goal_Composite<Raven_Bot>::ForwardMessageToFrontMostSubgoal
_TEXT	ENDS
; Function compile flags: /Odtp /RTCsu
; File c:\users\utilisateur\documents\gitkraken\8iar125-projetraven\vs2015\common\goals\goal_composite.h
;	COMDAT ?ProcessSubgoals@?$Goal_Composite@VRaven_Bot@@@@IAEHXZ
_TEXT	SEGMENT
tv145 = -28						; size = 4
tv132 = -24						; size = 4
tv88 = -20						; size = 4
$T1 = -16						; size = 4
$T2 = -12						; size = 4
_StatusOfSubGoals$3 = -8				; size = 4
_this$ = -4						; size = 4
?ProcessSubgoals@?$Goal_Composite@VRaven_Bot@@@@IAEHXZ PROC ; Goal_Composite<Raven_Bot>::ProcessSubgoals, COMDAT
; _this$ = ecx

; 100  : { 

	push	ebp
	mov	ebp, esp
	sub	esp, 28					; 0000001cH
	push	esi
	mov	eax, -858993460				; ccccccccH
	mov	DWORD PTR [ebp-28], eax
	mov	DWORD PTR [ebp-24], eax
	mov	DWORD PTR [ebp-20], eax
	mov	DWORD PTR [ebp-16], eax
	mov	DWORD PTR [ebp-12], eax
	mov	DWORD PTR [ebp-8], eax
	mov	DWORD PTR [ebp-4], eax
	mov	DWORD PTR _this$[ebp], ecx
$LN2@ProcessSub:

; 101  :   //remove all completed and failed goals from the front of the subgoal list
; 102  :   while (!m_SubGoals.empty() &&

	mov	ecx, DWORD PTR _this$[ebp]
	add	ecx, 16					; 00000010H
	call	?empty@?$list@PAV?$Goal@VRaven_Bot@@@@V?$allocator@PAV?$Goal@VRaven_Bot@@@@@std@@@std@@QBE_NXZ ; std::list<Goal<Raven_Bot> *,std::allocator<Goal<Raven_Bot> *> >::empty
	movzx	eax, al
	test	eax, eax
	jne	$LN3@ProcessSub
	mov	ecx, DWORD PTR _this$[ebp]
	add	ecx, 16					; 00000010H
	call	?front@?$list@PAV?$Goal@VRaven_Bot@@@@V?$allocator@PAV?$Goal@VRaven_Bot@@@@@std@@@std@@QAEAAPAV?$Goal@VRaven_Bot@@@@XZ ; std::list<Goal<Raven_Bot> *,std::allocator<Goal<Raven_Bot> *> >::front
	mov	ecx, DWORD PTR [eax]
	call	?isComplete@?$Goal@VRaven_Bot@@@@QBE_NXZ ; Goal<Raven_Bot>::isComplete
	movzx	ecx, al
	test	ecx, ecx
	jne	SHORT $LN4@ProcessSub
	mov	ecx, DWORD PTR _this$[ebp]
	add	ecx, 16					; 00000010H
	call	?front@?$list@PAV?$Goal@VRaven_Bot@@@@V?$allocator@PAV?$Goal@VRaven_Bot@@@@@std@@@std@@QAEAAPAV?$Goal@VRaven_Bot@@@@XZ ; std::list<Goal<Raven_Bot> *,std::allocator<Goal<Raven_Bot> *> >::front
	mov	ecx, DWORD PTR [eax]
	call	?hasFailed@?$Goal@VRaven_Bot@@@@QBE_NXZ	; Goal<Raven_Bot>::hasFailed
	movzx	edx, al
	test	edx, edx
	je	SHORT $LN3@ProcessSub
$LN4@ProcessSub:

; 103  :          (m_SubGoals.front()->isComplete() || m_SubGoals.front()->hasFailed()))
; 104  :   {    
; 105  :     m_SubGoals.front()->Terminate();

	mov	ecx, DWORD PTR _this$[ebp]
	add	ecx, 16					; 00000010H
	call	?front@?$list@PAV?$Goal@VRaven_Bot@@@@V?$allocator@PAV?$Goal@VRaven_Bot@@@@@std@@@std@@QAEAAPAV?$Goal@VRaven_Bot@@@@XZ ; std::list<Goal<Raven_Bot> *,std::allocator<Goal<Raven_Bot> *> >::front
	mov	eax, DWORD PTR [eax]
	mov	DWORD PTR tv88[ebp], eax
	mov	ecx, DWORD PTR tv88[ebp]
	mov	edx, DWORD PTR [ecx]
	mov	esi, esp
	mov	ecx, DWORD PTR tv88[ebp]
	mov	eax, DWORD PTR [edx+12]
	call	eax
	cmp	esi, esp
	call	__RTC_CheckEsp

; 106  :     delete m_SubGoals.front(); 

	mov	ecx, DWORD PTR _this$[ebp]
	add	ecx, 16					; 00000010H
	call	?front@?$list@PAV?$Goal@VRaven_Bot@@@@V?$allocator@PAV?$Goal@VRaven_Bot@@@@@std@@@std@@QAEAAPAV?$Goal@VRaven_Bot@@@@XZ ; std::list<Goal<Raven_Bot> *,std::allocator<Goal<Raven_Bot> *> >::front
	mov	ecx, DWORD PTR [eax]
	mov	DWORD PTR $T1[ebp], ecx
	mov	edx, DWORD PTR $T1[ebp]
	mov	DWORD PTR $T2[ebp], edx
	cmp	DWORD PTR $T2[ebp], 0
	je	SHORT $LN9@ProcessSub
	mov	esi, esp
	push	1
	mov	eax, DWORD PTR $T2[ebp]
	mov	edx, DWORD PTR [eax]
	mov	ecx, DWORD PTR $T2[ebp]
	mov	eax, DWORD PTR [edx]
	call	eax
	cmp	esi, esp
	call	__RTC_CheckEsp
	mov	DWORD PTR tv132[ebp], eax
	jmp	SHORT $LN10@ProcessSub
$LN9@ProcessSub:
	mov	DWORD PTR tv132[ebp], 0
$LN10@ProcessSub:

; 107  :     m_SubGoals.pop_front();

	mov	ecx, DWORD PTR _this$[ebp]
	add	ecx, 16					; 00000010H
	call	?pop_front@?$list@PAV?$Goal@VRaven_Bot@@@@V?$allocator@PAV?$Goal@VRaven_Bot@@@@@std@@@std@@QAEXXZ ; std::list<Goal<Raven_Bot> *,std::allocator<Goal<Raven_Bot> *> >::pop_front

; 108  :   }

	jmp	$LN2@ProcessSub
$LN3@ProcessSub:

; 109  : 
; 110  :   //if any subgoals remain, process the one at the front of the list
; 111  :   if (!m_SubGoals.empty())

	mov	ecx, DWORD PTR _this$[ebp]
	add	ecx, 16					; 00000010H
	call	?empty@?$list@PAV?$Goal@VRaven_Bot@@@@V?$allocator@PAV?$Goal@VRaven_Bot@@@@@std@@@std@@QBE_NXZ ; std::list<Goal<Raven_Bot> *,std::allocator<Goal<Raven_Bot> *> >::empty
	movzx	ecx, al
	test	ecx, ecx
	jne	SHORT $LN5@ProcessSub

; 112  :   { 
; 113  :     //grab the status of the front-most subgoal
; 114  :     int StatusOfSubGoals = m_SubGoals.front()->Process();

	mov	ecx, DWORD PTR _this$[ebp]
	add	ecx, 16					; 00000010H
	call	?front@?$list@PAV?$Goal@VRaven_Bot@@@@V?$allocator@PAV?$Goal@VRaven_Bot@@@@@std@@@std@@QAEAAPAV?$Goal@VRaven_Bot@@@@XZ ; std::list<Goal<Raven_Bot> *,std::allocator<Goal<Raven_Bot> *> >::front
	mov	edx, DWORD PTR [eax]
	mov	DWORD PTR tv145[ebp], edx
	mov	eax, DWORD PTR tv145[ebp]
	mov	edx, DWORD PTR [eax]
	mov	esi, esp
	mov	ecx, DWORD PTR tv145[ebp]
	mov	eax, DWORD PTR [edx+8]
	call	eax
	cmp	esi, esp
	call	__RTC_CheckEsp
	mov	DWORD PTR _StatusOfSubGoals$3[ebp], eax

; 115  : 
; 116  :     //we have to test for the special case where the front-most subgoal
; 117  :     //reports 'completed' *and* the subgoal list contains additional goals.When
; 118  :     //this is the case, to ensure the parent keeps processing its subgoal list
; 119  :     //we must return the 'active' status.
; 120  :     if (StatusOfSubGoals == completed && m_SubGoals.size() > 1)

	cmp	DWORD PTR _StatusOfSubGoals$3[ebp], 2
	jne	SHORT $LN7@ProcessSub
	mov	ecx, DWORD PTR _this$[ebp]
	add	ecx, 16					; 00000010H
	call	?size@?$list@PAV?$Goal@VRaven_Bot@@@@V?$allocator@PAV?$Goal@VRaven_Bot@@@@@std@@@std@@QBEIXZ ; std::list<Goal<Raven_Bot> *,std::allocator<Goal<Raven_Bot> *> >::size
	cmp	eax, 1
	jbe	SHORT $LN7@ProcessSub

; 121  :     {
; 122  :       return active;

	xor	eax, eax
	jmp	SHORT $LN1@ProcessSub
$LN7@ProcessSub:

; 123  :     }
; 124  : 
; 125  :     return StatusOfSubGoals;

	mov	eax, DWORD PTR _StatusOfSubGoals$3[ebp]
	jmp	SHORT $LN1@ProcessSub

; 126  :   }
; 127  :   
; 128  :   //no more subgoals to process - return 'completed'
; 129  :   else

	jmp	SHORT $LN1@ProcessSub
$LN5@ProcessSub:

; 130  :   {
; 131  :     return completed;

	mov	eax, 2
$LN1@ProcessSub:

; 132  :   }
; 133  : }

	pop	esi
	add	esp, 28					; 0000001cH
	cmp	ebp, esp
	call	__RTC_CheckEsp
	mov	esp, ebp
	pop	ebp
	ret	0
?ProcessSubgoals@?$Goal_Composite@VRaven_Bot@@@@IAEHXZ ENDP ; Goal_Composite<Raven_Bot>::ProcessSubgoals
_TEXT	ENDS
; Function compile flags: /Odtp /RTCsu
; File c:\program files (x86)\microsoft visual studio\2017\community\vc\tools\msvc\14.15.26726\include\list
;	COMDAT ?_Orphan_ptr@?$list@PAV?$Goal@VRaven_Bot@@@@V?$allocator@PAV?$Goal@VRaven_Bot@@@@@std@@@std@@QAEXPAU?$_List_node@PAV?$Goal@VRaven_Bot@@@@PAX@2@@Z
_TEXT	SEGMENT
__Pnext$ = -32						; size = 4
__Lock$ = -24						; size = 4
_this$ = -16						; size = 4
__$EHRec$ = -12						; size = 12
__Ptr$ = 8						; size = 4
?_Orphan_ptr@?$list@PAV?$Goal@VRaven_Bot@@@@V?$allocator@PAV?$Goal@VRaven_Bot@@@@@std@@@std@@QAEXPAU?$_List_node@PAV?$Goal@VRaven_Bot@@@@PAX@2@@Z PROC ; std::list<Goal<Raven_Bot> *,std::allocator<Goal<Raven_Bot> *> >::_Orphan_ptr, COMDAT
; _this$ = ecx

; 1804 : 		{	// orphan iterators with specified node pointers

	push	ebp
	mov	ebp, esp
	push	-1
	push	__ehhandler$?_Orphan_ptr@?$list@PAV?$Goal@VRaven_Bot@@@@V?$allocator@PAV?$Goal@VRaven_Bot@@@@@std@@@std@@QAEXPAU?$_List_node@PAV?$Goal@VRaven_Bot@@@@PAX@2@@Z
	mov	eax, DWORD PTR fs:0
	push	eax
	sub	esp, 20					; 00000014H
	push	esi
	mov	eax, -858993460				; ccccccccH
	mov	DWORD PTR [ebp-32], eax
	mov	DWORD PTR [ebp-28], eax
	mov	DWORD PTR [ebp-24], eax
	mov	DWORD PTR [ebp-20], eax
	mov	DWORD PTR [ebp-16], eax
	mov	eax, DWORD PTR ___security_cookie
	xor	eax, ebp
	push	eax
	lea	eax, DWORD PTR __$EHRec$[ebp]
	mov	DWORD PTR fs:0, eax
	mov	DWORD PTR _this$[ebp], ecx

; 1805 : 		_Lockit _Lock(_LOCK_DEBUG);

	push	3
	lea	ecx, DWORD PTR __Lock$[ebp]
	call	??0_Lockit@std@@QAE@H@Z			; std::_Lockit::_Lockit
	mov	DWORD PTR __$EHRec$[ebp+8], 0

; 1806 : 		const_iterator **_Pnext = (const_iterator **)this->_Getpfirst();

	mov	ecx, DWORD PTR _this$[ebp]
	call	?_Getpfirst@?$_List_alloc@U?$_List_base_types@PAV?$Goal@VRaven_Bot@@@@V?$allocator@PAV?$Goal@VRaven_Bot@@@@@std@@@std@@@std@@QBEPAPAU_Iterator_base12@2@XZ ; std::_List_alloc<std::_List_base_types<Goal<Raven_Bot> *,std::allocator<Goal<Raven_Bot> *> > >::_Getpfirst
	mov	DWORD PTR __Pnext$[ebp], eax

; 1807 : 		if (_Pnext != nullptr)

	cmp	DWORD PTR __Pnext$[ebp], 0
	je	SHORT $LN4@Orphan_ptr
$LN2@Orphan_ptr:

; 1808 : 			while (*_Pnext != nullptr)

	mov	eax, DWORD PTR __Pnext$[ebp]
	cmp	DWORD PTR [eax], 0
	je	SHORT $LN4@Orphan_ptr

; 1809 : 				{	// test an iterator
; 1810 : 				if ((*_Pnext)->_Ptr == this->_Myhead()
; 1811 : 					|| (_Ptr != nullptr && (*_Pnext)->_Ptr != _Ptr))

	mov	ecx, DWORD PTR __Pnext$[ebp]
	mov	esi, DWORD PTR [ecx]
	mov	ecx, DWORD PTR _this$[ebp]
	call	?_Myhead@?$_List_alloc@U?$_List_base_types@PAV?$Goal@VRaven_Bot@@@@V?$allocator@PAV?$Goal@VRaven_Bot@@@@@std@@@std@@@std@@QAEAAPAU?$_List_node@PAV?$Goal@VRaven_Bot@@@@PAX@2@XZ ; std::_List_alloc<std::_List_base_types<Goal<Raven_Bot> *,std::allocator<Goal<Raven_Bot> *> > >::_Myhead
	mov	edx, DWORD PTR [esi+8]
	cmp	edx, DWORD PTR [eax]
	je	SHORT $LN7@Orphan_ptr
	cmp	DWORD PTR __Ptr$[ebp], 0
	je	SHORT $LN5@Orphan_ptr
	mov	eax, DWORD PTR __Pnext$[ebp]
	mov	ecx, DWORD PTR [eax]
	mov	edx, DWORD PTR [ecx+8]
	cmp	edx, DWORD PTR __Ptr$[ebp]
	je	SHORT $LN5@Orphan_ptr
$LN7@Orphan_ptr:

; 1812 : 					_Pnext = (const_iterator **)(*_Pnext)->_Getpnext();

	mov	eax, DWORD PTR __Pnext$[ebp]
	mov	ecx, DWORD PTR [eax]
	call	?_Getpnext@_Iterator_base12@std@@QAEPAPAU12@XZ ; std::_Iterator_base12::_Getpnext
	mov	DWORD PTR __Pnext$[ebp], eax

; 1813 : 				else

	jmp	SHORT $LN6@Orphan_ptr
$LN5@Orphan_ptr:

; 1814 : 					{	// orphan the iterator
; 1815 : 					(*_Pnext)->_Clrcont();

	mov	ecx, DWORD PTR __Pnext$[ebp]
	mov	ecx, DWORD PTR [ecx]
	call	?_Clrcont@_Iterator_base12@std@@QAEXXZ	; std::_Iterator_base12::_Clrcont

; 1816 : 					*_Pnext = *(const_iterator **)(*_Pnext)->_Getpnext();

	mov	edx, DWORD PTR __Pnext$[ebp]
	mov	ecx, DWORD PTR [edx]
	call	?_Getpnext@_Iterator_base12@std@@QAEPAPAU12@XZ ; std::_Iterator_base12::_Getpnext
	mov	ecx, DWORD PTR __Pnext$[ebp]
	mov	edx, DWORD PTR [eax]
	mov	DWORD PTR [ecx], edx
$LN6@Orphan_ptr:

; 1817 : 					}
; 1818 : 				}

	jmp	SHORT $LN2@Orphan_ptr
$LN4@Orphan_ptr:

; 1819 : 		}

	mov	DWORD PTR __$EHRec$[ebp+8], -1
	lea	ecx, DWORD PTR __Lock$[ebp]
	call	??1_Lockit@std@@QAE@XZ			; std::_Lockit::~_Lockit
	push	edx
	mov	ecx, ebp
	push	eax
	lea	edx, DWORD PTR $LN13@Orphan_ptr
	call	@_RTC_CheckStackVars@8
	pop	eax
	pop	edx
	mov	ecx, DWORD PTR __$EHRec$[ebp]
	mov	DWORD PTR fs:0, ecx
	pop	ecx
	pop	esi
	add	esp, 32					; 00000020H
	cmp	ebp, esp
	call	__RTC_CheckEsp
	mov	esp, ebp
	pop	ebp
	ret	4
	npad	2
$LN13@Orphan_ptr:
	DD	1
	DD	$LN12@Orphan_ptr
$LN12@Orphan_ptr:
	DD	-24					; ffffffe8H
	DD	4
	DD	$LN10@Orphan_ptr
$LN10@Orphan_ptr:
	DB	95					; 0000005fH
	DB	76					; 0000004cH
	DB	111					; 0000006fH
	DB	99					; 00000063H
	DB	107					; 0000006bH
	DB	0
_TEXT	ENDS
;	COMDAT text$x
text$x	SEGMENT
__unwindfunclet$?_Orphan_ptr@?$list@PAV?$Goal@VRaven_Bot@@@@V?$allocator@PAV?$Goal@VRaven_Bot@@@@@std@@@std@@QAEXPAU?$_List_node@PAV?$Goal@VRaven_Bot@@@@PAX@2@@Z$0:
	lea	ecx, DWORD PTR __Lock$[ebp]
	jmp	??1_Lockit@std@@QAE@XZ			; std::_Lockit::~_Lockit
__ehhandler$?_Orphan_ptr@?$list@PAV?$Goal@VRaven_Bot@@@@V?$allocator@PAV?$Goal@VRaven_Bot@@@@@std@@@std@@QAEXPAU?$_List_node@PAV?$Goal@VRaven_Bot@@@@PAX@2@@Z:
	mov	edx, DWORD PTR [esp+8]
	lea	eax, DWORD PTR [edx+12]
	mov	ecx, DWORD PTR [edx-28]
	xor	ecx, eax
	call	@__security_check_cookie@4
	mov	eax, OFFSET __ehfuncinfo$?_Orphan_ptr@?$list@PAV?$Goal@VRaven_Bot@@@@V?$allocator@PAV?$Goal@VRaven_Bot@@@@@std@@@std@@QAEXPAU?$_List_node@PAV?$Goal@VRaven_Bot@@@@PAX@2@@Z
	jmp	___CxxFrameHandler3
text$x	ENDS
?_Orphan_ptr@?$list@PAV?$Goal@VRaven_Bot@@@@V?$allocator@PAV?$Goal@VRaven_Bot@@@@@std@@@std@@QAEXPAU?$_List_node@PAV?$Goal@VRaven_Bot@@@@PAX@2@@Z ENDP ; std::list<Goal<Raven_Bot> *,std::allocator<Goal<Raven_Bot> *> >::_Orphan_ptr
; Function compile flags: /Odtp /RTCsu
; File c:\program files (x86)\microsoft visual studio\2017\community\vc\tools\msvc\14.15.26726\include\list
;	COMDAT ?clear@?$list@PAV?$Goal@VRaven_Bot@@@@V?$allocator@PAV?$Goal@VRaven_Bot@@@@@std@@@std@@QAEXXZ
_TEXT	SEGMENT
__Pnext$2 = -24						; size = 4
__Pnode$ = -20						; size = 4
_this$ = -16						; size = 4
__$EHRec$ = -12						; size = 12
?clear@?$list@PAV?$Goal@VRaven_Bot@@@@V?$allocator@PAV?$Goal@VRaven_Bot@@@@@std@@@std@@QAEXXZ PROC ; std::list<Goal<Raven_Bot> *,std::allocator<Goal<Raven_Bot> *> >::clear, COMDAT
; _this$ = ecx

; 1381 : 		{	// erase all

	push	ebp
	mov	ebp, esp
	push	-1
	push	__ehhandler$?clear@?$list@PAV?$Goal@VRaven_Bot@@@@V?$allocator@PAV?$Goal@VRaven_Bot@@@@@std@@@std@@QAEXXZ
	mov	eax, DWORD PTR fs:0
	push	eax
	sub	esp, 12					; 0000000cH
	push	esi
	mov	DWORD PTR [ebp-24], -858993460		; ccccccccH
	mov	DWORD PTR [ebp-20], -858993460		; ccccccccH
	mov	DWORD PTR [ebp-16], -858993460		; ccccccccH
	mov	eax, DWORD PTR ___security_cookie
	xor	eax, ebp
	push	eax
	lea	eax, DWORD PTR __$EHRec$[ebp]
	mov	DWORD PTR fs:0, eax
	mov	DWORD PTR _this$[ebp], ecx

; 1382 :  #if _ITERATOR_DEBUG_LEVEL == 2
; 1383 : 		this->_Orphan_ptr(nullptr);

	push	0
	mov	ecx, DWORD PTR _this$[ebp]
	call	?_Orphan_ptr@?$list@PAV?$Goal@VRaven_Bot@@@@V?$allocator@PAV?$Goal@VRaven_Bot@@@@@std@@@std@@QAEXPAU?$_List_node@PAV?$Goal@VRaven_Bot@@@@PAX@2@@Z ; std::list<Goal<Raven_Bot> *,std::allocator<Goal<Raven_Bot> *> >::_Orphan_ptr

; 1384 :  #endif /* _ITERATOR_DEBUG_LEVEL == 2 */
; 1385 : 		_Nodeptr _Pnode = this->_Myhead()->_Next;

	mov	ecx, DWORD PTR _this$[ebp]
	call	?_Myhead@?$_List_alloc@U?$_List_base_types@PAV?$Goal@VRaven_Bot@@@@V?$allocator@PAV?$Goal@VRaven_Bot@@@@@std@@@std@@@std@@QAEAAPAU?$_List_node@PAV?$Goal@VRaven_Bot@@@@PAX@2@XZ ; std::_List_alloc<std::_List_base_types<Goal<Raven_Bot> *,std::allocator<Goal<Raven_Bot> *> > >::_Myhead
	mov	eax, DWORD PTR [eax]
	mov	ecx, DWORD PTR [eax]
	mov	DWORD PTR __Pnode$[ebp], ecx

; 1386 : 		this->_Myhead()->_Next = this->_Myhead();

	mov	ecx, DWORD PTR _this$[ebp]
	call	?_Myhead@?$_List_alloc@U?$_List_base_types@PAV?$Goal@VRaven_Bot@@@@V?$allocator@PAV?$Goal@VRaven_Bot@@@@@std@@@std@@@std@@QAEAAPAU?$_List_node@PAV?$Goal@VRaven_Bot@@@@PAX@2@XZ ; std::_List_alloc<std::_List_base_types<Goal<Raven_Bot> *,std::allocator<Goal<Raven_Bot> *> > >::_Myhead
	mov	esi, eax
	mov	ecx, DWORD PTR _this$[ebp]
	call	?_Myhead@?$_List_alloc@U?$_List_base_types@PAV?$Goal@VRaven_Bot@@@@V?$allocator@PAV?$Goal@VRaven_Bot@@@@@std@@@std@@@std@@QAEAAPAU?$_List_node@PAV?$Goal@VRaven_Bot@@@@PAX@2@XZ ; std::_List_alloc<std::_List_base_types<Goal<Raven_Bot> *,std::allocator<Goal<Raven_Bot> *> > >::_Myhead
	mov	edx, DWORD PTR [eax]
	mov	eax, DWORD PTR [esi]
	mov	DWORD PTR [edx], eax

; 1387 : 		this->_Myhead()->_Prev = this->_Myhead();

	mov	ecx, DWORD PTR _this$[ebp]
	call	?_Myhead@?$_List_alloc@U?$_List_base_types@PAV?$Goal@VRaven_Bot@@@@V?$allocator@PAV?$Goal@VRaven_Bot@@@@@std@@@std@@@std@@QAEAAPAU?$_List_node@PAV?$Goal@VRaven_Bot@@@@PAX@2@XZ ; std::_List_alloc<std::_List_base_types<Goal<Raven_Bot> *,std::allocator<Goal<Raven_Bot> *> > >::_Myhead
	mov	esi, eax
	mov	ecx, DWORD PTR _this$[ebp]
	call	?_Myhead@?$_List_alloc@U?$_List_base_types@PAV?$Goal@VRaven_Bot@@@@V?$allocator@PAV?$Goal@VRaven_Bot@@@@@std@@@std@@@std@@QAEAAPAU?$_List_node@PAV?$Goal@VRaven_Bot@@@@PAX@2@XZ ; std::_List_alloc<std::_List_base_types<Goal<Raven_Bot> *,std::allocator<Goal<Raven_Bot> *> > >::_Myhead
	mov	ecx, DWORD PTR [eax]
	mov	edx, DWORD PTR [esi]
	mov	DWORD PTR [ecx+4], edx

; 1388 : 		this->_Mysize() = 0;

	mov	ecx, DWORD PTR _this$[ebp]
	call	?_Mysize@?$_List_alloc@U?$_List_base_types@PAV?$Goal@VRaven_Bot@@@@V?$allocator@PAV?$Goal@VRaven_Bot@@@@@std@@@std@@@std@@QAEAAIXZ ; std::_List_alloc<std::_List_base_types<Goal<Raven_Bot> *,std::allocator<Goal<Raven_Bot> *> > >::_Mysize
	mov	DWORD PTR [eax], 0

; 1389 : 
; 1390 : 		for (_Nodeptr _Pnext; _Pnode != this->_Myhead(); _Pnode = _Pnext)

	jmp	SHORT $LN4@clear
$LN2@clear:
	mov	eax, DWORD PTR __Pnext$2[ebp]
	mov	DWORD PTR __Pnode$[ebp], eax
$LN4@clear:
	mov	ecx, DWORD PTR _this$[ebp]
	call	?_Myhead@?$_List_alloc@U?$_List_base_types@PAV?$Goal@VRaven_Bot@@@@V?$allocator@PAV?$Goal@VRaven_Bot@@@@@std@@@std@@@std@@QAEAAPAU?$_List_node@PAV?$Goal@VRaven_Bot@@@@PAX@2@XZ ; std::_List_alloc<std::_List_base_types<Goal<Raven_Bot> *,std::allocator<Goal<Raven_Bot> *> > >::_Myhead
	mov	ecx, DWORD PTR __Pnode$[ebp]
	cmp	ecx, DWORD PTR [eax]
	je	SHORT $LN5@clear

; 1391 : 			{	// delete an element
; 1392 : 			_Pnext = _Pnode->_Next;

	mov	edx, DWORD PTR __Pnode$[ebp]
	mov	eax, DWORD PTR [edx]
	mov	DWORD PTR __Pnext$2[ebp], eax

; 1393 : 			this->_Freenode(_Pnode);

	mov	ecx, DWORD PTR __Pnode$[ebp]
	push	ecx
	mov	ecx, DWORD PTR _this$[ebp]
	call	?_Freenode@?$_List_buy@PAV?$Goal@VRaven_Bot@@@@V?$allocator@PAV?$Goal@VRaven_Bot@@@@@std@@@std@@QAEXPAU?$_List_node@PAV?$Goal@VRaven_Bot@@@@PAX@2@@Z ; std::_List_buy<Goal<Raven_Bot> *,std::allocator<Goal<Raven_Bot> *> >::_Freenode

; 1394 : 			}

	jmp	SHORT $LN2@clear
$LN5@clear:

; 1395 : 		}

	mov	ecx, DWORD PTR __$EHRec$[ebp]
	mov	DWORD PTR fs:0, ecx
	pop	ecx
	pop	esi
	add	esp, 24					; 00000018H
	cmp	ebp, esp
	call	__RTC_CheckEsp
	mov	esp, ebp
	pop	ebp
	ret	0
_TEXT	ENDS
;	COMDAT text$x
text$x	SEGMENT
__ehhandler$?clear@?$list@PAV?$Goal@VRaven_Bot@@@@V?$allocator@PAV?$Goal@VRaven_Bot@@@@@std@@@std@@QAEXXZ:
	mov	edx, DWORD PTR [esp+8]
	lea	eax, DWORD PTR [edx+12]
	mov	ecx, DWORD PTR [edx-20]
	xor	ecx, eax
	call	@__security_check_cookie@4
	mov	eax, OFFSET __ehfuncinfo$?clear@?$list@PAV?$Goal@VRaven_Bot@@@@V?$allocator@PAV?$Goal@VRaven_Bot@@@@@std@@@std@@QAEXXZ
	jmp	___CxxFrameHandler3
text$x	ENDS
?clear@?$list@PAV?$Goal@VRaven_Bot@@@@V?$allocator@PAV?$Goal@VRaven_Bot@@@@@std@@@std@@QAEXXZ ENDP ; std::list<Goal<Raven_Bot> *,std::allocator<Goal<Raven_Bot> *> >::clear
; Function compile flags: /Odtp /RTCsu
; File c:\program files (x86)\microsoft visual studio\2017\community\vc\tools\msvc\14.15.26726\include\list
;	COMDAT ?erase@?$list@PAV?$Goal@VRaven_Bot@@@@V?$allocator@PAV?$Goal@VRaven_Bot@@@@@std@@@std@@QAE?AV?$_List_iterator@V?$_List_val@U?$_List_simple_types@PAV?$Goal@VRaven_Bot@@@@@std@@@std@@@2@V?$_List_const_iterator@V?$_List_val@U?$_List_simple_types@PAV?$Goal@VRaven_Bot@@@@@std@@@std@@@2@@Z
_TEXT	SEGMENT
tv144 = -40						; size = 4
tv141 = -36						; size = 4
$T2 = -32						; size = 4
$T3 = -28						; size = 4
$T4 = -24						; size = 4
__Pnode$ = -20						; size = 4
_this$ = -16						; size = 4
__$EHRec$ = -12						; size = 12
___$ReturnUdt$ = 8					; size = 4
__Where$ = 12						; size = 12
?erase@?$list@PAV?$Goal@VRaven_Bot@@@@V?$allocator@PAV?$Goal@VRaven_Bot@@@@@std@@@std@@QAE?AV?$_List_iterator@V?$_List_val@U?$_List_simple_types@PAV?$Goal@VRaven_Bot@@@@@std@@@std@@@2@V?$_List_const_iterator@V?$_List_val@U?$_List_simple_types@PAV?$Goal@VRaven_Bot@@@@@std@@@std@@@2@@Z PROC ; std::list<Goal<Raven_Bot> *,std::allocator<Goal<Raven_Bot> *> >::erase, COMDAT
; _this$ = ecx

; 1349 : 		{	// erase element at _Where

	push	ebp
	mov	ebp, esp
	push	-1
	push	__ehhandler$?erase@?$list@PAV?$Goal@VRaven_Bot@@@@V?$allocator@PAV?$Goal@VRaven_Bot@@@@@std@@@std@@QAE?AV?$_List_iterator@V?$_List_val@U?$_List_simple_types@PAV?$Goal@VRaven_Bot@@@@@std@@@std@@@2@V?$_List_const_iterator@V?$_List_val@U?$_List_simple_types@PAV?$Goal@VRaven_Bot@@@@@std@@@std@@@2@@Z
	mov	eax, DWORD PTR fs:0
	push	eax
	sub	esp, 28					; 0000001cH
	mov	eax, -858993460				; ccccccccH
	mov	DWORD PTR [ebp-40], eax
	mov	DWORD PTR [ebp-36], eax
	mov	DWORD PTR [ebp-32], eax
	mov	DWORD PTR [ebp-28], eax
	mov	DWORD PTR [ebp-24], eax
	mov	DWORD PTR [ebp-20], eax
	mov	DWORD PTR [ebp-16], eax
	mov	eax, DWORD PTR ___security_cookie
	xor	eax, ebp
	push	eax
	lea	eax, DWORD PTR __$EHRec$[ebp]
	mov	DWORD PTR fs:0, eax
	mov	DWORD PTR _this$[ebp], ecx
	mov	DWORD PTR $T2[ebp], 0
	mov	DWORD PTR __$EHRec$[ebp+8], 0

; 1350 : 		_Nodeptr _Pnode = _Unlinknode(_Where++);

	sub	esp, 12					; 0000000cH
	mov	eax, esp
	mov	DWORD PTR $T4[ebp], esp
	push	0
	push	eax
	lea	ecx, DWORD PTR __Where$[ebp]
	call	??E?$_List_const_iterator@V?$_List_val@U?$_List_simple_types@PAV?$Goal@VRaven_Bot@@@@@std@@@std@@@std@@QAE?AV01@H@Z ; std::_List_const_iterator<std::_List_val<std::_List_simple_types<Goal<Raven_Bot> *> > >::operator++
	mov	ecx, DWORD PTR _this$[ebp]
	call	?_Unlinknode@?$list@PAV?$Goal@VRaven_Bot@@@@V?$allocator@PAV?$Goal@VRaven_Bot@@@@@std@@@std@@QAEPAU?$_List_node@PAV?$Goal@VRaven_Bot@@@@PAX@2@V?$_List_const_iterator@V?$_List_val@U?$_List_simple_types@PAV?$Goal@VRaven_Bot@@@@@std@@@std@@@2@@Z ; std::list<Goal<Raven_Bot> *,std::allocator<Goal<Raven_Bot> *> >::_Unlinknode
	mov	DWORD PTR tv141[ebp], eax
	mov	ecx, DWORD PTR tv141[ebp]
	mov	DWORD PTR __Pnode$[ebp], ecx

; 1351 : 		this->_Freenode(_Pnode);

	mov	edx, DWORD PTR __Pnode$[ebp]
	push	edx
	mov	ecx, DWORD PTR _this$[ebp]
	call	?_Freenode@?$_List_buy@PAV?$Goal@VRaven_Bot@@@@V?$allocator@PAV?$Goal@VRaven_Bot@@@@@std@@@std@@QAEXPAU?$_List_node@PAV?$Goal@VRaven_Bot@@@@PAX@2@@Z ; std::_List_buy<Goal<Raven_Bot> *,std::allocator<Goal<Raven_Bot> *> >::_Freenode

; 1352 : 		return (_Make_iter(_Where));

	sub	esp, 12					; 0000000cH
	mov	ecx, esp
	mov	DWORD PTR $T3[ebp], esp
	lea	eax, DWORD PTR __Where$[ebp]
	push	eax
	call	??0?$_List_const_iterator@V?$_List_val@U?$_List_simple_types@PAV?$Goal@VRaven_Bot@@@@@std@@@std@@@std@@QAE@ABV01@@Z
	mov	ecx, DWORD PTR ___$ReturnUdt$[ebp]
	push	ecx
	mov	ecx, DWORD PTR _this$[ebp]
	call	?_Make_iter@?$list@PAV?$Goal@VRaven_Bot@@@@V?$allocator@PAV?$Goal@VRaven_Bot@@@@@std@@@std@@QBE?AV?$_List_iterator@V?$_List_val@U?$_List_simple_types@PAV?$Goal@VRaven_Bot@@@@@std@@@std@@@2@V?$_List_const_iterator@V?$_List_val@U?$_List_simple_types@PAV?$Goal@VRaven_Bot@@@@@std@@@std@@@2@@Z ; std::list<Goal<Raven_Bot> *,std::allocator<Goal<Raven_Bot> *> >::_Make_iter
	mov	DWORD PTR tv144[ebp], eax
	mov	edx, DWORD PTR $T2[ebp]
	or	edx, 1
	mov	DWORD PTR $T2[ebp], edx
	mov	DWORD PTR __$EHRec$[ebp+8], -1
	lea	ecx, DWORD PTR __Where$[ebp]
	call	??1?$_List_const_iterator@V?$_List_val@U?$_List_simple_types@PAV?$Goal@VRaven_Bot@@@@@std@@@std@@@std@@QAE@XZ
	mov	eax, DWORD PTR ___$ReturnUdt$[ebp]

; 1353 : 		}

	mov	ecx, DWORD PTR __$EHRec$[ebp]
	mov	DWORD PTR fs:0, ecx
	pop	ecx
	add	esp, 40					; 00000028H
	cmp	ebp, esp
	call	__RTC_CheckEsp
	mov	esp, ebp
	pop	ebp
	ret	16					; 00000010H
_TEXT	ENDS
;	COMDAT text$x
text$x	SEGMENT
__unwindfunclet$?erase@?$list@PAV?$Goal@VRaven_Bot@@@@V?$allocator@PAV?$Goal@VRaven_Bot@@@@@std@@@std@@QAE?AV?$_List_iterator@V?$_List_val@U?$_List_simple_types@PAV?$Goal@VRaven_Bot@@@@@std@@@std@@@2@V?$_List_const_iterator@V?$_List_val@U?$_List_simple_types@PAV?$Goal@VRaven_Bot@@@@@std@@@std@@@2@@Z$0:
	lea	ecx, DWORD PTR __Where$[ebp]
	jmp	??1?$_List_const_iterator@V?$_List_val@U?$_List_simple_types@PAV?$Goal@VRaven_Bot@@@@@std@@@std@@@std@@QAE@XZ
__ehhandler$?erase@?$list@PAV?$Goal@VRaven_Bot@@@@V?$allocator@PAV?$Goal@VRaven_Bot@@@@@std@@@std@@QAE?AV?$_List_iterator@V?$_List_val@U?$_List_simple_types@PAV?$Goal@VRaven_Bot@@@@@std@@@std@@@2@V?$_List_const_iterator@V?$_List_val@U?$_List_simple_types@PAV?$Goal@VRaven_Bot@@@@@std@@@std@@@2@@Z:
	mov	edx, DWORD PTR [esp+8]
	lea	eax, DWORD PTR [edx+12]
	mov	ecx, DWORD PTR [edx-32]
	xor	ecx, eax
	call	@__security_check_cookie@4
	mov	eax, OFFSET __ehfuncinfo$?erase@?$list@PAV?$Goal@VRaven_Bot@@@@V?$allocator@PAV?$Goal@VRaven_Bot@@@@@std@@@std@@QAE?AV?$_List_iterator@V?$_List_val@U?$_List_simple_types@PAV?$Goal@VRaven_Bot@@@@@std@@@std@@@2@V?$_List_const_iterator@V?$_List_val@U?$_List_simple_types@PAV?$Goal@VRaven_Bot@@@@@std@@@std@@@2@@Z
	jmp	___CxxFrameHandler3
text$x	ENDS
?erase@?$list@PAV?$Goal@VRaven_Bot@@@@V?$allocator@PAV?$Goal@VRaven_Bot@@@@@std@@@std@@QAE?AV?$_List_iterator@V?$_List_val@U?$_List_simple_types@PAV?$Goal@VRaven_Bot@@@@@std@@@std@@@2@V?$_List_const_iterator@V?$_List_val@U?$_List_simple_types@PAV?$Goal@VRaven_Bot@@@@@std@@@std@@@2@@Z ENDP ; std::list<Goal<Raven_Bot> *,std::allocator<Goal<Raven_Bot> *> >::erase
; Function compile flags: /Odtp /RTCsu
; File c:\program files (x86)\microsoft visual studio\2017\community\vc\tools\msvc\14.15.26726\include\list
;	COMDAT ?_Unlinknode@?$list@PAV?$Goal@VRaven_Bot@@@@V?$allocator@PAV?$Goal@VRaven_Bot@@@@@std@@@std@@QAEPAU?$_List_node@PAV?$Goal@VRaven_Bot@@@@PAX@2@V?$_List_const_iterator@V?$_List_val@U?$_List_simple_types@PAV?$Goal@VRaven_Bot@@@@@std@@@std@@@2@@Z
_TEXT	SEGMENT
tv151 = -28						; size = 4
$T2 = -24						; size = 4
__Pnode$ = -20						; size = 4
_this$ = -16						; size = 4
__$EHRec$ = -12						; size = 12
__Where$ = 8						; size = 12
?_Unlinknode@?$list@PAV?$Goal@VRaven_Bot@@@@V?$allocator@PAV?$Goal@VRaven_Bot@@@@@std@@@std@@QAEPAU?$_List_node@PAV?$Goal@VRaven_Bot@@@@PAX@2@V?$_List_const_iterator@V?$_List_val@U?$_List_simple_types@PAV?$Goal@VRaven_Bot@@@@@std@@@std@@@2@@Z PROC ; std::list<Goal<Raven_Bot> *,std::allocator<Goal<Raven_Bot> *> >::_Unlinknode, COMDAT
; _this$ = ecx

; 1322 : 		{	// unlink node at _Where from the list

	push	ebp
	mov	ebp, esp
	push	-1
	push	__ehhandler$?_Unlinknode@?$list@PAV?$Goal@VRaven_Bot@@@@V?$allocator@PAV?$Goal@VRaven_Bot@@@@@std@@@std@@QAEPAU?$_List_node@PAV?$Goal@VRaven_Bot@@@@PAX@2@V?$_List_const_iterator@V?$_List_val@U?$_List_simple_types@PAV?$Goal@VRaven_Bot@@@@@std@@@std@@@2@@Z
	mov	eax, DWORD PTR fs:0
	push	eax
	sub	esp, 16					; 00000010H
	push	esi
	mov	eax, -858993460				; ccccccccH
	mov	DWORD PTR [ebp-28], eax
	mov	DWORD PTR [ebp-24], eax
	mov	DWORD PTR [ebp-20], eax
	mov	DWORD PTR [ebp-16], eax
	mov	eax, DWORD PTR ___security_cookie
	xor	eax, ebp
	push	eax
	lea	eax, DWORD PTR __$EHRec$[ebp]
	mov	DWORD PTR fs:0, eax
	mov	DWORD PTR _this$[ebp], ecx
	mov	DWORD PTR __$EHRec$[ebp+8], 0
$LN4@Unlinknode:

; 1323 :  #if _ITERATOR_DEBUG_LEVEL == 2
; 1324 : 		_STL_VERIFY(_Where._Getcont() == _STD addressof(this->_Get_data()), "list erase iterator outside range");

	lea	ecx, DWORD PTR __Where$[ebp]
	call	?_Getcont@_Iterator_base12@std@@QBEPBU_Container_base12@2@XZ ; std::_Iterator_base12::_Getcont
	mov	esi, eax
	mov	ecx, DWORD PTR _this$[ebp]
	call	?_Get_data@?$_List_alloc@U?$_List_base_types@PAV?$Goal@VRaven_Bot@@@@V?$allocator@PAV?$Goal@VRaven_Bot@@@@@std@@@std@@@std@@QAEAAV?$_List_val@U?$_List_simple_types@PAV?$Goal@VRaven_Bot@@@@@std@@@2@XZ ; std::_List_alloc<std::_List_base_types<Goal<Raven_Bot> *,std::allocator<Goal<Raven_Bot> *> > >::_Get_data
	push	eax
	call	??$addressof@V?$_List_val@U?$_List_simple_types@PAV?$Goal@VRaven_Bot@@@@@std@@@std@@@std@@YAPAV?$_List_val@U?$_List_simple_types@PAV?$Goal@VRaven_Bot@@@@@std@@@0@AAV10@@Z ; std::addressof<std::_List_val<std::_List_simple_types<Goal<Raven_Bot> *> > >
	add	esp, 4
	cmp	esi, eax
	jne	SHORT $LN7@Unlinknode
	jmp	SHORT $LN2@Unlinknode
$LN7@Unlinknode:
	push	OFFSET ??_C@_0CC@KEJJOMBH@list?5erase?5iterator?5outside?5ran@
	push	OFFSET ??_C@_02DKCKIIND@?$CFs@
	push	0
	push	1324					; 0000052cH
	push	OFFSET ??_C@_0GF@CDIONFB@c?3?2program?5files?5?$CIx86?$CJ?2microsof@
	push	2
	call	__CrtDbgReport
	add	esp, 24					; 00000018H
	cmp	eax, 1
	jne	SHORT $LN11@Unlinknode
	int	3
$LN11@Unlinknode:
	push	0
	push	1324					; 0000052cH
	push	OFFSET ??_C@_1MK@MDLCPFJD@?$AAc?$AA?3?$AA?2?$AAp?$AAr?$AAo?$AAg?$AAr?$AAa?$AAm?$AA?5?$AAf?$AAi?$AAl?$AAe@
	push	OFFSET ??_C@_1NG@CFOJKHE@?$AAs?$AAt?$AAd?$AA?3?$AA?3?$AAl?$AAi?$AAs?$AAt?$AA?$DM?$AAc?$AAl?$AAa?$AAs?$AAs@
	push	OFFSET ??_C@_1EI@FHIDKIBN@?$AA?$CC?$AAl?$AAi?$AAs?$AAt?$AA?5?$AAe?$AAr?$AAa?$AAs?$AAe?$AA?5?$AAi?$AAt?$AAe@
	call	__invalid_parameter
	add	esp, 20					; 00000014H
	xor	ecx, ecx
	jne	SHORT $LN7@Unlinknode
$LN2@Unlinknode:
	xor	edx, edx
	jne	SHORT $LN4@Unlinknode

; 1325 : 		_Nodeptr _Pnode = _Where._Ptr;

	mov	eax, DWORD PTR __Where$[ebp+8]
	mov	DWORD PTR __Pnode$[ebp], eax

; 1326 : 		_Orphan_ptr(_Pnode);

	mov	ecx, DWORD PTR __Pnode$[ebp]
	push	ecx
	mov	ecx, DWORD PTR _this$[ebp]
	call	?_Orphan_ptr@?$list@PAV?$Goal@VRaven_Bot@@@@V?$allocator@PAV?$Goal@VRaven_Bot@@@@@std@@@std@@QAEXPAU?$_List_node@PAV?$Goal@VRaven_Bot@@@@PAX@2@@Z ; std::list<Goal<Raven_Bot> *,std::allocator<Goal<Raven_Bot> *> >::_Orphan_ptr

; 1327 :  #else /* _ITERATOR_DEBUG_LEVEL == 2 */
; 1328 : 		_Nodeptr _Pnode = _Where._Ptr;
; 1329 :  #endif /* _ITERATOR_DEBUG_LEVEL == 2 */
; 1330 : 
; 1331 : 		_Pnode->_Prev->_Next = _Pnode->_Next;

	mov	edx, DWORD PTR __Pnode$[ebp]
	mov	eax, DWORD PTR [edx+4]
	mov	ecx, DWORD PTR __Pnode$[ebp]
	mov	edx, DWORD PTR [ecx]
	mov	DWORD PTR [eax], edx

; 1332 : 		_Pnode->_Next->_Prev = _Pnode->_Prev;

	mov	eax, DWORD PTR __Pnode$[ebp]
	mov	ecx, DWORD PTR [eax]
	mov	edx, DWORD PTR __Pnode$[ebp]
	mov	eax, DWORD PTR [edx+4]
	mov	DWORD PTR [ecx+4], eax

; 1333 : 
; 1334 : 		--this->_Mysize();

	mov	ecx, DWORD PTR _this$[ebp]
	call	?_Mysize@?$_List_alloc@U?$_List_base_types@PAV?$Goal@VRaven_Bot@@@@V?$allocator@PAV?$Goal@VRaven_Bot@@@@@std@@@std@@@std@@QAEAAIXZ ; std::_List_alloc<std::_List_base_types<Goal<Raven_Bot> *,std::allocator<Goal<Raven_Bot> *> > >::_Mysize
	mov	DWORD PTR tv151[ebp], eax
	mov	ecx, DWORD PTR tv151[ebp]
	mov	edx, DWORD PTR [ecx]
	sub	edx, 1
	mov	eax, DWORD PTR tv151[ebp]
	mov	DWORD PTR [eax], edx

; 1335 : 		return (_Pnode);

	mov	ecx, DWORD PTR __Pnode$[ebp]
	mov	DWORD PTR $T2[ebp], ecx
	mov	DWORD PTR __$EHRec$[ebp+8], -1
	lea	ecx, DWORD PTR __Where$[ebp]
	call	??1?$_List_const_iterator@V?$_List_val@U?$_List_simple_types@PAV?$Goal@VRaven_Bot@@@@@std@@@std@@@std@@QAE@XZ
	mov	eax, DWORD PTR $T2[ebp]

; 1336 : 		}

	mov	ecx, DWORD PTR __$EHRec$[ebp]
	mov	DWORD PTR fs:0, ecx
	pop	ecx
	pop	esi
	add	esp, 28					; 0000001cH
	cmp	ebp, esp
	call	__RTC_CheckEsp
	mov	esp, ebp
	pop	ebp
	ret	12					; 0000000cH
_TEXT	ENDS
;	COMDAT text$x
text$x	SEGMENT
__unwindfunclet$?_Unlinknode@?$list@PAV?$Goal@VRaven_Bot@@@@V?$allocator@PAV?$Goal@VRaven_Bot@@@@@std@@@std@@QAEPAU?$_List_node@PAV?$Goal@VRaven_Bot@@@@PAX@2@V?$_List_const_iterator@V?$_List_val@U?$_List_simple_types@PAV?$Goal@VRaven_Bot@@@@@std@@@std@@@2@@Z$0:
	lea	ecx, DWORD PTR __Where$[ebp]
	jmp	??1?$_List_const_iterator@V?$_List_val@U?$_List_simple_types@PAV?$Goal@VRaven_Bot@@@@@std@@@std@@@std@@QAE@XZ
__ehhandler$?_Unlinknode@?$list@PAV?$Goal@VRaven_Bot@@@@V?$allocator@PAV?$Goal@VRaven_Bot@@@@@std@@@std@@QAEPAU?$_List_node@PAV?$Goal@VRaven_Bot@@@@PAX@2@V?$_List_const_iterator@V?$_List_val@U?$_List_simple_types@PAV?$Goal@VRaven_Bot@@@@@std@@@std@@@2@@Z:
	mov	edx, DWORD PTR [esp+8]
	lea	eax, DWORD PTR [edx+12]
	mov	ecx, DWORD PTR [edx-24]
	xor	ecx, eax
	call	@__security_check_cookie@4
	mov	eax, OFFSET __ehfuncinfo$?_Unlinknode@?$list@PAV?$Goal@VRaven_Bot@@@@V?$allocator@PAV?$Goal@VRaven_Bot@@@@@std@@@std@@QAEPAU?$_List_node@PAV?$Goal@VRaven_Bot@@@@PAX@2@V?$_List_const_iterator@V?$_List_val@U?$_List_simple_types@PAV?$Goal@VRaven_Bot@@@@@std@@@std@@@2@@Z
	jmp	___CxxFrameHandler3
text$x	ENDS
?_Unlinknode@?$list@PAV?$Goal@VRaven_Bot@@@@V?$allocator@PAV?$Goal@VRaven_Bot@@@@@std@@@std@@QAEPAU?$_List_node@PAV?$Goal@VRaven_Bot@@@@PAX@2@V?$_List_const_iterator@V?$_List_val@U?$_List_simple_types@PAV?$Goal@VRaven_Bot@@@@@std@@@std@@@2@@Z ENDP ; std::list<Goal<Raven_Bot> *,std::allocator<Goal<Raven_Bot> *> >::_Unlinknode
; Function compile flags: /Odtp /RTCsu
; File c:\program files (x86)\microsoft visual studio\2017\community\vc\tools\msvc\14.15.26726\include\list
;	COMDAT ?pop_front@?$list@PAV?$Goal@VRaven_Bot@@@@V?$allocator@PAV?$Goal@VRaven_Bot@@@@@std@@@std@@QAEXXZ
_TEXT	SEGMENT
tv95 = -56						; size = 4
tv92 = -52						; size = 4
tv129 = -48						; size = 4
$T2 = -44						; size = 12
$T3 = -32						; size = 12
$T4 = -20						; size = 4
_this$ = -16						; size = 4
__$EHRec$ = -12						; size = 12
?pop_front@?$list@PAV?$Goal@VRaven_Bot@@@@V?$allocator@PAV?$Goal@VRaven_Bot@@@@@std@@@std@@QAEXXZ PROC ; std::list<Goal<Raven_Bot> *,std::allocator<Goal<Raven_Bot> *> >::pop_front, COMDAT
; _this$ = ecx

; 1169 : 		{	// erase element at beginning

	push	ebp
	mov	ebp, esp
	push	-1
	push	__ehhandler$?pop_front@?$list@PAV?$Goal@VRaven_Bot@@@@V?$allocator@PAV?$Goal@VRaven_Bot@@@@@std@@@std@@QAEXXZ
	mov	eax, DWORD PTR fs:0
	push	eax
	sub	esp, 44					; 0000002cH
	push	esi
	push	edi
	push	ecx
	lea	edi, DWORD PTR [ebp-56]
	mov	ecx, 11					; 0000000bH
	mov	eax, -858993460				; ccccccccH
	rep stosd
	pop	ecx
	mov	eax, DWORD PTR ___security_cookie
	xor	eax, ebp
	push	eax
	lea	eax, DWORD PTR __$EHRec$[ebp]
	mov	DWORD PTR fs:0, eax
	mov	DWORD PTR _this$[ebp], ecx

; 1170 : 		erase(begin());

	sub	esp, 12					; 0000000cH
	mov	esi, esp
	mov	DWORD PTR $T4[ebp], esp
	lea	eax, DWORD PTR $T3[ebp]
	push	eax
	mov	ecx, DWORD PTR _this$[ebp]
	call	?begin@?$list@PAV?$Goal@VRaven_Bot@@@@V?$allocator@PAV?$Goal@VRaven_Bot@@@@@std@@@std@@QAE?AV?$_List_iterator@V?$_List_val@U?$_List_simple_types@PAV?$Goal@VRaven_Bot@@@@@std@@@std@@@2@XZ ; std::list<Goal<Raven_Bot> *,std::allocator<Goal<Raven_Bot> *> >::begin
	mov	DWORD PTR tv129[ebp], eax
	mov	ecx, DWORD PTR tv129[ebp]
	mov	DWORD PTR tv92[ebp], ecx
	mov	DWORD PTR __$EHRec$[ebp+8], 0
	mov	edx, DWORD PTR tv92[ebp]
	push	edx
	mov	ecx, esi
	call	??0?$_List_const_iterator@V?$_List_val@U?$_List_simple_types@PAV?$Goal@VRaven_Bot@@@@@std@@@std@@@std@@QAE@$$QAV01@@Z
	lea	eax, DWORD PTR $T2[ebp]
	push	eax
	mov	ecx, DWORD PTR _this$[ebp]
	call	?erase@?$list@PAV?$Goal@VRaven_Bot@@@@V?$allocator@PAV?$Goal@VRaven_Bot@@@@@std@@@std@@QAE?AV?$_List_iterator@V?$_List_val@U?$_List_simple_types@PAV?$Goal@VRaven_Bot@@@@@std@@@std@@@2@V?$_List_const_iterator@V?$_List_val@U?$_List_simple_types@PAV?$Goal@VRaven_Bot@@@@@std@@@std@@@2@@Z ; std::list<Goal<Raven_Bot> *,std::allocator<Goal<Raven_Bot> *> >::erase
	mov	DWORD PTR tv95[ebp], eax
	lea	ecx, DWORD PTR $T2[ebp]
	call	??1?$_List_iterator@V?$_List_val@U?$_List_simple_types@PAV?$Goal@VRaven_Bot@@@@@std@@@std@@@std@@QAE@XZ
	mov	DWORD PTR __$EHRec$[ebp+8], -1
	lea	ecx, DWORD PTR $T3[ebp]
	call	??1?$_List_iterator@V?$_List_val@U?$_List_simple_types@PAV?$Goal@VRaven_Bot@@@@@std@@@std@@@std@@QAE@XZ

; 1171 : 		}

	mov	ecx, DWORD PTR __$EHRec$[ebp]
	mov	DWORD PTR fs:0, ecx
	pop	ecx
	pop	edi
	pop	esi
	add	esp, 56					; 00000038H
	cmp	ebp, esp
	call	__RTC_CheckEsp
	mov	esp, ebp
	pop	ebp
	ret	0
_TEXT	ENDS
;	COMDAT text$x
text$x	SEGMENT
__unwindfunclet$?pop_front@?$list@PAV?$Goal@VRaven_Bot@@@@V?$allocator@PAV?$Goal@VRaven_Bot@@@@@std@@@std@@QAEXXZ$0:
	lea	ecx, DWORD PTR $T3[ebp]
	jmp	??1?$_List_iterator@V?$_List_val@U?$_List_simple_types@PAV?$Goal@VRaven_Bot@@@@@std@@@std@@@std@@QAE@XZ
__ehhandler$?pop_front@?$list@PAV?$Goal@VRaven_Bot@@@@V?$allocator@PAV?$Goal@VRaven_Bot@@@@@std@@@std@@QAEXXZ:
	mov	edx, DWORD PTR [esp+8]
	lea	eax, DWORD PTR [edx+12]
	mov	ecx, DWORD PTR [edx-56]
	xor	ecx, eax
	call	@__security_check_cookie@4
	mov	eax, OFFSET __ehfuncinfo$?pop_front@?$list@PAV?$Goal@VRaven_Bot@@@@V?$allocator@PAV?$Goal@VRaven_Bot@@@@@std@@@std@@QAEXXZ
	jmp	___CxxFrameHandler3
text$x	ENDS
?pop_front@?$list@PAV?$Goal@VRaven_Bot@@@@V?$allocator@PAV?$Goal@VRaven_Bot@@@@@std@@@std@@QAEXXZ ENDP ; std::list<Goal<Raven_Bot> *,std::allocator<Goal<Raven_Bot> *> >::pop_front
; Function compile flags: /Odtp /RTCsu
; File c:\program files (x86)\microsoft visual studio\2017\community\vc\tools\msvc\14.15.26726\include\list
;	COMDAT ?front@?$list@PAV?$Goal@VRaven_Bot@@@@V?$allocator@PAV?$Goal@VRaven_Bot@@@@@std@@@std@@QAEAAPAV?$Goal@VRaven_Bot@@@@XZ
_TEXT	SEGMENT
tv72 = -40						; size = 4
tv73 = -36						; size = 4
$T2 = -32						; size = 12
$T3 = -20						; size = 4
_this$ = -16						; size = 4
__$EHRec$ = -12						; size = 12
?front@?$list@PAV?$Goal@VRaven_Bot@@@@V?$allocator@PAV?$Goal@VRaven_Bot@@@@@std@@@std@@QAEAAPAV?$Goal@VRaven_Bot@@@@XZ PROC ; std::list<Goal<Raven_Bot> *,std::allocator<Goal<Raven_Bot> *> >::front, COMDAT
; _this$ = ecx

; 1144 : 		{	// return first element of mutable sequence

	push	ebp
	mov	ebp, esp
	push	-1
	push	__ehhandler$?front@?$list@PAV?$Goal@VRaven_Bot@@@@V?$allocator@PAV?$Goal@VRaven_Bot@@@@@std@@@std@@QAEAAPAV?$Goal@VRaven_Bot@@@@XZ
	mov	eax, DWORD PTR fs:0
	push	eax
	sub	esp, 28					; 0000001cH
	mov	eax, -858993460				; ccccccccH
	mov	DWORD PTR [ebp-40], eax
	mov	DWORD PTR [ebp-36], eax
	mov	DWORD PTR [ebp-32], eax
	mov	DWORD PTR [ebp-28], eax
	mov	DWORD PTR [ebp-24], eax
	mov	DWORD PTR [ebp-20], eax
	mov	DWORD PTR [ebp-16], eax
	mov	eax, DWORD PTR ___security_cookie
	xor	eax, ebp
	push	eax
	lea	eax, DWORD PTR __$EHRec$[ebp]
	mov	DWORD PTR fs:0, eax
	mov	DWORD PTR _this$[ebp], ecx

; 1145 : 		return (*begin());

	lea	eax, DWORD PTR $T2[ebp]
	push	eax
	mov	ecx, DWORD PTR _this$[ebp]
	call	?begin@?$list@PAV?$Goal@VRaven_Bot@@@@V?$allocator@PAV?$Goal@VRaven_Bot@@@@@std@@@std@@QAE?AV?$_List_iterator@V?$_List_val@U?$_List_simple_types@PAV?$Goal@VRaven_Bot@@@@@std@@@std@@@2@XZ ; std::list<Goal<Raven_Bot> *,std::allocator<Goal<Raven_Bot> *> >::begin
	mov	DWORD PTR tv73[ebp], eax
	mov	ecx, DWORD PTR tv73[ebp]
	mov	DWORD PTR tv72[ebp], ecx
	mov	DWORD PTR __$EHRec$[ebp+8], 0
	mov	ecx, DWORD PTR tv72[ebp]
	call	??D?$_List_iterator@V?$_List_val@U?$_List_simple_types@PAV?$Goal@VRaven_Bot@@@@@std@@@std@@@std@@QBEAAPAV?$Goal@VRaven_Bot@@@@XZ ; std::_List_iterator<std::_List_val<std::_List_simple_types<Goal<Raven_Bot> *> > >::operator*
	mov	DWORD PTR $T3[ebp], eax
	mov	DWORD PTR __$EHRec$[ebp+8], -1
	lea	ecx, DWORD PTR $T2[ebp]
	call	??1?$_List_iterator@V?$_List_val@U?$_List_simple_types@PAV?$Goal@VRaven_Bot@@@@@std@@@std@@@std@@QAE@XZ
	mov	eax, DWORD PTR $T3[ebp]

; 1146 : 		}

	mov	ecx, DWORD PTR __$EHRec$[ebp]
	mov	DWORD PTR fs:0, ecx
	pop	ecx
	add	esp, 40					; 00000028H
	cmp	ebp, esp
	call	__RTC_CheckEsp
	mov	esp, ebp
	pop	ebp
	ret	0
_TEXT	ENDS
;	COMDAT text$x
text$x	SEGMENT
__unwindfunclet$?front@?$list@PAV?$Goal@VRaven_Bot@@@@V?$allocator@PAV?$Goal@VRaven_Bot@@@@@std@@@std@@QAEAAPAV?$Goal@VRaven_Bot@@@@XZ$0:
	lea	ecx, DWORD PTR $T2[ebp]
	jmp	??1?$_List_iterator@V?$_List_val@U?$_List_simple_types@PAV?$Goal@VRaven_Bot@@@@@std@@@std@@@std@@QAE@XZ
__ehhandler$?front@?$list@PAV?$Goal@VRaven_Bot@@@@V?$allocator@PAV?$Goal@VRaven_Bot@@@@@std@@@std@@QAEAAPAV?$Goal@VRaven_Bot@@@@XZ:
	mov	edx, DWORD PTR [esp+8]
	lea	eax, DWORD PTR [edx+12]
	mov	ecx, DWORD PTR [edx-32]
	xor	ecx, eax
	call	@__security_check_cookie@4
	mov	eax, OFFSET __ehfuncinfo$?front@?$list@PAV?$Goal@VRaven_Bot@@@@V?$allocator@PAV?$Goal@VRaven_Bot@@@@@std@@@std@@QAEAAPAV?$Goal@VRaven_Bot@@@@XZ
	jmp	___CxxFrameHandler3
text$x	ENDS
?front@?$list@PAV?$Goal@VRaven_Bot@@@@V?$allocator@PAV?$Goal@VRaven_Bot@@@@@std@@@std@@QAEAAPAV?$Goal@VRaven_Bot@@@@XZ ENDP ; std::list<Goal<Raven_Bot> *,std::allocator<Goal<Raven_Bot> *> >::front
; Function compile flags: /Odtp /RTCsu
; File c:\program files (x86)\microsoft visual studio\2017\community\vc\tools\msvc\14.15.26726\include\list
;	COMDAT ?empty@?$list@PAV?$Goal@VRaven_Bot@@@@V?$allocator@PAV?$Goal@VRaven_Bot@@@@@std@@@std@@QBE_NXZ
_TEXT	SEGMENT
tv71 = -8						; size = 4
_this$ = -4						; size = 4
?empty@?$list@PAV?$Goal@VRaven_Bot@@@@V?$allocator@PAV?$Goal@VRaven_Bot@@@@@std@@@std@@QBE_NXZ PROC ; std::list<Goal<Raven_Bot> *,std::allocator<Goal<Raven_Bot> *> >::empty, COMDAT
; _this$ = ecx

; 1134 : 		{	// test if sequence is empty

	push	ebp
	mov	ebp, esp
	sub	esp, 8
	mov	DWORD PTR [ebp-8], -858993460		; ccccccccH
	mov	DWORD PTR [ebp-4], -858993460		; ccccccccH
	mov	DWORD PTR _this$[ebp], ecx

; 1135 : 		return (this->_Mysize() == 0);

	mov	ecx, DWORD PTR _this$[ebp]
	call	?_Mysize@?$_List_alloc@U?$_List_base_types@PAV?$Goal@VRaven_Bot@@@@V?$allocator@PAV?$Goal@VRaven_Bot@@@@@std@@@std@@@std@@QBEABIXZ ; std::_List_alloc<std::_List_base_types<Goal<Raven_Bot> *,std::allocator<Goal<Raven_Bot> *> > >::_Mysize
	cmp	DWORD PTR [eax], 0
	jne	SHORT $LN3@empty
	mov	DWORD PTR tv71[ebp], 1
	jmp	SHORT $LN4@empty
$LN3@empty:
	mov	DWORD PTR tv71[ebp], 0
$LN4@empty:
	mov	al, BYTE PTR tv71[ebp]

; 1136 : 		}

	add	esp, 8
	cmp	ebp, esp
	call	__RTC_CheckEsp
	mov	esp, ebp
	pop	ebp
	ret	0
?empty@?$list@PAV?$Goal@VRaven_Bot@@@@V?$allocator@PAV?$Goal@VRaven_Bot@@@@@std@@@std@@QBE_NXZ ENDP ; std::list<Goal<Raven_Bot> *,std::allocator<Goal<Raven_Bot> *> >::empty
_TEXT	ENDS
; Function compile flags: /Odtp /RTCsu
; File c:\program files (x86)\microsoft visual studio\2017\community\vc\tools\msvc\14.15.26726\include\list
;	COMDAT ?size@?$list@PAV?$Goal@VRaven_Bot@@@@V?$allocator@PAV?$Goal@VRaven_Bot@@@@@std@@@std@@QBEIXZ
_TEXT	SEGMENT
_this$ = -4						; size = 4
?size@?$list@PAV?$Goal@VRaven_Bot@@@@V?$allocator@PAV?$Goal@VRaven_Bot@@@@@std@@@std@@QBEIXZ PROC ; std::list<Goal<Raven_Bot> *,std::allocator<Goal<Raven_Bot> *> >::size, COMDAT
; _this$ = ecx

; 1124 : 		{	// return length of sequence

	push	ebp
	mov	ebp, esp
	push	ecx
	mov	DWORD PTR [ebp-4], -858993460		; ccccccccH
	mov	DWORD PTR _this$[ebp], ecx

; 1125 : 		return (this->_Mysize());

	mov	ecx, DWORD PTR _this$[ebp]
	call	?_Mysize@?$_List_alloc@U?$_List_base_types@PAV?$Goal@VRaven_Bot@@@@V?$allocator@PAV?$Goal@VRaven_Bot@@@@@std@@@std@@@std@@QBEABIXZ ; std::_List_alloc<std::_List_base_types<Goal<Raven_Bot> *,std::allocator<Goal<Raven_Bot> *> > >::_Mysize
	mov	eax, DWORD PTR [eax]

; 1126 : 		}

	add	esp, 4
	cmp	ebp, esp
	call	__RTC_CheckEsp
	mov	esp, ebp
	pop	ebp
	ret	0
?size@?$list@PAV?$Goal@VRaven_Bot@@@@V?$allocator@PAV?$Goal@VRaven_Bot@@@@@std@@@std@@QBEIXZ ENDP ; std::list<Goal<Raven_Bot> *,std::allocator<Goal<Raven_Bot> *> >::size
_TEXT	ENDS
; Function compile flags: /Odtp /RTCsu
; File c:\program files (x86)\microsoft visual studio\2017\community\vc\tools\msvc\14.15.26726\include\list
;	COMDAT ?_Make_iter@?$list@PAV?$Goal@VRaven_Bot@@@@V?$allocator@PAV?$Goal@VRaven_Bot@@@@@std@@@std@@QBE?AV?$_List_iterator@V?$_List_val@U?$_List_simple_types@PAV?$Goal@VRaven_Bot@@@@@std@@@std@@@2@V?$_List_const_iterator@V?$_List_val@U?$_List_simple_types@PAV?$Goal@VRaven_Bot@@@@@std@@@std@@@2@@Z
_TEXT	SEGMENT
_this$ = -16						; size = 4
__$EHRec$ = -12						; size = 12
___$ReturnUdt$ = 8					; size = 4
__Where$ = 12						; size = 12
?_Make_iter@?$list@PAV?$Goal@VRaven_Bot@@@@V?$allocator@PAV?$Goal@VRaven_Bot@@@@@std@@@std@@QBE?AV?$_List_iterator@V?$_List_val@U?$_List_simple_types@PAV?$Goal@VRaven_Bot@@@@@std@@@std@@@2@V?$_List_const_iterator@V?$_List_val@U?$_List_simple_types@PAV?$Goal@VRaven_Bot@@@@@std@@@std@@@2@@Z PROC ; std::list<Goal<Raven_Bot> *,std::allocator<Goal<Raven_Bot> *> >::_Make_iter, COMDAT
; _this$ = ecx

; 1046 : 		{	// make iterator from const_iterator

	push	ebp
	mov	ebp, esp
	push	-1
	push	__ehhandler$?_Make_iter@?$list@PAV?$Goal@VRaven_Bot@@@@V?$allocator@PAV?$Goal@VRaven_Bot@@@@@std@@@std@@QBE?AV?$_List_iterator@V?$_List_val@U?$_List_simple_types@PAV?$Goal@VRaven_Bot@@@@@std@@@std@@@2@V?$_List_const_iterator@V?$_List_val@U?$_List_simple_types@PAV?$Goal@VRaven_Bot@@@@@std@@@std@@@2@@Z
	mov	eax, DWORD PTR fs:0
	push	eax
	push	ecx
	mov	DWORD PTR [ebp-16], -858993460		; ccccccccH
	mov	eax, DWORD PTR ___security_cookie
	xor	eax, ebp
	push	eax
	lea	eax, DWORD PTR __$EHRec$[ebp]
	mov	DWORD PTR fs:0, eax
	mov	DWORD PTR _this$[ebp], ecx

; 1047 : 		return (iterator(_Where._Ptr, _STD addressof(this->_Get_data())));

	mov	ecx, DWORD PTR _this$[ebp]
	call	?_Get_data@?$_List_alloc@U?$_List_base_types@PAV?$Goal@VRaven_Bot@@@@V?$allocator@PAV?$Goal@VRaven_Bot@@@@@std@@@std@@@std@@QBEABV?$_List_val@U?$_List_simple_types@PAV?$Goal@VRaven_Bot@@@@@std@@@2@XZ ; std::_List_alloc<std::_List_base_types<Goal<Raven_Bot> *,std::allocator<Goal<Raven_Bot> *> > >::_Get_data
	push	eax
	call	??$addressof@$$CBV?$_List_val@U?$_List_simple_types@PAV?$Goal@VRaven_Bot@@@@@std@@@std@@@std@@YAPBV?$_List_val@U?$_List_simple_types@PAV?$Goal@VRaven_Bot@@@@@std@@@0@ABV10@@Z ; std::addressof<std::_List_val<std::_List_simple_types<Goal<Raven_Bot> *> > const >
	add	esp, 4
	push	eax
	mov	eax, DWORD PTR __Where$[ebp+8]
	push	eax
	mov	ecx, DWORD PTR ___$ReturnUdt$[ebp]
	call	??0?$_List_iterator@V?$_List_val@U?$_List_simple_types@PAV?$Goal@VRaven_Bot@@@@@std@@@std@@@std@@QAE@PAU?$_List_node@PAV?$Goal@VRaven_Bot@@@@PAX@1@PBV?$_List_val@U?$_List_simple_types@PAV?$Goal@VRaven_Bot@@@@@std@@@1@@Z ; std::_List_iterator<std::_List_val<std::_List_simple_types<Goal<Raven_Bot> *> > >::_List_iterator<std::_List_val<std::_List_simple_types<Goal<Raven_Bot> *> > >
	lea	ecx, DWORD PTR __Where$[ebp]
	call	??1?$_List_const_iterator@V?$_List_val@U?$_List_simple_types@PAV?$Goal@VRaven_Bot@@@@@std@@@std@@@std@@QAE@XZ
	mov	eax, DWORD PTR ___$ReturnUdt$[ebp]

; 1048 : 		}

	mov	ecx, DWORD PTR __$EHRec$[ebp]
	mov	DWORD PTR fs:0, ecx
	pop	ecx
	add	esp, 16					; 00000010H
	cmp	ebp, esp
	call	__RTC_CheckEsp
	mov	esp, ebp
	pop	ebp
	ret	16					; 00000010H
_TEXT	ENDS
;	COMDAT text$x
text$x	SEGMENT
__ehhandler$?_Make_iter@?$list@PAV?$Goal@VRaven_Bot@@@@V?$allocator@PAV?$Goal@VRaven_Bot@@@@@std@@@std@@QBE?AV?$_List_iterator@V?$_List_val@U?$_List_simple_types@PAV?$Goal@VRaven_Bot@@@@@std@@@std@@@2@V?$_List_const_iterator@V?$_List_val@U?$_List_simple_types@PAV?$Goal@VRaven_Bot@@@@@std@@@std@@@2@@Z:
	mov	edx, DWORD PTR [esp+8]
	lea	eax, DWORD PTR [edx+12]
	mov	ecx, DWORD PTR [edx-8]
	xor	ecx, eax
	call	@__security_check_cookie@4
	mov	eax, OFFSET __ehfuncinfo$?_Make_iter@?$list@PAV?$Goal@VRaven_Bot@@@@V?$allocator@PAV?$Goal@VRaven_Bot@@@@@std@@@std@@QBE?AV?$_List_iterator@V?$_List_val@U?$_List_simple_types@PAV?$Goal@VRaven_Bot@@@@@std@@@std@@@2@V?$_List_const_iterator@V?$_List_val@U?$_List_simple_types@PAV?$Goal@VRaven_Bot@@@@@std@@@std@@@2@@Z
	jmp	___CxxFrameHandler3
text$x	ENDS
?_Make_iter@?$list@PAV?$Goal@VRaven_Bot@@@@V?$allocator@PAV?$Goal@VRaven_Bot@@@@@std@@@std@@QBE?AV?$_List_iterator@V?$_List_val@U?$_List_simple_types@PAV?$Goal@VRaven_Bot@@@@@std@@@std@@@2@V?$_List_const_iterator@V?$_List_val@U?$_List_simple_types@PAV?$Goal@VRaven_Bot@@@@@std@@@std@@@2@@Z ENDP ; std::list<Goal<Raven_Bot> *,std::allocator<Goal<Raven_Bot> *> >::_Make_iter
; Function compile flags: /Odtp /RTCsu
; File c:\program files (x86)\microsoft visual studio\2017\community\vc\tools\msvc\14.15.26726\include\list
;	COMDAT ?end@?$list@PAV?$Goal@VRaven_Bot@@@@V?$allocator@PAV?$Goal@VRaven_Bot@@@@@std@@@std@@QAE?AV?$_List_iterator@V?$_List_val@U?$_List_simple_types@PAV?$Goal@VRaven_Bot@@@@@std@@@std@@@2@XZ
_TEXT	SEGMENT
_this$ = -16						; size = 4
__$EHRec$ = -12						; size = 12
___$ReturnUdt$ = 8					; size = 4
?end@?$list@PAV?$Goal@VRaven_Bot@@@@V?$allocator@PAV?$Goal@VRaven_Bot@@@@@std@@@std@@QAE?AV?$_List_iterator@V?$_List_val@U?$_List_simple_types@PAV?$Goal@VRaven_Bot@@@@@std@@@std@@@2@XZ PROC ; std::list<Goal<Raven_Bot> *,std::allocator<Goal<Raven_Bot> *> >::end, COMDAT
; _this$ = ecx

; 1016 : 		{	// return iterator for end of mutable sequence

	push	ebp
	mov	ebp, esp
	push	-1
	push	__ehhandler$?end@?$list@PAV?$Goal@VRaven_Bot@@@@V?$allocator@PAV?$Goal@VRaven_Bot@@@@@std@@@std@@QAE?AV?$_List_iterator@V?$_List_val@U?$_List_simple_types@PAV?$Goal@VRaven_Bot@@@@@std@@@std@@@2@XZ
	mov	eax, DWORD PTR fs:0
	push	eax
	push	ecx
	mov	DWORD PTR [ebp-16], -858993460		; ccccccccH
	mov	eax, DWORD PTR ___security_cookie
	xor	eax, ebp
	push	eax
	lea	eax, DWORD PTR __$EHRec$[ebp]
	mov	DWORD PTR fs:0, eax
	mov	DWORD PTR _this$[ebp], ecx

; 1017 : 		return (iterator(this->_Myhead(), _STD addressof(this->_Get_data())));

	mov	ecx, DWORD PTR _this$[ebp]
	call	?_Get_data@?$_List_alloc@U?$_List_base_types@PAV?$Goal@VRaven_Bot@@@@V?$allocator@PAV?$Goal@VRaven_Bot@@@@@std@@@std@@@std@@QAEAAV?$_List_val@U?$_List_simple_types@PAV?$Goal@VRaven_Bot@@@@@std@@@2@XZ ; std::_List_alloc<std::_List_base_types<Goal<Raven_Bot> *,std::allocator<Goal<Raven_Bot> *> > >::_Get_data
	push	eax
	call	??$addressof@V?$_List_val@U?$_List_simple_types@PAV?$Goal@VRaven_Bot@@@@@std@@@std@@@std@@YAPAV?$_List_val@U?$_List_simple_types@PAV?$Goal@VRaven_Bot@@@@@std@@@0@AAV10@@Z ; std::addressof<std::_List_val<std::_List_simple_types<Goal<Raven_Bot> *> > >
	add	esp, 4
	push	eax
	mov	ecx, DWORD PTR _this$[ebp]
	call	?_Myhead@?$_List_alloc@U?$_List_base_types@PAV?$Goal@VRaven_Bot@@@@V?$allocator@PAV?$Goal@VRaven_Bot@@@@@std@@@std@@@std@@QAEAAPAU?$_List_node@PAV?$Goal@VRaven_Bot@@@@PAX@2@XZ ; std::_List_alloc<std::_List_base_types<Goal<Raven_Bot> *,std::allocator<Goal<Raven_Bot> *> > >::_Myhead
	mov	eax, DWORD PTR [eax]
	push	eax
	mov	ecx, DWORD PTR ___$ReturnUdt$[ebp]
	call	??0?$_List_iterator@V?$_List_val@U?$_List_simple_types@PAV?$Goal@VRaven_Bot@@@@@std@@@std@@@std@@QAE@PAU?$_List_node@PAV?$Goal@VRaven_Bot@@@@PAX@1@PBV?$_List_val@U?$_List_simple_types@PAV?$Goal@VRaven_Bot@@@@@std@@@1@@Z ; std::_List_iterator<std::_List_val<std::_List_simple_types<Goal<Raven_Bot> *> > >::_List_iterator<std::_List_val<std::_List_simple_types<Goal<Raven_Bot> *> > >
	mov	eax, DWORD PTR ___$ReturnUdt$[ebp]

; 1018 : 		}

	mov	ecx, DWORD PTR __$EHRec$[ebp]
	mov	DWORD PTR fs:0, ecx
	pop	ecx
	add	esp, 16					; 00000010H
	cmp	ebp, esp
	call	__RTC_CheckEsp
	mov	esp, ebp
	pop	ebp
	ret	4
_TEXT	ENDS
;	COMDAT text$x
text$x	SEGMENT
__ehhandler$?end@?$list@PAV?$Goal@VRaven_Bot@@@@V?$allocator@PAV?$Goal@VRaven_Bot@@@@@std@@@std@@QAE?AV?$_List_iterator@V?$_List_val@U?$_List_simple_types@PAV?$Goal@VRaven_Bot@@@@@std@@@std@@@2@XZ:
	mov	edx, DWORD PTR [esp+8]
	lea	eax, DWORD PTR [edx+12]
	mov	ecx, DWORD PTR [edx-8]
	xor	ecx, eax
	call	@__security_check_cookie@4
	mov	eax, OFFSET __ehfuncinfo$?end@?$list@PAV?$Goal@VRaven_Bot@@@@V?$allocator@PAV?$Goal@VRaven_Bot@@@@@std@@@std@@QAE?AV?$_List_iterator@V?$_List_val@U?$_List_simple_types@PAV?$Goal@VRaven_Bot@@@@@std@@@std@@@2@XZ
	jmp	___CxxFrameHandler3
text$x	ENDS
?end@?$list@PAV?$Goal@VRaven_Bot@@@@V?$allocator@PAV?$Goal@VRaven_Bot@@@@@std@@@std@@QAE?AV?$_List_iterator@V?$_List_val@U?$_List_simple_types@PAV?$Goal@VRaven_Bot@@@@@std@@@std@@@2@XZ ENDP ; std::list<Goal<Raven_Bot> *,std::allocator<Goal<Raven_Bot> *> >::end
; Function compile flags: /Odtp /RTCsu
; File c:\program files (x86)\microsoft visual studio\2017\community\vc\tools\msvc\14.15.26726\include\list
;	COMDAT ?begin@?$list@PAV?$Goal@VRaven_Bot@@@@V?$allocator@PAV?$Goal@VRaven_Bot@@@@@std@@@std@@QAE?AV?$_List_iterator@V?$_List_val@U?$_List_simple_types@PAV?$Goal@VRaven_Bot@@@@@std@@@std@@@2@XZ
_TEXT	SEGMENT
_this$ = -16						; size = 4
__$EHRec$ = -12						; size = 12
___$ReturnUdt$ = 8					; size = 4
?begin@?$list@PAV?$Goal@VRaven_Bot@@@@V?$allocator@PAV?$Goal@VRaven_Bot@@@@@std@@@std@@QAE?AV?$_List_iterator@V?$_List_val@U?$_List_simple_types@PAV?$Goal@VRaven_Bot@@@@@std@@@std@@@2@XZ PROC ; std::list<Goal<Raven_Bot> *,std::allocator<Goal<Raven_Bot> *> >::begin, COMDAT
; _this$ = ecx

; 1006 : 		{	// return iterator for beginning of mutable sequence

	push	ebp
	mov	ebp, esp
	push	-1
	push	__ehhandler$?begin@?$list@PAV?$Goal@VRaven_Bot@@@@V?$allocator@PAV?$Goal@VRaven_Bot@@@@@std@@@std@@QAE?AV?$_List_iterator@V?$_List_val@U?$_List_simple_types@PAV?$Goal@VRaven_Bot@@@@@std@@@std@@@2@XZ
	mov	eax, DWORD PTR fs:0
	push	eax
	push	ecx
	mov	DWORD PTR [ebp-16], -858993460		; ccccccccH
	mov	eax, DWORD PTR ___security_cookie
	xor	eax, ebp
	push	eax
	lea	eax, DWORD PTR __$EHRec$[ebp]
	mov	DWORD PTR fs:0, eax
	mov	DWORD PTR _this$[ebp], ecx

; 1007 : 		return (iterator(this->_Myhead()->_Next, _STD addressof(this->_Get_data())));

	mov	ecx, DWORD PTR _this$[ebp]
	call	?_Get_data@?$_List_alloc@U?$_List_base_types@PAV?$Goal@VRaven_Bot@@@@V?$allocator@PAV?$Goal@VRaven_Bot@@@@@std@@@std@@@std@@QAEAAV?$_List_val@U?$_List_simple_types@PAV?$Goal@VRaven_Bot@@@@@std@@@2@XZ ; std::_List_alloc<std::_List_base_types<Goal<Raven_Bot> *,std::allocator<Goal<Raven_Bot> *> > >::_Get_data
	push	eax
	call	??$addressof@V?$_List_val@U?$_List_simple_types@PAV?$Goal@VRaven_Bot@@@@@std@@@std@@@std@@YAPAV?$_List_val@U?$_List_simple_types@PAV?$Goal@VRaven_Bot@@@@@std@@@0@AAV10@@Z ; std::addressof<std::_List_val<std::_List_simple_types<Goal<Raven_Bot> *> > >
	add	esp, 4
	push	eax
	mov	ecx, DWORD PTR _this$[ebp]
	call	?_Myhead@?$_List_alloc@U?$_List_base_types@PAV?$Goal@VRaven_Bot@@@@V?$allocator@PAV?$Goal@VRaven_Bot@@@@@std@@@std@@@std@@QAEAAPAU?$_List_node@PAV?$Goal@VRaven_Bot@@@@PAX@2@XZ ; std::_List_alloc<std::_List_base_types<Goal<Raven_Bot> *,std::allocator<Goal<Raven_Bot> *> > >::_Myhead
	mov	eax, DWORD PTR [eax]
	mov	ecx, DWORD PTR [eax]
	push	ecx
	mov	ecx, DWORD PTR ___$ReturnUdt$[ebp]
	call	??0?$_List_iterator@V?$_List_val@U?$_List_simple_types@PAV?$Goal@VRaven_Bot@@@@@std@@@std@@@std@@QAE@PAU?$_List_node@PAV?$Goal@VRaven_Bot@@@@PAX@1@PBV?$_List_val@U?$_List_simple_types@PAV?$Goal@VRaven_Bot@@@@@std@@@1@@Z ; std::_List_iterator<std::_List_val<std::_List_simple_types<Goal<Raven_Bot> *> > >::_List_iterator<std::_List_val<std::_List_simple_types<Goal<Raven_Bot> *> > >
	mov	eax, DWORD PTR ___$ReturnUdt$[ebp]

; 1008 : 		}

	mov	ecx, DWORD PTR __$EHRec$[ebp]
	mov	DWORD PTR fs:0, ecx
	pop	ecx
	add	esp, 16					; 00000010H
	cmp	ebp, esp
	call	__RTC_CheckEsp
	mov	esp, ebp
	pop	ebp
	ret	4
_TEXT	ENDS
;	COMDAT text$x
text$x	SEGMENT
__ehhandler$?begin@?$list@PAV?$Goal@VRaven_Bot@@@@V?$allocator@PAV?$Goal@VRaven_Bot@@@@@std@@@std@@QAE?AV?$_List_iterator@V?$_List_val@U?$_List_simple_types@PAV?$Goal@VRaven_Bot@@@@@std@@@std@@@2@XZ:
	mov	edx, DWORD PTR [esp+8]
	lea	eax, DWORD PTR [edx+12]
	mov	ecx, DWORD PTR [edx-8]
	xor	ecx, eax
	call	@__security_check_cookie@4
	mov	eax, OFFSET __ehfuncinfo$?begin@?$list@PAV?$Goal@VRaven_Bot@@@@V?$allocator@PAV?$Goal@VRaven_Bot@@@@@std@@@std@@QAE?AV?$_List_iterator@V?$_List_val@U?$_List_simple_types@PAV?$Goal@VRaven_Bot@@@@@std@@@std@@@2@XZ
	jmp	___CxxFrameHandler3
text$x	ENDS
?begin@?$list@PAV?$Goal@VRaven_Bot@@@@V?$allocator@PAV?$Goal@VRaven_Bot@@@@@std@@@std@@QAE?AV?$_List_iterator@V?$_List_val@U?$_List_simple_types@PAV?$Goal@VRaven_Bot@@@@@std@@@std@@@2@XZ ENDP ; std::list<Goal<Raven_Bot> *,std::allocator<Goal<Raven_Bot> *> >::begin
; Function compile flags: /Odtp /RTCsu
; File c:\program files (x86)\microsoft visual studio\2017\community\vc\tools\msvc\14.15.26726\include\list
;	COMDAT ?_Freenode@?$_List_buy@PAV?$Goal@VRaven_Bot@@@@V?$allocator@PAV?$Goal@VRaven_Bot@@@@@std@@@std@@QAEXPAU?$_List_node@PAV?$Goal@VRaven_Bot@@@@PAX@2@@Z
_TEXT	SEGMENT
__Al$ = -8						; size = 4
_this$ = -4						; size = 4
__Pnode$ = 8						; size = 4
?_Freenode@?$_List_buy@PAV?$Goal@VRaven_Bot@@@@V?$allocator@PAV?$Goal@VRaven_Bot@@@@@std@@@std@@QAEXPAU?$_List_node@PAV?$Goal@VRaven_Bot@@@@PAX@2@@Z PROC ; std::_List_buy<Goal<Raven_Bot> *,std::allocator<Goal<Raven_Bot> *> >::_Freenode, COMDAT
; _this$ = ecx

; 728  : 		{	// give node back

	push	ebp
	mov	ebp, esp
	sub	esp, 8
	mov	DWORD PTR [ebp-8], -858993460		; ccccccccH
	mov	DWORD PTR [ebp-4], -858993460		; ccccccccH
	mov	DWORD PTR _this$[ebp], ecx

; 729  : 		_Alnode& _Al = this->_Getal();

	mov	ecx, DWORD PTR _this$[ebp]
	call	?_Getal@?$_List_alloc@U?$_List_base_types@PAV?$Goal@VRaven_Bot@@@@V?$allocator@PAV?$Goal@VRaven_Bot@@@@@std@@@std@@@std@@QAEAAV?$allocator@U?$_List_node@PAV?$Goal@VRaven_Bot@@@@PAX@std@@@2@XZ ; std::_List_alloc<std::_List_base_types<Goal<Raven_Bot> *,std::allocator<Goal<Raven_Bot> *> > >::_Getal
	mov	DWORD PTR __Al$[ebp], eax

; 730  : 		_Alnode_traits::destroy(_Al, _STD addressof(_Pnode->_Myval));

	mov	eax, DWORD PTR __Pnode$[ebp]
	add	eax, 8
	push	eax
	call	??$addressof@PAV?$Goal@VRaven_Bot@@@@@std@@YAPAPAV?$Goal@VRaven_Bot@@@@AAPAV1@@Z ; std::addressof<Goal<Raven_Bot> *>
	add	esp, 4
	push	eax
	mov	ecx, DWORD PTR __Al$[ebp]
	push	ecx
	call	??$destroy@PAV?$Goal@VRaven_Bot@@@@@?$_Default_allocator_traits@V?$allocator@U?$_List_node@PAV?$Goal@VRaven_Bot@@@@PAX@std@@@std@@@std@@SAXAAV?$allocator@U?$_List_node@PAV?$Goal@VRaven_Bot@@@@PAX@std@@@1@QAPAV?$Goal@VRaven_Bot@@@@@Z ; std::_Default_allocator_traits<std::allocator<std::_List_node<Goal<Raven_Bot> *,void *> > >::destroy<Goal<Raven_Bot> *>
	add	esp, 8

; 731  : 		_Node::_Freenode0(_Al, _Pnode);

	mov	edx, DWORD PTR __Pnode$[ebp]
	push	edx
	mov	eax, DWORD PTR __Al$[ebp]
	push	eax
	call	??$_Freenode0@V?$allocator@U?$_List_node@PAV?$Goal@VRaven_Bot@@@@PAX@std@@@std@@@?$_List_node@PAV?$Goal@VRaven_Bot@@@@PAX@std@@SAXAAV?$allocator@U?$_List_node@PAV?$Goal@VRaven_Bot@@@@PAX@std@@@1@PAU01@@Z ; std::_List_node<Goal<Raven_Bot> *,void *>::_Freenode0<std::allocator<std::_List_node<Goal<Raven_Bot> *,void *> > >
	add	esp, 8

; 732  : 		}

	add	esp, 8
	cmp	ebp, esp
	call	__RTC_CheckEsp
	mov	esp, ebp
	pop	ebp
	ret	4
?_Freenode@?$_List_buy@PAV?$Goal@VRaven_Bot@@@@V?$allocator@PAV?$Goal@VRaven_Bot@@@@@std@@@std@@QAEXPAU?$_List_node@PAV?$Goal@VRaven_Bot@@@@PAX@2@@Z ENDP ; std::_List_buy<Goal<Raven_Bot> *,std::allocator<Goal<Raven_Bot> *> >::_Freenode
_TEXT	ENDS
; Function compile flags: /Odtp /RTCsu
; File c:\program files (x86)\microsoft visual studio\2017\community\vc\tools\msvc\14.15.26726\include\xutility
;	COMDAT ?_Get_second@?$_Compressed_pair@V?$allocator@U?$_List_node@PAV?$Goal@VRaven_Bot@@@@PAX@std@@@std@@V?$_List_val@U?$_List_simple_types@PAV?$Goal@VRaven_Bot@@@@@std@@@2@$00@std@@QBEABV?$_List_val@U?$_List_simple_types@PAV?$Goal@VRaven_Bot@@@@@std@@@2@XZ
_TEXT	SEGMENT
_this$ = -4						; size = 4
?_Get_second@?$_Compressed_pair@V?$allocator@U?$_List_node@PAV?$Goal@VRaven_Bot@@@@PAX@std@@@std@@V?$_List_val@U?$_List_simple_types@PAV?$Goal@VRaven_Bot@@@@@std@@@2@$00@std@@QBEABV?$_List_val@U?$_List_simple_types@PAV?$Goal@VRaven_Bot@@@@@std@@@2@XZ PROC ; std::_Compressed_pair<std::allocator<std::_List_node<Goal<Raven_Bot> *,void *> >,std::_List_val<std::_List_simple_types<Goal<Raven_Bot> *> >,1>::_Get_second, COMDAT
; _this$ = ecx

; 306  : 		{	// return const reference to second

	push	ebp
	mov	ebp, esp
	push	ecx
	mov	DWORD PTR [ebp-4], -858993460		; ccccccccH
	mov	DWORD PTR _this$[ebp], ecx

; 307  : 		return (_Myval2);

	mov	eax, DWORD PTR _this$[ebp]

; 308  : 		}

	mov	esp, ebp
	pop	ebp
	ret	0
?_Get_second@?$_Compressed_pair@V?$allocator@U?$_List_node@PAV?$Goal@VRaven_Bot@@@@PAX@std@@@std@@V?$_List_val@U?$_List_simple_types@PAV?$Goal@VRaven_Bot@@@@@std@@@2@$00@std@@QBEABV?$_List_val@U?$_List_simple_types@PAV?$Goal@VRaven_Bot@@@@@std@@@2@XZ ENDP ; std::_Compressed_pair<std::allocator<std::_List_node<Goal<Raven_Bot> *,void *> >,std::_List_val<std::_List_simple_types<Goal<Raven_Bot> *> >,1>::_Get_second
_TEXT	ENDS
; Function compile flags: /Odtp /RTCsu
; File c:\program files (x86)\microsoft visual studio\2017\community\vc\tools\msvc\14.15.26726\include\xutility
;	COMDAT ?_Get_second@?$_Compressed_pair@V?$allocator@U?$_List_node@PAV?$Goal@VRaven_Bot@@@@PAX@std@@@std@@V?$_List_val@U?$_List_simple_types@PAV?$Goal@VRaven_Bot@@@@@std@@@2@$00@std@@QAEAAV?$_List_val@U?$_List_simple_types@PAV?$Goal@VRaven_Bot@@@@@std@@@2@XZ
_TEXT	SEGMENT
_this$ = -4						; size = 4
?_Get_second@?$_Compressed_pair@V?$allocator@U?$_List_node@PAV?$Goal@VRaven_Bot@@@@PAX@std@@@std@@V?$_List_val@U?$_List_simple_types@PAV?$Goal@VRaven_Bot@@@@@std@@@2@$00@std@@QAEAAV?$_List_val@U?$_List_simple_types@PAV?$Goal@VRaven_Bot@@@@@std@@@2@XZ PROC ; std::_Compressed_pair<std::allocator<std::_List_node<Goal<Raven_Bot> *,void *> >,std::_List_val<std::_List_simple_types<Goal<Raven_Bot> *> >,1>::_Get_second, COMDAT
; _this$ = ecx

; 301  : 		{	// return reference to second

	push	ebp
	mov	ebp, esp
	push	ecx
	mov	DWORD PTR [ebp-4], -858993460		; ccccccccH
	mov	DWORD PTR _this$[ebp], ecx

; 302  : 		return (_Myval2);

	mov	eax, DWORD PTR _this$[ebp]

; 303  : 		}

	mov	esp, ebp
	pop	ebp
	ret	0
?_Get_second@?$_Compressed_pair@V?$allocator@U?$_List_node@PAV?$Goal@VRaven_Bot@@@@PAX@std@@@std@@V?$_List_val@U?$_List_simple_types@PAV?$Goal@VRaven_Bot@@@@@std@@@2@$00@std@@QAEAAV?$_List_val@U?$_List_simple_types@PAV?$Goal@VRaven_Bot@@@@@std@@@2@XZ ENDP ; std::_Compressed_pair<std::allocator<std::_List_node<Goal<Raven_Bot> *,void *> >,std::_List_val<std::_List_simple_types<Goal<Raven_Bot> *> >,1>::_Get_second
_TEXT	ENDS
; Function compile flags: /Odtp /RTCsu
; File c:\program files (x86)\microsoft visual studio\2017\community\vc\tools\msvc\14.15.26726\include\xutility
;	COMDAT ?_Get_first@?$_Compressed_pair@V?$allocator@U?$_List_node@PAV?$Goal@VRaven_Bot@@@@PAX@std@@@std@@V?$_List_val@U?$_List_simple_types@PAV?$Goal@VRaven_Bot@@@@@std@@@2@$00@std@@QAEAAV?$allocator@U?$_List_node@PAV?$Goal@VRaven_Bot@@@@PAX@std@@@2@XZ
_TEXT	SEGMENT
_this$ = -4						; size = 4
?_Get_first@?$_Compressed_pair@V?$allocator@U?$_List_node@PAV?$Goal@VRaven_Bot@@@@PAX@std@@@std@@V?$_List_val@U?$_List_simple_types@PAV?$Goal@VRaven_Bot@@@@@std@@@2@$00@std@@QAEAAV?$allocator@U?$_List_node@PAV?$Goal@VRaven_Bot@@@@PAX@std@@@2@XZ PROC ; std::_Compressed_pair<std::allocator<std::_List_node<Goal<Raven_Bot> *,void *> >,std::_List_val<std::_List_simple_types<Goal<Raven_Bot> *> >,1>::_Get_first, COMDAT
; _this$ = ecx

; 291  : 		{	// return reference to first

	push	ebp
	mov	ebp, esp
	push	ecx
	mov	DWORD PTR [ebp-4], -858993460		; ccccccccH
	mov	DWORD PTR _this$[ebp], ecx

; 292  : 		return (*this);

	mov	eax, DWORD PTR _this$[ebp]

; 293  : 		}

	mov	esp, ebp
	pop	ebp
	ret	0
?_Get_first@?$_Compressed_pair@V?$allocator@U?$_List_node@PAV?$Goal@VRaven_Bot@@@@PAX@std@@@std@@V?$_List_val@U?$_List_simple_types@PAV?$Goal@VRaven_Bot@@@@@std@@@2@$00@std@@QAEAAV?$allocator@U?$_List_node@PAV?$Goal@VRaven_Bot@@@@PAX@std@@@2@XZ ENDP ; std::_Compressed_pair<std::allocator<std::_List_node<Goal<Raven_Bot> *,void *> >,std::_List_val<std::_List_simple_types<Goal<Raven_Bot> *> >,1>::_Get_first
_TEXT	ENDS
; Function compile flags: /Odtp /RTCsu
; File c:\program files (x86)\microsoft visual studio\2017\community\vc\tools\msvc\14.15.26726\include\list
;	COMDAT ?_Mysize@?$_List_alloc@U?$_List_base_types@PAV?$Goal@VRaven_Bot@@@@V?$allocator@PAV?$Goal@VRaven_Bot@@@@@std@@@std@@@std@@QBEABIXZ
_TEXT	SEGMENT
_this$ = -4						; size = 4
?_Mysize@?$_List_alloc@U?$_List_base_types@PAV?$Goal@VRaven_Bot@@@@V?$allocator@PAV?$Goal@VRaven_Bot@@@@@std@@@std@@@std@@QBEABIXZ PROC ; std::_List_alloc<std::_List_base_types<Goal<Raven_Bot> *,std::allocator<Goal<Raven_Bot> *> > >::_Mysize, COMDAT
; _this$ = ecx

; 676  : 		{	// return const reference to _Mysize

	push	ebp
	mov	ebp, esp
	push	ecx
	mov	DWORD PTR [ebp-4], -858993460		; ccccccccH
	mov	DWORD PTR _this$[ebp], ecx

; 677  : 		return (_Get_data()._Mysize);

	mov	ecx, DWORD PTR _this$[ebp]
	call	?_Get_data@?$_List_alloc@U?$_List_base_types@PAV?$Goal@VRaven_Bot@@@@V?$allocator@PAV?$Goal@VRaven_Bot@@@@@std@@@std@@@std@@QBEABV?$_List_val@U?$_List_simple_types@PAV?$Goal@VRaven_Bot@@@@@std@@@2@XZ ; std::_List_alloc<std::_List_base_types<Goal<Raven_Bot> *,std::allocator<Goal<Raven_Bot> *> > >::_Get_data
	add	eax, 8

; 678  : 		}

	add	esp, 4
	cmp	ebp, esp
	call	__RTC_CheckEsp
	mov	esp, ebp
	pop	ebp
	ret	0
?_Mysize@?$_List_alloc@U?$_List_base_types@PAV?$Goal@VRaven_Bot@@@@V?$allocator@PAV?$Goal@VRaven_Bot@@@@@std@@@std@@@std@@QBEABIXZ ENDP ; std::_List_alloc<std::_List_base_types<Goal<Raven_Bot> *,std::allocator<Goal<Raven_Bot> *> > >::_Mysize
_TEXT	ENDS
; Function compile flags: /Odtp /RTCsu
; File c:\program files (x86)\microsoft visual studio\2017\community\vc\tools\msvc\14.15.26726\include\list
;	COMDAT ?_Mysize@?$_List_alloc@U?$_List_base_types@PAV?$Goal@VRaven_Bot@@@@V?$allocator@PAV?$Goal@VRaven_Bot@@@@@std@@@std@@@std@@QAEAAIXZ
_TEXT	SEGMENT
_this$ = -4						; size = 4
?_Mysize@?$_List_alloc@U?$_List_base_types@PAV?$Goal@VRaven_Bot@@@@V?$allocator@PAV?$Goal@VRaven_Bot@@@@@std@@@std@@@std@@QAEAAIXZ PROC ; std::_List_alloc<std::_List_base_types<Goal<Raven_Bot> *,std::allocator<Goal<Raven_Bot> *> > >::_Mysize, COMDAT
; _this$ = ecx

; 671  : 		{	// return reference to _Mysize

	push	ebp
	mov	ebp, esp
	push	ecx
	mov	DWORD PTR [ebp-4], -858993460		; ccccccccH
	mov	DWORD PTR _this$[ebp], ecx

; 672  : 		return (_Get_data()._Mysize);

	mov	ecx, DWORD PTR _this$[ebp]
	call	?_Get_data@?$_List_alloc@U?$_List_base_types@PAV?$Goal@VRaven_Bot@@@@V?$allocator@PAV?$Goal@VRaven_Bot@@@@@std@@@std@@@std@@QAEAAV?$_List_val@U?$_List_simple_types@PAV?$Goal@VRaven_Bot@@@@@std@@@2@XZ ; std::_List_alloc<std::_List_base_types<Goal<Raven_Bot> *,std::allocator<Goal<Raven_Bot> *> > >::_Get_data
	add	eax, 8

; 673  : 		}

	add	esp, 4
	cmp	ebp, esp
	call	__RTC_CheckEsp
	mov	esp, ebp
	pop	ebp
	ret	0
?_Mysize@?$_List_alloc@U?$_List_base_types@PAV?$Goal@VRaven_Bot@@@@V?$allocator@PAV?$Goal@VRaven_Bot@@@@@std@@@std@@@std@@QAEAAIXZ ENDP ; std::_List_alloc<std::_List_base_types<Goal<Raven_Bot> *,std::allocator<Goal<Raven_Bot> *> > >::_Mysize
_TEXT	ENDS
; Function compile flags: /Odtp /RTCsu
; File c:\program files (x86)\microsoft visual studio\2017\community\vc\tools\msvc\14.15.26726\include\list
;	COMDAT ?_Myhead@?$_List_alloc@U?$_List_base_types@PAV?$Goal@VRaven_Bot@@@@V?$allocator@PAV?$Goal@VRaven_Bot@@@@@std@@@std@@@std@@QAEAAPAU?$_List_node@PAV?$Goal@VRaven_Bot@@@@PAX@2@XZ
_TEXT	SEGMENT
_this$ = -4						; size = 4
?_Myhead@?$_List_alloc@U?$_List_base_types@PAV?$Goal@VRaven_Bot@@@@V?$allocator@PAV?$Goal@VRaven_Bot@@@@@std@@@std@@@std@@QAEAAPAU?$_List_node@PAV?$Goal@VRaven_Bot@@@@PAX@2@XZ PROC ; std::_List_alloc<std::_List_base_types<Goal<Raven_Bot> *,std::allocator<Goal<Raven_Bot> *> > >::_Myhead, COMDAT
; _this$ = ecx

; 661  : 		{	// return reference to _Myhead

	push	ebp
	mov	ebp, esp
	push	ecx
	mov	DWORD PTR [ebp-4], -858993460		; ccccccccH
	mov	DWORD PTR _this$[ebp], ecx

; 662  : 		return (_Get_data()._Myhead);

	mov	ecx, DWORD PTR _this$[ebp]
	call	?_Get_data@?$_List_alloc@U?$_List_base_types@PAV?$Goal@VRaven_Bot@@@@V?$allocator@PAV?$Goal@VRaven_Bot@@@@@std@@@std@@@std@@QAEAAV?$_List_val@U?$_List_simple_types@PAV?$Goal@VRaven_Bot@@@@@std@@@2@XZ ; std::_List_alloc<std::_List_base_types<Goal<Raven_Bot> *,std::allocator<Goal<Raven_Bot> *> > >::_Get_data
	add	eax, 4

; 663  : 		}

	add	esp, 4
	cmp	ebp, esp
	call	__RTC_CheckEsp
	mov	esp, ebp
	pop	ebp
	ret	0
?_Myhead@?$_List_alloc@U?$_List_base_types@PAV?$Goal@VRaven_Bot@@@@V?$allocator@PAV?$Goal@VRaven_Bot@@@@@std@@@std@@@std@@QAEAAPAU?$_List_node@PAV?$Goal@VRaven_Bot@@@@PAX@2@XZ ENDP ; std::_List_alloc<std::_List_base_types<Goal<Raven_Bot> *,std::allocator<Goal<Raven_Bot> *> > >::_Myhead
_TEXT	ENDS
; Function compile flags: /Odtp /RTCsu
; File c:\program files (x86)\microsoft visual studio\2017\community\vc\tools\msvc\14.15.26726\include\list
;	COMDAT ?_Get_data@?$_List_alloc@U?$_List_base_types@PAV?$Goal@VRaven_Bot@@@@V?$allocator@PAV?$Goal@VRaven_Bot@@@@@std@@@std@@@std@@QBEABV?$_List_val@U?$_List_simple_types@PAV?$Goal@VRaven_Bot@@@@@std@@@2@XZ
_TEXT	SEGMENT
_this$ = -4						; size = 4
?_Get_data@?$_List_alloc@U?$_List_base_types@PAV?$Goal@VRaven_Bot@@@@V?$allocator@PAV?$Goal@VRaven_Bot@@@@@std@@@std@@@std@@QBEABV?$_List_val@U?$_List_simple_types@PAV?$Goal@VRaven_Bot@@@@@std@@@2@XZ PROC ; std::_List_alloc<std::_List_base_types<Goal<Raven_Bot> *,std::allocator<Goal<Raven_Bot> *> > >::_Get_data, COMDAT
; _this$ = ecx

; 656  : 		{	// return const reference to _List_val

	push	ebp
	mov	ebp, esp
	push	ecx
	mov	DWORD PTR [ebp-4], -858993460		; ccccccccH
	mov	DWORD PTR _this$[ebp], ecx

; 657  : 		return (_Mypair._Get_second());

	mov	ecx, DWORD PTR _this$[ebp]
	call	?_Get_second@?$_Compressed_pair@V?$allocator@U?$_List_node@PAV?$Goal@VRaven_Bot@@@@PAX@std@@@std@@V?$_List_val@U?$_List_simple_types@PAV?$Goal@VRaven_Bot@@@@@std@@@2@$00@std@@QBEABV?$_List_val@U?$_List_simple_types@PAV?$Goal@VRaven_Bot@@@@@std@@@2@XZ ; std::_Compressed_pair<std::allocator<std::_List_node<Goal<Raven_Bot> *,void *> >,std::_List_val<std::_List_simple_types<Goal<Raven_Bot> *> >,1>::_Get_second

; 658  : 		}

	add	esp, 4
	cmp	ebp, esp
	call	__RTC_CheckEsp
	mov	esp, ebp
	pop	ebp
	ret	0
?_Get_data@?$_List_alloc@U?$_List_base_types@PAV?$Goal@VRaven_Bot@@@@V?$allocator@PAV?$Goal@VRaven_Bot@@@@@std@@@std@@@std@@QBEABV?$_List_val@U?$_List_simple_types@PAV?$Goal@VRaven_Bot@@@@@std@@@2@XZ ENDP ; std::_List_alloc<std::_List_base_types<Goal<Raven_Bot> *,std::allocator<Goal<Raven_Bot> *> > >::_Get_data
_TEXT	ENDS
; Function compile flags: /Odtp /RTCsu
; File c:\program files (x86)\microsoft visual studio\2017\community\vc\tools\msvc\14.15.26726\include\list
;	COMDAT ?_Get_data@?$_List_alloc@U?$_List_base_types@PAV?$Goal@VRaven_Bot@@@@V?$allocator@PAV?$Goal@VRaven_Bot@@@@@std@@@std@@@std@@QAEAAV?$_List_val@U?$_List_simple_types@PAV?$Goal@VRaven_Bot@@@@@std@@@2@XZ
_TEXT	SEGMENT
_this$ = -4						; size = 4
?_Get_data@?$_List_alloc@U?$_List_base_types@PAV?$Goal@VRaven_Bot@@@@V?$allocator@PAV?$Goal@VRaven_Bot@@@@@std@@@std@@@std@@QAEAAV?$_List_val@U?$_List_simple_types@PAV?$Goal@VRaven_Bot@@@@@std@@@2@XZ PROC ; std::_List_alloc<std::_List_base_types<Goal<Raven_Bot> *,std::allocator<Goal<Raven_Bot> *> > >::_Get_data, COMDAT
; _this$ = ecx

; 651  : 		{	// return reference to _List_val

	push	ebp
	mov	ebp, esp
	push	ecx
	mov	DWORD PTR [ebp-4], -858993460		; ccccccccH
	mov	DWORD PTR _this$[ebp], ecx

; 652  : 		return (_Mypair._Get_second());

	mov	ecx, DWORD PTR _this$[ebp]
	call	?_Get_second@?$_Compressed_pair@V?$allocator@U?$_List_node@PAV?$Goal@VRaven_Bot@@@@PAX@std@@@std@@V?$_List_val@U?$_List_simple_types@PAV?$Goal@VRaven_Bot@@@@@std@@@2@$00@std@@QAEAAV?$_List_val@U?$_List_simple_types@PAV?$Goal@VRaven_Bot@@@@@std@@@2@XZ ; std::_Compressed_pair<std::allocator<std::_List_node<Goal<Raven_Bot> *,void *> >,std::_List_val<std::_List_simple_types<Goal<Raven_Bot> *> >,1>::_Get_second

; 653  : 		}

	add	esp, 4
	cmp	ebp, esp
	call	__RTC_CheckEsp
	mov	esp, ebp
	pop	ebp
	ret	0
?_Get_data@?$_List_alloc@U?$_List_base_types@PAV?$Goal@VRaven_Bot@@@@V?$allocator@PAV?$Goal@VRaven_Bot@@@@@std@@@std@@@std@@QAEAAV?$_List_val@U?$_List_simple_types@PAV?$Goal@VRaven_Bot@@@@@std@@@2@XZ ENDP ; std::_List_alloc<std::_List_base_types<Goal<Raven_Bot> *,std::allocator<Goal<Raven_Bot> *> > >::_Get_data
_TEXT	ENDS
; Function compile flags: /Odtp /RTCsu
; File c:\program files (x86)\microsoft visual studio\2017\community\vc\tools\msvc\14.15.26726\include\list
;	COMDAT ?_Getal@?$_List_alloc@U?$_List_base_types@PAV?$Goal@VRaven_Bot@@@@V?$allocator@PAV?$Goal@VRaven_Bot@@@@@std@@@std@@@std@@QAEAAV?$allocator@U?$_List_node@PAV?$Goal@VRaven_Bot@@@@PAX@std@@@2@XZ
_TEXT	SEGMENT
_this$ = -4						; size = 4
?_Getal@?$_List_alloc@U?$_List_base_types@PAV?$Goal@VRaven_Bot@@@@V?$allocator@PAV?$Goal@VRaven_Bot@@@@@std@@@std@@@std@@QAEAAV?$allocator@U?$_List_node@PAV?$Goal@VRaven_Bot@@@@PAX@std@@@2@XZ PROC ; std::_List_alloc<std::_List_base_types<Goal<Raven_Bot> *,std::allocator<Goal<Raven_Bot> *> > >::_Getal, COMDAT
; _this$ = ecx

; 641  : 		{	// return reference to allocator

	push	ebp
	mov	ebp, esp
	push	ecx
	mov	DWORD PTR [ebp-4], -858993460		; ccccccccH
	mov	DWORD PTR _this$[ebp], ecx

; 642  : 		return (_Mypair._Get_first());

	mov	ecx, DWORD PTR _this$[ebp]
	call	?_Get_first@?$_Compressed_pair@V?$allocator@U?$_List_node@PAV?$Goal@VRaven_Bot@@@@PAX@std@@@std@@V?$_List_val@U?$_List_simple_types@PAV?$Goal@VRaven_Bot@@@@@std@@@2@$00@std@@QAEAAV?$allocator@U?$_List_node@PAV?$Goal@VRaven_Bot@@@@PAX@std@@@2@XZ ; std::_Compressed_pair<std::allocator<std::_List_node<Goal<Raven_Bot> *,void *> >,std::_List_val<std::_List_simple_types<Goal<Raven_Bot> *> >,1>::_Get_first

; 643  : 		}

	add	esp, 4
	cmp	ebp, esp
	call	__RTC_CheckEsp
	mov	esp, ebp
	pop	ebp
	ret	0
?_Getal@?$_List_alloc@U?$_List_base_types@PAV?$Goal@VRaven_Bot@@@@V?$allocator@PAV?$Goal@VRaven_Bot@@@@@std@@@std@@@std@@QAEAAV?$allocator@U?$_List_node@PAV?$Goal@VRaven_Bot@@@@PAX@std@@@2@XZ ENDP ; std::_List_alloc<std::_List_base_types<Goal<Raven_Bot> *,std::allocator<Goal<Raven_Bot> *> > >::_Getal
_TEXT	ENDS
; Function compile flags: /Odtp /RTCsu
; File c:\program files (x86)\microsoft visual studio\2017\community\vc\tools\msvc\14.15.26726\include\list
;	COMDAT ?_Getpfirst@?$_List_alloc@U?$_List_base_types@PAV?$Goal@VRaven_Bot@@@@V?$allocator@PAV?$Goal@VRaven_Bot@@@@@std@@@std@@@std@@QBEPAPAU_Iterator_base12@2@XZ
_TEXT	SEGMENT
_this$ = -4						; size = 4
?_Getpfirst@?$_List_alloc@U?$_List_base_types@PAV?$Goal@VRaven_Bot@@@@V?$allocator@PAV?$Goal@VRaven_Bot@@@@@std@@@std@@@std@@QBEPAPAU_Iterator_base12@2@XZ PROC ; std::_List_alloc<std::_List_base_types<Goal<Raven_Bot> *,std::allocator<Goal<Raven_Bot> *> > >::_Getpfirst, COMDAT
; _this$ = ecx

; 543  : 		{	// get address of iterator chain

	push	ebp
	mov	ebp, esp
	push	ecx
	mov	DWORD PTR [ebp-4], -858993460		; ccccccccH
	mov	DWORD PTR _this$[ebp], ecx

; 544  : 		return (_Get_data()._Getpfirst());

	mov	ecx, DWORD PTR _this$[ebp]
	call	?_Get_data@?$_List_alloc@U?$_List_base_types@PAV?$Goal@VRaven_Bot@@@@V?$allocator@PAV?$Goal@VRaven_Bot@@@@@std@@@std@@@std@@QBEABV?$_List_val@U?$_List_simple_types@PAV?$Goal@VRaven_Bot@@@@@std@@@2@XZ ; std::_List_alloc<std::_List_base_types<Goal<Raven_Bot> *,std::allocator<Goal<Raven_Bot> *> > >::_Get_data
	mov	ecx, eax
	call	?_Getpfirst@_Container_base12@std@@QBEPAPAU_Iterator_base12@2@XZ ; std::_Container_base12::_Getpfirst

; 545  : 		}

	add	esp, 4
	cmp	ebp, esp
	call	__RTC_CheckEsp
	mov	esp, ebp
	pop	ebp
	ret	0
?_Getpfirst@?$_List_alloc@U?$_List_base_types@PAV?$Goal@VRaven_Bot@@@@V?$allocator@PAV?$Goal@VRaven_Bot@@@@@std@@@std@@@std@@QBEPAPAU_Iterator_base12@2@XZ ENDP ; std::_List_alloc<std::_List_base_types<Goal<Raven_Bot> *,std::allocator<Goal<Raven_Bot> *> > >::_Getpfirst
_TEXT	ENDS
; Function compile flags: /Odtp /RTCsu
; File c:\program files (x86)\microsoft visual studio\2017\community\vc\tools\msvc\14.15.26726\include\xmemory0
;	COMDAT ?deallocate@?$_Default_allocator_traits@V?$allocator@U?$_List_node@PAV?$Goal@VRaven_Bot@@@@PAX@std@@@std@@@std@@SAXAAV?$allocator@U?$_List_node@PAV?$Goal@VRaven_Bot@@@@PAX@std@@@2@QAU?$_List_node@PAV?$Goal@VRaven_Bot@@@@PAX@2@I@Z
_TEXT	SEGMENT
___formal$ = 8						; size = 4
__Ptr$ = 12						; size = 4
__Count$ = 16						; size = 4
?deallocate@?$_Default_allocator_traits@V?$allocator@U?$_List_node@PAV?$Goal@VRaven_Bot@@@@PAX@std@@@std@@@std@@SAXAAV?$allocator@U?$_List_node@PAV?$Goal@VRaven_Bot@@@@PAX@std@@@2@QAU?$_List_node@PAV?$Goal@VRaven_Bot@@@@PAX@2@I@Z PROC ; std::_Default_allocator_traits<std::allocator<std::_List_node<Goal<Raven_Bot> *,void *> > >::deallocate, COMDAT

; 871  : 		{	// deallocate _Count elements at _Ptr

	push	ebp
	mov	ebp, esp

; 872  : 		// no overflow check on the following multiply; we assume _Allocate did that check
; 873  : 		_Deallocate<_New_alignof<value_type>>(_Ptr, sizeof(value_type) * _Count);

	imul	eax, DWORD PTR __Count$[ebp], 12
	push	eax
	mov	ecx, DWORD PTR __Ptr$[ebp]
	push	ecx
	call	??$_Deallocate@$07$0A@@std@@YAXPAXI@Z	; std::_Deallocate<8,0>
	add	esp, 8

; 874  : 		}

	cmp	ebp, esp
	call	__RTC_CheckEsp
	pop	ebp
	ret	0
?deallocate@?$_Default_allocator_traits@V?$allocator@U?$_List_node@PAV?$Goal@VRaven_Bot@@@@PAX@std@@@std@@@std@@SAXAAV?$allocator@U?$_List_node@PAV?$Goal@VRaven_Bot@@@@PAX@std@@@2@QAU?$_List_node@PAV?$Goal@VRaven_Bot@@@@PAX@2@I@Z ENDP ; std::_Default_allocator_traits<std::allocator<std::_List_node<Goal<Raven_Bot> *,void *> > >::deallocate
_TEXT	ENDS
; Function compile flags: /Odtp /RTCsu
;	COMDAT ??_G?$Goal@VRaven_Bot@@@@UAEPAXI@Z
_TEXT	SEGMENT
_this$ = -4						; size = 4
___flags$ = 8						; size = 4
??_G?$Goal@VRaven_Bot@@@@UAEPAXI@Z PROC			; Goal<Raven_Bot>::`scalar deleting destructor', COMDAT
; _this$ = ecx
	push	ebp
	mov	ebp, esp
	push	ecx
	mov	DWORD PTR [ebp-4], -858993460		; ccccccccH
	mov	DWORD PTR _this$[ebp], ecx
	mov	ecx, DWORD PTR _this$[ebp]
	call	??1?$Goal@VRaven_Bot@@@@UAE@XZ		; Goal<Raven_Bot>::~Goal<Raven_Bot>
	mov	eax, DWORD PTR ___flags$[ebp]
	and	eax, 1
	je	SHORT $LN2@scalar
	push	16					; 00000010H
	mov	ecx, DWORD PTR _this$[ebp]
	push	ecx
	call	??3@YAXPAXI@Z				; operator delete
	add	esp, 8
$LN2@scalar:
	mov	eax, DWORD PTR _this$[ebp]
	add	esp, 4
	cmp	ebp, esp
	call	__RTC_CheckEsp
	mov	esp, ebp
	pop	ebp
	ret	4
??_G?$Goal@VRaven_Bot@@@@UAEPAXI@Z ENDP			; Goal<Raven_Bot>::`scalar deleting destructor'
_TEXT	ENDS
; Function compile flags: /Odtp /RTCsu
; File c:\users\utilisateur\documents\gitkraken\8iar125-projetraven\vs2015\common\goals\goal.h
;	COMDAT ?Render@?$Goal@VRaven_Bot@@@@UAEXXZ
_TEXT	SEGMENT
_this$ = -4						; size = 4
?Render@?$Goal@VRaven_Bot@@@@UAEXXZ PROC		; Goal<Raven_Bot>::Render, COMDAT
; _this$ = ecx

; 93   :   virtual void Render(){}

	push	ebp
	mov	ebp, esp
	push	ecx
	mov	DWORD PTR [ebp-4], -858993460		; ccccccccH
	mov	DWORD PTR _this$[ebp], ecx
	mov	esp, ebp
	pop	ebp
	ret	0
?Render@?$Goal@VRaven_Bot@@@@UAEXXZ ENDP		; Goal<Raven_Bot>::Render
_TEXT	ENDS
; Function compile flags: /Odtp /RTCsu
; File c:\users\utilisateur\documents\gitkraken\8iar125-projetraven\vs2015\common\goals\goal.h
;	COMDAT ?RenderAtPos@?$Goal@VRaven_Bot@@@@UBEXAAUVector2D@@PAVTypeToString@@@Z
_TEXT	SEGMENT
tv155 = -56						; size = 4
tv156 = -52						; size = 4
$T2 = -48						; size = 28
_this$ = -20						; size = 4
__$ArrayPad$ = -16					; size = 4
__$EHRec$ = -12						; size = 12
_pos$ = 8						; size = 4
_tts$ = 12						; size = 4
?RenderAtPos@?$Goal@VRaven_Bot@@@@UBEXAAUVector2D@@PAVTypeToString@@@Z PROC ; Goal<Raven_Bot>::RenderAtPos, COMDAT
; _this$ = ecx

; 123  : {

	push	ebp
	mov	ebp, esp
	push	-1
	push	__ehhandler$?RenderAtPos@?$Goal@VRaven_Bot@@@@UBEXAAUVector2D@@PAVTypeToString@@@Z
	mov	eax, DWORD PTR fs:0
	push	eax
	sub	esp, 44					; 0000002cH
	push	esi
	push	edi
	push	ecx
	lea	edi, DWORD PTR [ebp-56]
	mov	ecx, 11					; 0000000bH
	mov	eax, -858993460				; ccccccccH
	rep stosd
	pop	ecx
	mov	eax, DWORD PTR ___security_cookie
	xor	eax, ebp
	mov	DWORD PTR __$ArrayPad$[ebp], eax
	push	eax
	lea	eax, DWORD PTR __$EHRec$[ebp]
	mov	DWORD PTR fs:0, eax
	mov	DWORD PTR _this$[ebp], ecx

; 124  :   pos.y += 15;

	mov	eax, DWORD PTR _pos$[ebp]
	movsd	xmm0, QWORD PTR [eax+8]
	addsd	xmm0, QWORD PTR __real@402e000000000000
	mov	ecx, DWORD PTR _pos$[ebp]
	movsd	QWORD PTR [ecx+8], xmm0

; 125  :   gdi->TransparentText();

	call	?Instance@Cgdi@@SAPAV1@XZ		; Cgdi::Instance
	mov	ecx, eax
	call	?TransparentText@Cgdi@@QAEXXZ		; Cgdi::TransparentText

; 126  :   if (isComplete()) gdi->TextColor(0,255,0);

	mov	ecx, DWORD PTR _this$[ebp]
	call	?isComplete@?$Goal@VRaven_Bot@@@@QBE_NXZ ; Goal<Raven_Bot>::isComplete
	movzx	edx, al
	test	edx, edx
	je	SHORT $LN2@RenderAtPo
	push	0
	push	255					; 000000ffH
	push	0
	call	?Instance@Cgdi@@SAPAV1@XZ		; Cgdi::Instance
	mov	ecx, eax
	call	?TextColor@Cgdi@@QAEXHHH@Z		; Cgdi::TextColor
$LN2@RenderAtPo:

; 127  :   if (isInactive()) gdi->TextColor(0,0,0);

	mov	ecx, DWORD PTR _this$[ebp]
	call	?isInactive@?$Goal@VRaven_Bot@@@@QBE_NXZ ; Goal<Raven_Bot>::isInactive
	movzx	eax, al
	test	eax, eax
	je	SHORT $LN3@RenderAtPo
	push	0
	push	0
	push	0
	call	?Instance@Cgdi@@SAPAV1@XZ		; Cgdi::Instance
	mov	ecx, eax
	call	?TextColor@Cgdi@@QAEXHHH@Z		; Cgdi::TextColor
$LN3@RenderAtPo:

; 128  :   if (hasFailed()) gdi->TextColor(255,0,0);

	mov	ecx, DWORD PTR _this$[ebp]
	call	?hasFailed@?$Goal@VRaven_Bot@@@@QBE_NXZ	; Goal<Raven_Bot>::hasFailed
	movzx	ecx, al
	test	ecx, ecx
	je	SHORT $LN4@RenderAtPo
	push	0
	push	0
	push	255					; 000000ffH
	call	?Instance@Cgdi@@SAPAV1@XZ		; Cgdi::Instance
	mov	ecx, eax
	call	?TextColor@Cgdi@@QAEXHHH@Z		; Cgdi::TextColor
$LN4@RenderAtPo:

; 129  :   if (isActive()) gdi->TextColor(0,0,255);

	mov	ecx, DWORD PTR _this$[ebp]
	call	?isActive@?$Goal@VRaven_Bot@@@@QBE_NXZ	; Goal<Raven_Bot>::isActive
	movzx	edx, al
	test	edx, edx
	je	SHORT $LN5@RenderAtPo
	push	255					; 000000ffH
	push	0
	push	0
	call	?Instance@Cgdi@@SAPAV1@XZ		; Cgdi::Instance
	mov	ecx, eax
	call	?TextColor@Cgdi@@QAEXHHH@Z		; Cgdi::TextColor
$LN5@RenderAtPo:

; 130  : 
; 131  :   gdi->TextAtPos(pos.x, pos.y, tts->Convert(GetType())); 

	mov	ecx, DWORD PTR _this$[ebp]
	call	?GetType@?$Goal@VRaven_Bot@@@@QBEHXZ	; Goal<Raven_Bot>::GetType
	mov	esi, esp
	push	eax
	lea	eax, DWORD PTR $T2[ebp]
	push	eax
	mov	ecx, DWORD PTR _tts$[ebp]
	mov	edx, DWORD PTR [ecx]
	mov	ecx, DWORD PTR _tts$[ebp]
	mov	eax, DWORD PTR [edx]
	call	eax
	cmp	esi, esp
	call	__RTC_CheckEsp
	mov	DWORD PTR tv156[ebp], eax
	mov	ecx, DWORD PTR tv156[ebp]
	mov	DWORD PTR tv155[ebp], ecx
	mov	DWORD PTR __$EHRec$[ebp+8], 0
	mov	edx, DWORD PTR tv155[ebp]
	push	edx
	mov	eax, DWORD PTR _pos$[ebp]
	sub	esp, 8
	movsd	xmm0, QWORD PTR [eax+8]
	movsd	QWORD PTR [esp], xmm0
	mov	ecx, DWORD PTR _pos$[ebp]
	sub	esp, 8
	movsd	xmm0, QWORD PTR [ecx]
	movsd	QWORD PTR [esp], xmm0
	call	?Instance@Cgdi@@SAPAV1@XZ		; Cgdi::Instance
	mov	ecx, eax
	call	?TextAtPos@Cgdi@@QAEXNNABV?$basic_string@DU?$char_traits@D@std@@V?$allocator@D@2@@std@@@Z ; Cgdi::TextAtPos
	mov	DWORD PTR __$EHRec$[ebp+8], -1
	lea	ecx, DWORD PTR $T2[ebp]
	call	??1?$basic_string@DU?$char_traits@D@std@@V?$allocator@D@2@@std@@QAE@XZ ; std::basic_string<char,std::char_traits<char>,std::allocator<char> >::~basic_string<char,std::char_traits<char>,std::allocator<char> >

; 132  : }

	mov	ecx, DWORD PTR __$EHRec$[ebp]
	mov	DWORD PTR fs:0, ecx
	pop	ecx
	pop	edi
	pop	esi
	mov	ecx, DWORD PTR __$ArrayPad$[ebp]
	xor	ecx, ebp
	call	@__security_check_cookie@4
	add	esp, 56					; 00000038H
	cmp	ebp, esp
	call	__RTC_CheckEsp
	mov	esp, ebp
	pop	ebp
	ret	8
_TEXT	ENDS
;	COMDAT text$x
text$x	SEGMENT
__unwindfunclet$?RenderAtPos@?$Goal@VRaven_Bot@@@@UBEXAAUVector2D@@PAVTypeToString@@@Z$0:
	lea	ecx, DWORD PTR $T2[ebp]
	jmp	??1?$basic_string@DU?$char_traits@D@std@@V?$allocator@D@2@@std@@QAE@XZ ; std::basic_string<char,std::char_traits<char>,std::allocator<char> >::~basic_string<char,std::char_traits<char>,std::allocator<char> >
__ehhandler$?RenderAtPos@?$Goal@VRaven_Bot@@@@UBEXAAUVector2D@@PAVTypeToString@@@Z:
	mov	edx, DWORD PTR [esp+8]
	lea	eax, DWORD PTR [edx+12]
	mov	ecx, DWORD PTR [edx-56]
	xor	ecx, eax
	call	@__security_check_cookie@4
	mov	ecx, DWORD PTR [edx-4]
	xor	ecx, eax
	call	@__security_check_cookie@4
	mov	eax, OFFSET __ehfuncinfo$?RenderAtPos@?$Goal@VRaven_Bot@@@@UBEXAAUVector2D@@PAVTypeToString@@@Z
	jmp	___CxxFrameHandler3
text$x	ENDS
?RenderAtPos@?$Goal@VRaven_Bot@@@@UBEXAAUVector2D@@PAVTypeToString@@@Z ENDP ; Goal<Raven_Bot>::RenderAtPos
; Function compile flags: /Odtp /RTCsu
; File c:\users\utilisateur\documents\gitkraken\8iar125-projetraven\vs2015\common\goals\goal.h
;	COMDAT ?GetType@?$Goal@VRaven_Bot@@@@QBEHXZ
_TEXT	SEGMENT
_this$ = -4						; size = 4
?GetType@?$Goal@VRaven_Bot@@@@QBEHXZ PROC		; Goal<Raven_Bot>::GetType, COMDAT
; _this$ = ecx

; 84   :   int          GetType()const{return m_iType;}

	push	ebp
	mov	ebp, esp
	push	ecx
	mov	DWORD PTR [ebp-4], -858993460		; ccccccccH
	mov	DWORD PTR _this$[ebp], ecx
	mov	eax, DWORD PTR _this$[ebp]
	mov	eax, DWORD PTR [eax+4]
	mov	esp, ebp
	pop	ebp
	ret	0
?GetType@?$Goal@VRaven_Bot@@@@QBEHXZ ENDP		; Goal<Raven_Bot>::GetType
_TEXT	ENDS
; Function compile flags: /Odtp /RTCsu
; File c:\users\utilisateur\documents\gitkraken\8iar125-projetraven\vs2015\common\goals\goal.h
;	COMDAT ?hasFailed@?$Goal@VRaven_Bot@@@@QBE_NXZ
_TEXT	SEGMENT
tv66 = -8						; size = 4
_this$ = -4						; size = 4
?hasFailed@?$Goal@VRaven_Bot@@@@QBE_NXZ PROC		; Goal<Raven_Bot>::hasFailed, COMDAT
; _this$ = ecx

; 83   :   bool         hasFailed()const{return m_iStatus == failed;}

	push	ebp
	mov	ebp, esp
	sub	esp, 8
	mov	DWORD PTR [ebp-8], -858993460		; ccccccccH
	mov	DWORD PTR [ebp-4], -858993460		; ccccccccH
	mov	DWORD PTR _this$[ebp], ecx
	mov	eax, DWORD PTR _this$[ebp]
	cmp	DWORD PTR [eax+12], 3
	jne	SHORT $LN3@hasFailed
	mov	DWORD PTR tv66[ebp], 1
	jmp	SHORT $LN4@hasFailed
$LN3@hasFailed:
	mov	DWORD PTR tv66[ebp], 0
$LN4@hasFailed:
	mov	al, BYTE PTR tv66[ebp]
	mov	esp, ebp
	pop	ebp
	ret	0
?hasFailed@?$Goal@VRaven_Bot@@@@QBE_NXZ ENDP		; Goal<Raven_Bot>::hasFailed
_TEXT	ENDS
; Function compile flags: /Odtp /RTCsu
; File c:\users\utilisateur\documents\gitkraken\8iar125-projetraven\vs2015\common\goals\goal.h
;	COMDAT ?isInactive@?$Goal@VRaven_Bot@@@@QBE_NXZ
_TEXT	SEGMENT
tv66 = -8						; size = 4
_this$ = -4						; size = 4
?isInactive@?$Goal@VRaven_Bot@@@@QBE_NXZ PROC		; Goal<Raven_Bot>::isInactive, COMDAT
; _this$ = ecx

; 82   :   bool         isInactive()const{return m_iStatus == inactive;}

	push	ebp
	mov	ebp, esp
	sub	esp, 8
	mov	DWORD PTR [ebp-8], -858993460		; ccccccccH
	mov	DWORD PTR [ebp-4], -858993460		; ccccccccH
	mov	DWORD PTR _this$[ebp], ecx
	mov	eax, DWORD PTR _this$[ebp]
	cmp	DWORD PTR [eax+12], 1
	jne	SHORT $LN3@isInactive
	mov	DWORD PTR tv66[ebp], 1
	jmp	SHORT $LN4@isInactive
$LN3@isInactive:
	mov	DWORD PTR tv66[ebp], 0
$LN4@isInactive:
	mov	al, BYTE PTR tv66[ebp]
	mov	esp, ebp
	pop	ebp
	ret	0
?isInactive@?$Goal@VRaven_Bot@@@@QBE_NXZ ENDP		; Goal<Raven_Bot>::isInactive
_TEXT	ENDS
; Function compile flags: /Odtp /RTCsu
; File c:\users\utilisateur\documents\gitkraken\8iar125-projetraven\vs2015\common\goals\goal.h
;	COMDAT ?isActive@?$Goal@VRaven_Bot@@@@QBE_NXZ
_TEXT	SEGMENT
tv66 = -8						; size = 4
_this$ = -4						; size = 4
?isActive@?$Goal@VRaven_Bot@@@@QBE_NXZ PROC		; Goal<Raven_Bot>::isActive, COMDAT
; _this$ = ecx

; 81   :   bool         isActive()const{return m_iStatus == active;}

	push	ebp
	mov	ebp, esp
	sub	esp, 8
	mov	DWORD PTR [ebp-8], -858993460		; ccccccccH
	mov	DWORD PTR [ebp-4], -858993460		; ccccccccH
	mov	DWORD PTR _this$[ebp], ecx
	mov	eax, DWORD PTR _this$[ebp]
	cmp	DWORD PTR [eax+12], 0
	jne	SHORT $LN3@isActive
	mov	DWORD PTR tv66[ebp], 1
	jmp	SHORT $LN4@isActive
$LN3@isActive:
	mov	DWORD PTR tv66[ebp], 0
$LN4@isActive:
	mov	al, BYTE PTR tv66[ebp]
	mov	esp, ebp
	pop	ebp
	ret	0
?isActive@?$Goal@VRaven_Bot@@@@QBE_NXZ ENDP		; Goal<Raven_Bot>::isActive
_TEXT	ENDS
; Function compile flags: /Odtp /RTCsu
; File c:\users\utilisateur\documents\gitkraken\8iar125-projetraven\vs2015\common\goals\goal.h
;	COMDAT ?isComplete@?$Goal@VRaven_Bot@@@@QBE_NXZ
_TEXT	SEGMENT
tv66 = -8						; size = 4
_this$ = -4						; size = 4
?isComplete@?$Goal@VRaven_Bot@@@@QBE_NXZ PROC		; Goal<Raven_Bot>::isComplete, COMDAT
; _this$ = ecx

; 80   :   bool         isComplete()const{return m_iStatus == completed;} 

	push	ebp
	mov	ebp, esp
	sub	esp, 8
	mov	DWORD PTR [ebp-8], -858993460		; ccccccccH
	mov	DWORD PTR [ebp-4], -858993460		; ccccccccH
	mov	DWORD PTR _this$[ebp], ecx
	mov	eax, DWORD PTR _this$[ebp]
	cmp	DWORD PTR [eax+12], 2
	jne	SHORT $LN3@isComplete
	mov	DWORD PTR tv66[ebp], 1
	jmp	SHORT $LN4@isComplete
$LN3@isComplete:
	mov	DWORD PTR tv66[ebp], 0
$LN4@isComplete:
	mov	al, BYTE PTR tv66[ebp]
	mov	esp, ebp
	pop	ebp
	ret	0
?isComplete@?$Goal@VRaven_Bot@@@@QBE_NXZ ENDP		; Goal<Raven_Bot>::isComplete
_TEXT	ENDS
; Function compile flags: /Odtp /RTCsu
; File c:\users\utilisateur\documents\gitkraken\8iar125-projetraven\vs2015\common\goals\goal.h
;	COMDAT ?AddSubgoal@?$Goal@VRaven_Bot@@@@UAEXPAV1@@Z
_TEXT	SEGMENT
$T1 = -16						; size = 12
_this$ = -4						; size = 4
_g$ = 8							; size = 4
?AddSubgoal@?$Goal@VRaven_Bot@@@@UAEXPAV1@@Z PROC	; Goal<Raven_Bot>::AddSubgoal, COMDAT
; _this$ = ecx

; 77   :   {throw std::runtime_error("Cannot add goals to atomic goals");}

	push	ebp
	mov	ebp, esp
	sub	esp, 16					; 00000010H
	mov	eax, -858993460				; ccccccccH
	mov	DWORD PTR [ebp-16], eax
	mov	DWORD PTR [ebp-12], eax
	mov	DWORD PTR [ebp-8], eax
	mov	DWORD PTR [ebp-4], eax
	mov	DWORD PTR _this$[ebp], ecx
	push	OFFSET ??_C@_0CB@OHIHCHGJ@Cannot?5add?5goals?5to?5atomic?5goal@
	lea	ecx, DWORD PTR $T1[ebp]
	call	??0runtime_error@std@@QAE@PBD@Z		; std::runtime_error::runtime_error
	push	OFFSET __TI2?AVruntime_error@std@@
	lea	eax, DWORD PTR $T1[ebp]
	push	eax
	call	__CxxThrowException@8
$LN2@AddSubgoal:
	add	esp, 16					; 00000010H
	cmp	ebp, esp
	call	__RTC_CheckEsp
	mov	esp, ebp
	pop	ebp
	ret	4
?AddSubgoal@?$Goal@VRaven_Bot@@@@UAEXPAV1@@Z ENDP	; Goal<Raven_Bot>::AddSubgoal
_TEXT	ENDS
; Function compile flags: /Odtp /RTCsu
; File c:\users\utilisateur\documents\gitkraken\8iar125-projetraven\vs2015\common\goals\goal.h
;	COMDAT ?HandleMessage@?$Goal@VRaven_Bot@@@@UAE_NABUTelegram@@@Z
_TEXT	SEGMENT
_this$ = -4						; size = 4
_msg$ = 8						; size = 4
?HandleMessage@?$Goal@VRaven_Bot@@@@UAE_NABUTelegram@@@Z PROC ; Goal<Raven_Bot>::HandleMessage, COMDAT
; _this$ = ecx

; 70   :   virtual bool HandleMessage(const Telegram& msg){return false;}

	push	ebp
	mov	ebp, esp
	push	ecx
	mov	DWORD PTR [ebp-4], -858993460		; ccccccccH
	mov	DWORD PTR _this$[ebp], ecx
	xor	al, al
	mov	esp, ebp
	pop	ebp
	ret	4
?HandleMessage@?$Goal@VRaven_Bot@@@@UAE_NABUTelegram@@@Z ENDP ; Goal<Raven_Bot>::HandleMessage
_TEXT	ENDS
; Function compile flags: /Odtp /RTCsu
; File c:\users\utilisateur\documents\gitkraken\8iar125-projetraven\vs2015\common\goals\goal.h
;	COMDAT ??1?$Goal@VRaven_Bot@@@@UAE@XZ
_TEXT	SEGMENT
_this$ = -4						; size = 4
??1?$Goal@VRaven_Bot@@@@UAE@XZ PROC			; Goal<Raven_Bot>::~Goal<Raven_Bot>, COMDAT
; _this$ = ecx

; 56   :   virtual ~Goal(){}

	push	ebp
	mov	ebp, esp
	push	ecx
	mov	DWORD PTR [ebp-4], -858993460		; ccccccccH
	mov	DWORD PTR _this$[ebp], ecx
	mov	eax, DWORD PTR _this$[ebp]
	mov	DWORD PTR [eax], OFFSET ??_7?$Goal@VRaven_Bot@@@@6B@
	mov	esp, ebp
	pop	ebp
	ret	0
??1?$Goal@VRaven_Bot@@@@UAE@XZ ENDP			; Goal<Raven_Bot>::~Goal<Raven_Bot>
_TEXT	ENDS
; Function compile flags: /Odtp /RTCsu
; File c:\users\utilisateur\documents\gitkraken\8iar125-projetraven\vs2015\common\goals\goal.h
;	COMDAT ??0?$Goal@VRaven_Bot@@@@QAE@PAVRaven_Bot@@H@Z
_TEXT	SEGMENT
_this$ = -4						; size = 4
_pE$ = 8						; size = 4
_type$ = 12						; size = 4
??0?$Goal@VRaven_Bot@@@@QAE@PAVRaven_Bot@@H@Z PROC	; Goal<Raven_Bot>::Goal<Raven_Bot>, COMDAT
; _this$ = ecx

; 54   :   {}

	push	ebp
	mov	ebp, esp
	push	ecx
	mov	DWORD PTR [ebp-4], -858993460		; ccccccccH
	mov	DWORD PTR _this$[ebp], ecx
	mov	eax, DWORD PTR _this$[ebp]
	mov	DWORD PTR [eax], OFFSET ??_7?$Goal@VRaven_Bot@@@@6B@

; 51   :   Goal(entity_type*  pE, int type):m_iType(type),

	mov	ecx, DWORD PTR _this$[ebp]
	mov	edx, DWORD PTR _type$[ebp]
	mov	DWORD PTR [ecx+4], edx

; 52   :                                    m_pOwner(pE),

	mov	eax, DWORD PTR _this$[ebp]
	mov	ecx, DWORD PTR _pE$[ebp]
	mov	DWORD PTR [eax+8], ecx

; 53   :                                    m_iStatus(inactive)

	mov	edx, DWORD PTR _this$[ebp]
	mov	DWORD PTR [edx+12], 1

; 54   :   {}

	mov	eax, DWORD PTR _this$[ebp]
	mov	esp, ebp
	pop	ebp
	ret	8
??0?$Goal@VRaven_Bot@@@@QAE@PAVRaven_Bot@@H@Z ENDP	; Goal<Raven_Bot>::Goal<Raven_Bot>
_TEXT	ENDS
; Function compile flags: /Odtp /RTCsu
; File c:\users\utilisateur\documents\gitkraken\8iar125-projetraven\vs2015\common\goals\goal.h
;	COMDAT ?ActivateIfInactive@?$Goal@VRaven_Bot@@@@IAEXXZ
_TEXT	SEGMENT
_this$ = -4						; size = 4
?ActivateIfInactive@?$Goal@VRaven_Bot@@@@IAEXXZ PROC	; Goal<Raven_Bot>::ActivateIfInactive, COMDAT
; _this$ = ecx

; 114  : {

	push	ebp
	mov	ebp, esp
	push	ecx
	push	esi
	mov	DWORD PTR [ebp-4], -858993460		; ccccccccH
	mov	DWORD PTR _this$[ebp], ecx

; 115  :   if (isInactive())

	mov	ecx, DWORD PTR _this$[ebp]
	call	?isInactive@?$Goal@VRaven_Bot@@@@QBE_NXZ ; Goal<Raven_Bot>::isInactive
	movzx	eax, al
	test	eax, eax
	je	SHORT $LN1@ActivateIf

; 116  :   {
; 117  :     Activate();   

	mov	ecx, DWORD PTR _this$[ebp]
	mov	edx, DWORD PTR [ecx]
	mov	esi, esp
	mov	ecx, DWORD PTR _this$[ebp]
	mov	eax, DWORD PTR [edx+4]
	call	eax
	cmp	esi, esp
	call	__RTC_CheckEsp
$LN1@ActivateIf:

; 118  :   }
; 119  : }

	pop	esi
	add	esp, 4
	cmp	ebp, esp
	call	__RTC_CheckEsp
	mov	esp, ebp
	pop	ebp
	ret	0
?ActivateIfInactive@?$Goal@VRaven_Bot@@@@IAEXXZ ENDP	; Goal<Raven_Bot>::ActivateIfInactive
_TEXT	ENDS
; Function compile flags: /Odtp /RTCsu
; File c:\users\utilisateur\documents\gitkraken\8iar125-projetraven\vs2015\buckland_chapter7 to 10_raven\goals\goal_getitem.cpp
_TEXT	SEGMENT
tv64 = -16						; size = 4
$T1 = -12						; size = 12
_gt$ = 8						; size = 4
?ItemTypeToGoalType@@YAHH@Z PROC			; ItemTypeToGoalType

; 14   : {

	push	ebp
	mov	ebp, esp
	sub	esp, 16					; 00000010H
	mov	eax, -858993460				; ccccccccH
	mov	DWORD PTR [ebp-16], eax
	mov	DWORD PTR [ebp-12], eax
	mov	DWORD PTR [ebp-8], eax
	mov	DWORD PTR [ebp-4], eax

; 15   :   switch(gt)

	mov	eax, DWORD PTR _gt$[ebp]
	mov	DWORD PTR tv64[ebp], eax
	mov	ecx, DWORD PTR tv64[ebp]
	sub	ecx, 4
	mov	DWORD PTR tv64[ebp], ecx
	cmp	DWORD PTR tv64[ebp], 4
	ja	SHORT $LN8@ItemTypeTo
	mov	edx, DWORD PTR tv64[ebp]
	jmp	DWORD PTR $LN10@ItemTypeTo[edx*4]
$LN4@ItemTypeTo:

; 16   :   {
; 17   :   case type_health:
; 18   : 
; 19   :     return goal_get_health;

	mov	eax, 7
	jmp	SHORT $LN9@ItemTypeTo
$LN5@ItemTypeTo:

; 20   : 
; 21   :   case type_shotgun:
; 22   : 
; 23   :     return goal_get_shotgun;

	mov	eax, 8
	jmp	SHORT $LN9@ItemTypeTo
$LN6@ItemTypeTo:

; 24   : 
; 25   :   case type_rail_gun:
; 26   : 
; 27   :     return goal_get_railgun;

	mov	eax, 10					; 0000000aH
	jmp	SHORT $LN9@ItemTypeTo
$LN7@ItemTypeTo:

; 28   : 
; 29   :   case type_rocket_launcher:
; 30   : 
; 31   :     return goal_get_rocket_launcher;

	mov	eax, 9
	jmp	SHORT $LN9@ItemTypeTo
$LN8@ItemTypeTo:

; 32   : 
; 33   :   default: throw std::runtime_error("Goal_GetItem cannot determine item type");

	push	OFFSET $SG160939
	lea	ecx, DWORD PTR $T1[ebp]
	call	??0runtime_error@std@@QAE@PBD@Z		; std::runtime_error::runtime_error
	push	OFFSET __TI2?AVruntime_error@std@@
	lea	eax, DWORD PTR $T1[ebp]
	push	eax
	call	__CxxThrowException@8
$LN9@ItemTypeTo:

; 34   : 
; 35   :   }//end switch
; 36   : }

	add	esp, 16					; 00000010H
	cmp	ebp, esp
	call	__RTC_CheckEsp
	mov	esp, ebp
	pop	ebp
	ret	0
	npad	1
$LN10@ItemTypeTo:
	DD	$LN4@ItemTypeTo
	DD	$LN8@ItemTypeTo
	DD	$LN6@ItemTypeTo
	DD	$LN7@ItemTypeTo
	DD	$LN5@ItemTypeTo
?ItemTypeToGoalType@@YAHH@Z ENDP			; ItemTypeToGoalType
_TEXT	ENDS
; Function compile flags: /Odtp /RTCsu
; File c:\users\utilisateur\documents\gitkraken\8iar125-projetraven\vs2015\buckland_chapter7 to 10_raven\raven_bot.h
;	COMDAT ?GetPathPlanner@Raven_Bot@@QAEQAVRaven_PathPlanner@@XZ
_TEXT	SEGMENT
_this$ = -4						; size = 4
?GetPathPlanner@Raven_Bot@@QAEQAVRaven_PathPlanner@@XZ PROC ; Raven_Bot::GetPathPlanner, COMDAT
; _this$ = ecx

; 215  :   Raven_PathPlanner* const           GetPathPlanner(){return m_pPathPlanner;}

	push	ebp
	mov	ebp, esp
	push	ecx
	mov	DWORD PTR [ebp-4], -858993460		; ccccccccH
	mov	DWORD PTR _this$[ebp], ecx
	mov	eax, DWORD PTR _this$[ebp]
	mov	eax, DWORD PTR [eax+168]
	mov	esp, ebp
	pop	ebp
	ret	0
?GetPathPlanner@Raven_Bot@@QAEQAVRaven_PathPlanner@@XZ ENDP ; Raven_Bot::GetPathPlanner
_TEXT	ENDS
; Function compile flags: /Odtp /RTCsu
; File c:\users\utilisateur\documents\gitkraken\8iar125-projetraven\vs2015\common\game\basegameentity.h
;	COMDAT ?Pos@BaseGameEntity@@QBE?AUVector2D@@XZ
_TEXT	SEGMENT
_this$ = -4						; size = 4
___$ReturnUdt$ = 8					; size = 4
?Pos@BaseGameEntity@@QBE?AUVector2D@@XZ PROC		; BaseGameEntity::Pos, COMDAT
; _this$ = ecx

; 89   :   Vector2D     Pos()const{return m_vPosition;}

	push	ebp
	mov	ebp, esp
	push	ecx
	mov	DWORD PTR [ebp-4], -858993460		; ccccccccH
	mov	DWORD PTR _this$[ebp], ecx
	mov	eax, DWORD PTR _this$[ebp]
	add	eax, 24					; 00000018H
	mov	ecx, DWORD PTR ___$ReturnUdt$[ebp]
	mov	edx, DWORD PTR [eax]
	mov	DWORD PTR [ecx], edx
	mov	edx, DWORD PTR [eax+4]
	mov	DWORD PTR [ecx+4], edx
	mov	edx, DWORD PTR [eax+8]
	mov	DWORD PTR [ecx+8], edx
	mov	eax, DWORD PTR [eax+12]
	mov	DWORD PTR [ecx+12], eax
	mov	eax, DWORD PTR ___$ReturnUdt$[ebp]
	mov	esp, ebp
	pop	ebp
	ret	4
?Pos@BaseGameEntity@@QBE?AUVector2D@@XZ ENDP		; BaseGameEntity::Pos
_TEXT	ENDS
; Function compile flags: /Odtp /RTCsu
; File c:\users\utilisateur\documents\gitkraken\8iar125-projetraven\vs2015\common\misc\cgdi.h
;	COMDAT ?TextColor@Cgdi@@QAEXHHH@Z
_TEXT	SEGMENT
_this$ = -4						; size = 4
_r$ = 8							; size = 4
_g$ = 12						; size = 4
_b$ = 16						; size = 4
?TextColor@Cgdi@@QAEXHHH@Z PROC				; Cgdi::TextColor, COMDAT
; _this$ = ecx

; 227  :   void TextColor(int r, int g, int b){SetTextColor(m_hdc, RGB(r,g,b));}

	push	ebp
	mov	ebp, esp
	push	ecx
	push	esi
	mov	DWORD PTR [ebp-4], -858993460		; ccccccccH
	mov	DWORD PTR _this$[ebp], ecx
	movzx	eax, BYTE PTR _r$[ebp]
	movzx	ecx, BYTE PTR _g$[ebp]
	shl	ecx, 8
	or	eax, ecx
	movzx	edx, BYTE PTR _b$[ebp]
	shl	edx, 16					; 00000010H
	or	eax, edx
	mov	esi, esp
	push	eax
	mov	eax, DWORD PTR _this$[ebp]
	mov	ecx, DWORD PTR [eax+124]
	push	ecx
	call	DWORD PTR __imp__SetTextColor@8
	cmp	esi, esp
	call	__RTC_CheckEsp
	pop	esi
	add	esp, 4
	cmp	ebp, esp
	call	__RTC_CheckEsp
	mov	esp, ebp
	pop	ebp
	ret	12					; 0000000cH
?TextColor@Cgdi@@QAEXHHH@Z ENDP				; Cgdi::TextColor
_TEXT	ENDS
; Function compile flags: /Odtp /RTCsu
; File c:\users\utilisateur\documents\gitkraken\8iar125-projetraven\vs2015\common\misc\cgdi.h
;	COMDAT ?TransparentText@Cgdi@@QAEXXZ
_TEXT	SEGMENT
_this$ = -4						; size = 4
?TransparentText@Cgdi@@QAEXXZ PROC			; Cgdi::TransparentText, COMDAT
; _this$ = ecx

; 222  :   void TransparentText(){SetBkMode(m_hdc, TRANSPARENT);}

	push	ebp
	mov	ebp, esp
	push	ecx
	push	esi
	mov	DWORD PTR [ebp-4], -858993460		; ccccccccH
	mov	DWORD PTR _this$[ebp], ecx
	mov	esi, esp
	push	1
	mov	eax, DWORD PTR _this$[ebp]
	mov	ecx, DWORD PTR [eax+124]
	push	ecx
	call	DWORD PTR __imp__SetBkMode@8
	cmp	esi, esp
	call	__RTC_CheckEsp
	pop	esi
	add	esp, 4
	cmp	ebp, esp
	call	__RTC_CheckEsp
	mov	esp, ebp
	pop	ebp
	ret	0
?TransparentText@Cgdi@@QAEXXZ ENDP			; Cgdi::TransparentText
_TEXT	ENDS
; Function compile flags: /Odtp /RTCsu
; File c:\users\utilisateur\documents\gitkraken\8iar125-projetraven\vs2015\common\misc\cgdi.h
;	COMDAT ?TextAtPos@Cgdi@@QAEXNNABV?$basic_string@DU?$char_traits@D@std@@V?$allocator@D@2@@std@@@Z
_TEXT	SEGMENT
_this$ = -4						; size = 4
_x$ = 8							; size = 8
_y$ = 16						; size = 8
_s$ = 24						; size = 4
?TextAtPos@Cgdi@@QAEXNNABV?$basic_string@DU?$char_traits@D@std@@V?$allocator@D@2@@std@@@Z PROC ; Cgdi::TextAtPos, COMDAT
; _this$ = ecx

; 213  :   {

	push	ebp
	mov	ebp, esp
	push	ecx
	push	esi
	mov	DWORD PTR [ebp-4], -858993460		; ccccccccH
	mov	DWORD PTR _this$[ebp], ecx

; 214  :     TextOut(m_hdc, (int)x, (int)y, s.c_str(), (int)s.size());

	mov	ecx, DWORD PTR _s$[ebp]
	call	?size@?$basic_string@DU?$char_traits@D@std@@V?$allocator@D@2@@std@@QBEIXZ ; std::basic_string<char,std::char_traits<char>,std::allocator<char> >::size
	mov	esi, esp
	push	eax
	mov	ecx, DWORD PTR _s$[ebp]
	call	?c_str@?$basic_string@DU?$char_traits@D@std@@V?$allocator@D@2@@std@@QBEPBDXZ ; std::basic_string<char,std::char_traits<char>,std::allocator<char> >::c_str
	push	eax
	cvttsd2si eax, QWORD PTR _y$[ebp]
	push	eax
	cvttsd2si ecx, QWORD PTR _x$[ebp]
	push	ecx
	mov	edx, DWORD PTR _this$[ebp]
	mov	eax, DWORD PTR [edx+124]
	push	eax
	call	DWORD PTR __imp__TextOutA@20
	cmp	esi, esp
	call	__RTC_CheckEsp

; 215  :   }

	pop	esi
	add	esp, 4
	cmp	ebp, esp
	call	__RTC_CheckEsp
	mov	esp, ebp
	pop	ebp
	ret	20					; 00000014H
?TextAtPos@Cgdi@@QAEXNNABV?$basic_string@DU?$char_traits@D@std@@V?$allocator@D@2@@std@@@Z ENDP ; Cgdi::TextAtPos
_TEXT	ENDS
; Function compile flags: /Odtp /RTCsu
; File c:\users\utilisateur\documents\gitkraken\8iar125-projetraven\vs2015\common\misc\utils.h
;	COMDAT ??__EMinFloat@@YAXXZ
text$di	SEGMENT
??__EMinFloat@@YAXXZ PROC				; `dynamic initializer for 'MinFloat'', COMDAT

; 27   : const float   MinFloat  = (std::numeric_limits<float>::min)();

	push	ebp
	mov	ebp, esp
	call	?min@?$numeric_limits@M@std@@SAMXZ	; std::numeric_limits<float>::min
	fstp	DWORD PTR ?MinFloat@@3MB
	cmp	ebp, esp
	call	__RTC_CheckEsp
	pop	ebp
	ret	0
??__EMinFloat@@YAXXZ ENDP				; `dynamic initializer for 'MinFloat''
text$di	ENDS
; Function compile flags: /Odtp /RTCsu
; File c:\users\utilisateur\documents\gitkraken\8iar125-projetraven\vs2015\common\misc\utils.h
;	COMDAT ??__EMaxFloat@@YAXXZ
text$di	SEGMENT
??__EMaxFloat@@YAXXZ PROC				; `dynamic initializer for 'MaxFloat'', COMDAT

; 26   : const float   MaxFloat  = (std::numeric_limits<float>::max)();

	push	ebp
	mov	ebp, esp
	call	?max@?$numeric_limits@M@std@@SAMXZ	; std::numeric_limits<float>::max
	fstp	DWORD PTR ?MaxFloat@@3MB
	cmp	ebp, esp
	call	__RTC_CheckEsp
	pop	ebp
	ret	0
??__EMaxFloat@@YAXXZ ENDP				; `dynamic initializer for 'MaxFloat''
text$di	ENDS
; Function compile flags: /Odtp /RTCsu
; File c:\users\utilisateur\documents\gitkraken\8iar125-projetraven\vs2015\common\misc\utils.h
;	COMDAT ??__EMinDouble@@YAXXZ
text$di	SEGMENT
??__EMinDouble@@YAXXZ PROC				; `dynamic initializer for 'MinDouble'', COMDAT

; 25   : const double  MinDouble = (std::numeric_limits<double>::min)();

	push	ebp
	mov	ebp, esp
	call	?min@?$numeric_limits@N@std@@SANXZ	; std::numeric_limits<double>::min
	fstp	QWORD PTR ?MinDouble@@3NB
	cmp	ebp, esp
	call	__RTC_CheckEsp
	pop	ebp
	ret	0
??__EMinDouble@@YAXXZ ENDP				; `dynamic initializer for 'MinDouble''
text$di	ENDS
; Function compile flags: /Odtp /RTCsu
; File c:\users\utilisateur\documents\gitkraken\8iar125-projetraven\vs2015\common\misc\utils.h
;	COMDAT ??__EMaxDouble@@YAXXZ
text$di	SEGMENT
??__EMaxDouble@@YAXXZ PROC				; `dynamic initializer for 'MaxDouble'', COMDAT

; 24   : const double  MaxDouble = (std::numeric_limits<double>::max)();

	push	ebp
	mov	ebp, esp
	call	?max@?$numeric_limits@N@std@@SANXZ	; std::numeric_limits<double>::max
	fstp	QWORD PTR ?MaxDouble@@3NB
	cmp	ebp, esp
	call	__RTC_CheckEsp
	pop	ebp
	ret	0
??__EMaxDouble@@YAXXZ ENDP				; `dynamic initializer for 'MaxDouble''
text$di	ENDS
; Function compile flags: /Odtp /RTCsu
; File c:\users\utilisateur\documents\gitkraken\8iar125-projetraven\vs2015\common\misc\utils.h
;	COMDAT ??__EMaxInt@@YAXXZ
text$di	SEGMENT
??__EMaxInt@@YAXXZ PROC					; `dynamic initializer for 'MaxInt'', COMDAT

; 23   : const int     MaxInt    = (std::numeric_limits<int>::max)();

	push	ebp
	mov	ebp, esp
	call	?max@?$numeric_limits@H@std@@SAHXZ	; std::numeric_limits<int>::max
	mov	DWORD PTR ?MaxInt@@3HB, eax
	cmp	ebp, esp
	call	__RTC_CheckEsp
	pop	ebp
	ret	0
??__EMaxInt@@YAXXZ ENDP					; `dynamic initializer for 'MaxInt''
text$di	ENDS
; Function compile flags: /Odtp /RTCsu
; File c:\program files (x86)\microsoft visual studio\2017\community\vc\tools\msvc\14.15.26726\include\xlocale
;	COMDAT ??0id@locale@std@@QAE@I@Z
_TEXT	SEGMENT
_this$ = -4						; size = 4
__Val$ = 8						; size = 4
??0id@locale@std@@QAE@I@Z PROC				; std::locale::id::id, COMDAT
; _this$ = ecx

; 111  : 			{	// construct with specified stamp value

	push	ebp
	mov	ebp, esp
	push	ecx
	mov	DWORD PTR [ebp-4], -858993460		; ccccccccH
	mov	DWORD PTR _this$[ebp], ecx

; 110  : 			: _Id(_Val)

	mov	eax, DWORD PTR _this$[ebp]
	mov	ecx, DWORD PTR __Val$[ebp]
	mov	DWORD PTR [eax], ecx

; 112  : 			}

	mov	eax, DWORD PTR _this$[ebp]
	mov	esp, ebp
	pop	ebp
	ret	4
??0id@locale@std@@QAE@I@Z ENDP				; std::locale::id::id
_TEXT	ENDS
; Function compile flags: /Odtp /RTCsu
;	COMDAT ??_Gruntime_error@std@@UAEPAXI@Z
_TEXT	SEGMENT
_this$ = -4						; size = 4
___flags$ = 8						; size = 4
??_Gruntime_error@std@@UAEPAXI@Z PROC			; std::runtime_error::`scalar deleting destructor', COMDAT
; _this$ = ecx
	push	ebp
	mov	ebp, esp
	push	ecx
	mov	DWORD PTR [ebp-4], -858993460		; ccccccccH
	mov	DWORD PTR _this$[ebp], ecx
	mov	ecx, DWORD PTR _this$[ebp]
	call	??1runtime_error@std@@UAE@XZ
	mov	eax, DWORD PTR ___flags$[ebp]
	and	eax, 1
	je	SHORT $LN2@scalar
	push	12					; 0000000cH
	mov	ecx, DWORD PTR _this$[ebp]
	push	ecx
	call	??3@YAXPAXI@Z				; operator delete
	add	esp, 8
$LN2@scalar:
	mov	eax, DWORD PTR _this$[ebp]
	add	esp, 4
	cmp	ebp, esp
	call	__RTC_CheckEsp
	mov	esp, ebp
	pop	ebp
	ret	4
??_Gruntime_error@std@@UAEPAXI@Z ENDP			; std::runtime_error::`scalar deleting destructor'
_TEXT	ENDS
; Function compile flags: /Odtp /RTCsu
;	COMDAT ??0runtime_error@std@@QAE@ABV01@@Z
_TEXT	SEGMENT
_this$ = -4						; size = 4
___that$ = 8						; size = 4
??0runtime_error@std@@QAE@ABV01@@Z PROC			; std::runtime_error::runtime_error, COMDAT
; _this$ = ecx
	push	ebp
	mov	ebp, esp
	push	ecx
	mov	DWORD PTR [ebp-4], -858993460		; ccccccccH
	mov	DWORD PTR _this$[ebp], ecx
	mov	eax, DWORD PTR ___that$[ebp]
	push	eax
	mov	ecx, DWORD PTR _this$[ebp]
	call	??0exception@std@@QAE@ABV01@@Z		; std::exception::exception
	mov	ecx, DWORD PTR _this$[ebp]
	mov	DWORD PTR [ecx], OFFSET ??_7runtime_error@std@@6B@
	mov	eax, DWORD PTR _this$[ebp]
	add	esp, 4
	cmp	ebp, esp
	call	__RTC_CheckEsp
	mov	esp, ebp
	pop	ebp
	ret	4
??0runtime_error@std@@QAE@ABV01@@Z ENDP			; std::runtime_error::runtime_error
_TEXT	ENDS
; Function compile flags: /Odtp /RTCsu
;	COMDAT ??1runtime_error@std@@UAE@XZ
_TEXT	SEGMENT
_this$ = -4						; size = 4
??1runtime_error@std@@UAE@XZ PROC			; std::runtime_error::~runtime_error, COMDAT
; _this$ = ecx
	push	ebp
	mov	ebp, esp
	push	ecx
	mov	DWORD PTR [ebp-4], -858993460		; ccccccccH
	mov	DWORD PTR _this$[ebp], ecx
	mov	ecx, DWORD PTR _this$[ebp]
	call	??1exception@std@@UAE@XZ		; std::exception::~exception
	add	esp, 4
	cmp	ebp, esp
	call	__RTC_CheckEsp
	mov	esp, ebp
	pop	ebp
	ret	0
??1runtime_error@std@@UAE@XZ ENDP			; std::runtime_error::~runtime_error
_TEXT	ENDS
; Function compile flags: /Odtp /RTCsu
; File c:\program files (x86)\microsoft visual studio\2017\community\vc\tools\msvc\14.15.26726\include\stdexcept
;	COMDAT ??0runtime_error@std@@QAE@PBD@Z
_TEXT	SEGMENT
_this$ = -4						; size = 4
__Message$ = 8						; size = 4
??0runtime_error@std@@QAE@PBD@Z PROC			; std::runtime_error::runtime_error, COMDAT
; _this$ = ecx

; 170  : 		{	// construct from message string

	push	ebp
	mov	ebp, esp
	push	ecx
	mov	DWORD PTR [ebp-4], -858993460		; ccccccccH
	mov	DWORD PTR _this$[ebp], ecx

; 169  : 		: _Mybase(_Message)

	mov	eax, DWORD PTR __Message$[ebp]
	push	eax
	mov	ecx, DWORD PTR _this$[ebp]
	call	??0exception@std@@QAE@QBD@Z		; std::exception::exception

; 170  : 		{	// construct from message string

	mov	ecx, DWORD PTR _this$[ebp]
	mov	DWORD PTR [ecx], OFFSET ??_7runtime_error@std@@6B@

; 171  : 		}

	mov	eax, DWORD PTR _this$[ebp]
	add	esp, 4
	cmp	ebp, esp
	call	__RTC_CheckEsp
	mov	esp, ebp
	pop	ebp
	ret	4
??0runtime_error@std@@QAE@PBD@Z ENDP			; std::runtime_error::runtime_error
_TEXT	ENDS
; Function compile flags: /Odtp /RTCsu
; File c:\program files (x86)\microsoft visual studio\2017\community\vc\tools\msvc\14.15.26726\include\xstring
;	COMDAT ?_Tidy_deallocate@?$basic_string@DU?$char_traits@D@std@@V?$allocator@D@2@@std@@QAEXXZ
_TEXT	SEGMENT
$T1 = -17						; size = 1
__Al$2 = -16						; size = 4
__Ptr$3 = -12						; size = 4
__My_data$ = -8						; size = 4
_this$ = -4						; size = 4
?_Tidy_deallocate@?$basic_string@DU?$char_traits@D@std@@V?$allocator@D@2@@std@@QAEXXZ PROC ; std::basic_string<char,std::char_traits<char>,std::allocator<char> >::_Tidy_deallocate, COMDAT
; _this$ = ecx

; 3984 : 		{	// initialize buffer, deallocating any storage

	push	ebp
	mov	ebp, esp
	sub	esp, 20					; 00000014H
	mov	eax, -858993460				; ccccccccH
	mov	DWORD PTR [ebp-20], eax
	mov	DWORD PTR [ebp-16], eax
	mov	DWORD PTR [ebp-12], eax
	mov	DWORD PTR [ebp-8], eax
	mov	DWORD PTR [ebp-4], eax
	mov	DWORD PTR _this$[ebp], ecx

; 3985 : 		this->_Orphan_all();

	mov	ecx, DWORD PTR _this$[ebp]
	call	?_Orphan_all@?$_String_alloc@U?$_String_base_types@DV?$allocator@D@std@@@std@@@std@@QAEXXZ ; std::_String_alloc<std::_String_base_types<char,std::allocator<char> > >::_Orphan_all

; 3986 : 		auto& _My_data = this->_Get_data();

	mov	ecx, DWORD PTR _this$[ebp]
	call	?_Get_data@?$_String_alloc@U?$_String_base_types@DV?$allocator@D@std@@@std@@@std@@QAEAAV?$_String_val@U?$_Simple_types@D@std@@@2@XZ ; std::_String_alloc<std::_String_base_types<char,std::allocator<char> > >::_Get_data
	mov	DWORD PTR __My_data$[ebp], eax

; 3987 : 		if (_My_data._Large_string_engaged())

	mov	ecx, DWORD PTR __My_data$[ebp]
	call	?_Large_string_engaged@?$_String_val@U?$_Simple_types@D@std@@@std@@QBE_NXZ ; std::_String_val<std::_Simple_types<char> >::_Large_string_engaged
	movzx	eax, al
	test	eax, eax
	je	SHORT $LN2@Tidy_deall

; 3988 : 			{
; 3989 : 			const pointer _Ptr = _My_data._Bx._Ptr;

	mov	ecx, DWORD PTR __My_data$[ebp]
	mov	edx, DWORD PTR [ecx+4]
	mov	DWORD PTR __Ptr$3[ebp], edx

; 3990 : 			auto& _Al = this->_Getal();

	mov	ecx, DWORD PTR _this$[ebp]
	call	?_Getal@?$_String_alloc@U?$_String_base_types@DV?$allocator@D@std@@@std@@@std@@QAEAAV?$allocator@D@2@XZ ; std::_String_alloc<std::_String_base_types<char,std::allocator<char> > >::_Getal
	mov	DWORD PTR __Al$2[ebp], eax

; 3991 : 			_Alty_traits::destroy(_Al, _STD addressof(_My_data._Bx._Ptr));

	mov	eax, DWORD PTR __My_data$[ebp]
	add	eax, 4
	push	eax
	call	??$addressof@PAD@std@@YAPAPADAAPAD@Z	; std::addressof<char *>
	add	esp, 4
	push	eax
	mov	ecx, DWORD PTR __Al$2[ebp]
	push	ecx
	call	??$destroy@PAD@?$_Default_allocator_traits@V?$allocator@D@std@@@std@@SAXAAV?$allocator@D@1@QAPAD@Z ; std::_Default_allocator_traits<std::allocator<char> >::destroy<char *>
	add	esp, 8

; 3992 : 			_Al.deallocate(_Ptr, _My_data._Myres + 1);

	mov	edx, DWORD PTR __My_data$[ebp]
	mov	eax, DWORD PTR [edx+24]
	add	eax, 1
	push	eax
	mov	ecx, DWORD PTR __Ptr$3[ebp]
	push	ecx
	mov	ecx, DWORD PTR __Al$2[ebp]
	call	?deallocate@?$allocator@D@std@@QAEXQADI@Z ; std::allocator<char>::deallocate
$LN2@Tidy_deall:

; 3993 : 			}
; 3994 : 
; 3995 : 		_My_data._Mysize = 0;

	mov	edx, DWORD PTR __My_data$[ebp]
	mov	DWORD PTR [edx+20], 0

; 3996 : 		_My_data._Myres = this->_BUF_SIZE - 1;

	mov	eax, DWORD PTR __My_data$[ebp]
	mov	DWORD PTR [eax+24], 15			; 0000000fH

; 3997 : 		// the _Traits::assign is last so the codegen doesn't think the char
; 3998 : 		// write can alias this
; 3999 : 		_Traits::assign(_My_data._Bx._Buf[0], _Elem());

	mov	BYTE PTR $T1[ebp], 0
	lea	ecx, DWORD PTR $T1[ebp]
	push	ecx
	mov	edx, 1
	imul	eax, edx, 0
	mov	ecx, DWORD PTR __My_data$[ebp]
	lea	edx, DWORD PTR [ecx+eax+4]
	push	edx
	call	?assign@?$char_traits@D@std@@SAXAADABD@Z ; std::char_traits<char>::assign
	add	esp, 8

; 4000 : 		}

	add	esp, 20					; 00000014H
	cmp	ebp, esp
	call	__RTC_CheckEsp
	mov	esp, ebp
	pop	ebp
	ret	0
?_Tidy_deallocate@?$basic_string@DU?$char_traits@D@std@@V?$allocator@D@2@@std@@QAEXXZ ENDP ; std::basic_string<char,std::char_traits<char>,std::allocator<char> >::_Tidy_deallocate
_TEXT	ENDS
; Function compile flags: /Odtp /RTCsu
; File c:\program files (x86)\microsoft visual studio\2017\community\vc\tools\msvc\14.15.26726\include\xstring
;	COMDAT ?size@?$basic_string@DU?$char_traits@D@std@@V?$allocator@D@2@@std@@QBEIXZ
_TEXT	SEGMENT
_this$ = -4						; size = 4
?size@?$basic_string@DU?$char_traits@D@std@@V?$allocator@D@2@@std@@QBEIXZ PROC ; std::basic_string<char,std::char_traits<char>,std::allocator<char> >::size, COMDAT
; _this$ = ecx

; 3301 : 		{	// return length of sequence

	push	ebp
	mov	ebp, esp
	push	ecx
	mov	DWORD PTR [ebp-4], -858993460		; ccccccccH
	mov	DWORD PTR _this$[ebp], ecx

; 3302 : 		return (this->_Get_data()._Mysize);

	mov	ecx, DWORD PTR _this$[ebp]
	call	?_Get_data@?$_String_alloc@U?$_String_base_types@DV?$allocator@D@std@@@std@@@std@@QBEABV?$_String_val@U?$_Simple_types@D@std@@@2@XZ ; std::_String_alloc<std::_String_base_types<char,std::allocator<char> > >::_Get_data
	mov	eax, DWORD PTR [eax+20]

; 3303 : 		}

	add	esp, 4
	cmp	ebp, esp
	call	__RTC_CheckEsp
	mov	esp, ebp
	pop	ebp
	ret	0
?size@?$basic_string@DU?$char_traits@D@std@@V?$allocator@D@2@@std@@QBEIXZ ENDP ; std::basic_string<char,std::char_traits<char>,std::allocator<char> >::size
_TEXT	ENDS
; Function compile flags: /Odtp /RTCsu
; File c:\program files (x86)\microsoft visual studio\2017\community\vc\tools\msvc\14.15.26726\include\xstring
;	COMDAT ?c_str@?$basic_string@DU?$char_traits@D@std@@V?$allocator@D@2@@std@@QBEPBDXZ
_TEXT	SEGMENT
_this$ = -16						; size = 4
__$EHRec$ = -12						; size = 12
?c_str@?$basic_string@DU?$char_traits@D@std@@V?$allocator@D@2@@std@@QBEPBDXZ PROC ; std::basic_string<char,std::char_traits<char>,std::allocator<char> >::c_str, COMDAT
; _this$ = ecx

; 3279 : 		{	// return pointer to null-terminated immutable array

	push	ebp
	mov	ebp, esp
	push	-1
	push	__ehhandler$?c_str@?$basic_string@DU?$char_traits@D@std@@V?$allocator@D@2@@std@@QBEPBDXZ
	mov	eax, DWORD PTR fs:0
	push	eax
	push	ecx
	mov	DWORD PTR [ebp-16], -858993460		; ccccccccH
	mov	eax, DWORD PTR ___security_cookie
	xor	eax, ebp
	push	eax
	lea	eax, DWORD PTR __$EHRec$[ebp]
	mov	DWORD PTR fs:0, eax
	mov	DWORD PTR _this$[ebp], ecx

; 3280 : 		return (this->_Get_data()._Myptr());

	mov	ecx, DWORD PTR _this$[ebp]
	call	?_Get_data@?$_String_alloc@U?$_String_base_types@DV?$allocator@D@std@@@std@@@std@@QBEABV?$_String_val@U?$_Simple_types@D@std@@@2@XZ ; std::_String_alloc<std::_String_base_types<char,std::allocator<char> > >::_Get_data
	mov	ecx, eax
	call	?_Myptr@?$_String_val@U?$_Simple_types@D@std@@@std@@QBEPBDXZ ; std::_String_val<std::_Simple_types<char> >::_Myptr

; 3281 : 		}

	mov	ecx, DWORD PTR __$EHRec$[ebp]
	mov	DWORD PTR fs:0, ecx
	pop	ecx
	add	esp, 16					; 00000010H
	cmp	ebp, esp
	call	__RTC_CheckEsp
	mov	esp, ebp
	pop	ebp
	ret	0
_TEXT	ENDS
;	COMDAT text$x
text$x	SEGMENT
__ehhandler$?c_str@?$basic_string@DU?$char_traits@D@std@@V?$allocator@D@2@@std@@QBEPBDXZ:
	mov	edx, DWORD PTR [esp+8]
	lea	eax, DWORD PTR [edx+12]
	mov	ecx, DWORD PTR [edx-8]
	xor	ecx, eax
	call	@__security_check_cookie@4
	mov	eax, OFFSET __ehfuncinfo$?c_str@?$basic_string@DU?$char_traits@D@std@@V?$allocator@D@2@@std@@QBEPBDXZ
	jmp	___CxxFrameHandler3
text$x	ENDS
?c_str@?$basic_string@DU?$char_traits@D@std@@V?$allocator@D@2@@std@@QBEPBDXZ ENDP ; std::basic_string<char,std::char_traits<char>,std::allocator<char> >::c_str
; Function compile flags: /Odtp /RTCsu
; File c:\program files (x86)\microsoft visual studio\2017\community\vc\tools\msvc\14.15.26726\include\xstring
;	COMDAT ??1?$basic_string@DU?$char_traits@D@std@@V?$allocator@D@2@@std@@QAE@XZ
_TEXT	SEGMENT
_this$ = -16						; size = 4
__$EHRec$ = -12						; size = 12
??1?$basic_string@DU?$char_traits@D@std@@V?$allocator@D@2@@std@@QAE@XZ PROC ; std::basic_string<char,std::char_traits<char>,std::allocator<char> >::~basic_string<char,std::char_traits<char>,std::allocator<char> >, COMDAT
; _this$ = ecx

; 2459 : 		{	// destroy the string

	push	ebp
	mov	ebp, esp
	push	-1
	push	__ehhandler$??1?$basic_string@DU?$char_traits@D@std@@V?$allocator@D@2@@std@@QAE@XZ
	mov	eax, DWORD PTR fs:0
	push	eax
	push	ecx
	mov	DWORD PTR [ebp-16], -858993460		; ccccccccH
	mov	eax, DWORD PTR ___security_cookie
	xor	eax, ebp
	push	eax
	lea	eax, DWORD PTR __$EHRec$[ebp]
	mov	DWORD PTR fs:0, eax
	mov	DWORD PTR _this$[ebp], ecx

; 2460 : 		_Tidy_deallocate();

	mov	ecx, DWORD PTR _this$[ebp]
	call	?_Tidy_deallocate@?$basic_string@DU?$char_traits@D@std@@V?$allocator@D@2@@std@@QAEXXZ ; std::basic_string<char,std::char_traits<char>,std::allocator<char> >::_Tidy_deallocate

; 2461 : 		}

	mov	ecx, DWORD PTR _this$[ebp]
	call	??1?$_String_alloc@U?$_String_base_types@DV?$allocator@D@std@@@std@@@std@@QAE@XZ ; std::_String_alloc<std::_String_base_types<char,std::allocator<char> > >::~_String_alloc<std::_String_base_types<char,std::allocator<char> > >
	mov	ecx, DWORD PTR __$EHRec$[ebp]
	mov	DWORD PTR fs:0, ecx
	pop	ecx
	add	esp, 16					; 00000010H
	cmp	ebp, esp
	call	__RTC_CheckEsp
	mov	esp, ebp
	pop	ebp
	ret	0
_TEXT	ENDS
;	COMDAT text$x
text$x	SEGMENT
__ehhandler$??1?$basic_string@DU?$char_traits@D@std@@V?$allocator@D@2@@std@@QAE@XZ:
	mov	edx, DWORD PTR [esp+8]
	lea	eax, DWORD PTR [edx+12]
	mov	ecx, DWORD PTR [edx-8]
	xor	ecx, eax
	call	@__security_check_cookie@4
	mov	eax, OFFSET __ehfuncinfo$??1?$basic_string@DU?$char_traits@D@std@@V?$allocator@D@2@@std@@QAE@XZ
	jmp	___CxxFrameHandler3
text$x	ENDS
??1?$basic_string@DU?$char_traits@D@std@@V?$allocator@D@2@@std@@QAE@XZ ENDP ; std::basic_string<char,std::char_traits<char>,std::allocator<char> >::~basic_string<char,std::char_traits<char>,std::allocator<char> >
; Function compile flags: /Odtp /RTCsu
;	COMDAT ??1?$_Compressed_pair@V?$allocator@D@std@@V?$_String_val@U?$_Simple_types@D@std@@@2@$00@std@@QAE@XZ
_TEXT	SEGMENT
_this$ = -4						; size = 4
??1?$_Compressed_pair@V?$allocator@D@std@@V?$_String_val@U?$_Simple_types@D@std@@@2@$00@std@@QAE@XZ PROC ; std::_Compressed_pair<std::allocator<char>,std::_String_val<std::_Simple_types<char> >,1>::~_Compressed_pair<std::allocator<char>,std::_String_val<std::_Simple_types<char> >,1>, COMDAT
; _this$ = ecx
	push	ebp
	mov	ebp, esp
	push	ecx
	mov	DWORD PTR [ebp-4], -858993460		; ccccccccH
	mov	DWORD PTR _this$[ebp], ecx
	mov	ecx, DWORD PTR _this$[ebp]
	call	??1?$_String_val@U?$_Simple_types@D@std@@@std@@QAE@XZ
	add	esp, 4
	cmp	ebp, esp
	call	__RTC_CheckEsp
	mov	esp, ebp
	pop	ebp
	ret	0
??1?$_Compressed_pair@V?$allocator@D@std@@V?$_String_val@U?$_Simple_types@D@std@@@2@$00@std@@QAE@XZ ENDP ; std::_Compressed_pair<std::allocator<char>,std::_String_val<std::_Simple_types<char> >,1>::~_Compressed_pair<std::allocator<char>,std::_String_val<std::_Simple_types<char> >,1>
_TEXT	ENDS
; Function compile flags: /Odtp /RTCsu
; File c:\program files (x86)\microsoft visual studio\2017\community\vc\tools\msvc\14.15.26726\include\xutility
;	COMDAT ?_Get_second@?$_Compressed_pair@V?$allocator@D@std@@V?$_String_val@U?$_Simple_types@D@std@@@2@$00@std@@QBEABV?$_String_val@U?$_Simple_types@D@std@@@2@XZ
_TEXT	SEGMENT
_this$ = -4						; size = 4
?_Get_second@?$_Compressed_pair@V?$allocator@D@std@@V?$_String_val@U?$_Simple_types@D@std@@@2@$00@std@@QBEABV?$_String_val@U?$_Simple_types@D@std@@@2@XZ PROC ; std::_Compressed_pair<std::allocator<char>,std::_String_val<std::_Simple_types<char> >,1>::_Get_second, COMDAT
; _this$ = ecx

; 306  : 		{	// return const reference to second

	push	ebp
	mov	ebp, esp
	push	ecx
	mov	DWORD PTR [ebp-4], -858993460		; ccccccccH
	mov	DWORD PTR _this$[ebp], ecx

; 307  : 		return (_Myval2);

	mov	eax, DWORD PTR _this$[ebp]

; 308  : 		}

	mov	esp, ebp
	pop	ebp
	ret	0
?_Get_second@?$_Compressed_pair@V?$allocator@D@std@@V?$_String_val@U?$_Simple_types@D@std@@@2@$00@std@@QBEABV?$_String_val@U?$_Simple_types@D@std@@@2@XZ ENDP ; std::_Compressed_pair<std::allocator<char>,std::_String_val<std::_Simple_types<char> >,1>::_Get_second
_TEXT	ENDS
; Function compile flags: /Odtp /RTCsu
; File c:\program files (x86)\microsoft visual studio\2017\community\vc\tools\msvc\14.15.26726\include\xutility
;	COMDAT ?_Get_second@?$_Compressed_pair@V?$allocator@D@std@@V?$_String_val@U?$_Simple_types@D@std@@@2@$00@std@@QAEAAV?$_String_val@U?$_Simple_types@D@std@@@2@XZ
_TEXT	SEGMENT
_this$ = -4						; size = 4
?_Get_second@?$_Compressed_pair@V?$allocator@D@std@@V?$_String_val@U?$_Simple_types@D@std@@@2@$00@std@@QAEAAV?$_String_val@U?$_Simple_types@D@std@@@2@XZ PROC ; std::_Compressed_pair<std::allocator<char>,std::_String_val<std::_Simple_types<char> >,1>::_Get_second, COMDAT
; _this$ = ecx

; 301  : 		{	// return reference to second

	push	ebp
	mov	ebp, esp
	push	ecx
	mov	DWORD PTR [ebp-4], -858993460		; ccccccccH
	mov	DWORD PTR _this$[ebp], ecx

; 302  : 		return (_Myval2);

	mov	eax, DWORD PTR _this$[ebp]

; 303  : 		}

	mov	esp, ebp
	pop	ebp
	ret	0
?_Get_second@?$_Compressed_pair@V?$allocator@D@std@@V?$_String_val@U?$_Simple_types@D@std@@@2@$00@std@@QAEAAV?$_String_val@U?$_Simple_types@D@std@@@2@XZ ENDP ; std::_Compressed_pair<std::allocator<char>,std::_String_val<std::_Simple_types<char> >,1>::_Get_second
_TEXT	ENDS
; Function compile flags: /Odtp /RTCsu
; File c:\program files (x86)\microsoft visual studio\2017\community\vc\tools\msvc\14.15.26726\include\xutility
;	COMDAT ?_Get_first@?$_Compressed_pair@V?$allocator@D@std@@V?$_String_val@U?$_Simple_types@D@std@@@2@$00@std@@QAEAAV?$allocator@D@2@XZ
_TEXT	SEGMENT
_this$ = -4						; size = 4
?_Get_first@?$_Compressed_pair@V?$allocator@D@std@@V?$_String_val@U?$_Simple_types@D@std@@@2@$00@std@@QAEAAV?$allocator@D@2@XZ PROC ; std::_Compressed_pair<std::allocator<char>,std::_String_val<std::_Simple_types<char> >,1>::_Get_first, COMDAT
; _this$ = ecx

; 291  : 		{	// return reference to first

	push	ebp
	mov	ebp, esp
	push	ecx
	mov	DWORD PTR [ebp-4], -858993460		; ccccccccH
	mov	DWORD PTR _this$[ebp], ecx

; 292  : 		return (*this);

	mov	eax, DWORD PTR _this$[ebp]

; 293  : 		}

	mov	esp, ebp
	pop	ebp
	ret	0
?_Get_first@?$_Compressed_pair@V?$allocator@D@std@@V?$_String_val@U?$_Simple_types@D@std@@@2@$00@std@@QAEAAV?$allocator@D@2@XZ ENDP ; std::_Compressed_pair<std::allocator<char>,std::_String_val<std::_Simple_types<char> >,1>::_Get_first
_TEXT	ENDS
; Function compile flags: /Odtp /RTCsu
; File c:\program files (x86)\microsoft visual studio\2017\community\vc\tools\msvc\14.15.26726\include\xstring
;	COMDAT ?_Get_data@?$_String_alloc@U?$_String_base_types@DV?$allocator@D@std@@@std@@@std@@QBEABV?$_String_val@U?$_Simple_types@D@std@@@2@XZ
_TEXT	SEGMENT
_this$ = -4						; size = 4
?_Get_data@?$_String_alloc@U?$_String_base_types@DV?$allocator@D@std@@@std@@@std@@QBEABV?$_String_val@U?$_Simple_types@D@std@@@2@XZ PROC ; std::_String_alloc<std::_String_base_types<char,std::allocator<char> > >::_Get_data, COMDAT
; _this$ = ecx

; 2047 : 		{	// return const reference to _String_val

	push	ebp
	mov	ebp, esp
	push	ecx
	mov	DWORD PTR [ebp-4], -858993460		; ccccccccH
	mov	DWORD PTR _this$[ebp], ecx

; 2048 : 		return (_Mypair._Get_second());

	mov	ecx, DWORD PTR _this$[ebp]
	call	?_Get_second@?$_Compressed_pair@V?$allocator@D@std@@V?$_String_val@U?$_Simple_types@D@std@@@2@$00@std@@QBEABV?$_String_val@U?$_Simple_types@D@std@@@2@XZ ; std::_Compressed_pair<std::allocator<char>,std::_String_val<std::_Simple_types<char> >,1>::_Get_second

; 2049 : 		}

	add	esp, 4
	cmp	ebp, esp
	call	__RTC_CheckEsp
	mov	esp, ebp
	pop	ebp
	ret	0
?_Get_data@?$_String_alloc@U?$_String_base_types@DV?$allocator@D@std@@@std@@@std@@QBEABV?$_String_val@U?$_Simple_types@D@std@@@2@XZ ENDP ; std::_String_alloc<std::_String_base_types<char,std::allocator<char> > >::_Get_data
_TEXT	ENDS
; Function compile flags: /Odtp /RTCsu
; File c:\program files (x86)\microsoft visual studio\2017\community\vc\tools\msvc\14.15.26726\include\xstring
;	COMDAT ?_Get_data@?$_String_alloc@U?$_String_base_types@DV?$allocator@D@std@@@std@@@std@@QAEAAV?$_String_val@U?$_Simple_types@D@std@@@2@XZ
_TEXT	SEGMENT
_this$ = -4						; size = 4
?_Get_data@?$_String_alloc@U?$_String_base_types@DV?$allocator@D@std@@@std@@@std@@QAEAAV?$_String_val@U?$_Simple_types@D@std@@@2@XZ PROC ; std::_String_alloc<std::_String_base_types<char,std::allocator<char> > >::_Get_data, COMDAT
; _this$ = ecx

; 2042 : 		{	// return reference to _String_val

	push	ebp
	mov	ebp, esp
	push	ecx
	mov	DWORD PTR [ebp-4], -858993460		; ccccccccH
	mov	DWORD PTR _this$[ebp], ecx

; 2043 : 		return (_Mypair._Get_second());

	mov	ecx, DWORD PTR _this$[ebp]
	call	?_Get_second@?$_Compressed_pair@V?$allocator@D@std@@V?$_String_val@U?$_Simple_types@D@std@@@2@$00@std@@QAEAAV?$_String_val@U?$_Simple_types@D@std@@@2@XZ ; std::_Compressed_pair<std::allocator<char>,std::_String_val<std::_Simple_types<char> >,1>::_Get_second

; 2044 : 		}

	add	esp, 4
	cmp	ebp, esp
	call	__RTC_CheckEsp
	mov	esp, ebp
	pop	ebp
	ret	0
?_Get_data@?$_String_alloc@U?$_String_base_types@DV?$allocator@D@std@@@std@@@std@@QAEAAV?$_String_val@U?$_Simple_types@D@std@@@2@XZ ENDP ; std::_String_alloc<std::_String_base_types<char,std::allocator<char> > >::_Get_data
_TEXT	ENDS
; Function compile flags: /Odtp /RTCsu
; File c:\program files (x86)\microsoft visual studio\2017\community\vc\tools\msvc\14.15.26726\include\xstring
;	COMDAT ?_Getal@?$_String_alloc@U?$_String_base_types@DV?$allocator@D@std@@@std@@@std@@QAEAAV?$allocator@D@2@XZ
_TEXT	SEGMENT
_this$ = -4						; size = 4
?_Getal@?$_String_alloc@U?$_String_base_types@DV?$allocator@D@std@@@std@@@std@@QAEAAV?$allocator@D@2@XZ PROC ; std::_String_alloc<std::_String_base_types<char,std::allocator<char> > >::_Getal, COMDAT
; _this$ = ecx

; 2032 : 		{	// return reference to allocator

	push	ebp
	mov	ebp, esp
	push	ecx
	mov	DWORD PTR [ebp-4], -858993460		; ccccccccH
	mov	DWORD PTR _this$[ebp], ecx

; 2033 : 		return (_Mypair._Get_first());

	mov	ecx, DWORD PTR _this$[ebp]
	call	?_Get_first@?$_Compressed_pair@V?$allocator@D@std@@V?$_String_val@U?$_Simple_types@D@std@@@2@$00@std@@QAEAAV?$allocator@D@2@XZ ; std::_Compressed_pair<std::allocator<char>,std::_String_val<std::_Simple_types<char> >,1>::_Get_first

; 2034 : 		}

	add	esp, 4
	cmp	ebp, esp
	call	__RTC_CheckEsp
	mov	esp, ebp
	pop	ebp
	ret	0
?_Getal@?$_String_alloc@U?$_String_base_types@DV?$allocator@D@std@@@std@@@std@@QAEAAV?$allocator@D@2@XZ ENDP ; std::_String_alloc<std::_String_base_types<char,std::allocator<char> > >::_Getal
_TEXT	ENDS
; Function compile flags: /Odtp /RTCsu
; File c:\program files (x86)\microsoft visual studio\2017\community\vc\tools\msvc\14.15.26726\include\xstring
;	COMDAT ?_Orphan_all@?$_String_alloc@U?$_String_base_types@DV?$allocator@D@std@@@std@@@std@@QAEXXZ
_TEXT	SEGMENT
_this$ = -4						; size = 4
?_Orphan_all@?$_String_alloc@U?$_String_base_types@DV?$allocator@D@std@@@std@@@std@@QAEXXZ PROC ; std::_String_alloc<std::_String_base_types<char,std::allocator<char> > >::_Orphan_all, COMDAT
; _this$ = ecx

; 2022 : 		{	// orphan all iterators

	push	ebp
	mov	ebp, esp
	push	ecx
	mov	DWORD PTR [ebp-4], -858993460		; ccccccccH
	mov	DWORD PTR _this$[ebp], ecx

; 2023 : 		_Get_data()._Orphan_all();

	mov	ecx, DWORD PTR _this$[ebp]
	call	?_Get_data@?$_String_alloc@U?$_String_base_types@DV?$allocator@D@std@@@std@@@std@@QAEAAV?$_String_val@U?$_Simple_types@D@std@@@2@XZ ; std::_String_alloc<std::_String_base_types<char,std::allocator<char> > >::_Get_data
	mov	ecx, eax
	call	?_Orphan_all@_Container_base12@std@@QAEXXZ ; std::_Container_base12::_Orphan_all

; 2024 : 		}

	add	esp, 4
	cmp	ebp, esp
	call	__RTC_CheckEsp
	mov	esp, ebp
	pop	ebp
	ret	0
?_Orphan_all@?$_String_alloc@U?$_String_base_types@DV?$allocator@D@std@@@std@@@std@@QAEXXZ ENDP ; std::_String_alloc<std::_String_base_types<char,std::allocator<char> > >::_Orphan_all
_TEXT	ENDS
; Function compile flags: /Odtp /RTCsu
; File c:\program files (x86)\microsoft visual studio\2017\community\vc\tools\msvc\14.15.26726\include\xstring
;	COMDAT ?_Myproxy@?$_String_alloc@U?$_String_base_types@DV?$allocator@D@std@@@std@@@std@@QAEAAPAU_Container_proxy@2@XZ
_TEXT	SEGMENT
_this$ = -4						; size = 4
?_Myproxy@?$_String_alloc@U?$_String_base_types@DV?$allocator@D@std@@@std@@@std@@QAEAAPAU_Container_proxy@2@XZ PROC ; std::_String_alloc<std::_String_base_types<char,std::allocator<char> > >::_Myproxy, COMDAT
; _this$ = ecx

; 2011 : 		{	// return reference to _Myproxy

	push	ebp
	mov	ebp, esp
	push	ecx
	mov	DWORD PTR [ebp-4], -858993460		; ccccccccH
	mov	DWORD PTR _this$[ebp], ecx

; 2012 : 		return (_Get_data()._Myproxy);

	mov	ecx, DWORD PTR _this$[ebp]
	call	?_Get_data@?$_String_alloc@U?$_String_base_types@DV?$allocator@D@std@@@std@@@std@@QAEAAV?$_String_val@U?$_Simple_types@D@std@@@2@XZ ; std::_String_alloc<std::_String_base_types<char,std::allocator<char> > >::_Get_data

; 2013 : 		}

	add	esp, 4
	cmp	ebp, esp
	call	__RTC_CheckEsp
	mov	esp, ebp
	pop	ebp
	ret	0
?_Myproxy@?$_String_alloc@U?$_String_base_types@DV?$allocator@D@std@@@std@@@std@@QAEAAPAU_Container_proxy@2@XZ ENDP ; std::_String_alloc<std::_String_base_types<char,std::allocator<char> > >::_Myproxy
_TEXT	ENDS
; Function compile flags: /Odtp /RTCsu
; File c:\program files (x86)\microsoft visual studio\2017\community\vc\tools\msvc\14.15.26726\include\xstring
;	COMDAT ?_Free_proxy@?$_String_alloc@U?$_String_base_types@DV?$allocator@D@std@@@std@@@std@@QAEXXZ
_TEXT	SEGMENT
__Proxy_allocator$ = -9					; size = 1
_this$ = -4						; size = 4
?_Free_proxy@?$_String_alloc@U?$_String_base_types@DV?$allocator@D@std@@@std@@@std@@QAEXXZ PROC ; std::_String_alloc<std::_String_base_types<char,std::allocator<char> > >::_Free_proxy, COMDAT
; _this$ = ecx

; 1997 : 		{	// destroy proxy

	push	ebp
	mov	ebp, esp
	sub	esp, 16					; 00000010H
	mov	eax, -858993460				; ccccccccH
	mov	DWORD PTR [ebp-16], eax
	mov	DWORD PTR [ebp-12], eax
	mov	DWORD PTR [ebp-8], eax
	mov	DWORD PTR [ebp-4], eax
	mov	DWORD PTR _this$[ebp], ecx

; 1998 : 		_Alproxy _Proxy_allocator(_Getal());

	mov	ecx, DWORD PTR _this$[ebp]
	call	?_Getal@?$_String_alloc@U?$_String_base_types@DV?$allocator@D@std@@@std@@@std@@QAEAAV?$allocator@D@2@XZ ; std::_String_alloc<std::_String_base_types<char,std::allocator<char> > >::_Getal
	push	eax
	lea	ecx, DWORD PTR __Proxy_allocator$[ebp]
	call	??$?0D@?$allocator@U_Container_proxy@std@@@std@@QAE@ABV?$allocator@D@1@@Z ; std::allocator<std::_Container_proxy>::allocator<std::_Container_proxy><char>

; 1999 : 		_Orphan_all();

	mov	ecx, DWORD PTR _this$[ebp]
	call	?_Orphan_all@?$_String_alloc@U?$_String_base_types@DV?$allocator@D@std@@@std@@@std@@QAEXXZ ; std::_String_alloc<std::_String_base_types<char,std::allocator<char> > >::_Orphan_all

; 2000 : 		_Alproxy_traits::destroy(_Proxy_allocator, _Myproxy());

	mov	ecx, DWORD PTR _this$[ebp]
	call	?_Myproxy@?$_String_alloc@U?$_String_base_types@DV?$allocator@D@std@@@std@@@std@@QAEAAPAU_Container_proxy@2@XZ ; std::_String_alloc<std::_String_base_types<char,std::allocator<char> > >::_Myproxy
	mov	eax, DWORD PTR [eax]
	push	eax
	lea	ecx, DWORD PTR __Proxy_allocator$[ebp]
	push	ecx
	call	??$destroy@U_Container_proxy@std@@@?$_Default_allocator_traits@V?$allocator@U_Container_proxy@std@@@std@@@std@@SAXAAV?$allocator@U_Container_proxy@std@@@1@QAU_Container_proxy@1@@Z ; std::_Default_allocator_traits<std::allocator<std::_Container_proxy> >::destroy<std::_Container_proxy>
	add	esp, 8

; 2001 : 		_Deallocate_plain(_Proxy_allocator, _Myproxy());

	mov	ecx, DWORD PTR _this$[ebp]
	call	?_Myproxy@?$_String_alloc@U?$_String_base_types@DV?$allocator@D@std@@@std@@@std@@QAEAAPAU_Container_proxy@2@XZ ; std::_String_alloc<std::_String_base_types<char,std::allocator<char> > >::_Myproxy
	mov	edx, DWORD PTR [eax]
	push	edx
	lea	eax, DWORD PTR __Proxy_allocator$[ebp]
	push	eax
	call	??$_Deallocate_plain@V?$allocator@U_Container_proxy@std@@@std@@$0A@@std@@YAXAAV?$allocator@U_Container_proxy@std@@@0@QAU_Container_proxy@0@@Z ; std::_Deallocate_plain<std::allocator<std::_Container_proxy>,0>
	add	esp, 8

; 2002 : 		_Myproxy() = nullptr;

	mov	ecx, DWORD PTR _this$[ebp]
	call	?_Myproxy@?$_String_alloc@U?$_String_base_types@DV?$allocator@D@std@@@std@@@std@@QAEAAPAU_Container_proxy@2@XZ ; std::_String_alloc<std::_String_base_types<char,std::allocator<char> > >::_Myproxy
	mov	DWORD PTR [eax], 0

; 2003 : 		}

	push	edx
	mov	ecx, ebp
	push	eax
	lea	edx, DWORD PTR $LN5@Free_proxy
	call	@_RTC_CheckStackVars@8
	pop	eax
	pop	edx
	add	esp, 16					; 00000010H
	cmp	ebp, esp
	call	__RTC_CheckEsp
	mov	esp, ebp
	pop	ebp
	ret	0
	npad	2
$LN5@Free_proxy:
	DD	1
	DD	$LN4@Free_proxy
$LN4@Free_proxy:
	DD	-9					; fffffff7H
	DD	1
	DD	$LN3@Free_proxy
$LN3@Free_proxy:
	DB	95					; 0000005fH
	DB	80					; 00000050H
	DB	114					; 00000072H
	DB	111					; 0000006fH
	DB	120					; 00000078H
	DB	121					; 00000079H
	DB	95					; 0000005fH
	DB	97					; 00000061H
	DB	108					; 0000006cH
	DB	108					; 0000006cH
	DB	111					; 0000006fH
	DB	99					; 00000063H
	DB	97					; 00000061H
	DB	116					; 00000074H
	DB	111					; 0000006fH
	DB	114					; 00000072H
	DB	0
?_Free_proxy@?$_String_alloc@U?$_String_base_types@DV?$allocator@D@std@@@std@@@std@@QAEXXZ ENDP ; std::_String_alloc<std::_String_base_types<char,std::allocator<char> > >::_Free_proxy
_TEXT	ENDS
; Function compile flags: /Odtp /RTCsu
; File c:\program files (x86)\microsoft visual studio\2017\community\vc\tools\msvc\14.15.26726\include\xstring
;	COMDAT ??1?$_String_alloc@U?$_String_base_types@DV?$allocator@D@std@@@std@@@std@@QAE@XZ
_TEXT	SEGMENT
_this$ = -16						; size = 4
__$EHRec$ = -12						; size = 12
??1?$_String_alloc@U?$_String_base_types@DV?$allocator@D@std@@@std@@@std@@QAE@XZ PROC ; std::_String_alloc<std::_String_base_types<char,std::allocator<char> > >::~_String_alloc<std::_String_base_types<char,std::allocator<char> > >, COMDAT
; _this$ = ecx

; 1948 : 		{	// destroy the object

	push	ebp
	mov	ebp, esp
	push	-1
	push	__ehhandler$??1?$_String_alloc@U?$_String_base_types@DV?$allocator@D@std@@@std@@@std@@QAE@XZ
	mov	eax, DWORD PTR fs:0
	push	eax
	push	ecx
	mov	DWORD PTR [ebp-16], -858993460		; ccccccccH
	mov	eax, DWORD PTR ___security_cookie
	xor	eax, ebp
	push	eax
	lea	eax, DWORD PTR __$EHRec$[ebp]
	mov	DWORD PTR fs:0, eax
	mov	DWORD PTR _this$[ebp], ecx

; 1949 : 		_Free_proxy();

	mov	ecx, DWORD PTR _this$[ebp]
	call	?_Free_proxy@?$_String_alloc@U?$_String_base_types@DV?$allocator@D@std@@@std@@@std@@QAEXXZ ; std::_String_alloc<std::_String_base_types<char,std::allocator<char> > >::_Free_proxy

; 1950 : 		}

	mov	ecx, DWORD PTR _this$[ebp]
	call	??1?$_Compressed_pair@V?$allocator@D@std@@V?$_String_val@U?$_Simple_types@D@std@@@2@$00@std@@QAE@XZ
	mov	ecx, DWORD PTR __$EHRec$[ebp]
	mov	DWORD PTR fs:0, ecx
	pop	ecx
	add	esp, 16					; 00000010H
	cmp	ebp, esp
	call	__RTC_CheckEsp
	mov	esp, ebp
	pop	ebp
	ret	0
_TEXT	ENDS
;	COMDAT text$x
text$x	SEGMENT
__ehhandler$??1?$_String_alloc@U?$_String_base_types@DV?$allocator@D@std@@@std@@@std@@QAE@XZ:
	mov	edx, DWORD PTR [esp+8]
	lea	eax, DWORD PTR [edx+12]
	mov	ecx, DWORD PTR [edx-8]
	xor	ecx, eax
	call	@__security_check_cookie@4
	mov	eax, OFFSET __ehfuncinfo$??1?$_String_alloc@U?$_String_base_types@DV?$allocator@D@std@@@std@@@std@@QAE@XZ
	jmp	___CxxFrameHandler3
text$x	ENDS
??1?$_String_alloc@U?$_String_base_types@DV?$allocator@D@std@@@std@@@std@@QAE@XZ ENDP ; std::_String_alloc<std::_String_base_types<char,std::allocator<char> > >::~_String_alloc<std::_String_base_types<char,std::allocator<char> > >
; Function compile flags: /Odtp /RTCsu
;	COMDAT ??1?$_String_val@U?$_Simple_types@D@std@@@std@@QAE@XZ
_TEXT	SEGMENT
_this$ = -4						; size = 4
??1?$_String_val@U?$_Simple_types@D@std@@@std@@QAE@XZ PROC ; std::_String_val<std::_Simple_types<char> >::~_String_val<std::_Simple_types<char> >, COMDAT
; _this$ = ecx
	push	ebp
	mov	ebp, esp
	push	ecx
	mov	DWORD PTR [ebp-4], -858993460		; ccccccccH
	mov	DWORD PTR _this$[ebp], ecx
	mov	ecx, DWORD PTR _this$[ebp]
	add	ecx, 4
	call	??1_Bxty@?$_String_val@U?$_Simple_types@D@std@@@std@@QAE@XZ ; std::_String_val<std::_Simple_types<char> >::_Bxty::~_Bxty
	add	esp, 4
	cmp	ebp, esp
	call	__RTC_CheckEsp
	mov	esp, ebp
	pop	ebp
	ret	0
??1?$_String_val@U?$_Simple_types@D@std@@@std@@QAE@XZ ENDP ; std::_String_val<std::_Simple_types<char> >::~_String_val<std::_Simple_types<char> >
_TEXT	ENDS
; Function compile flags: /Odtp /RTCsu
; File c:\program files (x86)\microsoft visual studio\2017\community\vc\tools\msvc\14.15.26726\include\xstring
;	COMDAT ??1_Bxty@?$_String_val@U?$_Simple_types@D@std@@@std@@QAE@XZ
_TEXT	SEGMENT
_this$ = -4						; size = 4
??1_Bxty@?$_String_val@U?$_Simple_types@D@std@@@std@@QAE@XZ PROC ; std::_String_val<std::_Simple_types<char> >::_Bxty::~_Bxty, COMDAT
; _this$ = ecx

; 1861 : 			{	// user-provided, for fancy pointers

	push	ebp
	mov	ebp, esp
	push	ecx
	mov	DWORD PTR [ebp-4], -858993460		; ccccccccH
	mov	DWORD PTR _this$[ebp], ecx

; 1862 : 			}

	mov	esp, ebp
	pop	ebp
	ret	0
??1_Bxty@?$_String_val@U?$_Simple_types@D@std@@@std@@QAE@XZ ENDP ; std::_String_val<std::_Simple_types<char> >::_Bxty::~_Bxty
_TEXT	ENDS
; Function compile flags: /Odtp /RTCsu
; File c:\program files (x86)\microsoft visual studio\2017\community\vc\tools\msvc\14.15.26726\include\xstring
;	COMDAT ?_Large_string_engaged@?$_String_val@U?$_Simple_types@D@std@@@std@@QBE_NXZ
_TEXT	SEGMENT
tv66 = -8						; size = 4
_this$ = -4						; size = 4
?_Large_string_engaged@?$_String_val@U?$_Simple_types@D@std@@@std@@QBE_NXZ PROC ; std::_String_val<std::_Simple_types<char> >::_Large_string_engaged, COMDAT
; _this$ = ecx

; 1824 : 		{	// returns whether the large string mode (allocated memory) is engaged

	push	ebp
	mov	ebp, esp
	sub	esp, 8
	mov	DWORD PTR [ebp-8], -858993460		; ccccccccH
	mov	DWORD PTR [ebp-4], -858993460		; ccccccccH
	mov	DWORD PTR _this$[ebp], ecx

; 1825 : 		return (_BUF_SIZE <= _Myres);

	mov	eax, DWORD PTR _this$[ebp]
	cmp	DWORD PTR [eax+24], 16			; 00000010H
	jb	SHORT $LN3@Large_stri
	mov	DWORD PTR tv66[ebp], 1
	jmp	SHORT $LN4@Large_stri
$LN3@Large_stri:
	mov	DWORD PTR tv66[ebp], 0
$LN4@Large_stri:
	mov	al, BYTE PTR tv66[ebp]

; 1826 : 		}

	mov	esp, ebp
	pop	ebp
	ret	0
?_Large_string_engaged@?$_String_val@U?$_Simple_types@D@std@@@std@@QBE_NXZ ENDP ; std::_String_val<std::_Simple_types<char> >::_Large_string_engaged
_TEXT	ENDS
; Function compile flags: /Odtp /RTCsu
; File c:\program files (x86)\microsoft visual studio\2017\community\vc\tools\msvc\14.15.26726\include\xstring
;	COMDAT ?_Myptr@?$_String_val@U?$_Simple_types@D@std@@@std@@QBEPBDXZ
_TEXT	SEGMENT
__Result$ = -8						; size = 4
_this$ = -4						; size = 4
?_Myptr@?$_String_val@U?$_Simple_types@D@std@@@std@@QBEPBDXZ PROC ; std::_String_val<std::_Simple_types<char> >::_Myptr, COMDAT
; _this$ = ecx

; 1813 : 		{	// determine current pointer to buffer for immutable string

	push	ebp
	mov	ebp, esp
	sub	esp, 8
	mov	DWORD PTR [ebp-8], -858993460		; ccccccccH
	mov	DWORD PTR [ebp-4], -858993460		; ccccccccH
	mov	DWORD PTR _this$[ebp], ecx

; 1814 : 		const value_type * _Result = _Bx._Buf;

	mov	eax, DWORD PTR _this$[ebp]
	add	eax, 4
	mov	DWORD PTR __Result$[ebp], eax

; 1815 : 		if (_Large_string_engaged())

	mov	ecx, DWORD PTR _this$[ebp]
	call	?_Large_string_engaged@?$_String_val@U?$_Simple_types@D@std@@@std@@QBE_NXZ ; std::_String_val<std::_Simple_types<char> >::_Large_string_engaged
	movzx	ecx, al
	test	ecx, ecx
	je	SHORT $LN2@Myptr

; 1816 : 			{
; 1817 : 			_Result = _Unfancy(_Bx._Ptr);

	mov	edx, DWORD PTR _this$[ebp]
	mov	eax, DWORD PTR [edx+4]
	push	eax
	call	??$_Unfancy@D@std@@YAPADPAD@Z		; std::_Unfancy<char>
	add	esp, 4
	mov	DWORD PTR __Result$[ebp], eax
$LN2@Myptr:

; 1818 : 			}
; 1819 : 
; 1820 : 		return (_Result);

	mov	eax, DWORD PTR __Result$[ebp]

; 1821 : 		}

	add	esp, 8
	cmp	ebp, esp
	call	__RTC_CheckEsp
	mov	esp, ebp
	pop	ebp
	ret	0
?_Myptr@?$_String_val@U?$_Simple_types@D@std@@@std@@QBEPBDXZ ENDP ; std::_String_val<std::_Simple_types<char> >::_Myptr
_TEXT	ENDS
; Function compile flags: /Odtp /RTCsu
; File c:\program files (x86)\microsoft visual studio\2017\community\vc\tools\msvc\14.15.26726\include\xmemory0
;	COMDAT ?deallocate@?$allocator@D@std@@QAEXQADI@Z
_TEXT	SEGMENT
_this$ = -4						; size = 4
__Ptr$ = 8						; size = 4
__Count$ = 12						; size = 4
?deallocate@?$allocator@D@std@@QAEXQADI@Z PROC		; std::allocator<char>::deallocate, COMDAT
; _this$ = ecx

; 990  : 		{	// deallocate object at _Ptr

	push	ebp
	mov	ebp, esp
	push	ecx
	mov	DWORD PTR [ebp-4], -858993460		; ccccccccH
	mov	DWORD PTR _this$[ebp], ecx

; 991  : 		// no overflow check on the following multiply; we assume _Allocate did that check
; 992  : 		_Deallocate<_New_alignof<_Ty>>(_Ptr, sizeof(_Ty) * _Count);

	mov	eax, DWORD PTR __Count$[ebp]
	push	eax
	mov	ecx, DWORD PTR __Ptr$[ebp]
	push	ecx
	call	??$_Deallocate@$07$0A@@std@@YAXPAXI@Z	; std::_Deallocate<8,0>
	add	esp, 8

; 993  : 		}

	add	esp, 4
	cmp	ebp, esp
	call	__RTC_CheckEsp
	mov	esp, ebp
	pop	ebp
	ret	8
?deallocate@?$allocator@D@std@@QAEXQADI@Z ENDP		; std::allocator<char>::deallocate
_TEXT	ENDS
; Function compile flags: /Odtp /RTCsu
; File c:\program files (x86)\microsoft visual studio\2017\community\vc\tools\msvc\14.15.26726\include\xmemory0
;	COMDAT ?_Adjust_manually_vector_aligned@std@@YAXAAPAXAAI@Z
_TEXT	SEGMENT
__Back_shift$ = -16					; size = 4
__Min_back_shift$ = -12					; size = 4
__Ptr_container$ = -8					; size = 4
__Ptr_user$ = -4					; size = 4
__Ptr$ = 8						; size = 4
__Bytes$ = 12						; size = 4
?_Adjust_manually_vector_aligned@std@@YAXAAPAXAAI@Z PROC ; std::_Adjust_manually_vector_aligned, COMDAT

; 114  : 	{	// adjust parameters from _Allocate_manually_vector_aligned to pass to operator delete

	push	ebp
	mov	ebp, esp
	sub	esp, 16					; 00000010H
	mov	eax, -858993460				; ccccccccH
	mov	DWORD PTR [ebp-16], eax
	mov	DWORD PTR [ebp-12], eax
	mov	DWORD PTR [ebp-8], eax
	mov	DWORD PTR [ebp-4], eax

; 115  : 	_Bytes += _Non_user_size;

	mov	eax, DWORD PTR __Bytes$[ebp]
	mov	ecx, DWORD PTR [eax]
	add	ecx, 39					; 00000027H
	mov	edx, DWORD PTR __Bytes$[ebp]
	mov	DWORD PTR [edx], ecx

; 116  : 
; 117  : 	const uintptr_t * const _Ptr_user = reinterpret_cast<uintptr_t *>(_Ptr);

	mov	eax, DWORD PTR __Ptr$[ebp]
	mov	ecx, DWORD PTR [eax]
	mov	DWORD PTR __Ptr_user$[ebp], ecx

; 118  : 	const uintptr_t _Ptr_container = _Ptr_user[-1];

	mov	edx, 4
	imul	eax, edx, -1
	mov	ecx, DWORD PTR __Ptr_user$[ebp]
	mov	edx, DWORD PTR [ecx+eax]
	mov	DWORD PTR __Ptr_container$[ebp], edx
$LN4@Adjust_man:

; 119  : 
; 120  : 	// If the following asserts, it likely means that we are performing
; 121  : 	// an aligned delete on memory coming from an unaligned allocation.
; 122  : 	_STL_ASSERT(_Ptr_user[-2] == _Big_allocation_sentinel, "invalid argument");

	mov	eax, 4
	imul	ecx, eax, -2
	mov	edx, DWORD PTR __Ptr_user$[ebp]
	cmp	DWORD PTR [edx+ecx], -84215046		; fafafafaH
	jne	SHORT $LN7@Adjust_man
	jmp	SHORT $LN2@Adjust_man
$LN7@Adjust_man:
	push	OFFSET ??_C@_0BB@FCMFBGOM@invalid?5argument@
	push	OFFSET ??_C@_02DKCKIIND@?$CFs@
	push	0
	push	122					; 0000007aH
	push	OFFSET ??_C@_0GJ@CAJJPMGE@c?3?2program?5files?5?$CIx86?$CJ?2microsof@
	push	2
	call	__CrtDbgReport
	add	esp, 24					; 00000018H
	cmp	eax, 1
	jne	SHORT $LN19@Adjust_man
	int	3
$LN19@Adjust_man:
	push	0
	push	122					; 0000007aH
	push	OFFSET ??_C@_1NC@ICJKIMIP@?$AAc?$AA?3?$AA?2?$AAp?$AAr?$AAo?$AAg?$AAr?$AAa?$AAm?$AA?5?$AAf?$AAi?$AAl?$AAe@
	push	OFFSET ??_C@_1EK@NIFDJFDG@?$AAs?$AAt?$AAd?$AA?3?$AA?3?$AA_?$AAA?$AAd?$AAj?$AAu?$AAs?$AAt?$AA_?$AAm?$AAa@
	push	OFFSET ??_C@_1CG@JNLFBNGN@?$AA?$CC?$AAi?$AAn?$AAv?$AAa?$AAl?$AAi?$AAd?$AA?5?$AAa?$AAr?$AAg?$AAu?$AAm?$AAe@
	call	__invalid_parameter
	add	esp, 20					; 00000014H
	xor	ecx, ecx
	jne	SHORT $LN7@Adjust_man
$LN2@Adjust_man:
	xor	edx, edx
	jne	SHORT $LN4@Adjust_man

; 123  : 
; 124  : 	// Extra paranoia on aligned allocation/deallocation; ensure _Ptr_container is
; 125  : 	// in range [_Min_back_shift, _Non_user_size]
; 126  :   #ifdef _DEBUG
; 127  : 	constexpr uintptr_t _Min_back_shift = 2 * sizeof(void *);

	mov	DWORD PTR __Min_back_shift$[ebp], 8

; 128  :   #else /* ^^^ _DEBUG ^^^ // vvv !_DEBUG vvv */
; 129  : 	constexpr uintptr_t _Min_back_shift = sizeof(void *);
; 130  :   #endif /* _DEBUG */
; 131  : 	const uintptr_t _Back_shift = reinterpret_cast<uintptr_t>(_Ptr) - _Ptr_container;

	mov	eax, DWORD PTR __Ptr$[ebp]
	mov	ecx, DWORD PTR [eax]
	sub	ecx, DWORD PTR __Ptr_container$[ebp]
	mov	DWORD PTR __Back_shift$[ebp], ecx
$LN10@Adjust_man:

; 132  : 	_STL_VERIFY(_Back_shift >= _Min_back_shift && _Back_shift <= _Non_user_size, "invalid argument");

	cmp	DWORD PTR __Back_shift$[ebp], 8
	jb	SHORT $LN13@Adjust_man
	cmp	DWORD PTR __Back_shift$[ebp], 39	; 00000027H
	ja	SHORT $LN13@Adjust_man
	jmp	SHORT $LN8@Adjust_man
$LN13@Adjust_man:
	push	OFFSET ??_C@_0BB@FCMFBGOM@invalid?5argument@
	push	OFFSET ??_C@_02DKCKIIND@?$CFs@
	push	0
	push	132					; 00000084H
	push	OFFSET ??_C@_0GJ@CAJJPMGE@c?3?2program?5files?5?$CIx86?$CJ?2microsof@
	push	2
	call	__CrtDbgReport
	add	esp, 24					; 00000018H
	cmp	eax, 1
	jne	SHORT $LN20@Adjust_man
	int	3
$LN20@Adjust_man:
	push	0
	push	132					; 00000084H
	push	OFFSET ??_C@_1NC@ICJKIMIP@?$AAc?$AA?3?$AA?2?$AAp?$AAr?$AAo?$AAg?$AAr?$AAa?$AAm?$AA?5?$AAf?$AAi?$AAl?$AAe@
	push	OFFSET ??_C@_1EK@NIFDJFDG@?$AAs?$AAt?$AAd?$AA?3?$AA?3?$AA_?$AAA?$AAd?$AAj?$AAu?$AAs?$AAt?$AA_?$AAm?$AAa@
	push	OFFSET ??_C@_1CG@JNLFBNGN@?$AA?$CC?$AAi?$AAn?$AAv?$AAa?$AAl?$AAi?$AAd?$AA?5?$AAa?$AAr?$AAg?$AAu?$AAm?$AAe@
	call	__invalid_parameter
	add	esp, 20					; 00000014H
	xor	eax, eax
	jne	SHORT $LN13@Adjust_man
$LN8@Adjust_man:
	xor	ecx, ecx
	jne	SHORT $LN10@Adjust_man

; 133  : 	_Ptr = reinterpret_cast<void *>(_Ptr_container);

	mov	edx, DWORD PTR __Ptr$[ebp]
	mov	eax, DWORD PTR __Ptr_container$[ebp]
	mov	DWORD PTR [edx], eax

; 134  : 	}

	add	esp, 16					; 00000010H
	cmp	ebp, esp
	call	__RTC_CheckEsp
	mov	esp, ebp
	pop	ebp
	ret	0
?_Adjust_manually_vector_aligned@std@@YAXAAPAXAAI@Z ENDP ; std::_Adjust_manually_vector_aligned
_TEXT	ENDS
; Function compile flags: /Odtp /RTCsu
; File c:\program files (x86)\microsoft visual studio\2017\community\vc\tools\msvc\14.15.26726\include\xutility
;	COMDAT ?_Orphan_me@_Iterator_base12@std@@QAEXXZ
_TEXT	SEGMENT
__Pnext$1 = -8						; size = 4
_this$ = -4						; size = 4
?_Orphan_me@_Iterator_base12@std@@QAEXXZ PROC		; std::_Iterator_base12::_Orphan_me, COMDAT
; _this$ = ecx

; 191  : 		{	// cut ties with parent

	push	ebp
	mov	ebp, esp
	sub	esp, 8
	mov	DWORD PTR [ebp-8], -858993460		; ccccccccH
	mov	DWORD PTR [ebp-4], -858993460		; ccccccccH
	mov	DWORD PTR _this$[ebp], ecx

; 192  :  #if _ITERATOR_DEBUG_LEVEL == 2
; 193  : 		if (_Myproxy != nullptr)

	mov	eax, DWORD PTR _this$[ebp]
	cmp	DWORD PTR [eax], 0
	je	$LN13@Orphan_me

; 194  : 			{	// adopted, remove self from list
; 195  : 			_Iterator_base12 **_Pnext = &_Myproxy->_Myfirstiter;

	mov	ecx, DWORD PTR _this$[ebp]
	mov	edx, DWORD PTR [ecx]
	add	edx, 4
	mov	DWORD PTR __Pnext$1[ebp], edx
$LN2@Orphan_me:

; 196  : 			while (*_Pnext != nullptr && *_Pnext != this)

	mov	eax, DWORD PTR __Pnext$1[ebp]
	cmp	DWORD PTR [eax], 0
	je	SHORT $LN6@Orphan_me
	mov	ecx, DWORD PTR __Pnext$1[ebp]
	mov	edx, DWORD PTR [ecx]
	cmp	edx, DWORD PTR _this$[ebp]
	je	SHORT $LN6@Orphan_me

; 197  : 				_Pnext = &(*_Pnext)->_Mynextiter;

	mov	eax, DWORD PTR __Pnext$1[ebp]
	mov	ecx, DWORD PTR [eax]
	add	ecx, 4
	mov	DWORD PTR __Pnext$1[ebp], ecx
	jmp	SHORT $LN2@Orphan_me
$LN6@Orphan_me:

; 198  : 
; 199  : 			_STL_VERIFY(*_Pnext, "ITERATOR LIST CORRUPTED!");

	mov	edx, DWORD PTR __Pnext$1[ebp]
	cmp	DWORD PTR [edx], 0
	je	SHORT $LN9@Orphan_me
	jmp	SHORT $LN4@Orphan_me
$LN9@Orphan_me:
	push	OFFSET ??_C@_0BJ@LFDBABJJ@ITERATOR?5LIST?5CORRUPTED?$CB@
	push	OFFSET ??_C@_02DKCKIIND@?$CFs@
	push	0
	push	199					; 000000c7H
	push	OFFSET ??_C@_0GJ@DMCEMOMH@c?3?2program?5files?5?$CIx86?$CJ?2microsof@
	push	2
	call	__CrtDbgReport
	add	esp, 24					; 00000018H
	cmp	eax, 1
	jne	SHORT $LN14@Orphan_me
	int	3
$LN14@Orphan_me:
	push	0
	push	199					; 000000c7H
	push	OFFSET ??_C@_1NC@HPHBFJCM@?$AAc?$AA?3?$AA?2?$AAp?$AAr?$AAo?$AAg?$AAr?$AAa?$AAm?$AA?5?$AAf?$AAi?$AAl?$AAe@
	push	OFFSET ??_C@_1EE@KLDMFDFL@?$AAs?$AAt?$AAd?$AA?3?$AA?3?$AA_?$AAI?$AAt?$AAe?$AAr?$AAa?$AAt?$AAo?$AAr?$AA_@
	push	OFFSET ??_C@_1DG@PLBPCAEM@?$AA?$CC?$AAI?$AAT?$AAE?$AAR?$AAA?$AAT?$AAO?$AAR?$AA?5?$AAL?$AAI?$AAS?$AAT?$AA?5@
	call	__invalid_parameter
	add	esp, 20					; 00000014H
	xor	ecx, ecx
	jne	SHORT $LN9@Orphan_me
$LN4@Orphan_me:
	xor	edx, edx
	jne	SHORT $LN6@Orphan_me

; 200  : 			*_Pnext = _Mynextiter;

	mov	eax, DWORD PTR __Pnext$1[ebp]
	mov	ecx, DWORD PTR _this$[ebp]
	mov	edx, DWORD PTR [ecx+4]
	mov	DWORD PTR [eax], edx

; 201  : 			_Myproxy = nullptr;

	mov	eax, DWORD PTR _this$[ebp]
	mov	DWORD PTR [eax], 0
$LN13@Orphan_me:

; 202  : 			}
; 203  :  #endif /* _ITERATOR_DEBUG_LEVEL == 2 */
; 204  : 		}

	add	esp, 8
	cmp	ebp, esp
	call	__RTC_CheckEsp
	mov	esp, ebp
	pop	ebp
	ret	0
?_Orphan_me@_Iterator_base12@std@@QAEXXZ ENDP		; std::_Iterator_base12::_Orphan_me
_TEXT	ENDS
; Function compile flags: /Odtp /RTCsu
; File c:\program files (x86)\microsoft visual studio\2017\community\vc\tools\msvc\14.15.26726\include\xutility
;	COMDAT ?_Getpnext@_Iterator_base12@std@@QAEPAPAU12@XZ
_TEXT	SEGMENT
_this$ = -4						; size = 4
?_Getpnext@_Iterator_base12@std@@QAEPAPAU12@XZ PROC	; std::_Iterator_base12::_Getpnext, COMDAT
; _this$ = ecx

; 186  : 		{	// get address of remaining iterator chain

	push	ebp
	mov	ebp, esp
	push	ecx
	mov	DWORD PTR [ebp-4], -858993460		; ccccccccH
	mov	DWORD PTR _this$[ebp], ecx

; 187  : 		return (&_Mynextiter);

	mov	eax, DWORD PTR _this$[ebp]
	add	eax, 4

; 188  : 		}

	mov	esp, ebp
	pop	ebp
	ret	0
?_Getpnext@_Iterator_base12@std@@QAEPAPAU12@XZ ENDP	; std::_Iterator_base12::_Getpnext
_TEXT	ENDS
; Function compile flags: /Odtp /RTCsu
; File c:\program files (x86)\microsoft visual studio\2017\community\vc\tools\msvc\14.15.26726\include\xutility
;	COMDAT ?_Getcont@_Iterator_base12@std@@QBEPBU_Container_base12@2@XZ
_TEXT	SEGMENT
tv68 = -8						; size = 4
_this$ = -4						; size = 4
?_Getcont@_Iterator_base12@std@@QBEPBU_Container_base12@2@XZ PROC ; std::_Iterator_base12::_Getcont, COMDAT
; _this$ = ecx

; 181  : 		{	// get owning container

	push	ebp
	mov	ebp, esp
	sub	esp, 8
	mov	DWORD PTR [ebp-8], -858993460		; ccccccccH
	mov	DWORD PTR [ebp-4], -858993460		; ccccccccH
	mov	DWORD PTR _this$[ebp], ecx

; 182  : 		return (_Myproxy == nullptr ? nullptr : _Myproxy->_Mycont);

	mov	eax, DWORD PTR _this$[ebp]
	cmp	DWORD PTR [eax], 0
	jne	SHORT $LN3@Getcont
	mov	DWORD PTR tv68[ebp], 0
	jmp	SHORT $LN4@Getcont
$LN3@Getcont:
	mov	ecx, DWORD PTR _this$[ebp]
	mov	edx, DWORD PTR [ecx]
	mov	eax, DWORD PTR [edx]
	mov	DWORD PTR tv68[ebp], eax
$LN4@Getcont:
	mov	eax, DWORD PTR tv68[ebp]

; 183  : 		}

	mov	esp, ebp
	pop	ebp
	ret	0
?_Getcont@_Iterator_base12@std@@QBEPBU_Container_base12@2@XZ ENDP ; std::_Iterator_base12::_Getcont
_TEXT	ENDS
; Function compile flags: /Odtp /RTCsu
; File c:\program files (x86)\microsoft visual studio\2017\community\vc\tools\msvc\14.15.26726\include\xutility
;	COMDAT ?_Clrcont@_Iterator_base12@std@@QAEXXZ
_TEXT	SEGMENT
_this$ = -4						; size = 4
?_Clrcont@_Iterator_base12@std@@QAEXXZ PROC		; std::_Iterator_base12::_Clrcont, COMDAT
; _this$ = ecx

; 176  : 		{	// disown owning container

	push	ebp
	mov	ebp, esp
	push	ecx
	mov	DWORD PTR [ebp-4], -858993460		; ccccccccH
	mov	DWORD PTR _this$[ebp], ecx

; 177  : 		_Myproxy = nullptr;

	mov	eax, DWORD PTR _this$[ebp]
	mov	DWORD PTR [eax], 0

; 178  : 		}

	mov	esp, ebp
	pop	ebp
	ret	0
?_Clrcont@_Iterator_base12@std@@QAEXXZ ENDP		; std::_Iterator_base12::_Clrcont
_TEXT	ENDS
; Function compile flags: /Odtp /RTCsu
; File c:\program files (x86)\microsoft visual studio\2017\community\vc\tools\msvc\14.15.26726\include\xutility
;	COMDAT ?_Adopt@_Iterator_base12@std@@QAEXPBU_Container_base12@2@@Z
_TEXT	SEGMENT
__Lock$2 = -40						; size = 4
__Parent_proxy$3 = -32					; size = 4
__Lock$4 = -24						; size = 4
_this$ = -16						; size = 4
__$EHRec$ = -12						; size = 12
__Parent$ = 8						; size = 4
?_Adopt@_Iterator_base12@std@@QAEXPBU_Container_base12@2@@Z PROC ; std::_Iterator_base12::_Adopt, COMDAT
; _this$ = ecx

; 147  : 		{	// adopt this iterator by parent

	push	ebp
	mov	ebp, esp
	push	-1
	push	__ehhandler$?_Adopt@_Iterator_base12@std@@QAEXPBU_Container_base12@2@@Z
	mov	eax, DWORD PTR fs:0
	push	eax
	sub	esp, 32					; 00000020H
	mov	eax, -858993460				; ccccccccH
	mov	DWORD PTR [ebp-44], eax
	mov	DWORD PTR [ebp-40], eax
	mov	DWORD PTR [ebp-36], eax
	mov	DWORD PTR [ebp-32], eax
	mov	DWORD PTR [ebp-28], eax
	mov	DWORD PTR [ebp-24], eax
	mov	DWORD PTR [ebp-20], eax
	mov	DWORD PTR [ebp-16], eax
	mov	eax, DWORD PTR ___security_cookie
	xor	eax, ebp
	push	eax
	lea	eax, DWORD PTR __$EHRec$[ebp]
	mov	DWORD PTR fs:0, eax
	mov	DWORD PTR _this$[ebp], ecx

; 148  : 		if (_Parent == nullptr)

	cmp	DWORD PTR __Parent$[ebp], 0
	jne	SHORT $LN2@Adopt

; 149  : 			{	// no future parent, just disown current parent
; 150  :  #if _ITERATOR_DEBUG_LEVEL == 2
; 151  : 			_Lockit _Lock(_LOCK_DEBUG);

	push	3
	lea	ecx, DWORD PTR __Lock$4[ebp]
	call	??0_Lockit@std@@QAE@H@Z			; std::_Lockit::_Lockit

; 152  : 			_Orphan_me();

	mov	ecx, DWORD PTR _this$[ebp]
	call	?_Orphan_me@_Iterator_base12@std@@QAEXXZ ; std::_Iterator_base12::_Orphan_me

; 153  :  #endif /* _ITERATOR_DEBUG_LEVEL == 2 */
; 154  : 			}

	lea	ecx, DWORD PTR __Lock$4[ebp]
	call	??1_Lockit@std@@QAE@XZ			; std::_Lockit::~_Lockit

; 155  : 		else

	jmp	SHORT $LN5@Adopt
$LN2@Adopt:

; 156  : 			{	// have a parent, do adoption
; 157  : 			_Container_proxy *_Parent_proxy = _Parent->_Myproxy;

	mov	eax, DWORD PTR __Parent$[ebp]
	mov	ecx, DWORD PTR [eax]
	mov	DWORD PTR __Parent_proxy$3[ebp], ecx

; 158  : 
; 159  :  #if _ITERATOR_DEBUG_LEVEL == 2
; 160  : 			if (_Myproxy != _Parent_proxy)

	mov	edx, DWORD PTR _this$[ebp]
	mov	eax, DWORD PTR [edx]
	cmp	eax, DWORD PTR __Parent_proxy$3[ebp]
	je	SHORT $LN5@Adopt

; 161  : 				{	// change parentage
; 162  : 				_Lockit _Lock(_LOCK_DEBUG);

	push	3
	lea	ecx, DWORD PTR __Lock$2[ebp]
	call	??0_Lockit@std@@QAE@H@Z			; std::_Lockit::_Lockit

; 163  : 				_Orphan_me();

	mov	ecx, DWORD PTR _this$[ebp]
	call	?_Orphan_me@_Iterator_base12@std@@QAEXXZ ; std::_Iterator_base12::_Orphan_me

; 164  : 				_Mynextiter = _Parent_proxy->_Myfirstiter;

	mov	ecx, DWORD PTR _this$[ebp]
	mov	edx, DWORD PTR __Parent_proxy$3[ebp]
	mov	eax, DWORD PTR [edx+4]
	mov	DWORD PTR [ecx+4], eax

; 165  : 				_Parent_proxy->_Myfirstiter = this;

	mov	ecx, DWORD PTR __Parent_proxy$3[ebp]
	mov	edx, DWORD PTR _this$[ebp]
	mov	DWORD PTR [ecx+4], edx

; 166  : 				_Myproxy = _Parent_proxy;

	mov	eax, DWORD PTR _this$[ebp]
	mov	ecx, DWORD PTR __Parent_proxy$3[ebp]
	mov	DWORD PTR [eax], ecx

; 167  : 				}

	lea	ecx, DWORD PTR __Lock$2[ebp]
	call	??1_Lockit@std@@QAE@XZ			; std::_Lockit::~_Lockit
$LN5@Adopt:

; 168  : 
; 169  :  #else /* _ITERATOR_DEBUG_LEVEL == 2 */
; 170  : 			_Myproxy = _Parent_proxy;
; 171  :  #endif /* _ITERATOR_DEBUG_LEVEL == 2 */
; 172  : 			}
; 173  : 		}

	push	edx
	mov	ecx, ebp
	push	eax
	lea	edx, DWORD PTR $LN10@Adopt
	call	@_RTC_CheckStackVars@8
	pop	eax
	pop	edx
	mov	ecx, DWORD PTR __$EHRec$[ebp]
	mov	DWORD PTR fs:0, ecx
	pop	ecx
	add	esp, 44					; 0000002cH
	cmp	ebp, esp
	call	__RTC_CheckEsp
	mov	esp, ebp
	pop	ebp
	ret	4
$LN10@Adopt:
	DD	2
	DD	$LN9@Adopt
$LN9@Adopt:
	DD	-24					; ffffffe8H
	DD	4
	DD	$LN6@Adopt
	DD	-40					; ffffffd8H
	DD	4
	DD	$LN7@Adopt
$LN7@Adopt:
	DB	95					; 0000005fH
	DB	76					; 0000004cH
	DB	111					; 0000006fH
	DB	99					; 00000063H
	DB	107					; 0000006bH
	DB	0
$LN6@Adopt:
	DB	95					; 0000005fH
	DB	76					; 0000004cH
	DB	111					; 0000006fH
	DB	99					; 00000063H
	DB	107					; 0000006bH
	DB	0
_TEXT	ENDS
;	COMDAT text$x
text$x	SEGMENT
__ehhandler$?_Adopt@_Iterator_base12@std@@QAEXPBU_Container_base12@2@@Z:
	mov	edx, DWORD PTR [esp+8]
	lea	eax, DWORD PTR [edx+12]
	mov	ecx, DWORD PTR [edx-36]
	xor	ecx, eax
	call	@__security_check_cookie@4
	mov	eax, OFFSET __ehfuncinfo$?_Adopt@_Iterator_base12@std@@QAEXPBU_Container_base12@2@@Z
	jmp	___CxxFrameHandler3
text$x	ENDS
?_Adopt@_Iterator_base12@std@@QAEXPBU_Container_base12@2@@Z ENDP ; std::_Iterator_base12::_Adopt
; Function compile flags: /Odtp /RTCsu
; File c:\program files (x86)\microsoft visual studio\2017\community\vc\tools\msvc\14.15.26726\include\xutility
;	COMDAT ??1_Iterator_base12@std@@QAE@XZ
_TEXT	SEGMENT
__Lock$ = -24						; size = 4
_this$ = -16						; size = 4
__$EHRec$ = -12						; size = 12
??1_Iterator_base12@std@@QAE@XZ PROC			; std::_Iterator_base12::~_Iterator_base12, COMDAT
; _this$ = ecx

; 139  : 		{	// destroy the iterator

	push	ebp
	mov	ebp, esp
	push	-1
	push	__ehhandler$??1_Iterator_base12@std@@QAE@XZ
	mov	eax, DWORD PTR fs:0
	push	eax
	sub	esp, 16					; 00000010H
	mov	eax, -858993460				; ccccccccH
	mov	DWORD PTR [ebp-28], eax
	mov	DWORD PTR [ebp-24], eax
	mov	DWORD PTR [ebp-20], eax
	mov	DWORD PTR [ebp-16], eax
	mov	eax, DWORD PTR ___security_cookie
	xor	eax, ebp
	push	eax
	lea	eax, DWORD PTR __$EHRec$[ebp]
	mov	DWORD PTR fs:0, eax
	mov	DWORD PTR _this$[ebp], ecx

; 140  :  #if _ITERATOR_DEBUG_LEVEL == 2
; 141  : 		_Lockit _Lock(_LOCK_DEBUG);

	push	3
	lea	ecx, DWORD PTR __Lock$[ebp]
	call	??0_Lockit@std@@QAE@H@Z			; std::_Lockit::_Lockit

; 142  : 		_Orphan_me();

	mov	ecx, DWORD PTR _this$[ebp]
	call	?_Orphan_me@_Iterator_base12@std@@QAEXXZ ; std::_Iterator_base12::_Orphan_me

; 143  :  #endif /* _ITERATOR_DEBUG_LEVEL == 2 */
; 144  : 		}

	lea	ecx, DWORD PTR __Lock$[ebp]
	call	??1_Lockit@std@@QAE@XZ			; std::_Lockit::~_Lockit
	push	edx
	mov	ecx, ebp
	push	eax
	lea	edx, DWORD PTR $LN6@Iterator_b
	call	@_RTC_CheckStackVars@8
	pop	eax
	pop	edx
	mov	ecx, DWORD PTR __$EHRec$[ebp]
	mov	DWORD PTR fs:0, ecx
	pop	ecx
	add	esp, 28					; 0000001cH
	cmp	ebp, esp
	call	__RTC_CheckEsp
	mov	esp, ebp
	pop	ebp
	ret	0
	npad	3
$LN6@Iterator_b:
	DD	1
	DD	$LN5@Iterator_b
$LN5@Iterator_b:
	DD	-24					; ffffffe8H
	DD	4
	DD	$LN3@Iterator_b
$LN3@Iterator_b:
	DB	95					; 0000005fH
	DB	76					; 0000004cH
	DB	111					; 0000006fH
	DB	99					; 00000063H
	DB	107					; 0000006bH
	DB	0
_TEXT	ENDS
;	COMDAT text$x
text$x	SEGMENT
__ehhandler$??1_Iterator_base12@std@@QAE@XZ:
	mov	edx, DWORD PTR [esp+8]
	lea	eax, DWORD PTR [edx+12]
	mov	ecx, DWORD PTR [edx-20]
	xor	ecx, eax
	call	@__security_check_cookie@4
	mov	eax, OFFSET __ehfuncinfo$??1_Iterator_base12@std@@QAE@XZ
	jmp	___CxxFrameHandler3
text$x	ENDS
??1_Iterator_base12@std@@QAE@XZ ENDP			; std::_Iterator_base12::~_Iterator_base12
; Function compile flags: /Odtp /RTCsu
; File c:\program files (x86)\microsoft visual studio\2017\community\vc\tools\msvc\14.15.26726\include\xutility
;	COMDAT ??4_Iterator_base12@std@@QAEAAU01@ABU01@@Z
_TEXT	SEGMENT
__Lock$2 = -24						; size = 4
_this$ = -16						; size = 4
__$EHRec$ = -12						; size = 12
__Right$ = 8						; size = 4
??4_Iterator_base12@std@@QAEAAU01@ABU01@@Z PROC		; std::_Iterator_base12::operator=, COMDAT
; _this$ = ecx

; 119  : 		{	// assign an iterator

	push	ebp
	mov	ebp, esp
	push	-1
	push	__ehhandler$??4_Iterator_base12@std@@QAEAAU01@ABU01@@Z
	mov	eax, DWORD PTR fs:0
	push	eax
	sub	esp, 16					; 00000010H
	mov	eax, -858993460				; ccccccccH
	mov	DWORD PTR [ebp-28], eax
	mov	DWORD PTR [ebp-24], eax
	mov	DWORD PTR [ebp-20], eax
	mov	DWORD PTR [ebp-16], eax
	mov	eax, DWORD PTR ___security_cookie
	xor	eax, ebp
	push	eax
	lea	eax, DWORD PTR __$EHRec$[ebp]
	mov	DWORD PTR fs:0, eax
	mov	DWORD PTR _this$[ebp], ecx

; 120  : 		if (_Myproxy != _Right._Myproxy)

	mov	eax, DWORD PTR _this$[ebp]
	mov	ecx, DWORD PTR __Right$[ebp]
	mov	edx, DWORD PTR [eax]
	cmp	edx, DWORD PTR [ecx]
	je	SHORT $LN2@operator

; 121  : 			{
; 122  : 			if (_Right._Myproxy == nullptr)

	mov	eax, DWORD PTR __Right$[ebp]
	cmp	DWORD PTR [eax], 0
	jne	SHORT $LN3@operator

; 123  : 				{	// becoming invalid, disown current parent
; 124  :  #if _ITERATOR_DEBUG_LEVEL == 2
; 125  : 				_Lockit _Lock(_LOCK_DEBUG);

	push	3
	lea	ecx, DWORD PTR __Lock$2[ebp]
	call	??0_Lockit@std@@QAE@H@Z			; std::_Lockit::_Lockit

; 126  : 				_Orphan_me();

	mov	ecx, DWORD PTR _this$[ebp]
	call	?_Orphan_me@_Iterator_base12@std@@QAEXXZ ; std::_Iterator_base12::_Orphan_me

; 127  :  #endif /* _ITERATOR_DEBUG_LEVEL == 2 */
; 128  : 				}

	lea	ecx, DWORD PTR __Lock$2[ebp]
	call	??1_Lockit@std@@QAE@XZ			; std::_Lockit::~_Lockit

; 129  : 			else

	jmp	SHORT $LN2@operator
$LN3@operator:

; 130  : 				{
; 131  : 				_Adopt(_Right._Myproxy->_Mycont);

	mov	ecx, DWORD PTR __Right$[ebp]
	mov	edx, DWORD PTR [ecx]
	mov	eax, DWORD PTR [edx]
	push	eax
	mov	ecx, DWORD PTR _this$[ebp]
	call	?_Adopt@_Iterator_base12@std@@QAEXPBU_Container_base12@2@@Z ; std::_Iterator_base12::_Adopt
$LN2@operator:

; 132  : 				}
; 133  : 			}
; 134  : 
; 135  : 		return (*this);

	mov	eax, DWORD PTR _this$[ebp]

; 136  : 		}

	push	edx
	mov	ecx, ebp
	push	eax
	lea	edx, DWORD PTR $LN9@operator
	call	@_RTC_CheckStackVars@8
	pop	eax
	pop	edx
	mov	ecx, DWORD PTR __$EHRec$[ebp]
	mov	DWORD PTR fs:0, ecx
	pop	ecx
	add	esp, 28					; 0000001cH
	cmp	ebp, esp
	call	__RTC_CheckEsp
	mov	esp, ebp
	pop	ebp
	ret	4
$LN9@operator:
	DD	1
	DD	$LN8@operator
$LN8@operator:
	DD	-24					; ffffffe8H
	DD	4
	DD	$LN6@operator
$LN6@operator:
	DB	95					; 0000005fH
	DB	76					; 0000004cH
	DB	111					; 0000006fH
	DB	99					; 00000063H
	DB	107					; 0000006bH
	DB	0
_TEXT	ENDS
;	COMDAT text$x
text$x	SEGMENT
__ehhandler$??4_Iterator_base12@std@@QAEAAU01@ABU01@@Z:
	mov	edx, DWORD PTR [esp+8]
	lea	eax, DWORD PTR [edx+12]
	mov	ecx, DWORD PTR [edx-20]
	xor	ecx, eax
	call	@__security_check_cookie@4
	mov	eax, OFFSET __ehfuncinfo$??4_Iterator_base12@std@@QAEAAU01@ABU01@@Z
	jmp	___CxxFrameHandler3
text$x	ENDS
??4_Iterator_base12@std@@QAEAAU01@ABU01@@Z ENDP		; std::_Iterator_base12::operator=
; Function compile flags: /Odtp /RTCsu
; File c:\program files (x86)\microsoft visual studio\2017\community\vc\tools\msvc\14.15.26726\include\xutility
;	COMDAT ??0_Iterator_base12@std@@QAE@ABU01@@Z
_TEXT	SEGMENT
_this$ = -4						; size = 4
__Right$ = 8						; size = 4
??0_Iterator_base12@std@@QAE@ABU01@@Z PROC		; std::_Iterator_base12::_Iterator_base12, COMDAT
; _this$ = ecx

; 114  : 		{	// copy an iterator

	push	ebp
	mov	ebp, esp
	push	ecx
	mov	DWORD PTR [ebp-4], -858993460		; ccccccccH
	mov	DWORD PTR _this$[ebp], ecx

; 113  : 		: _Myproxy(nullptr), _Mynextiter(nullptr)

	mov	eax, DWORD PTR _this$[ebp]
	mov	DWORD PTR [eax], 0
	mov	ecx, DWORD PTR _this$[ebp]
	mov	DWORD PTR [ecx+4], 0

; 115  : 		*this = _Right;

	mov	edx, DWORD PTR __Right$[ebp]
	push	edx
	mov	ecx, DWORD PTR _this$[ebp]
	call	??4_Iterator_base12@std@@QAEAAU01@ABU01@@Z ; std::_Iterator_base12::operator=

; 116  : 		}

	mov	eax, DWORD PTR _this$[ebp]
	add	esp, 4
	cmp	ebp, esp
	call	__RTC_CheckEsp
	mov	esp, ebp
	pop	ebp
	ret	4
??0_Iterator_base12@std@@QAE@ABU01@@Z ENDP		; std::_Iterator_base12::_Iterator_base12
_TEXT	ENDS
; Function compile flags: /Odtp /RTCsu
; File c:\program files (x86)\microsoft visual studio\2017\community\vc\tools\msvc\14.15.26726\include\xutility
;	COMDAT ??0_Iterator_base12@std@@QAE@XZ
_TEXT	SEGMENT
_this$ = -4						; size = 4
??0_Iterator_base12@std@@QAE@XZ PROC			; std::_Iterator_base12::_Iterator_base12, COMDAT
; _this$ = ecx

; 109  : 		{	// construct orphaned iterator

	push	ebp
	mov	ebp, esp
	push	ecx
	mov	DWORD PTR [ebp-4], -858993460		; ccccccccH
	mov	DWORD PTR _this$[ebp], ecx

; 108  : 		: _Myproxy(nullptr), _Mynextiter(nullptr)

	mov	eax, DWORD PTR _this$[ebp]
	mov	DWORD PTR [eax], 0
	mov	ecx, DWORD PTR _this$[ebp]
	mov	DWORD PTR [ecx+4], 0

; 110  : 		}

	mov	eax, DWORD PTR _this$[ebp]
	mov	esp, ebp
	pop	ebp
	ret	0
??0_Iterator_base12@std@@QAE@XZ ENDP			; std::_Iterator_base12::_Iterator_base12
_TEXT	ENDS
; Function compile flags: /Odtp /RTCsu
; File c:\program files (x86)\microsoft visual studio\2017\community\vc\tools\msvc\14.15.26726\include\xutility
;	COMDAT ?_Orphan_all@_Container_base12@std@@QAEXXZ
_TEXT	SEGMENT
__Pnext$2 = -32						; size = 4
__Lock$3 = -24						; size = 4
_this$ = -16						; size = 4
__$EHRec$ = -12						; size = 12
?_Orphan_all@_Container_base12@std@@QAEXXZ PROC		; std::_Container_base12::_Orphan_all, COMDAT
; _this$ = ecx

; 214  : 	{	// orphan all iterators

	push	ebp
	mov	ebp, esp
	push	-1
	push	__ehhandler$?_Orphan_all@_Container_base12@std@@QAEXXZ
	mov	eax, DWORD PTR fs:0
	push	eax
	sub	esp, 20					; 00000014H
	mov	eax, -858993460				; ccccccccH
	mov	DWORD PTR [ebp-32], eax
	mov	DWORD PTR [ebp-28], eax
	mov	DWORD PTR [ebp-24], eax
	mov	DWORD PTR [ebp-20], eax
	mov	DWORD PTR [ebp-16], eax
	mov	eax, DWORD PTR ___security_cookie
	xor	eax, ebp
	push	eax
	lea	eax, DWORD PTR __$EHRec$[ebp]
	mov	DWORD PTR fs:0, eax
	mov	DWORD PTR _this$[ebp], ecx

; 215  :  #if _ITERATOR_DEBUG_LEVEL == 2
; 216  : 	if (_Myproxy != nullptr)

	mov	eax, DWORD PTR _this$[ebp]
	cmp	DWORD PTR [eax], 0
	je	SHORT $LN6@Orphan_all

; 217  : 		{	// proxy allocated, drain it
; 218  : 		_Lockit _Lock(_LOCK_DEBUG);

	push	3
	lea	ecx, DWORD PTR __Lock$3[ebp]
	call	??0_Lockit@std@@QAE@H@Z			; std::_Lockit::_Lockit

; 219  : 
; 220  : 		for (_Iterator_base12 **_Pnext = &_Myproxy->_Myfirstiter;

	mov	ecx, DWORD PTR _this$[ebp]
	mov	edx, DWORD PTR [ecx]
	add	edx, 4
	mov	DWORD PTR __Pnext$2[ebp], edx
	jmp	SHORT $LN4@Orphan_all
$LN2@Orphan_all:

; 221  : 			*_Pnext != nullptr; *_Pnext = (*_Pnext)->_Mynextiter)

	mov	eax, DWORD PTR __Pnext$2[ebp]
	mov	ecx, DWORD PTR [eax]
	mov	edx, DWORD PTR __Pnext$2[ebp]
	mov	eax, DWORD PTR [ecx+4]
	mov	DWORD PTR [edx], eax
$LN4@Orphan_all:
	mov	ecx, DWORD PTR __Pnext$2[ebp]
	cmp	DWORD PTR [ecx], 0
	je	SHORT $LN3@Orphan_all

; 222  : 			(*_Pnext)->_Myproxy = nullptr;

	mov	edx, DWORD PTR __Pnext$2[ebp]
	mov	eax, DWORD PTR [edx]
	mov	DWORD PTR [eax], 0
	jmp	SHORT $LN2@Orphan_all
$LN3@Orphan_all:

; 223  : 		_Myproxy->_Myfirstiter = nullptr;

	mov	ecx, DWORD PTR _this$[ebp]
	mov	edx, DWORD PTR [ecx]
	mov	DWORD PTR [edx+4], 0

; 224  : 		}

	lea	ecx, DWORD PTR __Lock$3[ebp]
	call	??1_Lockit@std@@QAE@XZ			; std::_Lockit::~_Lockit
$LN6@Orphan_all:

; 225  :  #endif /* _ITERATOR_DEBUG_LEVEL == 2 */
; 226  : 	}

	push	edx
	mov	ecx, ebp
	push	eax
	lea	edx, DWORD PTR $LN10@Orphan_all
	call	@_RTC_CheckStackVars@8
	pop	eax
	pop	edx
	mov	ecx, DWORD PTR __$EHRec$[ebp]
	mov	DWORD PTR fs:0, ecx
	pop	ecx
	add	esp, 32					; 00000020H
	cmp	ebp, esp
	call	__RTC_CheckEsp
	mov	esp, ebp
	pop	ebp
	ret	0
	npad	1
$LN10@Orphan_all:
	DD	1
	DD	$LN9@Orphan_all
$LN9@Orphan_all:
	DD	-24					; ffffffe8H
	DD	4
	DD	$LN7@Orphan_all
$LN7@Orphan_all:
	DB	95					; 0000005fH
	DB	76					; 0000004cH
	DB	111					; 0000006fH
	DB	99					; 00000063H
	DB	107					; 0000006bH
	DB	0
_TEXT	ENDS
;	COMDAT text$x
text$x	SEGMENT
__ehhandler$?_Orphan_all@_Container_base12@std@@QAEXXZ:
	mov	edx, DWORD PTR [esp+8]
	lea	eax, DWORD PTR [edx+12]
	mov	ecx, DWORD PTR [edx-24]
	xor	ecx, eax
	call	@__security_check_cookie@4
	mov	eax, OFFSET __ehfuncinfo$?_Orphan_all@_Container_base12@std@@QAEXXZ
	jmp	___CxxFrameHandler3
text$x	ENDS
?_Orphan_all@_Container_base12@std@@QAEXXZ ENDP		; std::_Container_base12::_Orphan_all
; Function compile flags: /Odtp /RTCsu
; File c:\program files (x86)\microsoft visual studio\2017\community\vc\tools\msvc\14.15.26726\include\xutility
;	COMDAT ?_Getpfirst@_Container_base12@std@@QBEPAPAU_Iterator_base12@2@XZ
_TEXT	SEGMENT
tv68 = -8						; size = 4
_this$ = -4						; size = 4
?_Getpfirst@_Container_base12@std@@QBEPAPAU_Iterator_base12@2@XZ PROC ; std::_Container_base12::_Getpfirst, COMDAT
; _this$ = ecx

; 95   : 		{	// get address of iterator chain

	push	ebp
	mov	ebp, esp
	sub	esp, 8
	mov	DWORD PTR [ebp-8], -858993460		; ccccccccH
	mov	DWORD PTR [ebp-4], -858993460		; ccccccccH
	mov	DWORD PTR _this$[ebp], ecx

; 96   : 		return (_Myproxy == nullptr ? nullptr : &_Myproxy->_Myfirstiter);

	mov	eax, DWORD PTR _this$[ebp]
	cmp	DWORD PTR [eax], 0
	jne	SHORT $LN3@Getpfirst
	mov	DWORD PTR tv68[ebp], 0
	jmp	SHORT $LN4@Getpfirst
$LN3@Getpfirst:
	mov	ecx, DWORD PTR _this$[ebp]
	mov	edx, DWORD PTR [ecx]
	add	edx, 4
	mov	DWORD PTR tv68[ebp], edx
$LN4@Getpfirst:
	mov	eax, DWORD PTR tv68[ebp]

; 97   : 		}

	mov	esp, ebp
	pop	ebp
	ret	0
?_Getpfirst@_Container_base12@std@@QBEPAPAU_Iterator_base12@2@XZ ENDP ; std::_Container_base12::_Getpfirst
_TEXT	ENDS
; Function compile flags: /Odtp /RTCsu
; File c:\program files (x86)\microsoft visual studio\2017\community\vc\tools\msvc\14.15.26726\include\iosfwd
;	COMDAT ?assign@?$char_traits@D@std@@SAXAADABD@Z
_TEXT	SEGMENT
__Left$ = 8						; size = 4
__Right$ = 12						; size = 4
?assign@?$char_traits@D@std@@SAXAADABD@Z PROC		; std::char_traits<char>::assign, COMDAT

; 505  : 		{	// assign an element

	push	ebp
	mov	ebp, esp

; 506  : 		_Left = _Right;

	mov	eax, DWORD PTR __Left$[ebp]
	mov	ecx, DWORD PTR __Right$[ebp]
	mov	dl, BYTE PTR [ecx]
	mov	BYTE PTR [eax], dl

; 507  : 		}

	pop	ebp
	ret	0
?assign@?$char_traits@D@std@@SAXAADABD@Z ENDP		; std::char_traits<char>::assign
_TEXT	ENDS
; Function compile flags: /Odtp /RTCsu
;	COMDAT ??_Gexception@std@@UAEPAXI@Z
_TEXT	SEGMENT
_this$ = -4						; size = 4
___flags$ = 8						; size = 4
??_Gexception@std@@UAEPAXI@Z PROC			; std::exception::`scalar deleting destructor', COMDAT
; _this$ = ecx
	push	ebp
	mov	ebp, esp
	push	ecx
	mov	DWORD PTR [ebp-4], -858993460		; ccccccccH
	mov	DWORD PTR _this$[ebp], ecx
	mov	ecx, DWORD PTR _this$[ebp]
	call	??1exception@std@@UAE@XZ		; std::exception::~exception
	mov	eax, DWORD PTR ___flags$[ebp]
	and	eax, 1
	je	SHORT $LN2@scalar
	push	12					; 0000000cH
	mov	ecx, DWORD PTR _this$[ebp]
	push	ecx
	call	??3@YAXPAXI@Z				; operator delete
	add	esp, 8
$LN2@scalar:
	mov	eax, DWORD PTR _this$[ebp]
	add	esp, 4
	cmp	ebp, esp
	call	__RTC_CheckEsp
	mov	esp, ebp
	pop	ebp
	ret	4
??_Gexception@std@@UAEPAXI@Z ENDP			; std::exception::`scalar deleting destructor'
_TEXT	ENDS
; Function compile flags: /Odtp /RTCsu
; File c:\program files (x86)\microsoft visual studio\2017\community\vc\tools\msvc\14.15.26726\include\vcruntime_exception.h
;	COMDAT ?what@exception@std@@UBEPBDXZ
_TEXT	SEGMENT
tv69 = -8						; size = 4
_this$ = -4						; size = 4
?what@exception@std@@UBEPBDXZ PROC			; std::exception::what, COMDAT
; _this$ = ecx

; 90   :     {

	push	ebp
	mov	ebp, esp
	sub	esp, 8
	mov	DWORD PTR [ebp-8], -858993460		; ccccccccH
	mov	DWORD PTR [ebp-4], -858993460		; ccccccccH
	mov	DWORD PTR _this$[ebp], ecx

; 91   :         return _Data._What ? _Data._What : "Unknown exception";

	mov	eax, DWORD PTR _this$[ebp]
	cmp	DWORD PTR [eax+4], 0
	je	SHORT $LN3@what
	mov	ecx, DWORD PTR _this$[ebp]
	mov	edx, DWORD PTR [ecx+4]
	mov	DWORD PTR tv69[ebp], edx
	jmp	SHORT $LN4@what
$LN3@what:
	mov	DWORD PTR tv69[ebp], OFFSET ??_C@_0BC@EOODALEL@Unknown?5exception@
$LN4@what:
	mov	eax, DWORD PTR tv69[ebp]

; 92   :     }

	mov	esp, ebp
	pop	ebp
	ret	0
?what@exception@std@@UBEPBDXZ ENDP			; std::exception::what
_TEXT	ENDS
; Function compile flags: /Odtp /RTCsu
; File c:\program files (x86)\microsoft visual studio\2017\community\vc\tools\msvc\14.15.26726\include\vcruntime_exception.h
;	COMDAT ??1exception@std@@UAE@XZ
_TEXT	SEGMENT
_this$ = -4						; size = 4
??1exception@std@@UAE@XZ PROC				; std::exception::~exception, COMDAT
; _this$ = ecx

; 85   :     {

	push	ebp
	mov	ebp, esp
	push	ecx
	mov	DWORD PTR [ebp-4], -858993460		; ccccccccH
	mov	DWORD PTR _this$[ebp], ecx
	mov	eax, DWORD PTR _this$[ebp]
	mov	DWORD PTR [eax], OFFSET ??_7exception@std@@6B@

; 86   :         __std_exception_destroy(&_Data);

	mov	ecx, DWORD PTR _this$[ebp]
	add	ecx, 4
	push	ecx
	call	___std_exception_destroy
	add	esp, 4

; 87   :     }

	add	esp, 4
	cmp	ebp, esp
	call	__RTC_CheckEsp
	mov	esp, ebp
	pop	ebp
	ret	0
??1exception@std@@UAE@XZ ENDP				; std::exception::~exception
_TEXT	ENDS
; Function compile flags: /Odtp /RTCsu
; File c:\program files (x86)\microsoft visual studio\2017\community\vc\tools\msvc\14.15.26726\include\vcruntime_exception.h
;	COMDAT ??0exception@std@@QAE@ABV01@@Z
_TEXT	SEGMENT
_this$ = -4						; size = 4
__Other$ = 8						; size = 4
??0exception@std@@QAE@ABV01@@Z PROC			; std::exception::exception, COMDAT
; _this$ = ecx

; 68   :     {

	push	ebp
	mov	ebp, esp
	push	ecx
	mov	DWORD PTR [ebp-4], -858993460		; ccccccccH
	mov	DWORD PTR _this$[ebp], ecx
	mov	eax, DWORD PTR _this$[ebp]
	mov	DWORD PTR [eax], OFFSET ??_7exception@std@@6B@

; 67   :         : _Data()

	xor	ecx, ecx
	mov	edx, DWORD PTR _this$[ebp]
	add	edx, 4
	mov	DWORD PTR [edx], ecx
	mov	DWORD PTR [edx+4], ecx

; 69   :         __std_exception_copy(&_Other._Data, &_Data);

	mov	eax, DWORD PTR _this$[ebp]
	add	eax, 4
	push	eax
	mov	ecx, DWORD PTR __Other$[ebp]
	add	ecx, 4
	push	ecx
	call	___std_exception_copy
	add	esp, 8

; 70   :     }

	mov	eax, DWORD PTR _this$[ebp]
	add	esp, 4
	cmp	ebp, esp
	call	__RTC_CheckEsp
	mov	esp, ebp
	pop	ebp
	ret	4
??0exception@std@@QAE@ABV01@@Z ENDP			; std::exception::exception
_TEXT	ENDS
; Function compile flags: /Odtp /RTCsu
; File c:\program files (x86)\microsoft visual studio\2017\community\vc\tools\msvc\14.15.26726\include\vcruntime_exception.h
;	COMDAT ??0exception@std@@QAE@QBD@Z
_TEXT	SEGMENT
__InitData$ = -16					; size = 8
_this$ = -4						; size = 4
__Message$ = 8						; size = 4
??0exception@std@@QAE@QBD@Z PROC			; std::exception::exception, COMDAT
; _this$ = ecx

; 55   :     {

	push	ebp
	mov	ebp, esp
	sub	esp, 20					; 00000014H
	mov	eax, -858993460				; ccccccccH
	mov	DWORD PTR [ebp-20], eax
	mov	DWORD PTR [ebp-16], eax
	mov	DWORD PTR [ebp-12], eax
	mov	DWORD PTR [ebp-8], eax
	mov	DWORD PTR [ebp-4], eax
	mov	DWORD PTR _this$[ebp], ecx
	mov	eax, DWORD PTR _this$[ebp]
	mov	DWORD PTR [eax], OFFSET ??_7exception@std@@6B@

; 54   :         : _Data()

	xor	ecx, ecx
	mov	edx, DWORD PTR _this$[ebp]
	add	edx, 4
	mov	DWORD PTR [edx], ecx
	mov	DWORD PTR [edx+4], ecx

; 56   :         __std_exception_data _InitData = { _Message, true };

	mov	eax, DWORD PTR __Message$[ebp]
	mov	DWORD PTR __InitData$[ebp], eax
	mov	BYTE PTR __InitData$[ebp+4], 1

; 57   :         __std_exception_copy(&_InitData, &_Data);

	mov	ecx, DWORD PTR _this$[ebp]
	add	ecx, 4
	push	ecx
	lea	edx, DWORD PTR __InitData$[ebp]
	push	edx
	call	___std_exception_copy
	add	esp, 8

; 58   :     }

	mov	eax, DWORD PTR _this$[ebp]
	push	edx
	mov	ecx, ebp
	push	eax
	lea	edx, DWORD PTR $LN5@exception
	call	@_RTC_CheckStackVars@8
	pop	eax
	pop	edx
	add	esp, 20					; 00000014H
	cmp	ebp, esp
	call	__RTC_CheckEsp
	mov	esp, ebp
	pop	ebp
	ret	4
$LN5@exception:
	DD	1
	DD	$LN4@exception
$LN4@exception:
	DD	-16					; fffffff0H
	DD	8
	DD	$LN3@exception
$LN3@exception:
	DB	95					; 0000005fH
	DB	73					; 00000049H
	DB	110					; 0000006eH
	DB	105					; 00000069H
	DB	116					; 00000074H
	DB	68					; 00000044H
	DB	97					; 00000061H
	DB	116					; 00000074H
	DB	97					; 00000061H
	DB	0
??0exception@std@@QAE@QBD@Z ENDP			; std::exception::exception
_TEXT	ENDS
; Function compile flags: /Odtp /RTCsu
; File c:\program files (x86)\microsoft visual studio\2017\community\vc\tools\msvc\14.15.26726\include\limits
;	COMDAT ?max@?$numeric_limits@N@std@@SANXZ
_TEXT	SEGMENT
?max@?$numeric_limits@N@std@@SANXZ PROC			; std::numeric_limits<double>::max, COMDAT

; 1062 : 		{	// return maximum value

	push	ebp
	mov	ebp, esp

; 1063 : 		return (DBL_MAX);

	fld	QWORD PTR __real@7fefffffffffffff

; 1064 : 		}

	pop	ebp
	ret	0
?max@?$numeric_limits@N@std@@SANXZ ENDP			; std::numeric_limits<double>::max
_TEXT	ENDS
; Function compile flags: /Odtp /RTCsu
; File c:\program files (x86)\microsoft visual studio\2017\community\vc\tools\msvc\14.15.26726\include\limits
;	COMDAT ?min@?$numeric_limits@N@std@@SANXZ
_TEXT	SEGMENT
?min@?$numeric_limits@N@std@@SANXZ PROC			; std::numeric_limits<double>::min, COMDAT

; 1057 : 		{	// return minimum value

	push	ebp
	mov	ebp, esp

; 1058 : 		return (DBL_MIN);

	fld	QWORD PTR __real@0010000000000000

; 1059 : 		}

	pop	ebp
	ret	0
?min@?$numeric_limits@N@std@@SANXZ ENDP			; std::numeric_limits<double>::min
_TEXT	ENDS
; Function compile flags: /Odtp /RTCsu
; File c:\program files (x86)\microsoft visual studio\2017\community\vc\tools\msvc\14.15.26726\include\limits
;	COMDAT ?max@?$numeric_limits@M@std@@SAMXZ
_TEXT	SEGMENT
?max@?$numeric_limits@M@std@@SAMXZ PROC			; std::numeric_limits<float>::max, COMDAT

; 1003 : 		{	// return maximum value

	push	ebp
	mov	ebp, esp

; 1004 : 		return (FLT_MAX);

	fld	DWORD PTR __real@7f7fffff

; 1005 : 		}

	pop	ebp
	ret	0
?max@?$numeric_limits@M@std@@SAMXZ ENDP			; std::numeric_limits<float>::max
_TEXT	ENDS
; Function compile flags: /Odtp /RTCsu
; File c:\program files (x86)\microsoft visual studio\2017\community\vc\tools\msvc\14.15.26726\include\limits
;	COMDAT ?min@?$numeric_limits@M@std@@SAMXZ
_TEXT	SEGMENT
?min@?$numeric_limits@M@std@@SAMXZ PROC			; std::numeric_limits<float>::min, COMDAT

; 998  : 		{	// return minimum value

	push	ebp
	mov	ebp, esp

; 999  : 		return (FLT_MIN);

	fld	DWORD PTR __real@00800000

; 1000 : 		}

	pop	ebp
	ret	0
?min@?$numeric_limits@M@std@@SAMXZ ENDP			; std::numeric_limits<float>::min
_TEXT	ENDS
; Function compile flags: /Odtp /RTCsu
; File c:\program files (x86)\microsoft visual studio\2017\community\vc\tools\msvc\14.15.26726\include\limits
;	COMDAT ?max@?$numeric_limits@H@std@@SAHXZ
_TEXT	SEGMENT
?max@?$numeric_limits@H@std@@SAHXZ PROC			; std::numeric_limits<int>::max, COMDAT

; 616  : 		{	// return maximum value

	push	ebp
	mov	ebp, esp

; 617  : 		return (INT_MAX);

	mov	eax, 2147483647				; 7fffffffH

; 618  : 		}

	pop	ebp
	ret	0
?max@?$numeric_limits@H@std@@SAHXZ ENDP			; std::numeric_limits<int>::max
_TEXT	ENDS
; Function compile flags: /Odtp /RTCsu
; File c:\users\utilisateur\documents\gitkraken\8iar125-projetraven\vs2015\buckland_chapter7 to 10_raven\goals\goal_getitem.cpp
;	COMDAT ?__empty_global_delete@@YAXPAXI@Z
_TEXT	SEGMENT
___formal$ = 8						; size = 4
___formal$ = 12						; size = 4
?__empty_global_delete@@YAXPAXI@Z PROC			; __empty_global_delete, COMDAT

	push	ebp
	mov	ebp, esp
	pop	ebp
	ret	0
?__empty_global_delete@@YAXPAXI@Z ENDP			; __empty_global_delete
_TEXT	ENDS
; Function compile flags: /Odtp /RTCsu
; File c:\users\utilisateur\documents\gitkraken\8iar125-projetraven\vs2015\buckland_chapter7 to 10_raven\goals\goal_getitem.cpp
;	COMDAT ?__empty_global_delete@@YAXPAX@Z
_TEXT	SEGMENT
___formal$ = 8						; size = 4
?__empty_global_delete@@YAXPAX@Z PROC			; __empty_global_delete, COMDAT

	push	ebp
	mov	ebp, esp
	pop	ebp
	ret	0
?__empty_global_delete@@YAXPAX@Z ENDP			; __empty_global_delete
_TEXT	ENDS
END
