; Listing generated by Microsoft (R) Optimizing Compiler Version 19.15.26730.0 

	TITLE	C:\Users\Utilisateur\Documents\GitHub\8IAR125-ProjetRaven\VS2015\Buckland_Chapter7 to 10_Raven\goals\Goal_Think.cpp
	.686P
	.XMM
	include listing.inc
	.model	flat

INCLUDELIB LIBCMTD
INCLUDELIB OLDNAMES

CONST	SEGMENT
$SG164597 DB	'<Goal_Think::Arbitrate>: no evaluator selected', 00H
?piecewise_construct@std@@3Upiecewise_construct_t@1@B	ORG $+1 ; std::piecewise_construct
$SG164598 DB	'c', 00H, ':', 00H, '\', 00H, 'u', 00H, 's', 00H, 'e', 00H
	DB	'r', 00H, 's', 00H, '\', 00H, 'u', 00H, 't', 00H, 'i', 00H, 'l'
	DB	00H, 'i', 00H, 's', 00H, 'a', 00H, 't', 00H, 'e', 00H, 'u', 00H
	DB	'r', 00H, '\', 00H, 'd', 00H, 'o', 00H, 'c', 00H, 'u', 00H, 'm'
	DB	00H, 'e', 00H, 'n', 00H, 't', 00H, 's', 00H, '\', 00H, 'g', 00H
	DB	'i', 00H, 't', 00H, 'h', 00H, 'u', 00H, 'b', 00H, '\', 00H, '8'
	DB	00H, 'i', 00H, 'a', 00H, 'r', 00H, '1', 00H, '2', 00H, '5', 00H
	DB	'-', 00H, 'p', 00H, 'r', 00H, 'o', 00H, 'j', 00H, 'e', 00H, 't'
	DB	00H, 'r', 00H, 'a', 00H, 'v', 00H, 'e', 00H, 'n', 00H, '\', 00H
	DB	'v', 00H, 's', 00H, '2', 00H, '0', 00H, '1', 00H, '5', 00H, '\'
	DB	00H, 'b', 00H, 'u', 00H, 'c', 00H, 'k', 00H, 'l', 00H, 'a', 00H
	DB	'n', 00H, 'd', 00H, '_', 00H, 'c', 00H, 'h', 00H, 'a', 00H, 'p'
	DB	00H, 't', 00H, 'e', 00H, 'r', 00H, '7', 00H, ' ', 00H, 't', 00H
	DB	'o', 00H, ' ', 00H, '1', 00H, '0', 00H, '_', 00H, 'r', 00H, 'a'
	DB	00H, 'v', 00H, 'e', 00H, 'n', 00H, '\', 00H, 'g', 00H, 'o', 00H
	DB	'a', 00H, 'l', 00H, 's', 00H, '\', 00H, 'g', 00H, 'o', 00H, 'a'
	DB	00H, 'l', 00H, '_', 00H, 't', 00H, 'h', 00H, 'i', 00H, 'n', 00H
	DB	'k', 00H, '.', 00H, 'c', 00H, 'p', 00H, 'p', 00H, 00H, 00H
$SG164599 DB	'M', 00H, 'o', 00H, 's', 00H, 't', 00H, 'D', 00H, 'e', 00H
	DB	's', 00H, 'i', 00H, 'r', 00H, 'a', 00H, 'b', 00H, 'l', 00H, 'e'
	DB	00H, ' ', 00H, '&', 00H, '&', 00H, ' ', 00H, '"', 00H, '<', 00H
	DB	'G', 00H, 'o', 00H, 'a', 00H, 'l', 00H, '_', 00H, 'T', 00H, 'h'
	DB	00H, 'i', 00H, 'n', 00H, 'k', 00H, ':', 00H, ':', 00H, 'A', 00H
	DB	'r', 00H, 'b', 00H, 'i', 00H, 't', 00H, 'r', 00H, 'a', 00H, 't'
	DB	00H, 'e', 00H, '>', 00H, ':', 00H, ' ', 00H, 'n', 00H, 'o', 00H
	DB	' ', 00H, 'e', 00H, 'v', 00H, 'a', 00H, 'l', 00H, 'u', 00H, 'a'
	DB	00H, 't', 00H, 'o', 00H, 'r', 00H, ' ', 00H, 's', 00H, 'e', 00H
	DB	'l', 00H, 'e', 00H, 'c', 00H, 't', 00H, 'e', 00H, 'd', 00H, '"'
	DB	00H, 00H, 00H
?colors@@3QBKB DD 0ffH					; colors
	DD	0ff0000H
	DD	0ff00H
	DD	00H
	DD	0c8c8ffH
	DD	0c8c8c8H
	DD	0ffffH
	DD	0aaffH
	DD	0aa00ffH
	DD	05a85H
	DD	0ffffffH
	DD	06400H
	DD	0ffff00H
	DD	0c8c8c8H
	DD	0e6e6ffH
CONST	ENDS
PUBLIC	?__empty_global_delete@@YAXPAX@Z		; __empty_global_delete
PUBLIC	?__empty_global_delete@@YAXPAXI@Z		; __empty_global_delete
PUBLIC	??2@YAPAXIPAX@Z					; operator new
PUBLIC	?max@?$numeric_limits@H@std@@SAHXZ		; std::numeric_limits<int>::max
PUBLIC	?min@?$numeric_limits@M@std@@SAMXZ		; std::numeric_limits<float>::min
PUBLIC	?max@?$numeric_limits@M@std@@SAMXZ		; std::numeric_limits<float>::max
PUBLIC	?min@?$numeric_limits@N@std@@SANXZ		; std::numeric_limits<double>::min
PUBLIC	?max@?$numeric_limits@N@std@@SANXZ		; std::numeric_limits<double>::max
PUBLIC	??0exception@std@@QAE@QBD@Z			; std::exception::exception
PUBLIC	??0exception@std@@QAE@ABV01@@Z			; std::exception::exception
PUBLIC	??1exception@std@@UAE@XZ			; std::exception::~exception
PUBLIC	?what@exception@std@@UBEPBDXZ			; std::exception::what
PUBLIC	??_Gexception@std@@UAEPAXI@Z			; std::exception::`scalar deleting destructor'
PUBLIC	?assign@?$char_traits@D@std@@SAXAADABD@Z	; std::char_traits<char>::assign
PUBLIC	?_Adopt@_Iterator_base0@std@@QAEXPBX@Z		; std::_Iterator_base0::_Adopt
PUBLIC	??0_Container_proxy@std@@QAE@XZ			; std::_Container_proxy::_Container_proxy
PUBLIC	??0_Container_base12@std@@QAE@XZ		; std::_Container_base12::_Container_base12
PUBLIC	?_Getpfirst@_Container_base12@std@@QBEPAPAU_Iterator_base12@2@XZ ; std::_Container_base12::_Getpfirst
PUBLIC	?_Orphan_all@_Container_base12@std@@QAEXXZ	; std::_Container_base12::_Orphan_all
PUBLIC	??0_Iterator_base12@std@@QAE@XZ			; std::_Iterator_base12::_Iterator_base12
PUBLIC	??0_Iterator_base12@std@@QAE@ABU01@@Z		; std::_Iterator_base12::_Iterator_base12
PUBLIC	??4_Iterator_base12@std@@QAEAAU01@ABU01@@Z	; std::_Iterator_base12::operator=
PUBLIC	??1_Iterator_base12@std@@QAE@XZ			; std::_Iterator_base12::~_Iterator_base12
PUBLIC	?_Adopt@_Iterator_base12@std@@QAEXPBU_Container_base12@2@@Z ; std::_Iterator_base12::_Adopt
PUBLIC	?_Clrcont@_Iterator_base12@std@@QAEXXZ		; std::_Iterator_base12::_Clrcont
PUBLIC	?_Getcont@_Iterator_base12@std@@QBEPBU_Container_base12@2@XZ ; std::_Iterator_base12::_Getcont
PUBLIC	?_Getpnext@_Iterator_base12@std@@QAEPAPAU12@XZ	; std::_Iterator_base12::_Getpnext
PUBLIC	?_Orphan_me@_Iterator_base12@std@@QAEXXZ	; std::_Iterator_base12::_Orphan_me
PUBLIC	?_Allocate@_Default_allocate_traits@std@@SAPAXI@Z ; std::_Default_allocate_traits::_Allocate
PUBLIC	?_Adjust_manually_vector_aligned@std@@YAXAAPAXAAI@Z ; std::_Adjust_manually_vector_aligned
PUBLIC	?deallocate@?$allocator@D@std@@QAEXQADI@Z	; std::allocator<char>::deallocate
PUBLIC	?_Myptr@?$_String_val@U?$_Simple_types@D@std@@@std@@QBEPBDXZ ; std::_String_val<std::_Simple_types<char> >::_Myptr
PUBLIC	?_Large_string_engaged@?$_String_val@U?$_Simple_types@D@std@@@std@@QBE_NXZ ; std::_String_val<std::_Simple_types<char> >::_Large_string_engaged
PUBLIC	??1_Bxty@?$_String_val@U?$_Simple_types@D@std@@@std@@QAE@XZ ; std::_String_val<std::_Simple_types<char> >::_Bxty::~_Bxty
PUBLIC	??1?$_String_val@U?$_Simple_types@D@std@@@std@@QAE@XZ ; std::_String_val<std::_Simple_types<char> >::~_String_val<std::_Simple_types<char> >
PUBLIC	??1?$_String_alloc@U?$_String_base_types@DV?$allocator@D@std@@@std@@@std@@QAE@XZ ; std::_String_alloc<std::_String_base_types<char,std::allocator<char> > >::~_String_alloc<std::_String_base_types<char,std::allocator<char> > >
PUBLIC	?_Free_proxy@?$_String_alloc@U?$_String_base_types@DV?$allocator@D@std@@@std@@@std@@QAEXXZ ; std::_String_alloc<std::_String_base_types<char,std::allocator<char> > >::_Free_proxy
PUBLIC	?_Myproxy@?$_String_alloc@U?$_String_base_types@DV?$allocator@D@std@@@std@@@std@@QAEAAPAU_Container_proxy@2@XZ ; std::_String_alloc<std::_String_base_types<char,std::allocator<char> > >::_Myproxy
PUBLIC	?_Orphan_all@?$_String_alloc@U?$_String_base_types@DV?$allocator@D@std@@@std@@@std@@QAEXXZ ; std::_String_alloc<std::_String_base_types<char,std::allocator<char> > >::_Orphan_all
PUBLIC	?_Getal@?$_String_alloc@U?$_String_base_types@DV?$allocator@D@std@@@std@@@std@@QAEAAV?$allocator@D@2@XZ ; std::_String_alloc<std::_String_base_types<char,std::allocator<char> > >::_Getal
PUBLIC	?_Get_data@?$_String_alloc@U?$_String_base_types@DV?$allocator@D@std@@@std@@@std@@QAEAAV?$_String_val@U?$_Simple_types@D@std@@@2@XZ ; std::_String_alloc<std::_String_base_types<char,std::allocator<char> > >::_Get_data
PUBLIC	?_Get_data@?$_String_alloc@U?$_String_base_types@DV?$allocator@D@std@@@std@@@std@@QBEABV?$_String_val@U?$_Simple_types@D@std@@@2@XZ ; std::_String_alloc<std::_String_base_types<char,std::allocator<char> > >::_Get_data
PUBLIC	?_Get_first@?$_Compressed_pair@V?$allocator@D@std@@V?$_String_val@U?$_Simple_types@D@std@@@2@$00@std@@QAEAAV?$allocator@D@2@XZ ; std::_Compressed_pair<std::allocator<char>,std::_String_val<std::_Simple_types<char> >,1>::_Get_first
PUBLIC	?_Get_second@?$_Compressed_pair@V?$allocator@D@std@@V?$_String_val@U?$_Simple_types@D@std@@@2@$00@std@@QAEAAV?$_String_val@U?$_Simple_types@D@std@@@2@XZ ; std::_Compressed_pair<std::allocator<char>,std::_String_val<std::_Simple_types<char> >,1>::_Get_second
PUBLIC	?_Get_second@?$_Compressed_pair@V?$allocator@D@std@@V?$_String_val@U?$_Simple_types@D@std@@@2@$00@std@@QBEABV?$_String_val@U?$_Simple_types@D@std@@@2@XZ ; std::_Compressed_pair<std::allocator<char>,std::_String_val<std::_Simple_types<char> >,1>::_Get_second
PUBLIC	??1?$_Compressed_pair@V?$allocator@D@std@@V?$_String_val@U?$_Simple_types@D@std@@@2@$00@std@@QAE@XZ ; std::_Compressed_pair<std::allocator<char>,std::_String_val<std::_Simple_types<char> >,1>::~_Compressed_pair<std::allocator<char>,std::_String_val<std::_Simple_types<char> >,1>
PUBLIC	??1?$basic_string@DU?$char_traits@D@std@@V?$allocator@D@2@@std@@QAE@XZ ; std::basic_string<char,std::char_traits<char>,std::allocator<char> >::~basic_string<char,std::char_traits<char>,std::allocator<char> >
PUBLIC	?c_str@?$basic_string@DU?$char_traits@D@std@@V?$allocator@D@2@@std@@QBEPBDXZ ; std::basic_string<char,std::char_traits<char>,std::allocator<char> >::c_str
PUBLIC	?size@?$basic_string@DU?$char_traits@D@std@@V?$allocator@D@2@@std@@QBEIXZ ; std::basic_string<char,std::char_traits<char>,std::allocator<char> >::size
PUBLIC	?_Tidy_deallocate@?$basic_string@DU?$char_traits@D@std@@V?$allocator@D@2@@std@@QAEXXZ ; std::basic_string<char,std::char_traits<char>,std::allocator<char> >::_Tidy_deallocate
PUBLIC	??0runtime_error@std@@QAE@PBD@Z			; std::runtime_error::runtime_error
PUBLIC	??1runtime_error@std@@UAE@XZ			; std::runtime_error::~runtime_error
PUBLIC	??0runtime_error@std@@QAE@ABV01@@Z		; std::runtime_error::runtime_error
PUBLIC	??_Gruntime_error@std@@UAEPAXI@Z		; std::runtime_error::`scalar deleting destructor'
PUBLIC	??0id@locale@std@@QAE@I@Z			; std::locale::id::id
PUBLIC	?RandFloat@@YANXZ				; RandFloat
PUBLIC	?RandInRange@@YANNN@Z				; RandInRange
PUBLIC	??0Vector2D@@QAE@XZ				; Vector2D::Vector2D
PUBLIC	??0Vector2D@@QAE@NN@Z				; Vector2D::Vector2D
PUBLIC	?TextAtPos@Cgdi@@QAEXNNABV?$basic_string@DU?$char_traits@D@std@@V?$allocator@D@2@@std@@@Z ; Cgdi::TextAtPos
PUBLIC	?TransparentText@Cgdi@@QAEXXZ			; Cgdi::TransparentText
PUBLIC	?TextColor@Cgdi@@QAEXH@Z			; Cgdi::TextColor
PUBLIC	?TextColor@Cgdi@@QAEXHHH@Z			; Cgdi::TextColor
PUBLIC	?isPossessed@Raven_Bot@@QBE_NXZ			; Raven_Bot::isPossessed
PUBLIC	??0Goal_Evaluator@@QAE@N@Z			; Goal_Evaluator::Goal_Evaluator
PUBLIC	??1Goal_Evaluator@@UAE@XZ			; Goal_Evaluator::~Goal_Evaluator
PUBLIC	??_GGoal_Evaluator@@UAEPAXI@Z			; Goal_Evaluator::`scalar deleting destructor'
PUBLIC	?ActivateIfInactive@?$Goal@VRaven_Bot@@@@IAEXXZ	; Goal<Raven_Bot>::ActivateIfInactive
PUBLIC	??0?$Goal@VRaven_Bot@@@@QAE@PAVRaven_Bot@@H@Z	; Goal<Raven_Bot>::Goal<Raven_Bot>
PUBLIC	??1?$Goal@VRaven_Bot@@@@UAE@XZ			; Goal<Raven_Bot>::~Goal<Raven_Bot>
PUBLIC	?HandleMessage@?$Goal@VRaven_Bot@@@@UAE_NABUTelegram@@@Z ; Goal<Raven_Bot>::HandleMessage
PUBLIC	?AddSubgoal@?$Goal@VRaven_Bot@@@@UAEXPAV1@@Z	; Goal<Raven_Bot>::AddSubgoal
PUBLIC	?isComplete@?$Goal@VRaven_Bot@@@@QBE_NXZ	; Goal<Raven_Bot>::isComplete
PUBLIC	?isActive@?$Goal@VRaven_Bot@@@@QBE_NXZ		; Goal<Raven_Bot>::isActive
PUBLIC	?isInactive@?$Goal@VRaven_Bot@@@@QBE_NXZ	; Goal<Raven_Bot>::isInactive
PUBLIC	?hasFailed@?$Goal@VRaven_Bot@@@@QBE_NXZ		; Goal<Raven_Bot>::hasFailed
PUBLIC	?GetType@?$Goal@VRaven_Bot@@@@QBEHXZ		; Goal<Raven_Bot>::GetType
PUBLIC	?RenderAtPos@?$Goal@VRaven_Bot@@@@UBEXAAUVector2D@@PAVTypeToString@@@Z ; Goal<Raven_Bot>::RenderAtPos
PUBLIC	?Render@?$Goal@VRaven_Bot@@@@UAEXXZ		; Goal<Raven_Bot>::Render
PUBLIC	??_G?$Goal@VRaven_Bot@@@@UAEPAXI@Z		; Goal<Raven_Bot>::`scalar deleting destructor'
PUBLIC	??0?$allocator@U?$_List_node@PAV?$Goal@VRaven_Bot@@@@PAX@std@@@std@@QAE@XZ ; std::allocator<std::_List_node<Goal<Raven_Bot> *,void *> >::allocator<std::_List_node<Goal<Raven_Bot> *,void *> >
PUBLIC	?deallocate@?$allocator@U?$_List_node@PAV?$Goal@VRaven_Bot@@@@PAX@std@@@std@@QAEXQAU?$_List_node@PAV?$Goal@VRaven_Bot@@@@PAX@2@I@Z ; std::allocator<std::_List_node<Goal<Raven_Bot> *,void *> >::deallocate
PUBLIC	?allocate@?$allocator@U?$_List_node@PAV?$Goal@VRaven_Bot@@@@PAX@std@@@std@@QAEPAU?$_List_node@PAV?$Goal@VRaven_Bot@@@@PAX@2@I@Z ; std::allocator<std::_List_node<Goal<Raven_Bot> *,void *> >::allocate
PUBLIC	?deallocate@?$_Default_allocator_traits@V?$allocator@U?$_List_node@PAV?$Goal@VRaven_Bot@@@@PAX@std@@@std@@@std@@SAXAAV?$allocator@U?$_List_node@PAV?$Goal@VRaven_Bot@@@@PAX@std@@@2@QAU?$_List_node@PAV?$Goal@VRaven_Bot@@@@PAX@2@I@Z ; std::_Default_allocator_traits<std::allocator<std::_List_node<Goal<Raven_Bot> *,void *> > >::deallocate
PUBLIC	?max_size@?$_Default_allocator_traits@V?$allocator@U?$_List_node@PAV?$Goal@VRaven_Bot@@@@PAX@std@@@std@@@std@@SAIABV?$allocator@U?$_List_node@PAV?$Goal@VRaven_Bot@@@@PAX@std@@@2@@Z ; std::_Default_allocator_traits<std::allocator<std::_List_node<Goal<Raven_Bot> *,void *> > >::max_size
PUBLIC	??0?$_List_alloc@U?$_List_base_types@PAV?$Goal@VRaven_Bot@@@@V?$allocator@PAV?$Goal@VRaven_Bot@@@@@std@@@std@@@std@@QAE@XZ ; std::_List_alloc<std::_List_base_types<Goal<Raven_Bot> *,std::allocator<Goal<Raven_Bot> *> > >::_List_alloc<std::_List_base_types<Goal<Raven_Bot> *,std::allocator<Goal<Raven_Bot> *> > >
PUBLIC	??1?$_List_alloc@U?$_List_base_types@PAV?$Goal@VRaven_Bot@@@@V?$allocator@PAV?$Goal@VRaven_Bot@@@@@std@@@std@@@std@@QAE@XZ ; std::_List_alloc<std::_List_base_types<Goal<Raven_Bot> *,std::allocator<Goal<Raven_Bot> *> > >::~_List_alloc<std::_List_base_types<Goal<Raven_Bot> *,std::allocator<Goal<Raven_Bot> *> > >
PUBLIC	?_Alloc_proxy@?$_List_alloc@U?$_List_base_types@PAV?$Goal@VRaven_Bot@@@@V?$allocator@PAV?$Goal@VRaven_Bot@@@@@std@@@std@@@std@@QAEXXZ ; std::_List_alloc<std::_List_base_types<Goal<Raven_Bot> *,std::allocator<Goal<Raven_Bot> *> > >::_Alloc_proxy
PUBLIC	?_Free_proxy@?$_List_alloc@U?$_List_base_types@PAV?$Goal@VRaven_Bot@@@@V?$allocator@PAV?$Goal@VRaven_Bot@@@@@std@@@std@@@std@@QAEXXZ ; std::_List_alloc<std::_List_base_types<Goal<Raven_Bot> *,std::allocator<Goal<Raven_Bot> *> > >::_Free_proxy
PUBLIC	?_Getpfirst@?$_List_alloc@U?$_List_base_types@PAV?$Goal@VRaven_Bot@@@@V?$allocator@PAV?$Goal@VRaven_Bot@@@@@std@@@std@@@std@@QBEPAPAU_Iterator_base12@2@XZ ; std::_List_alloc<std::_List_base_types<Goal<Raven_Bot> *,std::allocator<Goal<Raven_Bot> *> > >::_Getpfirst
PUBLIC	?_Myproxy@?$_List_alloc@U?$_List_base_types@PAV?$Goal@VRaven_Bot@@@@V?$allocator@PAV?$Goal@VRaven_Bot@@@@@std@@@std@@@std@@QAEAAPAU_Container_proxy@2@XZ ; std::_List_alloc<std::_List_base_types<Goal<Raven_Bot> *,std::allocator<Goal<Raven_Bot> *> > >::_Myproxy
PUBLIC	?_Buyheadnode@?$_List_alloc@U?$_List_base_types@PAV?$Goal@VRaven_Bot@@@@V?$allocator@PAV?$Goal@VRaven_Bot@@@@@std@@@std@@@std@@QAEPAU?$_List_node@PAV?$Goal@VRaven_Bot@@@@PAX@2@XZ ; std::_List_alloc<std::_List_base_types<Goal<Raven_Bot> *,std::allocator<Goal<Raven_Bot> *> > >::_Buyheadnode
PUBLIC	?_Freeheadnode@?$_List_alloc@U?$_List_base_types@PAV?$Goal@VRaven_Bot@@@@V?$allocator@PAV?$Goal@VRaven_Bot@@@@@std@@@std@@@std@@QAEXPAU?$_List_node@PAV?$Goal@VRaven_Bot@@@@PAX@2@@Z ; std::_List_alloc<std::_List_base_types<Goal<Raven_Bot> *,std::allocator<Goal<Raven_Bot> *> > >::_Freeheadnode
PUBLIC	?_Buynode0@?$_List_alloc@U?$_List_base_types@PAV?$Goal@VRaven_Bot@@@@V?$allocator@PAV?$Goal@VRaven_Bot@@@@@std@@@std@@@std@@QAEPAU?$_List_node@PAV?$Goal@VRaven_Bot@@@@PAX@2@PAU32@0@Z ; std::_List_alloc<std::_List_base_types<Goal<Raven_Bot> *,std::allocator<Goal<Raven_Bot> *> > >::_Buynode0
PUBLIC	?_Orphan_all@?$_List_alloc@U?$_List_base_types@PAV?$Goal@VRaven_Bot@@@@V?$allocator@PAV?$Goal@VRaven_Bot@@@@@std@@@std@@@std@@QAEXXZ ; std::_List_alloc<std::_List_base_types<Goal<Raven_Bot> *,std::allocator<Goal<Raven_Bot> *> > >::_Orphan_all
PUBLIC	?_Getal@?$_List_alloc@U?$_List_base_types@PAV?$Goal@VRaven_Bot@@@@V?$allocator@PAV?$Goal@VRaven_Bot@@@@@std@@@std@@@std@@QAEAAV?$allocator@U?$_List_node@PAV?$Goal@VRaven_Bot@@@@PAX@std@@@2@XZ ; std::_List_alloc<std::_List_base_types<Goal<Raven_Bot> *,std::allocator<Goal<Raven_Bot> *> > >::_Getal
PUBLIC	?_Getal@?$_List_alloc@U?$_List_base_types@PAV?$Goal@VRaven_Bot@@@@V?$allocator@PAV?$Goal@VRaven_Bot@@@@@std@@@std@@@std@@QBEABV?$allocator@U?$_List_node@PAV?$Goal@VRaven_Bot@@@@PAX@std@@@2@XZ ; std::_List_alloc<std::_List_base_types<Goal<Raven_Bot> *,std::allocator<Goal<Raven_Bot> *> > >::_Getal
PUBLIC	?_Get_data@?$_List_alloc@U?$_List_base_types@PAV?$Goal@VRaven_Bot@@@@V?$allocator@PAV?$Goal@VRaven_Bot@@@@@std@@@std@@@std@@QAEAAV?$_List_val@U?$_List_simple_types@PAV?$Goal@VRaven_Bot@@@@@std@@@2@XZ ; std::_List_alloc<std::_List_base_types<Goal<Raven_Bot> *,std::allocator<Goal<Raven_Bot> *> > >::_Get_data
PUBLIC	?_Get_data@?$_List_alloc@U?$_List_base_types@PAV?$Goal@VRaven_Bot@@@@V?$allocator@PAV?$Goal@VRaven_Bot@@@@@std@@@std@@@std@@QBEABV?$_List_val@U?$_List_simple_types@PAV?$Goal@VRaven_Bot@@@@@std@@@2@XZ ; std::_List_alloc<std::_List_base_types<Goal<Raven_Bot> *,std::allocator<Goal<Raven_Bot> *> > >::_Get_data
PUBLIC	?_Myhead@?$_List_alloc@U?$_List_base_types@PAV?$Goal@VRaven_Bot@@@@V?$allocator@PAV?$Goal@VRaven_Bot@@@@@std@@@std@@@std@@QAEAAPAU?$_List_node@PAV?$Goal@VRaven_Bot@@@@PAX@2@XZ ; std::_List_alloc<std::_List_base_types<Goal<Raven_Bot> *,std::allocator<Goal<Raven_Bot> *> > >::_Myhead
PUBLIC	?_Myhead@?$_List_alloc@U?$_List_base_types@PAV?$Goal@VRaven_Bot@@@@V?$allocator@PAV?$Goal@VRaven_Bot@@@@@std@@@std@@@std@@QBEABQAU?$_List_node@PAV?$Goal@VRaven_Bot@@@@PAX@2@XZ ; std::_List_alloc<std::_List_base_types<Goal<Raven_Bot> *,std::allocator<Goal<Raven_Bot> *> > >::_Myhead
PUBLIC	?_Mysize@?$_List_alloc@U?$_List_base_types@PAV?$Goal@VRaven_Bot@@@@V?$allocator@PAV?$Goal@VRaven_Bot@@@@@std@@@std@@@std@@QAEAAIXZ ; std::_List_alloc<std::_List_base_types<Goal<Raven_Bot> *,std::allocator<Goal<Raven_Bot> *> > >::_Mysize
PUBLIC	?_Mysize@?$_List_alloc@U?$_List_base_types@PAV?$Goal@VRaven_Bot@@@@V?$allocator@PAV?$Goal@VRaven_Bot@@@@@std@@@std@@@std@@QBEABIXZ ; std::_List_alloc<std::_List_base_types<Goal<Raven_Bot> *,std::allocator<Goal<Raven_Bot> *> > >::_Mysize
PUBLIC	??0?$_List_val@U?$_List_simple_types@PAV?$Goal@VRaven_Bot@@@@@std@@@std@@QAE@XZ ; std::_List_val<std::_List_simple_types<Goal<Raven_Bot> *> >::_List_val<std::_List_simple_types<Goal<Raven_Bot> *> >
PUBLIC	?_Get_first@?$_Compressed_pair@V?$allocator@U?$_List_node@PAV?$Goal@VRaven_Bot@@@@PAX@std@@@std@@V?$_List_val@U?$_List_simple_types@PAV?$Goal@VRaven_Bot@@@@@std@@@2@$00@std@@QAEAAV?$allocator@U?$_List_node@PAV?$Goal@VRaven_Bot@@@@PAX@std@@@2@XZ ; std::_Compressed_pair<std::allocator<std::_List_node<Goal<Raven_Bot> *,void *> >,std::_List_val<std::_List_simple_types<Goal<Raven_Bot> *> >,1>::_Get_first
PUBLIC	?_Get_first@?$_Compressed_pair@V?$allocator@U?$_List_node@PAV?$Goal@VRaven_Bot@@@@PAX@std@@@std@@V?$_List_val@U?$_List_simple_types@PAV?$Goal@VRaven_Bot@@@@@std@@@2@$00@std@@QBEABV?$allocator@U?$_List_node@PAV?$Goal@VRaven_Bot@@@@PAX@std@@@2@XZ ; std::_Compressed_pair<std::allocator<std::_List_node<Goal<Raven_Bot> *,void *> >,std::_List_val<std::_List_simple_types<Goal<Raven_Bot> *> >,1>::_Get_first
PUBLIC	?_Get_second@?$_Compressed_pair@V?$allocator@U?$_List_node@PAV?$Goal@VRaven_Bot@@@@PAX@std@@@std@@V?$_List_val@U?$_List_simple_types@PAV?$Goal@VRaven_Bot@@@@@std@@@2@$00@std@@QAEAAV?$_List_val@U?$_List_simple_types@PAV?$Goal@VRaven_Bot@@@@@std@@@2@XZ ; std::_Compressed_pair<std::allocator<std::_List_node<Goal<Raven_Bot> *,void *> >,std::_List_val<std::_List_simple_types<Goal<Raven_Bot> *> >,1>::_Get_second
PUBLIC	?_Get_second@?$_Compressed_pair@V?$allocator@U?$_List_node@PAV?$Goal@VRaven_Bot@@@@PAX@std@@@std@@V?$_List_val@U?$_List_simple_types@PAV?$Goal@VRaven_Bot@@@@@std@@@2@$00@std@@QBEABV?$_List_val@U?$_List_simple_types@PAV?$Goal@VRaven_Bot@@@@@std@@@2@XZ ; std::_Compressed_pair<std::allocator<std::_List_node<Goal<Raven_Bot> *,void *> >,std::_List_val<std::_List_simple_types<Goal<Raven_Bot> *> >,1>::_Get_second
PUBLIC	??0?$_List_buy@PAV?$Goal@VRaven_Bot@@@@V?$allocator@PAV?$Goal@VRaven_Bot@@@@@std@@@std@@QAE@XZ ; std::_List_buy<Goal<Raven_Bot> *,std::allocator<Goal<Raven_Bot> *> >::_List_buy<Goal<Raven_Bot> *,std::allocator<Goal<Raven_Bot> *> >
PUBLIC	?_Freenode@?$_List_buy@PAV?$Goal@VRaven_Bot@@@@V?$allocator@PAV?$Goal@VRaven_Bot@@@@@std@@@std@@QAEXPAU?$_List_node@PAV?$Goal@VRaven_Bot@@@@PAX@2@@Z ; std::_List_buy<Goal<Raven_Bot> *,std::allocator<Goal<Raven_Bot> *> >::_Freenode
PUBLIC	??1?$_List_buy@PAV?$Goal@VRaven_Bot@@@@V?$allocator@PAV?$Goal@VRaven_Bot@@@@@std@@@std@@QAE@XZ ; std::_List_buy<Goal<Raven_Bot> *,std::allocator<Goal<Raven_Bot> *> >::~_List_buy<Goal<Raven_Bot> *,std::allocator<Goal<Raven_Bot> *> >
PUBLIC	??0?$list@PAV?$Goal@VRaven_Bot@@@@V?$allocator@PAV?$Goal@VRaven_Bot@@@@@std@@@std@@QAE@XZ ; std::list<Goal<Raven_Bot> *,std::allocator<Goal<Raven_Bot> *> >::list<Goal<Raven_Bot> *,std::allocator<Goal<Raven_Bot> *> >
PUBLIC	?push_back@?$list@PAV?$Goal@VRaven_Bot@@@@V?$allocator@PAV?$Goal@VRaven_Bot@@@@@std@@@std@@QAEX$$QAPAV?$Goal@VRaven_Bot@@@@@Z ; std::list<Goal<Raven_Bot> *,std::allocator<Goal<Raven_Bot> *> >::push_back
PUBLIC	??1?$list@PAV?$Goal@VRaven_Bot@@@@V?$allocator@PAV?$Goal@VRaven_Bot@@@@@std@@@std@@QAE@XZ ; std::list<Goal<Raven_Bot> *,std::allocator<Goal<Raven_Bot> *> >::~list<Goal<Raven_Bot> *,std::allocator<Goal<Raven_Bot> *> >
PUBLIC	?begin@?$list@PAV?$Goal@VRaven_Bot@@@@V?$allocator@PAV?$Goal@VRaven_Bot@@@@@std@@@std@@QAE?AV?$_List_iterator@V?$_List_val@U?$_List_simple_types@PAV?$Goal@VRaven_Bot@@@@@std@@@std@@@2@XZ ; std::list<Goal<Raven_Bot> *,std::allocator<Goal<Raven_Bot> *> >::begin
PUBLIC	?begin@?$list@PAV?$Goal@VRaven_Bot@@@@V?$allocator@PAV?$Goal@VRaven_Bot@@@@@std@@@std@@QBE?AV?$_List_const_iterator@V?$_List_val@U?$_List_simple_types@PAV?$Goal@VRaven_Bot@@@@@std@@@std@@@2@XZ ; std::list<Goal<Raven_Bot> *,std::allocator<Goal<Raven_Bot> *> >::begin
PUBLIC	?end@?$list@PAV?$Goal@VRaven_Bot@@@@V?$allocator@PAV?$Goal@VRaven_Bot@@@@@std@@@std@@QAE?AV?$_List_iterator@V?$_List_val@U?$_List_simple_types@PAV?$Goal@VRaven_Bot@@@@@std@@@std@@@2@XZ ; std::list<Goal<Raven_Bot> *,std::allocator<Goal<Raven_Bot> *> >::end
PUBLIC	?end@?$list@PAV?$Goal@VRaven_Bot@@@@V?$allocator@PAV?$Goal@VRaven_Bot@@@@@std@@@std@@QBE?AV?$_List_const_iterator@V?$_List_val@U?$_List_simple_types@PAV?$Goal@VRaven_Bot@@@@@std@@@std@@@2@XZ ; std::list<Goal<Raven_Bot> *,std::allocator<Goal<Raven_Bot> *> >::end
PUBLIC	?_Unchecked_begin@?$list@PAV?$Goal@VRaven_Bot@@@@V?$allocator@PAV?$Goal@VRaven_Bot@@@@@std@@@std@@QAE?AV?$_List_unchecked_iterator@V?$_List_val@U?$_List_simple_types@PAV?$Goal@VRaven_Bot@@@@@std@@@std@@@2@XZ ; std::list<Goal<Raven_Bot> *,std::allocator<Goal<Raven_Bot> *> >::_Unchecked_begin
PUBLIC	?_Unchecked_end@?$list@PAV?$Goal@VRaven_Bot@@@@V?$allocator@PAV?$Goal@VRaven_Bot@@@@@std@@@std@@QAE?AV?$_List_unchecked_iterator@V?$_List_val@U?$_List_simple_types@PAV?$Goal@VRaven_Bot@@@@@std@@@std@@@2@XZ ; std::list<Goal<Raven_Bot> *,std::allocator<Goal<Raven_Bot> *> >::_Unchecked_end
PUBLIC	?_Make_iter@?$list@PAV?$Goal@VRaven_Bot@@@@V?$allocator@PAV?$Goal@VRaven_Bot@@@@@std@@@std@@QBE?AV?$_List_iterator@V?$_List_val@U?$_List_simple_types@PAV?$Goal@VRaven_Bot@@@@@std@@@std@@@2@V?$_List_const_iterator@V?$_List_val@U?$_List_simple_types@PAV?$Goal@VRaven_Bot@@@@@std@@@std@@@2@@Z ; std::list<Goal<Raven_Bot> *,std::allocator<Goal<Raven_Bot> *> >::_Make_iter
PUBLIC	?rbegin@?$list@PAV?$Goal@VRaven_Bot@@@@V?$allocator@PAV?$Goal@VRaven_Bot@@@@@std@@@std@@QBE?AV?$reverse_iterator@V?$_List_const_iterator@V?$_List_val@U?$_List_simple_types@PAV?$Goal@VRaven_Bot@@@@@std@@@std@@@std@@@2@XZ ; std::list<Goal<Raven_Bot> *,std::allocator<Goal<Raven_Bot> *> >::rbegin
PUBLIC	?rend@?$list@PAV?$Goal@VRaven_Bot@@@@V?$allocator@PAV?$Goal@VRaven_Bot@@@@@std@@@std@@QBE?AV?$reverse_iterator@V?$_List_const_iterator@V?$_List_val@U?$_List_simple_types@PAV?$Goal@VRaven_Bot@@@@@std@@@std@@@std@@@2@XZ ; std::list<Goal<Raven_Bot> *,std::allocator<Goal<Raven_Bot> *> >::rend
PUBLIC	?size@?$list@PAV?$Goal@VRaven_Bot@@@@V?$allocator@PAV?$Goal@VRaven_Bot@@@@@std@@@std@@QBEIXZ ; std::list<Goal<Raven_Bot> *,std::allocator<Goal<Raven_Bot> *> >::size
PUBLIC	?max_size@?$list@PAV?$Goal@VRaven_Bot@@@@V?$allocator@PAV?$Goal@VRaven_Bot@@@@@std@@@std@@QBEIXZ ; std::list<Goal<Raven_Bot> *,std::allocator<Goal<Raven_Bot> *> >::max_size
PUBLIC	?empty@?$list@PAV?$Goal@VRaven_Bot@@@@V?$allocator@PAV?$Goal@VRaven_Bot@@@@@std@@@std@@QBE_NXZ ; std::list<Goal<Raven_Bot> *,std::allocator<Goal<Raven_Bot> *> >::empty
PUBLIC	?front@?$list@PAV?$Goal@VRaven_Bot@@@@V?$allocator@PAV?$Goal@VRaven_Bot@@@@@std@@@std@@QAEAAPAV?$Goal@VRaven_Bot@@@@XZ ; std::list<Goal<Raven_Bot> *,std::allocator<Goal<Raven_Bot> *> >::front
PUBLIC	?front@?$list@PAV?$Goal@VRaven_Bot@@@@V?$allocator@PAV?$Goal@VRaven_Bot@@@@@std@@@std@@QBEABQAV?$Goal@VRaven_Bot@@@@XZ ; std::list<Goal<Raven_Bot> *,std::allocator<Goal<Raven_Bot> *> >::front
PUBLIC	?push_front@?$list@PAV?$Goal@VRaven_Bot@@@@V?$allocator@PAV?$Goal@VRaven_Bot@@@@@std@@@std@@QAEXABQAV?$Goal@VRaven_Bot@@@@@Z ; std::list<Goal<Raven_Bot> *,std::allocator<Goal<Raven_Bot> *> >::push_front
PUBLIC	?pop_front@?$list@PAV?$Goal@VRaven_Bot@@@@V?$allocator@PAV?$Goal@VRaven_Bot@@@@@std@@@std@@QAEXXZ ; std::list<Goal<Raven_Bot> *,std::allocator<Goal<Raven_Bot> *> >::pop_front
PUBLIC	?_Unlinknode@?$list@PAV?$Goal@VRaven_Bot@@@@V?$allocator@PAV?$Goal@VRaven_Bot@@@@@std@@@std@@QAEPAU?$_List_node@PAV?$Goal@VRaven_Bot@@@@PAX@2@V?$_List_const_iterator@V?$_List_val@U?$_List_simple_types@PAV?$Goal@VRaven_Bot@@@@@std@@@std@@@2@@Z ; std::list<Goal<Raven_Bot> *,std::allocator<Goal<Raven_Bot> *> >::_Unlinknode
PUBLIC	?erase@?$list@PAV?$Goal@VRaven_Bot@@@@V?$allocator@PAV?$Goal@VRaven_Bot@@@@@std@@@std@@QAE?AV?$_List_iterator@V?$_List_val@U?$_List_simple_types@PAV?$Goal@VRaven_Bot@@@@@std@@@std@@@2@V?$_List_const_iterator@V?$_List_val@U?$_List_simple_types@PAV?$Goal@VRaven_Bot@@@@@std@@@std@@@2@@Z ; std::list<Goal<Raven_Bot> *,std::allocator<Goal<Raven_Bot> *> >::erase
PUBLIC	?clear@?$list@PAV?$Goal@VRaven_Bot@@@@V?$allocator@PAV?$Goal@VRaven_Bot@@@@@std@@@std@@QAEXXZ ; std::list<Goal<Raven_Bot> *,std::allocator<Goal<Raven_Bot> *> >::clear
PUBLIC	?_Tidy@?$list@PAV?$Goal@VRaven_Bot@@@@V?$allocator@PAV?$Goal@VRaven_Bot@@@@@std@@@std@@QAEXXZ ; std::list<Goal<Raven_Bot> *,std::allocator<Goal<Raven_Bot> *> >::_Tidy
PUBLIC	?_Incsize@?$list@PAV?$Goal@VRaven_Bot@@@@V?$allocator@PAV?$Goal@VRaven_Bot@@@@@std@@@std@@QAEXI@Z ; std::list<Goal<Raven_Bot> *,std::allocator<Goal<Raven_Bot> *> >::_Incsize
PUBLIC	?_Orphan_ptr@?$list@PAV?$Goal@VRaven_Bot@@@@V?$allocator@PAV?$Goal@VRaven_Bot@@@@@std@@@std@@QAEXPAU?$_List_node@PAV?$Goal@VRaven_Bot@@@@PAX@2@@Z ; std::list<Goal<Raven_Bot> *,std::allocator<Goal<Raven_Bot> *> >::_Orphan_ptr
PUBLIC	?ProcessSubgoals@?$Goal_Composite@VRaven_Bot@@@@IAEHXZ ; Goal_Composite<Raven_Bot>::ProcessSubgoals
PUBLIC	?ForwardMessageToFrontMostSubgoal@?$Goal_Composite@VRaven_Bot@@@@IAE_NABUTelegram@@@Z ; Goal_Composite<Raven_Bot>::ForwardMessageToFrontMostSubgoal
PUBLIC	??0?$Goal_Composite@VRaven_Bot@@@@QAE@PAVRaven_Bot@@H@Z ; Goal_Composite<Raven_Bot>::Goal_Composite<Raven_Bot>
PUBLIC	??1?$Goal_Composite@VRaven_Bot@@@@UAE@XZ	; Goal_Composite<Raven_Bot>::~Goal_Composite<Raven_Bot>
PUBLIC	?HandleMessage@?$Goal_Composite@VRaven_Bot@@@@UAE_NABUTelegram@@@Z ; Goal_Composite<Raven_Bot>::HandleMessage
PUBLIC	?AddSubgoal@?$Goal_Composite@VRaven_Bot@@@@UAEXPAV?$Goal@VRaven_Bot@@@@@Z ; Goal_Composite<Raven_Bot>::AddSubgoal
PUBLIC	?RemoveAllSubgoals@?$Goal_Composite@VRaven_Bot@@@@QAEXXZ ; Goal_Composite<Raven_Bot>::RemoveAllSubgoals
PUBLIC	?RenderAtPos@?$Goal_Composite@VRaven_Bot@@@@UBEXAAUVector2D@@PAVTypeToString@@@Z ; Goal_Composite<Raven_Bot>::RenderAtPos
PUBLIC	?Render@?$Goal_Composite@VRaven_Bot@@@@UAEXXZ	; Goal_Composite<Raven_Bot>::Render
PUBLIC	??_G?$Goal_Composite@VRaven_Bot@@@@UAEPAXI@Z	; Goal_Composite<Raven_Bot>::`scalar deleting destructor'
PUBLIC	??0?$allocator@PAVGoal_Evaluator@@@std@@QAE@XZ	; std::allocator<Goal_Evaluator *>::allocator<Goal_Evaluator *>
PUBLIC	?deallocate@?$allocator@PAVGoal_Evaluator@@@std@@QAEXQAPAVGoal_Evaluator@@I@Z ; std::allocator<Goal_Evaluator *>::deallocate
PUBLIC	?allocate@?$allocator@PAVGoal_Evaluator@@@std@@QAEPAPAVGoal_Evaluator@@I@Z ; std::allocator<Goal_Evaluator *>::allocate
PUBLIC	?max_size@?$_Default_allocator_traits@V?$allocator@PAVGoal_Evaluator@@@std@@@std@@SAIABV?$allocator@PAVGoal_Evaluator@@@2@@Z ; std::_Default_allocator_traits<std::allocator<Goal_Evaluator *> >::max_size
PUBLIC	??0?$_Vector_alloc@U?$_Vec_base_types@PAVGoal_Evaluator@@V?$allocator@PAVGoal_Evaluator@@@std@@@std@@@std@@QAE@XZ ; std::_Vector_alloc<std::_Vec_base_types<Goal_Evaluator *,std::allocator<Goal_Evaluator *> > >::_Vector_alloc<std::_Vec_base_types<Goal_Evaluator *,std::allocator<Goal_Evaluator *> > >
PUBLIC	??1?$_Vector_alloc@U?$_Vec_base_types@PAVGoal_Evaluator@@V?$allocator@PAVGoal_Evaluator@@@std@@@std@@@std@@QAE@XZ ; std::_Vector_alloc<std::_Vec_base_types<Goal_Evaluator *,std::allocator<Goal_Evaluator *> > >::~_Vector_alloc<std::_Vec_base_types<Goal_Evaluator *,std::allocator<Goal_Evaluator *> > >
PUBLIC	?_Alloc_proxy@?$_Vector_alloc@U?$_Vec_base_types@PAVGoal_Evaluator@@V?$allocator@PAVGoal_Evaluator@@@std@@@std@@@std@@QAEXXZ ; std::_Vector_alloc<std::_Vec_base_types<Goal_Evaluator *,std::allocator<Goal_Evaluator *> > >::_Alloc_proxy
PUBLIC	?_Free_proxy@?$_Vector_alloc@U?$_Vec_base_types@PAVGoal_Evaluator@@V?$allocator@PAVGoal_Evaluator@@@std@@@std@@@std@@QAEXXZ ; std::_Vector_alloc<std::_Vec_base_types<Goal_Evaluator *,std::allocator<Goal_Evaluator *> > >::_Free_proxy
PUBLIC	?_Getpfirst@?$_Vector_alloc@U?$_Vec_base_types@PAVGoal_Evaluator@@V?$allocator@PAVGoal_Evaluator@@@std@@@std@@@std@@QBEPAPAU_Iterator_base12@2@XZ ; std::_Vector_alloc<std::_Vec_base_types<Goal_Evaluator *,std::allocator<Goal_Evaluator *> > >::_Getpfirst
PUBLIC	?_Myproxy@?$_Vector_alloc@U?$_Vec_base_types@PAVGoal_Evaluator@@V?$allocator@PAVGoal_Evaluator@@@std@@@std@@@std@@QAEAAPAU_Container_proxy@2@XZ ; std::_Vector_alloc<std::_Vec_base_types<Goal_Evaluator *,std::allocator<Goal_Evaluator *> > >::_Myproxy
PUBLIC	?_Orphan_all@?$_Vector_alloc@U?$_Vec_base_types@PAVGoal_Evaluator@@V?$allocator@PAVGoal_Evaluator@@@std@@@std@@@std@@QAEXXZ ; std::_Vector_alloc<std::_Vec_base_types<Goal_Evaluator *,std::allocator<Goal_Evaluator *> > >::_Orphan_all
PUBLIC	?_Getal@?$_Vector_alloc@U?$_Vec_base_types@PAVGoal_Evaluator@@V?$allocator@PAVGoal_Evaluator@@@std@@@std@@@std@@QAEAAV?$allocator@PAVGoal_Evaluator@@@2@XZ ; std::_Vector_alloc<std::_Vec_base_types<Goal_Evaluator *,std::allocator<Goal_Evaluator *> > >::_Getal
PUBLIC	?_Getal@?$_Vector_alloc@U?$_Vec_base_types@PAVGoal_Evaluator@@V?$allocator@PAVGoal_Evaluator@@@std@@@std@@@std@@QBEABV?$allocator@PAVGoal_Evaluator@@@2@XZ ; std::_Vector_alloc<std::_Vec_base_types<Goal_Evaluator *,std::allocator<Goal_Evaluator *> > >::_Getal
PUBLIC	?_Get_data@?$_Vector_alloc@U?$_Vec_base_types@PAVGoal_Evaluator@@V?$allocator@PAVGoal_Evaluator@@@std@@@std@@@std@@QAEAAV?$_Vector_val@U?$_Simple_types@PAVGoal_Evaluator@@@std@@@2@XZ ; std::_Vector_alloc<std::_Vec_base_types<Goal_Evaluator *,std::allocator<Goal_Evaluator *> > >::_Get_data
PUBLIC	?_Get_data@?$_Vector_alloc@U?$_Vec_base_types@PAVGoal_Evaluator@@V?$allocator@PAVGoal_Evaluator@@@std@@@std@@@std@@QBEABV?$_Vector_val@U?$_Simple_types@PAVGoal_Evaluator@@@std@@@2@XZ ; std::_Vector_alloc<std::_Vec_base_types<Goal_Evaluator *,std::allocator<Goal_Evaluator *> > >::_Get_data
PUBLIC	?_Myfirst@?$_Vector_alloc@U?$_Vec_base_types@PAVGoal_Evaluator@@V?$allocator@PAVGoal_Evaluator@@@std@@@std@@@std@@QAEAAPAPAVGoal_Evaluator@@XZ ; std::_Vector_alloc<std::_Vec_base_types<Goal_Evaluator *,std::allocator<Goal_Evaluator *> > >::_Myfirst
PUBLIC	?_Myfirst@?$_Vector_alloc@U?$_Vec_base_types@PAVGoal_Evaluator@@V?$allocator@PAVGoal_Evaluator@@@std@@@std@@@std@@QBEABQAPAVGoal_Evaluator@@XZ ; std::_Vector_alloc<std::_Vec_base_types<Goal_Evaluator *,std::allocator<Goal_Evaluator *> > >::_Myfirst
PUBLIC	?_Mylast@?$_Vector_alloc@U?$_Vec_base_types@PAVGoal_Evaluator@@V?$allocator@PAVGoal_Evaluator@@@std@@@std@@@std@@QAEAAPAPAVGoal_Evaluator@@XZ ; std::_Vector_alloc<std::_Vec_base_types<Goal_Evaluator *,std::allocator<Goal_Evaluator *> > >::_Mylast
PUBLIC	?_Mylast@?$_Vector_alloc@U?$_Vec_base_types@PAVGoal_Evaluator@@V?$allocator@PAVGoal_Evaluator@@@std@@@std@@@std@@QBEABQAPAVGoal_Evaluator@@XZ ; std::_Vector_alloc<std::_Vec_base_types<Goal_Evaluator *,std::allocator<Goal_Evaluator *> > >::_Mylast
PUBLIC	?_Myend@?$_Vector_alloc@U?$_Vec_base_types@PAVGoal_Evaluator@@V?$allocator@PAVGoal_Evaluator@@@std@@@std@@@std@@QAEAAPAPAVGoal_Evaluator@@XZ ; std::_Vector_alloc<std::_Vec_base_types<Goal_Evaluator *,std::allocator<Goal_Evaluator *> > >::_Myend
PUBLIC	?_Myend@?$_Vector_alloc@U?$_Vec_base_types@PAVGoal_Evaluator@@V?$allocator@PAVGoal_Evaluator@@@std@@@std@@@std@@QBEABQAPAVGoal_Evaluator@@XZ ; std::_Vector_alloc<std::_Vec_base_types<Goal_Evaluator *,std::allocator<Goal_Evaluator *> > >::_Myend
PUBLIC	??0?$_Vector_val@U?$_Simple_types@PAVGoal_Evaluator@@@std@@@std@@QAE@XZ ; std::_Vector_val<std::_Simple_types<Goal_Evaluator *> >::_Vector_val<std::_Simple_types<Goal_Evaluator *> >
PUBLIC	?_Get_first@?$_Compressed_pair@V?$allocator@PAVGoal_Evaluator@@@std@@V?$_Vector_val@U?$_Simple_types@PAVGoal_Evaluator@@@std@@@2@$00@std@@QAEAAV?$allocator@PAVGoal_Evaluator@@@2@XZ ; std::_Compressed_pair<std::allocator<Goal_Evaluator *>,std::_Vector_val<std::_Simple_types<Goal_Evaluator *> >,1>::_Get_first
PUBLIC	?_Get_first@?$_Compressed_pair@V?$allocator@PAVGoal_Evaluator@@@std@@V?$_Vector_val@U?$_Simple_types@PAVGoal_Evaluator@@@std@@@2@$00@std@@QBEABV?$allocator@PAVGoal_Evaluator@@@2@XZ ; std::_Compressed_pair<std::allocator<Goal_Evaluator *>,std::_Vector_val<std::_Simple_types<Goal_Evaluator *> >,1>::_Get_first
PUBLIC	?_Get_second@?$_Compressed_pair@V?$allocator@PAVGoal_Evaluator@@@std@@V?$_Vector_val@U?$_Simple_types@PAVGoal_Evaluator@@@std@@@2@$00@std@@QAEAAV?$_Vector_val@U?$_Simple_types@PAVGoal_Evaluator@@@std@@@2@XZ ; std::_Compressed_pair<std::allocator<Goal_Evaluator *>,std::_Vector_val<std::_Simple_types<Goal_Evaluator *> >,1>::_Get_second
PUBLIC	?_Get_second@?$_Compressed_pair@V?$allocator@PAVGoal_Evaluator@@@std@@V?$_Vector_val@U?$_Simple_types@PAVGoal_Evaluator@@@std@@@2@$00@std@@QBEABV?$_Vector_val@U?$_Simple_types@PAVGoal_Evaluator@@@std@@@2@XZ ; std::_Compressed_pair<std::allocator<Goal_Evaluator *>,std::_Vector_val<std::_Simple_types<Goal_Evaluator *> >,1>::_Get_second
PUBLIC	??0?$vector@PAVGoal_Evaluator@@V?$allocator@PAVGoal_Evaluator@@@std@@@std@@QAE@XZ ; std::vector<Goal_Evaluator *,std::allocator<Goal_Evaluator *> >::vector<Goal_Evaluator *,std::allocator<Goal_Evaluator *> >
PUBLIC	??1?$vector@PAVGoal_Evaluator@@V?$allocator@PAVGoal_Evaluator@@@std@@@std@@QAE@XZ ; std::vector<Goal_Evaluator *,std::allocator<Goal_Evaluator *> >::~vector<Goal_Evaluator *,std::allocator<Goal_Evaluator *> >
PUBLIC	?push_back@?$vector@PAVGoal_Evaluator@@V?$allocator@PAVGoal_Evaluator@@@std@@@std@@QAEX$$QAPAVGoal_Evaluator@@@Z ; std::vector<Goal_Evaluator *,std::allocator<Goal_Evaluator *> >::push_back
PUBLIC	?begin@?$vector@PAVGoal_Evaluator@@V?$allocator@PAVGoal_Evaluator@@@std@@@std@@QAE?AV?$_Vector_iterator@V?$_Vector_val@U?$_Simple_types@PAVGoal_Evaluator@@@std@@@std@@@2@XZ ; std::vector<Goal_Evaluator *,std::allocator<Goal_Evaluator *> >::begin
PUBLIC	?begin@?$vector@PAVGoal_Evaluator@@V?$allocator@PAVGoal_Evaluator@@@std@@@std@@QBE?AV?$_Vector_const_iterator@V?$_Vector_val@U?$_Simple_types@PAVGoal_Evaluator@@@std@@@std@@@2@XZ ; std::vector<Goal_Evaluator *,std::allocator<Goal_Evaluator *> >::begin
PUBLIC	?end@?$vector@PAVGoal_Evaluator@@V?$allocator@PAVGoal_Evaluator@@@std@@@std@@QAE?AV?$_Vector_iterator@V?$_Vector_val@U?$_Simple_types@PAVGoal_Evaluator@@@std@@@std@@@2@XZ ; std::vector<Goal_Evaluator *,std::allocator<Goal_Evaluator *> >::end
PUBLIC	?end@?$vector@PAVGoal_Evaluator@@V?$allocator@PAVGoal_Evaluator@@@std@@@std@@QBE?AV?$_Vector_const_iterator@V?$_Vector_val@U?$_Simple_types@PAVGoal_Evaluator@@@std@@@std@@@2@XZ ; std::vector<Goal_Evaluator *,std::allocator<Goal_Evaluator *> >::end
PUBLIC	?size@?$vector@PAVGoal_Evaluator@@V?$allocator@PAVGoal_Evaluator@@@std@@@std@@QBEIXZ ; std::vector<Goal_Evaluator *,std::allocator<Goal_Evaluator *> >::size
PUBLIC	?max_size@?$vector@PAVGoal_Evaluator@@V?$allocator@PAVGoal_Evaluator@@@std@@@std@@QBEIXZ ; std::vector<Goal_Evaluator *,std::allocator<Goal_Evaluator *> >::max_size
PUBLIC	?capacity@?$vector@PAVGoal_Evaluator@@V?$allocator@PAVGoal_Evaluator@@@std@@@std@@QBEIXZ ; std::vector<Goal_Evaluator *,std::allocator<Goal_Evaluator *> >::capacity
PUBLIC	?_Has_unused_capacity@?$vector@PAVGoal_Evaluator@@V?$allocator@PAVGoal_Evaluator@@@std@@@std@@ABE_NXZ ; std::vector<Goal_Evaluator *,std::allocator<Goal_Evaluator *> >::_Has_unused_capacity
PUBLIC	?_Umove@?$vector@PAVGoal_Evaluator@@V?$allocator@PAVGoal_Evaluator@@@std@@@std@@AAEPAPAVGoal_Evaluator@@PAPAV3@00@Z ; std::vector<Goal_Evaluator *,std::allocator<Goal_Evaluator *> >::_Umove
PUBLIC	?_Umove_if_noexcept1@?$vector@PAVGoal_Evaluator@@V?$allocator@PAVGoal_Evaluator@@@std@@@std@@AAEXPAPAVGoal_Evaluator@@00U?$integral_constant@_N$00@2@@Z ; std::vector<Goal_Evaluator *,std::allocator<Goal_Evaluator *> >::_Umove_if_noexcept1
PUBLIC	?_Umove_if_noexcept@?$vector@PAVGoal_Evaluator@@V?$allocator@PAVGoal_Evaluator@@@std@@@std@@AAEXPAPAVGoal_Evaluator@@00@Z ; std::vector<Goal_Evaluator *,std::allocator<Goal_Evaluator *> >::_Umove_if_noexcept
PUBLIC	?_Destroy@?$vector@PAVGoal_Evaluator@@V?$allocator@PAVGoal_Evaluator@@@std@@@std@@AAEXPAPAVGoal_Evaluator@@0@Z ; std::vector<Goal_Evaluator *,std::allocator<Goal_Evaluator *> >::_Destroy
PUBLIC	?_Calculate_growth@?$vector@PAVGoal_Evaluator@@V?$allocator@PAVGoal_Evaluator@@@std@@@std@@ABEII@Z ; std::vector<Goal_Evaluator *,std::allocator<Goal_Evaluator *> >::_Calculate_growth
PUBLIC	?_Change_array@?$vector@PAVGoal_Evaluator@@V?$allocator@PAVGoal_Evaluator@@@std@@@std@@AAEXQAPAVGoal_Evaluator@@II@Z ; std::vector<Goal_Evaluator *,std::allocator<Goal_Evaluator *> >::_Change_array
PUBLIC	?_Tidy@?$vector@PAVGoal_Evaluator@@V?$allocator@PAVGoal_Evaluator@@@std@@@std@@AAEXXZ ; std::vector<Goal_Evaluator *,std::allocator<Goal_Evaluator *> >::_Tidy
PUBLIC	?_Xlength@?$vector@PAVGoal_Evaluator@@V?$allocator@PAVGoal_Evaluator@@@std@@@std@@CAXXZ ; std::vector<Goal_Evaluator *,std::allocator<Goal_Evaluator *> >::_Xlength
PUBLIC	?_Orphan_range@?$vector@PAVGoal_Evaluator@@V?$allocator@PAVGoal_Evaluator@@@std@@@std@@ABEXPAPAVGoal_Evaluator@@0@Z ; std::vector<Goal_Evaluator *,std::allocator<Goal_Evaluator *> >::_Orphan_range
PUBLIC	??0Goal_Think@@QAE@PAVRaven_Bot@@@Z		; Goal_Think::Goal_Think
PUBLIC	??1Goal_Think@@UAE@XZ				; Goal_Think::~Goal_Think
PUBLIC	?Arbitrate@Goal_Think@@QAEXXZ			; Goal_Think::Arbitrate
PUBLIC	?notPresent@Goal_Think@@QBE_NI@Z		; Goal_Think::notPresent
PUBLIC	?Process@Goal_Think@@UAEHXZ			; Goal_Think::Process
PUBLIC	?Activate@Goal_Think@@UAEXXZ			; Goal_Think::Activate
PUBLIC	?Terminate@Goal_Think@@UAEXXZ			; Goal_Think::Terminate
PUBLIC	?AddGoal_MoveToPosition@Goal_Think@@QAEXUVector2D@@@Z ; Goal_Think::AddGoal_MoveToPosition
PUBLIC	?AddGoal_GetItem@Goal_Think@@QAEXI@Z		; Goal_Think::AddGoal_GetItem
PUBLIC	?AddGoal_Explore@Goal_Think@@QAEXXZ		; Goal_Think::AddGoal_Explore
PUBLIC	?AddGoal_AttackTarget@Goal_Think@@QAEXXZ	; Goal_Think::AddGoal_AttackTarget
PUBLIC	?QueueGoal_MoveToPosition@Goal_Think@@QAEXUVector2D@@@Z ; Goal_Think::QueueGoal_MoveToPosition
PUBLIC	?RenderEvaluations@Goal_Think@@QBEXHH@Z		; Goal_Think::RenderEvaluations
PUBLIC	?Render@Goal_Think@@UAEXXZ			; Goal_Think::Render
PUBLIC	??_GGoal_Think@@UAEPAXI@Z			; Goal_Think::`scalar deleting destructor'
PUBLIC	??0Goal_MoveToPosition@@QAE@PAVRaven_Bot@@UVector2D@@@Z ; Goal_MoveToPosition::Goal_MoveToPosition
PUBLIC	?Terminate@Goal_MoveToPosition@@UAEXXZ		; Goal_MoveToPosition::Terminate
PUBLIC	??1Goal_MoveToPosition@@UAE@XZ			; Goal_MoveToPosition::~Goal_MoveToPosition
PUBLIC	??_GGoal_MoveToPosition@@UAEPAXI@Z		; Goal_MoveToPosition::`scalar deleting destructor'
PUBLIC	??0Goal_Explore@@QAE@PAVRaven_Bot@@@Z		; Goal_Explore::Goal_Explore
PUBLIC	?Terminate@Goal_Explore@@UAEXXZ			; Goal_Explore::Terminate
PUBLIC	??1Goal_Explore@@UAE@XZ				; Goal_Explore::~Goal_Explore
PUBLIC	??_GGoal_Explore@@UAEPAXI@Z			; Goal_Explore::`scalar deleting destructor'
PUBLIC	??0Goal_GetItem@@QAE@PAVRaven_Bot@@H@Z		; Goal_GetItem::Goal_GetItem
PUBLIC	?Terminate@Goal_GetItem@@UAEXXZ			; Goal_GetItem::Terminate
PUBLIC	??1Goal_GetItem@@UAE@XZ				; Goal_GetItem::~Goal_GetItem
PUBLIC	??_GGoal_GetItem@@UAEPAXI@Z			; Goal_GetItem::`scalar deleting destructor'
PUBLIC	??0Goal_AttackTarget@@QAE@PAVRaven_Bot@@@Z	; Goal_AttackTarget::Goal_AttackTarget
PUBLIC	?Terminate@Goal_AttackTarget@@UAEXXZ		; Goal_AttackTarget::Terminate
PUBLIC	??1Goal_AttackTarget@@UAE@XZ			; Goal_AttackTarget::~Goal_AttackTarget
PUBLIC	??_GGoal_AttackTarget@@UAEPAXI@Z		; Goal_AttackTarget::`scalar deleting destructor'
PUBLIC	??0GetWeaponGoal_Evaluator@@QAE@NH@Z		; GetWeaponGoal_Evaluator::GetWeaponGoal_Evaluator
PUBLIC	??1GetWeaponGoal_Evaluator@@UAE@XZ		; GetWeaponGoal_Evaluator::~GetWeaponGoal_Evaluator
PUBLIC	??_GGetWeaponGoal_Evaluator@@UAEPAXI@Z		; GetWeaponGoal_Evaluator::`scalar deleting destructor'
PUBLIC	??0GetHealthGoal_Evaluator@@QAE@N@Z		; GetHealthGoal_Evaluator::GetHealthGoal_Evaluator
PUBLIC	??1GetHealthGoal_Evaluator@@UAE@XZ		; GetHealthGoal_Evaluator::~GetHealthGoal_Evaluator
PUBLIC	??_GGetHealthGoal_Evaluator@@UAEPAXI@Z		; GetHealthGoal_Evaluator::`scalar deleting destructor'
PUBLIC	??0ExploreGoal_Evaluator@@QAE@N@Z		; ExploreGoal_Evaluator::ExploreGoal_Evaluator
PUBLIC	??1ExploreGoal_Evaluator@@UAE@XZ		; ExploreGoal_Evaluator::~ExploreGoal_Evaluator
PUBLIC	??_GExploreGoal_Evaluator@@UAEPAXI@Z		; ExploreGoal_Evaluator::`scalar deleting destructor'
PUBLIC	??0AttackTargetGoal_Evaluator@@QAE@N@Z		; AttackTargetGoal_Evaluator::AttackTargetGoal_Evaluator
PUBLIC	??1AttackTargetGoal_Evaluator@@UAE@XZ		; AttackTargetGoal_Evaluator::~AttackTargetGoal_Evaluator
PUBLIC	??_GAttackTargetGoal_Evaluator@@UAEPAXI@Z	; AttackTargetGoal_Evaluator::`scalar deleting destructor'
PUBLIC	??0?$_Vector_const_iterator@V?$_Vector_val@U?$_Simple_types@PAVGoal_Evaluator@@@std@@@std@@@std@@QAE@PAPAVGoal_Evaluator@@PBU_Container_base12@1@@Z ; std::_Vector_const_iterator<std::_Vector_val<std::_Simple_types<Goal_Evaluator *> > >::_Vector_const_iterator<std::_Vector_val<std::_Simple_types<Goal_Evaluator *> > >
PUBLIC	??D?$_Vector_const_iterator@V?$_Vector_val@U?$_Simple_types@PAVGoal_Evaluator@@@std@@@std@@@std@@QBEABQAVGoal_Evaluator@@XZ ; std::_Vector_const_iterator<std::_Vector_val<std::_Simple_types<Goal_Evaluator *> > >::operator*
PUBLIC	??E?$_Vector_const_iterator@V?$_Vector_val@U?$_Simple_types@PAVGoal_Evaluator@@@std@@@std@@@std@@QAEAAV01@XZ ; std::_Vector_const_iterator<std::_Vector_val<std::_Simple_types<Goal_Evaluator *> > >::operator++
PUBLIC	??8?$_Vector_const_iterator@V?$_Vector_val@U?$_Simple_types@PAVGoal_Evaluator@@@std@@@std@@@std@@QBE_NABV01@@Z ; std::_Vector_const_iterator<std::_Vector_val<std::_Simple_types<Goal_Evaluator *> > >::operator==
PUBLIC	??9?$_Vector_const_iterator@V?$_Vector_val@U?$_Simple_types@PAVGoal_Evaluator@@@std@@@std@@@std@@QBE_NABV01@@Z ; std::_Vector_const_iterator<std::_Vector_val<std::_Simple_types<Goal_Evaluator *> > >::operator!=
PUBLIC	?_Compat@?$_Vector_const_iterator@V?$_Vector_val@U?$_Simple_types@PAVGoal_Evaluator@@@std@@@std@@@std@@QBEXABV12@@Z ; std::_Vector_const_iterator<std::_Vector_val<std::_Simple_types<Goal_Evaluator *> > >::_Compat
PUBLIC	??1?$_Vector_const_iterator@V?$_Vector_val@U?$_Simple_types@PAVGoal_Evaluator@@@std@@@std@@@std@@QAE@XZ ; std::_Vector_const_iterator<std::_Vector_val<std::_Simple_types<Goal_Evaluator *> > >::~_Vector_const_iterator<std::_Vector_val<std::_Simple_types<Goal_Evaluator *> > >
PUBLIC	??0?$_Vector_iterator@V?$_Vector_val@U?$_Simple_types@PAVGoal_Evaluator@@@std@@@std@@@std@@QAE@PAPAVGoal_Evaluator@@PBU_Container_base12@1@@Z ; std::_Vector_iterator<std::_Vector_val<std::_Simple_types<Goal_Evaluator *> > >::_Vector_iterator<std::_Vector_val<std::_Simple_types<Goal_Evaluator *> > >
PUBLIC	??D?$_Vector_iterator@V?$_Vector_val@U?$_Simple_types@PAVGoal_Evaluator@@@std@@@std@@@std@@QBEAAPAVGoal_Evaluator@@XZ ; std::_Vector_iterator<std::_Vector_val<std::_Simple_types<Goal_Evaluator *> > >::operator*
PUBLIC	??E?$_Vector_iterator@V?$_Vector_val@U?$_Simple_types@PAVGoal_Evaluator@@@std@@@std@@@std@@QAEAAV01@XZ ; std::_Vector_iterator<std::_Vector_val<std::_Simple_types<Goal_Evaluator *> > >::operator++
PUBLIC	??1?$_Vector_iterator@V?$_Vector_val@U?$_Simple_types@PAVGoal_Evaluator@@@std@@@std@@@std@@QAE@XZ ; std::_Vector_iterator<std::_Vector_val<std::_Simple_types<Goal_Evaluator *> > >::~_Vector_iterator<std::_Vector_val<std::_Simple_types<Goal_Evaluator *> > >
PUBLIC	??0?$_List_unchecked_const_iterator@V?$_List_val@U?$_List_simple_types@PAV?$Goal@VRaven_Bot@@@@@std@@@std@@U_Iterator_base12@2@@std@@QAE@XZ ; std::_List_unchecked_const_iterator<std::_List_val<std::_List_simple_types<Goal<Raven_Bot> *> >,std::_Iterator_base12>::_List_unchecked_const_iterator<std::_List_val<std::_List_simple_types<Goal<Raven_Bot> *> >,std::_Iterator_base12>
PUBLIC	??0?$_List_unchecked_const_iterator@V?$_List_val@U?$_List_simple_types@PAV?$Goal@VRaven_Bot@@@@@std@@@std@@U_Iterator_base12@2@@std@@QAE@PAU?$_List_node@PAV?$Goal@VRaven_Bot@@@@PAX@1@PBV?$_List_val@U?$_List_simple_types@PAV?$Goal@VRaven_Bot@@@@@std@@@1@@Z ; std::_List_unchecked_const_iterator<std::_List_val<std::_List_simple_types<Goal<Raven_Bot> *> >,std::_Iterator_base12>::_List_unchecked_const_iterator<std::_List_val<std::_List_simple_types<Goal<Raven_Bot> *> >,std::_Iterator_base12>
PUBLIC	??1?$_List_unchecked_const_iterator@V?$_List_val@U?$_List_simple_types@PAV?$Goal@VRaven_Bot@@@@@std@@@std@@U_Iterator_base12@2@@std@@QAE@XZ ; std::_List_unchecked_const_iterator<std::_List_val<std::_List_simple_types<Goal<Raven_Bot> *> >,std::_Iterator_base12>::~_List_unchecked_const_iterator<std::_List_val<std::_List_simple_types<Goal<Raven_Bot> *> >,std::_Iterator_base12>
PUBLIC	??0?$_List_unchecked_const_iterator@V?$_List_val@U?$_List_simple_types@PAV?$Goal@VRaven_Bot@@@@@std@@@std@@U_Iterator_base12@2@@std@@QAE@ABV01@@Z ; std::_List_unchecked_const_iterator<std::_List_val<std::_List_simple_types<Goal<Raven_Bot> *> >,std::_Iterator_base12>::_List_unchecked_const_iterator<std::_List_val<std::_List_simple_types<Goal<Raven_Bot> *> >,std::_Iterator_base12>
PUBLIC	??0?$_List_unchecked_const_iterator@V?$_List_val@U?$_List_simple_types@PAV?$Goal@VRaven_Bot@@@@@std@@@std@@U_Iterator_base12@2@@std@@QAE@$$QAV01@@Z ; std::_List_unchecked_const_iterator<std::_List_val<std::_List_simple_types<Goal<Raven_Bot> *> >,std::_Iterator_base12>::_List_unchecked_const_iterator<std::_List_val<std::_List_simple_types<Goal<Raven_Bot> *> >,std::_Iterator_base12>
PUBLIC	??4?$_List_unchecked_const_iterator@V?$_List_val@U?$_List_simple_types@PAV?$Goal@VRaven_Bot@@@@@std@@@std@@U_Iterator_base12@2@@std@@QAEAAV01@$$QAV01@@Z ; std::_List_unchecked_const_iterator<std::_List_val<std::_List_simple_types<Goal<Raven_Bot> *> >,std::_Iterator_base12>::operator=
PUBLIC	??0?$_List_const_iterator@V?$_List_val@U?$_List_simple_types@PAV?$Goal@VRaven_Bot@@@@@std@@@std@@@std@@QAE@XZ ; std::_List_const_iterator<std::_List_val<std::_List_simple_types<Goal<Raven_Bot> *> > >::_List_const_iterator<std::_List_val<std::_List_simple_types<Goal<Raven_Bot> *> > >
PUBLIC	??0?$_List_const_iterator@V?$_List_val@U?$_List_simple_types@PAV?$Goal@VRaven_Bot@@@@@std@@@std@@@std@@QAE@PAU?$_List_node@PAV?$Goal@VRaven_Bot@@@@PAX@1@PBV?$_List_val@U?$_List_simple_types@PAV?$Goal@VRaven_Bot@@@@@std@@@1@@Z ; std::_List_const_iterator<std::_List_val<std::_List_simple_types<Goal<Raven_Bot> *> > >::_List_const_iterator<std::_List_val<std::_List_simple_types<Goal<Raven_Bot> *> > >
PUBLIC	??D?$_List_const_iterator@V?$_List_val@U?$_List_simple_types@PAV?$Goal@VRaven_Bot@@@@@std@@@std@@@std@@QBEABQAV?$Goal@VRaven_Bot@@@@XZ ; std::_List_const_iterator<std::_List_val<std::_List_simple_types<Goal<Raven_Bot> *> > >::operator*
PUBLIC	??E?$_List_const_iterator@V?$_List_val@U?$_List_simple_types@PAV?$Goal@VRaven_Bot@@@@@std@@@std@@@std@@QAEAAV01@XZ ; std::_List_const_iterator<std::_List_val<std::_List_simple_types<Goal<Raven_Bot> *> > >::operator++
PUBLIC	??E?$_List_const_iterator@V?$_List_val@U?$_List_simple_types@PAV?$Goal@VRaven_Bot@@@@@std@@@std@@@std@@QAE?AV01@H@Z ; std::_List_const_iterator<std::_List_val<std::_List_simple_types<Goal<Raven_Bot> *> > >::operator++
PUBLIC	??F?$_List_const_iterator@V?$_List_val@U?$_List_simple_types@PAV?$Goal@VRaven_Bot@@@@@std@@@std@@@std@@QAEAAV01@XZ ; std::_List_const_iterator<std::_List_val<std::_List_simple_types<Goal<Raven_Bot> *> > >::operator--
PUBLIC	??8?$_List_const_iterator@V?$_List_val@U?$_List_simple_types@PAV?$Goal@VRaven_Bot@@@@@std@@@std@@@std@@QBE_NABV01@@Z ; std::_List_const_iterator<std::_List_val<std::_List_simple_types<Goal<Raven_Bot> *> > >::operator==
PUBLIC	??9?$_List_const_iterator@V?$_List_val@U?$_List_simple_types@PAV?$Goal@VRaven_Bot@@@@@std@@@std@@@std@@QBE_NABV01@@Z ; std::_List_const_iterator<std::_List_val<std::_List_simple_types<Goal<Raven_Bot> *> > >::operator!=
PUBLIC	??1?$_List_const_iterator@V?$_List_val@U?$_List_simple_types@PAV?$Goal@VRaven_Bot@@@@@std@@@std@@@std@@QAE@XZ ; std::_List_const_iterator<std::_List_val<std::_List_simple_types<Goal<Raven_Bot> *> > >::~_List_const_iterator<std::_List_val<std::_List_simple_types<Goal<Raven_Bot> *> > >
PUBLIC	??0?$_List_const_iterator@V?$_List_val@U?$_List_simple_types@PAV?$Goal@VRaven_Bot@@@@@std@@@std@@@std@@QAE@ABV01@@Z ; std::_List_const_iterator<std::_List_val<std::_List_simple_types<Goal<Raven_Bot> *> > >::_List_const_iterator<std::_List_val<std::_List_simple_types<Goal<Raven_Bot> *> > >
PUBLIC	??0?$_List_const_iterator@V?$_List_val@U?$_List_simple_types@PAV?$Goal@VRaven_Bot@@@@@std@@@std@@@std@@QAE@$$QAV01@@Z ; std::_List_const_iterator<std::_List_val<std::_List_simple_types<Goal<Raven_Bot> *> > >::_List_const_iterator<std::_List_val<std::_List_simple_types<Goal<Raven_Bot> *> > >
PUBLIC	??4?$_List_const_iterator@V?$_List_val@U?$_List_simple_types@PAV?$Goal@VRaven_Bot@@@@@std@@@std@@@std@@QAEAAV01@$$QAV01@@Z ; std::_List_const_iterator<std::_List_val<std::_List_simple_types<Goal<Raven_Bot> *> > >::operator=
PUBLIC	??0?$_List_iterator@V?$_List_val@U?$_List_simple_types@PAV?$Goal@VRaven_Bot@@@@@std@@@std@@@std@@QAE@XZ ; std::_List_iterator<std::_List_val<std::_List_simple_types<Goal<Raven_Bot> *> > >::_List_iterator<std::_List_val<std::_List_simple_types<Goal<Raven_Bot> *> > >
PUBLIC	??0?$_List_iterator@V?$_List_val@U?$_List_simple_types@PAV?$Goal@VRaven_Bot@@@@@std@@@std@@@std@@QAE@PAU?$_List_node@PAV?$Goal@VRaven_Bot@@@@PAX@1@PBV?$_List_val@U?$_List_simple_types@PAV?$Goal@VRaven_Bot@@@@@std@@@1@@Z ; std::_List_iterator<std::_List_val<std::_List_simple_types<Goal<Raven_Bot> *> > >::_List_iterator<std::_List_val<std::_List_simple_types<Goal<Raven_Bot> *> > >
PUBLIC	??D?$_List_iterator@V?$_List_val@U?$_List_simple_types@PAV?$Goal@VRaven_Bot@@@@@std@@@std@@@std@@QBEAAPAV?$Goal@VRaven_Bot@@@@XZ ; std::_List_iterator<std::_List_val<std::_List_simple_types<Goal<Raven_Bot> *> > >::operator*
PUBLIC	??E?$_List_iterator@V?$_List_val@U?$_List_simple_types@PAV?$Goal@VRaven_Bot@@@@@std@@@std@@@std@@QAEAAV01@XZ ; std::_List_iterator<std::_List_val<std::_List_simple_types<Goal<Raven_Bot> *> > >::operator++
PUBLIC	??1?$_List_iterator@V?$_List_val@U?$_List_simple_types@PAV?$Goal@VRaven_Bot@@@@@std@@@std@@@std@@QAE@XZ ; std::_List_iterator<std::_List_val<std::_List_simple_types<Goal<Raven_Bot> *> > >::~_List_iterator<std::_List_val<std::_List_simple_types<Goal<Raven_Bot> *> > >
PUBLIC	??4?$_List_iterator@V?$_List_val@U?$_List_simple_types@PAV?$Goal@VRaven_Bot@@@@@std@@@std@@@std@@QAEAAV01@$$QAV01@@Z ; std::_List_iterator<std::_List_val<std::_List_simple_types<Goal<Raven_Bot> *> > >::operator=
PUBLIC	??$addressof@$$CBV?$_Vector_val@U?$_Simple_types@PAVGoal_Evaluator@@@std@@@std@@@std@@YAPBV?$_Vector_val@U?$_Simple_types@PAVGoal_Evaluator@@@std@@@0@ABV10@@Z ; std::addressof<std::_Vector_val<std::_Simple_types<Goal_Evaluator *> > const >
PUBLIC	??$addressof@V?$_Vector_val@U?$_Simple_types@PAVGoal_Evaluator@@@std@@@std@@@std@@YAPAV?$_Vector_val@U?$_Simple_types@PAVGoal_Evaluator@@@std@@@0@AAV10@@Z ; std::addressof<std::_Vector_val<std::_Simple_types<Goal_Evaluator *> > >
PUBLIC	??$move@AAPAVGoal_Evaluator@@@std@@YA$$QAPAVGoal_Evaluator@@AAPAV1@@Z ; std::move<Goal_Evaluator * &>
PUBLIC	??$emplace_back@PAVGoal_Evaluator@@@?$vector@PAVGoal_Evaluator@@V?$allocator@PAVGoal_Evaluator@@@std@@@std@@QAE@$$QAPAVGoal_Evaluator@@@Z ; std::vector<Goal_Evaluator *,std::allocator<Goal_Evaluator *> >::emplace_back<Goal_Evaluator *>
PUBLIC	??$forward@PAVGoal_Evaluator@@@std@@YA$$QAPAVGoal_Evaluator@@AAPAV1@@Z ; std::forward<Goal_Evaluator *>
PUBLIC	??$_Emplace_back_with_unused_capacity@PAVGoal_Evaluator@@@?$vector@PAVGoal_Evaluator@@V?$allocator@PAVGoal_Evaluator@@@std@@@std@@AAE@$$QAPAVGoal_Evaluator@@@Z ; std::vector<Goal_Evaluator *,std::allocator<Goal_Evaluator *> >::_Emplace_back_with_unused_capacity<Goal_Evaluator *>
PUBLIC	??$_Unfancy@PAVGoal_Evaluator@@@std@@YAPAPAVGoal_Evaluator@@PAPAV1@@Z ; std::_Unfancy<Goal_Evaluator *>
PUBLIC	??$construct@PAVGoal_Evaluator@@PAV1@@?$_Default_allocator_traits@V?$allocator@PAVGoal_Evaluator@@@std@@@std@@SAXAAV?$allocator@PAVGoal_Evaluator@@@1@QAPAVGoal_Evaluator@@$$QAPAV3@@Z ; std::_Default_allocator_traits<std::allocator<Goal_Evaluator *> >::construct<Goal_Evaluator *,Goal_Evaluator *>
PUBLIC	??$_Emplace_reallocate@PAVGoal_Evaluator@@@?$vector@PAVGoal_Evaluator@@V?$allocator@PAVGoal_Evaluator@@@std@@@std@@QAEPAPAVGoal_Evaluator@@QAPAV2@$$QAPAV2@@Z ; std::vector<Goal_Evaluator *,std::allocator<Goal_Evaluator *> >::_Emplace_reallocate<Goal_Evaluator *>
PUBLIC	??$addressof@V?$_List_val@U?$_List_simple_types@PAV?$Goal@VRaven_Bot@@@@@std@@@std@@@std@@YAPAV?$_List_val@U?$_List_simple_types@PAV?$Goal@VRaven_Bot@@@@@std@@@0@AAV10@@Z ; std::addressof<std::_List_val<std::_List_simple_types<Goal<Raven_Bot> *> > >
PUBLIC	??0?$_List_unchecked_const_iterator@V?$_List_val@U?$_List_simple_types@PAV?$Goal@VRaven_Bot@@@@@std@@@std@@U_Iterator_base0@2@@std@@QAE@PAU?$_List_node@PAV?$Goal@VRaven_Bot@@@@PAX@1@PBV?$_List_val@U?$_List_simple_types@PAV?$Goal@VRaven_Bot@@@@@std@@@1@@Z ; std::_List_unchecked_const_iterator<std::_List_val<std::_List_simple_types<Goal<Raven_Bot> *> >,std::_Iterator_base0>::_List_unchecked_const_iterator<std::_List_val<std::_List_simple_types<Goal<Raven_Bot> *> >,std::_Iterator_base0>
PUBLIC	??0?$_List_unchecked_iterator@V?$_List_val@U?$_List_simple_types@PAV?$Goal@VRaven_Bot@@@@@std@@@std@@@std@@QAE@PAU?$_List_node@PAV?$Goal@VRaven_Bot@@@@PAX@1@PBV?$_List_val@U?$_List_simple_types@PAV?$Goal@VRaven_Bot@@@@@std@@@1@@Z ; std::_List_unchecked_iterator<std::_List_val<std::_List_simple_types<Goal<Raven_Bot> *> > >::_List_unchecked_iterator<std::_List_val<std::_List_simple_types<Goal<Raven_Bot> *> > >
PUBLIC	??$move@AAPAV?$Goal@VRaven_Bot@@@@@std@@YA$$QAPAV?$Goal@VRaven_Bot@@@@AAPAV1@@Z ; std::move<Goal<Raven_Bot> * &>
PUBLIC	??$_Insert@PAV?$Goal@VRaven_Bot@@@@@?$list@PAV?$Goal@VRaven_Bot@@@@V?$allocator@PAV?$Goal@VRaven_Bot@@@@@std@@@std@@QAEXV?$_List_unchecked_const_iterator@V?$_List_val@U?$_List_simple_types@PAV?$Goal@VRaven_Bot@@@@@std@@@std@@U_Iterator_base0@2@@1@$$QAPAV?$Goal@VRaven_Bot@@@@@Z ; std::list<Goal<Raven_Bot> *,std::allocator<Goal<Raven_Bot> *> >::_Insert<Goal<Raven_Bot> *>
PUBLIC	??$_Min_value@I@std@@YAABIABI0@Z		; std::_Min_value<unsigned int>
PUBLIC	??$_Unfancy@D@std@@YAPADPAD@Z			; std::_Unfancy<char>
PUBLIC	??$?0$$V@?$_Compressed_pair@V?$allocator@PAVGoal_Evaluator@@@std@@V?$_Vector_val@U?$_Simple_types@PAVGoal_Evaluator@@@std@@@2@$00@std@@QAE@U_Zero_then_variadic_args_t@1@@Z ; std::_Compressed_pair<std::allocator<Goal_Evaluator *>,std::_Vector_val<std::_Simple_types<Goal_Evaluator *> >,1>::_Compressed_pair<std::allocator<Goal_Evaluator *>,std::_Vector_val<std::_Simple_types<Goal_Evaluator *> >,1><>
PUBLIC	??$addressof@$$CBV?$_List_val@U?$_List_simple_types@PAV?$Goal@VRaven_Bot@@@@@std@@@std@@@std@@YAPBV?$_List_val@U?$_List_simple_types@PAV?$Goal@VRaven_Bot@@@@@std@@@0@ABV10@@Z ; std::addressof<std::_List_val<std::_List_simple_types<Goal<Raven_Bot> *> > const >
PUBLIC	??$addressof@PAD@std@@YAPAPADAAPAD@Z		; std::addressof<char *>
PUBLIC	??$destroy@PAD@?$_Default_allocator_traits@V?$allocator@D@std@@@std@@SAXAAV?$allocator@D@1@QAPAD@Z ; std::_Default_allocator_traits<std::allocator<char> >::destroy<char *>
PUBLIC	??$_Allocate@$07U_Default_allocate_traits@std@@$0A@@std@@YAPAXI@Z ; std::_Allocate<8,std::_Default_allocate_traits,0>
PUBLIC	??$_Deallocate@$07$0A@@std@@YAXPAXI@Z		; std::_Deallocate<8,0>
PUBLIC	?allocate@?$allocator@U_Container_proxy@std@@@std@@QAEPAU_Container_proxy@2@I@Z ; std::allocator<std::_Container_proxy>::allocate
PUBLIC	?deallocate@?$_Default_allocator_traits@V?$allocator@U_Container_proxy@std@@@std@@@std@@SAXAAV?$allocator@U_Container_proxy@std@@@2@QAU_Container_proxy@2@I@Z ; std::_Default_allocator_traits<std::allocator<std::_Container_proxy> >::deallocate
PUBLIC	??$destroy@U_Container_proxy@std@@@?$_Default_allocator_traits@V?$allocator@U_Container_proxy@std@@@std@@@std@@SAXAAV?$allocator@U_Container_proxy@std@@@1@QAU_Container_proxy@1@@Z ; std::_Default_allocator_traits<std::allocator<std::_Container_proxy> >::destroy<std::_Container_proxy>
PUBLIC	??$_Deallocate_plain@V?$allocator@U_Container_proxy@std@@@std@@$0A@@std@@YAXAAV?$allocator@U_Container_proxy@std@@@0@QAU_Container_proxy@0@@Z ; std::_Deallocate_plain<std::allocator<std::_Container_proxy>,0>
PUBLIC	??$?0PAVGoal_Evaluator@@@?$allocator@U_Container_proxy@std@@@std@@QAE@ABV?$allocator@PAVGoal_Evaluator@@@1@@Z ; std::allocator<std::_Container_proxy>::allocator<std::_Container_proxy><Goal_Evaluator *>
PUBLIC	??$_Unfancy@U_Container_proxy@std@@@std@@YAPAU_Container_proxy@0@PAU10@@Z ; std::_Unfancy<std::_Container_proxy>
PUBLIC	??$construct@U_Container_proxy@std@@U12@@?$_Default_allocator_traits@V?$allocator@U_Container_proxy@std@@@std@@@std@@SAXAAV?$allocator@U_Container_proxy@std@@@1@QAU_Container_proxy@1@$$QAU31@@Z ; std::_Default_allocator_traits<std::allocator<std::_Container_proxy> >::construct<std::_Container_proxy,std::_Container_proxy>
PUBLIC	??$_Destroy_range@V?$allocator@PAVGoal_Evaluator@@@std@@@std@@YAXPAPAVGoal_Evaluator@@0AAV?$allocator@PAVGoal_Evaluator@@@0@@Z ; std::_Destroy_range<std::allocator<Goal_Evaluator *> >
PUBLIC	??$?0D@?$allocator@U_Container_proxy@std@@@std@@QAE@ABV?$allocator@D@1@@Z ; std::allocator<std::_Container_proxy>::allocator<std::_Container_proxy><char>
PUBLIC	??$_Freenode0@V?$allocator@U?$_List_node@PAV?$Goal@VRaven_Bot@@@@PAX@std@@@std@@@?$_List_node@PAV?$Goal@VRaven_Bot@@@@PAX@std@@SAXAAV?$allocator@U?$_List_node@PAV?$Goal@VRaven_Bot@@@@PAX@std@@@1@PAU01@@Z ; std::_List_node<Goal<Raven_Bot> *,void *>::_Freenode0<std::allocator<std::_List_node<Goal<Raven_Bot> *,void *> > >
PUBLIC	??$?0U?$_List_node@PAV?$Goal@VRaven_Bot@@@@PAX@std@@@?$allocator@U_Container_proxy@std@@@std@@QAE@ABV?$allocator@U?$_List_node@PAV?$Goal@VRaven_Bot@@@@PAX@std@@@1@@Z ; std::allocator<std::_Container_proxy>::allocator<std::_Container_proxy><std::_List_node<Goal<Raven_Bot> *,void *> >
PUBLIC	??$?0$$V@?$_Compressed_pair@V?$allocator@U?$_List_node@PAV?$Goal@VRaven_Bot@@@@PAX@std@@@std@@V?$_List_val@U?$_List_simple_types@PAV?$Goal@VRaven_Bot@@@@@std@@@2@$00@std@@QAE@U_Zero_then_variadic_args_t@1@@Z ; std::_Compressed_pair<std::allocator<std::_List_node<Goal<Raven_Bot> *,void *> >,std::_List_val<std::_List_simple_types<Goal<Raven_Bot> *> >,1>::_Compressed_pair<std::allocator<std::_List_node<Goal<Raven_Bot> *,void *> >,std::_List_val<std::_List_simple_types<Goal<Raven_Bot> *> >,1><>
PUBLIC	??$_Get_size_of_n@$07@std@@YAII@Z		; std::_Get_size_of_n<8>
PUBLIC	??$addressof@PAV?$Goal@VRaven_Bot@@@@@std@@YAPAPAV?$Goal@VRaven_Bot@@@@AAPAV1@@Z ; std::addressof<Goal<Raven_Bot> *>
PUBLIC	??$destroy@PAV?$Goal@VRaven_Bot@@@@@?$_Default_allocator_traits@V?$allocator@U?$_List_node@PAV?$Goal@VRaven_Bot@@@@PAX@std@@@std@@@std@@SAXAAV?$allocator@U?$_List_node@PAV?$Goal@VRaven_Bot@@@@PAX@std@@@1@QAPAV?$Goal@VRaven_Bot@@@@@Z ; std::_Default_allocator_traits<std::allocator<std::_List_node<Goal<Raven_Bot> *,void *> > >::destroy<Goal<Raven_Bot> *>
PUBLIC	??$_Get_size_of_n@$03@std@@YAII@Z		; std::_Get_size_of_n<4>
PUBLIC	??$addressof@PAU?$_List_node@PAV?$Goal@VRaven_Bot@@@@PAX@std@@@std@@YAPAPAU?$_List_node@PAV?$Goal@VRaven_Bot@@@@PAX@0@AAPAU10@@Z ; std::addressof<std::_List_node<Goal<Raven_Bot> *,void *> *>
PUBLIC	??$construct@PAU?$_List_node@PAV?$Goal@VRaven_Bot@@@@PAX@std@@AAPAU12@@?$_Default_allocator_traits@V?$allocator@U?$_List_node@PAV?$Goal@VRaven_Bot@@@@PAX@std@@@std@@@std@@SAXAAV?$allocator@U?$_List_node@PAV?$Goal@VRaven_Bot@@@@PAX@std@@@1@QAPAU?$_List_node@PAV?$Goal@VRaven_Bot@@@@PAX@1@AAPAU31@@Z ; std::_Default_allocator_traits<std::allocator<std::_List_node<Goal<Raven_Bot> *,void *> > >::construct<std::_List_node<Goal<Raven_Bot> *,void *> *,std::_List_node<Goal<Raven_Bot> *,void *> * &>
PUBLIC	??$_Get_size_of_n@$0M@@std@@YAII@Z		; std::_Get_size_of_n<12>
PUBLIC	??0?$reverse_iterator@V?$_List_const_iterator@V?$_List_val@U?$_List_simple_types@PAV?$Goal@VRaven_Bot@@@@@std@@@std@@@std@@@std@@QAE@XZ ; std::reverse_iterator<std::_List_const_iterator<std::_List_val<std::_List_simple_types<Goal<Raven_Bot> *> > > >::reverse_iterator<std::_List_const_iterator<std::_List_val<std::_List_simple_types<Goal<Raven_Bot> *> > > >
PUBLIC	??0?$reverse_iterator@V?$_List_const_iterator@V?$_List_val@U?$_List_simple_types@PAV?$Goal@VRaven_Bot@@@@@std@@@std@@@std@@@std@@QAE@V?$_List_const_iterator@V?$_List_val@U?$_List_simple_types@PAV?$Goal@VRaven_Bot@@@@@std@@@std@@@1@@Z ; std::reverse_iterator<std::_List_const_iterator<std::_List_val<std::_List_simple_types<Goal<Raven_Bot> *> > > >::reverse_iterator<std::_List_const_iterator<std::_List_val<std::_List_simple_types<Goal<Raven_Bot> *> > > >
PUBLIC	?base@?$reverse_iterator@V?$_List_const_iterator@V?$_List_val@U?$_List_simple_types@PAV?$Goal@VRaven_Bot@@@@@std@@@std@@@std@@@std@@QBE?AV?$_List_const_iterator@V?$_List_val@U?$_List_simple_types@PAV?$Goal@VRaven_Bot@@@@@std@@@std@@@2@XZ ; std::reverse_iterator<std::_List_const_iterator<std::_List_val<std::_List_simple_types<Goal<Raven_Bot> *> > > >::base
PUBLIC	??D?$reverse_iterator@V?$_List_const_iterator@V?$_List_val@U?$_List_simple_types@PAV?$Goal@VRaven_Bot@@@@@std@@@std@@@std@@@std@@QBEABQAV?$Goal@VRaven_Bot@@@@XZ ; std::reverse_iterator<std::_List_const_iterator<std::_List_val<std::_List_simple_types<Goal<Raven_Bot> *> > > >::operator*
PUBLIC	??E?$reverse_iterator@V?$_List_const_iterator@V?$_List_val@U?$_List_simple_types@PAV?$Goal@VRaven_Bot@@@@@std@@@std@@@std@@@std@@QAEAAV01@XZ ; std::reverse_iterator<std::_List_const_iterator<std::_List_val<std::_List_simple_types<Goal<Raven_Bot> *> > > >::operator++
PUBLIC	??1?$reverse_iterator@V?$_List_const_iterator@V?$_List_val@U?$_List_simple_types@PAV?$Goal@VRaven_Bot@@@@@std@@@std@@@std@@@std@@QAE@XZ ; std::reverse_iterator<std::_List_const_iterator<std::_List_val<std::_List_simple_types<Goal<Raven_Bot> *> > > >::~reverse_iterator<std::_List_const_iterator<std::_List_val<std::_List_simple_types<Goal<Raven_Bot> *> > > >
PUBLIC	??4?$reverse_iterator@V?$_List_const_iterator@V?$_List_val@U?$_List_simple_types@PAV?$Goal@VRaven_Bot@@@@@std@@@std@@@std@@@std@@QAEAAV01@$$QAV01@@Z ; std::reverse_iterator<std::_List_const_iterator<std::_List_val<std::_List_simple_types<Goal<Raven_Bot> *> > > >::operator=
PUBLIC	??$?9V?$_List_const_iterator@V?$_List_val@U?$_List_simple_types@PAV?$Goal@VRaven_Bot@@@@@std@@@std@@@std@@V01@@std@@YA_NABV?$reverse_iterator@V?$_List_const_iterator@V?$_List_val@U?$_List_simple_types@PAV?$Goal@VRaven_Bot@@@@@std@@@std@@@std@@@0@0@Z ; std::operator!=<std::_List_const_iterator<std::_List_val<std::_List_simple_types<Goal<Raven_Bot> *> > >,std::_List_const_iterator<std::_List_val<std::_List_simple_types<Goal<Raven_Bot> *> > > >
PUBLIC	??$forward@PAV?$Goal@VRaven_Bot@@@@@std@@YA$$QAPAV?$Goal@VRaven_Bot@@@@AAPAV1@@Z ; std::forward<Goal<Raven_Bot> *>
PUBLIC	??$_Buynode@PAV?$Goal@VRaven_Bot@@@@@?$_List_buy@PAV?$Goal@VRaven_Bot@@@@V?$allocator@PAV?$Goal@VRaven_Bot@@@@@std@@@std@@QAEPAU?$_List_node@PAV?$Goal@VRaven_Bot@@@@PAX@1@PAU21@0$$QAPAV?$Goal@VRaven_Bot@@@@@Z ; std::_List_buy<Goal<Raven_Bot> *,std::allocator<Goal<Raven_Bot> *> >::_Buynode<Goal<Raven_Bot> *>
PUBLIC	??$_Allocate_manually_vector_aligned@U_Default_allocate_traits@std@@@std@@YAPAXI@Z ; std::_Allocate_manually_vector_aligned<std::_Default_allocate_traits>
PUBLIC	??$forward@U_Container_proxy@std@@@std@@YA$$QAU_Container_proxy@0@AAU10@@Z ; std::forward<std::_Container_proxy>
PUBLIC	??$_Destroy_range1@V?$allocator@PAVGoal_Evaluator@@@std@@@std@@YAXPAPAVGoal_Evaluator@@0AAV?$allocator@PAVGoal_Evaluator@@@0@U?$integral_constant@_N$00@0@@Z ; std::_Destroy_range1<std::allocator<Goal_Evaluator *> >
PUBLIC	??$destroy@PAU?$_List_node@PAV?$Goal@VRaven_Bot@@@@PAX@std@@@?$_Default_allocator_traits@V?$allocator@U?$_List_node@PAV?$Goal@VRaven_Bot@@@@PAX@std@@@std@@@std@@SAXAAV?$allocator@U?$_List_node@PAV?$Goal@VRaven_Bot@@@@PAX@std@@@1@QAPAU?$_List_node@PAV?$Goal@VRaven_Bot@@@@PAX@1@@Z ; std::_Default_allocator_traits<std::allocator<std::_List_node<Goal<Raven_Bot> *,void *> > >::destroy<std::_List_node<Goal<Raven_Bot> *,void *> *>
PUBLIC	??$forward@AAPAU?$_List_node@PAV?$Goal@VRaven_Bot@@@@PAX@std@@@std@@YAAAPAU?$_List_node@PAV?$Goal@VRaven_Bot@@@@PAX@0@AAPAU10@@Z ; std::forward<std::_List_node<Goal<Raven_Bot> *,void *> * &>
PUBLIC	??$_Uninitialized_move@PAPAVGoal_Evaluator@@PAPAV1@V?$allocator@PAVGoal_Evaluator@@@std@@@std@@YAPAPAVGoal_Evaluator@@QAPAV1@0PAPAV1@AAV?$allocator@PAVGoal_Evaluator@@@0@@Z ; std::_Uninitialized_move<Goal_Evaluator * *,Goal_Evaluator * *,std::allocator<Goal_Evaluator *> >
PUBLIC	??$_Insert@ABQAV?$Goal@VRaven_Bot@@@@@?$list@PAV?$Goal@VRaven_Bot@@@@V?$allocator@PAV?$Goal@VRaven_Bot@@@@@std@@@std@@QAEXV?$_List_unchecked_const_iterator@V?$_List_val@U?$_List_simple_types@PAV?$Goal@VRaven_Bot@@@@@std@@@std@@U_Iterator_base0@2@@1@ABQAV?$Goal@VRaven_Bot@@@@@Z ; std::list<Goal<Raven_Bot> *,std::allocator<Goal<Raven_Bot> *> >::_Insert<Goal<Raven_Bot> * const &>
PUBLIC	??$?8V?$_List_const_iterator@V?$_List_val@U?$_List_simple_types@PAV?$Goal@VRaven_Bot@@@@@std@@@std@@@std@@V01@@std@@YA_NABV?$reverse_iterator@V?$_List_const_iterator@V?$_List_val@U?$_List_simple_types@PAV?$Goal@VRaven_Bot@@@@@std@@@std@@@std@@@0@0@Z ; std::operator==<std::_List_const_iterator<std::_List_val<std::_List_simple_types<Goal<Raven_Bot> *> > >,std::_List_const_iterator<std::_List_val<std::_List_simple_types<Goal<Raven_Bot> *> > > >
PUBLIC	??$construct@PAV?$Goal@VRaven_Bot@@@@PAV1@@?$_Default_allocator_traits@V?$allocator@U?$_List_node@PAV?$Goal@VRaven_Bot@@@@PAX@std@@@std@@@std@@SAXAAV?$allocator@U?$_List_node@PAV?$Goal@VRaven_Bot@@@@PAX@std@@@1@QAPAV?$Goal@VRaven_Bot@@@@$$QAPAV3@@Z ; std::_Default_allocator_traits<std::allocator<std::_List_node<Goal<Raven_Bot> *,void *> > >::construct<Goal<Raven_Bot> *,Goal<Raven_Bot> *>
PUBLIC	??$_Get_unwrapped@PAVGoal_Evaluator@@@std@@YAPAPAVGoal_Evaluator@@QAPAV1@@Z ; std::_Get_unwrapped<Goal_Evaluator *>
PUBLIC	??$_Idl_distance@PAPAVGoal_Evaluator@@PAPAV1@@std@@YA@ABQAPAVGoal_Evaluator@@0@Z ; std::_Idl_distance<Goal_Evaluator * *,Goal_Evaluator * *>
PUBLIC	??$_Idl_distance1@PAPAVGoal_Evaluator@@PAPAV1@@std@@YAHABQAPAVGoal_Evaluator@@0Urandom_access_iterator_tag@0@@Z ; std::_Idl_distance1<Goal_Evaluator * *,Goal_Evaluator * *>
PUBLIC	??$_Get_unwrapped_n@PAVGoal_Evaluator@@H$0A@@std@@YAPAPAVGoal_Evaluator@@QAPAV1@H@Z ; std::_Get_unwrapped_n<Goal_Evaluator *,int,0>
PUBLIC	??$_Ptr_move_cat@PAVGoal_Evaluator@@PAV1@@std@@YA?AU_Really_trivial_ptr_iterator_tag@0@ABQAPAVGoal_Evaluator@@0@Z ; std::_Ptr_move_cat<Goal_Evaluator *,Goal_Evaluator *>
PUBLIC	??$_Uninitialized_move_al_unchecked@PAVGoal_Evaluator@@PAV1@V?$allocator@PAVGoal_Evaluator@@@std@@@std@@YAPAPAVGoal_Evaluator@@QAPAV1@00AAV?$allocator@PAVGoal_Evaluator@@@0@U_Really_trivial_ptr_iterator_tag@0@U?$integral_constant@_N$00@0@@Z ; std::_Uninitialized_move_al_unchecked<Goal_Evaluator *,Goal_Evaluator *,std::allocator<Goal_Evaluator *> >
PUBLIC	??$_Seek_wrapped@PAVGoal_Evaluator@@@std@@YAXAAPAPAVGoal_Evaluator@@QAPAV1@@Z ; std::_Seek_wrapped<Goal_Evaluator *>
PUBLIC	??$forward@ABQAV?$Goal@VRaven_Bot@@@@@std@@YAABQAV?$Goal@VRaven_Bot@@@@ABQAV1@@Z ; std::forward<Goal<Raven_Bot> * const &>
PUBLIC	??$_Buynode@ABQAV?$Goal@VRaven_Bot@@@@@?$_List_buy@PAV?$Goal@VRaven_Bot@@@@V?$allocator@PAV?$Goal@VRaven_Bot@@@@@std@@@std@@QAEPAU?$_List_node@PAV?$Goal@VRaven_Bot@@@@PAX@1@PAU21@0ABQAV?$Goal@VRaven_Bot@@@@@Z ; std::_List_buy<Goal<Raven_Bot> *,std::allocator<Goal<Raven_Bot> *> >::_Buynode<Goal<Raven_Bot> * const &>
PUBLIC	??$_Copy_memmove@PAPAVGoal_Evaluator@@PAPAV1@@std@@YAPAPAVGoal_Evaluator@@PAPAV1@00@Z ; std::_Copy_memmove<Goal_Evaluator * *,Goal_Evaluator * *>
PUBLIC	??$construct@PAV?$Goal@VRaven_Bot@@@@ABQAV1@@?$_Default_allocator_traits@V?$allocator@U?$_List_node@PAV?$Goal@VRaven_Bot@@@@PAX@std@@@std@@@std@@SAXAAV?$allocator@U?$_List_node@PAV?$Goal@VRaven_Bot@@@@PAX@std@@@1@QAPAV?$Goal@VRaven_Bot@@@@ABQAV3@@Z ; std::_Default_allocator_traits<std::allocator<std::_List_node<Goal<Raven_Bot> *,void *> > >::construct<Goal<Raven_Bot> *,Goal<Raven_Bot> * const &>
PUBLIC	??_7exception@std@@6B@				; std::exception::`vftable'
PUBLIC	??_C@_0BC@EOODALEL@Unknown?5exception@		; `string'
PUBLIC	??_C@_0BB@FCMFBGOM@invalid?5argument@		; `string'
PUBLIC	??_C@_02DKCKIIND@?$CFs@				; `string'
PUBLIC	??_C@_1CG@JNLFBNGN@?$AA?$CC?$AAi?$AAn?$AAv?$AAa?$AAl?$AAi?$AAd?$AA?5?$AAa?$AAr?$AAg?$AAu?$AAm?$AAe@ ; `string'
PUBLIC	??_C@_0BJ@LFDBABJJ@ITERATOR?5LIST?5CORRUPTED?$CB@ ; `string'
PUBLIC	??_C@_0GJ@DMCEMOMH@c?3?2program?5files?5?$CIx86?$CJ?2microsof@ ; `string'
PUBLIC	??_C@_1NC@HPHBFJCM@?$AAc?$AA?3?$AA?2?$AAp?$AAr?$AAo?$AAg?$AAr?$AAa?$AAm?$AA?5?$AAf?$AAi?$AAl?$AAe@ ; `string'
PUBLIC	??_C@_1EE@KLDMFDFL@?$AAs?$AAt?$AAd?$AA?3?$AA?3?$AA_?$AAI?$AAt?$AAe?$AAr?$AAa?$AAt?$AAo?$AAr?$AA_@ ; `string'
PUBLIC	??_C@_1DG@PLBPCAEM@?$AA?$CC?$AAI?$AAT?$AAE?$AAR?$AAA?$AAT?$AAO?$AAR?$AA?5?$AAL?$AAI?$AAS?$AAT?$AA?5@ ; `string'
PUBLIC	??_C@_0GJ@CAJJPMGE@c?3?2program?5files?5?$CIx86?$CJ?2microsof@ ; `string'
PUBLIC	??_C@_1NC@ICJKIMIP@?$AAc?$AA?3?$AA?2?$AAp?$AAr?$AAo?$AAg?$AAr?$AAa?$AAm?$AA?5?$AAf?$AAi?$AAl?$AAe@ ; `string'
PUBLIC	??_C@_1EK@NIFDJFDG@?$AAs?$AAt?$AAd?$AA?3?$AA?3?$AA_?$AAA?$AAd?$AAj?$AAu?$AAs?$AAt?$AA_?$AAm?$AAa@ ; `string'
PUBLIC	??_7runtime_error@std@@6B@			; std::runtime_error::`vftable'
PUBLIC	__TI2?AVruntime_error@std@@
PUBLIC	__CTA2?AVruntime_error@std@@
PUBLIC	??_R0?AVruntime_error@std@@@8			; std::runtime_error `RTTI Type Descriptor'
PUBLIC	__CT??_R0?AVruntime_error@std@@@8??0runtime_error@std@@QAE@ABV01@@Z12
PUBLIC	??_R0?AVexception@std@@@8			; std::exception `RTTI Type Descriptor'
PUBLIC	__CT??_R0?AVexception@std@@@8??0exception@std@@QAE@ABV01@@Z12
PUBLIC	??_C@_1KI@KNIJANCK@?$AAc?$AA?3?$AA?2?$AAu?$AAs?$AAe?$AAr?$AAs?$AA?2?$AAu?$AAt?$AAi?$AAl?$AAi?$AAs@ ; `string'
PUBLIC	??_C@_1CE@HKBOKGMG@?$AAc?$AAo?$AAl?$AAo?$AAr?$AA?5?$AA?$DM?$AA?5?$AAN?$AAu?$AAm?$AAC?$AAo?$AAl?$AAo@ ; `string'
PUBLIC	??_7Goal_Evaluator@@6B@				; Goal_Evaluator::`vftable'
PUBLIC	??_7?$Goal@VRaven_Bot@@@@6B@			; Goal<Raven_Bot>::`vftable'
PUBLIC	??_7?$Goal_Composite@VRaven_Bot@@@@6B@		; Goal_Composite<Raven_Bot>::`vftable'
PUBLIC	??_7Goal_Think@@6B@				; Goal_Think::`vftable'
PUBLIC	??_7Goal_MoveToPosition@@6B@			; Goal_MoveToPosition::`vftable'
PUBLIC	??_7Goal_Explore@@6B@				; Goal_Explore::`vftable'
PUBLIC	??_7Goal_GetItem@@6B@				; Goal_GetItem::`vftable'
PUBLIC	??_7Goal_AttackTarget@@6B@			; Goal_AttackTarget::`vftable'
PUBLIC	??_7GetWeaponGoal_Evaluator@@6B@		; GetWeaponGoal_Evaluator::`vftable'
PUBLIC	??_7GetHealthGoal_Evaluator@@6B@		; GetHealthGoal_Evaluator::`vftable'
PUBLIC	??_7ExploreGoal_Evaluator@@6B@			; ExploreGoal_Evaluator::`vftable'
PUBLIC	??_7AttackTargetGoal_Evaluator@@6B@		; AttackTargetGoal_Evaluator::`vftable'
PUBLIC	??_C@_0DC@KEKNBAEB@can?8t?5increment?5value?9initializ@ ; `string'
PUBLIC	??_C@_0GH@PHBFPDPI@c?3?2program?5files?5?$CIx86?$CJ?2microsof@ ; `string'
PUBLIC	??_C@_1MO@GGNBFPEH@?$AAc?$AA?3?$AA?2?$AAp?$AAr?$AAo?$AAg?$AAr?$AAa?$AAm?$AA?5?$AAf?$AAi?$AAl?$AAe@ ; `string'
PUBLIC	??_C@_1OM@HMBNDJFP@?$AAs?$AAt?$AAd?$AA?3?$AA?3?$AA_?$AAV?$AAe?$AAc?$AAt?$AAo?$AAr?$AA_?$AAc?$AAo@ ; `string'
PUBLIC	??_C@_1GI@EDCILPL@?$AA?$CC?$AAc?$AAa?$AAn?$AA?8?$AAt?$AA?5?$AAi?$AAn?$AAc?$AAr?$AAe?$AAm?$AAe?$AAn@ ; `string'
PUBLIC	??_C@_0CJ@OAAAAGPM@can?8t?5increment?5vector?5iterator@ ; `string'
PUBLIC	??_C@_1FG@LDPPKMGP@?$AA?$CC?$AAc?$AAa?$AAn?$AA?8?$AAt?$AA?5?$AAi?$AAn?$AAc?$AAr?$AAe?$AAm?$AAe?$AAn@ ; `string'
PUBLIC	??_C@_0DE@CHADHGFF@can?8t?5dereference?5value?9initial@ ; `string'
PUBLIC	??_C@_1OK@HJDJPPDC@?$AAs?$AAt?$AAd?$AA?3?$AA?3?$AA_?$AAV?$AAe?$AAc?$AAt?$AAo?$AAr?$AA_?$AAc?$AAo@ ; `string'
PUBLIC	??_C@_1GM@FNBFNBEL@?$AA?$CC?$AAc?$AAa?$AAn?$AA?8?$AAt?$AA?5?$AAd?$AAe?$AAr?$AAe?$AAf?$AAe?$AAr?$AAe@ ; `string'
PUBLIC	??_C@_0CP@MDHADBHN@can?8t?5dereference?5out?5of?5range?5@ ; `string'
PUBLIC	??_C@_1GC@JDCKOLAC@?$AA?$CC?$AAc?$AAa?$AAn?$AA?8?$AAt?$AA?5?$AAd?$AAe?$AAr?$AAe?$AAf?$AAe?$AAr?$AAe@ ; `string'
PUBLIC	??_C@_0CB@OHIHCHGJ@Cannot?5add?5goals?5to?5atomic?5goal@ ; `string'
PUBLIC	?id@?$codecvt@DDU_Mbstatet@@@std@@2V0locale@2@A	; std::codecvt<char,char,_Mbstatet>::id
PUBLIC	??_C@_0BM@BALDKKHE@list?5iterators?5incompatible@ ; `string'
PUBLIC	??_C@_0GF@CDIONFB@c?3?2program?5files?5?$CIx86?$CJ?2microsof@ ; `string'
PUBLIC	??_C@_1MK@MDLCPFJD@?$AAc?$AA?3?$AA?2?$AAp?$AAr?$AAo?$AAg?$AAr?$AAa?$AAm?$AA?5?$AAf?$AAi?$AAl?$AAe@ ; `string'
PUBLIC	??_C@_1PM@NGMJNEOB@?$AAs?$AAt?$AAd?$AA?3?$AA?3?$AA_?$AAL?$AAi?$AAs?$AAt?$AA_?$AAc?$AAo?$AAn?$AAs@ ; `string'
PUBLIC	??_C@_1DM@KDLJAKOP@?$AA?$CC?$AAl?$AAi?$AAs?$AAt?$AA?5?$AAi?$AAt?$AAe?$AAr?$AAa?$AAt?$AAo?$AAr?$AAs@ ; `string'
PUBLIC	??_C@_0DB@ENBCPNKO@cannot?5increment?5value?9initiali@ ; `string'
PUBLIC	??_C@_1PM@HGDEDNCE@?$AAs?$AAt?$AAd?$AA?3?$AA?3?$AA_?$AAL?$AAi?$AAs?$AAt?$AA_?$AAc?$AAo?$AAn?$AAs@ ; `string'
PUBLIC	??_C@_1GG@JLMAGPNK@?$AA?$CC?$AAc?$AAa?$AAn?$AAn?$AAo?$AAt?$AA?5?$AAi?$AAn?$AAc?$AAr?$AAe?$AAm?$AAe@ ; `string'
PUBLIC	??_C@_0CD@PMFMCEG@cannot?5increment?5end?5list?5itera@ ; `string'
PUBLIC	??_C@_1EK@OKKCFDJN@?$AA?$CC?$AAc?$AAa?$AAn?$AAn?$AAo?$AAt?$AA?5?$AAi?$AAn?$AAc?$AAr?$AAe?$AAm?$AAe@ ; `string'
PUBLIC	??_C@_0DD@MBIHGLJE@cannot?5dereference?5value?9initia@ ; `string'
PUBLIC	??_C@_1PK@KKMOJEL@?$AAs?$AAt?$AAd?$AA?3?$AA?3?$AA_?$AAL?$AAi?$AAs?$AAt?$AA_?$AAc?$AAo?$AAn?$AAs@ ; `string'
PUBLIC	??_C@_1GK@NKIMOCIG@?$AA?$CC?$AAc?$AAa?$AAn?$AAn?$AAo?$AAt?$AA?5?$AAd?$AAe?$AAr?$AAe?$AAf?$AAe?$AAr@ ; `string'
PUBLIC	??_C@_0CF@JCBFHMPL@cannot?5dereference?5end?5list?5ite@ ; `string'
PUBLIC	??_C@_1EO@CNEFBDCF@?$AA?$CC?$AAc?$AAa?$AAn?$AAn?$AAo?$AAt?$AA?5?$AAd?$AAe?$AAr?$AAe?$AAf?$AAe?$AAr@ ; `string'
PUBLIC	?id@?$collate@D@std@@2V0locale@2@A		; std::collate<char>::id
PUBLIC	??_C@_0BO@CAOBBIOC@vector?5iterators?5incompatible@ ; `string'
PUBLIC	??_C@_1OE@CHECBPNH@?$AAs?$AAt?$AAd?$AA?3?$AA?3?$AA_?$AAV?$AAe?$AAc?$AAt?$AAo?$AAr?$AA_?$AAc?$AAo@ ; `string'
PUBLIC	??_C@_1EA@DJDGNIII@?$AA?$CC?$AAv?$AAe?$AAc?$AAt?$AAo?$AAr?$AA?5?$AAi?$AAt?$AAe?$AAr?$AAa?$AAt?$AAo@ ; `string'
PUBLIC	??_C@_0BD@OLBABOEK@vector?$DMT?$DO?5too?5long@	; `string'
PUBLIC	??_C@_0BB@MOGOBHAF@list?$DMT?$DO?5too?5long@	; `string'
PUBLIC	??_C@_0DB@MCPEHPCC@cannot?5decrement?5value?9initiali@ ; `string'
PUBLIC	??_C@_1PM@IFAGIBOF@?$AAs?$AAt?$AAd?$AA?3?$AA?3?$AA_?$AAL?$AAi?$AAs?$AAt?$AA_?$AAc?$AAo?$AAn?$AAs@ ; `string'
PUBLIC	??_C@_1GG@FLDKPFOH@?$AA?$CC?$AAc?$AAa?$AAn?$AAn?$AAo?$AAt?$AA?5?$AAd?$AAe?$AAc?$AAr?$AAe?$AAm?$AAe@ ; `string'
PUBLIC	??_C@_0CF@BAAFPBMN@cannot?5decrement?5begin?5list?5ite@ ; `string'
PUBLIC	??_C@_1EO@PPPLIDNC@?$AA?$CC?$AAc?$AAa?$AAn?$AAn?$AAo?$AAt?$AA?5?$AAd?$AAe?$AAc?$AAr?$AAe?$AAm?$AAe@ ; `string'
PUBLIC	??_C@_0CC@KEJJOMBH@list?5erase?5iterator?5outside?5ran@ ; `string'
PUBLIC	??_C@_1NG@CFOJKHE@?$AAs?$AAt?$AAd?$AA?3?$AA?3?$AAl?$AAi?$AAs?$AAt?$AA?$DM?$AAc?$AAl?$AAa?$AAs?$AAs@ ; `string'
PUBLIC	??_C@_1EI@FHIDKIBN@?$AA?$CC?$AAl?$AAi?$AAs?$AAt?$AA?5?$AAe?$AAr?$AAa?$AAs?$AAe?$AA?5?$AAi?$AAt?$AAe@ ; `string'
PUBLIC	??_C@_1EO@GFNCMDLA@?$AAs?$AAt?$AAd?$AA?3?$AA?3?$AA_?$AAA?$AAl?$AAl?$AAo?$AAc?$AAa?$AAt?$AAe?$AA_@ ; `string'
PUBLIC	??_R4exception@std@@6B@				; std::exception::`RTTI Complete Object Locator'
PUBLIC	??_R3exception@std@@8				; std::exception::`RTTI Class Hierarchy Descriptor'
PUBLIC	??_R2exception@std@@8				; std::exception::`RTTI Base Class Array'
PUBLIC	??_R1A@?0A@EA@exception@std@@8			; std::exception::`RTTI Base Class Descriptor at (0,-1,0,64)'
PUBLIC	??_R4runtime_error@std@@6B@			; std::runtime_error::`RTTI Complete Object Locator'
PUBLIC	??_R3runtime_error@std@@8			; std::runtime_error::`RTTI Class Hierarchy Descriptor'
PUBLIC	??_R2runtime_error@std@@8			; std::runtime_error::`RTTI Base Class Array'
PUBLIC	??_R1A@?0A@EA@runtime_error@std@@8		; std::runtime_error::`RTTI Base Class Descriptor at (0,-1,0,64)'
PUBLIC	??_R4Goal_Think@@6B@				; Goal_Think::`RTTI Complete Object Locator'
PUBLIC	??_R0?AVGoal_Think@@@8				; Goal_Think `RTTI Type Descriptor'
PUBLIC	??_R3Goal_Think@@8				; Goal_Think::`RTTI Class Hierarchy Descriptor'
PUBLIC	??_R2Goal_Think@@8				; Goal_Think::`RTTI Base Class Array'
PUBLIC	??_R1A@?0A@EA@Goal_Think@@8			; Goal_Think::`RTTI Base Class Descriptor at (0,-1,0,64)'
PUBLIC	??_R1A@?0A@EA@?$Goal_Composite@VRaven_Bot@@@@8	; Goal_Composite<Raven_Bot>::`RTTI Base Class Descriptor at (0,-1,0,64)'
PUBLIC	??_R0?AV?$Goal_Composite@VRaven_Bot@@@@@8	; Goal_Composite<Raven_Bot> `RTTI Type Descriptor'
PUBLIC	??_R3?$Goal_Composite@VRaven_Bot@@@@8		; Goal_Composite<Raven_Bot>::`RTTI Class Hierarchy Descriptor'
PUBLIC	??_R2?$Goal_Composite@VRaven_Bot@@@@8		; Goal_Composite<Raven_Bot>::`RTTI Base Class Array'
PUBLIC	??_R1A@?0A@EA@?$Goal@VRaven_Bot@@@@8		; Goal<Raven_Bot>::`RTTI Base Class Descriptor at (0,-1,0,64)'
PUBLIC	??_R0?AV?$Goal@VRaven_Bot@@@@@8			; Goal<Raven_Bot> `RTTI Type Descriptor'
PUBLIC	??_R3?$Goal@VRaven_Bot@@@@8			; Goal<Raven_Bot>::`RTTI Class Hierarchy Descriptor'
PUBLIC	??_R2?$Goal@VRaven_Bot@@@@8			; Goal<Raven_Bot>::`RTTI Base Class Array'
PUBLIC	??_R4Goal_Evaluator@@6B@			; Goal_Evaluator::`RTTI Complete Object Locator'
PUBLIC	??_R0?AVGoal_Evaluator@@@8			; Goal_Evaluator `RTTI Type Descriptor'
PUBLIC	??_R3Goal_Evaluator@@8				; Goal_Evaluator::`RTTI Class Hierarchy Descriptor'
PUBLIC	??_R2Goal_Evaluator@@8				; Goal_Evaluator::`RTTI Base Class Array'
PUBLIC	??_R1A@?0A@EA@Goal_Evaluator@@8			; Goal_Evaluator::`RTTI Base Class Descriptor at (0,-1,0,64)'
PUBLIC	??_R4?$Goal_Composite@VRaven_Bot@@@@6B@		; Goal_Composite<Raven_Bot>::`RTTI Complete Object Locator'
PUBLIC	??_R4?$Goal@VRaven_Bot@@@@6B@			; Goal<Raven_Bot>::`RTTI Complete Object Locator'
PUBLIC	??_R4Goal_MoveToPosition@@6B@			; Goal_MoveToPosition::`RTTI Complete Object Locator'
PUBLIC	??_R0?AVGoal_MoveToPosition@@@8			; Goal_MoveToPosition `RTTI Type Descriptor'
PUBLIC	??_R3Goal_MoveToPosition@@8			; Goal_MoveToPosition::`RTTI Class Hierarchy Descriptor'
PUBLIC	??_R2Goal_MoveToPosition@@8			; Goal_MoveToPosition::`RTTI Base Class Array'
PUBLIC	??_R1A@?0A@EA@Goal_MoveToPosition@@8		; Goal_MoveToPosition::`RTTI Base Class Descriptor at (0,-1,0,64)'
PUBLIC	??_R4Goal_Explore@@6B@				; Goal_Explore::`RTTI Complete Object Locator'
PUBLIC	??_R0?AVGoal_Explore@@@8			; Goal_Explore `RTTI Type Descriptor'
PUBLIC	??_R3Goal_Explore@@8				; Goal_Explore::`RTTI Class Hierarchy Descriptor'
PUBLIC	??_R2Goal_Explore@@8				; Goal_Explore::`RTTI Base Class Array'
PUBLIC	??_R1A@?0A@EA@Goal_Explore@@8			; Goal_Explore::`RTTI Base Class Descriptor at (0,-1,0,64)'
PUBLIC	??_R4Goal_GetItem@@6B@				; Goal_GetItem::`RTTI Complete Object Locator'
PUBLIC	??_R0?AVGoal_GetItem@@@8			; Goal_GetItem `RTTI Type Descriptor'
PUBLIC	??_R3Goal_GetItem@@8				; Goal_GetItem::`RTTI Class Hierarchy Descriptor'
PUBLIC	??_R2Goal_GetItem@@8				; Goal_GetItem::`RTTI Base Class Array'
PUBLIC	??_R1A@?0A@EA@Goal_GetItem@@8			; Goal_GetItem::`RTTI Base Class Descriptor at (0,-1,0,64)'
PUBLIC	??_R4Goal_AttackTarget@@6B@			; Goal_AttackTarget::`RTTI Complete Object Locator'
PUBLIC	??_R0?AVGoal_AttackTarget@@@8			; Goal_AttackTarget `RTTI Type Descriptor'
PUBLIC	??_R3Goal_AttackTarget@@8			; Goal_AttackTarget::`RTTI Class Hierarchy Descriptor'
PUBLIC	??_R2Goal_AttackTarget@@8			; Goal_AttackTarget::`RTTI Base Class Array'
PUBLIC	??_R1A@?0A@EA@Goal_AttackTarget@@8		; Goal_AttackTarget::`RTTI Base Class Descriptor at (0,-1,0,64)'
PUBLIC	??_R4GetWeaponGoal_Evaluator@@6B@		; GetWeaponGoal_Evaluator::`RTTI Complete Object Locator'
PUBLIC	??_R0?AVGetWeaponGoal_Evaluator@@@8		; GetWeaponGoal_Evaluator `RTTI Type Descriptor'
PUBLIC	??_R3GetWeaponGoal_Evaluator@@8			; GetWeaponGoal_Evaluator::`RTTI Class Hierarchy Descriptor'
PUBLIC	??_R2GetWeaponGoal_Evaluator@@8			; GetWeaponGoal_Evaluator::`RTTI Base Class Array'
PUBLIC	??_R1A@?0A@EA@GetWeaponGoal_Evaluator@@8	; GetWeaponGoal_Evaluator::`RTTI Base Class Descriptor at (0,-1,0,64)'
PUBLIC	??_R4GetHealthGoal_Evaluator@@6B@		; GetHealthGoal_Evaluator::`RTTI Complete Object Locator'
PUBLIC	??_R0?AVGetHealthGoal_Evaluator@@@8		; GetHealthGoal_Evaluator `RTTI Type Descriptor'
PUBLIC	??_R3GetHealthGoal_Evaluator@@8			; GetHealthGoal_Evaluator::`RTTI Class Hierarchy Descriptor'
PUBLIC	??_R2GetHealthGoal_Evaluator@@8			; GetHealthGoal_Evaluator::`RTTI Base Class Array'
PUBLIC	??_R1A@?0A@EA@GetHealthGoal_Evaluator@@8	; GetHealthGoal_Evaluator::`RTTI Base Class Descriptor at (0,-1,0,64)'
PUBLIC	??_R4ExploreGoal_Evaluator@@6B@			; ExploreGoal_Evaluator::`RTTI Complete Object Locator'
PUBLIC	??_R0?AVExploreGoal_Evaluator@@@8		; ExploreGoal_Evaluator `RTTI Type Descriptor'
PUBLIC	??_R3ExploreGoal_Evaluator@@8			; ExploreGoal_Evaluator::`RTTI Class Hierarchy Descriptor'
PUBLIC	??_R2ExploreGoal_Evaluator@@8			; ExploreGoal_Evaluator::`RTTI Base Class Array'
PUBLIC	??_R1A@?0A@EA@ExploreGoal_Evaluator@@8		; ExploreGoal_Evaluator::`RTTI Base Class Descriptor at (0,-1,0,64)'
PUBLIC	??_R4AttackTargetGoal_Evaluator@@6B@		; AttackTargetGoal_Evaluator::`RTTI Complete Object Locator'
PUBLIC	??_R0?AVAttackTargetGoal_Evaluator@@@8		; AttackTargetGoal_Evaluator `RTTI Type Descriptor'
PUBLIC	??_R3AttackTargetGoal_Evaluator@@8		; AttackTargetGoal_Evaluator::`RTTI Class Hierarchy Descriptor'
PUBLIC	??_R2AttackTargetGoal_Evaluator@@8		; AttackTargetGoal_Evaluator::`RTTI Base Class Array'
PUBLIC	??_R1A@?0A@EA@AttackTargetGoal_Evaluator@@8	; AttackTargetGoal_Evaluator::`RTTI Base Class Descriptor at (0,-1,0,64)'
PUBLIC	__real@0010000000000000
PUBLIC	__real@00800000
PUBLIC	__real@3fe0000000000000
PUBLIC	__real@3ff8000000000000
PUBLIC	__real@4024000000000000
PUBLIC	__real@402e000000000000
PUBLIC	__real@40e0000000000000
PUBLIC	__real@7f7fffff
PUBLIC	__real@7fefffffffffffff
EXTRN	__purecall:PROC
EXTRN	??2@YAPAXI@Z:PROC				; operator new
EXTRN	??3@YAXPAXI@Z:PROC				; operator delete
EXTRN	__invalid_parameter:PROC
EXTRN	__CrtDbgReport:PROC
EXTRN	??0_Lockit@std@@QAE@H@Z:PROC			; std::_Lockit::_Lockit
EXTRN	??1_Lockit@std@@QAE@XZ:PROC			; std::_Lockit::~_Lockit
EXTRN	_rand:PROC
EXTRN	_memmove:PROC
EXTRN	___std_exception_copy:PROC
EXTRN	___std_exception_destroy:PROC
EXTRN	??_Eexception@std@@UAEPAXI@Z:PROC		; std::exception::`vector deleting destructor'
EXTRN	?_Xlength_error@std@@YAXPBD@Z:PROC		; std::_Xlength_error
EXTRN	??_Eruntime_error@std@@UAEPAXI@Z:PROC		; std::runtime_error::`vector deleting destructor'
EXTRN	__imp__SetBkMode@8:PROC
EXTRN	__imp__SetTextColor@8:PROC
EXTRN	__imp__TextOutA@20:PROC
EXTRN	__wassert:PROC
EXTRN	?Instance@Cgdi@@SAPAV1@XZ:PROC			; Cgdi::Instance
EXTRN	??_EGoal_Evaluator@@UAEPAXI@Z:PROC		; Goal_Evaluator::`vector deleting destructor'
EXTRN	??_E?$Goal@VRaven_Bot@@@@UAEPAXI@Z:PROC		; Goal<Raven_Bot>::`vector deleting destructor'
EXTRN	??_E?$Goal_Composite@VRaven_Bot@@@@UAEPAXI@Z:PROC ; Goal_Composite<Raven_Bot>::`vector deleting destructor'
EXTRN	??_EGoal_Think@@UAEPAXI@Z:PROC			; Goal_Think::`vector deleting destructor'
EXTRN	?Activate@Goal_MoveToPosition@@UAEXXZ:PROC	; Goal_MoveToPosition::Activate
EXTRN	?Process@Goal_MoveToPosition@@UAEHXZ:PROC	; Goal_MoveToPosition::Process
EXTRN	?HandleMessage@Goal_MoveToPosition@@UAE_NABUTelegram@@@Z:PROC ; Goal_MoveToPosition::HandleMessage
EXTRN	?Render@Goal_MoveToPosition@@UAEXXZ:PROC	; Goal_MoveToPosition::Render
EXTRN	??_EGoal_MoveToPosition@@UAEPAXI@Z:PROC		; Goal_MoveToPosition::`vector deleting destructor'
EXTRN	?Activate@Goal_Explore@@UAEXXZ:PROC		; Goal_Explore::Activate
EXTRN	?Process@Goal_Explore@@UAEHXZ:PROC		; Goal_Explore::Process
EXTRN	?HandleMessage@Goal_Explore@@UAE_NABUTelegram@@@Z:PROC ; Goal_Explore::HandleMessage
EXTRN	??_EGoal_Explore@@UAEPAXI@Z:PROC		; Goal_Explore::`vector deleting destructor'
EXTRN	?ItemTypeToGoalType@@YAHH@Z:PROC		; ItemTypeToGoalType
EXTRN	?Activate@Goal_GetItem@@UAEXXZ:PROC		; Goal_GetItem::Activate
EXTRN	?Process@Goal_GetItem@@UAEHXZ:PROC		; Goal_GetItem::Process
EXTRN	?HandleMessage@Goal_GetItem@@UAE_NABUTelegram@@@Z:PROC ; Goal_GetItem::HandleMessage
EXTRN	??_EGoal_GetItem@@UAEPAXI@Z:PROC		; Goal_GetItem::`vector deleting destructor'
EXTRN	?Activate@Goal_AttackTarget@@UAEXXZ:PROC	; Goal_AttackTarget::Activate
EXTRN	?Process@Goal_AttackTarget@@UAEHXZ:PROC		; Goal_AttackTarget::Process
EXTRN	??_EGoal_AttackTarget@@UAEPAXI@Z:PROC		; Goal_AttackTarget::`vector deleting destructor'
EXTRN	?CalculateDesirability@GetWeaponGoal_Evaluator@@UAENPAVRaven_Bot@@@Z:PROC ; GetWeaponGoal_Evaluator::CalculateDesirability
EXTRN	?SetGoal@GetWeaponGoal_Evaluator@@UAEXPAVRaven_Bot@@@Z:PROC ; GetWeaponGoal_Evaluator::SetGoal
EXTRN	?RenderInfo@GetWeaponGoal_Evaluator@@UAEXUVector2D@@PAVRaven_Bot@@@Z:PROC ; GetWeaponGoal_Evaluator::RenderInfo
EXTRN	??_EGetWeaponGoal_Evaluator@@UAEPAXI@Z:PROC	; GetWeaponGoal_Evaluator::`vector deleting destructor'
EXTRN	?CalculateDesirability@GetHealthGoal_Evaluator@@UAENPAVRaven_Bot@@@Z:PROC ; GetHealthGoal_Evaluator::CalculateDesirability
EXTRN	?SetGoal@GetHealthGoal_Evaluator@@UAEXPAVRaven_Bot@@@Z:PROC ; GetHealthGoal_Evaluator::SetGoal
EXTRN	?RenderInfo@GetHealthGoal_Evaluator@@UAEXUVector2D@@PAVRaven_Bot@@@Z:PROC ; GetHealthGoal_Evaluator::RenderInfo
EXTRN	??_EGetHealthGoal_Evaluator@@UAEPAXI@Z:PROC	; GetHealthGoal_Evaluator::`vector deleting destructor'
EXTRN	?CalculateDesirability@ExploreGoal_Evaluator@@UAENPAVRaven_Bot@@@Z:PROC ; ExploreGoal_Evaluator::CalculateDesirability
EXTRN	?SetGoal@ExploreGoal_Evaluator@@UAEXPAVRaven_Bot@@@Z:PROC ; ExploreGoal_Evaluator::SetGoal
EXTRN	?RenderInfo@ExploreGoal_Evaluator@@UAEXUVector2D@@PAVRaven_Bot@@@Z:PROC ; ExploreGoal_Evaluator::RenderInfo
EXTRN	??_EExploreGoal_Evaluator@@UAEPAXI@Z:PROC	; ExploreGoal_Evaluator::`vector deleting destructor'
EXTRN	?CalculateDesirability@AttackTargetGoal_Evaluator@@UAENPAVRaven_Bot@@@Z:PROC ; AttackTargetGoal_Evaluator::CalculateDesirability
EXTRN	?SetGoal@AttackTargetGoal_Evaluator@@UAEXPAVRaven_Bot@@@Z:PROC ; AttackTargetGoal_Evaluator::SetGoal
EXTRN	?RenderInfo@AttackTargetGoal_Evaluator@@UAEXUVector2D@@PAVRaven_Bot@@@Z:PROC ; AttackTargetGoal_Evaluator::RenderInfo
EXTRN	??_EAttackTargetGoal_Evaluator@@UAEPAXI@Z:PROC	; AttackTargetGoal_Evaluator::`vector deleting destructor'
EXTRN	@_RTC_CheckStackVars@8:PROC
EXTRN	@__security_check_cookie@4:PROC
EXTRN	__CxxThrowException@8:PROC
EXTRN	__RTC_CheckEsp:PROC
EXTRN	__RTC_InitBase:PROC
EXTRN	__RTC_Shutdown:PROC
EXTRN	___CxxFrameHandler3:PROC
EXTRN	??_7type_info@@6B@:QWORD			; type_info::`vftable'
EXTRN	___security_cookie:DWORD
EXTRN	__fltused:DWORD
_BSS	SEGMENT
?MaxInt@@3HB DD	01H DUP (?)				; MaxInt
	ALIGN	8

?MaxDouble@@3NB DQ 01H DUP (?)				; MaxDouble
?MinDouble@@3NB DQ 01H DUP (?)				; MinDouble
?MaxFloat@@3MB DD 01H DUP (?)				; MaxFloat
?MinFloat@@3MB DD 01H DUP (?)				; MinFloat
_BSS	ENDS
;	COMDAT ?id@?$codecvt@DDU_Mbstatet@@@std@@2V0locale@2@A
_BSS	SEGMENT
?id@?$codecvt@DDU_Mbstatet@@@std@@2V0locale@2@A DD 01H DUP (?) ; std::codecvt<char,char,_Mbstatet>::id
_BSS	ENDS
;	COMDAT ?id@?$collate@D@std@@2V0locale@2@A
_BSS	SEGMENT
?id@?$collate@D@std@@2V0locale@2@A DD 01H DUP (?)	; std::collate<char>::id
_BSS	ENDS
CRT$XCU	SEGMENT
?MaxInt$initializer$@@3P6AXXZA DD FLAT:??__EMaxInt@@YAXXZ ; MaxInt$initializer$
CRT$XCU	ENDS
;	COMDAT __real@7fefffffffffffff
CONST	SEGMENT
__real@7fefffffffffffff DQ 07fefffffffffffffr	; 1.79769e+308
CONST	ENDS
;	COMDAT __real@7f7fffff
CONST	SEGMENT
__real@7f7fffff DD 07f7fffffr			; 3.40282e+38
CONST	ENDS
;	COMDAT __real@40e0000000000000
CONST	SEGMENT
__real@40e0000000000000 DQ 040e0000000000000r	; 32768
CONST	ENDS
;	COMDAT __real@402e000000000000
CONST	SEGMENT
__real@402e000000000000 DQ 0402e000000000000r	; 15
CONST	ENDS
;	COMDAT __real@4024000000000000
CONST	SEGMENT
__real@4024000000000000 DQ 04024000000000000r	; 10
CONST	ENDS
;	COMDAT __real@3ff8000000000000
CONST	SEGMENT
__real@3ff8000000000000 DQ 03ff8000000000000r	; 1.5
CONST	ENDS
;	COMDAT __real@3fe0000000000000
CONST	SEGMENT
__real@3fe0000000000000 DQ 03fe0000000000000r	; 0.5
CONST	ENDS
;	COMDAT __real@00800000
CONST	SEGMENT
__real@00800000 DD 000800000r			; 1.17549e-38
CONST	ENDS
;	COMDAT __real@0010000000000000
CONST	SEGMENT
__real@0010000000000000 DQ 00010000000000000r	; 2.22507e-308
CONST	ENDS
;	COMDAT rtc$TMZ
rtc$TMZ	SEGMENT
__RTC_Shutdown.rtc$TMZ DD FLAT:__RTC_Shutdown
rtc$TMZ	ENDS
;	COMDAT rtc$IMZ
rtc$IMZ	SEGMENT
__RTC_InitBase.rtc$IMZ DD FLAT:__RTC_InitBase
rtc$IMZ	ENDS
;	COMDAT ??_R1A@?0A@EA@AttackTargetGoal_Evaluator@@8
rdata$r	SEGMENT
??_R1A@?0A@EA@AttackTargetGoal_Evaluator@@8 DD FLAT:??_R0?AVAttackTargetGoal_Evaluator@@@8 ; AttackTargetGoal_Evaluator::`RTTI Base Class Descriptor at (0,-1,0,64)'
	DD	01H
	DD	00H
	DD	0ffffffffH
	DD	00H
	DD	040H
	DD	FLAT:??_R3AttackTargetGoal_Evaluator@@8
rdata$r	ENDS
;	COMDAT ??_R2AttackTargetGoal_Evaluator@@8
rdata$r	SEGMENT
??_R2AttackTargetGoal_Evaluator@@8 DD FLAT:??_R1A@?0A@EA@AttackTargetGoal_Evaluator@@8 ; AttackTargetGoal_Evaluator::`RTTI Base Class Array'
	DD	FLAT:??_R1A@?0A@EA@Goal_Evaluator@@8
rdata$r	ENDS
;	COMDAT ??_R3AttackTargetGoal_Evaluator@@8
rdata$r	SEGMENT
??_R3AttackTargetGoal_Evaluator@@8 DD 00H		; AttackTargetGoal_Evaluator::`RTTI Class Hierarchy Descriptor'
	DD	00H
	DD	02H
	DD	FLAT:??_R2AttackTargetGoal_Evaluator@@8
rdata$r	ENDS
;	COMDAT ??_R0?AVAttackTargetGoal_Evaluator@@@8
data$r	SEGMENT
??_R0?AVAttackTargetGoal_Evaluator@@@8 DD FLAT:??_7type_info@@6B@ ; AttackTargetGoal_Evaluator `RTTI Type Descriptor'
	DD	00H
	DB	'.?AVAttackTargetGoal_Evaluator@@', 00H
data$r	ENDS
;	COMDAT ??_R4AttackTargetGoal_Evaluator@@6B@
rdata$r	SEGMENT
??_R4AttackTargetGoal_Evaluator@@6B@ DD 00H		; AttackTargetGoal_Evaluator::`RTTI Complete Object Locator'
	DD	00H
	DD	00H
	DD	FLAT:??_R0?AVAttackTargetGoal_Evaluator@@@8
	DD	FLAT:??_R3AttackTargetGoal_Evaluator@@8
rdata$r	ENDS
;	COMDAT ??_R1A@?0A@EA@ExploreGoal_Evaluator@@8
rdata$r	SEGMENT
??_R1A@?0A@EA@ExploreGoal_Evaluator@@8 DD FLAT:??_R0?AVExploreGoal_Evaluator@@@8 ; ExploreGoal_Evaluator::`RTTI Base Class Descriptor at (0,-1,0,64)'
	DD	01H
	DD	00H
	DD	0ffffffffH
	DD	00H
	DD	040H
	DD	FLAT:??_R3ExploreGoal_Evaluator@@8
rdata$r	ENDS
;	COMDAT ??_R2ExploreGoal_Evaluator@@8
rdata$r	SEGMENT
??_R2ExploreGoal_Evaluator@@8 DD FLAT:??_R1A@?0A@EA@ExploreGoal_Evaluator@@8 ; ExploreGoal_Evaluator::`RTTI Base Class Array'
	DD	FLAT:??_R1A@?0A@EA@Goal_Evaluator@@8
rdata$r	ENDS
;	COMDAT ??_R3ExploreGoal_Evaluator@@8
rdata$r	SEGMENT
??_R3ExploreGoal_Evaluator@@8 DD 00H			; ExploreGoal_Evaluator::`RTTI Class Hierarchy Descriptor'
	DD	00H
	DD	02H
	DD	FLAT:??_R2ExploreGoal_Evaluator@@8
rdata$r	ENDS
;	COMDAT ??_R0?AVExploreGoal_Evaluator@@@8
data$r	SEGMENT
??_R0?AVExploreGoal_Evaluator@@@8 DD FLAT:??_7type_info@@6B@ ; ExploreGoal_Evaluator `RTTI Type Descriptor'
	DD	00H
	DB	'.?AVExploreGoal_Evaluator@@', 00H
data$r	ENDS
;	COMDAT ??_R4ExploreGoal_Evaluator@@6B@
rdata$r	SEGMENT
??_R4ExploreGoal_Evaluator@@6B@ DD 00H			; ExploreGoal_Evaluator::`RTTI Complete Object Locator'
	DD	00H
	DD	00H
	DD	FLAT:??_R0?AVExploreGoal_Evaluator@@@8
	DD	FLAT:??_R3ExploreGoal_Evaluator@@8
rdata$r	ENDS
;	COMDAT ??_R1A@?0A@EA@GetHealthGoal_Evaluator@@8
rdata$r	SEGMENT
??_R1A@?0A@EA@GetHealthGoal_Evaluator@@8 DD FLAT:??_R0?AVGetHealthGoal_Evaluator@@@8 ; GetHealthGoal_Evaluator::`RTTI Base Class Descriptor at (0,-1,0,64)'
	DD	01H
	DD	00H
	DD	0ffffffffH
	DD	00H
	DD	040H
	DD	FLAT:??_R3GetHealthGoal_Evaluator@@8
rdata$r	ENDS
;	COMDAT ??_R2GetHealthGoal_Evaluator@@8
rdata$r	SEGMENT
??_R2GetHealthGoal_Evaluator@@8 DD FLAT:??_R1A@?0A@EA@GetHealthGoal_Evaluator@@8 ; GetHealthGoal_Evaluator::`RTTI Base Class Array'
	DD	FLAT:??_R1A@?0A@EA@Goal_Evaluator@@8
rdata$r	ENDS
;	COMDAT ??_R3GetHealthGoal_Evaluator@@8
rdata$r	SEGMENT
??_R3GetHealthGoal_Evaluator@@8 DD 00H			; GetHealthGoal_Evaluator::`RTTI Class Hierarchy Descriptor'
	DD	00H
	DD	02H
	DD	FLAT:??_R2GetHealthGoal_Evaluator@@8
rdata$r	ENDS
;	COMDAT ??_R0?AVGetHealthGoal_Evaluator@@@8
data$r	SEGMENT
??_R0?AVGetHealthGoal_Evaluator@@@8 DD FLAT:??_7type_info@@6B@ ; GetHealthGoal_Evaluator `RTTI Type Descriptor'
	DD	00H
	DB	'.?AVGetHealthGoal_Evaluator@@', 00H
data$r	ENDS
;	COMDAT ??_R4GetHealthGoal_Evaluator@@6B@
rdata$r	SEGMENT
??_R4GetHealthGoal_Evaluator@@6B@ DD 00H		; GetHealthGoal_Evaluator::`RTTI Complete Object Locator'
	DD	00H
	DD	00H
	DD	FLAT:??_R0?AVGetHealthGoal_Evaluator@@@8
	DD	FLAT:??_R3GetHealthGoal_Evaluator@@8
rdata$r	ENDS
;	COMDAT ??_R1A@?0A@EA@GetWeaponGoal_Evaluator@@8
rdata$r	SEGMENT
??_R1A@?0A@EA@GetWeaponGoal_Evaluator@@8 DD FLAT:??_R0?AVGetWeaponGoal_Evaluator@@@8 ; GetWeaponGoal_Evaluator::`RTTI Base Class Descriptor at (0,-1,0,64)'
	DD	01H
	DD	00H
	DD	0ffffffffH
	DD	00H
	DD	040H
	DD	FLAT:??_R3GetWeaponGoal_Evaluator@@8
rdata$r	ENDS
;	COMDAT ??_R2GetWeaponGoal_Evaluator@@8
rdata$r	SEGMENT
??_R2GetWeaponGoal_Evaluator@@8 DD FLAT:??_R1A@?0A@EA@GetWeaponGoal_Evaluator@@8 ; GetWeaponGoal_Evaluator::`RTTI Base Class Array'
	DD	FLAT:??_R1A@?0A@EA@Goal_Evaluator@@8
rdata$r	ENDS
;	COMDAT ??_R3GetWeaponGoal_Evaluator@@8
rdata$r	SEGMENT
??_R3GetWeaponGoal_Evaluator@@8 DD 00H			; GetWeaponGoal_Evaluator::`RTTI Class Hierarchy Descriptor'
	DD	00H
	DD	02H
	DD	FLAT:??_R2GetWeaponGoal_Evaluator@@8
rdata$r	ENDS
;	COMDAT ??_R0?AVGetWeaponGoal_Evaluator@@@8
data$r	SEGMENT
??_R0?AVGetWeaponGoal_Evaluator@@@8 DD FLAT:??_7type_info@@6B@ ; GetWeaponGoal_Evaluator `RTTI Type Descriptor'
	DD	00H
	DB	'.?AVGetWeaponGoal_Evaluator@@', 00H
data$r	ENDS
;	COMDAT ??_R4GetWeaponGoal_Evaluator@@6B@
rdata$r	SEGMENT
??_R4GetWeaponGoal_Evaluator@@6B@ DD 00H		; GetWeaponGoal_Evaluator::`RTTI Complete Object Locator'
	DD	00H
	DD	00H
	DD	FLAT:??_R0?AVGetWeaponGoal_Evaluator@@@8
	DD	FLAT:??_R3GetWeaponGoal_Evaluator@@8
rdata$r	ENDS
;	COMDAT ??_R1A@?0A@EA@Goal_AttackTarget@@8
rdata$r	SEGMENT
??_R1A@?0A@EA@Goal_AttackTarget@@8 DD FLAT:??_R0?AVGoal_AttackTarget@@@8 ; Goal_AttackTarget::`RTTI Base Class Descriptor at (0,-1,0,64)'
	DD	02H
	DD	00H
	DD	0ffffffffH
	DD	00H
	DD	040H
	DD	FLAT:??_R3Goal_AttackTarget@@8
rdata$r	ENDS
;	COMDAT ??_R2Goal_AttackTarget@@8
rdata$r	SEGMENT
??_R2Goal_AttackTarget@@8 DD FLAT:??_R1A@?0A@EA@Goal_AttackTarget@@8 ; Goal_AttackTarget::`RTTI Base Class Array'
	DD	FLAT:??_R1A@?0A@EA@?$Goal_Composite@VRaven_Bot@@@@8
	DD	FLAT:??_R1A@?0A@EA@?$Goal@VRaven_Bot@@@@8
rdata$r	ENDS
;	COMDAT ??_R3Goal_AttackTarget@@8
rdata$r	SEGMENT
??_R3Goal_AttackTarget@@8 DD 00H			; Goal_AttackTarget::`RTTI Class Hierarchy Descriptor'
	DD	00H
	DD	03H
	DD	FLAT:??_R2Goal_AttackTarget@@8
rdata$r	ENDS
;	COMDAT ??_R0?AVGoal_AttackTarget@@@8
data$r	SEGMENT
??_R0?AVGoal_AttackTarget@@@8 DD FLAT:??_7type_info@@6B@ ; Goal_AttackTarget `RTTI Type Descriptor'
	DD	00H
	DB	'.?AVGoal_AttackTarget@@', 00H
data$r	ENDS
;	COMDAT ??_R4Goal_AttackTarget@@6B@
rdata$r	SEGMENT
??_R4Goal_AttackTarget@@6B@ DD 00H			; Goal_AttackTarget::`RTTI Complete Object Locator'
	DD	00H
	DD	00H
	DD	FLAT:??_R0?AVGoal_AttackTarget@@@8
	DD	FLAT:??_R3Goal_AttackTarget@@8
rdata$r	ENDS
;	COMDAT ??_R1A@?0A@EA@Goal_GetItem@@8
rdata$r	SEGMENT
??_R1A@?0A@EA@Goal_GetItem@@8 DD FLAT:??_R0?AVGoal_GetItem@@@8 ; Goal_GetItem::`RTTI Base Class Descriptor at (0,-1,0,64)'
	DD	02H
	DD	00H
	DD	0ffffffffH
	DD	00H
	DD	040H
	DD	FLAT:??_R3Goal_GetItem@@8
rdata$r	ENDS
;	COMDAT ??_R2Goal_GetItem@@8
rdata$r	SEGMENT
??_R2Goal_GetItem@@8 DD FLAT:??_R1A@?0A@EA@Goal_GetItem@@8 ; Goal_GetItem::`RTTI Base Class Array'
	DD	FLAT:??_R1A@?0A@EA@?$Goal_Composite@VRaven_Bot@@@@8
	DD	FLAT:??_R1A@?0A@EA@?$Goal@VRaven_Bot@@@@8
rdata$r	ENDS
;	COMDAT ??_R3Goal_GetItem@@8
rdata$r	SEGMENT
??_R3Goal_GetItem@@8 DD 00H				; Goal_GetItem::`RTTI Class Hierarchy Descriptor'
	DD	00H
	DD	03H
	DD	FLAT:??_R2Goal_GetItem@@8
rdata$r	ENDS
;	COMDAT ??_R0?AVGoal_GetItem@@@8
data$r	SEGMENT
??_R0?AVGoal_GetItem@@@8 DD FLAT:??_7type_info@@6B@	; Goal_GetItem `RTTI Type Descriptor'
	DD	00H
	DB	'.?AVGoal_GetItem@@', 00H
data$r	ENDS
;	COMDAT ??_R4Goal_GetItem@@6B@
rdata$r	SEGMENT
??_R4Goal_GetItem@@6B@ DD 00H				; Goal_GetItem::`RTTI Complete Object Locator'
	DD	00H
	DD	00H
	DD	FLAT:??_R0?AVGoal_GetItem@@@8
	DD	FLAT:??_R3Goal_GetItem@@8
rdata$r	ENDS
;	COMDAT ??_R1A@?0A@EA@Goal_Explore@@8
rdata$r	SEGMENT
??_R1A@?0A@EA@Goal_Explore@@8 DD FLAT:??_R0?AVGoal_Explore@@@8 ; Goal_Explore::`RTTI Base Class Descriptor at (0,-1,0,64)'
	DD	02H
	DD	00H
	DD	0ffffffffH
	DD	00H
	DD	040H
	DD	FLAT:??_R3Goal_Explore@@8
rdata$r	ENDS
;	COMDAT ??_R2Goal_Explore@@8
rdata$r	SEGMENT
??_R2Goal_Explore@@8 DD FLAT:??_R1A@?0A@EA@Goal_Explore@@8 ; Goal_Explore::`RTTI Base Class Array'
	DD	FLAT:??_R1A@?0A@EA@?$Goal_Composite@VRaven_Bot@@@@8
	DD	FLAT:??_R1A@?0A@EA@?$Goal@VRaven_Bot@@@@8
rdata$r	ENDS
;	COMDAT ??_R3Goal_Explore@@8
rdata$r	SEGMENT
??_R3Goal_Explore@@8 DD 00H				; Goal_Explore::`RTTI Class Hierarchy Descriptor'
	DD	00H
	DD	03H
	DD	FLAT:??_R2Goal_Explore@@8
rdata$r	ENDS
;	COMDAT ??_R0?AVGoal_Explore@@@8
data$r	SEGMENT
??_R0?AVGoal_Explore@@@8 DD FLAT:??_7type_info@@6B@	; Goal_Explore `RTTI Type Descriptor'
	DD	00H
	DB	'.?AVGoal_Explore@@', 00H
data$r	ENDS
;	COMDAT ??_R4Goal_Explore@@6B@
rdata$r	SEGMENT
??_R4Goal_Explore@@6B@ DD 00H				; Goal_Explore::`RTTI Complete Object Locator'
	DD	00H
	DD	00H
	DD	FLAT:??_R0?AVGoal_Explore@@@8
	DD	FLAT:??_R3Goal_Explore@@8
rdata$r	ENDS
;	COMDAT ??_R1A@?0A@EA@Goal_MoveToPosition@@8
rdata$r	SEGMENT
??_R1A@?0A@EA@Goal_MoveToPosition@@8 DD FLAT:??_R0?AVGoal_MoveToPosition@@@8 ; Goal_MoveToPosition::`RTTI Base Class Descriptor at (0,-1,0,64)'
	DD	02H
	DD	00H
	DD	0ffffffffH
	DD	00H
	DD	040H
	DD	FLAT:??_R3Goal_MoveToPosition@@8
rdata$r	ENDS
;	COMDAT ??_R2Goal_MoveToPosition@@8
rdata$r	SEGMENT
??_R2Goal_MoveToPosition@@8 DD FLAT:??_R1A@?0A@EA@Goal_MoveToPosition@@8 ; Goal_MoveToPosition::`RTTI Base Class Array'
	DD	FLAT:??_R1A@?0A@EA@?$Goal_Composite@VRaven_Bot@@@@8
	DD	FLAT:??_R1A@?0A@EA@?$Goal@VRaven_Bot@@@@8
rdata$r	ENDS
;	COMDAT ??_R3Goal_MoveToPosition@@8
rdata$r	SEGMENT
??_R3Goal_MoveToPosition@@8 DD 00H			; Goal_MoveToPosition::`RTTI Class Hierarchy Descriptor'
	DD	00H
	DD	03H
	DD	FLAT:??_R2Goal_MoveToPosition@@8
rdata$r	ENDS
;	COMDAT ??_R0?AVGoal_MoveToPosition@@@8
data$r	SEGMENT
??_R0?AVGoal_MoveToPosition@@@8 DD FLAT:??_7type_info@@6B@ ; Goal_MoveToPosition `RTTI Type Descriptor'
	DD	00H
	DB	'.?AVGoal_MoveToPosition@@', 00H
data$r	ENDS
;	COMDAT ??_R4Goal_MoveToPosition@@6B@
rdata$r	SEGMENT
??_R4Goal_MoveToPosition@@6B@ DD 00H			; Goal_MoveToPosition::`RTTI Complete Object Locator'
	DD	00H
	DD	00H
	DD	FLAT:??_R0?AVGoal_MoveToPosition@@@8
	DD	FLAT:??_R3Goal_MoveToPosition@@8
rdata$r	ENDS
;	COMDAT ??_R4?$Goal@VRaven_Bot@@@@6B@
rdata$r	SEGMENT
??_R4?$Goal@VRaven_Bot@@@@6B@ DD 00H			; Goal<Raven_Bot>::`RTTI Complete Object Locator'
	DD	00H
	DD	00H
	DD	FLAT:??_R0?AV?$Goal@VRaven_Bot@@@@@8
	DD	FLAT:??_R3?$Goal@VRaven_Bot@@@@8
rdata$r	ENDS
;	COMDAT ??_R4?$Goal_Composite@VRaven_Bot@@@@6B@
rdata$r	SEGMENT
??_R4?$Goal_Composite@VRaven_Bot@@@@6B@ DD 00H		; Goal_Composite<Raven_Bot>::`RTTI Complete Object Locator'
	DD	00H
	DD	00H
	DD	FLAT:??_R0?AV?$Goal_Composite@VRaven_Bot@@@@@8
	DD	FLAT:??_R3?$Goal_Composite@VRaven_Bot@@@@8
rdata$r	ENDS
;	COMDAT ??_R1A@?0A@EA@Goal_Evaluator@@8
rdata$r	SEGMENT
??_R1A@?0A@EA@Goal_Evaluator@@8 DD FLAT:??_R0?AVGoal_Evaluator@@@8 ; Goal_Evaluator::`RTTI Base Class Descriptor at (0,-1,0,64)'
	DD	00H
	DD	00H
	DD	0ffffffffH
	DD	00H
	DD	040H
	DD	FLAT:??_R3Goal_Evaluator@@8
rdata$r	ENDS
;	COMDAT ??_R2Goal_Evaluator@@8
rdata$r	SEGMENT
??_R2Goal_Evaluator@@8 DD FLAT:??_R1A@?0A@EA@Goal_Evaluator@@8 ; Goal_Evaluator::`RTTI Base Class Array'
rdata$r	ENDS
;	COMDAT ??_R3Goal_Evaluator@@8
rdata$r	SEGMENT
??_R3Goal_Evaluator@@8 DD 00H				; Goal_Evaluator::`RTTI Class Hierarchy Descriptor'
	DD	00H
	DD	01H
	DD	FLAT:??_R2Goal_Evaluator@@8
rdata$r	ENDS
;	COMDAT ??_R0?AVGoal_Evaluator@@@8
data$r	SEGMENT
??_R0?AVGoal_Evaluator@@@8 DD FLAT:??_7type_info@@6B@	; Goal_Evaluator `RTTI Type Descriptor'
	DD	00H
	DB	'.?AVGoal_Evaluator@@', 00H
data$r	ENDS
;	COMDAT ??_R4Goal_Evaluator@@6B@
rdata$r	SEGMENT
??_R4Goal_Evaluator@@6B@ DD 00H				; Goal_Evaluator::`RTTI Complete Object Locator'
	DD	00H
	DD	00H
	DD	FLAT:??_R0?AVGoal_Evaluator@@@8
	DD	FLAT:??_R3Goal_Evaluator@@8
rdata$r	ENDS
;	COMDAT ??_R2?$Goal@VRaven_Bot@@@@8
rdata$r	SEGMENT
??_R2?$Goal@VRaven_Bot@@@@8 DD FLAT:??_R1A@?0A@EA@?$Goal@VRaven_Bot@@@@8 ; Goal<Raven_Bot>::`RTTI Base Class Array'
rdata$r	ENDS
;	COMDAT ??_R3?$Goal@VRaven_Bot@@@@8
rdata$r	SEGMENT
??_R3?$Goal@VRaven_Bot@@@@8 DD 00H			; Goal<Raven_Bot>::`RTTI Class Hierarchy Descriptor'
	DD	00H
	DD	01H
	DD	FLAT:??_R2?$Goal@VRaven_Bot@@@@8
rdata$r	ENDS
;	COMDAT ??_R0?AV?$Goal@VRaven_Bot@@@@@8
data$r	SEGMENT
??_R0?AV?$Goal@VRaven_Bot@@@@@8 DD FLAT:??_7type_info@@6B@ ; Goal<Raven_Bot> `RTTI Type Descriptor'
	DD	00H
	DB	'.?AV?$Goal@VRaven_Bot@@@@', 00H
data$r	ENDS
;	COMDAT ??_R1A@?0A@EA@?$Goal@VRaven_Bot@@@@8
rdata$r	SEGMENT
??_R1A@?0A@EA@?$Goal@VRaven_Bot@@@@8 DD FLAT:??_R0?AV?$Goal@VRaven_Bot@@@@@8 ; Goal<Raven_Bot>::`RTTI Base Class Descriptor at (0,-1,0,64)'
	DD	00H
	DD	00H
	DD	0ffffffffH
	DD	00H
	DD	040H
	DD	FLAT:??_R3?$Goal@VRaven_Bot@@@@8
rdata$r	ENDS
;	COMDAT ??_R2?$Goal_Composite@VRaven_Bot@@@@8
rdata$r	SEGMENT
??_R2?$Goal_Composite@VRaven_Bot@@@@8 DD FLAT:??_R1A@?0A@EA@?$Goal_Composite@VRaven_Bot@@@@8 ; Goal_Composite<Raven_Bot>::`RTTI Base Class Array'
	DD	FLAT:??_R1A@?0A@EA@?$Goal@VRaven_Bot@@@@8
rdata$r	ENDS
;	COMDAT ??_R3?$Goal_Composite@VRaven_Bot@@@@8
rdata$r	SEGMENT
??_R3?$Goal_Composite@VRaven_Bot@@@@8 DD 00H		; Goal_Composite<Raven_Bot>::`RTTI Class Hierarchy Descriptor'
	DD	00H
	DD	02H
	DD	FLAT:??_R2?$Goal_Composite@VRaven_Bot@@@@8
rdata$r	ENDS
;	COMDAT ??_R0?AV?$Goal_Composite@VRaven_Bot@@@@@8
data$r	SEGMENT
??_R0?AV?$Goal_Composite@VRaven_Bot@@@@@8 DD FLAT:??_7type_info@@6B@ ; Goal_Composite<Raven_Bot> `RTTI Type Descriptor'
	DD	00H
	DB	'.?AV?$Goal_Composite@VRaven_Bot@@@@', 00H
data$r	ENDS
;	COMDAT ??_R1A@?0A@EA@?$Goal_Composite@VRaven_Bot@@@@8
rdata$r	SEGMENT
??_R1A@?0A@EA@?$Goal_Composite@VRaven_Bot@@@@8 DD FLAT:??_R0?AV?$Goal_Composite@VRaven_Bot@@@@@8 ; Goal_Composite<Raven_Bot>::`RTTI Base Class Descriptor at (0,-1,0,64)'
	DD	01H
	DD	00H
	DD	0ffffffffH
	DD	00H
	DD	040H
	DD	FLAT:??_R3?$Goal_Composite@VRaven_Bot@@@@8
rdata$r	ENDS
;	COMDAT ??_R1A@?0A@EA@Goal_Think@@8
rdata$r	SEGMENT
??_R1A@?0A@EA@Goal_Think@@8 DD FLAT:??_R0?AVGoal_Think@@@8 ; Goal_Think::`RTTI Base Class Descriptor at (0,-1,0,64)'
	DD	02H
	DD	00H
	DD	0ffffffffH
	DD	00H
	DD	040H
	DD	FLAT:??_R3Goal_Think@@8
rdata$r	ENDS
;	COMDAT ??_R2Goal_Think@@8
rdata$r	SEGMENT
??_R2Goal_Think@@8 DD FLAT:??_R1A@?0A@EA@Goal_Think@@8	; Goal_Think::`RTTI Base Class Array'
	DD	FLAT:??_R1A@?0A@EA@?$Goal_Composite@VRaven_Bot@@@@8
	DD	FLAT:??_R1A@?0A@EA@?$Goal@VRaven_Bot@@@@8
rdata$r	ENDS
;	COMDAT ??_R3Goal_Think@@8
rdata$r	SEGMENT
??_R3Goal_Think@@8 DD 00H				; Goal_Think::`RTTI Class Hierarchy Descriptor'
	DD	00H
	DD	03H
	DD	FLAT:??_R2Goal_Think@@8
rdata$r	ENDS
;	COMDAT ??_R0?AVGoal_Think@@@8
data$r	SEGMENT
??_R0?AVGoal_Think@@@8 DD FLAT:??_7type_info@@6B@	; Goal_Think `RTTI Type Descriptor'
	DD	00H
	DB	'.?AVGoal_Think@@', 00H
data$r	ENDS
;	COMDAT ??_R4Goal_Think@@6B@
rdata$r	SEGMENT
??_R4Goal_Think@@6B@ DD 00H				; Goal_Think::`RTTI Complete Object Locator'
	DD	00H
	DD	00H
	DD	FLAT:??_R0?AVGoal_Think@@@8
	DD	FLAT:??_R3Goal_Think@@8
rdata$r	ENDS
;	COMDAT ??_R1A@?0A@EA@runtime_error@std@@8
rdata$r	SEGMENT
??_R1A@?0A@EA@runtime_error@std@@8 DD FLAT:??_R0?AVruntime_error@std@@@8 ; std::runtime_error::`RTTI Base Class Descriptor at (0,-1,0,64)'
	DD	01H
	DD	00H
	DD	0ffffffffH
	DD	00H
	DD	040H
	DD	FLAT:??_R3runtime_error@std@@8
rdata$r	ENDS
;	COMDAT ??_R2runtime_error@std@@8
rdata$r	SEGMENT
??_R2runtime_error@std@@8 DD FLAT:??_R1A@?0A@EA@runtime_error@std@@8 ; std::runtime_error::`RTTI Base Class Array'
	DD	FLAT:??_R1A@?0A@EA@exception@std@@8
rdata$r	ENDS
;	COMDAT ??_R3runtime_error@std@@8
rdata$r	SEGMENT
??_R3runtime_error@std@@8 DD 00H			; std::runtime_error::`RTTI Class Hierarchy Descriptor'
	DD	00H
	DD	02H
	DD	FLAT:??_R2runtime_error@std@@8
rdata$r	ENDS
;	COMDAT ??_R4runtime_error@std@@6B@
rdata$r	SEGMENT
??_R4runtime_error@std@@6B@ DD 00H			; std::runtime_error::`RTTI Complete Object Locator'
	DD	00H
	DD	00H
	DD	FLAT:??_R0?AVruntime_error@std@@@8
	DD	FLAT:??_R3runtime_error@std@@8
rdata$r	ENDS
;	COMDAT ??_R1A@?0A@EA@exception@std@@8
rdata$r	SEGMENT
??_R1A@?0A@EA@exception@std@@8 DD FLAT:??_R0?AVexception@std@@@8 ; std::exception::`RTTI Base Class Descriptor at (0,-1,0,64)'
	DD	00H
	DD	00H
	DD	0ffffffffH
	DD	00H
	DD	040H
	DD	FLAT:??_R3exception@std@@8
rdata$r	ENDS
;	COMDAT ??_R2exception@std@@8
rdata$r	SEGMENT
??_R2exception@std@@8 DD FLAT:??_R1A@?0A@EA@exception@std@@8 ; std::exception::`RTTI Base Class Array'
rdata$r	ENDS
;	COMDAT ??_R3exception@std@@8
rdata$r	SEGMENT
??_R3exception@std@@8 DD 00H				; std::exception::`RTTI Class Hierarchy Descriptor'
	DD	00H
	DD	01H
	DD	FLAT:??_R2exception@std@@8
rdata$r	ENDS
;	COMDAT ??_R4exception@std@@6B@
rdata$r	SEGMENT
??_R4exception@std@@6B@ DD 00H				; std::exception::`RTTI Complete Object Locator'
	DD	00H
	DD	00H
	DD	FLAT:??_R0?AVexception@std@@@8
	DD	FLAT:??_R3exception@std@@8
rdata$r	ENDS
;	COMDAT ??_C@_1EO@GFNCMDLA@?$AAs?$AAt?$AAd?$AA?3?$AA?3?$AA_?$AAA?$AAl?$AAl?$AAo?$AAc?$AAa?$AAt?$AAe?$AA_@
CONST	SEGMENT
??_C@_1EO@GFNCMDLA@?$AAs?$AAt?$AAd?$AA?3?$AA?3?$AA_?$AAA?$AAl?$AAl?$AAo?$AAc?$AAa?$AAt?$AAe?$AA_@ DB 's'
	DB	00H, 't', 00H, 'd', 00H, ':', 00H, ':', 00H, '_', 00H, 'A', 00H
	DB	'l', 00H, 'l', 00H, 'o', 00H, 'c', 00H, 'a', 00H, 't', 00H, 'e'
	DB	00H, '_', 00H, 'm', 00H, 'a', 00H, 'n', 00H, 'u', 00H, 'a', 00H
	DB	'l', 00H, 'l', 00H, 'y', 00H, '_', 00H, 'v', 00H, 'e', 00H, 'c'
	DB	00H, 't', 00H, 'o', 00H, 'r', 00H, '_', 00H, 'a', 00H, 'l', 00H
	DB	'i', 00H, 'g', 00H, 'n', 00H, 'e', 00H, 'd', 00H, 00H, 00H ; `string'
CONST	ENDS
;	COMDAT ??_C@_1EI@FHIDKIBN@?$AA?$CC?$AAl?$AAi?$AAs?$AAt?$AA?5?$AAe?$AAr?$AAa?$AAs?$AAe?$AA?5?$AAi?$AAt?$AAe@
CONST	SEGMENT
??_C@_1EI@FHIDKIBN@?$AA?$CC?$AAl?$AAi?$AAs?$AAt?$AA?5?$AAe?$AAr?$AAa?$AAs?$AAe?$AA?5?$AAi?$AAt?$AAe@ DB '"'
	DB	00H, 'l', 00H, 'i', 00H, 's', 00H, 't', 00H, ' ', 00H, 'e', 00H
	DB	'r', 00H, 'a', 00H, 's', 00H, 'e', 00H, ' ', 00H, 'i', 00H, 't'
	DB	00H, 'e', 00H, 'r', 00H, 'a', 00H, 't', 00H, 'o', 00H, 'r', 00H
	DB	' ', 00H, 'o', 00H, 'u', 00H, 't', 00H, 's', 00H, 'i', 00H, 'd'
	DB	00H, 'e', 00H, ' ', 00H, 'r', 00H, 'a', 00H, 'n', 00H, 'g', 00H
	DB	'e', 00H, '"', 00H, 00H, 00H			; `string'
CONST	ENDS
;	COMDAT ??_C@_1NG@CFOJKHE@?$AAs?$AAt?$AAd?$AA?3?$AA?3?$AAl?$AAi?$AAs?$AAt?$AA?$DM?$AAc?$AAl?$AAa?$AAs?$AAs@
CONST	SEGMENT
??_C@_1NG@CFOJKHE@?$AAs?$AAt?$AAd?$AA?3?$AA?3?$AAl?$AAi?$AAs?$AAt?$AA?$DM?$AAc?$AAl?$AAa?$AAs?$AAs@ DB 's'
	DB	00H, 't', 00H, 'd', 00H, ':', 00H, ':', 00H, 'l', 00H, 'i', 00H
	DB	's', 00H, 't', 00H, '<', 00H, 'c', 00H, 'l', 00H, 'a', 00H, 's'
	DB	00H, 's', 00H, ' ', 00H, 'G', 00H, 'o', 00H, 'a', 00H, 'l', 00H
	DB	'<', 00H, 'c', 00H, 'l', 00H, 'a', 00H, 's', 00H, 's', 00H, ' '
	DB	00H, 'R', 00H, 'a', 00H, 'v', 00H, 'e', 00H, 'n', 00H, '_', 00H
	DB	'B', 00H, 'o', 00H, 't', 00H, '>', 00H, ' ', 00H, '*', 00H, ','
	DB	00H, 'c', 00H, 'l', 00H, 'a', 00H, 's', 00H, 's', 00H, ' ', 00H
	DB	's', 00H, 't', 00H, 'd', 00H, ':', 00H, ':', 00H, 'a', 00H, 'l'
	DB	00H, 'l', 00H, 'o', 00H, 'c', 00H, 'a', 00H, 't', 00H, 'o', 00H
	DB	'r', 00H, '<', 00H, 'c', 00H, 'l', 00H, 'a', 00H, 's', 00H, 's'
	DB	00H, ' ', 00H, 'G', 00H, 'o', 00H, 'a', 00H, 'l', 00H, '<', 00H
	DB	'c', 00H, 'l', 00H, 'a', 00H, 's', 00H, 's', 00H, ' ', 00H, 'R'
	DB	00H, 'a', 00H, 'v', 00H, 'e', 00H, 'n', 00H, '_', 00H, 'B', 00H
	DB	'o', 00H, 't', 00H, '>', 00H, ' ', 00H, '*', 00H, '>', 00H, ' '
	DB	00H, '>', 00H, ':', 00H, ':', 00H, '_', 00H, 'U', 00H, 'n', 00H
	DB	'l', 00H, 'i', 00H, 'n', 00H, 'k', 00H, 'n', 00H, 'o', 00H, 'd'
	DB	00H, 'e', 00H, 00H, 00H			; `string'
CONST	ENDS
;	COMDAT ??_C@_0CC@KEJJOMBH@list?5erase?5iterator?5outside?5ran@
CONST	SEGMENT
??_C@_0CC@KEJJOMBH@list?5erase?5iterator?5outside?5ran@ DB 'list erase it'
	DB	'erator outside range', 00H			; `string'
CONST	ENDS
;	COMDAT ??_C@_1EO@PPPLIDNC@?$AA?$CC?$AAc?$AAa?$AAn?$AAn?$AAo?$AAt?$AA?5?$AAd?$AAe?$AAc?$AAr?$AAe?$AAm?$AAe@
CONST	SEGMENT
??_C@_1EO@PPPLIDNC@?$AA?$CC?$AAc?$AAa?$AAn?$AAn?$AAo?$AAt?$AA?5?$AAd?$AAe?$AAc?$AAr?$AAe?$AAm?$AAe@ DB '"'
	DB	00H, 'c', 00H, 'a', 00H, 'n', 00H, 'n', 00H, 'o', 00H, 't', 00H
	DB	' ', 00H, 'd', 00H, 'e', 00H, 'c', 00H, 'r', 00H, 'e', 00H, 'm'
	DB	00H, 'e', 00H, 'n', 00H, 't', 00H, ' ', 00H, 'b', 00H, 'e', 00H
	DB	'g', 00H, 'i', 00H, 'n', 00H, ' ', 00H, 'l', 00H, 'i', 00H, 's'
	DB	00H, 't', 00H, ' ', 00H, 'i', 00H, 't', 00H, 'e', 00H, 'r', 00H
	DB	'a', 00H, 't', 00H, 'o', 00H, 'r', 00H, '"', 00H, 00H, 00H ; `string'
CONST	ENDS
;	COMDAT ??_C@_0CF@BAAFPBMN@cannot?5decrement?5begin?5list?5ite@
CONST	SEGMENT
??_C@_0CF@BAAFPBMN@cannot?5decrement?5begin?5list?5ite@ DB 'cannot decrem'
	DB	'ent begin list iterator', 00H		; `string'
CONST	ENDS
;	COMDAT ??_C@_1GG@FLDKPFOH@?$AA?$CC?$AAc?$AAa?$AAn?$AAn?$AAo?$AAt?$AA?5?$AAd?$AAe?$AAc?$AAr?$AAe?$AAm?$AAe@
CONST	SEGMENT
??_C@_1GG@FLDKPFOH@?$AA?$CC?$AAc?$AAa?$AAn?$AAn?$AAo?$AAt?$AA?5?$AAd?$AAe?$AAc?$AAr?$AAe?$AAm?$AAe@ DB '"'
	DB	00H, 'c', 00H, 'a', 00H, 'n', 00H, 'n', 00H, 'o', 00H, 't', 00H
	DB	' ', 00H, 'd', 00H, 'e', 00H, 'c', 00H, 'r', 00H, 'e', 00H, 'm'
	DB	00H, 'e', 00H, 'n', 00H, 't', 00H, ' ', 00H, 'v', 00H, 'a', 00H
	DB	'l', 00H, 'u', 00H, 'e', 00H, '-', 00H, 'i', 00H, 'n', 00H, 'i'
	DB	00H, 't', 00H, 'i', 00H, 'a', 00H, 'l', 00H, 'i', 00H, 'z', 00H
	DB	'e', 00H, 'd', 00H, ' ', 00H, 'l', 00H, 'i', 00H, 's', 00H, 't'
	DB	00H, ' ', 00H, 'i', 00H, 't', 00H, 'e', 00H, 'r', 00H, 'a', 00H
	DB	't', 00H, 'o', 00H, 'r', 00H, '"', 00H, 00H, 00H ; `string'
CONST	ENDS
;	COMDAT ??_C@_1PM@IFAGIBOF@?$AAs?$AAt?$AAd?$AA?3?$AA?3?$AA_?$AAL?$AAi?$AAs?$AAt?$AA_?$AAc?$AAo?$AAn?$AAs@
CONST	SEGMENT
??_C@_1PM@IFAGIBOF@?$AAs?$AAt?$AAd?$AA?3?$AA?3?$AA_?$AAL?$AAi?$AAs?$AAt?$AA_?$AAc?$AAo?$AAn?$AAs@ DB 's'
	DB	00H, 't', 00H, 'd', 00H, ':', 00H, ':', 00H, '_', 00H, 'L', 00H
	DB	'i', 00H, 's', 00H, 't', 00H, '_', 00H, 'c', 00H, 'o', 00H, 'n'
	DB	00H, 's', 00H, 't', 00H, '_', 00H, 'i', 00H, 't', 00H, 'e', 00H
	DB	'r', 00H, 'a', 00H, 't', 00H, 'o', 00H, 'r', 00H, '<', 00H, 'c'
	DB	00H, 'l', 00H, 'a', 00H, 's', 00H, 's', 00H, ' ', 00H, 's', 00H
	DB	't', 00H, 'd', 00H, ':', 00H, ':', 00H, '_', 00H, 'L', 00H, 'i'
	DB	00H, 's', 00H, 't', 00H, '_', 00H, 'v', 00H, 'a', 00H, 'l', 00H
	DB	'<', 00H, 's', 00H, 't', 00H, 'r', 00H, 'u', 00H, 'c', 00H, 't'
	DB	00H, ' ', 00H, 's', 00H, 't', 00H, 'd', 00H, ':', 00H, ':', 00H
	DB	'_', 00H, 'L', 00H, 'i', 00H, 's', 00H, 't', 00H, '_', 00H, 's'
	DB	00H, 'i', 00H, 'm', 00H, 'p', 00H, 'l', 00H, 'e', 00H, '_', 00H
	DB	't', 00H, 'y', 00H, 'p', 00H, 'e', 00H, 's', 00H, '<', 00H, 'c'
	DB	00H, 'l', 00H, 'a', 00H, 's', 00H, 's', 00H, ' ', 00H, 'G', 00H
	DB	'o', 00H, 'a', 00H, 'l', 00H, '<', 00H, 'c', 00H, 'l', 00H, 'a'
	DB	00H, 's', 00H, 's', 00H, ' ', 00H, 'R', 00H, 'a', 00H, 'v', 00H
	DB	'e', 00H, 'n', 00H, '_', 00H, 'B', 00H, 'o', 00H, 't', 00H, '>'
	DB	00H, ' ', 00H, '*', 00H, '>', 00H, ' ', 00H, '>', 00H, ' ', 00H
	DB	'>', 00H, ':', 00H, ':', 00H, 'o', 00H, 'p', 00H, 'e', 00H, 'r'
	DB	00H, 'a', 00H, 't', 00H, 'o', 00H, 'r', 00H, ' ', 00H, '-', 00H
	DB	'-', 00H, 00H, 00H				; `string'
CONST	ENDS
;	COMDAT ??_C@_0DB@MCPEHPCC@cannot?5decrement?5value?9initiali@
CONST	SEGMENT
??_C@_0DB@MCPEHPCC@cannot?5decrement?5value?9initiali@ DB 'cannot decreme'
	DB	'nt value-initialized list iterator', 00H	; `string'
CONST	ENDS
;	COMDAT ??_C@_0BB@MOGOBHAF@list?$DMT?$DO?5too?5long@
CONST	SEGMENT
??_C@_0BB@MOGOBHAF@list?$DMT?$DO?5too?5long@ DB 'list<T> too long', 00H ; `string'
CONST	ENDS
;	COMDAT ??_C@_0BD@OLBABOEK@vector?$DMT?$DO?5too?5long@
CONST	SEGMENT
??_C@_0BD@OLBABOEK@vector?$DMT?$DO?5too?5long@ DB 'vector<T> too long', 00H ; `string'
CONST	ENDS
;	COMDAT ??_C@_1EA@DJDGNIII@?$AA?$CC?$AAv?$AAe?$AAc?$AAt?$AAo?$AAr?$AA?5?$AAi?$AAt?$AAe?$AAr?$AAa?$AAt?$AAo@
CONST	SEGMENT
??_C@_1EA@DJDGNIII@?$AA?$CC?$AAv?$AAe?$AAc?$AAt?$AAo?$AAr?$AA?5?$AAi?$AAt?$AAe?$AAr?$AAa?$AAt?$AAo@ DB '"'
	DB	00H, 'v', 00H, 'e', 00H, 'c', 00H, 't', 00H, 'o', 00H, 'r', 00H
	DB	' ', 00H, 'i', 00H, 't', 00H, 'e', 00H, 'r', 00H, 'a', 00H, 't'
	DB	00H, 'o', 00H, 'r', 00H, 's', 00H, ' ', 00H, 'i', 00H, 'n', 00H
	DB	'c', 00H, 'o', 00H, 'm', 00H, 'p', 00H, 'a', 00H, 't', 00H, 'i'
	DB	00H, 'b', 00H, 'l', 00H, 'e', 00H, '"', 00H, 00H, 00H ; `string'
CONST	ENDS
;	COMDAT ??_C@_1OE@CHECBPNH@?$AAs?$AAt?$AAd?$AA?3?$AA?3?$AA_?$AAV?$AAe?$AAc?$AAt?$AAo?$AAr?$AA_?$AAc?$AAo@
CONST	SEGMENT
??_C@_1OE@CHECBPNH@?$AAs?$AAt?$AAd?$AA?3?$AA?3?$AA_?$AAV?$AAe?$AAc?$AAt?$AAo?$AAr?$AA_?$AAc?$AAo@ DB 's'
	DB	00H, 't', 00H, 'd', 00H, ':', 00H, ':', 00H, '_', 00H, 'V', 00H
	DB	'e', 00H, 'c', 00H, 't', 00H, 'o', 00H, 'r', 00H, '_', 00H, 'c'
	DB	00H, 'o', 00H, 'n', 00H, 's', 00H, 't', 00H, '_', 00H, 'i', 00H
	DB	't', 00H, 'e', 00H, 'r', 00H, 'a', 00H, 't', 00H, 'o', 00H, 'r'
	DB	00H, '<', 00H, 'c', 00H, 'l', 00H, 'a', 00H, 's', 00H, 's', 00H
	DB	' ', 00H, 's', 00H, 't', 00H, 'd', 00H, ':', 00H, ':', 00H, '_'
	DB	00H, 'V', 00H, 'e', 00H, 'c', 00H, 't', 00H, 'o', 00H, 'r', 00H
	DB	'_', 00H, 'v', 00H, 'a', 00H, 'l', 00H, '<', 00H, 's', 00H, 't'
	DB	00H, 'r', 00H, 'u', 00H, 'c', 00H, 't', 00H, ' ', 00H, 's', 00H
	DB	't', 00H, 'd', 00H, ':', 00H, ':', 00H, '_', 00H, 'S', 00H, 'i'
	DB	00H, 'm', 00H, 'p', 00H, 'l', 00H, 'e', 00H, '_', 00H, 't', 00H
	DB	'y', 00H, 'p', 00H, 'e', 00H, 's', 00H, '<', 00H, 'c', 00H, 'l'
	DB	00H, 'a', 00H, 's', 00H, 's', 00H, ' ', 00H, 'G', 00H, 'o', 00H
	DB	'a', 00H, 'l', 00H, '_', 00H, 'E', 00H, 'v', 00H, 'a', 00H, 'l'
	DB	00H, 'u', 00H, 'a', 00H, 't', 00H, 'o', 00H, 'r', 00H, ' ', 00H
	DB	'*', 00H, '>', 00H, ' ', 00H, '>', 00H, ' ', 00H, '>', 00H, ':'
	DB	00H, ':', 00H, '_', 00H, 'C', 00H, 'o', 00H, 'm', 00H, 'p', 00H
	DB	'a', 00H, 't', 00H, 00H, 00H			; `string'
CONST	ENDS
;	COMDAT ??_C@_0BO@CAOBBIOC@vector?5iterators?5incompatible@
CONST	SEGMENT
??_C@_0BO@CAOBBIOC@vector?5iterators?5incompatible@ DB 'vector iterators '
	DB	'incompatible', 00H				; `string'
CONST	ENDS
;	COMDAT ??_C@_1EO@CNEFBDCF@?$AA?$CC?$AAc?$AAa?$AAn?$AAn?$AAo?$AAt?$AA?5?$AAd?$AAe?$AAr?$AAe?$AAf?$AAe?$AAr@
CONST	SEGMENT
??_C@_1EO@CNEFBDCF@?$AA?$CC?$AAc?$AAa?$AAn?$AAn?$AAo?$AAt?$AA?5?$AAd?$AAe?$AAr?$AAe?$AAf?$AAe?$AAr@ DB '"'
	DB	00H, 'c', 00H, 'a', 00H, 'n', 00H, 'n', 00H, 'o', 00H, 't', 00H
	DB	' ', 00H, 'd', 00H, 'e', 00H, 'r', 00H, 'e', 00H, 'f', 00H, 'e'
	DB	00H, 'r', 00H, 'e', 00H, 'n', 00H, 'c', 00H, 'e', 00H, ' ', 00H
	DB	'e', 00H, 'n', 00H, 'd', 00H, ' ', 00H, 'l', 00H, 'i', 00H, 's'
	DB	00H, 't', 00H, ' ', 00H, 'i', 00H, 't', 00H, 'e', 00H, 'r', 00H
	DB	'a', 00H, 't', 00H, 'o', 00H, 'r', 00H, '"', 00H, 00H, 00H ; `string'
CONST	ENDS
;	COMDAT ??_C@_0CF@JCBFHMPL@cannot?5dereference?5end?5list?5ite@
CONST	SEGMENT
??_C@_0CF@JCBFHMPL@cannot?5dereference?5end?5list?5ite@ DB 'cannot derefe'
	DB	'rence end list iterator', 00H		; `string'
CONST	ENDS
;	COMDAT ??_C@_1GK@NKIMOCIG@?$AA?$CC?$AAc?$AAa?$AAn?$AAn?$AAo?$AAt?$AA?5?$AAd?$AAe?$AAr?$AAe?$AAf?$AAe?$AAr@
CONST	SEGMENT
??_C@_1GK@NKIMOCIG@?$AA?$CC?$AAc?$AAa?$AAn?$AAn?$AAo?$AAt?$AA?5?$AAd?$AAe?$AAr?$AAe?$AAf?$AAe?$AAr@ DB '"'
	DB	00H, 'c', 00H, 'a', 00H, 'n', 00H, 'n', 00H, 'o', 00H, 't', 00H
	DB	' ', 00H, 'd', 00H, 'e', 00H, 'r', 00H, 'e', 00H, 'f', 00H, 'e'
	DB	00H, 'r', 00H, 'e', 00H, 'n', 00H, 'c', 00H, 'e', 00H, ' ', 00H
	DB	'v', 00H, 'a', 00H, 'l', 00H, 'u', 00H, 'e', 00H, '-', 00H, 'i'
	DB	00H, 'n', 00H, 'i', 00H, 't', 00H, 'i', 00H, 'a', 00H, 'l', 00H
	DB	'i', 00H, 'z', 00H, 'e', 00H, 'd', 00H, ' ', 00H, 'l', 00H, 'i'
	DB	00H, 's', 00H, 't', 00H, ' ', 00H, 'i', 00H, 't', 00H, 'e', 00H
	DB	'r', 00H, 'a', 00H, 't', 00H, 'o', 00H, 'r', 00H, '"', 00H, 00H
	DB	00H						; `string'
CONST	ENDS
;	COMDAT ??_C@_1PK@KKMOJEL@?$AAs?$AAt?$AAd?$AA?3?$AA?3?$AA_?$AAL?$AAi?$AAs?$AAt?$AA_?$AAc?$AAo?$AAn?$AAs@
CONST	SEGMENT
??_C@_1PK@KKMOJEL@?$AAs?$AAt?$AAd?$AA?3?$AA?3?$AA_?$AAL?$AAi?$AAs?$AAt?$AA_?$AAc?$AAo?$AAn?$AAs@ DB 's'
	DB	00H, 't', 00H, 'd', 00H, ':', 00H, ':', 00H, '_', 00H, 'L', 00H
	DB	'i', 00H, 's', 00H, 't', 00H, '_', 00H, 'c', 00H, 'o', 00H, 'n'
	DB	00H, 's', 00H, 't', 00H, '_', 00H, 'i', 00H, 't', 00H, 'e', 00H
	DB	'r', 00H, 'a', 00H, 't', 00H, 'o', 00H, 'r', 00H, '<', 00H, 'c'
	DB	00H, 'l', 00H, 'a', 00H, 's', 00H, 's', 00H, ' ', 00H, 's', 00H
	DB	't', 00H, 'd', 00H, ':', 00H, ':', 00H, '_', 00H, 'L', 00H, 'i'
	DB	00H, 's', 00H, 't', 00H, '_', 00H, 'v', 00H, 'a', 00H, 'l', 00H
	DB	'<', 00H, 's', 00H, 't', 00H, 'r', 00H, 'u', 00H, 'c', 00H, 't'
	DB	00H, ' ', 00H, 's', 00H, 't', 00H, 'd', 00H, ':', 00H, ':', 00H
	DB	'_', 00H, 'L', 00H, 'i', 00H, 's', 00H, 't', 00H, '_', 00H, 's'
	DB	00H, 'i', 00H, 'm', 00H, 'p', 00H, 'l', 00H, 'e', 00H, '_', 00H
	DB	't', 00H, 'y', 00H, 'p', 00H, 'e', 00H, 's', 00H, '<', 00H, 'c'
	DB	00H, 'l', 00H, 'a', 00H, 's', 00H, 's', 00H, ' ', 00H, 'G', 00H
	DB	'o', 00H, 'a', 00H, 'l', 00H, '<', 00H, 'c', 00H, 'l', 00H, 'a'
	DB	00H, 's', 00H, 's', 00H, ' ', 00H, 'R', 00H, 'a', 00H, 'v', 00H
	DB	'e', 00H, 'n', 00H, '_', 00H, 'B', 00H, 'o', 00H, 't', 00H, '>'
	DB	00H, ' ', 00H, '*', 00H, '>', 00H, ' ', 00H, '>', 00H, ' ', 00H
	DB	'>', 00H, ':', 00H, ':', 00H, 'o', 00H, 'p', 00H, 'e', 00H, 'r'
	DB	00H, 'a', 00H, 't', 00H, 'o', 00H, 'r', 00H, ' ', 00H, '*', 00H
	DB	00H, 00H					; `string'
CONST	ENDS
;	COMDAT ??_C@_0DD@MBIHGLJE@cannot?5dereference?5value?9initia@
CONST	SEGMENT
??_C@_0DD@MBIHGLJE@cannot?5dereference?5value?9initia@ DB 'cannot derefer'
	DB	'ence value-initialized list iterator', 00H	; `string'
CONST	ENDS
;	COMDAT ??_C@_1EK@OKKCFDJN@?$AA?$CC?$AAc?$AAa?$AAn?$AAn?$AAo?$AAt?$AA?5?$AAi?$AAn?$AAc?$AAr?$AAe?$AAm?$AAe@
CONST	SEGMENT
??_C@_1EK@OKKCFDJN@?$AA?$CC?$AAc?$AAa?$AAn?$AAn?$AAo?$AAt?$AA?5?$AAi?$AAn?$AAc?$AAr?$AAe?$AAm?$AAe@ DB '"'
	DB	00H, 'c', 00H, 'a', 00H, 'n', 00H, 'n', 00H, 'o', 00H, 't', 00H
	DB	' ', 00H, 'i', 00H, 'n', 00H, 'c', 00H, 'r', 00H, 'e', 00H, 'm'
	DB	00H, 'e', 00H, 'n', 00H, 't', 00H, ' ', 00H, 'e', 00H, 'n', 00H
	DB	'd', 00H, ' ', 00H, 'l', 00H, 'i', 00H, 's', 00H, 't', 00H, ' '
	DB	00H, 'i', 00H, 't', 00H, 'e', 00H, 'r', 00H, 'a', 00H, 't', 00H
	DB	'o', 00H, 'r', 00H, '"', 00H, 00H, 00H	; `string'
CONST	ENDS
;	COMDAT ??_C@_0CD@PMFMCEG@cannot?5increment?5end?5list?5itera@
CONST	SEGMENT
??_C@_0CD@PMFMCEG@cannot?5increment?5end?5list?5itera@ DB 'cannot increme'
	DB	'nt end list iterator', 00H			; `string'
CONST	ENDS
;	COMDAT ??_C@_1GG@JLMAGPNK@?$AA?$CC?$AAc?$AAa?$AAn?$AAn?$AAo?$AAt?$AA?5?$AAi?$AAn?$AAc?$AAr?$AAe?$AAm?$AAe@
CONST	SEGMENT
??_C@_1GG@JLMAGPNK@?$AA?$CC?$AAc?$AAa?$AAn?$AAn?$AAo?$AAt?$AA?5?$AAi?$AAn?$AAc?$AAr?$AAe?$AAm?$AAe@ DB '"'
	DB	00H, 'c', 00H, 'a', 00H, 'n', 00H, 'n', 00H, 'o', 00H, 't', 00H
	DB	' ', 00H, 'i', 00H, 'n', 00H, 'c', 00H, 'r', 00H, 'e', 00H, 'm'
	DB	00H, 'e', 00H, 'n', 00H, 't', 00H, ' ', 00H, 'v', 00H, 'a', 00H
	DB	'l', 00H, 'u', 00H, 'e', 00H, '-', 00H, 'i', 00H, 'n', 00H, 'i'
	DB	00H, 't', 00H, 'i', 00H, 'a', 00H, 'l', 00H, 'i', 00H, 'z', 00H
	DB	'e', 00H, 'd', 00H, ' ', 00H, 'l', 00H, 'i', 00H, 's', 00H, 't'
	DB	00H, ' ', 00H, 'i', 00H, 't', 00H, 'e', 00H, 'r', 00H, 'a', 00H
	DB	't', 00H, 'o', 00H, 'r', 00H, '"', 00H, 00H, 00H ; `string'
CONST	ENDS
;	COMDAT ??_C@_1PM@HGDEDNCE@?$AAs?$AAt?$AAd?$AA?3?$AA?3?$AA_?$AAL?$AAi?$AAs?$AAt?$AA_?$AAc?$AAo?$AAn?$AAs@
CONST	SEGMENT
??_C@_1PM@HGDEDNCE@?$AAs?$AAt?$AAd?$AA?3?$AA?3?$AA_?$AAL?$AAi?$AAs?$AAt?$AA_?$AAc?$AAo?$AAn?$AAs@ DB 's'
	DB	00H, 't', 00H, 'd', 00H, ':', 00H, ':', 00H, '_', 00H, 'L', 00H
	DB	'i', 00H, 's', 00H, 't', 00H, '_', 00H, 'c', 00H, 'o', 00H, 'n'
	DB	00H, 's', 00H, 't', 00H, '_', 00H, 'i', 00H, 't', 00H, 'e', 00H
	DB	'r', 00H, 'a', 00H, 't', 00H, 'o', 00H, 'r', 00H, '<', 00H, 'c'
	DB	00H, 'l', 00H, 'a', 00H, 's', 00H, 's', 00H, ' ', 00H, 's', 00H
	DB	't', 00H, 'd', 00H, ':', 00H, ':', 00H, '_', 00H, 'L', 00H, 'i'
	DB	00H, 's', 00H, 't', 00H, '_', 00H, 'v', 00H, 'a', 00H, 'l', 00H
	DB	'<', 00H, 's', 00H, 't', 00H, 'r', 00H, 'u', 00H, 'c', 00H, 't'
	DB	00H, ' ', 00H, 's', 00H, 't', 00H, 'd', 00H, ':', 00H, ':', 00H
	DB	'_', 00H, 'L', 00H, 'i', 00H, 's', 00H, 't', 00H, '_', 00H, 's'
	DB	00H, 'i', 00H, 'm', 00H, 'p', 00H, 'l', 00H, 'e', 00H, '_', 00H
	DB	't', 00H, 'y', 00H, 'p', 00H, 'e', 00H, 's', 00H, '<', 00H, 'c'
	DB	00H, 'l', 00H, 'a', 00H, 's', 00H, 's', 00H, ' ', 00H, 'G', 00H
	DB	'o', 00H, 'a', 00H, 'l', 00H, '<', 00H, 'c', 00H, 'l', 00H, 'a'
	DB	00H, 's', 00H, 's', 00H, ' ', 00H, 'R', 00H, 'a', 00H, 'v', 00H
	DB	'e', 00H, 'n', 00H, '_', 00H, 'B', 00H, 'o', 00H, 't', 00H, '>'
	DB	00H, ' ', 00H, '*', 00H, '>', 00H, ' ', 00H, '>', 00H, ' ', 00H
	DB	'>', 00H, ':', 00H, ':', 00H, 'o', 00H, 'p', 00H, 'e', 00H, 'r'
	DB	00H, 'a', 00H, 't', 00H, 'o', 00H, 'r', 00H, ' ', 00H, '+', 00H
	DB	'+', 00H, 00H, 00H				; `string'
CONST	ENDS
;	COMDAT ??_C@_0DB@ENBCPNKO@cannot?5increment?5value?9initiali@
CONST	SEGMENT
??_C@_0DB@ENBCPNKO@cannot?5increment?5value?9initiali@ DB 'cannot increme'
	DB	'nt value-initialized list iterator', 00H	; `string'
CONST	ENDS
;	COMDAT ??_C@_1DM@KDLJAKOP@?$AA?$CC?$AAl?$AAi?$AAs?$AAt?$AA?5?$AAi?$AAt?$AAe?$AAr?$AAa?$AAt?$AAo?$AAr?$AAs@
CONST	SEGMENT
??_C@_1DM@KDLJAKOP@?$AA?$CC?$AAl?$AAi?$AAs?$AAt?$AA?5?$AAi?$AAt?$AAe?$AAr?$AAa?$AAt?$AAo?$AAr?$AAs@ DB '"'
	DB	00H, 'l', 00H, 'i', 00H, 's', 00H, 't', 00H, ' ', 00H, 'i', 00H
	DB	't', 00H, 'e', 00H, 'r', 00H, 'a', 00H, 't', 00H, 'o', 00H, 'r'
	DB	00H, 's', 00H, ' ', 00H, 'i', 00H, 'n', 00H, 'c', 00H, 'o', 00H
	DB	'm', 00H, 'p', 00H, 'a', 00H, 't', 00H, 'i', 00H, 'b', 00H, 'l'
	DB	00H, 'e', 00H, '"', 00H, 00H, 00H		; `string'
CONST	ENDS
;	COMDAT ??_C@_1PM@NGMJNEOB@?$AAs?$AAt?$AAd?$AA?3?$AA?3?$AA_?$AAL?$AAi?$AAs?$AAt?$AA_?$AAc?$AAo?$AAn?$AAs@
CONST	SEGMENT
??_C@_1PM@NGMJNEOB@?$AAs?$AAt?$AAd?$AA?3?$AA?3?$AA_?$AAL?$AAi?$AAs?$AAt?$AA_?$AAc?$AAo?$AAn?$AAs@ DB 's'
	DB	00H, 't', 00H, 'd', 00H, ':', 00H, ':', 00H, '_', 00H, 'L', 00H
	DB	'i', 00H, 's', 00H, 't', 00H, '_', 00H, 'c', 00H, 'o', 00H, 'n'
	DB	00H, 's', 00H, 't', 00H, '_', 00H, 'i', 00H, 't', 00H, 'e', 00H
	DB	'r', 00H, 'a', 00H, 't', 00H, 'o', 00H, 'r', 00H, '<', 00H, 'c'
	DB	00H, 'l', 00H, 'a', 00H, 's', 00H, 's', 00H, ' ', 00H, 's', 00H
	DB	't', 00H, 'd', 00H, ':', 00H, ':', 00H, '_', 00H, 'L', 00H, 'i'
	DB	00H, 's', 00H, 't', 00H, '_', 00H, 'v', 00H, 'a', 00H, 'l', 00H
	DB	'<', 00H, 's', 00H, 't', 00H, 'r', 00H, 'u', 00H, 'c', 00H, 't'
	DB	00H, ' ', 00H, 's', 00H, 't', 00H, 'd', 00H, ':', 00H, ':', 00H
	DB	'_', 00H, 'L', 00H, 'i', 00H, 's', 00H, 't', 00H, '_', 00H, 's'
	DB	00H, 'i', 00H, 'm', 00H, 'p', 00H, 'l', 00H, 'e', 00H, '_', 00H
	DB	't', 00H, 'y', 00H, 'p', 00H, 'e', 00H, 's', 00H, '<', 00H, 'c'
	DB	00H, 'l', 00H, 'a', 00H, 's', 00H, 's', 00H, ' ', 00H, 'G', 00H
	DB	'o', 00H, 'a', 00H, 'l', 00H, '<', 00H, 'c', 00H, 'l', 00H, 'a'
	DB	00H, 's', 00H, 's', 00H, ' ', 00H, 'R', 00H, 'a', 00H, 'v', 00H
	DB	'e', 00H, 'n', 00H, '_', 00H, 'B', 00H, 'o', 00H, 't', 00H, '>'
	DB	00H, ' ', 00H, '*', 00H, '>', 00H, ' ', 00H, '>', 00H, ' ', 00H
	DB	'>', 00H, ':', 00H, ':', 00H, 'o', 00H, 'p', 00H, 'e', 00H, 'r'
	DB	00H, 'a', 00H, 't', 00H, 'o', 00H, 'r', 00H, ' ', 00H, '=', 00H
	DB	'=', 00H, 00H, 00H				; `string'
CONST	ENDS
;	COMDAT ??_C@_1MK@MDLCPFJD@?$AAc?$AA?3?$AA?2?$AAp?$AAr?$AAo?$AAg?$AAr?$AAa?$AAm?$AA?5?$AAf?$AAi?$AAl?$AAe@
CONST	SEGMENT
??_C@_1MK@MDLCPFJD@?$AAc?$AA?3?$AA?2?$AAp?$AAr?$AAo?$AAg?$AAr?$AAa?$AAm?$AA?5?$AAf?$AAi?$AAl?$AAe@ DB 'c'
	DB	00H, ':', 00H, '\', 00H, 'p', 00H, 'r', 00H, 'o', 00H, 'g', 00H
	DB	'r', 00H, 'a', 00H, 'm', 00H, ' ', 00H, 'f', 00H, 'i', 00H, 'l'
	DB	00H, 'e', 00H, 's', 00H, ' ', 00H, '(', 00H, 'x', 00H, '8', 00H
	DB	'6', 00H, ')', 00H, '\', 00H, 'm', 00H, 'i', 00H, 'c', 00H, 'r'
	DB	00H, 'o', 00H, 's', 00H, 'o', 00H, 'f', 00H, 't', 00H, ' ', 00H
	DB	'v', 00H, 'i', 00H, 's', 00H, 'u', 00H, 'a', 00H, 'l', 00H, ' '
	DB	00H, 's', 00H, 't', 00H, 'u', 00H, 'd', 00H, 'i', 00H, 'o', 00H
	DB	'\', 00H, '2', 00H, '0', 00H, '1', 00H, '7', 00H, '\', 00H, 'c'
	DB	00H, 'o', 00H, 'm', 00H, 'm', 00H, 'u', 00H, 'n', 00H, 'i', 00H
	DB	't', 00H, 'y', 00H, '\', 00H, 'v', 00H, 'c', 00H, '\', 00H, 't'
	DB	00H, 'o', 00H, 'o', 00H, 'l', 00H, 's', 00H, '\', 00H, 'm', 00H
	DB	's', 00H, 'v', 00H, 'c', 00H, '\', 00H, '1', 00H, '4', 00H, '.'
	DB	00H, '1', 00H, '5', 00H, '.', 00H, '2', 00H, '6', 00H, '7', 00H
	DB	'2', 00H, '6', 00H, '\', 00H, 'i', 00H, 'n', 00H, 'c', 00H, 'l'
	DB	00H, 'u', 00H, 'd', 00H, 'e', 00H, '\', 00H, 'l', 00H, 'i', 00H
	DB	's', 00H, 't', 00H, 00H, 00H			; `string'
CONST	ENDS
;	COMDAT ??_C@_0GF@CDIONFB@c?3?2program?5files?5?$CIx86?$CJ?2microsof@
CONST	SEGMENT
??_C@_0GF@CDIONFB@c?3?2program?5files?5?$CIx86?$CJ?2microsof@ DB 'c:\prog'
	DB	'ram files (x86)\microsoft visual studio\2017\community\vc\too'
	DB	'ls\msvc\14.15.26726\include\list', 00H	; `string'
CONST	ENDS
;	COMDAT ??_C@_0BM@BALDKKHE@list?5iterators?5incompatible@
CONST	SEGMENT
??_C@_0BM@BALDKKHE@list?5iterators?5incompatible@ DB 'list iterators inco'
	DB	'mpatible', 00H				; `string'
CONST	ENDS
;	COMDAT ??_C@_0CB@OHIHCHGJ@Cannot?5add?5goals?5to?5atomic?5goal@
CONST	SEGMENT
??_C@_0CB@OHIHCHGJ@Cannot?5add?5goals?5to?5atomic?5goal@ DB 'Cannot add g'
	DB	'oals to atomic goals', 00H			; `string'
CONST	ENDS
;	COMDAT ??_C@_1GC@JDCKOLAC@?$AA?$CC?$AAc?$AAa?$AAn?$AA?8?$AAt?$AA?5?$AAd?$AAe?$AAr?$AAe?$AAf?$AAe?$AAr?$AAe@
CONST	SEGMENT
??_C@_1GC@JDCKOLAC@?$AA?$CC?$AAc?$AAa?$AAn?$AA?8?$AAt?$AA?5?$AAd?$AAe?$AAr?$AAe?$AAf?$AAe?$AAr?$AAe@ DB '"'
	DB	00H, 'c', 00H, 'a', 00H, 'n', 00H, '''', 00H, 't', 00H, ' ', 00H
	DB	'd', 00H, 'e', 00H, 'r', 00H, 'e', 00H, 'f', 00H, 'e', 00H, 'r'
	DB	00H, 'e', 00H, 'n', 00H, 'c', 00H, 'e', 00H, ' ', 00H, 'o', 00H
	DB	'u', 00H, 't', 00H, ' ', 00H, 'o', 00H, 'f', 00H, ' ', 00H, 'r'
	DB	00H, 'a', 00H, 'n', 00H, 'g', 00H, 'e', 00H, ' ', 00H, 'v', 00H
	DB	'e', 00H, 'c', 00H, 't', 00H, 'o', 00H, 'r', 00H, ' ', 00H, 'i'
	DB	00H, 't', 00H, 'e', 00H, 'r', 00H, 'a', 00H, 't', 00H, 'o', 00H
	DB	'r', 00H, '"', 00H, 00H, 00H			; `string'
CONST	ENDS
;	COMDAT ??_C@_0CP@MDHADBHN@can?8t?5dereference?5out?5of?5range?5@
CONST	SEGMENT
??_C@_0CP@MDHADBHN@can?8t?5dereference?5out?5of?5range?5@ DB 'can''t dere'
	DB	'ference out of range vector iterator', 00H	; `string'
CONST	ENDS
;	COMDAT ??_C@_1GM@FNBFNBEL@?$AA?$CC?$AAc?$AAa?$AAn?$AA?8?$AAt?$AA?5?$AAd?$AAe?$AAr?$AAe?$AAf?$AAe?$AAr?$AAe@
CONST	SEGMENT
??_C@_1GM@FNBFNBEL@?$AA?$CC?$AAc?$AAa?$AAn?$AA?8?$AAt?$AA?5?$AAd?$AAe?$AAr?$AAe?$AAf?$AAe?$AAr?$AAe@ DB '"'
	DB	00H, 'c', 00H, 'a', 00H, 'n', 00H, '''', 00H, 't', 00H, ' ', 00H
	DB	'd', 00H, 'e', 00H, 'r', 00H, 'e', 00H, 'f', 00H, 'e', 00H, 'r'
	DB	00H, 'e', 00H, 'n', 00H, 'c', 00H, 'e', 00H, ' ', 00H, 'v', 00H
	DB	'a', 00H, 'l', 00H, 'u', 00H, 'e', 00H, '-', 00H, 'i', 00H, 'n'
	DB	00H, 'i', 00H, 't', 00H, 'i', 00H, 'a', 00H, 'l', 00H, 'i', 00H
	DB	'z', 00H, 'e', 00H, 'd', 00H, ' ', 00H, 'v', 00H, 'e', 00H, 'c'
	DB	00H, 't', 00H, 'o', 00H, 'r', 00H, ' ', 00H, 'i', 00H, 't', 00H
	DB	'e', 00H, 'r', 00H, 'a', 00H, 't', 00H, 'o', 00H, 'r', 00H, '"'
	DB	00H, 00H, 00H				; `string'
CONST	ENDS
;	COMDAT ??_C@_1OK@HJDJPPDC@?$AAs?$AAt?$AAd?$AA?3?$AA?3?$AA_?$AAV?$AAe?$AAc?$AAt?$AAo?$AAr?$AA_?$AAc?$AAo@
CONST	SEGMENT
??_C@_1OK@HJDJPPDC@?$AAs?$AAt?$AAd?$AA?3?$AA?3?$AA_?$AAV?$AAe?$AAc?$AAt?$AAo?$AAr?$AA_?$AAc?$AAo@ DB 's'
	DB	00H, 't', 00H, 'd', 00H, ':', 00H, ':', 00H, '_', 00H, 'V', 00H
	DB	'e', 00H, 'c', 00H, 't', 00H, 'o', 00H, 'r', 00H, '_', 00H, 'c'
	DB	00H, 'o', 00H, 'n', 00H, 's', 00H, 't', 00H, '_', 00H, 'i', 00H
	DB	't', 00H, 'e', 00H, 'r', 00H, 'a', 00H, 't', 00H, 'o', 00H, 'r'
	DB	00H, '<', 00H, 'c', 00H, 'l', 00H, 'a', 00H, 's', 00H, 's', 00H
	DB	' ', 00H, 's', 00H, 't', 00H, 'd', 00H, ':', 00H, ':', 00H, '_'
	DB	00H, 'V', 00H, 'e', 00H, 'c', 00H, 't', 00H, 'o', 00H, 'r', 00H
	DB	'_', 00H, 'v', 00H, 'a', 00H, 'l', 00H, '<', 00H, 's', 00H, 't'
	DB	00H, 'r', 00H, 'u', 00H, 'c', 00H, 't', 00H, ' ', 00H, 's', 00H
	DB	't', 00H, 'd', 00H, ':', 00H, ':', 00H, '_', 00H, 'S', 00H, 'i'
	DB	00H, 'm', 00H, 'p', 00H, 'l', 00H, 'e', 00H, '_', 00H, 't', 00H
	DB	'y', 00H, 'p', 00H, 'e', 00H, 's', 00H, '<', 00H, 'c', 00H, 'l'
	DB	00H, 'a', 00H, 's', 00H, 's', 00H, ' ', 00H, 'G', 00H, 'o', 00H
	DB	'a', 00H, 'l', 00H, '_', 00H, 'E', 00H, 'v', 00H, 'a', 00H, 'l'
	DB	00H, 'u', 00H, 'a', 00H, 't', 00H, 'o', 00H, 'r', 00H, ' ', 00H
	DB	'*', 00H, '>', 00H, ' ', 00H, '>', 00H, ' ', 00H, '>', 00H, ':'
	DB	00H, ':', 00H, 'o', 00H, 'p', 00H, 'e', 00H, 'r', 00H, 'a', 00H
	DB	't', 00H, 'o', 00H, 'r', 00H, ' ', 00H, '*', 00H, 00H, 00H ; `string'
CONST	ENDS
;	COMDAT ??_C@_0DE@CHADHGFF@can?8t?5dereference?5value?9initial@
CONST	SEGMENT
??_C@_0DE@CHADHGFF@can?8t?5dereference?5value?9initial@ DB 'can''t derefe'
	DB	'rence value-initialized vector iterator', 00H ; `string'
CONST	ENDS
;	COMDAT ??_C@_1FG@LDPPKMGP@?$AA?$CC?$AAc?$AAa?$AAn?$AA?8?$AAt?$AA?5?$AAi?$AAn?$AAc?$AAr?$AAe?$AAm?$AAe?$AAn@
CONST	SEGMENT
??_C@_1FG@LDPPKMGP@?$AA?$CC?$AAc?$AAa?$AAn?$AA?8?$AAt?$AA?5?$AAi?$AAn?$AAc?$AAr?$AAe?$AAm?$AAe?$AAn@ DB '"'
	DB	00H, 'c', 00H, 'a', 00H, 'n', 00H, '''', 00H, 't', 00H, ' ', 00H
	DB	'i', 00H, 'n', 00H, 'c', 00H, 'r', 00H, 'e', 00H, 'm', 00H, 'e'
	DB	00H, 'n', 00H, 't', 00H, ' ', 00H, 'v', 00H, 'e', 00H, 'c', 00H
	DB	't', 00H, 'o', 00H, 'r', 00H, ' ', 00H, 'i', 00H, 't', 00H, 'e'
	DB	00H, 'r', 00H, 'a', 00H, 't', 00H, 'o', 00H, 'r', 00H, ' ', 00H
	DB	'p', 00H, 'a', 00H, 's', 00H, 't', 00H, ' ', 00H, 'e', 00H, 'n'
	DB	00H, 'd', 00H, '"', 00H, 00H, 00H		; `string'
CONST	ENDS
;	COMDAT ??_C@_0CJ@OAAAAGPM@can?8t?5increment?5vector?5iterator@
CONST	SEGMENT
??_C@_0CJ@OAAAAGPM@can?8t?5increment?5vector?5iterator@ DB 'can''t increm'
	DB	'ent vector iterator past end', 00H		; `string'
CONST	ENDS
;	COMDAT ??_C@_1GI@EDCILPL@?$AA?$CC?$AAc?$AAa?$AAn?$AA?8?$AAt?$AA?5?$AAi?$AAn?$AAc?$AAr?$AAe?$AAm?$AAe?$AAn@
CONST	SEGMENT
??_C@_1GI@EDCILPL@?$AA?$CC?$AAc?$AAa?$AAn?$AA?8?$AAt?$AA?5?$AAi?$AAn?$AAc?$AAr?$AAe?$AAm?$AAe?$AAn@ DB '"'
	DB	00H, 'c', 00H, 'a', 00H, 'n', 00H, '''', 00H, 't', 00H, ' ', 00H
	DB	'i', 00H, 'n', 00H, 'c', 00H, 'r', 00H, 'e', 00H, 'm', 00H, 'e'
	DB	00H, 'n', 00H, 't', 00H, ' ', 00H, 'v', 00H, 'a', 00H, 'l', 00H
	DB	'u', 00H, 'e', 00H, '-', 00H, 'i', 00H, 'n', 00H, 'i', 00H, 't'
	DB	00H, 'i', 00H, 'a', 00H, 'l', 00H, 'i', 00H, 'z', 00H, 'e', 00H
	DB	'd', 00H, ' ', 00H, 'v', 00H, 'e', 00H, 'c', 00H, 't', 00H, 'o'
	DB	00H, 'r', 00H, ' ', 00H, 'i', 00H, 't', 00H, 'e', 00H, 'r', 00H
	DB	'a', 00H, 't', 00H, 'o', 00H, 'r', 00H, '"', 00H, 00H, 00H ; `string'
CONST	ENDS
;	COMDAT ??_C@_1OM@HMBNDJFP@?$AAs?$AAt?$AAd?$AA?3?$AA?3?$AA_?$AAV?$AAe?$AAc?$AAt?$AAo?$AAr?$AA_?$AAc?$AAo@
CONST	SEGMENT
??_C@_1OM@HMBNDJFP@?$AAs?$AAt?$AAd?$AA?3?$AA?3?$AA_?$AAV?$AAe?$AAc?$AAt?$AAo?$AAr?$AA_?$AAc?$AAo@ DB 's'
	DB	00H, 't', 00H, 'd', 00H, ':', 00H, ':', 00H, '_', 00H, 'V', 00H
	DB	'e', 00H, 'c', 00H, 't', 00H, 'o', 00H, 'r', 00H, '_', 00H, 'c'
	DB	00H, 'o', 00H, 'n', 00H, 's', 00H, 't', 00H, '_', 00H, 'i', 00H
	DB	't', 00H, 'e', 00H, 'r', 00H, 'a', 00H, 't', 00H, 'o', 00H, 'r'
	DB	00H, '<', 00H, 'c', 00H, 'l', 00H, 'a', 00H, 's', 00H, 's', 00H
	DB	' ', 00H, 's', 00H, 't', 00H, 'd', 00H, ':', 00H, ':', 00H, '_'
	DB	00H, 'V', 00H, 'e', 00H, 'c', 00H, 't', 00H, 'o', 00H, 'r', 00H
	DB	'_', 00H, 'v', 00H, 'a', 00H, 'l', 00H, '<', 00H, 's', 00H, 't'
	DB	00H, 'r', 00H, 'u', 00H, 'c', 00H, 't', 00H, ' ', 00H, 's', 00H
	DB	't', 00H, 'd', 00H, ':', 00H, ':', 00H, '_', 00H, 'S', 00H, 'i'
	DB	00H, 'm', 00H, 'p', 00H, 'l', 00H, 'e', 00H, '_', 00H, 't', 00H
	DB	'y', 00H, 'p', 00H, 'e', 00H, 's', 00H, '<', 00H, 'c', 00H, 'l'
	DB	00H, 'a', 00H, 's', 00H, 's', 00H, ' ', 00H, 'G', 00H, 'o', 00H
	DB	'a', 00H, 'l', 00H, '_', 00H, 'E', 00H, 'v', 00H, 'a', 00H, 'l'
	DB	00H, 'u', 00H, 'a', 00H, 't', 00H, 'o', 00H, 'r', 00H, ' ', 00H
	DB	'*', 00H, '>', 00H, ' ', 00H, '>', 00H, ' ', 00H, '>', 00H, ':'
	DB	00H, ':', 00H, 'o', 00H, 'p', 00H, 'e', 00H, 'r', 00H, 'a', 00H
	DB	't', 00H, 'o', 00H, 'r', 00H, ' ', 00H, '+', 00H, '+', 00H, 00H
	DB	00H						; `string'
CONST	ENDS
;	COMDAT ??_C@_1MO@GGNBFPEH@?$AAc?$AA?3?$AA?2?$AAp?$AAr?$AAo?$AAg?$AAr?$AAa?$AAm?$AA?5?$AAf?$AAi?$AAl?$AAe@
CONST	SEGMENT
??_C@_1MO@GGNBFPEH@?$AAc?$AA?3?$AA?2?$AAp?$AAr?$AAo?$AAg?$AAr?$AAa?$AAm?$AA?5?$AAf?$AAi?$AAl?$AAe@ DB 'c'
	DB	00H, ':', 00H, '\', 00H, 'p', 00H, 'r', 00H, 'o', 00H, 'g', 00H
	DB	'r', 00H, 'a', 00H, 'm', 00H, ' ', 00H, 'f', 00H, 'i', 00H, 'l'
	DB	00H, 'e', 00H, 's', 00H, ' ', 00H, '(', 00H, 'x', 00H, '8', 00H
	DB	'6', 00H, ')', 00H, '\', 00H, 'm', 00H, 'i', 00H, 'c', 00H, 'r'
	DB	00H, 'o', 00H, 's', 00H, 'o', 00H, 'f', 00H, 't', 00H, ' ', 00H
	DB	'v', 00H, 'i', 00H, 's', 00H, 'u', 00H, 'a', 00H, 'l', 00H, ' '
	DB	00H, 's', 00H, 't', 00H, 'u', 00H, 'd', 00H, 'i', 00H, 'o', 00H
	DB	'\', 00H, '2', 00H, '0', 00H, '1', 00H, '7', 00H, '\', 00H, 'c'
	DB	00H, 'o', 00H, 'm', 00H, 'm', 00H, 'u', 00H, 'n', 00H, 'i', 00H
	DB	't', 00H, 'y', 00H, '\', 00H, 'v', 00H, 'c', 00H, '\', 00H, 't'
	DB	00H, 'o', 00H, 'o', 00H, 'l', 00H, 's', 00H, '\', 00H, 'm', 00H
	DB	's', 00H, 'v', 00H, 'c', 00H, '\', 00H, '1', 00H, '4', 00H, '.'
	DB	00H, '1', 00H, '5', 00H, '.', 00H, '2', 00H, '6', 00H, '7', 00H
	DB	'2', 00H, '6', 00H, '\', 00H, 'i', 00H, 'n', 00H, 'c', 00H, 'l'
	DB	00H, 'u', 00H, 'd', 00H, 'e', 00H, '\', 00H, 'v', 00H, 'e', 00H
	DB	'c', 00H, 't', 00H, 'o', 00H, 'r', 00H, 00H, 00H ; `string'
CONST	ENDS
;	COMDAT ??_C@_0GH@PHBFPDPI@c?3?2program?5files?5?$CIx86?$CJ?2microsof@
CONST	SEGMENT
??_C@_0GH@PHBFPDPI@c?3?2program?5files?5?$CIx86?$CJ?2microsof@ DB 'c:\pro'
	DB	'gram files (x86)\microsoft visual studio\2017\community\vc\to'
	DB	'ols\msvc\14.15.26726\include\vector', 00H	; `string'
CONST	ENDS
;	COMDAT ??_C@_0DC@KEKNBAEB@can?8t?5increment?5value?9initializ@
CONST	SEGMENT
??_C@_0DC@KEKNBAEB@can?8t?5increment?5value?9initializ@ DB 'can''t increm'
	DB	'ent value-initialized vector iterator', 00H	; `string'
CONST	ENDS
;	COMDAT ??_7AttackTargetGoal_Evaluator@@6B@
CONST	SEGMENT
??_7AttackTargetGoal_Evaluator@@6B@ DD FLAT:??_R4AttackTargetGoal_Evaluator@@6B@ ; AttackTargetGoal_Evaluator::`vftable'
	DD	FLAT:??_EAttackTargetGoal_Evaluator@@UAEPAXI@Z
	DD	FLAT:?CalculateDesirability@AttackTargetGoal_Evaluator@@UAENPAVRaven_Bot@@@Z
	DD	FLAT:?SetGoal@AttackTargetGoal_Evaluator@@UAEXPAVRaven_Bot@@@Z
	DD	FLAT:?RenderInfo@AttackTargetGoal_Evaluator@@UAEXUVector2D@@PAVRaven_Bot@@@Z
CONST	ENDS
;	COMDAT ??_7ExploreGoal_Evaluator@@6B@
CONST	SEGMENT
??_7ExploreGoal_Evaluator@@6B@ DD FLAT:??_R4ExploreGoal_Evaluator@@6B@ ; ExploreGoal_Evaluator::`vftable'
	DD	FLAT:??_EExploreGoal_Evaluator@@UAEPAXI@Z
	DD	FLAT:?CalculateDesirability@ExploreGoal_Evaluator@@UAENPAVRaven_Bot@@@Z
	DD	FLAT:?SetGoal@ExploreGoal_Evaluator@@UAEXPAVRaven_Bot@@@Z
	DD	FLAT:?RenderInfo@ExploreGoal_Evaluator@@UAEXUVector2D@@PAVRaven_Bot@@@Z
CONST	ENDS
;	COMDAT ??_7GetHealthGoal_Evaluator@@6B@
CONST	SEGMENT
??_7GetHealthGoal_Evaluator@@6B@ DD FLAT:??_R4GetHealthGoal_Evaluator@@6B@ ; GetHealthGoal_Evaluator::`vftable'
	DD	FLAT:??_EGetHealthGoal_Evaluator@@UAEPAXI@Z
	DD	FLAT:?CalculateDesirability@GetHealthGoal_Evaluator@@UAENPAVRaven_Bot@@@Z
	DD	FLAT:?SetGoal@GetHealthGoal_Evaluator@@UAEXPAVRaven_Bot@@@Z
	DD	FLAT:?RenderInfo@GetHealthGoal_Evaluator@@UAEXUVector2D@@PAVRaven_Bot@@@Z
CONST	ENDS
;	COMDAT ??_7GetWeaponGoal_Evaluator@@6B@
CONST	SEGMENT
??_7GetWeaponGoal_Evaluator@@6B@ DD FLAT:??_R4GetWeaponGoal_Evaluator@@6B@ ; GetWeaponGoal_Evaluator::`vftable'
	DD	FLAT:??_EGetWeaponGoal_Evaluator@@UAEPAXI@Z
	DD	FLAT:?CalculateDesirability@GetWeaponGoal_Evaluator@@UAENPAVRaven_Bot@@@Z
	DD	FLAT:?SetGoal@GetWeaponGoal_Evaluator@@UAEXPAVRaven_Bot@@@Z
	DD	FLAT:?RenderInfo@GetWeaponGoal_Evaluator@@UAEXUVector2D@@PAVRaven_Bot@@@Z
CONST	ENDS
;	COMDAT ??_7Goal_AttackTarget@@6B@
CONST	SEGMENT
??_7Goal_AttackTarget@@6B@ DD FLAT:??_R4Goal_AttackTarget@@6B@ ; Goal_AttackTarget::`vftable'
	DD	FLAT:??_EGoal_AttackTarget@@UAEPAXI@Z
	DD	FLAT:?Activate@Goal_AttackTarget@@UAEXXZ
	DD	FLAT:?Process@Goal_AttackTarget@@UAEHXZ
	DD	FLAT:?Terminate@Goal_AttackTarget@@UAEXXZ
	DD	FLAT:?HandleMessage@?$Goal_Composite@VRaven_Bot@@@@UAE_NABUTelegram@@@Z
	DD	FLAT:?AddSubgoal@?$Goal_Composite@VRaven_Bot@@@@UAEXPAV?$Goal@VRaven_Bot@@@@@Z
	DD	FLAT:?RenderAtPos@?$Goal_Composite@VRaven_Bot@@@@UBEXAAUVector2D@@PAVTypeToString@@@Z
	DD	FLAT:?Render@?$Goal_Composite@VRaven_Bot@@@@UAEXXZ
CONST	ENDS
;	COMDAT ??_7Goal_GetItem@@6B@
CONST	SEGMENT
??_7Goal_GetItem@@6B@ DD FLAT:??_R4Goal_GetItem@@6B@	; Goal_GetItem::`vftable'
	DD	FLAT:??_EGoal_GetItem@@UAEPAXI@Z
	DD	FLAT:?Activate@Goal_GetItem@@UAEXXZ
	DD	FLAT:?Process@Goal_GetItem@@UAEHXZ
	DD	FLAT:?Terminate@Goal_GetItem@@UAEXXZ
	DD	FLAT:?HandleMessage@Goal_GetItem@@UAE_NABUTelegram@@@Z
	DD	FLAT:?AddSubgoal@?$Goal_Composite@VRaven_Bot@@@@UAEXPAV?$Goal@VRaven_Bot@@@@@Z
	DD	FLAT:?RenderAtPos@?$Goal_Composite@VRaven_Bot@@@@UBEXAAUVector2D@@PAVTypeToString@@@Z
	DD	FLAT:?Render@?$Goal_Composite@VRaven_Bot@@@@UAEXXZ
CONST	ENDS
;	COMDAT ??_7Goal_Explore@@6B@
CONST	SEGMENT
??_7Goal_Explore@@6B@ DD FLAT:??_R4Goal_Explore@@6B@	; Goal_Explore::`vftable'
	DD	FLAT:??_EGoal_Explore@@UAEPAXI@Z
	DD	FLAT:?Activate@Goal_Explore@@UAEXXZ
	DD	FLAT:?Process@Goal_Explore@@UAEHXZ
	DD	FLAT:?Terminate@Goal_Explore@@UAEXXZ
	DD	FLAT:?HandleMessage@Goal_Explore@@UAE_NABUTelegram@@@Z
	DD	FLAT:?AddSubgoal@?$Goal_Composite@VRaven_Bot@@@@UAEXPAV?$Goal@VRaven_Bot@@@@@Z
	DD	FLAT:?RenderAtPos@?$Goal_Composite@VRaven_Bot@@@@UBEXAAUVector2D@@PAVTypeToString@@@Z
	DD	FLAT:?Render@?$Goal_Composite@VRaven_Bot@@@@UAEXXZ
CONST	ENDS
;	COMDAT ??_7Goal_MoveToPosition@@6B@
CONST	SEGMENT
??_7Goal_MoveToPosition@@6B@ DD FLAT:??_R4Goal_MoveToPosition@@6B@ ; Goal_MoveToPosition::`vftable'
	DD	FLAT:??_EGoal_MoveToPosition@@UAEPAXI@Z
	DD	FLAT:?Activate@Goal_MoveToPosition@@UAEXXZ
	DD	FLAT:?Process@Goal_MoveToPosition@@UAEHXZ
	DD	FLAT:?Terminate@Goal_MoveToPosition@@UAEXXZ
	DD	FLAT:?HandleMessage@Goal_MoveToPosition@@UAE_NABUTelegram@@@Z
	DD	FLAT:?AddSubgoal@?$Goal_Composite@VRaven_Bot@@@@UAEXPAV?$Goal@VRaven_Bot@@@@@Z
	DD	FLAT:?RenderAtPos@?$Goal_Composite@VRaven_Bot@@@@UBEXAAUVector2D@@PAVTypeToString@@@Z
	DD	FLAT:?Render@Goal_MoveToPosition@@UAEXXZ
CONST	ENDS
;	COMDAT ??_7Goal_Think@@6B@
CONST	SEGMENT
??_7Goal_Think@@6B@ DD FLAT:??_R4Goal_Think@@6B@	; Goal_Think::`vftable'
	DD	FLAT:??_EGoal_Think@@UAEPAXI@Z
	DD	FLAT:?Activate@Goal_Think@@UAEXXZ
	DD	FLAT:?Process@Goal_Think@@UAEHXZ
	DD	FLAT:?Terminate@Goal_Think@@UAEXXZ
	DD	FLAT:?HandleMessage@?$Goal_Composite@VRaven_Bot@@@@UAE_NABUTelegram@@@Z
	DD	FLAT:?AddSubgoal@?$Goal_Composite@VRaven_Bot@@@@UAEXPAV?$Goal@VRaven_Bot@@@@@Z
	DD	FLAT:?RenderAtPos@?$Goal_Composite@VRaven_Bot@@@@UBEXAAUVector2D@@PAVTypeToString@@@Z
	DD	FLAT:?Render@Goal_Think@@UAEXXZ
CONST	ENDS
;	COMDAT ??_7?$Goal_Composite@VRaven_Bot@@@@6B@
CONST	SEGMENT
??_7?$Goal_Composite@VRaven_Bot@@@@6B@ DD FLAT:??_R4?$Goal_Composite@VRaven_Bot@@@@6B@ ; Goal_Composite<Raven_Bot>::`vftable'
	DD	FLAT:??_E?$Goal_Composite@VRaven_Bot@@@@UAEPAXI@Z
	DD	FLAT:__purecall
	DD	FLAT:__purecall
	DD	FLAT:__purecall
	DD	FLAT:?HandleMessage@?$Goal_Composite@VRaven_Bot@@@@UAE_NABUTelegram@@@Z
	DD	FLAT:?AddSubgoal@?$Goal_Composite@VRaven_Bot@@@@UAEXPAV?$Goal@VRaven_Bot@@@@@Z
	DD	FLAT:?RenderAtPos@?$Goal_Composite@VRaven_Bot@@@@UBEXAAUVector2D@@PAVTypeToString@@@Z
	DD	FLAT:?Render@?$Goal_Composite@VRaven_Bot@@@@UAEXXZ
CONST	ENDS
;	COMDAT ??_7?$Goal@VRaven_Bot@@@@6B@
CONST	SEGMENT
??_7?$Goal@VRaven_Bot@@@@6B@ DD FLAT:??_R4?$Goal@VRaven_Bot@@@@6B@ ; Goal<Raven_Bot>::`vftable'
	DD	FLAT:??_E?$Goal@VRaven_Bot@@@@UAEPAXI@Z
	DD	FLAT:__purecall
	DD	FLAT:__purecall
	DD	FLAT:__purecall
	DD	FLAT:?HandleMessage@?$Goal@VRaven_Bot@@@@UAE_NABUTelegram@@@Z
	DD	FLAT:?AddSubgoal@?$Goal@VRaven_Bot@@@@UAEXPAV1@@Z
	DD	FLAT:?RenderAtPos@?$Goal@VRaven_Bot@@@@UBEXAAUVector2D@@PAVTypeToString@@@Z
	DD	FLAT:?Render@?$Goal@VRaven_Bot@@@@UAEXXZ
CONST	ENDS
;	COMDAT ??_7Goal_Evaluator@@6B@
CONST	SEGMENT
??_7Goal_Evaluator@@6B@ DD FLAT:??_R4Goal_Evaluator@@6B@ ; Goal_Evaluator::`vftable'
	DD	FLAT:??_EGoal_Evaluator@@UAEPAXI@Z
	DD	FLAT:__purecall
	DD	FLAT:__purecall
	DD	FLAT:__purecall
CONST	ENDS
;	COMDAT ??_C@_1CE@HKBOKGMG@?$AAc?$AAo?$AAl?$AAo?$AAr?$AA?5?$AA?$DM?$AA?5?$AAN?$AAu?$AAm?$AAC?$AAo?$AAl?$AAo@
CONST	SEGMENT
??_C@_1CE@HKBOKGMG@?$AAc?$AAo?$AAl?$AAo?$AAr?$AA?5?$AA?$DM?$AA?5?$AAN?$AAu?$AAm?$AAC?$AAo?$AAl?$AAo@ DB 'c'
	DB	00H, 'o', 00H, 'l', 00H, 'o', 00H, 'r', 00H, ' ', 00H, '<', 00H
	DB	' ', 00H, 'N', 00H, 'u', 00H, 'm', 00H, 'C', 00H, 'o', 00H, 'l'
	DB	00H, 'o', 00H, 'r', 00H, 's', 00H, 00H, 00H	; `string'
CONST	ENDS
;	COMDAT ??_C@_1KI@KNIJANCK@?$AAc?$AA?3?$AA?2?$AAu?$AAs?$AAe?$AAr?$AAs?$AA?2?$AAu?$AAt?$AAi?$AAl?$AAi?$AAs@
CONST	SEGMENT
??_C@_1KI@KNIJANCK@?$AAc?$AA?3?$AA?2?$AAu?$AAs?$AAe?$AAr?$AAs?$AA?2?$AAu?$AAt?$AAi?$AAl?$AAi?$AAs@ DB 'c'
	DB	00H, ':', 00H, '\', 00H, 'u', 00H, 's', 00H, 'e', 00H, 'r', 00H
	DB	's', 00H, '\', 00H, 'u', 00H, 't', 00H, 'i', 00H, 'l', 00H, 'i'
	DB	00H, 's', 00H, 'a', 00H, 't', 00H, 'e', 00H, 'u', 00H, 'r', 00H
	DB	'\', 00H, 'd', 00H, 'o', 00H, 'c', 00H, 'u', 00H, 'm', 00H, 'e'
	DB	00H, 'n', 00H, 't', 00H, 's', 00H, '\', 00H, 'g', 00H, 'i', 00H
	DB	't', 00H, 'h', 00H, 'u', 00H, 'b', 00H, '\', 00H, '8', 00H, 'i'
	DB	00H, 'a', 00H, 'r', 00H, '1', 00H, '2', 00H, '5', 00H, '-', 00H
	DB	'p', 00H, 'r', 00H, 'o', 00H, 'j', 00H, 'e', 00H, 't', 00H, 'r'
	DB	00H, 'a', 00H, 'v', 00H, 'e', 00H, 'n', 00H, '\', 00H, 'v', 00H
	DB	's', 00H, '2', 00H, '0', 00H, '1', 00H, '5', 00H, '\', 00H, 'c'
	DB	00H, 'o', 00H, 'm', 00H, 'm', 00H, 'o', 00H, 'n', 00H, '\', 00H
	DB	'm', 00H, 'i', 00H, 's', 00H, 'c', 00H, '\', 00H, 'c', 00H, 'g'
	DB	00H, 'd', 00H, 'i', 00H, '.', 00H, 'h', 00H, 00H, 00H ; `string'
CONST	ENDS
;	COMDAT __CT??_R0?AVexception@std@@@8??0exception@std@@QAE@ABV01@@Z12
xdata$x	SEGMENT
__CT??_R0?AVexception@std@@@8??0exception@std@@QAE@ABV01@@Z12 DD 00H
	DD	FLAT:??_R0?AVexception@std@@@8
	DD	00H
	DD	0ffffffffH
	ORG $+4
	DD	0cH
	DD	FLAT:??0exception@std@@QAE@ABV01@@Z
xdata$x	ENDS
;	COMDAT ??_R0?AVexception@std@@@8
data$r	SEGMENT
??_R0?AVexception@std@@@8 DD FLAT:??_7type_info@@6B@	; std::exception `RTTI Type Descriptor'
	DD	00H
	DB	'.?AVexception@std@@', 00H
data$r	ENDS
;	COMDAT __CT??_R0?AVruntime_error@std@@@8??0runtime_error@std@@QAE@ABV01@@Z12
xdata$x	SEGMENT
__CT??_R0?AVruntime_error@std@@@8??0runtime_error@std@@QAE@ABV01@@Z12 DD 00H
	DD	FLAT:??_R0?AVruntime_error@std@@@8
	DD	00H
	DD	0ffffffffH
	ORG $+4
	DD	0cH
	DD	FLAT:??0runtime_error@std@@QAE@ABV01@@Z
xdata$x	ENDS
;	COMDAT ??_R0?AVruntime_error@std@@@8
data$r	SEGMENT
??_R0?AVruntime_error@std@@@8 DD FLAT:??_7type_info@@6B@ ; std::runtime_error `RTTI Type Descriptor'
	DD	00H
	DB	'.?AVruntime_error@std@@', 00H
data$r	ENDS
;	COMDAT __CTA2?AVruntime_error@std@@
xdata$x	SEGMENT
__CTA2?AVruntime_error@std@@ DD 02H
	DD	FLAT:__CT??_R0?AVruntime_error@std@@@8??0runtime_error@std@@QAE@ABV01@@Z12
	DD	FLAT:__CT??_R0?AVexception@std@@@8??0exception@std@@QAE@ABV01@@Z12
xdata$x	ENDS
;	COMDAT __TI2?AVruntime_error@std@@
xdata$x	SEGMENT
__TI2?AVruntime_error@std@@ DD 00H
	DD	FLAT:??1runtime_error@std@@UAE@XZ
	DD	00H
	DD	FLAT:__CTA2?AVruntime_error@std@@
xdata$x	ENDS
;	COMDAT ??_7runtime_error@std@@6B@
CONST	SEGMENT
??_7runtime_error@std@@6B@ DD FLAT:??_R4runtime_error@std@@6B@ ; std::runtime_error::`vftable'
	DD	FLAT:??_Eruntime_error@std@@UAEPAXI@Z
	DD	FLAT:?what@exception@std@@UBEPBDXZ
CONST	ENDS
;	COMDAT ??_C@_1EK@NIFDJFDG@?$AAs?$AAt?$AAd?$AA?3?$AA?3?$AA_?$AAA?$AAd?$AAj?$AAu?$AAs?$AAt?$AA_?$AAm?$AAa@
CONST	SEGMENT
??_C@_1EK@NIFDJFDG@?$AAs?$AAt?$AAd?$AA?3?$AA?3?$AA_?$AAA?$AAd?$AAj?$AAu?$AAs?$AAt?$AA_?$AAm?$AAa@ DB 's'
	DB	00H, 't', 00H, 'd', 00H, ':', 00H, ':', 00H, '_', 00H, 'A', 00H
	DB	'd', 00H, 'j', 00H, 'u', 00H, 's', 00H, 't', 00H, '_', 00H, 'm'
	DB	00H, 'a', 00H, 'n', 00H, 'u', 00H, 'a', 00H, 'l', 00H, 'l', 00H
	DB	'y', 00H, '_', 00H, 'v', 00H, 'e', 00H, 'c', 00H, 't', 00H, 'o'
	DB	00H, 'r', 00H, '_', 00H, 'a', 00H, 'l', 00H, 'i', 00H, 'g', 00H
	DB	'n', 00H, 'e', 00H, 'd', 00H, 00H, 00H	; `string'
CONST	ENDS
;	COMDAT ??_C@_1NC@ICJKIMIP@?$AAc?$AA?3?$AA?2?$AAp?$AAr?$AAo?$AAg?$AAr?$AAa?$AAm?$AA?5?$AAf?$AAi?$AAl?$AAe@
CONST	SEGMENT
??_C@_1NC@ICJKIMIP@?$AAc?$AA?3?$AA?2?$AAp?$AAr?$AAo?$AAg?$AAr?$AAa?$AAm?$AA?5?$AAf?$AAi?$AAl?$AAe@ DB 'c'
	DB	00H, ':', 00H, '\', 00H, 'p', 00H, 'r', 00H, 'o', 00H, 'g', 00H
	DB	'r', 00H, 'a', 00H, 'm', 00H, ' ', 00H, 'f', 00H, 'i', 00H, 'l'
	DB	00H, 'e', 00H, 's', 00H, ' ', 00H, '(', 00H, 'x', 00H, '8', 00H
	DB	'6', 00H, ')', 00H, '\', 00H, 'm', 00H, 'i', 00H, 'c', 00H, 'r'
	DB	00H, 'o', 00H, 's', 00H, 'o', 00H, 'f', 00H, 't', 00H, ' ', 00H
	DB	'v', 00H, 'i', 00H, 's', 00H, 'u', 00H, 'a', 00H, 'l', 00H, ' '
	DB	00H, 's', 00H, 't', 00H, 'u', 00H, 'd', 00H, 'i', 00H, 'o', 00H
	DB	'\', 00H, '2', 00H, '0', 00H, '1', 00H, '7', 00H, '\', 00H, 'c'
	DB	00H, 'o', 00H, 'm', 00H, 'm', 00H, 'u', 00H, 'n', 00H, 'i', 00H
	DB	't', 00H, 'y', 00H, '\', 00H, 'v', 00H, 'c', 00H, '\', 00H, 't'
	DB	00H, 'o', 00H, 'o', 00H, 'l', 00H, 's', 00H, '\', 00H, 'm', 00H
	DB	's', 00H, 'v', 00H, 'c', 00H, '\', 00H, '1', 00H, '4', 00H, '.'
	DB	00H, '1', 00H, '5', 00H, '.', 00H, '2', 00H, '6', 00H, '7', 00H
	DB	'2', 00H, '6', 00H, '\', 00H, 'i', 00H, 'n', 00H, 'c', 00H, 'l'
	DB	00H, 'u', 00H, 'd', 00H, 'e', 00H, '\', 00H, 'x', 00H, 'm', 00H
	DB	'e', 00H, 'm', 00H, 'o', 00H, 'r', 00H, 'y', 00H, '0', 00H, 00H
	DB	00H						; `string'
CONST	ENDS
;	COMDAT ??_C@_0GJ@CAJJPMGE@c?3?2program?5files?5?$CIx86?$CJ?2microsof@
CONST	SEGMENT
??_C@_0GJ@CAJJPMGE@c?3?2program?5files?5?$CIx86?$CJ?2microsof@ DB 'c:\pro'
	DB	'gram files (x86)\microsoft visual studio\2017\community\vc\to'
	DB	'ols\msvc\14.15.26726\include\xmemory0', 00H	; `string'
CONST	ENDS
;	COMDAT ??_C@_1DG@PLBPCAEM@?$AA?$CC?$AAI?$AAT?$AAE?$AAR?$AAA?$AAT?$AAO?$AAR?$AA?5?$AAL?$AAI?$AAS?$AAT?$AA?5@
CONST	SEGMENT
??_C@_1DG@PLBPCAEM@?$AA?$CC?$AAI?$AAT?$AAE?$AAR?$AAA?$AAT?$AAO?$AAR?$AA?5?$AAL?$AAI?$AAS?$AAT?$AA?5@ DB '"'
	DB	00H, 'I', 00H, 'T', 00H, 'E', 00H, 'R', 00H, 'A', 00H, 'T', 00H
	DB	'O', 00H, 'R', 00H, ' ', 00H, 'L', 00H, 'I', 00H, 'S', 00H, 'T'
	DB	00H, ' ', 00H, 'C', 00H, 'O', 00H, 'R', 00H, 'R', 00H, 'U', 00H
	DB	'P', 00H, 'T', 00H, 'E', 00H, 'D', 00H, '!', 00H, '"', 00H, 00H
	DB	00H						; `string'
CONST	ENDS
;	COMDAT ??_C@_1EE@KLDMFDFL@?$AAs?$AAt?$AAd?$AA?3?$AA?3?$AA_?$AAI?$AAt?$AAe?$AAr?$AAa?$AAt?$AAo?$AAr?$AA_@
CONST	SEGMENT
??_C@_1EE@KLDMFDFL@?$AAs?$AAt?$AAd?$AA?3?$AA?3?$AA_?$AAI?$AAt?$AAe?$AAr?$AAa?$AAt?$AAo?$AAr?$AA_@ DB 's'
	DB	00H, 't', 00H, 'd', 00H, ':', 00H, ':', 00H, '_', 00H, 'I', 00H
	DB	't', 00H, 'e', 00H, 'r', 00H, 'a', 00H, 't', 00H, 'o', 00H, 'r'
	DB	00H, '_', 00H, 'b', 00H, 'a', 00H, 's', 00H, 'e', 00H, '1', 00H
	DB	'2', 00H, ':', 00H, ':', 00H, '_', 00H, 'O', 00H, 'r', 00H, 'p'
	DB	00H, 'h', 00H, 'a', 00H, 'n', 00H, '_', 00H, 'm', 00H, 'e', 00H
	DB	00H, 00H					; `string'
CONST	ENDS
;	COMDAT ??_C@_1NC@HPHBFJCM@?$AAc?$AA?3?$AA?2?$AAp?$AAr?$AAo?$AAg?$AAr?$AAa?$AAm?$AA?5?$AAf?$AAi?$AAl?$AAe@
CONST	SEGMENT
??_C@_1NC@HPHBFJCM@?$AAc?$AA?3?$AA?2?$AAp?$AAr?$AAo?$AAg?$AAr?$AAa?$AAm?$AA?5?$AAf?$AAi?$AAl?$AAe@ DB 'c'
	DB	00H, ':', 00H, '\', 00H, 'p', 00H, 'r', 00H, 'o', 00H, 'g', 00H
	DB	'r', 00H, 'a', 00H, 'm', 00H, ' ', 00H, 'f', 00H, 'i', 00H, 'l'
	DB	00H, 'e', 00H, 's', 00H, ' ', 00H, '(', 00H, 'x', 00H, '8', 00H
	DB	'6', 00H, ')', 00H, '\', 00H, 'm', 00H, 'i', 00H, 'c', 00H, 'r'
	DB	00H, 'o', 00H, 's', 00H, 'o', 00H, 'f', 00H, 't', 00H, ' ', 00H
	DB	'v', 00H, 'i', 00H, 's', 00H, 'u', 00H, 'a', 00H, 'l', 00H, ' '
	DB	00H, 's', 00H, 't', 00H, 'u', 00H, 'd', 00H, 'i', 00H, 'o', 00H
	DB	'\', 00H, '2', 00H, '0', 00H, '1', 00H, '7', 00H, '\', 00H, 'c'
	DB	00H, 'o', 00H, 'm', 00H, 'm', 00H, 'u', 00H, 'n', 00H, 'i', 00H
	DB	't', 00H, 'y', 00H, '\', 00H, 'v', 00H, 'c', 00H, '\', 00H, 't'
	DB	00H, 'o', 00H, 'o', 00H, 'l', 00H, 's', 00H, '\', 00H, 'm', 00H
	DB	's', 00H, 'v', 00H, 'c', 00H, '\', 00H, '1', 00H, '4', 00H, '.'
	DB	00H, '1', 00H, '5', 00H, '.', 00H, '2', 00H, '6', 00H, '7', 00H
	DB	'2', 00H, '6', 00H, '\', 00H, 'i', 00H, 'n', 00H, 'c', 00H, 'l'
	DB	00H, 'u', 00H, 'd', 00H, 'e', 00H, '\', 00H, 'x', 00H, 'u', 00H
	DB	't', 00H, 'i', 00H, 'l', 00H, 'i', 00H, 't', 00H, 'y', 00H, 00H
	DB	00H						; `string'
CONST	ENDS
;	COMDAT ??_C@_0GJ@DMCEMOMH@c?3?2program?5files?5?$CIx86?$CJ?2microsof@
CONST	SEGMENT
??_C@_0GJ@DMCEMOMH@c?3?2program?5files?5?$CIx86?$CJ?2microsof@ DB 'c:\pro'
	DB	'gram files (x86)\microsoft visual studio\2017\community\vc\to'
	DB	'ols\msvc\14.15.26726\include\xutility', 00H	; `string'
CONST	ENDS
;	COMDAT ??_C@_0BJ@LFDBABJJ@ITERATOR?5LIST?5CORRUPTED?$CB@
CONST	SEGMENT
??_C@_0BJ@LFDBABJJ@ITERATOR?5LIST?5CORRUPTED?$CB@ DB 'ITERATOR LIST CORRU'
	DB	'PTED!', 00H					; `string'
CONST	ENDS
;	COMDAT ??_C@_1CG@JNLFBNGN@?$AA?$CC?$AAi?$AAn?$AAv?$AAa?$AAl?$AAi?$AAd?$AA?5?$AAa?$AAr?$AAg?$AAu?$AAm?$AAe@
CONST	SEGMENT
??_C@_1CG@JNLFBNGN@?$AA?$CC?$AAi?$AAn?$AAv?$AAa?$AAl?$AAi?$AAd?$AA?5?$AAa?$AAr?$AAg?$AAu?$AAm?$AAe@ DB '"'
	DB	00H, 'i', 00H, 'n', 00H, 'v', 00H, 'a', 00H, 'l', 00H, 'i', 00H
	DB	'd', 00H, ' ', 00H, 'a', 00H, 'r', 00H, 'g', 00H, 'u', 00H, 'm'
	DB	00H, 'e', 00H, 'n', 00H, 't', 00H, '"', 00H, 00H, 00H ; `string'
CONST	ENDS
;	COMDAT ??_C@_02DKCKIIND@?$CFs@
CONST	SEGMENT
??_C@_02DKCKIIND@?$CFs@ DB '%s', 00H			; `string'
CONST	ENDS
;	COMDAT ??_C@_0BB@FCMFBGOM@invalid?5argument@
CONST	SEGMENT
??_C@_0BB@FCMFBGOM@invalid?5argument@ DB 'invalid argument', 00H ; `string'
CONST	ENDS
;	COMDAT ??_C@_0BC@EOODALEL@Unknown?5exception@
CONST	SEGMENT
??_C@_0BC@EOODALEL@Unknown?5exception@ DB 'Unknown exception', 00H ; `string'
CONST	ENDS
;	COMDAT ??_7exception@std@@6B@
CONST	SEGMENT
??_7exception@std@@6B@ DD FLAT:??_R4exception@std@@6B@	; std::exception::`vftable'
	DD	FLAT:??_Eexception@std@@UAEPAXI@Z
	DD	FLAT:?what@exception@std@@UBEPBDXZ
CONST	ENDS
;	COMDAT xdata$x
xdata$x	SEGMENT
__catchsym$??$_Buynode@ABQAV?$Goal@VRaven_Bot@@@@@?$_List_buy@PAV?$Goal@VRaven_Bot@@@@V?$allocator@PAV?$Goal@VRaven_Bot@@@@@std@@@std@@QAEPAU?$_List_node@PAV?$Goal@VRaven_Bot@@@@PAX@1@PAU21@0ABQAV?$Goal@VRaven_Bot@@@@@Z$2 DD 040H
	DD	00H
	DD	00H
	DD	FLAT:__catch$??$_Buynode@ABQAV?$Goal@VRaven_Bot@@@@@?$_List_buy@PAV?$Goal@VRaven_Bot@@@@V?$allocator@PAV?$Goal@VRaven_Bot@@@@@std@@@std@@QAEPAU?$_List_node@PAV?$Goal@VRaven_Bot@@@@PAX@1@PAU21@0ABQAV?$Goal@VRaven_Bot@@@@@Z$0
__unwindtable$??$_Buynode@ABQAV?$Goal@VRaven_Bot@@@@@?$_List_buy@PAV?$Goal@VRaven_Bot@@@@V?$allocator@PAV?$Goal@VRaven_Bot@@@@@std@@@std@@QAEPAU?$_List_node@PAV?$Goal@VRaven_Bot@@@@PAX@1@PAU21@0ABQAV?$Goal@VRaven_Bot@@@@@Z DD 0ffffffffH
	DD	00H
	DD	0ffffffffH
	DD	00H
__tryblocktable$??$_Buynode@ABQAV?$Goal@VRaven_Bot@@@@@?$_List_buy@PAV?$Goal@VRaven_Bot@@@@V?$allocator@PAV?$Goal@VRaven_Bot@@@@@std@@@std@@QAEPAU?$_List_node@PAV?$Goal@VRaven_Bot@@@@PAX@1@PAU21@0ABQAV?$Goal@VRaven_Bot@@@@@Z DD 00H
	DD	00H
	DD	01H
	DD	01H
	DD	FLAT:__catchsym$??$_Buynode@ABQAV?$Goal@VRaven_Bot@@@@@?$_List_buy@PAV?$Goal@VRaven_Bot@@@@V?$allocator@PAV?$Goal@VRaven_Bot@@@@@std@@@std@@QAEPAU?$_List_node@PAV?$Goal@VRaven_Bot@@@@PAX@1@PAU21@0ABQAV?$Goal@VRaven_Bot@@@@@Z$2
__ehfuncinfo$??$_Buynode@ABQAV?$Goal@VRaven_Bot@@@@@?$_List_buy@PAV?$Goal@VRaven_Bot@@@@V?$allocator@PAV?$Goal@VRaven_Bot@@@@@std@@@std@@QAEPAU?$_List_node@PAV?$Goal@VRaven_Bot@@@@PAX@1@PAU21@0ABQAV?$Goal@VRaven_Bot@@@@@Z DD 019930522H
	DD	02H
	DD	FLAT:__unwindtable$??$_Buynode@ABQAV?$Goal@VRaven_Bot@@@@@?$_List_buy@PAV?$Goal@VRaven_Bot@@@@V?$allocator@PAV?$Goal@VRaven_Bot@@@@@std@@@std@@QAEPAU?$_List_node@PAV?$Goal@VRaven_Bot@@@@PAX@1@PAU21@0ABQAV?$Goal@VRaven_Bot@@@@@Z
	DD	01H
	DD	FLAT:__tryblocktable$??$_Buynode@ABQAV?$Goal@VRaven_Bot@@@@@?$_List_buy@PAV?$Goal@VRaven_Bot@@@@V?$allocator@PAV?$Goal@VRaven_Bot@@@@@std@@@std@@QAEPAU?$_List_node@PAV?$Goal@VRaven_Bot@@@@PAX@1@PAU21@0ABQAV?$Goal@VRaven_Bot@@@@@Z
	DD	2 DUP(00H)
	DD	00H
	DD	01H
xdata$x	ENDS
;	COMDAT xdata$x
xdata$x	SEGMENT
__unwindtable$??$?8V?$_List_const_iterator@V?$_List_val@U?$_List_simple_types@PAV?$Goal@VRaven_Bot@@@@@std@@@std@@@std@@V01@@std@@YA_NABV?$reverse_iterator@V?$_List_const_iterator@V?$_List_val@U?$_List_simple_types@PAV?$Goal@VRaven_Bot@@@@@std@@@std@@@std@@@0@0@Z DD 0ffffffffH
	DD	FLAT:__unwindfunclet$??$?8V?$_List_const_iterator@V?$_List_val@U?$_List_simple_types@PAV?$Goal@VRaven_Bot@@@@@std@@@std@@@std@@V01@@std@@YA_NABV?$reverse_iterator@V?$_List_const_iterator@V?$_List_val@U?$_List_simple_types@PAV?$Goal@VRaven_Bot@@@@@std@@@std@@@std@@@0@0@Z$0
	DD	00H
	DD	FLAT:__unwindfunclet$??$?8V?$_List_const_iterator@V?$_List_val@U?$_List_simple_types@PAV?$Goal@VRaven_Bot@@@@@std@@@std@@@std@@V01@@std@@YA_NABV?$reverse_iterator@V?$_List_const_iterator@V?$_List_val@U?$_List_simple_types@PAV?$Goal@VRaven_Bot@@@@@std@@@std@@@std@@@0@0@Z$1
__ehfuncinfo$??$?8V?$_List_const_iterator@V?$_List_val@U?$_List_simple_types@PAV?$Goal@VRaven_Bot@@@@@std@@@std@@@std@@V01@@std@@YA_NABV?$reverse_iterator@V?$_List_const_iterator@V?$_List_val@U?$_List_simple_types@PAV?$Goal@VRaven_Bot@@@@@std@@@std@@@std@@@0@0@Z DD 019930522H
	DD	02H
	DD	FLAT:__unwindtable$??$?8V?$_List_const_iterator@V?$_List_val@U?$_List_simple_types@PAV?$Goal@VRaven_Bot@@@@@std@@@std@@@std@@V01@@std@@YA_NABV?$reverse_iterator@V?$_List_const_iterator@V?$_List_val@U?$_List_simple_types@PAV?$Goal@VRaven_Bot@@@@@std@@@std@@@std@@@0@0@Z
	DD	2 DUP(00H)
	DD	2 DUP(00H)
	DD	00H
	DD	01H
xdata$x	ENDS
;	COMDAT xdata$x
xdata$x	SEGMENT
__catchsym$??$_Buynode@PAV?$Goal@VRaven_Bot@@@@@?$_List_buy@PAV?$Goal@VRaven_Bot@@@@V?$allocator@PAV?$Goal@VRaven_Bot@@@@@std@@@std@@QAEPAU?$_List_node@PAV?$Goal@VRaven_Bot@@@@PAX@1@PAU21@0$$QAPAV?$Goal@VRaven_Bot@@@@@Z$2 DD 040H
	DD	00H
	DD	00H
	DD	FLAT:__catch$??$_Buynode@PAV?$Goal@VRaven_Bot@@@@@?$_List_buy@PAV?$Goal@VRaven_Bot@@@@V?$allocator@PAV?$Goal@VRaven_Bot@@@@@std@@@std@@QAEPAU?$_List_node@PAV?$Goal@VRaven_Bot@@@@PAX@1@PAU21@0$$QAPAV?$Goal@VRaven_Bot@@@@@Z$0
__unwindtable$??$_Buynode@PAV?$Goal@VRaven_Bot@@@@@?$_List_buy@PAV?$Goal@VRaven_Bot@@@@V?$allocator@PAV?$Goal@VRaven_Bot@@@@@std@@@std@@QAEPAU?$_List_node@PAV?$Goal@VRaven_Bot@@@@PAX@1@PAU21@0$$QAPAV?$Goal@VRaven_Bot@@@@@Z DD 0ffffffffH
	DD	00H
	DD	0ffffffffH
	DD	00H
__tryblocktable$??$_Buynode@PAV?$Goal@VRaven_Bot@@@@@?$_List_buy@PAV?$Goal@VRaven_Bot@@@@V?$allocator@PAV?$Goal@VRaven_Bot@@@@@std@@@std@@QAEPAU?$_List_node@PAV?$Goal@VRaven_Bot@@@@PAX@1@PAU21@0$$QAPAV?$Goal@VRaven_Bot@@@@@Z DD 00H
	DD	00H
	DD	01H
	DD	01H
	DD	FLAT:__catchsym$??$_Buynode@PAV?$Goal@VRaven_Bot@@@@@?$_List_buy@PAV?$Goal@VRaven_Bot@@@@V?$allocator@PAV?$Goal@VRaven_Bot@@@@@std@@@std@@QAEPAU?$_List_node@PAV?$Goal@VRaven_Bot@@@@PAX@1@PAU21@0$$QAPAV?$Goal@VRaven_Bot@@@@@Z$2
__ehfuncinfo$??$_Buynode@PAV?$Goal@VRaven_Bot@@@@@?$_List_buy@PAV?$Goal@VRaven_Bot@@@@V?$allocator@PAV?$Goal@VRaven_Bot@@@@@std@@@std@@QAEPAU?$_List_node@PAV?$Goal@VRaven_Bot@@@@PAX@1@PAU21@0$$QAPAV?$Goal@VRaven_Bot@@@@@Z DD 019930522H
	DD	02H
	DD	FLAT:__unwindtable$??$_Buynode@PAV?$Goal@VRaven_Bot@@@@@?$_List_buy@PAV?$Goal@VRaven_Bot@@@@V?$allocator@PAV?$Goal@VRaven_Bot@@@@@std@@@std@@QAEPAU?$_List_node@PAV?$Goal@VRaven_Bot@@@@PAX@1@PAU21@0$$QAPAV?$Goal@VRaven_Bot@@@@@Z
	DD	01H
	DD	FLAT:__tryblocktable$??$_Buynode@PAV?$Goal@VRaven_Bot@@@@@?$_List_buy@PAV?$Goal@VRaven_Bot@@@@V?$allocator@PAV?$Goal@VRaven_Bot@@@@@std@@@std@@QAEPAU?$_List_node@PAV?$Goal@VRaven_Bot@@@@PAX@1@PAU21@0$$QAPAV?$Goal@VRaven_Bot@@@@@Z
	DD	2 DUP(00H)
	DD	00H
	DD	01H
xdata$x	ENDS
;	COMDAT xdata$x
xdata$x	SEGMENT
__unwindtable$??D?$reverse_iterator@V?$_List_const_iterator@V?$_List_val@U?$_List_simple_types@PAV?$Goal@VRaven_Bot@@@@@std@@@std@@@std@@@std@@QBEABQAV?$Goal@VRaven_Bot@@@@XZ DD 0ffffffffH
	DD	FLAT:__unwindfunclet$??D?$reverse_iterator@V?$_List_const_iterator@V?$_List_val@U?$_List_simple_types@PAV?$Goal@VRaven_Bot@@@@@std@@@std@@@std@@@std@@QBEABQAV?$Goal@VRaven_Bot@@@@XZ$0
__ehfuncinfo$??D?$reverse_iterator@V?$_List_const_iterator@V?$_List_val@U?$_List_simple_types@PAV?$Goal@VRaven_Bot@@@@@std@@@std@@@std@@@std@@QBEABQAV?$Goal@VRaven_Bot@@@@XZ DD 019930522H
	DD	01H
	DD	FLAT:__unwindtable$??D?$reverse_iterator@V?$_List_const_iterator@V?$_List_val@U?$_List_simple_types@PAV?$Goal@VRaven_Bot@@@@@std@@@std@@@std@@@std@@QBEABQAV?$Goal@VRaven_Bot@@@@XZ
	DD	2 DUP(00H)
	DD	2 DUP(00H)
	DD	00H
	DD	01H
xdata$x	ENDS
;	COMDAT xdata$x
xdata$x	SEGMENT
__ehfuncinfo$??$_Freenode0@V?$allocator@U?$_List_node@PAV?$Goal@VRaven_Bot@@@@PAX@std@@@std@@@?$_List_node@PAV?$Goal@VRaven_Bot@@@@PAX@std@@SAXAAV?$allocator@U?$_List_node@PAV?$Goal@VRaven_Bot@@@@PAX@std@@@1@PAU01@@Z DD 019930522H
	DD	00H
	DD	00H
	DD	2 DUP(00H)
	DD	2 DUP(00H)
	DD	00H
	DD	05H
xdata$x	ENDS
;	COMDAT xdata$x
xdata$x	SEGMENT
__catchsym$??$_Emplace_reallocate@PAVGoal_Evaluator@@@?$vector@PAVGoal_Evaluator@@V?$allocator@PAVGoal_Evaluator@@@std@@@std@@QAEPAPAVGoal_Evaluator@@QAPAV2@$$QAPAV2@@Z$2 DD 040H
	DD	00H
	DD	00H
	DD	FLAT:__catch$??$_Emplace_reallocate@PAVGoal_Evaluator@@@?$vector@PAVGoal_Evaluator@@V?$allocator@PAVGoal_Evaluator@@@std@@@std@@QAEPAPAVGoal_Evaluator@@QAPAV2@$$QAPAV2@@Z$0
__unwindtable$??$_Emplace_reallocate@PAVGoal_Evaluator@@@?$vector@PAVGoal_Evaluator@@V?$allocator@PAVGoal_Evaluator@@@std@@@std@@QAEPAPAVGoal_Evaluator@@QAPAV2@$$QAPAV2@@Z DD 0ffffffffH
	DD	00H
	DD	0ffffffffH
	DD	00H
__tryblocktable$??$_Emplace_reallocate@PAVGoal_Evaluator@@@?$vector@PAVGoal_Evaluator@@V?$allocator@PAVGoal_Evaluator@@@std@@@std@@QAEPAPAVGoal_Evaluator@@QAPAV2@$$QAPAV2@@Z DD 00H
	DD	00H
	DD	01H
	DD	01H
	DD	FLAT:__catchsym$??$_Emplace_reallocate@PAVGoal_Evaluator@@@?$vector@PAVGoal_Evaluator@@V?$allocator@PAVGoal_Evaluator@@@std@@@std@@QAEPAPAVGoal_Evaluator@@QAPAV2@$$QAPAV2@@Z$2
__ehfuncinfo$??$_Emplace_reallocate@PAVGoal_Evaluator@@@?$vector@PAVGoal_Evaluator@@V?$allocator@PAVGoal_Evaluator@@@std@@@std@@QAEPAPAVGoal_Evaluator@@QAPAV2@$$QAPAV2@@Z DD 019930522H
	DD	02H
	DD	FLAT:__unwindtable$??$_Emplace_reallocate@PAVGoal_Evaluator@@@?$vector@PAVGoal_Evaluator@@V?$allocator@PAVGoal_Evaluator@@@std@@@std@@QAEPAPAVGoal_Evaluator@@QAPAV2@$$QAPAV2@@Z
	DD	01H
	DD	FLAT:__tryblocktable$??$_Emplace_reallocate@PAVGoal_Evaluator@@@?$vector@PAVGoal_Evaluator@@V?$allocator@PAVGoal_Evaluator@@@std@@@std@@QAEPAPAVGoal_Evaluator@@QAPAV2@$$QAPAV2@@Z
	DD	2 DUP(00H)
	DD	00H
	DD	01H
xdata$x	ENDS
;	COMDAT xdata$x
xdata$x	SEGMENT
__unwindtable$??E?$_List_const_iterator@V?$_List_val@U?$_List_simple_types@PAV?$Goal@VRaven_Bot@@@@@std@@@std@@@std@@QAE?AV01@H@Z DD 0ffffffffH
	DD	FLAT:__unwindfunclet$??E?$_List_const_iterator@V?$_List_val@U?$_List_simple_types@PAV?$Goal@VRaven_Bot@@@@@std@@@std@@@std@@QAE?AV01@H@Z$0
__ehfuncinfo$??E?$_List_const_iterator@V?$_List_val@U?$_List_simple_types@PAV?$Goal@VRaven_Bot@@@@@std@@@std@@@std@@QAE?AV01@H@Z DD 019930522H
	DD	01H
	DD	FLAT:__unwindtable$??E?$_List_const_iterator@V?$_List_val@U?$_List_simple_types@PAV?$Goal@VRaven_Bot@@@@@std@@@std@@@std@@QAE?AV01@H@Z
	DD	2 DUP(00H)
	DD	2 DUP(00H)
	DD	00H
	DD	01H
xdata$x	ENDS
;	COMDAT xdata$x
xdata$x	SEGMENT
__unwindtable$??0Goal_Explore@@QAE@PAVRaven_Bot@@@Z DD 0ffffffffH
	DD	FLAT:__unwindfunclet$??0Goal_Explore@@QAE@PAVRaven_Bot@@@Z$0
__ehfuncinfo$??0Goal_Explore@@QAE@PAVRaven_Bot@@@Z DD 019930522H
	DD	01H
	DD	FLAT:__unwindtable$??0Goal_Explore@@QAE@PAVRaven_Bot@@@Z
	DD	2 DUP(00H)
	DD	2 DUP(00H)
	DD	00H
	DD	01H
xdata$x	ENDS
xdata$x	SEGMENT
__unwindtable$?QueueGoal_MoveToPosition@Goal_Think@@QAEXUVector2D@@@Z DD 0ffffffffH
	DD	FLAT:__unwindfunclet$?QueueGoal_MoveToPosition@Goal_Think@@QAEXUVector2D@@@Z$0
__unwindtable$?AddGoal_AttackTarget@Goal_Think@@QAEXXZ DD 0ffffffffH
	DD	FLAT:__unwindfunclet$?AddGoal_AttackTarget@Goal_Think@@QAEXXZ$0
__unwindtable$?AddGoal_Explore@Goal_Think@@QAEXXZ DD 0ffffffffH
	DD	FLAT:__unwindfunclet$?AddGoal_Explore@Goal_Think@@QAEXXZ$0
__unwindtable$?AddGoal_GetItem@Goal_Think@@QAEXI@Z DD 0ffffffffH
	DD	FLAT:__unwindfunclet$?AddGoal_GetItem@Goal_Think@@QAEXI@Z$0
__unwindtable$?AddGoal_MoveToPosition@Goal_Think@@QAEXUVector2D@@@Z DD 0ffffffffH
	DD	FLAT:__unwindfunclet$?AddGoal_MoveToPosition@Goal_Think@@QAEXUVector2D@@@Z$0
__unwindtable$?Render@Goal_Think@@UAEXXZ DD 0ffffffffH
	DD	FLAT:__unwindfunclet$?Render@Goal_Think@@UAEXXZ$0
	DD	00H
	DD	FLAT:__unwindfunclet$?Render@Goal_Think@@UAEXXZ$2
__unwindtable$?RenderEvaluations@Goal_Think@@QBEXHH@Z DD 0ffffffffH
	DD	FLAT:__unwindfunclet$?RenderEvaluations@Goal_Think@@QBEXHH@Z$0
	DD	00H
	DD	FLAT:__unwindfunclet$?RenderEvaluations@Goal_Think@@QBEXHH@Z$1
__unwindtable$?Arbitrate@Goal_Think@@QAEXXZ DD 0ffffffffH
	DD	FLAT:__unwindfunclet$?Arbitrate@Goal_Think@@QAEXXZ$0
	DD	00H
	DD	FLAT:__unwindfunclet$?Arbitrate@Goal_Think@@QAEXXZ$1
__ehfuncinfo$?Render@Goal_Think@@UAEXXZ DD 019930522H
	DD	02H
	DD	FLAT:__unwindtable$?Render@Goal_Think@@UAEXXZ
	DD	2 DUP(00H)
	DD	2 DUP(00H)
	DD	00H
	DD	01H
__ehfuncinfo$?RenderEvaluations@Goal_Think@@QBEXHH@Z DD 019930522H
	DD	02H
	DD	FLAT:__unwindtable$?RenderEvaluations@Goal_Think@@QBEXHH@Z
	DD	2 DUP(00H)
	DD	2 DUP(00H)
	DD	00H
	DD	01H
__ehfuncinfo$?QueueGoal_MoveToPosition@Goal_Think@@QAEXUVector2D@@@Z DD 019930522H
	DD	01H
	DD	FLAT:__unwindtable$?QueueGoal_MoveToPosition@Goal_Think@@QAEXUVector2D@@@Z
	DD	2 DUP(00H)
	DD	2 DUP(00H)
	DD	00H
	DD	01H
__ehfuncinfo$?AddGoal_AttackTarget@Goal_Think@@QAEXXZ DD 019930522H
	DD	01H
	DD	FLAT:__unwindtable$?AddGoal_AttackTarget@Goal_Think@@QAEXXZ
	DD	2 DUP(00H)
	DD	2 DUP(00H)
	DD	00H
	DD	01H
__ehfuncinfo$?AddGoal_Explore@Goal_Think@@QAEXXZ DD 019930522H
	DD	01H
	DD	FLAT:__unwindtable$?AddGoal_Explore@Goal_Think@@QAEXXZ
	DD	2 DUP(00H)
	DD	2 DUP(00H)
	DD	00H
	DD	01H
__ehfuncinfo$?AddGoal_GetItem@Goal_Think@@QAEXI@Z DD 019930522H
	DD	01H
	DD	FLAT:__unwindtable$?AddGoal_GetItem@Goal_Think@@QAEXI@Z
	DD	2 DUP(00H)
	DD	2 DUP(00H)
	DD	00H
	DD	01H
__ehfuncinfo$?AddGoal_MoveToPosition@Goal_Think@@QAEXUVector2D@@@Z DD 019930522H
	DD	01H
	DD	FLAT:__unwindtable$?AddGoal_MoveToPosition@Goal_Think@@QAEXUVector2D@@@Z
	DD	2 DUP(00H)
	DD	2 DUP(00H)
	DD	00H
	DD	01H
__ehfuncinfo$?Arbitrate@Goal_Think@@QAEXXZ DD 019930522H
	DD	02H
	DD	FLAT:__unwindtable$?Arbitrate@Goal_Think@@QAEXXZ
	DD	2 DUP(00H)
	DD	2 DUP(00H)
	DD	00H
	DD	01H
__ehfuncinfo$??1Goal_Think@@UAE@XZ DD 019930522H
	DD	00H
	DD	00H
	DD	2 DUP(00H)
	DD	2 DUP(00H)
	DD	00H
	DD	05H
__ehfuncinfo$??0Goal_Think@@QAE@PAVRaven_Bot@@@Z DD 019930522H
	DD	08H
	DD	FLAT:__unwindtable$??0Goal_Think@@QAE@PAVRaven_Bot@@@Z
	DD	2 DUP(00H)
	DD	2 DUP(00H)
	DD	00H
	DD	01H
__unwindtable$??0Goal_Think@@QAE@PAVRaven_Bot@@@Z DD 0ffffffffH
	DD	FLAT:__unwindfunclet$??0Goal_Think@@QAE@PAVRaven_Bot@@@Z$0
	DD	00H
	DD	FLAT:__unwindfunclet$??0Goal_Think@@QAE@PAVRaven_Bot@@@Z$1
	DD	01H
	DD	FLAT:__unwindfunclet$??0Goal_Think@@QAE@PAVRaven_Bot@@@Z$2
	DD	01H
	DD	FLAT:__unwindfunclet$??0Goal_Think@@QAE@PAVRaven_Bot@@@Z$3
	DD	01H
	DD	FLAT:__unwindfunclet$??0Goal_Think@@QAE@PAVRaven_Bot@@@Z$4
	DD	01H
	DD	FLAT:__unwindfunclet$??0Goal_Think@@QAE@PAVRaven_Bot@@@Z$5
	DD	01H
	DD	FLAT:__unwindfunclet$??0Goal_Think@@QAE@PAVRaven_Bot@@@Z$6
	DD	01H
	DD	FLAT:__unwindfunclet$??0Goal_Think@@QAE@PAVRaven_Bot@@@Z$7
xdata$x	ENDS
;	COMDAT xdata$x
xdata$x	SEGMENT
__unwindtable$?_Orphan_range@?$vector@PAVGoal_Evaluator@@V?$allocator@PAVGoal_Evaluator@@@std@@@std@@ABEXPAPAVGoal_Evaluator@@0@Z DD 0ffffffffH
	DD	FLAT:__unwindfunclet$?_Orphan_range@?$vector@PAVGoal_Evaluator@@V?$allocator@PAVGoal_Evaluator@@@std@@@std@@ABEXPAPAVGoal_Evaluator@@0@Z$0
__ehfuncinfo$?_Orphan_range@?$vector@PAVGoal_Evaluator@@V?$allocator@PAVGoal_Evaluator@@@std@@@std@@ABEXPAPAVGoal_Evaluator@@0@Z DD 019930522H
	DD	01H
	DD	FLAT:__unwindtable$?_Orphan_range@?$vector@PAVGoal_Evaluator@@V?$allocator@PAVGoal_Evaluator@@@std@@@std@@ABEXPAPAVGoal_Evaluator@@0@Z
	DD	2 DUP(00H)
	DD	2 DUP(00H)
	DD	00H
	DD	01H
xdata$x	ENDS
;	COMDAT xdata$x
xdata$x	SEGMENT
__ehfuncinfo$?end@?$vector@PAVGoal_Evaluator@@V?$allocator@PAVGoal_Evaluator@@@std@@@std@@QBE?AV?$_Vector_const_iterator@V?$_Vector_val@U?$_Simple_types@PAVGoal_Evaluator@@@std@@@std@@@2@XZ DD 019930522H
	DD	00H
	DD	00H
	DD	2 DUP(00H)
	DD	2 DUP(00H)
	DD	00H
	DD	05H
xdata$x	ENDS
;	COMDAT xdata$x
xdata$x	SEGMENT
__ehfuncinfo$?end@?$vector@PAVGoal_Evaluator@@V?$allocator@PAVGoal_Evaluator@@@std@@@std@@QAE?AV?$_Vector_iterator@V?$_Vector_val@U?$_Simple_types@PAVGoal_Evaluator@@@std@@@std@@@2@XZ DD 019930522H
	DD	00H
	DD	00H
	DD	2 DUP(00H)
	DD	2 DUP(00H)
	DD	00H
	DD	05H
xdata$x	ENDS
;	COMDAT xdata$x
xdata$x	SEGMENT
__ehfuncinfo$?begin@?$vector@PAVGoal_Evaluator@@V?$allocator@PAVGoal_Evaluator@@@std@@@std@@QBE?AV?$_Vector_const_iterator@V?$_Vector_val@U?$_Simple_types@PAVGoal_Evaluator@@@std@@@std@@@2@XZ DD 019930522H
	DD	00H
	DD	00H
	DD	2 DUP(00H)
	DD	2 DUP(00H)
	DD	00H
	DD	05H
xdata$x	ENDS
;	COMDAT xdata$x
xdata$x	SEGMENT
__ehfuncinfo$?begin@?$vector@PAVGoal_Evaluator@@V?$allocator@PAVGoal_Evaluator@@@std@@@std@@QAE?AV?$_Vector_iterator@V?$_Vector_val@U?$_Simple_types@PAVGoal_Evaluator@@@std@@@std@@@2@XZ DD 019930522H
	DD	00H
	DD	00H
	DD	2 DUP(00H)
	DD	2 DUP(00H)
	DD	00H
	DD	05H
xdata$x	ENDS
;	COMDAT xdata$x
xdata$x	SEGMENT
__ehfuncinfo$??1?$vector@PAVGoal_Evaluator@@V?$allocator@PAVGoal_Evaluator@@@std@@@std@@QAE@XZ DD 019930522H
	DD	00H
	DD	00H
	DD	2 DUP(00H)
	DD	2 DUP(00H)
	DD	00H
	DD	05H
xdata$x	ENDS
;	COMDAT xdata$x
xdata$x	SEGMENT
__ehfuncinfo$??0?$vector@PAVGoal_Evaluator@@V?$allocator@PAVGoal_Evaluator@@@std@@@std@@QAE@XZ DD 019930522H
	DD	00H
	DD	00H
	DD	2 DUP(00H)
	DD	2 DUP(00H)
	DD	00H
	DD	05H
xdata$x	ENDS
;	COMDAT xdata$x
xdata$x	SEGMENT
__ehfuncinfo$??1?$_Vector_alloc@U?$_Vec_base_types@PAVGoal_Evaluator@@V?$allocator@PAVGoal_Evaluator@@@std@@@std@@@std@@QAE@XZ DD 019930522H
	DD	00H
	DD	00H
	DD	2 DUP(00H)
	DD	2 DUP(00H)
	DD	00H
	DD	05H
xdata$x	ENDS
;	COMDAT xdata$x
xdata$x	SEGMENT
__unwindtable$?RenderAtPos@?$Goal_Composite@VRaven_Bot@@@@UBEXAAUVector2D@@PAVTypeToString@@@Z DD 0ffffffffH
	DD	FLAT:__unwindfunclet$?RenderAtPos@?$Goal_Composite@VRaven_Bot@@@@UBEXAAUVector2D@@PAVTypeToString@@@Z$0
	DD	00H
	DD	FLAT:__unwindfunclet$?RenderAtPos@?$Goal_Composite@VRaven_Bot@@@@UBEXAAUVector2D@@PAVTypeToString@@@Z$2
__ehfuncinfo$?RenderAtPos@?$Goal_Composite@VRaven_Bot@@@@UBEXAAUVector2D@@PAVTypeToString@@@Z DD 019930522H
	DD	02H
	DD	FLAT:__unwindtable$?RenderAtPos@?$Goal_Composite@VRaven_Bot@@@@UBEXAAUVector2D@@PAVTypeToString@@@Z
	DD	2 DUP(00H)
	DD	2 DUP(00H)
	DD	00H
	DD	01H
xdata$x	ENDS
;	COMDAT xdata$x
xdata$x	SEGMENT
__unwindtable$?RemoveAllSubgoals@?$Goal_Composite@VRaven_Bot@@@@QAEXXZ DD 0ffffffffH
	DD	FLAT:__unwindfunclet$?RemoveAllSubgoals@?$Goal_Composite@VRaven_Bot@@@@QAEXXZ$0
	DD	00H
	DD	FLAT:__unwindfunclet$?RemoveAllSubgoals@?$Goal_Composite@VRaven_Bot@@@@QAEXXZ$1
__ehfuncinfo$?RemoveAllSubgoals@?$Goal_Composite@VRaven_Bot@@@@QAEXXZ DD 019930522H
	DD	02H
	DD	FLAT:__unwindtable$?RemoveAllSubgoals@?$Goal_Composite@VRaven_Bot@@@@QAEXXZ
	DD	2 DUP(00H)
	DD	2 DUP(00H)
	DD	00H
	DD	01H
xdata$x	ENDS
;	COMDAT xdata$x
xdata$x	SEGMENT
__ehfuncinfo$??1?$Goal_Composite@VRaven_Bot@@@@UAE@XZ DD 019930522H
	DD	00H
	DD	00H
	DD	2 DUP(00H)
	DD	2 DUP(00H)
	DD	00H
	DD	05H
xdata$x	ENDS
;	COMDAT xdata$x
xdata$x	SEGMENT
__unwindtable$??0?$Goal_Composite@VRaven_Bot@@@@QAE@PAVRaven_Bot@@H@Z DD 0ffffffffH
	DD	FLAT:__unwindfunclet$??0?$Goal_Composite@VRaven_Bot@@@@QAE@PAVRaven_Bot@@H@Z$0
__ehfuncinfo$??0?$Goal_Composite@VRaven_Bot@@@@QAE@PAVRaven_Bot@@H@Z DD 019930522H
	DD	01H
	DD	FLAT:__unwindtable$??0?$Goal_Composite@VRaven_Bot@@@@QAE@PAVRaven_Bot@@H@Z
	DD	2 DUP(00H)
	DD	2 DUP(00H)
	DD	00H
	DD	01H
xdata$x	ENDS
;	COMDAT xdata$x
xdata$x	SEGMENT
__unwindtable$?_Orphan_ptr@?$list@PAV?$Goal@VRaven_Bot@@@@V?$allocator@PAV?$Goal@VRaven_Bot@@@@@std@@@std@@QAEXPAU?$_List_node@PAV?$Goal@VRaven_Bot@@@@PAX@2@@Z DD 0ffffffffH
	DD	FLAT:__unwindfunclet$?_Orphan_ptr@?$list@PAV?$Goal@VRaven_Bot@@@@V?$allocator@PAV?$Goal@VRaven_Bot@@@@@std@@@std@@QAEXPAU?$_List_node@PAV?$Goal@VRaven_Bot@@@@PAX@2@@Z$0
__ehfuncinfo$?_Orphan_ptr@?$list@PAV?$Goal@VRaven_Bot@@@@V?$allocator@PAV?$Goal@VRaven_Bot@@@@@std@@@std@@QAEXPAU?$_List_node@PAV?$Goal@VRaven_Bot@@@@PAX@2@@Z DD 019930522H
	DD	01H
	DD	FLAT:__unwindtable$?_Orphan_ptr@?$list@PAV?$Goal@VRaven_Bot@@@@V?$allocator@PAV?$Goal@VRaven_Bot@@@@@std@@@std@@QAEXPAU?$_List_node@PAV?$Goal@VRaven_Bot@@@@PAX@2@@Z
	DD	2 DUP(00H)
	DD	2 DUP(00H)
	DD	00H
	DD	01H
xdata$x	ENDS
;	COMDAT xdata$x
xdata$x	SEGMENT
__ehfuncinfo$?clear@?$list@PAV?$Goal@VRaven_Bot@@@@V?$allocator@PAV?$Goal@VRaven_Bot@@@@@std@@@std@@QAEXXZ DD 019930522H
	DD	00H
	DD	00H
	DD	2 DUP(00H)
	DD	2 DUP(00H)
	DD	00H
	DD	05H
xdata$x	ENDS
;	COMDAT xdata$x
xdata$x	SEGMENT
__unwindtable$?erase@?$list@PAV?$Goal@VRaven_Bot@@@@V?$allocator@PAV?$Goal@VRaven_Bot@@@@@std@@@std@@QAE?AV?$_List_iterator@V?$_List_val@U?$_List_simple_types@PAV?$Goal@VRaven_Bot@@@@@std@@@std@@@2@V?$_List_const_iterator@V?$_List_val@U?$_List_simple_types@PAV?$Goal@VRaven_Bot@@@@@std@@@std@@@2@@Z DD 0ffffffffH
	DD	FLAT:__unwindfunclet$?erase@?$list@PAV?$Goal@VRaven_Bot@@@@V?$allocator@PAV?$Goal@VRaven_Bot@@@@@std@@@std@@QAE?AV?$_List_iterator@V?$_List_val@U?$_List_simple_types@PAV?$Goal@VRaven_Bot@@@@@std@@@std@@@2@V?$_List_const_iterator@V?$_List_val@U?$_List_simple_types@PAV?$Goal@VRaven_Bot@@@@@std@@@std@@@2@@Z$0
__ehfuncinfo$?erase@?$list@PAV?$Goal@VRaven_Bot@@@@V?$allocator@PAV?$Goal@VRaven_Bot@@@@@std@@@std@@QAE?AV?$_List_iterator@V?$_List_val@U?$_List_simple_types@PAV?$Goal@VRaven_Bot@@@@@std@@@std@@@2@V?$_List_const_iterator@V?$_List_val@U?$_List_simple_types@PAV?$Goal@VRaven_Bot@@@@@std@@@std@@@2@@Z DD 019930522H
	DD	01H
	DD	FLAT:__unwindtable$?erase@?$list@PAV?$Goal@VRaven_Bot@@@@V?$allocator@PAV?$Goal@VRaven_Bot@@@@@std@@@std@@QAE?AV?$_List_iterator@V?$_List_val@U?$_List_simple_types@PAV?$Goal@VRaven_Bot@@@@@std@@@std@@@2@V?$_List_const_iterator@V?$_List_val@U?$_List_simple_types@PAV?$Goal@VRaven_Bot@@@@@std@@@std@@@2@@Z
	DD	2 DUP(00H)
	DD	2 DUP(00H)
	DD	00H
	DD	01H
xdata$x	ENDS
;	COMDAT xdata$x
xdata$x	SEGMENT
__unwindtable$?_Unlinknode@?$list@PAV?$Goal@VRaven_Bot@@@@V?$allocator@PAV?$Goal@VRaven_Bot@@@@@std@@@std@@QAEPAU?$_List_node@PAV?$Goal@VRaven_Bot@@@@PAX@2@V?$_List_const_iterator@V?$_List_val@U?$_List_simple_types@PAV?$Goal@VRaven_Bot@@@@@std@@@std@@@2@@Z DD 0ffffffffH
	DD	FLAT:__unwindfunclet$?_Unlinknode@?$list@PAV?$Goal@VRaven_Bot@@@@V?$allocator@PAV?$Goal@VRaven_Bot@@@@@std@@@std@@QAEPAU?$_List_node@PAV?$Goal@VRaven_Bot@@@@PAX@2@V?$_List_const_iterator@V?$_List_val@U?$_List_simple_types@PAV?$Goal@VRaven_Bot@@@@@std@@@std@@@2@@Z$0
__ehfuncinfo$?_Unlinknode@?$list@PAV?$Goal@VRaven_Bot@@@@V?$allocator@PAV?$Goal@VRaven_Bot@@@@@std@@@std@@QAEPAU?$_List_node@PAV?$Goal@VRaven_Bot@@@@PAX@2@V?$_List_const_iterator@V?$_List_val@U?$_List_simple_types@PAV?$Goal@VRaven_Bot@@@@@std@@@std@@@2@@Z DD 019930522H
	DD	01H
	DD	FLAT:__unwindtable$?_Unlinknode@?$list@PAV?$Goal@VRaven_Bot@@@@V?$allocator@PAV?$Goal@VRaven_Bot@@@@@std@@@std@@QAEPAU?$_List_node@PAV?$Goal@VRaven_Bot@@@@PAX@2@V?$_List_const_iterator@V?$_List_val@U?$_List_simple_types@PAV?$Goal@VRaven_Bot@@@@@std@@@std@@@2@@Z
	DD	2 DUP(00H)
	DD	2 DUP(00H)
	DD	00H
	DD	01H
xdata$x	ENDS
;	COMDAT xdata$x
xdata$x	SEGMENT
__unwindtable$?pop_front@?$list@PAV?$Goal@VRaven_Bot@@@@V?$allocator@PAV?$Goal@VRaven_Bot@@@@@std@@@std@@QAEXXZ DD 0ffffffffH
	DD	FLAT:__unwindfunclet$?pop_front@?$list@PAV?$Goal@VRaven_Bot@@@@V?$allocator@PAV?$Goal@VRaven_Bot@@@@@std@@@std@@QAEXXZ$0
__ehfuncinfo$?pop_front@?$list@PAV?$Goal@VRaven_Bot@@@@V?$allocator@PAV?$Goal@VRaven_Bot@@@@@std@@@std@@QAEXXZ DD 019930522H
	DD	01H
	DD	FLAT:__unwindtable$?pop_front@?$list@PAV?$Goal@VRaven_Bot@@@@V?$allocator@PAV?$Goal@VRaven_Bot@@@@@std@@@std@@QAEXXZ
	DD	2 DUP(00H)
	DD	2 DUP(00H)
	DD	00H
	DD	01H
xdata$x	ENDS
;	COMDAT xdata$x
xdata$x	SEGMENT
__unwindtable$?front@?$list@PAV?$Goal@VRaven_Bot@@@@V?$allocator@PAV?$Goal@VRaven_Bot@@@@@std@@@std@@QBEABQAV?$Goal@VRaven_Bot@@@@XZ DD 0ffffffffH
	DD	FLAT:__unwindfunclet$?front@?$list@PAV?$Goal@VRaven_Bot@@@@V?$allocator@PAV?$Goal@VRaven_Bot@@@@@std@@@std@@QBEABQAV?$Goal@VRaven_Bot@@@@XZ$0
__ehfuncinfo$?front@?$list@PAV?$Goal@VRaven_Bot@@@@V?$allocator@PAV?$Goal@VRaven_Bot@@@@@std@@@std@@QBEABQAV?$Goal@VRaven_Bot@@@@XZ DD 019930522H
	DD	01H
	DD	FLAT:__unwindtable$?front@?$list@PAV?$Goal@VRaven_Bot@@@@V?$allocator@PAV?$Goal@VRaven_Bot@@@@@std@@@std@@QBEABQAV?$Goal@VRaven_Bot@@@@XZ
	DD	2 DUP(00H)
	DD	2 DUP(00H)
	DD	00H
	DD	01H
xdata$x	ENDS
;	COMDAT xdata$x
xdata$x	SEGMENT
__unwindtable$?front@?$list@PAV?$Goal@VRaven_Bot@@@@V?$allocator@PAV?$Goal@VRaven_Bot@@@@@std@@@std@@QAEAAPAV?$Goal@VRaven_Bot@@@@XZ DD 0ffffffffH
	DD	FLAT:__unwindfunclet$?front@?$list@PAV?$Goal@VRaven_Bot@@@@V?$allocator@PAV?$Goal@VRaven_Bot@@@@@std@@@std@@QAEAAPAV?$Goal@VRaven_Bot@@@@XZ$0
__ehfuncinfo$?front@?$list@PAV?$Goal@VRaven_Bot@@@@V?$allocator@PAV?$Goal@VRaven_Bot@@@@@std@@@std@@QAEAAPAV?$Goal@VRaven_Bot@@@@XZ DD 019930522H
	DD	01H
	DD	FLAT:__unwindtable$?front@?$list@PAV?$Goal@VRaven_Bot@@@@V?$allocator@PAV?$Goal@VRaven_Bot@@@@@std@@@std@@QAEAAPAV?$Goal@VRaven_Bot@@@@XZ
	DD	2 DUP(00H)
	DD	2 DUP(00H)
	DD	00H
	DD	01H
xdata$x	ENDS
;	COMDAT xdata$x
xdata$x	SEGMENT
__ehfuncinfo$?rend@?$list@PAV?$Goal@VRaven_Bot@@@@V?$allocator@PAV?$Goal@VRaven_Bot@@@@@std@@@std@@QBE?AV?$reverse_iterator@V?$_List_const_iterator@V?$_List_val@U?$_List_simple_types@PAV?$Goal@VRaven_Bot@@@@@std@@@std@@@std@@@2@XZ DD 019930522H
	DD	00H
	DD	00H
	DD	2 DUP(00H)
	DD	2 DUP(00H)
	DD	00H
	DD	05H
xdata$x	ENDS
;	COMDAT xdata$x
xdata$x	SEGMENT
__ehfuncinfo$?rbegin@?$list@PAV?$Goal@VRaven_Bot@@@@V?$allocator@PAV?$Goal@VRaven_Bot@@@@@std@@@std@@QBE?AV?$reverse_iterator@V?$_List_const_iterator@V?$_List_val@U?$_List_simple_types@PAV?$Goal@VRaven_Bot@@@@@std@@@std@@@std@@@2@XZ DD 019930522H
	DD	00H
	DD	00H
	DD	2 DUP(00H)
	DD	2 DUP(00H)
	DD	00H
	DD	05H
xdata$x	ENDS
;	COMDAT xdata$x
xdata$x	SEGMENT
__ehfuncinfo$?_Make_iter@?$list@PAV?$Goal@VRaven_Bot@@@@V?$allocator@PAV?$Goal@VRaven_Bot@@@@@std@@@std@@QBE?AV?$_List_iterator@V?$_List_val@U?$_List_simple_types@PAV?$Goal@VRaven_Bot@@@@@std@@@std@@@2@V?$_List_const_iterator@V?$_List_val@U?$_List_simple_types@PAV?$Goal@VRaven_Bot@@@@@std@@@std@@@2@@Z DD 019930522H
	DD	00H
	DD	00H
	DD	2 DUP(00H)
	DD	2 DUP(00H)
	DD	00H
	DD	05H
xdata$x	ENDS
;	COMDAT xdata$x
xdata$x	SEGMENT
__ehfuncinfo$?end@?$list@PAV?$Goal@VRaven_Bot@@@@V?$allocator@PAV?$Goal@VRaven_Bot@@@@@std@@@std@@QBE?AV?$_List_const_iterator@V?$_List_val@U?$_List_simple_types@PAV?$Goal@VRaven_Bot@@@@@std@@@std@@@2@XZ DD 019930522H
	DD	00H
	DD	00H
	DD	2 DUP(00H)
	DD	2 DUP(00H)
	DD	00H
	DD	05H
xdata$x	ENDS
;	COMDAT xdata$x
xdata$x	SEGMENT
__ehfuncinfo$?end@?$list@PAV?$Goal@VRaven_Bot@@@@V?$allocator@PAV?$Goal@VRaven_Bot@@@@@std@@@std@@QAE?AV?$_List_iterator@V?$_List_val@U?$_List_simple_types@PAV?$Goal@VRaven_Bot@@@@@std@@@std@@@2@XZ DD 019930522H
	DD	00H
	DD	00H
	DD	2 DUP(00H)
	DD	2 DUP(00H)
	DD	00H
	DD	05H
xdata$x	ENDS
;	COMDAT xdata$x
xdata$x	SEGMENT
__ehfuncinfo$?begin@?$list@PAV?$Goal@VRaven_Bot@@@@V?$allocator@PAV?$Goal@VRaven_Bot@@@@@std@@@std@@QBE?AV?$_List_const_iterator@V?$_List_val@U?$_List_simple_types@PAV?$Goal@VRaven_Bot@@@@@std@@@std@@@2@XZ DD 019930522H
	DD	00H
	DD	00H
	DD	2 DUP(00H)
	DD	2 DUP(00H)
	DD	00H
	DD	05H
xdata$x	ENDS
;	COMDAT xdata$x
xdata$x	SEGMENT
__ehfuncinfo$?begin@?$list@PAV?$Goal@VRaven_Bot@@@@V?$allocator@PAV?$Goal@VRaven_Bot@@@@@std@@@std@@QAE?AV?$_List_iterator@V?$_List_val@U?$_List_simple_types@PAV?$Goal@VRaven_Bot@@@@@std@@@std@@@2@XZ DD 019930522H
	DD	00H
	DD	00H
	DD	2 DUP(00H)
	DD	2 DUP(00H)
	DD	00H
	DD	05H
xdata$x	ENDS
;	COMDAT xdata$x
xdata$x	SEGMENT
__ehfuncinfo$??1?$list@PAV?$Goal@VRaven_Bot@@@@V?$allocator@PAV?$Goal@VRaven_Bot@@@@@std@@@std@@QAE@XZ DD 019930522H
	DD	00H
	DD	00H
	DD	2 DUP(00H)
	DD	2 DUP(00H)
	DD	00H
	DD	05H
xdata$x	ENDS
;	COMDAT xdata$x
xdata$x	SEGMENT
__catchsym$?_Buynode0@?$_List_alloc@U?$_List_base_types@PAV?$Goal@VRaven_Bot@@@@V?$allocator@PAV?$Goal@VRaven_Bot@@@@@std@@@std@@@std@@QAEPAU?$_List_node@PAV?$Goal@VRaven_Bot@@@@PAX@2@PAU32@0@Z$2 DD 040H
	DD	00H
	DD	00H
	DD	FLAT:__catch$?_Buynode0@?$_List_alloc@U?$_List_base_types@PAV?$Goal@VRaven_Bot@@@@V?$allocator@PAV?$Goal@VRaven_Bot@@@@@std@@@std@@@std@@QAEPAU?$_List_node@PAV?$Goal@VRaven_Bot@@@@PAX@2@PAU32@0@Z$0
__unwindtable$?_Buynode0@?$_List_alloc@U?$_List_base_types@PAV?$Goal@VRaven_Bot@@@@V?$allocator@PAV?$Goal@VRaven_Bot@@@@@std@@@std@@@std@@QAEPAU?$_List_node@PAV?$Goal@VRaven_Bot@@@@PAX@2@PAU32@0@Z DD 0ffffffffH
	DD	00H
	DD	0ffffffffH
	DD	00H
__tryblocktable$?_Buynode0@?$_List_alloc@U?$_List_base_types@PAV?$Goal@VRaven_Bot@@@@V?$allocator@PAV?$Goal@VRaven_Bot@@@@@std@@@std@@@std@@QAEPAU?$_List_node@PAV?$Goal@VRaven_Bot@@@@PAX@2@PAU32@0@Z DD 00H
	DD	00H
	DD	01H
	DD	01H
	DD	FLAT:__catchsym$?_Buynode0@?$_List_alloc@U?$_List_base_types@PAV?$Goal@VRaven_Bot@@@@V?$allocator@PAV?$Goal@VRaven_Bot@@@@@std@@@std@@@std@@QAEPAU?$_List_node@PAV?$Goal@VRaven_Bot@@@@PAX@2@PAU32@0@Z$2
__ehfuncinfo$?_Buynode0@?$_List_alloc@U?$_List_base_types@PAV?$Goal@VRaven_Bot@@@@V?$allocator@PAV?$Goal@VRaven_Bot@@@@@std@@@std@@@std@@QAEPAU?$_List_node@PAV?$Goal@VRaven_Bot@@@@PAX@2@PAU32@0@Z DD 019930522H
	DD	02H
	DD	FLAT:__unwindtable$?_Buynode0@?$_List_alloc@U?$_List_base_types@PAV?$Goal@VRaven_Bot@@@@V?$allocator@PAV?$Goal@VRaven_Bot@@@@@std@@@std@@@std@@QAEPAU?$_List_node@PAV?$Goal@VRaven_Bot@@@@PAX@2@PAU32@0@Z
	DD	01H
	DD	FLAT:__tryblocktable$?_Buynode0@?$_List_alloc@U?$_List_base_types@PAV?$Goal@VRaven_Bot@@@@V?$allocator@PAV?$Goal@VRaven_Bot@@@@@std@@@std@@@std@@QAEPAU?$_List_node@PAV?$Goal@VRaven_Bot@@@@PAX@2@PAU32@0@Z
	DD	2 DUP(00H)
	DD	00H
	DD	01H
xdata$x	ENDS
;	COMDAT xdata$x
xdata$x	SEGMENT
__ehfuncinfo$??1?$_List_alloc@U?$_List_base_types@PAV?$Goal@VRaven_Bot@@@@V?$allocator@PAV?$Goal@VRaven_Bot@@@@@std@@@std@@@std@@QAE@XZ DD 019930522H
	DD	00H
	DD	00H
	DD	2 DUP(00H)
	DD	2 DUP(00H)
	DD	00H
	DD	05H
xdata$x	ENDS
;	COMDAT xdata$x
xdata$x	SEGMENT
__catchsym$??0?$_List_alloc@U?$_List_base_types@PAV?$Goal@VRaven_Bot@@@@V?$allocator@PAV?$Goal@VRaven_Bot@@@@@std@@@std@@@std@@QAE@XZ$2 DD 040H
	DD	00H
	DD	00H
	DD	FLAT:__catch$??0?$_List_alloc@U?$_List_base_types@PAV?$Goal@VRaven_Bot@@@@V?$allocator@PAV?$Goal@VRaven_Bot@@@@@std@@@std@@@std@@QAE@XZ$0
__unwindtable$??0?$_List_alloc@U?$_List_base_types@PAV?$Goal@VRaven_Bot@@@@V?$allocator@PAV?$Goal@VRaven_Bot@@@@@std@@@std@@@std@@QAE@XZ DD 0ffffffffH
	DD	00H
	DD	0ffffffffH
	DD	00H
__tryblocktable$??0?$_List_alloc@U?$_List_base_types@PAV?$Goal@VRaven_Bot@@@@V?$allocator@PAV?$Goal@VRaven_Bot@@@@@std@@@std@@@std@@QAE@XZ DD 00H
	DD	00H
	DD	01H
	DD	01H
	DD	FLAT:__catchsym$??0?$_List_alloc@U?$_List_base_types@PAV?$Goal@VRaven_Bot@@@@V?$allocator@PAV?$Goal@VRaven_Bot@@@@@std@@@std@@@std@@QAE@XZ$2
__ehfuncinfo$??0?$_List_alloc@U?$_List_base_types@PAV?$Goal@VRaven_Bot@@@@V?$allocator@PAV?$Goal@VRaven_Bot@@@@@std@@@std@@@std@@QAE@XZ DD 019930522H
	DD	02H
	DD	FLAT:__unwindtable$??0?$_List_alloc@U?$_List_base_types@PAV?$Goal@VRaven_Bot@@@@V?$allocator@PAV?$Goal@VRaven_Bot@@@@@std@@@std@@@std@@QAE@XZ
	DD	01H
	DD	FLAT:__tryblocktable$??0?$_List_alloc@U?$_List_base_types@PAV?$Goal@VRaven_Bot@@@@V?$allocator@PAV?$Goal@VRaven_Bot@@@@@std@@@std@@@std@@QAE@XZ
	DD	2 DUP(00H)
	DD	00H
	DD	01H
xdata$x	ENDS
;	COMDAT xdata$x
xdata$x	SEGMENT
__unwindtable$?RenderAtPos@?$Goal@VRaven_Bot@@@@UBEXAAUVector2D@@PAVTypeToString@@@Z DD 0ffffffffH
	DD	FLAT:__unwindfunclet$?RenderAtPos@?$Goal@VRaven_Bot@@@@UBEXAAUVector2D@@PAVTypeToString@@@Z$0
__ehfuncinfo$?RenderAtPos@?$Goal@VRaven_Bot@@@@UBEXAAUVector2D@@PAVTypeToString@@@Z DD 019930522H
	DD	01H
	DD	FLAT:__unwindtable$?RenderAtPos@?$Goal@VRaven_Bot@@@@UBEXAAUVector2D@@PAVTypeToString@@@Z
	DD	2 DUP(00H)
	DD	2 DUP(00H)
	DD	00H
	DD	01H
xdata$x	ENDS
;	COMDAT xdata$x
xdata$x	SEGMENT
__ehfuncinfo$?c_str@?$basic_string@DU?$char_traits@D@std@@V?$allocator@D@2@@std@@QBEPBDXZ DD 019930522H
	DD	00H
	DD	00H
	DD	2 DUP(00H)
	DD	2 DUP(00H)
	DD	00H
	DD	05H
xdata$x	ENDS
;	COMDAT xdata$x
xdata$x	SEGMENT
__ehfuncinfo$??1?$basic_string@DU?$char_traits@D@std@@V?$allocator@D@2@@std@@QAE@XZ DD 019930522H
	DD	00H
	DD	00H
	DD	2 DUP(00H)
	DD	2 DUP(00H)
	DD	00H
	DD	05H
xdata$x	ENDS
;	COMDAT xdata$x
xdata$x	SEGMENT
__ehfuncinfo$??1?$_String_alloc@U?$_String_base_types@DV?$allocator@D@std@@@std@@@std@@QAE@XZ DD 019930522H
	DD	00H
	DD	00H
	DD	2 DUP(00H)
	DD	2 DUP(00H)
	DD	00H
	DD	05H
xdata$x	ENDS
;	COMDAT xdata$x
xdata$x	SEGMENT
__ehfuncinfo$?_Adopt@_Iterator_base12@std@@QAEXPBU_Container_base12@2@@Z DD 019930522H
	DD	00H
	DD	00H
	DD	2 DUP(00H)
	DD	2 DUP(00H)
	DD	00H
	DD	05H
xdata$x	ENDS
;	COMDAT xdata$x
xdata$x	SEGMENT
__ehfuncinfo$??1_Iterator_base12@std@@QAE@XZ DD 019930522H
	DD	00H
	DD	00H
	DD	2 DUP(00H)
	DD	2 DUP(00H)
	DD	00H
	DD	05H
xdata$x	ENDS
;	COMDAT xdata$x
xdata$x	SEGMENT
__ehfuncinfo$??4_Iterator_base12@std@@QAEAAU01@ABU01@@Z DD 019930522H
	DD	00H
	DD	00H
	DD	2 DUP(00H)
	DD	2 DUP(00H)
	DD	00H
	DD	05H
xdata$x	ENDS
;	COMDAT xdata$x
xdata$x	SEGMENT
__ehfuncinfo$?_Orphan_all@_Container_base12@std@@QAEXXZ DD 019930522H
	DD	00H
	DD	00H
	DD	2 DUP(00H)
	DD	2 DUP(00H)
	DD	00H
	DD	05H
xdata$x	ENDS
CRT$XCU	SEGMENT
?MaxDouble$initializer$@@3P6AXXZA DD FLAT:??__EMaxDouble@@YAXXZ ; MaxDouble$initializer$
CRT$XCU	ENDS
CRT$XCU	SEGMENT
?MinDouble$initializer$@@3P6AXXZA DD FLAT:??__EMinDouble@@YAXXZ ; MinDouble$initializer$
CRT$XCU	ENDS
CRT$XCU	SEGMENT
?MaxFloat$initializer$@@3P6AXXZA DD FLAT:??__EMaxFloat@@YAXXZ ; MaxFloat$initializer$
CRT$XCU	ENDS
CRT$XCU	SEGMENT
?MinFloat$initializer$@@3P6AXXZA DD FLAT:??__EMinFloat@@YAXXZ ; MinFloat$initializer$
CRT$XCU	ENDS
;	COMDAT CRT$XCU
CRT$XCU	SEGMENT
??id$initializer$@?$collate@D@std@@2P6AXXZA@@3P6AXXZA DD FLAT:??__E?id@?$collate@D@std@@2V0locale@2@A@@YAXXZ ; ??id$initializer$@?$collate@D@std@@2P6AXXZA@@3P6AXXZA
CRT$XCU	ENDS
;	COMDAT CRT$XCU
CRT$XCU	SEGMENT
??id$initializer$@?$codecvt@DDU_Mbstatet@@@std@@2P6AXXZA@@3P6AXXZA DD FLAT:??__E?id@?$codecvt@DDU_Mbstatet@@@std@@2V0locale@2@A@@YAXXZ ; ??id$initializer$@?$codecvt@DDU_Mbstatet@@@std@@2P6AXXZA@@3P6AXXZA
CRT$XCU	ENDS
; Function compile flags: /Odtp /RTCsu
; File c:\program files (x86)\microsoft visual studio\2017\community\vc\tools\msvc\14.15.26726\include\xmemory0
;	COMDAT ??$construct@PAV?$Goal@VRaven_Bot@@@@ABQAV1@@?$_Default_allocator_traits@V?$allocator@U?$_List_node@PAV?$Goal@VRaven_Bot@@@@PAX@std@@@std@@@std@@SAXAAV?$allocator@U?$_List_node@PAV?$Goal@VRaven_Bot@@@@PAX@std@@@1@QAPAV?$Goal@VRaven_Bot@@@@ABQAV3@@Z
_TEXT	SEGMENT
$T1 = -4						; size = 4
___formal$ = 8						; size = 4
__Ptr$ = 12						; size = 4
_<_Args_0>$ = 16					; size = 4
??$construct@PAV?$Goal@VRaven_Bot@@@@ABQAV1@@?$_Default_allocator_traits@V?$allocator@U?$_List_node@PAV?$Goal@VRaven_Bot@@@@PAX@std@@@std@@@std@@SAXAAV?$allocator@U?$_List_node@PAV?$Goal@VRaven_Bot@@@@PAX@std@@@1@QAPAV?$Goal@VRaven_Bot@@@@ABQAV3@@Z PROC ; std::_Default_allocator_traits<std::allocator<std::_List_node<Goal<Raven_Bot> *,void *> > >::construct<Goal<Raven_Bot> *,Goal<Raven_Bot> * const &>, COMDAT

; 879  : 		{	// construct _Objty(_Types...) at _Ptr

	push	ebp
	mov	ebp, esp
	push	ecx
	mov	DWORD PTR [ebp-4], -858993460		; ccccccccH

; 880  : 		::new (const_cast<void *>(static_cast<const volatile void *>(_Ptr)))

	mov	eax, DWORD PTR __Ptr$[ebp]
	push	eax
	push	4
	call	??2@YAPAXIPAX@Z				; operator new
	add	esp, 8
	mov	DWORD PTR $T1[ebp], eax
	mov	ecx, DWORD PTR _<_Args_0>$[ebp]
	push	ecx
	call	??$forward@ABQAV?$Goal@VRaven_Bot@@@@@std@@YAABQAV?$Goal@VRaven_Bot@@@@ABQAV1@@Z ; std::forward<Goal<Raven_Bot> * const &>
	add	esp, 4
	mov	edx, DWORD PTR $T1[ebp]
	mov	eax, DWORD PTR [eax]
	mov	DWORD PTR [edx], eax

; 881  : 			_Objty(_STD forward<_Types>(_Args)...);
; 882  : 		}

	add	esp, 4
	cmp	ebp, esp
	call	__RTC_CheckEsp
	mov	esp, ebp
	pop	ebp
	ret	0
??$construct@PAV?$Goal@VRaven_Bot@@@@ABQAV1@@?$_Default_allocator_traits@V?$allocator@U?$_List_node@PAV?$Goal@VRaven_Bot@@@@PAX@std@@@std@@@std@@SAXAAV?$allocator@U?$_List_node@PAV?$Goal@VRaven_Bot@@@@PAX@std@@@1@QAPAV?$Goal@VRaven_Bot@@@@ABQAV3@@Z ENDP ; std::_Default_allocator_traits<std::allocator<std::_List_node<Goal<Raven_Bot> *,void *> > >::construct<Goal<Raven_Bot> *,Goal<Raven_Bot> * const &>
_TEXT	ENDS
; Function compile flags: /Odtp /RTCsu
; File c:\program files (x86)\microsoft visual studio\2017\community\vc\tools\msvc\14.15.26726\include\xutility
;	COMDAT ??$_Copy_memmove@PAPAVGoal_Evaluator@@PAPAV1@@std@@YAPAPAVGoal_Evaluator@@PAPAV1@00@Z
_TEXT	SEGMENT
__Count$ = -16						; size = 4
__Dest_ch$ = -12					; size = 4
__Last_ch$ = -8						; size = 4
__First_ch$ = -4					; size = 4
__First$ = 8						; size = 4
__Last$ = 12						; size = 4
__Dest$ = 16						; size = 4
??$_Copy_memmove@PAPAVGoal_Evaluator@@PAPAV1@@std@@YAPAPAVGoal_Evaluator@@PAPAV1@00@Z PROC ; std::_Copy_memmove<Goal_Evaluator * *,Goal_Evaluator * *>, COMDAT

; 2398 : 	{	// implement copy-like function as memmove

	push	ebp
	mov	ebp, esp
	sub	esp, 16					; 00000010H
	mov	eax, -858993460				; ccccccccH
	mov	DWORD PTR [ebp-16], eax
	mov	DWORD PTR [ebp-12], eax
	mov	DWORD PTR [ebp-8], eax
	mov	DWORD PTR [ebp-4], eax

; 2399 : 	const char * const _First_ch = const_cast<const char *>(reinterpret_cast<const volatile char *>(_First));

	mov	eax, DWORD PTR __First$[ebp]
	mov	DWORD PTR __First_ch$[ebp], eax

; 2400 : 	const char * const _Last_ch = const_cast<const char *>(reinterpret_cast<const volatile char *>(_Last));

	mov	ecx, DWORD PTR __Last$[ebp]
	mov	DWORD PTR __Last_ch$[ebp], ecx

; 2401 : 	char * const _Dest_ch = const_cast<char *>(reinterpret_cast<volatile char *>(_Dest));

	mov	edx, DWORD PTR __Dest$[ebp]
	mov	DWORD PTR __Dest_ch$[ebp], edx

; 2402 : 	const auto _Count = static_cast<size_t>(_Last_ch - _First_ch);

	mov	eax, DWORD PTR __Last_ch$[ebp]
	sub	eax, DWORD PTR __First_ch$[ebp]
	mov	DWORD PTR __Count$[ebp], eax

; 2403 : 	_CSTD memmove(_Dest_ch, _First_ch, _Count);

	mov	ecx, DWORD PTR __Count$[ebp]
	push	ecx
	mov	edx, DWORD PTR __First_ch$[ebp]
	push	edx
	mov	eax, DWORD PTR __Dest_ch$[ebp]
	push	eax
	call	_memmove
	add	esp, 12					; 0000000cH

; 2404 : 	return (reinterpret_cast<_OutIt>(_Dest_ch + _Count));

	mov	eax, DWORD PTR __Dest_ch$[ebp]
	add	eax, DWORD PTR __Count$[ebp]

; 2405 : 	}

	add	esp, 16					; 00000010H
	cmp	ebp, esp
	call	__RTC_CheckEsp
	mov	esp, ebp
	pop	ebp
	ret	0
??$_Copy_memmove@PAPAVGoal_Evaluator@@PAPAV1@@std@@YAPAPAVGoal_Evaluator@@PAPAV1@00@Z ENDP ; std::_Copy_memmove<Goal_Evaluator * *,Goal_Evaluator * *>
_TEXT	ENDS
; Function compile flags: /Odtp /RTCsu
; File c:\program files (x86)\microsoft visual studio\2017\community\vc\tools\msvc\14.15.26726\include\list
;	COMDAT ??$_Buynode@ABQAV?$Goal@VRaven_Bot@@@@@?$_List_buy@PAV?$Goal@VRaven_Bot@@@@V?$allocator@PAV?$Goal@VRaven_Bot@@@@@std@@@std@@QAEPAU?$_List_node@PAV?$Goal@VRaven_Bot@@@@PAX@1@PAU21@0ABQAV?$Goal@VRaven_Bot@@@@@Z
_TEXT	SEGMENT
__Al$ = -28						; size = 4
__Pnode$ = -24						; size = 4
_this$ = -20						; size = 4
__$EHRec$ = -16						; size = 16
__Next$ = 8						; size = 4
__Prev$ = 12						; size = 4
_<_Val_0>$ = 16						; size = 4
??$_Buynode@ABQAV?$Goal@VRaven_Bot@@@@@?$_List_buy@PAV?$Goal@VRaven_Bot@@@@V?$allocator@PAV?$Goal@VRaven_Bot@@@@@std@@@std@@QAEPAU?$_List_node@PAV?$Goal@VRaven_Bot@@@@PAX@1@PAU21@0ABQAV?$Goal@VRaven_Bot@@@@@Z PROC ; std::_List_buy<Goal<Raven_Bot> *,std::allocator<Goal<Raven_Bot> *> >::_Buynode<Goal<Raven_Bot> * const &>, COMDAT
; _this$ = ecx

; 711  : 		{	// allocate a node and set links and value

	push	ebp
	mov	ebp, esp
	push	-1
	push	__ehhandler$??$_Buynode@ABQAV?$Goal@VRaven_Bot@@@@@?$_List_buy@PAV?$Goal@VRaven_Bot@@@@V?$allocator@PAV?$Goal@VRaven_Bot@@@@@std@@@std@@QAEPAU?$_List_node@PAV?$Goal@VRaven_Bot@@@@PAX@1@PAU21@0ABQAV?$Goal@VRaven_Bot@@@@@Z
	mov	eax, DWORD PTR fs:0
	push	eax
	push	ecx
	sub	esp, 12					; 0000000cH
	push	ebx
	push	esi
	push	edi
	mov	DWORD PTR [ebp-28], -858993460		; ccccccccH
	mov	DWORD PTR [ebp-24], -858993460		; ccccccccH
	mov	DWORD PTR [ebp-20], -858993460		; ccccccccH
	mov	eax, DWORD PTR ___security_cookie
	xor	eax, ebp
	push	eax
	lea	eax, DWORD PTR __$EHRec$[ebp+4]
	mov	DWORD PTR fs:0, eax
	mov	DWORD PTR __$EHRec$[ebp], esp
	mov	DWORD PTR _this$[ebp], ecx

; 712  : 		_Nodeptr _Pnode = this->_Buynode0(_Next, _Prev);

	mov	eax, DWORD PTR __Prev$[ebp]
	push	eax
	mov	ecx, DWORD PTR __Next$[ebp]
	push	ecx
	mov	ecx, DWORD PTR _this$[ebp]
	call	?_Buynode0@?$_List_alloc@U?$_List_base_types@PAV?$Goal@VRaven_Bot@@@@V?$allocator@PAV?$Goal@VRaven_Bot@@@@@std@@@std@@@std@@QAEPAU?$_List_node@PAV?$Goal@VRaven_Bot@@@@PAX@2@PAU32@0@Z ; std::_List_alloc<std::_List_base_types<Goal<Raven_Bot> *,std::allocator<Goal<Raven_Bot> *> > >::_Buynode0
	mov	DWORD PTR __Pnode$[ebp], eax

; 713  : 		_Alnode& _Al = this->_Getal();

	mov	ecx, DWORD PTR _this$[ebp]
	call	?_Getal@?$_List_alloc@U?$_List_base_types@PAV?$Goal@VRaven_Bot@@@@V?$allocator@PAV?$Goal@VRaven_Bot@@@@@std@@@std@@@std@@QAEAAV?$allocator@U?$_List_node@PAV?$Goal@VRaven_Bot@@@@PAX@std@@@2@XZ ; std::_List_alloc<std::_List_base_types<Goal<Raven_Bot> *,std::allocator<Goal<Raven_Bot> *> > >::_Getal
	mov	DWORD PTR __Al$[ebp], eax

; 714  : 
; 715  : 		_TRY_BEGIN

	mov	DWORD PTR __$EHRec$[ebp+12], 0

; 716  : 		_Alnode_traits::construct(_Al,

	mov	edx, DWORD PTR _<_Val_0>$[ebp]
	push	edx
	call	??$forward@ABQAV?$Goal@VRaven_Bot@@@@@std@@YAABQAV?$Goal@VRaven_Bot@@@@ABQAV1@@Z ; std::forward<Goal<Raven_Bot> * const &>
	add	esp, 4
	push	eax
	mov	eax, DWORD PTR __Pnode$[ebp]
	add	eax, 8
	push	eax
	call	??$addressof@PAV?$Goal@VRaven_Bot@@@@@std@@YAPAPAV?$Goal@VRaven_Bot@@@@AAPAV1@@Z ; std::addressof<Goal<Raven_Bot> *>
	add	esp, 4
	push	eax
	mov	ecx, DWORD PTR __Al$[ebp]
	push	ecx
	call	??$construct@PAV?$Goal@VRaven_Bot@@@@ABQAV1@@?$_Default_allocator_traits@V?$allocator@U?$_List_node@PAV?$Goal@VRaven_Bot@@@@PAX@std@@@std@@@std@@SAXAAV?$allocator@U?$_List_node@PAV?$Goal@VRaven_Bot@@@@PAX@std@@@1@QAPAV?$Goal@VRaven_Bot@@@@ABQAV3@@Z ; std::_Default_allocator_traits<std::allocator<std::_List_node<Goal<Raven_Bot> *,void *> > >::construct<Goal<Raven_Bot> *,Goal<Raven_Bot> * const &>
	add	esp, 12					; 0000000cH
	jmp	SHORT $LN4@Buynode
__catch$??$_Buynode@ABQAV?$Goal@VRaven_Bot@@@@@?$_List_buy@PAV?$Goal@VRaven_Bot@@@@V?$allocator@PAV?$Goal@VRaven_Bot@@@@@std@@@std@@QAEPAU?$_List_node@PAV?$Goal@VRaven_Bot@@@@PAX@1@PAU21@0ABQAV?$Goal@VRaven_Bot@@@@@Z$0:

; 717  : 			_STD addressof(_Pnode->_Myval),
; 718  : 			_STD forward<_Valty>(_Val)...);
; 719  : 		_CATCH_ALL
; 720  : 		_Al.deallocate(_Pnode, 1);

	push	1
	mov	edx, DWORD PTR __Pnode$[ebp]
	push	edx
	mov	ecx, DWORD PTR __Al$[ebp]
	call	?deallocate@?$allocator@U?$_List_node@PAV?$Goal@VRaven_Bot@@@@PAX@std@@@std@@QAEXQAU?$_List_node@PAV?$Goal@VRaven_Bot@@@@PAX@2@I@Z ; std::allocator<std::_List_node<Goal<Raven_Bot> *,void *> >::deallocate

; 721  : 		_RERAISE;

	push	0
	push	0
	call	__CxxThrowException@8

; 722  : 		_CATCH_END

	mov	eax, $LN7@Buynode
	ret	0
$LN4@Buynode:
	mov	DWORD PTR __$EHRec$[ebp+12], -1
	jmp	SHORT __tryend$??$_Buynode@ABQAV?$Goal@VRaven_Bot@@@@@?$_List_buy@PAV?$Goal@VRaven_Bot@@@@V?$allocator@PAV?$Goal@VRaven_Bot@@@@@std@@@std@@QAEPAU?$_List_node@PAV?$Goal@VRaven_Bot@@@@PAX@1@PAU21@0ABQAV?$Goal@VRaven_Bot@@@@@Z$1
$LN7@Buynode:
	mov	DWORD PTR __$EHRec$[ebp+12], -1
__tryend$??$_Buynode@ABQAV?$Goal@VRaven_Bot@@@@@?$_List_buy@PAV?$Goal@VRaven_Bot@@@@V?$allocator@PAV?$Goal@VRaven_Bot@@@@@std@@@std@@QAEPAU?$_List_node@PAV?$Goal@VRaven_Bot@@@@PAX@1@PAU21@0ABQAV?$Goal@VRaven_Bot@@@@@Z$1:

; 723  : 
; 724  : 		return (_Pnode);

	mov	eax, DWORD PTR __Pnode$[ebp]
$LN3@Buynode:

; 725  : 		}

	mov	ecx, DWORD PTR __$EHRec$[ebp+4]
	mov	DWORD PTR fs:0, ecx
	pop	ecx
	pop	edi
	pop	esi
	pop	ebx
	add	esp, 28					; 0000001cH
	cmp	ebp, esp
	call	__RTC_CheckEsp
	mov	esp, ebp
	pop	ebp
	ret	12					; 0000000cH
_TEXT	ENDS
;	COMDAT text$x
text$x	SEGMENT
__ehhandler$??$_Buynode@ABQAV?$Goal@VRaven_Bot@@@@@?$_List_buy@PAV?$Goal@VRaven_Bot@@@@V?$allocator@PAV?$Goal@VRaven_Bot@@@@@std@@@std@@QAEPAU?$_List_node@PAV?$Goal@VRaven_Bot@@@@PAX@1@PAU21@0ABQAV?$Goal@VRaven_Bot@@@@@Z:
	mov	edx, DWORD PTR [esp+8]
	lea	eax, DWORD PTR [edx+12]
	mov	ecx, DWORD PTR [edx-32]
	xor	ecx, eax
	call	@__security_check_cookie@4
	mov	eax, OFFSET __ehfuncinfo$??$_Buynode@ABQAV?$Goal@VRaven_Bot@@@@@?$_List_buy@PAV?$Goal@VRaven_Bot@@@@V?$allocator@PAV?$Goal@VRaven_Bot@@@@@std@@@std@@QAEPAU?$_List_node@PAV?$Goal@VRaven_Bot@@@@PAX@1@PAU21@0ABQAV?$Goal@VRaven_Bot@@@@@Z
	jmp	___CxxFrameHandler3
text$x	ENDS
??$_Buynode@ABQAV?$Goal@VRaven_Bot@@@@@?$_List_buy@PAV?$Goal@VRaven_Bot@@@@V?$allocator@PAV?$Goal@VRaven_Bot@@@@@std@@@std@@QAEPAU?$_List_node@PAV?$Goal@VRaven_Bot@@@@PAX@1@PAU21@0ABQAV?$Goal@VRaven_Bot@@@@@Z ENDP ; std::_List_buy<Goal<Raven_Bot> *,std::allocator<Goal<Raven_Bot> *> >::_Buynode<Goal<Raven_Bot> * const &>
; Function compile flags: /Odtp /RTCsu
; File c:\program files (x86)\microsoft visual studio\2017\community\vc\tools\msvc\14.15.26726\include\type_traits
;	COMDAT ??$forward@ABQAV?$Goal@VRaven_Bot@@@@@std@@YAABQAV?$Goal@VRaven_Bot@@@@ABQAV1@@Z
_TEXT	SEGMENT
__Arg$ = 8						; size = 4
??$forward@ABQAV?$Goal@VRaven_Bot@@@@@std@@YAABQAV?$Goal@VRaven_Bot@@@@ABQAV1@@Z PROC ; std::forward<Goal<Raven_Bot> * const &>, COMDAT

; 1573 : 	{	// forward an lvalue as either an lvalue or an rvalue

	push	ebp
	mov	ebp, esp

; 1574 : 	return (static_cast<_Ty&&>(_Arg));

	mov	eax, DWORD PTR __Arg$[ebp]

; 1575 : 	}

	pop	ebp
	ret	0
??$forward@ABQAV?$Goal@VRaven_Bot@@@@@std@@YAABQAV?$Goal@VRaven_Bot@@@@ABQAV1@@Z ENDP ; std::forward<Goal<Raven_Bot> * const &>
_TEXT	ENDS
; Function compile flags: /Odtp /RTCsu
; File c:\program files (x86)\microsoft visual studio\2017\community\vc\tools\msvc\14.15.26726\include\xutility
;	COMDAT ??$_Seek_wrapped@PAVGoal_Evaluator@@@std@@YAXAAPAPAVGoal_Evaluator@@QAPAV1@@Z
_TEXT	SEGMENT
__It$ = 8						; size = 4
__UIt$ = 12						; size = 4
??$_Seek_wrapped@PAVGoal_Evaluator@@@std@@YAXAAPAPAVGoal_Evaluator@@QAPAV1@@Z PROC ; std::_Seek_wrapped<Goal_Evaluator *>, COMDAT

; 871  : 	{

	push	ebp
	mov	ebp, esp

; 872  : 	_It = _UIt;

	mov	eax, DWORD PTR __It$[ebp]
	mov	ecx, DWORD PTR __UIt$[ebp]
	mov	DWORD PTR [eax], ecx

; 873  : 	}

	pop	ebp
	ret	0
??$_Seek_wrapped@PAVGoal_Evaluator@@@std@@YAXAAPAPAVGoal_Evaluator@@QAPAV1@@Z ENDP ; std::_Seek_wrapped<Goal_Evaluator *>
_TEXT	ENDS
; Function compile flags: /Odtp /RTCsu
; File c:\program files (x86)\microsoft visual studio\2017\community\vc\tools\msvc\14.15.26726\include\xmemory
;	COMDAT ??$_Uninitialized_move_al_unchecked@PAVGoal_Evaluator@@PAV1@V?$allocator@PAVGoal_Evaluator@@@std@@@std@@YAPAPAVGoal_Evaluator@@QAPAV1@00AAV?$allocator@PAVGoal_Evaluator@@@0@U_Really_trivial_ptr_iterator_tag@0@U?$integral_constant@_N$00@0@@Z
_TEXT	SEGMENT
__First$ = 8						; size = 4
__Last$ = 12						; size = 4
__Dest$ = 16						; size = 4
___formal$ = 20						; size = 4
___formal$ = 24						; size = 1
___formal$ = 28						; size = 1
??$_Uninitialized_move_al_unchecked@PAVGoal_Evaluator@@PAV1@V?$allocator@PAVGoal_Evaluator@@@std@@@std@@YAPAPAVGoal_Evaluator@@QAPAV1@00AAV?$allocator@PAVGoal_Evaluator@@@0@U_Really_trivial_ptr_iterator_tag@0@U?$integral_constant@_N$00@0@@Z PROC ; std::_Uninitialized_move_al_unchecked<Goal_Evaluator *,Goal_Evaluator *,std::allocator<Goal_Evaluator *> >, COMDAT

; 243  : 	{	// move [_First, _Last) to raw _Dest, using default _Alloc construct, memmove optimization

	push	ebp
	mov	ebp, esp

; 244  : 	return (_Copy_memmove(_First, _Last, _Dest));

	mov	eax, DWORD PTR __Dest$[ebp]
	push	eax
	mov	ecx, DWORD PTR __Last$[ebp]
	push	ecx
	mov	edx, DWORD PTR __First$[ebp]
	push	edx
	call	??$_Copy_memmove@PAPAVGoal_Evaluator@@PAPAV1@@std@@YAPAPAVGoal_Evaluator@@PAPAV1@00@Z ; std::_Copy_memmove<Goal_Evaluator * *,Goal_Evaluator * *>
	add	esp, 12					; 0000000cH

; 245  : 	}

	cmp	ebp, esp
	call	__RTC_CheckEsp
	pop	ebp
	ret	0
??$_Uninitialized_move_al_unchecked@PAVGoal_Evaluator@@PAV1@V?$allocator@PAVGoal_Evaluator@@@std@@@std@@YAPAPAVGoal_Evaluator@@QAPAV1@00AAV?$allocator@PAVGoal_Evaluator@@@0@U_Really_trivial_ptr_iterator_tag@0@U?$integral_constant@_N$00@0@@Z ENDP ; std::_Uninitialized_move_al_unchecked<Goal_Evaluator *,Goal_Evaluator *,std::allocator<Goal_Evaluator *> >
_TEXT	ENDS
; Function compile flags: /Odtp /RTCsu
; File c:\program files (x86)\microsoft visual studio\2017\community\vc\tools\msvc\14.15.26726\include\xutility
;	COMDAT ??$_Ptr_move_cat@PAVGoal_Evaluator@@PAV1@@std@@YA?AU_Really_trivial_ptr_iterator_tag@0@ABQAPAVGoal_Evaluator@@0@Z
_TEXT	SEGMENT
___$ReturnUdt$ = 8					; size = 4
___formal$ = 12						; size = 4
___formal$ = 16						; size = 4
??$_Ptr_move_cat@PAVGoal_Evaluator@@PAV1@@std@@YA?AU_Really_trivial_ptr_iterator_tag@0@ABQAPAVGoal_Evaluator@@0@Z PROC ; std::_Ptr_move_cat<Goal_Evaluator *,Goal_Evaluator *>, COMDAT

; 1086 : 	{	// return pointer move optimization category for pointers

	push	ebp
	mov	ebp, esp

; 1087 : 	return {};

	mov	eax, DWORD PTR ___$ReturnUdt$[ebp]

; 1088 : 	}

	pop	ebp
	ret	0
??$_Ptr_move_cat@PAVGoal_Evaluator@@PAV1@@std@@YA?AU_Really_trivial_ptr_iterator_tag@0@ABQAPAVGoal_Evaluator@@0@Z ENDP ; std::_Ptr_move_cat<Goal_Evaluator *,Goal_Evaluator *>
_TEXT	ENDS
; Function compile flags: /Odtp /RTCsu
; File c:\program files (x86)\microsoft visual studio\2017\community\vc\tools\msvc\14.15.26726\include\xutility
;	COMDAT ??$_Get_unwrapped_n@PAVGoal_Evaluator@@H$0A@@std@@YAPAPAVGoal_Evaluator@@QAPAV1@H@Z
_TEXT	SEGMENT
__Src$ = 8						; size = 4
___formal$ = 12						; size = 4
??$_Get_unwrapped_n@PAVGoal_Evaluator@@H$0A@@std@@YAPAPAVGoal_Evaluator@@QAPAV1@H@Z PROC ; std::_Get_unwrapped_n<Goal_Evaluator *,int,0>, COMDAT

; 808  : 	{

	push	ebp
	mov	ebp, esp

; 809  : 	return (_Src);

	mov	eax, DWORD PTR __Src$[ebp]

; 810  : 	}

	pop	ebp
	ret	0
??$_Get_unwrapped_n@PAVGoal_Evaluator@@H$0A@@std@@YAPAPAVGoal_Evaluator@@QAPAV1@H@Z ENDP ; std::_Get_unwrapped_n<Goal_Evaluator *,int,0>
_TEXT	ENDS
; Function compile flags: /Odtp /RTCsu
; File c:\program files (x86)\microsoft visual studio\2017\community\vc\tools\msvc\14.15.26726\include\xutility
;	COMDAT ??$_Idl_distance1@PAPAVGoal_Evaluator@@PAPAV1@@std@@YAHABQAPAVGoal_Evaluator@@0Urandom_access_iterator_tag@0@@Z
_TEXT	SEGMENT
__First$ = 8						; size = 4
__Last$ = 12						; size = 4
___formal$ = 16						; size = 1
??$_Idl_distance1@PAPAVGoal_Evaluator@@PAPAV1@@std@@YAHABQAPAVGoal_Evaluator@@0Urandom_access_iterator_tag@0@@Z PROC ; std::_Idl_distance1<Goal_Evaluator * *,Goal_Evaluator * *>, COMDAT

; 967  : 	{	// _Idl_distance for random-access iterators

	push	ebp
	mov	ebp, esp

; 968  : 	return (static_cast<_Iter_diff_t<_Checked>>(_Last - _First));

	mov	eax, DWORD PTR __Last$[ebp]
	mov	ecx, DWORD PTR __First$[ebp]
	mov	eax, DWORD PTR [eax]
	sub	eax, DWORD PTR [ecx]
	sar	eax, 2

; 969  : 	}

	pop	ebp
	ret	0
??$_Idl_distance1@PAPAVGoal_Evaluator@@PAPAV1@@std@@YAHABQAPAVGoal_Evaluator@@0Urandom_access_iterator_tag@0@@Z ENDP ; std::_Idl_distance1<Goal_Evaluator * *,Goal_Evaluator * *>
_TEXT	ENDS
; Function compile flags: /Odtp /RTCsu
; File c:\program files (x86)\microsoft visual studio\2017\community\vc\tools\msvc\14.15.26726\include\xutility
;	COMDAT ??$_Idl_distance@PAPAVGoal_Evaluator@@PAPAV1@@std@@YA@ABQAPAVGoal_Evaluator@@0@Z
_TEXT	SEGMENT
$T1 = -1						; size = 1
__First$ = 8						; size = 4
__Last$ = 12						; size = 4
??$_Idl_distance@PAPAVGoal_Evaluator@@PAPAV1@@std@@YA@ABQAPAVGoal_Evaluator@@0@Z PROC ; std::_Idl_distance<Goal_Evaluator * *,Goal_Evaluator * *>, COMDAT

; 974  : 	{	// tries to get the distance between _First and _Last if they are random-access iterators

	push	ebp
	mov	ebp, esp
	push	ecx
	mov	DWORD PTR [ebp-4], -858993460		; ccccccccH

; 975  : 	return (_Idl_distance1<_Checked>(_First, _Last, _Iter_cat_t<_Iter>()));

	movzx	eax, BYTE PTR $T1[ebp]
	push	eax
	mov	ecx, DWORD PTR __Last$[ebp]
	push	ecx
	mov	edx, DWORD PTR __First$[ebp]
	push	edx
	call	??$_Idl_distance1@PAPAVGoal_Evaluator@@PAPAV1@@std@@YAHABQAPAVGoal_Evaluator@@0Urandom_access_iterator_tag@0@@Z ; std::_Idl_distance1<Goal_Evaluator * *,Goal_Evaluator * *>
	add	esp, 12					; 0000000cH

; 976  : 	}

	add	esp, 4
	cmp	ebp, esp
	call	__RTC_CheckEsp
	mov	esp, ebp
	pop	ebp
	ret	0
??$_Idl_distance@PAPAVGoal_Evaluator@@PAPAV1@@std@@YA@ABQAPAVGoal_Evaluator@@0@Z ENDP ; std::_Idl_distance<Goal_Evaluator * *,Goal_Evaluator * *>
_TEXT	ENDS
; Function compile flags: /Odtp /RTCsu
; File c:\program files (x86)\microsoft visual studio\2017\community\vc\tools\msvc\14.15.26726\include\xutility
;	COMDAT ??$_Get_unwrapped@PAVGoal_Evaluator@@@std@@YAPAPAVGoal_Evaluator@@QAPAV1@@Z
_TEXT	SEGMENT
__Ptr$ = 8						; size = 4
??$_Get_unwrapped@PAVGoal_Evaluator@@@std@@YAPAPAVGoal_Evaluator@@QAPAV1@@Z PROC ; std::_Get_unwrapped<Goal_Evaluator *>, COMDAT

; 662  : 	{	// special case already-unwrapped pointers

	push	ebp
	mov	ebp, esp

; 663  : 	return (_Ptr);

	mov	eax, DWORD PTR __Ptr$[ebp]

; 664  : 	}

	pop	ebp
	ret	0
??$_Get_unwrapped@PAVGoal_Evaluator@@@std@@YAPAPAVGoal_Evaluator@@QAPAV1@@Z ENDP ; std::_Get_unwrapped<Goal_Evaluator *>
_TEXT	ENDS
; Function compile flags: /Odtp /RTCsu
; File c:\program files (x86)\microsoft visual studio\2017\community\vc\tools\msvc\14.15.26726\include\xmemory0
;	COMDAT ??$construct@PAV?$Goal@VRaven_Bot@@@@PAV1@@?$_Default_allocator_traits@V?$allocator@U?$_List_node@PAV?$Goal@VRaven_Bot@@@@PAX@std@@@std@@@std@@SAXAAV?$allocator@U?$_List_node@PAV?$Goal@VRaven_Bot@@@@PAX@std@@@1@QAPAV?$Goal@VRaven_Bot@@@@$$QAPAV3@@Z
_TEXT	SEGMENT
$T1 = -4						; size = 4
___formal$ = 8						; size = 4
__Ptr$ = 12						; size = 4
_<_Args_0>$ = 16					; size = 4
??$construct@PAV?$Goal@VRaven_Bot@@@@PAV1@@?$_Default_allocator_traits@V?$allocator@U?$_List_node@PAV?$Goal@VRaven_Bot@@@@PAX@std@@@std@@@std@@SAXAAV?$allocator@U?$_List_node@PAV?$Goal@VRaven_Bot@@@@PAX@std@@@1@QAPAV?$Goal@VRaven_Bot@@@@$$QAPAV3@@Z PROC ; std::_Default_allocator_traits<std::allocator<std::_List_node<Goal<Raven_Bot> *,void *> > >::construct<Goal<Raven_Bot> *,Goal<Raven_Bot> *>, COMDAT

; 879  : 		{	// construct _Objty(_Types...) at _Ptr

	push	ebp
	mov	ebp, esp
	push	ecx
	mov	DWORD PTR [ebp-4], -858993460		; ccccccccH

; 880  : 		::new (const_cast<void *>(static_cast<const volatile void *>(_Ptr)))

	mov	eax, DWORD PTR __Ptr$[ebp]
	push	eax
	push	4
	call	??2@YAPAXIPAX@Z				; operator new
	add	esp, 8
	mov	DWORD PTR $T1[ebp], eax
	mov	ecx, DWORD PTR _<_Args_0>$[ebp]
	push	ecx
	call	??$forward@PAV?$Goal@VRaven_Bot@@@@@std@@YA$$QAPAV?$Goal@VRaven_Bot@@@@AAPAV1@@Z ; std::forward<Goal<Raven_Bot> *>
	add	esp, 4
	mov	edx, DWORD PTR $T1[ebp]
	mov	eax, DWORD PTR [eax]
	mov	DWORD PTR [edx], eax

; 881  : 			_Objty(_STD forward<_Types>(_Args)...);
; 882  : 		}

	add	esp, 4
	cmp	ebp, esp
	call	__RTC_CheckEsp
	mov	esp, ebp
	pop	ebp
	ret	0
??$construct@PAV?$Goal@VRaven_Bot@@@@PAV1@@?$_Default_allocator_traits@V?$allocator@U?$_List_node@PAV?$Goal@VRaven_Bot@@@@PAX@std@@@std@@@std@@SAXAAV?$allocator@U?$_List_node@PAV?$Goal@VRaven_Bot@@@@PAX@std@@@1@QAPAV?$Goal@VRaven_Bot@@@@$$QAPAV3@@Z ENDP ; std::_Default_allocator_traits<std::allocator<std::_List_node<Goal<Raven_Bot> *,void *> > >::construct<Goal<Raven_Bot> *,Goal<Raven_Bot> *>
_TEXT	ENDS
; Function compile flags: /Odtp /RTCsu
; File c:\program files (x86)\microsoft visual studio\2017\community\vc\tools\msvc\14.15.26726\include\xutility
;	COMDAT ??$?8V?$_List_const_iterator@V?$_List_val@U?$_List_simple_types@PAV?$Goal@VRaven_Bot@@@@@std@@@std@@@std@@V01@@std@@YA_NABV?$reverse_iterator@V?$_List_const_iterator@V?$_List_val@U?$_List_simple_types@PAV?$Goal@VRaven_Bot@@@@@std@@@std@@@std@@@0@0@Z
_TEXT	SEGMENT
tv80 = -56						; size = 4
tv82 = -52						; size = 4
tv78 = -48						; size = 4
tv81 = -44						; size = 4
$T2 = -40						; size = 12
$T3 = -28						; size = 12
$T4 = -13						; size = 1
__$EHRec$ = -12						; size = 12
__Left$ = 8						; size = 4
__Right$ = 12						; size = 4
??$?8V?$_List_const_iterator@V?$_List_val@U?$_List_simple_types@PAV?$Goal@VRaven_Bot@@@@@std@@@std@@@std@@V01@@std@@YA_NABV?$reverse_iterator@V?$_List_const_iterator@V?$_List_val@U?$_List_simple_types@PAV?$Goal@VRaven_Bot@@@@@std@@@std@@@std@@@0@0@Z PROC ; std::operator==<std::_List_const_iterator<std::_List_val<std::_List_simple_types<Goal<Raven_Bot> *> > >,std::_List_const_iterator<std::_List_val<std::_List_simple_types<Goal<Raven_Bot> *> > > >, COMDAT

; 1459 : 	{	// test for reverse_iterator equality

	push	ebp
	mov	ebp, esp
	push	-1
	push	__ehhandler$??$?8V?$_List_const_iterator@V?$_List_val@U?$_List_simple_types@PAV?$Goal@VRaven_Bot@@@@@std@@@std@@@std@@V01@@std@@YA_NABV?$reverse_iterator@V?$_List_const_iterator@V?$_List_val@U?$_List_simple_types@PAV?$Goal@VRaven_Bot@@@@@std@@@std@@@std@@@0@0@Z
	mov	eax, DWORD PTR fs:0
	push	eax
	sub	esp, 44					; 0000002cH
	push	edi
	lea	edi, DWORD PTR [ebp-56]
	mov	ecx, 11					; 0000000bH
	mov	eax, -858993460				; ccccccccH
	rep stosd
	mov	eax, DWORD PTR ___security_cookie
	xor	eax, ebp
	push	eax
	lea	eax, DWORD PTR __$EHRec$[ebp]
	mov	DWORD PTR fs:0, eax

; 1460 : 	return (_Left.base() == _Right.base());

	lea	eax, DWORD PTR $T2[ebp]
	push	eax
	mov	ecx, DWORD PTR __Right$[ebp]
	call	?base@?$reverse_iterator@V?$_List_const_iterator@V?$_List_val@U?$_List_simple_types@PAV?$Goal@VRaven_Bot@@@@@std@@@std@@@std@@@std@@QBE?AV?$_List_const_iterator@V?$_List_val@U?$_List_simple_types@PAV?$Goal@VRaven_Bot@@@@@std@@@std@@@2@XZ ; std::reverse_iterator<std::_List_const_iterator<std::_List_val<std::_List_simple_types<Goal<Raven_Bot> *> > > >::base
	mov	DWORD PTR tv81[ebp], eax
	mov	ecx, DWORD PTR tv81[ebp]
	mov	DWORD PTR tv78[ebp], ecx
	mov	DWORD PTR __$EHRec$[ebp+8], 0
	mov	edx, DWORD PTR tv78[ebp]
	push	edx
	lea	eax, DWORD PTR $T3[ebp]
	push	eax
	mov	ecx, DWORD PTR __Left$[ebp]
	call	?base@?$reverse_iterator@V?$_List_const_iterator@V?$_List_val@U?$_List_simple_types@PAV?$Goal@VRaven_Bot@@@@@std@@@std@@@std@@@std@@QBE?AV?$_List_const_iterator@V?$_List_val@U?$_List_simple_types@PAV?$Goal@VRaven_Bot@@@@@std@@@std@@@2@XZ ; std::reverse_iterator<std::_List_const_iterator<std::_List_val<std::_List_simple_types<Goal<Raven_Bot> *> > > >::base
	mov	DWORD PTR tv82[ebp], eax
	mov	ecx, DWORD PTR tv82[ebp]
	mov	DWORD PTR tv80[ebp], ecx
	mov	BYTE PTR __$EHRec$[ebp+8], 1
	mov	ecx, DWORD PTR tv80[ebp]
	call	??8?$_List_const_iterator@V?$_List_val@U?$_List_simple_types@PAV?$Goal@VRaven_Bot@@@@@std@@@std@@@std@@QBE_NABV01@@Z ; std::_List_const_iterator<std::_List_val<std::_List_simple_types<Goal<Raven_Bot> *> > >::operator==
	mov	BYTE PTR $T4[ebp], al
	mov	BYTE PTR __$EHRec$[ebp+8], 0
	lea	ecx, DWORD PTR $T3[ebp]
	call	??1?$_List_const_iterator@V?$_List_val@U?$_List_simple_types@PAV?$Goal@VRaven_Bot@@@@@std@@@std@@@std@@QAE@XZ
	mov	DWORD PTR __$EHRec$[ebp+8], -1
	lea	ecx, DWORD PTR $T2[ebp]
	call	??1?$_List_const_iterator@V?$_List_val@U?$_List_simple_types@PAV?$Goal@VRaven_Bot@@@@@std@@@std@@@std@@QAE@XZ
	mov	al, BYTE PTR $T4[ebp]

; 1461 : 	}

	mov	ecx, DWORD PTR __$EHRec$[ebp]
	mov	DWORD PTR fs:0, ecx
	pop	ecx
	pop	edi
	add	esp, 56					; 00000038H
	cmp	ebp, esp
	call	__RTC_CheckEsp
	mov	esp, ebp
	pop	ebp
	ret	0
_TEXT	ENDS
;	COMDAT text$x
text$x	SEGMENT
__unwindfunclet$??$?8V?$_List_const_iterator@V?$_List_val@U?$_List_simple_types@PAV?$Goal@VRaven_Bot@@@@@std@@@std@@@std@@V01@@std@@YA_NABV?$reverse_iterator@V?$_List_const_iterator@V?$_List_val@U?$_List_simple_types@PAV?$Goal@VRaven_Bot@@@@@std@@@std@@@std@@@0@0@Z$0:
	lea	ecx, DWORD PTR $T2[ebp]
	jmp	??1?$_List_const_iterator@V?$_List_val@U?$_List_simple_types@PAV?$Goal@VRaven_Bot@@@@@std@@@std@@@std@@QAE@XZ
__unwindfunclet$??$?8V?$_List_const_iterator@V?$_List_val@U?$_List_simple_types@PAV?$Goal@VRaven_Bot@@@@@std@@@std@@@std@@V01@@std@@YA_NABV?$reverse_iterator@V?$_List_const_iterator@V?$_List_val@U?$_List_simple_types@PAV?$Goal@VRaven_Bot@@@@@std@@@std@@@std@@@0@0@Z$1:
	lea	ecx, DWORD PTR $T3[ebp]
	jmp	??1?$_List_const_iterator@V?$_List_val@U?$_List_simple_types@PAV?$Goal@VRaven_Bot@@@@@std@@@std@@@std@@QAE@XZ
__ehhandler$??$?8V?$_List_const_iterator@V?$_List_val@U?$_List_simple_types@PAV?$Goal@VRaven_Bot@@@@@std@@@std@@@std@@V01@@std@@YA_NABV?$reverse_iterator@V?$_List_const_iterator@V?$_List_val@U?$_List_simple_types@PAV?$Goal@VRaven_Bot@@@@@std@@@std@@@std@@@0@0@Z:
	mov	edx, DWORD PTR [esp+8]
	lea	eax, DWORD PTR [edx+12]
	mov	ecx, DWORD PTR [edx-52]
	xor	ecx, eax
	call	@__security_check_cookie@4
	mov	eax, OFFSET __ehfuncinfo$??$?8V?$_List_const_iterator@V?$_List_val@U?$_List_simple_types@PAV?$Goal@VRaven_Bot@@@@@std@@@std@@@std@@V01@@std@@YA_NABV?$reverse_iterator@V?$_List_const_iterator@V?$_List_val@U?$_List_simple_types@PAV?$Goal@VRaven_Bot@@@@@std@@@std@@@std@@@0@0@Z
	jmp	___CxxFrameHandler3
text$x	ENDS
??$?8V?$_List_const_iterator@V?$_List_val@U?$_List_simple_types@PAV?$Goal@VRaven_Bot@@@@@std@@@std@@@std@@V01@@std@@YA_NABV?$reverse_iterator@V?$_List_const_iterator@V?$_List_val@U?$_List_simple_types@PAV?$Goal@VRaven_Bot@@@@@std@@@std@@@std@@@0@0@Z ENDP ; std::operator==<std::_List_const_iterator<std::_List_val<std::_List_simple_types<Goal<Raven_Bot> *> > >,std::_List_const_iterator<std::_List_val<std::_List_simple_types<Goal<Raven_Bot> *> > > >
; Function compile flags: /Odtp /RTCsu
; File c:\program files (x86)\microsoft visual studio\2017\community\vc\tools\msvc\14.15.26726\include\xlocale
;	COMDAT ??__E?id@?$codecvt@DDU_Mbstatet@@@std@@2V0locale@2@A@@YAXXZ
text$di	SEGMENT
??__E?id@?$codecvt@DDU_Mbstatet@@@std@@2V0locale@2@A@@YAXXZ PROC ; `dynamic initializer for 'std::codecvt<char,char,_Mbstatet>::id'', COMDAT

; 955  : 	__PURE_APPDOMAIN_GLOBAL locale::id codecvt<_Elem, _Byte, _Statype>::id;

	push	ebp
	mov	ebp, esp
	push	0
	mov	ecx, OFFSET ?id@?$codecvt@DDU_Mbstatet@@@std@@2V0locale@2@A ; std::codecvt<char,char,_Mbstatet>::id
	call	??0id@locale@std@@QAE@I@Z		; std::locale::id::id
	cmp	ebp, esp
	call	__RTC_CheckEsp
	pop	ebp
	ret	0
??__E?id@?$codecvt@DDU_Mbstatet@@@std@@2V0locale@2@A@@YAXXZ ENDP ; `dynamic initializer for 'std::codecvt<char,char,_Mbstatet>::id''
text$di	ENDS
; Function compile flags: /Odtp /RTCsu
; File c:\program files (x86)\microsoft visual studio\2017\community\vc\tools\msvc\14.15.26726\include\locale
;	COMDAT ??__E?id@?$collate@D@std@@2V0locale@2@A@@YAXXZ
text$di	SEGMENT
??__E?id@?$collate@D@std@@2V0locale@2@A@@YAXXZ PROC	; `dynamic initializer for 'std::collate<char>::id'', COMDAT

; 137  : 	__PURE_APPDOMAIN_GLOBAL locale::id collate<_Elem>::id;

	push	ebp
	mov	ebp, esp
	push	0
	mov	ecx, OFFSET ?id@?$collate@D@std@@2V0locale@2@A ; std::collate<char>::id
	call	??0id@locale@std@@QAE@I@Z		; std::locale::id::id
	cmp	ebp, esp
	call	__RTC_CheckEsp
	pop	ebp
	ret	0
??__E?id@?$collate@D@std@@2V0locale@2@A@@YAXXZ ENDP	; `dynamic initializer for 'std::collate<char>::id''
text$di	ENDS
; Function compile flags: /Odtp /RTCsu
; File c:\program files (x86)\microsoft visual studio\2017\community\vc\tools\msvc\14.15.26726\include\list
;	COMDAT ??$_Insert@ABQAV?$Goal@VRaven_Bot@@@@@?$list@PAV?$Goal@VRaven_Bot@@@@V?$allocator@PAV?$Goal@VRaven_Bot@@@@@std@@@std@@QAEXV?$_List_unchecked_const_iterator@V?$_List_val@U?$_List_simple_types@PAV?$Goal@VRaven_Bot@@@@@std@@@std@@U_Iterator_base0@2@@1@ABQAV?$Goal@VRaven_Bot@@@@@Z
_TEXT	SEGMENT
__Newnode$ = -16					; size = 4
__Leftnode$ = -12					; size = 4
__Rightnode$ = -8					; size = 4
_this$ = -4						; size = 4
__Where$ = 8						; size = 4
_<_Val_0>$ = 12						; size = 4
??$_Insert@ABQAV?$Goal@VRaven_Bot@@@@@?$list@PAV?$Goal@VRaven_Bot@@@@V?$allocator@PAV?$Goal@VRaven_Bot@@@@@std@@@std@@QAEXV?$_List_unchecked_const_iterator@V?$_List_val@U?$_List_simple_types@PAV?$Goal@VRaven_Bot@@@@@std@@@std@@U_Iterator_base0@2@@1@ABQAV?$Goal@VRaven_Bot@@@@@Z PROC ; std::list<Goal<Raven_Bot> *,std::allocator<Goal<Raven_Bot> *> >::_Insert<Goal<Raven_Bot> * const &>, COMDAT
; _this$ = ecx

; 947  : 		{	// insert element at _Where

	push	ebp
	mov	ebp, esp
	sub	esp, 16					; 00000010H
	mov	eax, -858993460				; ccccccccH
	mov	DWORD PTR [ebp-16], eax
	mov	DWORD PTR [ebp-12], eax
	mov	DWORD PTR [ebp-8], eax
	mov	DWORD PTR [ebp-4], eax
	mov	DWORD PTR _this$[ebp], ecx

; 948  : 		const _Nodeptr _Rightnode = _Where._Ptr;

	mov	eax, DWORD PTR __Where$[ebp]
	mov	DWORD PTR __Rightnode$[ebp], eax

; 949  : 		const _Nodeptr _Leftnode = _Rightnode->_Prev;

	mov	ecx, DWORD PTR __Rightnode$[ebp]
	mov	edx, DWORD PTR [ecx+4]
	mov	DWORD PTR __Leftnode$[ebp], edx

; 950  : 		const _Nodeptr _Newnode = this->_Buynode(_Rightnode, _Leftnode, _STD forward<_Valty>(_Val)...);

	mov	eax, DWORD PTR _<_Val_0>$[ebp]
	push	eax
	call	??$forward@ABQAV?$Goal@VRaven_Bot@@@@@std@@YAABQAV?$Goal@VRaven_Bot@@@@ABQAV1@@Z ; std::forward<Goal<Raven_Bot> * const &>
	add	esp, 4
	push	eax
	mov	ecx, DWORD PTR __Leftnode$[ebp]
	push	ecx
	mov	edx, DWORD PTR __Rightnode$[ebp]
	push	edx
	mov	ecx, DWORD PTR _this$[ebp]
	call	??$_Buynode@ABQAV?$Goal@VRaven_Bot@@@@@?$_List_buy@PAV?$Goal@VRaven_Bot@@@@V?$allocator@PAV?$Goal@VRaven_Bot@@@@@std@@@std@@QAEPAU?$_List_node@PAV?$Goal@VRaven_Bot@@@@PAX@1@PAU21@0ABQAV?$Goal@VRaven_Bot@@@@@Z ; std::_List_buy<Goal<Raven_Bot> *,std::allocator<Goal<Raven_Bot> *> >::_Buynode<Goal<Raven_Bot> * const &>
	mov	DWORD PTR __Newnode$[ebp], eax

; 951  : 		_Incsize(1);

	push	1
	mov	ecx, DWORD PTR _this$[ebp]
	call	?_Incsize@?$list@PAV?$Goal@VRaven_Bot@@@@V?$allocator@PAV?$Goal@VRaven_Bot@@@@@std@@@std@@QAEXI@Z ; std::list<Goal<Raven_Bot> *,std::allocator<Goal<Raven_Bot> *> >::_Incsize

; 952  : 		_Rightnode->_Prev = _Newnode;

	mov	eax, DWORD PTR __Rightnode$[ebp]
	mov	ecx, DWORD PTR __Newnode$[ebp]
	mov	DWORD PTR [eax+4], ecx

; 953  : 		_Leftnode->_Next = _Newnode;

	mov	edx, DWORD PTR __Leftnode$[ebp]
	mov	eax, DWORD PTR __Newnode$[ebp]
	mov	DWORD PTR [edx], eax

; 954  : 		}

	add	esp, 16					; 00000010H
	cmp	ebp, esp
	call	__RTC_CheckEsp
	mov	esp, ebp
	pop	ebp
	ret	8
??$_Insert@ABQAV?$Goal@VRaven_Bot@@@@@?$list@PAV?$Goal@VRaven_Bot@@@@V?$allocator@PAV?$Goal@VRaven_Bot@@@@@std@@@std@@QAEXV?$_List_unchecked_const_iterator@V?$_List_val@U?$_List_simple_types@PAV?$Goal@VRaven_Bot@@@@@std@@@std@@U_Iterator_base0@2@@1@ABQAV?$Goal@VRaven_Bot@@@@@Z ENDP ; std::list<Goal<Raven_Bot> *,std::allocator<Goal<Raven_Bot> *> >::_Insert<Goal<Raven_Bot> * const &>
_TEXT	ENDS
; Function compile flags: /Odtp /RTCsu
; File c:\program files (x86)\microsoft visual studio\2017\community\vc\tools\msvc\14.15.26726\include\xmemory
;	COMDAT ??$_Uninitialized_move@PAPAVGoal_Evaluator@@PAPAV1@V?$allocator@PAVGoal_Evaluator@@@std@@@std@@YAPAPAVGoal_Evaluator@@QAPAV1@0PAPAV1@AAV?$allocator@PAVGoal_Evaluator@@@0@@Z
_TEXT	SEGMENT
$T1 = -38						; size = 1
$T2 = -37						; size = 1
__UDest$ = -32						; size = 4
__ULast$ = -20						; size = 4
__UFirst$ = -8						; size = 4
__First$ = 8						; size = 4
__Last$ = 12						; size = 4
__Dest$ = 16						; size = 4
__Al$ = 20						; size = 4
??$_Uninitialized_move@PAPAVGoal_Evaluator@@PAPAV1@V?$allocator@PAVGoal_Evaluator@@@std@@@std@@YAPAPAVGoal_Evaluator@@QAPAV1@0PAPAV1@AAV?$allocator@PAVGoal_Evaluator@@@0@@Z PROC ; std::_Uninitialized_move<Goal_Evaluator * *,Goal_Evaluator * *,std::allocator<Goal_Evaluator *> >, COMDAT

; 251  : 	{	// move [_First, _Last) to raw _Dest, using _Al

	push	ebp
	mov	ebp, esp
	sub	esp, 40					; 00000028H
	push	edi
	lea	edi, DWORD PTR [ebp-40]
	mov	ecx, 10					; 0000000aH
	mov	eax, -858993460				; ccccccccH
	rep stosd

; 252  : 		// note: only called internally from elsewhere in the STL
; 253  : 	const auto _UFirst = _Get_unwrapped(_First);

	mov	eax, DWORD PTR __First$[ebp]
	push	eax
	call	??$_Get_unwrapped@PAVGoal_Evaluator@@@std@@YAPAPAVGoal_Evaluator@@QAPAV1@@Z ; std::_Get_unwrapped<Goal_Evaluator *>
	add	esp, 4
	mov	DWORD PTR __UFirst$[ebp], eax

; 254  : 	const auto _ULast = _Get_unwrapped(_Last);

	mov	ecx, DWORD PTR __Last$[ebp]
	push	ecx
	call	??$_Get_unwrapped@PAVGoal_Evaluator@@@std@@YAPAPAVGoal_Evaluator@@QAPAV1@@Z ; std::_Get_unwrapped<Goal_Evaluator *>
	add	esp, 4
	mov	DWORD PTR __ULast$[ebp], eax

; 255  : 	const auto _UDest = _Get_unwrapped_n(_Dest, _Idl_distance<_InIt>(_UFirst, _ULast));

	lea	edx, DWORD PTR __ULast$[ebp]
	push	edx
	lea	eax, DWORD PTR __UFirst$[ebp]
	push	eax
	call	??$_Idl_distance@PAPAVGoal_Evaluator@@PAPAV1@@std@@YA@ABQAPAVGoal_Evaluator@@0@Z ; std::_Idl_distance<Goal_Evaluator * *,Goal_Evaluator * *>
	add	esp, 8
	push	eax
	mov	ecx, DWORD PTR __Dest$[ebp]
	push	ecx
	call	??$_Get_unwrapped_n@PAVGoal_Evaluator@@H$0A@@std@@YAPAPAVGoal_Evaluator@@QAPAV1@H@Z ; std::_Get_unwrapped_n<Goal_Evaluator *,int,0>
	add	esp, 8
	mov	DWORD PTR __UDest$[ebp], eax

; 256  : 	_Seek_wrapped(_Dest,

	movzx	edx, BYTE PTR $T2[ebp]
	push	edx
	lea	eax, DWORD PTR __UDest$[ebp]
	push	eax
	lea	ecx, DWORD PTR __UFirst$[ebp]
	push	ecx
	lea	edx, DWORD PTR $T1[ebp]
	push	edx
	call	??$_Ptr_move_cat@PAVGoal_Evaluator@@PAV1@@std@@YA?AU_Really_trivial_ptr_iterator_tag@0@ABQAPAVGoal_Evaluator@@0@Z ; std::_Ptr_move_cat<Goal_Evaluator *,Goal_Evaluator *>
	add	esp, 12					; 0000000cH
	mov	al, BYTE PTR [eax]
	movzx	ecx, al
	push	ecx
	mov	edx, DWORD PTR __Al$[ebp]
	push	edx
	mov	eax, DWORD PTR __UDest$[ebp]
	push	eax
	mov	ecx, DWORD PTR __ULast$[ebp]
	push	ecx
	mov	edx, DWORD PTR __UFirst$[ebp]
	push	edx
	call	??$_Uninitialized_move_al_unchecked@PAVGoal_Evaluator@@PAV1@V?$allocator@PAVGoal_Evaluator@@@std@@@std@@YAPAPAVGoal_Evaluator@@QAPAV1@00AAV?$allocator@PAVGoal_Evaluator@@@0@U_Really_trivial_ptr_iterator_tag@0@U?$integral_constant@_N$00@0@@Z ; std::_Uninitialized_move_al_unchecked<Goal_Evaluator *,Goal_Evaluator *,std::allocator<Goal_Evaluator *> >
	add	esp, 24					; 00000018H
	push	eax
	lea	eax, DWORD PTR __Dest$[ebp]
	push	eax
	call	??$_Seek_wrapped@PAVGoal_Evaluator@@@std@@YAXAAPAPAVGoal_Evaluator@@QAPAV1@@Z ; std::_Seek_wrapped<Goal_Evaluator *>
	add	esp, 8

; 257  : 		_Uninitialized_move_al_unchecked(_UFirst, _ULast, _UDest, _Al,
; 258  : 			_Ptr_move_cat(_UFirst, _UDest),
; 259  : 			_Uses_default_construct_t<_Alloc, decltype(_Unfancy(_UDest)), decltype(_STD move(*_UFirst))>()));
; 260  : 	return (_Dest);

	mov	eax, DWORD PTR __Dest$[ebp]

; 261  : 	}

	push	edx
	mov	ecx, ebp
	push	eax
	lea	edx, DWORD PTR $LN7@Uninitiali
	call	@_RTC_CheckStackVars@8
	pop	eax
	pop	edx
	pop	edi
	add	esp, 40					; 00000028H
	cmp	ebp, esp
	call	__RTC_CheckEsp
	mov	esp, ebp
	pop	ebp
	ret	0
	npad	1
$LN7@Uninitiali:
	DD	3
	DD	$LN6@Uninitiali
$LN6@Uninitiali:
	DD	-8					; fffffff8H
	DD	4
	DD	$LN3@Uninitiali
	DD	-20					; ffffffecH
	DD	4
	DD	$LN4@Uninitiali
	DD	-32					; ffffffe0H
	DD	4
	DD	$LN5@Uninitiali
$LN5@Uninitiali:
	DB	95					; 0000005fH
	DB	85					; 00000055H
	DB	68					; 00000044H
	DB	101					; 00000065H
	DB	115					; 00000073H
	DB	116					; 00000074H
	DB	0
$LN4@Uninitiali:
	DB	95					; 0000005fH
	DB	85					; 00000055H
	DB	76					; 0000004cH
	DB	97					; 00000061H
	DB	115					; 00000073H
	DB	116					; 00000074H
	DB	0
$LN3@Uninitiali:
	DB	95					; 0000005fH
	DB	85					; 00000055H
	DB	70					; 00000046H
	DB	105					; 00000069H
	DB	114					; 00000072H
	DB	115					; 00000073H
	DB	116					; 00000074H
	DB	0
??$_Uninitialized_move@PAPAVGoal_Evaluator@@PAPAV1@V?$allocator@PAVGoal_Evaluator@@@std@@@std@@YAPAPAVGoal_Evaluator@@QAPAV1@0PAPAV1@AAV?$allocator@PAVGoal_Evaluator@@@0@@Z ENDP ; std::_Uninitialized_move<Goal_Evaluator * *,Goal_Evaluator * *,std::allocator<Goal_Evaluator *> >
_TEXT	ENDS
; Function compile flags: /Odtp /RTCsu
; File c:\program files (x86)\microsoft visual studio\2017\community\vc\tools\msvc\14.15.26726\include\type_traits
;	COMDAT ??$forward@AAPAU?$_List_node@PAV?$Goal@VRaven_Bot@@@@PAX@std@@@std@@YAAAPAU?$_List_node@PAV?$Goal@VRaven_Bot@@@@PAX@0@AAPAU10@@Z
_TEXT	SEGMENT
__Arg$ = 8						; size = 4
??$forward@AAPAU?$_List_node@PAV?$Goal@VRaven_Bot@@@@PAX@std@@@std@@YAAAPAU?$_List_node@PAV?$Goal@VRaven_Bot@@@@PAX@0@AAPAU10@@Z PROC ; std::forward<std::_List_node<Goal<Raven_Bot> *,void *> * &>, COMDAT

; 1573 : 	{	// forward an lvalue as either an lvalue or an rvalue

	push	ebp
	mov	ebp, esp

; 1574 : 	return (static_cast<_Ty&&>(_Arg));

	mov	eax, DWORD PTR __Arg$[ebp]

; 1575 : 	}

	pop	ebp
	ret	0
??$forward@AAPAU?$_List_node@PAV?$Goal@VRaven_Bot@@@@PAX@std@@@std@@YAAAPAU?$_List_node@PAV?$Goal@VRaven_Bot@@@@PAX@0@AAPAU10@@Z ENDP ; std::forward<std::_List_node<Goal<Raven_Bot> *,void *> * &>
_TEXT	ENDS
; Function compile flags: /Odtp /RTCsu
; File c:\program files (x86)\microsoft visual studio\2017\community\vc\tools\msvc\14.15.26726\include\xmemory0
;	COMDAT ??$destroy@PAU?$_List_node@PAV?$Goal@VRaven_Bot@@@@PAX@std@@@?$_Default_allocator_traits@V?$allocator@U?$_List_node@PAV?$Goal@VRaven_Bot@@@@PAX@std@@@std@@@std@@SAXAAV?$allocator@U?$_List_node@PAV?$Goal@VRaven_Bot@@@@PAX@std@@@1@QAPAU?$_List_node@PAV?$Goal@VRaven_Bot@@@@PAX@1@@Z
_TEXT	SEGMENT
___formal$ = 8						; size = 4
__Ptr$ = 12						; size = 4
??$destroy@PAU?$_List_node@PAV?$Goal@VRaven_Bot@@@@PAX@std@@@?$_Default_allocator_traits@V?$allocator@U?$_List_node@PAV?$Goal@VRaven_Bot@@@@PAX@std@@@std@@@std@@SAXAAV?$allocator@U?$_List_node@PAV?$Goal@VRaven_Bot@@@@PAX@std@@@1@QAPAU?$_List_node@PAV?$Goal@VRaven_Bot@@@@PAX@1@@Z PROC ; std::_Default_allocator_traits<std::allocator<std::_List_node<Goal<Raven_Bot> *,void *> > >::destroy<std::_List_node<Goal<Raven_Bot> *,void *> *>, COMDAT

; 886  : 		{	// destroy object at _Ptr

	push	ebp
	mov	ebp, esp

; 887  : 		_Ptr->~_Uty();
; 888  : 		}

	pop	ebp
	ret	0
??$destroy@PAU?$_List_node@PAV?$Goal@VRaven_Bot@@@@PAX@std@@@?$_Default_allocator_traits@V?$allocator@U?$_List_node@PAV?$Goal@VRaven_Bot@@@@PAX@std@@@std@@@std@@SAXAAV?$allocator@U?$_List_node@PAV?$Goal@VRaven_Bot@@@@PAX@std@@@1@QAPAU?$_List_node@PAV?$Goal@VRaven_Bot@@@@PAX@1@@Z ENDP ; std::_Default_allocator_traits<std::allocator<std::_List_node<Goal<Raven_Bot> *,void *> > >::destroy<std::_List_node<Goal<Raven_Bot> *,void *> *>
_TEXT	ENDS
; Function compile flags: /Odtp /RTCsu
; File c:\program files (x86)\microsoft visual studio\2017\community\vc\tools\msvc\14.15.26726\include\xmemory0
;	COMDAT ??$_Destroy_range1@V?$allocator@PAVGoal_Evaluator@@@std@@@std@@YAXPAPAVGoal_Evaluator@@0AAV?$allocator@PAVGoal_Evaluator@@@0@U?$integral_constant@_N$00@0@@Z
_TEXT	SEGMENT
___formal$ = 8						; size = 4
___formal$ = 12						; size = 4
___formal$ = 16						; size = 4
___formal$ = 20						; size = 1
??$_Destroy_range1@V?$allocator@PAVGoal_Evaluator@@@std@@@std@@YAXPAPAVGoal_Evaluator@@0AAV?$allocator@PAVGoal_Evaluator@@@0@U?$integral_constant@_N$00@0@@Z PROC ; std::_Destroy_range1<std::allocator<Goal_Evaluator *> >, COMDAT

; 1145 : 	{	// destroy [_First, _Last), trivially destructible and default destroy

	push	ebp
	mov	ebp, esp

; 1146 : 		// nothing to do
; 1147 : 	}

	pop	ebp
	ret	0
??$_Destroy_range1@V?$allocator@PAVGoal_Evaluator@@@std@@@std@@YAXPAPAVGoal_Evaluator@@0AAV?$allocator@PAVGoal_Evaluator@@@0@U?$integral_constant@_N$00@0@@Z ENDP ; std::_Destroy_range1<std::allocator<Goal_Evaluator *> >
_TEXT	ENDS
; Function compile flags: /Odtp /RTCsu
; File c:\program files (x86)\microsoft visual studio\2017\community\vc\tools\msvc\14.15.26726\include\type_traits
;	COMDAT ??$forward@U_Container_proxy@std@@@std@@YA$$QAU_Container_proxy@0@AAU10@@Z
_TEXT	SEGMENT
__Arg$ = 8						; size = 4
??$forward@U_Container_proxy@std@@@std@@YA$$QAU_Container_proxy@0@AAU10@@Z PROC ; std::forward<std::_Container_proxy>, COMDAT

; 1573 : 	{	// forward an lvalue as either an lvalue or an rvalue

	push	ebp
	mov	ebp, esp

; 1574 : 	return (static_cast<_Ty&&>(_Arg));

	mov	eax, DWORD PTR __Arg$[ebp]

; 1575 : 	}

	pop	ebp
	ret	0
??$forward@U_Container_proxy@std@@@std@@YA$$QAU_Container_proxy@0@AAU10@@Z ENDP ; std::forward<std::_Container_proxy>
_TEXT	ENDS
; Function compile flags: /Odtp /RTCsu
; File c:\program files (x86)\microsoft visual studio\2017\community\vc\tools\msvc\14.15.26726\include\xmemory0
;	COMDAT ??$_Allocate_manually_vector_aligned@U_Default_allocate_traits@std@@@std@@YAPAXI@Z
_TEXT	SEGMENT
__Ptr$ = -12						; size = 4
__Ptr_container$ = -8					; size = 4
__Block_size$ = -4					; size = 4
__Bytes$ = 8						; size = 4
??$_Allocate_manually_vector_aligned@U_Default_allocate_traits@std@@@std@@YAPAXI@Z PROC ; std::_Allocate_manually_vector_aligned<std::_Default_allocate_traits>, COMDAT

; 92   : 	{	// allocate _Bytes manually aligned to at least _Big_allocation_alignment

	push	ebp
	mov	ebp, esp
	sub	esp, 12					; 0000000cH
	mov	DWORD PTR [ebp-12], -858993460		; ccccccccH
	mov	DWORD PTR [ebp-8], -858993460		; ccccccccH
	mov	DWORD PTR [ebp-4], -858993460		; ccccccccH

; 93   : 	size_t _Block_size = _Non_user_size + _Bytes;

	mov	eax, DWORD PTR __Bytes$[ebp]
	add	eax, 39					; 00000027H
	mov	DWORD PTR __Block_size$[ebp], eax

; 94   : 	if (_Block_size <= _Bytes)

	mov	ecx, DWORD PTR __Block_size$[ebp]
	cmp	ecx, DWORD PTR __Bytes$[ebp]
	ja	SHORT $LN8@Allocate_m

; 95   : 		{	// add overflow, try allocating all of memory and assume the
; 96   : 			// allocation function will throw bad_alloc
; 97   : 		_Block_size = static_cast<size_t>(-1);

	mov	DWORD PTR __Block_size$[ebp], -1
$LN8@Allocate_m:

; 98   : 		}
; 99   : 
; 100  : 	const uintptr_t _Ptr_container = reinterpret_cast<uintptr_t>(_Traits::_Allocate(_Block_size));

	mov	edx, DWORD PTR __Block_size$[ebp]
	push	edx
	call	?_Allocate@_Default_allocate_traits@std@@SAPAXI@Z ; std::_Default_allocate_traits::_Allocate
	add	esp, 4
	mov	DWORD PTR __Ptr_container$[ebp], eax
$LN4@Allocate_m:

; 101  : 	_STL_VERIFY(_Ptr_container != 0, "invalid argument");	// validate even in release since we're doing p[-1]

	cmp	DWORD PTR __Ptr_container$[ebp], 0
	je	SHORT $LN7@Allocate_m
	jmp	SHORT $LN2@Allocate_m
$LN7@Allocate_m:
	push	OFFSET ??_C@_0BB@FCMFBGOM@invalid?5argument@
	push	OFFSET ??_C@_02DKCKIIND@?$CFs@
	push	0
	push	101					; 00000065H
	push	OFFSET ??_C@_0GJ@CAJJPMGE@c?3?2program?5files?5?$CIx86?$CJ?2microsof@
	push	2
	call	__CrtDbgReport
	add	esp, 24					; 00000018H
	cmp	eax, 1
	jne	SHORT $LN12@Allocate_m
	int	3
$LN12@Allocate_m:
	push	0
	push	101					; 00000065H
	push	OFFSET ??_C@_1NC@ICJKIMIP@?$AAc?$AA?3?$AA?2?$AAp?$AAr?$AAo?$AAg?$AAr?$AAa?$AAm?$AA?5?$AAf?$AAi?$AAl?$AAe@
	push	OFFSET ??_C@_1EO@GFNCMDLA@?$AAs?$AAt?$AAd?$AA?3?$AA?3?$AA_?$AAA?$AAl?$AAl?$AAo?$AAc?$AAa?$AAt?$AAe?$AA_@
	push	OFFSET ??_C@_1CG@JNLFBNGN@?$AA?$CC?$AAi?$AAn?$AAv?$AAa?$AAl?$AAi?$AAd?$AA?5?$AAa?$AAr?$AAg?$AAu?$AAm?$AAe@
	call	__invalid_parameter
	add	esp, 20					; 00000014H
	xor	ecx, ecx
	jne	SHORT $LN7@Allocate_m
$LN2@Allocate_m:
	xor	edx, edx
	jne	SHORT $LN4@Allocate_m

; 102  : 	void * const _Ptr = reinterpret_cast<void *>((_Ptr_container + _Non_user_size)
; 103  : 		& ~(_Big_allocation_alignment - 1));

	mov	eax, DWORD PTR __Ptr_container$[ebp]
	add	eax, 39					; 00000027H
	and	eax, -32				; ffffffe0H
	mov	DWORD PTR __Ptr$[ebp], eax

; 104  : 	static_cast<uintptr_t *>(_Ptr)[-1] = _Ptr_container;

	mov	ecx, 4
	imul	edx, ecx, -1
	mov	eax, DWORD PTR __Ptr$[ebp]
	mov	ecx, DWORD PTR __Ptr_container$[ebp]
	mov	DWORD PTR [eax+edx], ecx

; 105  : 
; 106  :   #ifdef _DEBUG
; 107  : 	static_cast<uintptr_t *>(_Ptr)[-2] = _Big_allocation_sentinel;

	mov	edx, 4
	imul	eax, edx, -2
	mov	ecx, DWORD PTR __Ptr$[ebp]
	mov	DWORD PTR [ecx+eax], -84215046		; fafafafaH

; 108  :   #endif /* _DEBUG */
; 109  : 	return (_Ptr);

	mov	eax, DWORD PTR __Ptr$[ebp]

; 110  : 	}

	add	esp, 12					; 0000000cH
	cmp	ebp, esp
	call	__RTC_CheckEsp
	mov	esp, ebp
	pop	ebp
	ret	0
??$_Allocate_manually_vector_aligned@U_Default_allocate_traits@std@@@std@@YAPAXI@Z ENDP ; std::_Allocate_manually_vector_aligned<std::_Default_allocate_traits>
_TEXT	ENDS
; Function compile flags: /Odtp /RTCsu
; File c:\program files (x86)\microsoft visual studio\2017\community\vc\tools\msvc\14.15.26726\include\list
;	COMDAT ??$_Buynode@PAV?$Goal@VRaven_Bot@@@@@?$_List_buy@PAV?$Goal@VRaven_Bot@@@@V?$allocator@PAV?$Goal@VRaven_Bot@@@@@std@@@std@@QAEPAU?$_List_node@PAV?$Goal@VRaven_Bot@@@@PAX@1@PAU21@0$$QAPAV?$Goal@VRaven_Bot@@@@@Z
_TEXT	SEGMENT
__Al$ = -28						; size = 4
__Pnode$ = -24						; size = 4
_this$ = -20						; size = 4
__$EHRec$ = -16						; size = 16
__Next$ = 8						; size = 4
__Prev$ = 12						; size = 4
_<_Val_0>$ = 16						; size = 4
??$_Buynode@PAV?$Goal@VRaven_Bot@@@@@?$_List_buy@PAV?$Goal@VRaven_Bot@@@@V?$allocator@PAV?$Goal@VRaven_Bot@@@@@std@@@std@@QAEPAU?$_List_node@PAV?$Goal@VRaven_Bot@@@@PAX@1@PAU21@0$$QAPAV?$Goal@VRaven_Bot@@@@@Z PROC ; std::_List_buy<Goal<Raven_Bot> *,std::allocator<Goal<Raven_Bot> *> >::_Buynode<Goal<Raven_Bot> *>, COMDAT
; _this$ = ecx

; 711  : 		{	// allocate a node and set links and value

	push	ebp
	mov	ebp, esp
	push	-1
	push	__ehhandler$??$_Buynode@PAV?$Goal@VRaven_Bot@@@@@?$_List_buy@PAV?$Goal@VRaven_Bot@@@@V?$allocator@PAV?$Goal@VRaven_Bot@@@@@std@@@std@@QAEPAU?$_List_node@PAV?$Goal@VRaven_Bot@@@@PAX@1@PAU21@0$$QAPAV?$Goal@VRaven_Bot@@@@@Z
	mov	eax, DWORD PTR fs:0
	push	eax
	push	ecx
	sub	esp, 12					; 0000000cH
	push	ebx
	push	esi
	push	edi
	mov	DWORD PTR [ebp-28], -858993460		; ccccccccH
	mov	DWORD PTR [ebp-24], -858993460		; ccccccccH
	mov	DWORD PTR [ebp-20], -858993460		; ccccccccH
	mov	eax, DWORD PTR ___security_cookie
	xor	eax, ebp
	push	eax
	lea	eax, DWORD PTR __$EHRec$[ebp+4]
	mov	DWORD PTR fs:0, eax
	mov	DWORD PTR __$EHRec$[ebp], esp
	mov	DWORD PTR _this$[ebp], ecx

; 712  : 		_Nodeptr _Pnode = this->_Buynode0(_Next, _Prev);

	mov	eax, DWORD PTR __Prev$[ebp]
	push	eax
	mov	ecx, DWORD PTR __Next$[ebp]
	push	ecx
	mov	ecx, DWORD PTR _this$[ebp]
	call	?_Buynode0@?$_List_alloc@U?$_List_base_types@PAV?$Goal@VRaven_Bot@@@@V?$allocator@PAV?$Goal@VRaven_Bot@@@@@std@@@std@@@std@@QAEPAU?$_List_node@PAV?$Goal@VRaven_Bot@@@@PAX@2@PAU32@0@Z ; std::_List_alloc<std::_List_base_types<Goal<Raven_Bot> *,std::allocator<Goal<Raven_Bot> *> > >::_Buynode0
	mov	DWORD PTR __Pnode$[ebp], eax

; 713  : 		_Alnode& _Al = this->_Getal();

	mov	ecx, DWORD PTR _this$[ebp]
	call	?_Getal@?$_List_alloc@U?$_List_base_types@PAV?$Goal@VRaven_Bot@@@@V?$allocator@PAV?$Goal@VRaven_Bot@@@@@std@@@std@@@std@@QAEAAV?$allocator@U?$_List_node@PAV?$Goal@VRaven_Bot@@@@PAX@std@@@2@XZ ; std::_List_alloc<std::_List_base_types<Goal<Raven_Bot> *,std::allocator<Goal<Raven_Bot> *> > >::_Getal
	mov	DWORD PTR __Al$[ebp], eax

; 714  : 
; 715  : 		_TRY_BEGIN

	mov	DWORD PTR __$EHRec$[ebp+12], 0

; 716  : 		_Alnode_traits::construct(_Al,

	mov	edx, DWORD PTR _<_Val_0>$[ebp]
	push	edx
	call	??$forward@PAV?$Goal@VRaven_Bot@@@@@std@@YA$$QAPAV?$Goal@VRaven_Bot@@@@AAPAV1@@Z ; std::forward<Goal<Raven_Bot> *>
	add	esp, 4
	push	eax
	mov	eax, DWORD PTR __Pnode$[ebp]
	add	eax, 8
	push	eax
	call	??$addressof@PAV?$Goal@VRaven_Bot@@@@@std@@YAPAPAV?$Goal@VRaven_Bot@@@@AAPAV1@@Z ; std::addressof<Goal<Raven_Bot> *>
	add	esp, 4
	push	eax
	mov	ecx, DWORD PTR __Al$[ebp]
	push	ecx
	call	??$construct@PAV?$Goal@VRaven_Bot@@@@PAV1@@?$_Default_allocator_traits@V?$allocator@U?$_List_node@PAV?$Goal@VRaven_Bot@@@@PAX@std@@@std@@@std@@SAXAAV?$allocator@U?$_List_node@PAV?$Goal@VRaven_Bot@@@@PAX@std@@@1@QAPAV?$Goal@VRaven_Bot@@@@$$QAPAV3@@Z ; std::_Default_allocator_traits<std::allocator<std::_List_node<Goal<Raven_Bot> *,void *> > >::construct<Goal<Raven_Bot> *,Goal<Raven_Bot> *>
	add	esp, 12					; 0000000cH
	jmp	SHORT $LN4@Buynode
__catch$??$_Buynode@PAV?$Goal@VRaven_Bot@@@@@?$_List_buy@PAV?$Goal@VRaven_Bot@@@@V?$allocator@PAV?$Goal@VRaven_Bot@@@@@std@@@std@@QAEPAU?$_List_node@PAV?$Goal@VRaven_Bot@@@@PAX@1@PAU21@0$$QAPAV?$Goal@VRaven_Bot@@@@@Z$0:

; 717  : 			_STD addressof(_Pnode->_Myval),
; 718  : 			_STD forward<_Valty>(_Val)...);
; 719  : 		_CATCH_ALL
; 720  : 		_Al.deallocate(_Pnode, 1);

	push	1
	mov	edx, DWORD PTR __Pnode$[ebp]
	push	edx
	mov	ecx, DWORD PTR __Al$[ebp]
	call	?deallocate@?$allocator@U?$_List_node@PAV?$Goal@VRaven_Bot@@@@PAX@std@@@std@@QAEXQAU?$_List_node@PAV?$Goal@VRaven_Bot@@@@PAX@2@I@Z ; std::allocator<std::_List_node<Goal<Raven_Bot> *,void *> >::deallocate

; 721  : 		_RERAISE;

	push	0
	push	0
	call	__CxxThrowException@8

; 722  : 		_CATCH_END

	mov	eax, $LN7@Buynode
	ret	0
$LN4@Buynode:
	mov	DWORD PTR __$EHRec$[ebp+12], -1
	jmp	SHORT __tryend$??$_Buynode@PAV?$Goal@VRaven_Bot@@@@@?$_List_buy@PAV?$Goal@VRaven_Bot@@@@V?$allocator@PAV?$Goal@VRaven_Bot@@@@@std@@@std@@QAEPAU?$_List_node@PAV?$Goal@VRaven_Bot@@@@PAX@1@PAU21@0$$QAPAV?$Goal@VRaven_Bot@@@@@Z$1
$LN7@Buynode:
	mov	DWORD PTR __$EHRec$[ebp+12], -1
__tryend$??$_Buynode@PAV?$Goal@VRaven_Bot@@@@@?$_List_buy@PAV?$Goal@VRaven_Bot@@@@V?$allocator@PAV?$Goal@VRaven_Bot@@@@@std@@@std@@QAEPAU?$_List_node@PAV?$Goal@VRaven_Bot@@@@PAX@1@PAU21@0$$QAPAV?$Goal@VRaven_Bot@@@@@Z$1:

; 723  : 
; 724  : 		return (_Pnode);

	mov	eax, DWORD PTR __Pnode$[ebp]
$LN3@Buynode:

; 725  : 		}

	mov	ecx, DWORD PTR __$EHRec$[ebp+4]
	mov	DWORD PTR fs:0, ecx
	pop	ecx
	pop	edi
	pop	esi
	pop	ebx
	add	esp, 28					; 0000001cH
	cmp	ebp, esp
	call	__RTC_CheckEsp
	mov	esp, ebp
	pop	ebp
	ret	12					; 0000000cH
_TEXT	ENDS
;	COMDAT text$x
text$x	SEGMENT
__ehhandler$??$_Buynode@PAV?$Goal@VRaven_Bot@@@@@?$_List_buy@PAV?$Goal@VRaven_Bot@@@@V?$allocator@PAV?$Goal@VRaven_Bot@@@@@std@@@std@@QAEPAU?$_List_node@PAV?$Goal@VRaven_Bot@@@@PAX@1@PAU21@0$$QAPAV?$Goal@VRaven_Bot@@@@@Z:
	mov	edx, DWORD PTR [esp+8]
	lea	eax, DWORD PTR [edx+12]
	mov	ecx, DWORD PTR [edx-32]
	xor	ecx, eax
	call	@__security_check_cookie@4
	mov	eax, OFFSET __ehfuncinfo$??$_Buynode@PAV?$Goal@VRaven_Bot@@@@@?$_List_buy@PAV?$Goal@VRaven_Bot@@@@V?$allocator@PAV?$Goal@VRaven_Bot@@@@@std@@@std@@QAEPAU?$_List_node@PAV?$Goal@VRaven_Bot@@@@PAX@1@PAU21@0$$QAPAV?$Goal@VRaven_Bot@@@@@Z
	jmp	___CxxFrameHandler3
text$x	ENDS
??$_Buynode@PAV?$Goal@VRaven_Bot@@@@@?$_List_buy@PAV?$Goal@VRaven_Bot@@@@V?$allocator@PAV?$Goal@VRaven_Bot@@@@@std@@@std@@QAEPAU?$_List_node@PAV?$Goal@VRaven_Bot@@@@PAX@1@PAU21@0$$QAPAV?$Goal@VRaven_Bot@@@@@Z ENDP ; std::_List_buy<Goal<Raven_Bot> *,std::allocator<Goal<Raven_Bot> *> >::_Buynode<Goal<Raven_Bot> *>
; Function compile flags: /Odtp /RTCsu
; File c:\program files (x86)\microsoft visual studio\2017\community\vc\tools\msvc\14.15.26726\include\type_traits
;	COMDAT ??$forward@PAV?$Goal@VRaven_Bot@@@@@std@@YA$$QAPAV?$Goal@VRaven_Bot@@@@AAPAV1@@Z
_TEXT	SEGMENT
__Arg$ = 8						; size = 4
??$forward@PAV?$Goal@VRaven_Bot@@@@@std@@YA$$QAPAV?$Goal@VRaven_Bot@@@@AAPAV1@@Z PROC ; std::forward<Goal<Raven_Bot> *>, COMDAT

; 1573 : 	{	// forward an lvalue as either an lvalue or an rvalue

	push	ebp
	mov	ebp, esp

; 1574 : 	return (static_cast<_Ty&&>(_Arg));

	mov	eax, DWORD PTR __Arg$[ebp]

; 1575 : 	}

	pop	ebp
	ret	0
??$forward@PAV?$Goal@VRaven_Bot@@@@@std@@YA$$QAPAV?$Goal@VRaven_Bot@@@@AAPAV1@@Z ENDP ; std::forward<Goal<Raven_Bot> *>
_TEXT	ENDS
; Function compile flags: /Odtp /RTCsu
; File c:\program files (x86)\microsoft visual studio\2017\community\vc\tools\msvc\14.15.26726\include\xutility
;	COMDAT ??$?9V?$_List_const_iterator@V?$_List_val@U?$_List_simple_types@PAV?$Goal@VRaven_Bot@@@@@std@@@std@@@std@@V01@@std@@YA_NABV?$reverse_iterator@V?$_List_const_iterator@V?$_List_val@U?$_List_simple_types@PAV?$Goal@VRaven_Bot@@@@@std@@@std@@@std@@@0@0@Z
_TEXT	SEGMENT
tv69 = -4						; size = 4
__Left$ = 8						; size = 4
__Right$ = 12						; size = 4
??$?9V?$_List_const_iterator@V?$_List_val@U?$_List_simple_types@PAV?$Goal@VRaven_Bot@@@@@std@@@std@@@std@@V01@@std@@YA_NABV?$reverse_iterator@V?$_List_const_iterator@V?$_List_val@U?$_List_simple_types@PAV?$Goal@VRaven_Bot@@@@@std@@@std@@@std@@@0@0@Z PROC ; std::operator!=<std::_List_const_iterator<std::_List_val<std::_List_simple_types<Goal<Raven_Bot> *> > >,std::_List_const_iterator<std::_List_val<std::_List_simple_types<Goal<Raven_Bot> *> > > >, COMDAT

; 1467 : 	{	// test for reverse_iterator inequality

	push	ebp
	mov	ebp, esp
	push	ecx
	mov	DWORD PTR [ebp-4], -858993460		; ccccccccH

; 1468 : 	return (!(_Left == _Right));

	mov	eax, DWORD PTR __Right$[ebp]
	push	eax
	mov	ecx, DWORD PTR __Left$[ebp]
	push	ecx
	call	??$?8V?$_List_const_iterator@V?$_List_val@U?$_List_simple_types@PAV?$Goal@VRaven_Bot@@@@@std@@@std@@@std@@V01@@std@@YA_NABV?$reverse_iterator@V?$_List_const_iterator@V?$_List_val@U?$_List_simple_types@PAV?$Goal@VRaven_Bot@@@@@std@@@std@@@std@@@0@0@Z ; std::operator==<std::_List_const_iterator<std::_List_val<std::_List_simple_types<Goal<Raven_Bot> *> > >,std::_List_const_iterator<std::_List_val<std::_List_simple_types<Goal<Raven_Bot> *> > > >
	add	esp, 8
	movzx	edx, al
	test	edx, edx
	jne	SHORT $LN3@operator
	mov	DWORD PTR tv69[ebp], 1
	jmp	SHORT $LN4@operator
$LN3@operator:
	mov	DWORD PTR tv69[ebp], 0
$LN4@operator:
	mov	al, BYTE PTR tv69[ebp]

; 1469 : 	}

	add	esp, 4
	cmp	ebp, esp
	call	__RTC_CheckEsp
	mov	esp, ebp
	pop	ebp
	ret	0
??$?9V?$_List_const_iterator@V?$_List_val@U?$_List_simple_types@PAV?$Goal@VRaven_Bot@@@@@std@@@std@@@std@@V01@@std@@YA_NABV?$reverse_iterator@V?$_List_const_iterator@V?$_List_val@U?$_List_simple_types@PAV?$Goal@VRaven_Bot@@@@@std@@@std@@@std@@@0@0@Z ENDP ; std::operator!=<std::_List_const_iterator<std::_List_val<std::_List_simple_types<Goal<Raven_Bot> *> > >,std::_List_const_iterator<std::_List_val<std::_List_simple_types<Goal<Raven_Bot> *> > > >
_TEXT	ENDS
; Function compile flags: /Odtp /RTCsu
;	COMDAT ??4?$reverse_iterator@V?$_List_const_iterator@V?$_List_val@U?$_List_simple_types@PAV?$Goal@VRaven_Bot@@@@@std@@@std@@@std@@@std@@QAEAAV01@$$QAV01@@Z
_TEXT	SEGMENT
_this$ = -4						; size = 4
___that$ = 8						; size = 4
??4?$reverse_iterator@V?$_List_const_iterator@V?$_List_val@U?$_List_simple_types@PAV?$Goal@VRaven_Bot@@@@@std@@@std@@@std@@@std@@QAEAAV01@$$QAV01@@Z PROC ; std::reverse_iterator<std::_List_const_iterator<std::_List_val<std::_List_simple_types<Goal<Raven_Bot> *> > > >::operator=, COMDAT
; _this$ = ecx
	push	ebp
	mov	ebp, esp
	push	ecx
	mov	DWORD PTR [ebp-4], -858993460		; ccccccccH
	mov	DWORD PTR _this$[ebp], ecx
	mov	eax, DWORD PTR ___that$[ebp]
	push	eax
	mov	ecx, DWORD PTR _this$[ebp]
	call	??4?$_List_const_iterator@V?$_List_val@U?$_List_simple_types@PAV?$Goal@VRaven_Bot@@@@@std@@@std@@@std@@QAEAAV01@$$QAV01@@Z
	mov	eax, DWORD PTR _this$[ebp]
	add	esp, 4
	cmp	ebp, esp
	call	__RTC_CheckEsp
	mov	esp, ebp
	pop	ebp
	ret	4
??4?$reverse_iterator@V?$_List_const_iterator@V?$_List_val@U?$_List_simple_types@PAV?$Goal@VRaven_Bot@@@@@std@@@std@@@std@@@std@@QAEAAV01@$$QAV01@@Z ENDP ; std::reverse_iterator<std::_List_const_iterator<std::_List_val<std::_List_simple_types<Goal<Raven_Bot> *> > > >::operator=
_TEXT	ENDS
; Function compile flags: /Odtp /RTCsu
;	COMDAT ??1?$reverse_iterator@V?$_List_const_iterator@V?$_List_val@U?$_List_simple_types@PAV?$Goal@VRaven_Bot@@@@@std@@@std@@@std@@@std@@QAE@XZ
_TEXT	SEGMENT
_this$ = -4						; size = 4
??1?$reverse_iterator@V?$_List_const_iterator@V?$_List_val@U?$_List_simple_types@PAV?$Goal@VRaven_Bot@@@@@std@@@std@@@std@@@std@@QAE@XZ PROC ; std::reverse_iterator<std::_List_const_iterator<std::_List_val<std::_List_simple_types<Goal<Raven_Bot> *> > > >::~reverse_iterator<std::_List_const_iterator<std::_List_val<std::_List_simple_types<Goal<Raven_Bot> *> > > >, COMDAT
; _this$ = ecx
	push	ebp
	mov	ebp, esp
	push	ecx
	mov	DWORD PTR [ebp-4], -858993460		; ccccccccH
	mov	DWORD PTR _this$[ebp], ecx
	mov	ecx, DWORD PTR _this$[ebp]
	call	??1?$_List_const_iterator@V?$_List_val@U?$_List_simple_types@PAV?$Goal@VRaven_Bot@@@@@std@@@std@@@std@@QAE@XZ
	add	esp, 4
	cmp	ebp, esp
	call	__RTC_CheckEsp
	mov	esp, ebp
	pop	ebp
	ret	0
??1?$reverse_iterator@V?$_List_const_iterator@V?$_List_val@U?$_List_simple_types@PAV?$Goal@VRaven_Bot@@@@@std@@@std@@@std@@@std@@QAE@XZ ENDP ; std::reverse_iterator<std::_List_const_iterator<std::_List_val<std::_List_simple_types<Goal<Raven_Bot> *> > > >::~reverse_iterator<std::_List_const_iterator<std::_List_val<std::_List_simple_types<Goal<Raven_Bot> *> > > >
_TEXT	ENDS
; Function compile flags: /Odtp /RTCsu
; File c:\program files (x86)\microsoft visual studio\2017\community\vc\tools\msvc\14.15.26726\include\xutility
;	COMDAT ??E?$reverse_iterator@V?$_List_const_iterator@V?$_List_val@U?$_List_simple_types@PAV?$Goal@VRaven_Bot@@@@@std@@@std@@@std@@@std@@QAEAAV01@XZ
_TEXT	SEGMENT
_this$ = -4						; size = 4
??E?$reverse_iterator@V?$_List_const_iterator@V?$_List_val@U?$_List_simple_types@PAV?$Goal@VRaven_Bot@@@@@std@@@std@@@std@@@std@@QAEAAV01@XZ PROC ; std::reverse_iterator<std::_List_const_iterator<std::_List_val<std::_List_simple_types<Goal<Raven_Bot> *> > > >::operator++, COMDAT
; _this$ = ecx

; 1348 : 		{	// preincrement

	push	ebp
	mov	ebp, esp
	push	ecx
	mov	DWORD PTR [ebp-4], -858993460		; ccccccccH
	mov	DWORD PTR _this$[ebp], ecx

; 1349 : 		--current;

	mov	ecx, DWORD PTR _this$[ebp]
	call	??F?$_List_const_iterator@V?$_List_val@U?$_List_simple_types@PAV?$Goal@VRaven_Bot@@@@@std@@@std@@@std@@QAEAAV01@XZ ; std::_List_const_iterator<std::_List_val<std::_List_simple_types<Goal<Raven_Bot> *> > >::operator--

; 1350 : 		return (*this);

	mov	eax, DWORD PTR _this$[ebp]

; 1351 : 		}

	add	esp, 4
	cmp	ebp, esp
	call	__RTC_CheckEsp
	mov	esp, ebp
	pop	ebp
	ret	0
??E?$reverse_iterator@V?$_List_const_iterator@V?$_List_val@U?$_List_simple_types@PAV?$Goal@VRaven_Bot@@@@@std@@@std@@@std@@@std@@QAEAAV01@XZ ENDP ; std::reverse_iterator<std::_List_const_iterator<std::_List_val<std::_List_simple_types<Goal<Raven_Bot> *> > > >::operator++
_TEXT	ENDS
; Function compile flags: /Odtp /RTCsu
; File c:\program files (x86)\microsoft visual studio\2017\community\vc\tools\msvc\14.15.26726\include\xutility
;	COMDAT ??D?$reverse_iterator@V?$_List_const_iterator@V?$_List_val@U?$_List_simple_types@PAV?$Goal@VRaven_Bot@@@@@std@@@std@@@std@@@std@@QBEABQAV?$Goal@VRaven_Bot@@@@XZ
_TEXT	SEGMENT
$T2 = -40						; size = 4
__Tmp$ = -32						; size = 12
_this$ = -16						; size = 4
__$EHRec$ = -12						; size = 12
??D?$reverse_iterator@V?$_List_const_iterator@V?$_List_val@U?$_List_simple_types@PAV?$Goal@VRaven_Bot@@@@@std@@@std@@@std@@@std@@QBEABQAV?$Goal@VRaven_Bot@@@@XZ PROC ; std::reverse_iterator<std::_List_const_iterator<std::_List_val<std::_List_simple_types<Goal<Raven_Bot> *> > > >::operator*, COMDAT
; _this$ = ecx

; 1335 : 		{	// return designated value

	push	ebp
	mov	ebp, esp
	push	-1
	push	__ehhandler$??D?$reverse_iterator@V?$_List_const_iterator@V?$_List_val@U?$_List_simple_types@PAV?$Goal@VRaven_Bot@@@@@std@@@std@@@std@@@std@@QBEABQAV?$Goal@VRaven_Bot@@@@XZ
	mov	eax, DWORD PTR fs:0
	push	eax
	sub	esp, 28					; 0000001cH
	mov	eax, -858993460				; ccccccccH
	mov	DWORD PTR [ebp-40], eax
	mov	DWORD PTR [ebp-36], eax
	mov	DWORD PTR [ebp-32], eax
	mov	DWORD PTR [ebp-28], eax
	mov	DWORD PTR [ebp-24], eax
	mov	DWORD PTR [ebp-20], eax
	mov	DWORD PTR [ebp-16], eax
	mov	eax, DWORD PTR ___security_cookie
	xor	eax, ebp
	push	eax
	lea	eax, DWORD PTR __$EHRec$[ebp]
	mov	DWORD PTR fs:0, eax
	mov	DWORD PTR _this$[ebp], ecx

; 1336 : 		_BidIt _Tmp = current;

	mov	eax, DWORD PTR _this$[ebp]
	push	eax
	lea	ecx, DWORD PTR __Tmp$[ebp]
	call	??0?$_List_const_iterator@V?$_List_val@U?$_List_simple_types@PAV?$Goal@VRaven_Bot@@@@@std@@@std@@@std@@QAE@ABV01@@Z
	mov	DWORD PTR __$EHRec$[ebp+8], 0

; 1337 : 		return (*--_Tmp);

	lea	ecx, DWORD PTR __Tmp$[ebp]
	call	??F?$_List_const_iterator@V?$_List_val@U?$_List_simple_types@PAV?$Goal@VRaven_Bot@@@@@std@@@std@@@std@@QAEAAV01@XZ ; std::_List_const_iterator<std::_List_val<std::_List_simple_types<Goal<Raven_Bot> *> > >::operator--
	mov	ecx, eax
	call	??D?$_List_const_iterator@V?$_List_val@U?$_List_simple_types@PAV?$Goal@VRaven_Bot@@@@@std@@@std@@@std@@QBEABQAV?$Goal@VRaven_Bot@@@@XZ ; std::_List_const_iterator<std::_List_val<std::_List_simple_types<Goal<Raven_Bot> *> > >::operator*
	mov	DWORD PTR $T2[ebp], eax
	mov	DWORD PTR __$EHRec$[ebp+8], -1
	lea	ecx, DWORD PTR __Tmp$[ebp]
	call	??1?$_List_const_iterator@V?$_List_val@U?$_List_simple_types@PAV?$Goal@VRaven_Bot@@@@@std@@@std@@@std@@QAE@XZ
	mov	eax, DWORD PTR $T2[ebp]

; 1338 : 		}

	push	edx
	mov	ecx, ebp
	push	eax
	lea	edx, DWORD PTR $LN7@operator
	call	@_RTC_CheckStackVars@8
	pop	eax
	pop	edx
	mov	ecx, DWORD PTR __$EHRec$[ebp]
	mov	DWORD PTR fs:0, ecx
	pop	ecx
	add	esp, 40					; 00000028H
	cmp	ebp, esp
	call	__RTC_CheckEsp
	mov	esp, ebp
	pop	ebp
	ret	0
	npad	1
$LN7@operator:
	DD	1
	DD	$LN6@operator
$LN6@operator:
	DD	-32					; ffffffe0H
	DD	12					; 0000000cH
	DD	$LN4@operator
$LN4@operator:
	DB	95					; 0000005fH
	DB	84					; 00000054H
	DB	109					; 0000006dH
	DB	112					; 00000070H
	DB	0
_TEXT	ENDS
;	COMDAT text$x
text$x	SEGMENT
__unwindfunclet$??D?$reverse_iterator@V?$_List_const_iterator@V?$_List_val@U?$_List_simple_types@PAV?$Goal@VRaven_Bot@@@@@std@@@std@@@std@@@std@@QBEABQAV?$Goal@VRaven_Bot@@@@XZ$0:
	lea	ecx, DWORD PTR __Tmp$[ebp]
	jmp	??1?$_List_const_iterator@V?$_List_val@U?$_List_simple_types@PAV?$Goal@VRaven_Bot@@@@@std@@@std@@@std@@QAE@XZ
__ehhandler$??D?$reverse_iterator@V?$_List_const_iterator@V?$_List_val@U?$_List_simple_types@PAV?$Goal@VRaven_Bot@@@@@std@@@std@@@std@@@std@@QBEABQAV?$Goal@VRaven_Bot@@@@XZ:
	mov	edx, DWORD PTR [esp+8]
	lea	eax, DWORD PTR [edx+12]
	mov	ecx, DWORD PTR [edx-32]
	xor	ecx, eax
	call	@__security_check_cookie@4
	mov	eax, OFFSET __ehfuncinfo$??D?$reverse_iterator@V?$_List_const_iterator@V?$_List_val@U?$_List_simple_types@PAV?$Goal@VRaven_Bot@@@@@std@@@std@@@std@@@std@@QBEABQAV?$Goal@VRaven_Bot@@@@XZ
	jmp	___CxxFrameHandler3
text$x	ENDS
??D?$reverse_iterator@V?$_List_const_iterator@V?$_List_val@U?$_List_simple_types@PAV?$Goal@VRaven_Bot@@@@@std@@@std@@@std@@@std@@QBEABQAV?$Goal@VRaven_Bot@@@@XZ ENDP ; std::reverse_iterator<std::_List_const_iterator<std::_List_val<std::_List_simple_types<Goal<Raven_Bot> *> > > >::operator*
; Function compile flags: /Odtp /RTCsu
; File c:\program files (x86)\microsoft visual studio\2017\community\vc\tools\msvc\14.15.26726\include\xutility
;	COMDAT ?base@?$reverse_iterator@V?$_List_const_iterator@V?$_List_val@U?$_List_simple_types@PAV?$Goal@VRaven_Bot@@@@@std@@@std@@@std@@@std@@QBE?AV?$_List_const_iterator@V?$_List_val@U?$_List_simple_types@PAV?$Goal@VRaven_Bot@@@@@std@@@std@@@2@XZ
_TEXT	SEGMENT
$T1 = -8						; size = 4
_this$ = -4						; size = 4
___$ReturnUdt$ = 8					; size = 4
?base@?$reverse_iterator@V?$_List_const_iterator@V?$_List_val@U?$_List_simple_types@PAV?$Goal@VRaven_Bot@@@@@std@@@std@@@std@@@std@@QBE?AV?$_List_const_iterator@V?$_List_val@U?$_List_simple_types@PAV?$Goal@VRaven_Bot@@@@@std@@@std@@@2@XZ PROC ; std::reverse_iterator<std::_List_const_iterator<std::_List_val<std::_List_simple_types<Goal<Raven_Bot> *> > > >::base, COMDAT
; _this$ = ecx

; 1330 : 		{	// return wrapped iterator

	push	ebp
	mov	ebp, esp
	sub	esp, 8
	mov	DWORD PTR [ebp-8], -858993460		; ccccccccH
	mov	DWORD PTR [ebp-4], -858993460		; ccccccccH
	mov	DWORD PTR _this$[ebp], ecx
	mov	DWORD PTR $T1[ebp], 0

; 1331 : 		return (current);

	mov	eax, DWORD PTR _this$[ebp]
	push	eax
	mov	ecx, DWORD PTR ___$ReturnUdt$[ebp]
	call	??0?$_List_const_iterator@V?$_List_val@U?$_List_simple_types@PAV?$Goal@VRaven_Bot@@@@@std@@@std@@@std@@QAE@ABV01@@Z
	mov	ecx, DWORD PTR $T1[ebp]
	or	ecx, 1
	mov	DWORD PTR $T1[ebp], ecx
	mov	eax, DWORD PTR ___$ReturnUdt$[ebp]

; 1332 : 		}

	add	esp, 8
	cmp	ebp, esp
	call	__RTC_CheckEsp
	mov	esp, ebp
	pop	ebp
	ret	4
?base@?$reverse_iterator@V?$_List_const_iterator@V?$_List_val@U?$_List_simple_types@PAV?$Goal@VRaven_Bot@@@@@std@@@std@@@std@@@std@@QBE?AV?$_List_const_iterator@V?$_List_val@U?$_List_simple_types@PAV?$Goal@VRaven_Bot@@@@@std@@@std@@@2@XZ ENDP ; std::reverse_iterator<std::_List_const_iterator<std::_List_val<std::_List_simple_types<Goal<Raven_Bot> *> > > >::base
_TEXT	ENDS
; Function compile flags: /Odtp /RTCsu
; File c:\program files (x86)\microsoft visual studio\2017\community\vc\tools\msvc\14.15.26726\include\xutility
;	COMDAT ??0?$reverse_iterator@V?$_List_const_iterator@V?$_List_val@U?$_List_simple_types@PAV?$Goal@VRaven_Bot@@@@@std@@@std@@@std@@@std@@QAE@V?$_List_const_iterator@V?$_List_val@U?$_List_simple_types@PAV?$Goal@VRaven_Bot@@@@@std@@@std@@@1@@Z
_TEXT	SEGMENT
_this$ = -4						; size = 4
__Right$ = 8						; size = 12
??0?$reverse_iterator@V?$_List_const_iterator@V?$_List_val@U?$_List_simple_types@PAV?$Goal@VRaven_Bot@@@@@std@@@std@@@std@@@std@@QAE@V?$_List_const_iterator@V?$_List_val@U?$_List_simple_types@PAV?$Goal@VRaven_Bot@@@@@std@@@std@@@1@@Z PROC ; std::reverse_iterator<std::_List_const_iterator<std::_List_val<std::_List_simple_types<Goal<Raven_Bot> *> > > >::reverse_iterator<std::_List_const_iterator<std::_List_val<std::_List_simple_types<Goal<Raven_Bot> *> > > >, COMDAT
; _this$ = ecx

; 1313 : 		{	// construct wrapped iterator from _Right

	push	ebp
	mov	ebp, esp
	push	ecx
	mov	DWORD PTR [ebp-4], -858993460		; ccccccccH
	mov	DWORD PTR _this$[ebp], ecx

; 1312 : 		: current(_Right)

	lea	eax, DWORD PTR __Right$[ebp]
	push	eax
	mov	ecx, DWORD PTR _this$[ebp]
	call	??0?$_List_const_iterator@V?$_List_val@U?$_List_simple_types@PAV?$Goal@VRaven_Bot@@@@@std@@@std@@@std@@QAE@ABV01@@Z

; 1314 : 		}

	lea	ecx, DWORD PTR __Right$[ebp]
	call	??1?$_List_const_iterator@V?$_List_val@U?$_List_simple_types@PAV?$Goal@VRaven_Bot@@@@@std@@@std@@@std@@QAE@XZ
	mov	eax, DWORD PTR _this$[ebp]
	add	esp, 4
	cmp	ebp, esp
	call	__RTC_CheckEsp
	mov	esp, ebp
	pop	ebp
	ret	12					; 0000000cH
??0?$reverse_iterator@V?$_List_const_iterator@V?$_List_val@U?$_List_simple_types@PAV?$Goal@VRaven_Bot@@@@@std@@@std@@@std@@@std@@QAE@V?$_List_const_iterator@V?$_List_val@U?$_List_simple_types@PAV?$Goal@VRaven_Bot@@@@@std@@@std@@@1@@Z ENDP ; std::reverse_iterator<std::_List_const_iterator<std::_List_val<std::_List_simple_types<Goal<Raven_Bot> *> > > >::reverse_iterator<std::_List_const_iterator<std::_List_val<std::_List_simple_types<Goal<Raven_Bot> *> > > >
_TEXT	ENDS
; Function compile flags: /Odtp /RTCsu
; File c:\program files (x86)\microsoft visual studio\2017\community\vc\tools\msvc\14.15.26726\include\xutility
;	COMDAT ??0?$reverse_iterator@V?$_List_const_iterator@V?$_List_val@U?$_List_simple_types@PAV?$Goal@VRaven_Bot@@@@@std@@@std@@@std@@@std@@QAE@XZ
_TEXT	SEGMENT
_this$ = -4						; size = 4
??0?$reverse_iterator@V?$_List_const_iterator@V?$_List_val@U?$_List_simple_types@PAV?$Goal@VRaven_Bot@@@@@std@@@std@@@std@@@std@@QAE@XZ PROC ; std::reverse_iterator<std::_List_const_iterator<std::_List_val<std::_List_simple_types<Goal<Raven_Bot> *> > > >::reverse_iterator<std::_List_const_iterator<std::_List_val<std::_List_simple_types<Goal<Raven_Bot> *> > > >, COMDAT
; _this$ = ecx

; 1308 : 		{	// construct with value-initialized wrapped iterator

	push	ebp
	mov	ebp, esp
	push	ecx
	mov	DWORD PTR [ebp-4], -858993460		; ccccccccH
	mov	DWORD PTR _this$[ebp], ecx

; 1307 : 		: current()

	mov	ecx, DWORD PTR _this$[ebp]
	call	??0?$_List_const_iterator@V?$_List_val@U?$_List_simple_types@PAV?$Goal@VRaven_Bot@@@@@std@@@std@@@std@@QAE@XZ ; std::_List_const_iterator<std::_List_val<std::_List_simple_types<Goal<Raven_Bot> *> > >::_List_const_iterator<std::_List_val<std::_List_simple_types<Goal<Raven_Bot> *> > >

; 1309 : 		}

	mov	eax, DWORD PTR _this$[ebp]
	add	esp, 4
	cmp	ebp, esp
	call	__RTC_CheckEsp
	mov	esp, ebp
	pop	ebp
	ret	0
??0?$reverse_iterator@V?$_List_const_iterator@V?$_List_val@U?$_List_simple_types@PAV?$Goal@VRaven_Bot@@@@@std@@@std@@@std@@@std@@QAE@XZ ENDP ; std::reverse_iterator<std::_List_const_iterator<std::_List_val<std::_List_simple_types<Goal<Raven_Bot> *> > > >::reverse_iterator<std::_List_const_iterator<std::_List_val<std::_List_simple_types<Goal<Raven_Bot> *> > > >
_TEXT	ENDS
; Function compile flags: /Odtp /RTCsu
; File c:\program files (x86)\microsoft visual studio\2017\community\vc\tools\msvc\14.15.26726\include\xmemory0
;	COMDAT ??$_Get_size_of_n@$0M@@std@@YAII@Z
_TEXT	SEGMENT
__Result$ = -8						; size = 4
__Max_possible$ = -4					; size = 4
__Count$ = 8						; size = 4
??$_Get_size_of_n@$0M@@std@@YAII@Z PROC			; std::_Get_size_of_n<12>, COMDAT

; 23   : 	{	// gets the size of _Count copies of a type sized _Ty_size

	push	ebp
	mov	ebp, esp
	sub	esp, 8
	mov	DWORD PTR [ebp-8], -858993460		; ccccccccH
	mov	DWORD PTR [ebp-4], -858993460		; ccccccccH

; 24   : 	constexpr size_t _Max_possible = static_cast<size_t>(-1) / _Ty_size;

	mov	DWORD PTR __Max_possible$[ebp], 357913941 ; 15555555H

; 25   : 	size_t _Result = _Count * _Ty_size;

	imul	eax, DWORD PTR __Count$[ebp], 12
	mov	DWORD PTR __Result$[ebp], eax

; 26   : 	if (_Max_possible < _Count)

	cmp	DWORD PTR __Count$[ebp], 357913941	; 15555555H
	jbe	SHORT $LN2@Get_size_o

; 27   : 		{	// multiply overflow, try allocating all of memory and assume the
; 28   : 			// allocation function will throw bad_alloc
; 29   : 		_Result = static_cast<size_t>(-1);

	mov	DWORD PTR __Result$[ebp], -1
$LN2@Get_size_o:

; 30   : 		}
; 31   : 
; 32   : 	return (_Result);

	mov	eax, DWORD PTR __Result$[ebp]

; 33   : 	}

	mov	esp, ebp
	pop	ebp
	ret	0
??$_Get_size_of_n@$0M@@std@@YAII@Z ENDP			; std::_Get_size_of_n<12>
_TEXT	ENDS
; Function compile flags: /Odtp /RTCsu
; File c:\program files (x86)\microsoft visual studio\2017\community\vc\tools\msvc\14.15.26726\include\xmemory0
;	COMDAT ??$construct@PAU?$_List_node@PAV?$Goal@VRaven_Bot@@@@PAX@std@@AAPAU12@@?$_Default_allocator_traits@V?$allocator@U?$_List_node@PAV?$Goal@VRaven_Bot@@@@PAX@std@@@std@@@std@@SAXAAV?$allocator@U?$_List_node@PAV?$Goal@VRaven_Bot@@@@PAX@std@@@1@QAPAU?$_List_node@PAV?$Goal@VRaven_Bot@@@@PAX@1@AAPAU31@@Z
_TEXT	SEGMENT
$T1 = -4						; size = 4
___formal$ = 8						; size = 4
__Ptr$ = 12						; size = 4
_<_Args_0>$ = 16					; size = 4
??$construct@PAU?$_List_node@PAV?$Goal@VRaven_Bot@@@@PAX@std@@AAPAU12@@?$_Default_allocator_traits@V?$allocator@U?$_List_node@PAV?$Goal@VRaven_Bot@@@@PAX@std@@@std@@@std@@SAXAAV?$allocator@U?$_List_node@PAV?$Goal@VRaven_Bot@@@@PAX@std@@@1@QAPAU?$_List_node@PAV?$Goal@VRaven_Bot@@@@PAX@1@AAPAU31@@Z PROC ; std::_Default_allocator_traits<std::allocator<std::_List_node<Goal<Raven_Bot> *,void *> > >::construct<std::_List_node<Goal<Raven_Bot> *,void *> *,std::_List_node<Goal<Raven_Bot> *,void *> * &>, COMDAT

; 879  : 		{	// construct _Objty(_Types...) at _Ptr

	push	ebp
	mov	ebp, esp
	push	ecx
	mov	DWORD PTR [ebp-4], -858993460		; ccccccccH

; 880  : 		::new (const_cast<void *>(static_cast<const volatile void *>(_Ptr)))

	mov	eax, DWORD PTR __Ptr$[ebp]
	push	eax
	push	4
	call	??2@YAPAXIPAX@Z				; operator new
	add	esp, 8
	mov	DWORD PTR $T1[ebp], eax
	mov	ecx, DWORD PTR _<_Args_0>$[ebp]
	push	ecx
	call	??$forward@AAPAU?$_List_node@PAV?$Goal@VRaven_Bot@@@@PAX@std@@@std@@YAAAPAU?$_List_node@PAV?$Goal@VRaven_Bot@@@@PAX@0@AAPAU10@@Z ; std::forward<std::_List_node<Goal<Raven_Bot> *,void *> * &>
	add	esp, 4
	mov	edx, DWORD PTR $T1[ebp]
	mov	eax, DWORD PTR [eax]
	mov	DWORD PTR [edx], eax

; 881  : 			_Objty(_STD forward<_Types>(_Args)...);
; 882  : 		}

	add	esp, 4
	cmp	ebp, esp
	call	__RTC_CheckEsp
	mov	esp, ebp
	pop	ebp
	ret	0
??$construct@PAU?$_List_node@PAV?$Goal@VRaven_Bot@@@@PAX@std@@AAPAU12@@?$_Default_allocator_traits@V?$allocator@U?$_List_node@PAV?$Goal@VRaven_Bot@@@@PAX@std@@@std@@@std@@SAXAAV?$allocator@U?$_List_node@PAV?$Goal@VRaven_Bot@@@@PAX@std@@@1@QAPAU?$_List_node@PAV?$Goal@VRaven_Bot@@@@PAX@1@AAPAU31@@Z ENDP ; std::_Default_allocator_traits<std::allocator<std::_List_node<Goal<Raven_Bot> *,void *> > >::construct<std::_List_node<Goal<Raven_Bot> *,void *> *,std::_List_node<Goal<Raven_Bot> *,void *> * &>
_TEXT	ENDS
; Function compile flags: /Odtp /RTCsu
; File c:\program files (x86)\microsoft visual studio\2017\community\vc\tools\msvc\14.15.26726\include\xstddef
;	COMDAT ??$addressof@PAU?$_List_node@PAV?$Goal@VRaven_Bot@@@@PAX@std@@@std@@YAPAPAU?$_List_node@PAV?$Goal@VRaven_Bot@@@@PAX@0@AAPAU10@@Z
_TEXT	SEGMENT
__Val$ = 8						; size = 4
??$addressof@PAU?$_List_node@PAV?$Goal@VRaven_Bot@@@@PAX@std@@@std@@YAPAPAU?$_List_node@PAV?$Goal@VRaven_Bot@@@@PAX@0@AAPAU10@@Z PROC ; std::addressof<std::_List_node<Goal<Raven_Bot> *,void *> *>, COMDAT

; 329  : 	{	// return address of _Val

	push	ebp
	mov	ebp, esp

; 330  : 	return (__builtin_addressof(_Val));

	mov	eax, DWORD PTR __Val$[ebp]

; 331  : 	}

	pop	ebp
	ret	0
??$addressof@PAU?$_List_node@PAV?$Goal@VRaven_Bot@@@@PAX@std@@@std@@YAPAPAU?$_List_node@PAV?$Goal@VRaven_Bot@@@@PAX@0@AAPAU10@@Z ENDP ; std::addressof<std::_List_node<Goal<Raven_Bot> *,void *> *>
_TEXT	ENDS
; Function compile flags: /Odtp /RTCsu
; File c:\program files (x86)\microsoft visual studio\2017\community\vc\tools\msvc\14.15.26726\include\xmemory0
;	COMDAT ??$_Get_size_of_n@$03@std@@YAII@Z
_TEXT	SEGMENT
__Result$ = -8						; size = 4
__Max_possible$ = -4					; size = 4
__Count$ = 8						; size = 4
??$_Get_size_of_n@$03@std@@YAII@Z PROC			; std::_Get_size_of_n<4>, COMDAT

; 23   : 	{	// gets the size of _Count copies of a type sized _Ty_size

	push	ebp
	mov	ebp, esp
	sub	esp, 8
	mov	DWORD PTR [ebp-8], -858993460		; ccccccccH
	mov	DWORD PTR [ebp-4], -858993460		; ccccccccH

; 24   : 	constexpr size_t _Max_possible = static_cast<size_t>(-1) / _Ty_size;

	mov	DWORD PTR __Max_possible$[ebp], 1073741823 ; 3fffffffH

; 25   : 	size_t _Result = _Count * _Ty_size;

	mov	eax, DWORD PTR __Count$[ebp]
	shl	eax, 2
	mov	DWORD PTR __Result$[ebp], eax

; 26   : 	if (_Max_possible < _Count)

	cmp	DWORD PTR __Count$[ebp], 1073741823	; 3fffffffH
	jbe	SHORT $LN2@Get_size_o

; 27   : 		{	// multiply overflow, try allocating all of memory and assume the
; 28   : 			// allocation function will throw bad_alloc
; 29   : 		_Result = static_cast<size_t>(-1);

	mov	DWORD PTR __Result$[ebp], -1
$LN2@Get_size_o:

; 30   : 		}
; 31   : 
; 32   : 	return (_Result);

	mov	eax, DWORD PTR __Result$[ebp]

; 33   : 	}

	mov	esp, ebp
	pop	ebp
	ret	0
??$_Get_size_of_n@$03@std@@YAII@Z ENDP			; std::_Get_size_of_n<4>
_TEXT	ENDS
; Function compile flags: /Odtp /RTCsu
; File c:\program files (x86)\microsoft visual studio\2017\community\vc\tools\msvc\14.15.26726\include\xmemory0
;	COMDAT ??$destroy@PAV?$Goal@VRaven_Bot@@@@@?$_Default_allocator_traits@V?$allocator@U?$_List_node@PAV?$Goal@VRaven_Bot@@@@PAX@std@@@std@@@std@@SAXAAV?$allocator@U?$_List_node@PAV?$Goal@VRaven_Bot@@@@PAX@std@@@1@QAPAV?$Goal@VRaven_Bot@@@@@Z
_TEXT	SEGMENT
___formal$ = 8						; size = 4
__Ptr$ = 12						; size = 4
??$destroy@PAV?$Goal@VRaven_Bot@@@@@?$_Default_allocator_traits@V?$allocator@U?$_List_node@PAV?$Goal@VRaven_Bot@@@@PAX@std@@@std@@@std@@SAXAAV?$allocator@U?$_List_node@PAV?$Goal@VRaven_Bot@@@@PAX@std@@@1@QAPAV?$Goal@VRaven_Bot@@@@@Z PROC ; std::_Default_allocator_traits<std::allocator<std::_List_node<Goal<Raven_Bot> *,void *> > >::destroy<Goal<Raven_Bot> *>, COMDAT

; 886  : 		{	// destroy object at _Ptr

	push	ebp
	mov	ebp, esp

; 887  : 		_Ptr->~_Uty();
; 888  : 		}

	pop	ebp
	ret	0
??$destroy@PAV?$Goal@VRaven_Bot@@@@@?$_Default_allocator_traits@V?$allocator@U?$_List_node@PAV?$Goal@VRaven_Bot@@@@PAX@std@@@std@@@std@@SAXAAV?$allocator@U?$_List_node@PAV?$Goal@VRaven_Bot@@@@PAX@std@@@1@QAPAV?$Goal@VRaven_Bot@@@@@Z ENDP ; std::_Default_allocator_traits<std::allocator<std::_List_node<Goal<Raven_Bot> *,void *> > >::destroy<Goal<Raven_Bot> *>
_TEXT	ENDS
; Function compile flags: /Odtp /RTCsu
; File c:\program files (x86)\microsoft visual studio\2017\community\vc\tools\msvc\14.15.26726\include\xstddef
;	COMDAT ??$addressof@PAV?$Goal@VRaven_Bot@@@@@std@@YAPAPAV?$Goal@VRaven_Bot@@@@AAPAV1@@Z
_TEXT	SEGMENT
__Val$ = 8						; size = 4
??$addressof@PAV?$Goal@VRaven_Bot@@@@@std@@YAPAPAV?$Goal@VRaven_Bot@@@@AAPAV1@@Z PROC ; std::addressof<Goal<Raven_Bot> *>, COMDAT

; 329  : 	{	// return address of _Val

	push	ebp
	mov	ebp, esp

; 330  : 	return (__builtin_addressof(_Val));

	mov	eax, DWORD PTR __Val$[ebp]

; 331  : 	}

	pop	ebp
	ret	0
??$addressof@PAV?$Goal@VRaven_Bot@@@@@std@@YAPAPAV?$Goal@VRaven_Bot@@@@AAPAV1@@Z ENDP ; std::addressof<Goal<Raven_Bot> *>
_TEXT	ENDS
; Function compile flags: /Odtp /RTCsu
; File c:\program files (x86)\microsoft visual studio\2017\community\vc\tools\msvc\14.15.26726\include\xmemory0
;	COMDAT ??$_Get_size_of_n@$07@std@@YAII@Z
_TEXT	SEGMENT
__Result$ = -8						; size = 4
__Max_possible$ = -4					; size = 4
__Count$ = 8						; size = 4
??$_Get_size_of_n@$07@std@@YAII@Z PROC			; std::_Get_size_of_n<8>, COMDAT

; 23   : 	{	// gets the size of _Count copies of a type sized _Ty_size

	push	ebp
	mov	ebp, esp
	sub	esp, 8
	mov	DWORD PTR [ebp-8], -858993460		; ccccccccH
	mov	DWORD PTR [ebp-4], -858993460		; ccccccccH

; 24   : 	constexpr size_t _Max_possible = static_cast<size_t>(-1) / _Ty_size;

	mov	DWORD PTR __Max_possible$[ebp], 536870911 ; 1fffffffH

; 25   : 	size_t _Result = _Count * _Ty_size;

	mov	eax, DWORD PTR __Count$[ebp]
	shl	eax, 3
	mov	DWORD PTR __Result$[ebp], eax

; 26   : 	if (_Max_possible < _Count)

	cmp	DWORD PTR __Count$[ebp], 536870911	; 1fffffffH
	jbe	SHORT $LN2@Get_size_o

; 27   : 		{	// multiply overflow, try allocating all of memory and assume the
; 28   : 			// allocation function will throw bad_alloc
; 29   : 		_Result = static_cast<size_t>(-1);

	mov	DWORD PTR __Result$[ebp], -1
$LN2@Get_size_o:

; 30   : 		}
; 31   : 
; 32   : 	return (_Result);

	mov	eax, DWORD PTR __Result$[ebp]

; 33   : 	}

	mov	esp, ebp
	pop	ebp
	ret	0
??$_Get_size_of_n@$07@std@@YAII@Z ENDP			; std::_Get_size_of_n<8>
_TEXT	ENDS
; Function compile flags: /Odtp /RTCsu
; File c:\program files (x86)\microsoft visual studio\2017\community\vc\tools\msvc\14.15.26726\include\xutility
;	COMDAT ??$?0$$V@?$_Compressed_pair@V?$allocator@U?$_List_node@PAV?$Goal@VRaven_Bot@@@@PAX@std@@@std@@V?$_List_val@U?$_List_simple_types@PAV?$Goal@VRaven_Bot@@@@@std@@@2@$00@std@@QAE@U_Zero_then_variadic_args_t@1@@Z
_TEXT	SEGMENT
_this$ = -4						; size = 4
___formal$ = 8						; size = 1
??$?0$$V@?$_Compressed_pair@V?$allocator@U?$_List_node@PAV?$Goal@VRaven_Bot@@@@PAX@std@@@std@@V?$_List_val@U?$_List_simple_types@PAV?$Goal@VRaven_Bot@@@@@std@@@2@$00@std@@QAE@U_Zero_then_variadic_args_t@1@@Z PROC ; std::_Compressed_pair<std::allocator<std::_List_node<Goal<Raven_Bot> *,void *> >,std::_List_val<std::_List_simple_types<Goal<Raven_Bot> *> >,1>::_Compressed_pair<std::allocator<std::_List_node<Goal<Raven_Bot> *,void *> >,std::_List_val<std::_List_simple_types<Goal<Raven_Bot> *> >,1><>, COMDAT
; _this$ = ecx

; 278  : 		{	// construct from forwarded values

	push	ebp
	mov	ebp, esp
	push	ecx
	mov	DWORD PTR [ebp-4], -858993460		; ccccccccH
	mov	DWORD PTR _this$[ebp], ecx

; 277  : 		: _Ty1(), _Myval2(_STD forward<_Other2>(_Val2)...)

	mov	ecx, DWORD PTR _this$[ebp]
	call	??0?$allocator@U?$_List_node@PAV?$Goal@VRaven_Bot@@@@PAX@std@@@std@@QAE@XZ ; std::allocator<std::_List_node<Goal<Raven_Bot> *,void *> >::allocator<std::_List_node<Goal<Raven_Bot> *,void *> >
	mov	ecx, DWORD PTR _this$[ebp]
	call	??0?$_List_val@U?$_List_simple_types@PAV?$Goal@VRaven_Bot@@@@@std@@@std@@QAE@XZ ; std::_List_val<std::_List_simple_types<Goal<Raven_Bot> *> >::_List_val<std::_List_simple_types<Goal<Raven_Bot> *> >

; 279  : 		}

	mov	eax, DWORD PTR _this$[ebp]
	add	esp, 4
	cmp	ebp, esp
	call	__RTC_CheckEsp
	mov	esp, ebp
	pop	ebp
	ret	4
??$?0$$V@?$_Compressed_pair@V?$allocator@U?$_List_node@PAV?$Goal@VRaven_Bot@@@@PAX@std@@@std@@V?$_List_val@U?$_List_simple_types@PAV?$Goal@VRaven_Bot@@@@@std@@@2@$00@std@@QAE@U_Zero_then_variadic_args_t@1@@Z ENDP ; std::_Compressed_pair<std::allocator<std::_List_node<Goal<Raven_Bot> *,void *> >,std::_List_val<std::_List_simple_types<Goal<Raven_Bot> *> >,1>::_Compressed_pair<std::allocator<std::_List_node<Goal<Raven_Bot> *,void *> >,std::_List_val<std::_List_simple_types<Goal<Raven_Bot> *> >,1><>
_TEXT	ENDS
; Function compile flags: /Odtp /RTCsu
; File c:\program files (x86)\microsoft visual studio\2017\community\vc\tools\msvc\14.15.26726\include\xmemory0
;	COMDAT ??$?0U?$_List_node@PAV?$Goal@VRaven_Bot@@@@PAX@std@@@?$allocator@U_Container_proxy@std@@@std@@QAE@ABV?$allocator@U?$_List_node@PAV?$Goal@VRaven_Bot@@@@PAX@std@@@1@@Z
_TEXT	SEGMENT
_this$ = -4						; size = 4
___formal$ = 8						; size = 4
??$?0U?$_List_node@PAV?$Goal@VRaven_Bot@@@@PAX@std@@@?$allocator@U_Container_proxy@std@@@std@@QAE@ABV?$allocator@U?$_List_node@PAV?$Goal@VRaven_Bot@@@@PAX@std@@@1@@Z PROC ; std::allocator<std::_Container_proxy>::allocator<std::_Container_proxy><std::_List_node<Goal<Raven_Bot> *,void *> >, COMDAT
; _this$ = ecx

; 986  : 		{	// construct from a related allocator (do nothing)

	push	ebp
	mov	ebp, esp
	push	ecx
	mov	DWORD PTR [ebp-4], -858993460		; ccccccccH
	mov	DWORD PTR _this$[ebp], ecx

; 987  : 		}

	mov	eax, DWORD PTR _this$[ebp]
	mov	esp, ebp
	pop	ebp
	ret	4
??$?0U?$_List_node@PAV?$Goal@VRaven_Bot@@@@PAX@std@@@?$allocator@U_Container_proxy@std@@@std@@QAE@ABV?$allocator@U?$_List_node@PAV?$Goal@VRaven_Bot@@@@PAX@std@@@1@@Z ENDP ; std::allocator<std::_Container_proxy>::allocator<std::_Container_proxy><std::_List_node<Goal<Raven_Bot> *,void *> >
_TEXT	ENDS
; Function compile flags: /Odtp /RTCsu
; File c:\program files (x86)\microsoft visual studio\2017\community\vc\tools\msvc\14.15.26726\include\list
;	COMDAT ??$_Freenode0@V?$allocator@U?$_List_node@PAV?$Goal@VRaven_Bot@@@@PAX@std@@@std@@@?$_List_node@PAV?$Goal@VRaven_Bot@@@@PAX@std@@SAXAAV?$allocator@U?$_List_node@PAV?$Goal@VRaven_Bot@@@@PAX@std@@@1@PAU01@@Z
_TEXT	SEGMENT
__Node_alloc$ = -17					; size = 1
__$EHRec$ = -12						; size = 12
__Al$ = 8						; size = 4
__Ptr$ = 12						; size = 4
??$_Freenode0@V?$allocator@U?$_List_node@PAV?$Goal@VRaven_Bot@@@@PAX@std@@@std@@@?$_List_node@PAV?$Goal@VRaven_Bot@@@@PAX@std@@SAXAAV?$allocator@U?$_List_node@PAV?$Goal@VRaven_Bot@@@@PAX@std@@@1@PAU01@@Z PROC ; std::_List_node<Goal<Raven_Bot> *,void *>::_Freenode0<std::allocator<std::_List_node<Goal<Raven_Bot> *,void *> > >, COMDAT

; 368  : 			{

	push	ebp
	mov	ebp, esp
	push	-1
	push	__ehhandler$??$_Freenode0@V?$allocator@U?$_List_node@PAV?$Goal@VRaven_Bot@@@@PAX@std@@@std@@@?$_List_node@PAV?$Goal@VRaven_Bot@@@@PAX@std@@SAXAAV?$allocator@U?$_List_node@PAV?$Goal@VRaven_Bot@@@@PAX@std@@@1@PAU01@@Z
	mov	eax, DWORD PTR fs:0
	push	eax
	sub	esp, 12					; 0000000cH
	mov	DWORD PTR [ebp-24], -858993460		; ccccccccH
	mov	DWORD PTR [ebp-20], -858993460		; ccccccccH
	mov	DWORD PTR [ebp-16], -858993460		; ccccccccH
	mov	eax, DWORD PTR ___security_cookie
	xor	eax, ebp
	push	eax
	lea	eax, DWORD PTR __$EHRec$[ebp]
	mov	DWORD PTR fs:0, eax

; 369  : 			using _Alnode = _Rebind_alloc_t<_Alloc, _List_node>;
; 370  : 			using _Alnode_traits = allocator_traits<_Alnode>;
; 371  : 			_Alnode _Node_alloc(_Al);
; 372  : 			_Alnode_traits::destroy(_Node_alloc, _STD addressof(_Ptr->_Next));

	mov	eax, DWORD PTR __Ptr$[ebp]
	push	eax
	call	??$addressof@PAU?$_List_node@PAV?$Goal@VRaven_Bot@@@@PAX@std@@@std@@YAPAPAU?$_List_node@PAV?$Goal@VRaven_Bot@@@@PAX@0@AAPAU10@@Z ; std::addressof<std::_List_node<Goal<Raven_Bot> *,void *> *>
	add	esp, 4
	push	eax
	lea	ecx, DWORD PTR __Node_alloc$[ebp]
	push	ecx
	call	??$destroy@PAU?$_List_node@PAV?$Goal@VRaven_Bot@@@@PAX@std@@@?$_Default_allocator_traits@V?$allocator@U?$_List_node@PAV?$Goal@VRaven_Bot@@@@PAX@std@@@std@@@std@@SAXAAV?$allocator@U?$_List_node@PAV?$Goal@VRaven_Bot@@@@PAX@std@@@1@QAPAU?$_List_node@PAV?$Goal@VRaven_Bot@@@@PAX@1@@Z ; std::_Default_allocator_traits<std::allocator<std::_List_node<Goal<Raven_Bot> *,void *> > >::destroy<std::_List_node<Goal<Raven_Bot> *,void *> *>
	add	esp, 8

; 373  : 			_Alnode_traits::destroy(_Node_alloc, _STD addressof(_Ptr->_Prev));

	mov	edx, DWORD PTR __Ptr$[ebp]
	add	edx, 4
	push	edx
	call	??$addressof@PAU?$_List_node@PAV?$Goal@VRaven_Bot@@@@PAX@std@@@std@@YAPAPAU?$_List_node@PAV?$Goal@VRaven_Bot@@@@PAX@0@AAPAU10@@Z ; std::addressof<std::_List_node<Goal<Raven_Bot> *,void *> *>
	add	esp, 4
	push	eax
	lea	eax, DWORD PTR __Node_alloc$[ebp]
	push	eax
	call	??$destroy@PAU?$_List_node@PAV?$Goal@VRaven_Bot@@@@PAX@std@@@?$_Default_allocator_traits@V?$allocator@U?$_List_node@PAV?$Goal@VRaven_Bot@@@@PAX@std@@@std@@@std@@SAXAAV?$allocator@U?$_List_node@PAV?$Goal@VRaven_Bot@@@@PAX@std@@@1@QAPAU?$_List_node@PAV?$Goal@VRaven_Bot@@@@PAX@1@@Z ; std::_Default_allocator_traits<std::allocator<std::_List_node<Goal<Raven_Bot> *,void *> > >::destroy<std::_List_node<Goal<Raven_Bot> *,void *> *>
	add	esp, 8

; 374  : 			_Alnode_traits::deallocate(_Node_alloc, _Ptr, 1);

	push	1
	mov	ecx, DWORD PTR __Ptr$[ebp]
	push	ecx
	lea	edx, DWORD PTR __Node_alloc$[ebp]
	push	edx
	call	?deallocate@?$_Default_allocator_traits@V?$allocator@U?$_List_node@PAV?$Goal@VRaven_Bot@@@@PAX@std@@@std@@@std@@SAXAAV?$allocator@U?$_List_node@PAV?$Goal@VRaven_Bot@@@@PAX@std@@@2@QAU?$_List_node@PAV?$Goal@VRaven_Bot@@@@PAX@2@I@Z ; std::_Default_allocator_traits<std::allocator<std::_List_node<Goal<Raven_Bot> *,void *> > >::deallocate
	add	esp, 12					; 0000000cH

; 375  : 			}

	push	edx
	mov	ecx, ebp
	push	eax
	lea	edx, DWORD PTR $LN6@Freenode0
	call	@_RTC_CheckStackVars@8
	pop	eax
	pop	edx
	mov	ecx, DWORD PTR __$EHRec$[ebp]
	mov	DWORD PTR fs:0, ecx
	pop	ecx
	add	esp, 24					; 00000018H
	cmp	ebp, esp
	call	__RTC_CheckEsp
	mov	esp, ebp
	pop	ebp
	ret	0
	npad	1
$LN6@Freenode0:
	DD	1
	DD	$LN5@Freenode0
$LN5@Freenode0:
	DD	-17					; ffffffefH
	DD	1
	DD	$LN3@Freenode0
$LN3@Freenode0:
	DB	95					; 0000005fH
	DB	78					; 0000004eH
	DB	111					; 0000006fH
	DB	100					; 00000064H
	DB	101					; 00000065H
	DB	95					; 0000005fH
	DB	97					; 00000061H
	DB	108					; 0000006cH
	DB	108					; 0000006cH
	DB	111					; 0000006fH
	DB	99					; 00000063H
	DB	0
_TEXT	ENDS
;	COMDAT text$x
text$x	SEGMENT
__ehhandler$??$_Freenode0@V?$allocator@U?$_List_node@PAV?$Goal@VRaven_Bot@@@@PAX@std@@@std@@@?$_List_node@PAV?$Goal@VRaven_Bot@@@@PAX@std@@SAXAAV?$allocator@U?$_List_node@PAV?$Goal@VRaven_Bot@@@@PAX@std@@@1@PAU01@@Z:
	mov	edx, DWORD PTR [esp+8]
	lea	eax, DWORD PTR [edx+12]
	mov	ecx, DWORD PTR [edx-16]
	xor	ecx, eax
	call	@__security_check_cookie@4
	mov	eax, OFFSET __ehfuncinfo$??$_Freenode0@V?$allocator@U?$_List_node@PAV?$Goal@VRaven_Bot@@@@PAX@std@@@std@@@?$_List_node@PAV?$Goal@VRaven_Bot@@@@PAX@std@@SAXAAV?$allocator@U?$_List_node@PAV?$Goal@VRaven_Bot@@@@PAX@std@@@1@PAU01@@Z
	jmp	___CxxFrameHandler3
text$x	ENDS
??$_Freenode0@V?$allocator@U?$_List_node@PAV?$Goal@VRaven_Bot@@@@PAX@std@@@std@@@?$_List_node@PAV?$Goal@VRaven_Bot@@@@PAX@std@@SAXAAV?$allocator@U?$_List_node@PAV?$Goal@VRaven_Bot@@@@PAX@std@@@1@PAU01@@Z ENDP ; std::_List_node<Goal<Raven_Bot> *,void *>::_Freenode0<std::allocator<std::_List_node<Goal<Raven_Bot> *,void *> > >
; Function compile flags: /Odtp /RTCsu
; File c:\program files (x86)\microsoft visual studio\2017\community\vc\tools\msvc\14.15.26726\include\xmemory0
;	COMDAT ??$?0D@?$allocator@U_Container_proxy@std@@@std@@QAE@ABV?$allocator@D@1@@Z
_TEXT	SEGMENT
_this$ = -4						; size = 4
___formal$ = 8						; size = 4
??$?0D@?$allocator@U_Container_proxy@std@@@std@@QAE@ABV?$allocator@D@1@@Z PROC ; std::allocator<std::_Container_proxy>::allocator<std::_Container_proxy><char>, COMDAT
; _this$ = ecx

; 986  : 		{	// construct from a related allocator (do nothing)

	push	ebp
	mov	ebp, esp
	push	ecx
	mov	DWORD PTR [ebp-4], -858993460		; ccccccccH
	mov	DWORD PTR _this$[ebp], ecx

; 987  : 		}

	mov	eax, DWORD PTR _this$[ebp]
	mov	esp, ebp
	pop	ebp
	ret	4
??$?0D@?$allocator@U_Container_proxy@std@@@std@@QAE@ABV?$allocator@D@1@@Z ENDP ; std::allocator<std::_Container_proxy>::allocator<std::_Container_proxy><char>
_TEXT	ENDS
; Function compile flags: /Odtp /RTCsu
; File c:\program files (x86)\microsoft visual studio\2017\community\vc\tools\msvc\14.15.26726\include\xmemory0
;	COMDAT ??$_Destroy_range@V?$allocator@PAVGoal_Evaluator@@@std@@@std@@YAXPAPAVGoal_Evaluator@@0AAV?$allocator@PAVGoal_Evaluator@@@0@@Z
_TEXT	SEGMENT
$T1 = -1						; size = 1
__First$ = 8						; size = 4
__Last$ = 12						; size = 4
__Al$ = 16						; size = 4
??$_Destroy_range@V?$allocator@PAVGoal_Evaluator@@@std@@@std@@YAXPAPAVGoal_Evaluator@@0AAV?$allocator@PAVGoal_Evaluator@@@0@@Z PROC ; std::_Destroy_range<std::allocator<Goal_Evaluator *> >, COMDAT

; 1154 : 	{	// destroy [_First, _Last), choose optimization

	push	ebp
	mov	ebp, esp
	push	ecx
	mov	DWORD PTR [ebp-4], -858993460		; ccccccccH

; 1155 : 		// note that this is an optimization for debug mode codegen;
; 1156 : 		// in release mode the BE removes all of this
; 1157 : 	using _Val = typename _Alloc::value_type;
; 1158 : 	_Destroy_range1(_First, _Last, _Al, bool_constant<conjunction_v<

	xor	eax, eax
	mov	BYTE PTR $T1[ebp], al
	movzx	ecx, BYTE PTR $T1[ebp]
	push	ecx
	mov	edx, DWORD PTR __Al$[ebp]
	push	edx
	mov	eax, DWORD PTR __Last$[ebp]
	push	eax
	mov	ecx, DWORD PTR __First$[ebp]
	push	ecx
	call	??$_Destroy_range1@V?$allocator@PAVGoal_Evaluator@@@std@@@std@@YAXPAPAVGoal_Evaluator@@0AAV?$allocator@PAVGoal_Evaluator@@@0@U?$integral_constant@_N$00@0@@Z ; std::_Destroy_range1<std::allocator<Goal_Evaluator *> >
	add	esp, 16					; 00000010H

; 1159 : 		is_trivially_destructible<_Val>,
; 1160 : 		_Uses_default_destroy<_Alloc, _Val *>>>{});
; 1161 : 	}

	add	esp, 4
	cmp	ebp, esp
	call	__RTC_CheckEsp
	mov	esp, ebp
	pop	ebp
	ret	0
??$_Destroy_range@V?$allocator@PAVGoal_Evaluator@@@std@@@std@@YAXPAPAVGoal_Evaluator@@0AAV?$allocator@PAVGoal_Evaluator@@@0@@Z ENDP ; std::_Destroy_range<std::allocator<Goal_Evaluator *> >
_TEXT	ENDS
; Function compile flags: /Odtp /RTCsu
; File c:\program files (x86)\microsoft visual studio\2017\community\vc\tools\msvc\14.15.26726\include\xmemory0
;	COMDAT ??$construct@U_Container_proxy@std@@U12@@?$_Default_allocator_traits@V?$allocator@U_Container_proxy@std@@@std@@@std@@SAXAAV?$allocator@U_Container_proxy@std@@@1@QAU_Container_proxy@1@$$QAU31@@Z
_TEXT	SEGMENT
$T1 = -4						; size = 4
___formal$ = 8						; size = 4
__Ptr$ = 12						; size = 4
_<_Args_0>$ = 16					; size = 4
??$construct@U_Container_proxy@std@@U12@@?$_Default_allocator_traits@V?$allocator@U_Container_proxy@std@@@std@@@std@@SAXAAV?$allocator@U_Container_proxy@std@@@1@QAU_Container_proxy@1@$$QAU31@@Z PROC ; std::_Default_allocator_traits<std::allocator<std::_Container_proxy> >::construct<std::_Container_proxy,std::_Container_proxy>, COMDAT

; 879  : 		{	// construct _Objty(_Types...) at _Ptr

	push	ebp
	mov	ebp, esp
	push	ecx
	mov	DWORD PTR [ebp-4], -858993460		; ccccccccH

; 880  : 		::new (const_cast<void *>(static_cast<const volatile void *>(_Ptr)))

	mov	eax, DWORD PTR __Ptr$[ebp]
	push	eax
	push	8
	call	??2@YAPAXIPAX@Z				; operator new
	add	esp, 8
	mov	DWORD PTR $T1[ebp], eax
	mov	ecx, DWORD PTR _<_Args_0>$[ebp]
	push	ecx
	call	??$forward@U_Container_proxy@std@@@std@@YA$$QAU_Container_proxy@0@AAU10@@Z ; std::forward<std::_Container_proxy>
	add	esp, 4
	mov	edx, DWORD PTR [eax]
	mov	eax, DWORD PTR [eax+4]
	mov	ecx, DWORD PTR $T1[ebp]
	mov	DWORD PTR [ecx], edx
	mov	DWORD PTR [ecx+4], eax

; 881  : 			_Objty(_STD forward<_Types>(_Args)...);
; 882  : 		}

	add	esp, 4
	cmp	ebp, esp
	call	__RTC_CheckEsp
	mov	esp, ebp
	pop	ebp
	ret	0
??$construct@U_Container_proxy@std@@U12@@?$_Default_allocator_traits@V?$allocator@U_Container_proxy@std@@@std@@@std@@SAXAAV?$allocator@U_Container_proxy@std@@@1@QAU_Container_proxy@1@$$QAU31@@Z ENDP ; std::_Default_allocator_traits<std::allocator<std::_Container_proxy> >::construct<std::_Container_proxy,std::_Container_proxy>
_TEXT	ENDS
; Function compile flags: /Odtp /RTCsu
; File c:\program files (x86)\microsoft visual studio\2017\community\vc\tools\msvc\14.15.26726\include\xstddef
;	COMDAT ??$_Unfancy@U_Container_proxy@std@@@std@@YAPAU_Container_proxy@0@PAU10@@Z
_TEXT	SEGMENT
__Ptr$ = 8						; size = 4
??$_Unfancy@U_Container_proxy@std@@@std@@YAPAU_Container_proxy@0@PAU10@@Z PROC ; std::_Unfancy<std::_Container_proxy>, COMDAT

; 345  : 	{	// do nothing for plain pointers

	push	ebp
	mov	ebp, esp

; 346  : 	return (_Ptr);

	mov	eax, DWORD PTR __Ptr$[ebp]

; 347  : 	}

	pop	ebp
	ret	0
??$_Unfancy@U_Container_proxy@std@@@std@@YAPAU_Container_proxy@0@PAU10@@Z ENDP ; std::_Unfancy<std::_Container_proxy>
_TEXT	ENDS
; Function compile flags: /Odtp /RTCsu
; File c:\program files (x86)\microsoft visual studio\2017\community\vc\tools\msvc\14.15.26726\include\xmemory0
;	COMDAT ??$?0PAVGoal_Evaluator@@@?$allocator@U_Container_proxy@std@@@std@@QAE@ABV?$allocator@PAVGoal_Evaluator@@@1@@Z
_TEXT	SEGMENT
_this$ = -4						; size = 4
___formal$ = 8						; size = 4
??$?0PAVGoal_Evaluator@@@?$allocator@U_Container_proxy@std@@@std@@QAE@ABV?$allocator@PAVGoal_Evaluator@@@1@@Z PROC ; std::allocator<std::_Container_proxy>::allocator<std::_Container_proxy><Goal_Evaluator *>, COMDAT
; _this$ = ecx

; 986  : 		{	// construct from a related allocator (do nothing)

	push	ebp
	mov	ebp, esp
	push	ecx
	mov	DWORD PTR [ebp-4], -858993460		; ccccccccH
	mov	DWORD PTR _this$[ebp], ecx

; 987  : 		}

	mov	eax, DWORD PTR _this$[ebp]
	mov	esp, ebp
	pop	ebp
	ret	4
??$?0PAVGoal_Evaluator@@@?$allocator@U_Container_proxy@std@@@std@@QAE@ABV?$allocator@PAVGoal_Evaluator@@@1@@Z ENDP ; std::allocator<std::_Container_proxy>::allocator<std::_Container_proxy><Goal_Evaluator *>
_TEXT	ENDS
; Function compile flags: /Odtp /RTCsu
; File c:\program files (x86)\microsoft visual studio\2017\community\vc\tools\msvc\14.15.26726\include\xmemory0
;	COMDAT ??$_Deallocate_plain@V?$allocator@U_Container_proxy@std@@@std@@$0A@@std@@YAXAAV?$allocator@U_Container_proxy@std@@@0@QAU_Container_proxy@0@@Z
_TEXT	SEGMENT
__Al$ = 8						; size = 4
__Ptr$ = 12						; size = 4
??$_Deallocate_plain@V?$allocator@U_Container_proxy@std@@@std@@$0A@@std@@YAXAAV?$allocator@U_Container_proxy@std@@@0@QAU_Container_proxy@0@@Z PROC ; std::_Deallocate_plain<std::allocator<std::_Container_proxy>,0>, COMDAT

; 1212 : 	{	// deallocate a plain pointer using an allocator, non-fancy pointers special case

	push	ebp
	mov	ebp, esp

; 1213 : 	allocator_traits<_Alloc>::deallocate(_Al, _Ptr, 1);

	push	1
	mov	eax, DWORD PTR __Ptr$[ebp]
	push	eax
	mov	ecx, DWORD PTR __Al$[ebp]
	push	ecx
	call	?deallocate@?$_Default_allocator_traits@V?$allocator@U_Container_proxy@std@@@std@@@std@@SAXAAV?$allocator@U_Container_proxy@std@@@2@QAU_Container_proxy@2@I@Z ; std::_Default_allocator_traits<std::allocator<std::_Container_proxy> >::deallocate
	add	esp, 12					; 0000000cH

; 1214 : 	}

	cmp	ebp, esp
	call	__RTC_CheckEsp
	pop	ebp
	ret	0
??$_Deallocate_plain@V?$allocator@U_Container_proxy@std@@@std@@$0A@@std@@YAXAAV?$allocator@U_Container_proxy@std@@@0@QAU_Container_proxy@0@@Z ENDP ; std::_Deallocate_plain<std::allocator<std::_Container_proxy>,0>
_TEXT	ENDS
; Function compile flags: /Odtp /RTCsu
; File c:\program files (x86)\microsoft visual studio\2017\community\vc\tools\msvc\14.15.26726\include\xmemory0
;	COMDAT ??$destroy@U_Container_proxy@std@@@?$_Default_allocator_traits@V?$allocator@U_Container_proxy@std@@@std@@@std@@SAXAAV?$allocator@U_Container_proxy@std@@@1@QAU_Container_proxy@1@@Z
_TEXT	SEGMENT
___formal$ = 8						; size = 4
__Ptr$ = 12						; size = 4
??$destroy@U_Container_proxy@std@@@?$_Default_allocator_traits@V?$allocator@U_Container_proxy@std@@@std@@@std@@SAXAAV?$allocator@U_Container_proxy@std@@@1@QAU_Container_proxy@1@@Z PROC ; std::_Default_allocator_traits<std::allocator<std::_Container_proxy> >::destroy<std::_Container_proxy>, COMDAT

; 886  : 		{	// destroy object at _Ptr

	push	ebp
	mov	ebp, esp

; 887  : 		_Ptr->~_Uty();
; 888  : 		}

	pop	ebp
	ret	0
??$destroy@U_Container_proxy@std@@@?$_Default_allocator_traits@V?$allocator@U_Container_proxy@std@@@std@@@std@@SAXAAV?$allocator@U_Container_proxy@std@@@1@QAU_Container_proxy@1@@Z ENDP ; std::_Default_allocator_traits<std::allocator<std::_Container_proxy> >::destroy<std::_Container_proxy>
_TEXT	ENDS
; Function compile flags: /Odtp /RTCsu
; File c:\program files (x86)\microsoft visual studio\2017\community\vc\tools\msvc\14.15.26726\include\xmemory0
;	COMDAT ?deallocate@?$_Default_allocator_traits@V?$allocator@U_Container_proxy@std@@@std@@@std@@SAXAAV?$allocator@U_Container_proxy@std@@@2@QAU_Container_proxy@2@I@Z
_TEXT	SEGMENT
___formal$ = 8						; size = 4
__Ptr$ = 12						; size = 4
__Count$ = 16						; size = 4
?deallocate@?$_Default_allocator_traits@V?$allocator@U_Container_proxy@std@@@std@@@std@@SAXAAV?$allocator@U_Container_proxy@std@@@2@QAU_Container_proxy@2@I@Z PROC ; std::_Default_allocator_traits<std::allocator<std::_Container_proxy> >::deallocate, COMDAT

; 871  : 		{	// deallocate _Count elements at _Ptr

	push	ebp
	mov	ebp, esp

; 872  : 		// no overflow check on the following multiply; we assume _Allocate did that check
; 873  : 		_Deallocate<_New_alignof<value_type>>(_Ptr, sizeof(value_type) * _Count);

	mov	eax, DWORD PTR __Count$[ebp]
	shl	eax, 3
	push	eax
	mov	ecx, DWORD PTR __Ptr$[ebp]
	push	ecx
	call	??$_Deallocate@$07$0A@@std@@YAXPAXI@Z	; std::_Deallocate<8,0>
	add	esp, 8

; 874  : 		}

	cmp	ebp, esp
	call	__RTC_CheckEsp
	pop	ebp
	ret	0
?deallocate@?$_Default_allocator_traits@V?$allocator@U_Container_proxy@std@@@std@@@std@@SAXAAV?$allocator@U_Container_proxy@std@@@2@QAU_Container_proxy@2@I@Z ENDP ; std::_Default_allocator_traits<std::allocator<std::_Container_proxy> >::deallocate
_TEXT	ENDS
; Function compile flags: /Odtp /RTCsu
; File c:\program files (x86)\microsoft visual studio\2017\community\vc\tools\msvc\14.15.26726\include\xmemory0
;	COMDAT ?allocate@?$allocator@U_Container_proxy@std@@@std@@QAEPAU_Container_proxy@2@I@Z
_TEXT	SEGMENT
_this$ = -4						; size = 4
__Count$ = 8						; size = 4
?allocate@?$allocator@U_Container_proxy@std@@@std@@QAEPAU_Container_proxy@2@I@Z PROC ; std::allocator<std::_Container_proxy>::allocate, COMDAT
; _this$ = ecx

; 996  : 		{	// allocate array of _Count elements

	push	ebp
	mov	ebp, esp
	push	ecx
	mov	DWORD PTR [ebp-4], -858993460		; ccccccccH
	mov	DWORD PTR _this$[ebp], ecx

; 997  : 		return (static_cast<_Ty *>(_Allocate<_New_alignof<_Ty>>(_Get_size_of_n<sizeof(_Ty)>(_Count))));

	mov	eax, DWORD PTR __Count$[ebp]
	push	eax
	call	??$_Get_size_of_n@$07@std@@YAII@Z	; std::_Get_size_of_n<8>
	add	esp, 4
	push	eax
	call	??$_Allocate@$07U_Default_allocate_traits@std@@$0A@@std@@YAPAXI@Z ; std::_Allocate<8,std::_Default_allocate_traits,0>
	add	esp, 4

; 998  : 		}

	add	esp, 4
	cmp	ebp, esp
	call	__RTC_CheckEsp
	mov	esp, ebp
	pop	ebp
	ret	4
?allocate@?$allocator@U_Container_proxy@std@@@std@@QAEPAU_Container_proxy@2@I@Z ENDP ; std::allocator<std::_Container_proxy>::allocate
_TEXT	ENDS
; Function compile flags: /Odtp /RTCsu
; File c:\program files (x86)\microsoft visual studio\2017\community\vc\tools\msvc\14.15.26726\include\xmemory0
;	COMDAT ??$_Deallocate@$07$0A@@std@@YAXPAXI@Z
_TEXT	SEGMENT
__Ptr$ = 8						; size = 4
__Bytes$ = 12						; size = 4
??$_Deallocate@$07$0A@@std@@YAXPAXI@Z PROC		; std::_Deallocate<8,0>, COMDAT

; 199  : 	{	// deallocate storage allocated by _Allocate when !_HAS_ALIGNED_NEW || _Align <= __STDCPP_DEFAULT_NEW_ALIGNMENT__

	push	ebp
	mov	ebp, esp

; 200  :  #if defined(_M_IX86) || defined(_M_X64)
; 201  : 	if (_Bytes >= _Big_allocation_threshold)

	cmp	DWORD PTR __Bytes$[ebp], 4096		; 00001000H
	jb	SHORT $LN2@Deallocate

; 202  : 		{	// boost the alignment of big allocations to help autovectorization
; 203  : 		_Adjust_manually_vector_aligned(_Ptr, _Bytes);

	lea	eax, DWORD PTR __Bytes$[ebp]
	push	eax
	lea	ecx, DWORD PTR __Ptr$[ebp]
	push	ecx
	call	?_Adjust_manually_vector_aligned@std@@YAXAAPAXAAI@Z ; std::_Adjust_manually_vector_aligned
	add	esp, 8
$LN2@Deallocate:

; 204  : 		}
; 205  :  #endif /* defined(_M_IX86) || defined(_M_X64) */
; 206  : 
; 207  : 	::operator delete(_Ptr, _Bytes);

	mov	edx, DWORD PTR __Bytes$[ebp]
	push	edx
	mov	eax, DWORD PTR __Ptr$[ebp]
	push	eax
	call	??3@YAXPAXI@Z				; operator delete
	add	esp, 8

; 208  : 	}

	cmp	ebp, esp
	call	__RTC_CheckEsp
	pop	ebp
	ret	0
??$_Deallocate@$07$0A@@std@@YAXPAXI@Z ENDP		; std::_Deallocate<8,0>
_TEXT	ENDS
; Function compile flags: /Odtp /RTCsu
; File c:\program files (x86)\microsoft visual studio\2017\community\vc\tools\msvc\14.15.26726\include\xmemory0
;	COMDAT ??$_Allocate@$07U_Default_allocate_traits@std@@$0A@@std@@YAPAXI@Z
_TEXT	SEGMENT
__Bytes$ = 8						; size = 4
??$_Allocate@$07U_Default_allocate_traits@std@@$0A@@std@@YAPAXI@Z PROC ; std::_Allocate<8,std::_Default_allocate_traits,0>, COMDAT

; 180  : 	{	// allocate _Bytes when !_HAS_ALIGNED_NEW || _Align <= __STDCPP_DEFAULT_NEW_ALIGNMENT__

	push	ebp
	mov	ebp, esp

; 181  :  #if defined(_M_IX86) || defined(_M_X64)
; 182  : 	if (_Bytes >= _Big_allocation_threshold)

	cmp	DWORD PTR __Bytes$[ebp], 4096		; 00001000H
	jb	SHORT $LN2@Allocate

; 183  : 		{	// boost the alignment of big allocations to help autovectorization
; 184  : 		return (_Allocate_manually_vector_aligned<_Traits>(_Bytes));

	mov	eax, DWORD PTR __Bytes$[ebp]
	push	eax
	call	??$_Allocate_manually_vector_aligned@U_Default_allocate_traits@std@@@std@@YAPAXI@Z ; std::_Allocate_manually_vector_aligned<std::_Default_allocate_traits>
	add	esp, 4
	jmp	SHORT $LN1@Allocate
$LN2@Allocate:

; 185  : 		}
; 186  :  #endif /* defined(_M_IX86) || defined(_M_X64) */
; 187  : 
; 188  : 	if (_Bytes != 0)

	cmp	DWORD PTR __Bytes$[ebp], 0
	je	SHORT $LN3@Allocate

; 189  : 		{
; 190  : 		return (_Traits::_Allocate(_Bytes));

	mov	ecx, DWORD PTR __Bytes$[ebp]
	push	ecx
	call	?_Allocate@_Default_allocate_traits@std@@SAPAXI@Z ; std::_Default_allocate_traits::_Allocate
	add	esp, 4
	jmp	SHORT $LN1@Allocate
$LN3@Allocate:

; 191  : 		}
; 192  : 
; 193  : 	return (nullptr);

	xor	eax, eax
$LN1@Allocate:

; 194  : 	}

	cmp	ebp, esp
	call	__RTC_CheckEsp
	pop	ebp
	ret	0
??$_Allocate@$07U_Default_allocate_traits@std@@$0A@@std@@YAPAXI@Z ENDP ; std::_Allocate<8,std::_Default_allocate_traits,0>
_TEXT	ENDS
; Function compile flags: /Odtp /RTCsu
; File c:\program files (x86)\microsoft visual studio\2017\community\vc\tools\msvc\14.15.26726\include\xmemory0
;	COMDAT ??$destroy@PAD@?$_Default_allocator_traits@V?$allocator@D@std@@@std@@SAXAAV?$allocator@D@1@QAPAD@Z
_TEXT	SEGMENT
___formal$ = 8						; size = 4
__Ptr$ = 12						; size = 4
??$destroy@PAD@?$_Default_allocator_traits@V?$allocator@D@std@@@std@@SAXAAV?$allocator@D@1@QAPAD@Z PROC ; std::_Default_allocator_traits<std::allocator<char> >::destroy<char *>, COMDAT

; 886  : 		{	// destroy object at _Ptr

	push	ebp
	mov	ebp, esp

; 887  : 		_Ptr->~_Uty();
; 888  : 		}

	pop	ebp
	ret	0
??$destroy@PAD@?$_Default_allocator_traits@V?$allocator@D@std@@@std@@SAXAAV?$allocator@D@1@QAPAD@Z ENDP ; std::_Default_allocator_traits<std::allocator<char> >::destroy<char *>
_TEXT	ENDS
; Function compile flags: /Odtp /RTCsu
; File c:\program files (x86)\microsoft visual studio\2017\community\vc\tools\msvc\14.15.26726\include\xstddef
;	COMDAT ??$addressof@PAD@std@@YAPAPADAAPAD@Z
_TEXT	SEGMENT
__Val$ = 8						; size = 4
??$addressof@PAD@std@@YAPAPADAAPAD@Z PROC		; std::addressof<char *>, COMDAT

; 329  : 	{	// return address of _Val

	push	ebp
	mov	ebp, esp

; 330  : 	return (__builtin_addressof(_Val));

	mov	eax, DWORD PTR __Val$[ebp]

; 331  : 	}

	pop	ebp
	ret	0
??$addressof@PAD@std@@YAPAPADAAPAD@Z ENDP		; std::addressof<char *>
_TEXT	ENDS
; Function compile flags: /Odtp /RTCsu
; File c:\program files (x86)\microsoft visual studio\2017\community\vc\tools\msvc\14.15.26726\include\xstddef
;	COMDAT ??$addressof@$$CBV?$_List_val@U?$_List_simple_types@PAV?$Goal@VRaven_Bot@@@@@std@@@std@@@std@@YAPBV?$_List_val@U?$_List_simple_types@PAV?$Goal@VRaven_Bot@@@@@std@@@0@ABV10@@Z
_TEXT	SEGMENT
__Val$ = 8						; size = 4
??$addressof@$$CBV?$_List_val@U?$_List_simple_types@PAV?$Goal@VRaven_Bot@@@@@std@@@std@@@std@@YAPBV?$_List_val@U?$_List_simple_types@PAV?$Goal@VRaven_Bot@@@@@std@@@0@ABV10@@Z PROC ; std::addressof<std::_List_val<std::_List_simple_types<Goal<Raven_Bot> *> > const >, COMDAT

; 329  : 	{	// return address of _Val

	push	ebp
	mov	ebp, esp

; 330  : 	return (__builtin_addressof(_Val));

	mov	eax, DWORD PTR __Val$[ebp]

; 331  : 	}

	pop	ebp
	ret	0
??$addressof@$$CBV?$_List_val@U?$_List_simple_types@PAV?$Goal@VRaven_Bot@@@@@std@@@std@@@std@@YAPBV?$_List_val@U?$_List_simple_types@PAV?$Goal@VRaven_Bot@@@@@std@@@0@ABV10@@Z ENDP ; std::addressof<std::_List_val<std::_List_simple_types<Goal<Raven_Bot> *> > const >
_TEXT	ENDS
; Function compile flags: /Odtp /RTCsu
; File c:\program files (x86)\microsoft visual studio\2017\community\vc\tools\msvc\14.15.26726\include\xutility
;	COMDAT ??$?0$$V@?$_Compressed_pair@V?$allocator@PAVGoal_Evaluator@@@std@@V?$_Vector_val@U?$_Simple_types@PAVGoal_Evaluator@@@std@@@2@$00@std@@QAE@U_Zero_then_variadic_args_t@1@@Z
_TEXT	SEGMENT
_this$ = -4						; size = 4
___formal$ = 8						; size = 1
??$?0$$V@?$_Compressed_pair@V?$allocator@PAVGoal_Evaluator@@@std@@V?$_Vector_val@U?$_Simple_types@PAVGoal_Evaluator@@@std@@@2@$00@std@@QAE@U_Zero_then_variadic_args_t@1@@Z PROC ; std::_Compressed_pair<std::allocator<Goal_Evaluator *>,std::_Vector_val<std::_Simple_types<Goal_Evaluator *> >,1>::_Compressed_pair<std::allocator<Goal_Evaluator *>,std::_Vector_val<std::_Simple_types<Goal_Evaluator *> >,1><>, COMDAT
; _this$ = ecx

; 278  : 		{	// construct from forwarded values

	push	ebp
	mov	ebp, esp
	push	ecx
	mov	DWORD PTR [ebp-4], -858993460		; ccccccccH
	mov	DWORD PTR _this$[ebp], ecx

; 277  : 		: _Ty1(), _Myval2(_STD forward<_Other2>(_Val2)...)

	mov	ecx, DWORD PTR _this$[ebp]
	call	??0?$allocator@PAVGoal_Evaluator@@@std@@QAE@XZ ; std::allocator<Goal_Evaluator *>::allocator<Goal_Evaluator *>
	mov	ecx, DWORD PTR _this$[ebp]
	call	??0?$_Vector_val@U?$_Simple_types@PAVGoal_Evaluator@@@std@@@std@@QAE@XZ ; std::_Vector_val<std::_Simple_types<Goal_Evaluator *> >::_Vector_val<std::_Simple_types<Goal_Evaluator *> >

; 279  : 		}

	mov	eax, DWORD PTR _this$[ebp]
	add	esp, 4
	cmp	ebp, esp
	call	__RTC_CheckEsp
	mov	esp, ebp
	pop	ebp
	ret	4
??$?0$$V@?$_Compressed_pair@V?$allocator@PAVGoal_Evaluator@@@std@@V?$_Vector_val@U?$_Simple_types@PAVGoal_Evaluator@@@std@@@2@$00@std@@QAE@U_Zero_then_variadic_args_t@1@@Z ENDP ; std::_Compressed_pair<std::allocator<Goal_Evaluator *>,std::_Vector_val<std::_Simple_types<Goal_Evaluator *> >,1>::_Compressed_pair<std::allocator<Goal_Evaluator *>,std::_Vector_val<std::_Simple_types<Goal_Evaluator *> >,1><>
_TEXT	ENDS
; Function compile flags: /Odtp /RTCsu
; File c:\program files (x86)\microsoft visual studio\2017\community\vc\tools\msvc\14.15.26726\include\xstddef
;	COMDAT ??$_Unfancy@D@std@@YAPADPAD@Z
_TEXT	SEGMENT
__Ptr$ = 8						; size = 4
??$_Unfancy@D@std@@YAPADPAD@Z PROC			; std::_Unfancy<char>, COMDAT

; 345  : 	{	// do nothing for plain pointers

	push	ebp
	mov	ebp, esp

; 346  : 	return (_Ptr);

	mov	eax, DWORD PTR __Ptr$[ebp]

; 347  : 	}

	pop	ebp
	ret	0
??$_Unfancy@D@std@@YAPADPAD@Z ENDP			; std::_Unfancy<char>
_TEXT	ENDS
; Function compile flags: /Odtp /RTCsu
; File c:\program files (x86)\microsoft visual studio\2017\community\vc\tools\msvc\14.15.26726\include\utility
;	COMDAT ??$_Min_value@I@std@@YAABIABI0@Z
_TEXT	SEGMENT
tv65 = -8						; size = 4
$T1 = -4						; size = 4
__Left$ = 8						; size = 4
__Right$ = 12						; size = 4
??$_Min_value@I@std@@YAABIABI0@Z PROC			; std::_Min_value<unsigned int>, COMDAT

; 23   : 	{	// return smaller of _Left and _Right

	push	ebp
	mov	ebp, esp
	sub	esp, 8
	mov	DWORD PTR [ebp-8], -858993460		; ccccccccH
	mov	DWORD PTR [ebp-4], -858993460		; ccccccccH

; 24   : 	return (_Right < _Left ? _Right : _Left);

	mov	eax, DWORD PTR __Right$[ebp]
	mov	ecx, DWORD PTR __Left$[ebp]
	mov	edx, DWORD PTR [eax]
	cmp	edx, DWORD PTR [ecx]
	jae	SHORT $LN3@Min_value
	mov	eax, DWORD PTR __Right$[ebp]
	mov	DWORD PTR tv65[ebp], eax
	jmp	SHORT $LN4@Min_value
$LN3@Min_value:
	mov	ecx, DWORD PTR __Left$[ebp]
	mov	DWORD PTR tv65[ebp], ecx
$LN4@Min_value:
	mov	edx, DWORD PTR tv65[ebp]
	mov	DWORD PTR $T1[ebp], edx
	mov	eax, DWORD PTR $T1[ebp]

; 25   : 	}

	mov	esp, ebp
	pop	ebp
	ret	0
??$_Min_value@I@std@@YAABIABI0@Z ENDP			; std::_Min_value<unsigned int>
_TEXT	ENDS
; Function compile flags: /Odtp /RTCsu
; File c:\program files (x86)\microsoft visual studio\2017\community\vc\tools\msvc\14.15.26726\include\list
;	COMDAT ??$_Insert@PAV?$Goal@VRaven_Bot@@@@@?$list@PAV?$Goal@VRaven_Bot@@@@V?$allocator@PAV?$Goal@VRaven_Bot@@@@@std@@@std@@QAEXV?$_List_unchecked_const_iterator@V?$_List_val@U?$_List_simple_types@PAV?$Goal@VRaven_Bot@@@@@std@@@std@@U_Iterator_base0@2@@1@$$QAPAV?$Goal@VRaven_Bot@@@@@Z
_TEXT	SEGMENT
__Newnode$ = -16					; size = 4
__Leftnode$ = -12					; size = 4
__Rightnode$ = -8					; size = 4
_this$ = -4						; size = 4
__Where$ = 8						; size = 4
_<_Val_0>$ = 12						; size = 4
??$_Insert@PAV?$Goal@VRaven_Bot@@@@@?$list@PAV?$Goal@VRaven_Bot@@@@V?$allocator@PAV?$Goal@VRaven_Bot@@@@@std@@@std@@QAEXV?$_List_unchecked_const_iterator@V?$_List_val@U?$_List_simple_types@PAV?$Goal@VRaven_Bot@@@@@std@@@std@@U_Iterator_base0@2@@1@$$QAPAV?$Goal@VRaven_Bot@@@@@Z PROC ; std::list<Goal<Raven_Bot> *,std::allocator<Goal<Raven_Bot> *> >::_Insert<Goal<Raven_Bot> *>, COMDAT
; _this$ = ecx

; 947  : 		{	// insert element at _Where

	push	ebp
	mov	ebp, esp
	sub	esp, 16					; 00000010H
	mov	eax, -858993460				; ccccccccH
	mov	DWORD PTR [ebp-16], eax
	mov	DWORD PTR [ebp-12], eax
	mov	DWORD PTR [ebp-8], eax
	mov	DWORD PTR [ebp-4], eax
	mov	DWORD PTR _this$[ebp], ecx

; 948  : 		const _Nodeptr _Rightnode = _Where._Ptr;

	mov	eax, DWORD PTR __Where$[ebp]
	mov	DWORD PTR __Rightnode$[ebp], eax

; 949  : 		const _Nodeptr _Leftnode = _Rightnode->_Prev;

	mov	ecx, DWORD PTR __Rightnode$[ebp]
	mov	edx, DWORD PTR [ecx+4]
	mov	DWORD PTR __Leftnode$[ebp], edx

; 950  : 		const _Nodeptr _Newnode = this->_Buynode(_Rightnode, _Leftnode, _STD forward<_Valty>(_Val)...);

	mov	eax, DWORD PTR _<_Val_0>$[ebp]
	push	eax
	call	??$forward@PAV?$Goal@VRaven_Bot@@@@@std@@YA$$QAPAV?$Goal@VRaven_Bot@@@@AAPAV1@@Z ; std::forward<Goal<Raven_Bot> *>
	add	esp, 4
	push	eax
	mov	ecx, DWORD PTR __Leftnode$[ebp]
	push	ecx
	mov	edx, DWORD PTR __Rightnode$[ebp]
	push	edx
	mov	ecx, DWORD PTR _this$[ebp]
	call	??$_Buynode@PAV?$Goal@VRaven_Bot@@@@@?$_List_buy@PAV?$Goal@VRaven_Bot@@@@V?$allocator@PAV?$Goal@VRaven_Bot@@@@@std@@@std@@QAEPAU?$_List_node@PAV?$Goal@VRaven_Bot@@@@PAX@1@PAU21@0$$QAPAV?$Goal@VRaven_Bot@@@@@Z ; std::_List_buy<Goal<Raven_Bot> *,std::allocator<Goal<Raven_Bot> *> >::_Buynode<Goal<Raven_Bot> *>
	mov	DWORD PTR __Newnode$[ebp], eax

; 951  : 		_Incsize(1);

	push	1
	mov	ecx, DWORD PTR _this$[ebp]
	call	?_Incsize@?$list@PAV?$Goal@VRaven_Bot@@@@V?$allocator@PAV?$Goal@VRaven_Bot@@@@@std@@@std@@QAEXI@Z ; std::list<Goal<Raven_Bot> *,std::allocator<Goal<Raven_Bot> *> >::_Incsize

; 952  : 		_Rightnode->_Prev = _Newnode;

	mov	eax, DWORD PTR __Rightnode$[ebp]
	mov	ecx, DWORD PTR __Newnode$[ebp]
	mov	DWORD PTR [eax+4], ecx

; 953  : 		_Leftnode->_Next = _Newnode;

	mov	edx, DWORD PTR __Leftnode$[ebp]
	mov	eax, DWORD PTR __Newnode$[ebp]
	mov	DWORD PTR [edx], eax

; 954  : 		}

	add	esp, 16					; 00000010H
	cmp	ebp, esp
	call	__RTC_CheckEsp
	mov	esp, ebp
	pop	ebp
	ret	8
??$_Insert@PAV?$Goal@VRaven_Bot@@@@@?$list@PAV?$Goal@VRaven_Bot@@@@V?$allocator@PAV?$Goal@VRaven_Bot@@@@@std@@@std@@QAEXV?$_List_unchecked_const_iterator@V?$_List_val@U?$_List_simple_types@PAV?$Goal@VRaven_Bot@@@@@std@@@std@@U_Iterator_base0@2@@1@$$QAPAV?$Goal@VRaven_Bot@@@@@Z ENDP ; std::list<Goal<Raven_Bot> *,std::allocator<Goal<Raven_Bot> *> >::_Insert<Goal<Raven_Bot> *>
_TEXT	ENDS
; Function compile flags: /Odtp /RTCsu
; File c:\program files (x86)\microsoft visual studio\2017\community\vc\tools\msvc\14.15.26726\include\type_traits
;	COMDAT ??$move@AAPAV?$Goal@VRaven_Bot@@@@@std@@YA$$QAPAV?$Goal@VRaven_Bot@@@@AAPAV1@@Z
_TEXT	SEGMENT
__Arg$ = 8						; size = 4
??$move@AAPAV?$Goal@VRaven_Bot@@@@@std@@YA$$QAPAV?$Goal@VRaven_Bot@@@@AAPAV1@@Z PROC ; std::move<Goal<Raven_Bot> * &>, COMDAT

; 1588 : 	{	// forward _Arg as movable

	push	ebp
	mov	ebp, esp

; 1589 : 	return (static_cast<remove_reference_t<_Ty>&&>(_Arg));

	mov	eax, DWORD PTR __Arg$[ebp]

; 1590 : 	}

	pop	ebp
	ret	0
??$move@AAPAV?$Goal@VRaven_Bot@@@@@std@@YA$$QAPAV?$Goal@VRaven_Bot@@@@AAPAV1@@Z ENDP ; std::move<Goal<Raven_Bot> * &>
_TEXT	ENDS
; Function compile flags: /Odtp /RTCsu
; File c:\program files (x86)\microsoft visual studio\2017\community\vc\tools\msvc\14.15.26726\include\list
;	COMDAT ??0?$_List_unchecked_iterator@V?$_List_val@U?$_List_simple_types@PAV?$Goal@VRaven_Bot@@@@@std@@@std@@@std@@QAE@PAU?$_List_node@PAV?$Goal@VRaven_Bot@@@@PAX@1@PBV?$_List_val@U?$_List_simple_types@PAV?$Goal@VRaven_Bot@@@@@std@@@1@@Z
_TEXT	SEGMENT
_this$ = -4						; size = 4
__Pnode$ = 8						; size = 4
__Plist$ = 12						; size = 4
??0?$_List_unchecked_iterator@V?$_List_val@U?$_List_simple_types@PAV?$Goal@VRaven_Bot@@@@@std@@@std@@@std@@QAE@PAU?$_List_node@PAV?$Goal@VRaven_Bot@@@@PAX@1@PBV?$_List_val@U?$_List_simple_types@PAV?$Goal@VRaven_Bot@@@@@std@@@1@@Z PROC ; std::_List_unchecked_iterator<std::_List_val<std::_List_simple_types<Goal<Raven_Bot> *> > >::_List_unchecked_iterator<std::_List_val<std::_List_simple_types<Goal<Raven_Bot> *> > >, COMDAT
; _this$ = ecx

; 117  : 		{	// construct with node pointer _Pnode

	push	ebp
	mov	ebp, esp
	push	ecx
	mov	DWORD PTR [ebp-4], -858993460		; ccccccccH
	mov	DWORD PTR _this$[ebp], ecx

; 116  : 		: _Mybase(_Pnode, _Plist)

	mov	eax, DWORD PTR __Plist$[ebp]
	push	eax
	mov	ecx, DWORD PTR __Pnode$[ebp]
	push	ecx
	mov	ecx, DWORD PTR _this$[ebp]
	call	??0?$_List_unchecked_const_iterator@V?$_List_val@U?$_List_simple_types@PAV?$Goal@VRaven_Bot@@@@@std@@@std@@U_Iterator_base0@2@@std@@QAE@PAU?$_List_node@PAV?$Goal@VRaven_Bot@@@@PAX@1@PBV?$_List_val@U?$_List_simple_types@PAV?$Goal@VRaven_Bot@@@@@std@@@1@@Z ; std::_List_unchecked_const_iterator<std::_List_val<std::_List_simple_types<Goal<Raven_Bot> *> >,std::_Iterator_base0>::_List_unchecked_const_iterator<std::_List_val<std::_List_simple_types<Goal<Raven_Bot> *> >,std::_Iterator_base0>

; 118  : 		}

	mov	eax, DWORD PTR _this$[ebp]
	add	esp, 4
	cmp	ebp, esp
	call	__RTC_CheckEsp
	mov	esp, ebp
	pop	ebp
	ret	8
??0?$_List_unchecked_iterator@V?$_List_val@U?$_List_simple_types@PAV?$Goal@VRaven_Bot@@@@@std@@@std@@@std@@QAE@PAU?$_List_node@PAV?$Goal@VRaven_Bot@@@@PAX@1@PBV?$_List_val@U?$_List_simple_types@PAV?$Goal@VRaven_Bot@@@@@std@@@1@@Z ENDP ; std::_List_unchecked_iterator<std::_List_val<std::_List_simple_types<Goal<Raven_Bot> *> > >::_List_unchecked_iterator<std::_List_val<std::_List_simple_types<Goal<Raven_Bot> *> > >
_TEXT	ENDS
; Function compile flags: /Odtp /RTCsu
; File c:\program files (x86)\microsoft visual studio\2017\community\vc\tools\msvc\14.15.26726\include\list
;	COMDAT ??0?$_List_unchecked_const_iterator@V?$_List_val@U?$_List_simple_types@PAV?$Goal@VRaven_Bot@@@@@std@@@std@@U_Iterator_base0@2@@std@@QAE@PAU?$_List_node@PAV?$Goal@VRaven_Bot@@@@PAX@1@PBV?$_List_val@U?$_List_simple_types@PAV?$Goal@VRaven_Bot@@@@@std@@@1@@Z
_TEXT	SEGMENT
_this$ = -4						; size = 4
__Pnode$ = 8						; size = 4
__Plist$ = 12						; size = 4
??0?$_List_unchecked_const_iterator@V?$_List_val@U?$_List_simple_types@PAV?$Goal@VRaven_Bot@@@@@std@@@std@@U_Iterator_base0@2@@std@@QAE@PAU?$_List_node@PAV?$Goal@VRaven_Bot@@@@PAX@1@PBV?$_List_val@U?$_List_simple_types@PAV?$Goal@VRaven_Bot@@@@@std@@@1@@Z PROC ; std::_List_unchecked_const_iterator<std::_List_val<std::_List_simple_types<Goal<Raven_Bot> *> >,std::_Iterator_base0>::_List_unchecked_const_iterator<std::_List_val<std::_List_simple_types<Goal<Raven_Bot> *> >,std::_Iterator_base0>, COMDAT
; _this$ = ecx

; 43   : 		{	// construct with node pointer _Pnode

	push	ebp
	mov	ebp, esp
	push	ecx
	mov	DWORD PTR [ebp-4], -858993460		; ccccccccH
	mov	DWORD PTR _this$[ebp], ecx

; 42   : 		: _Ptr(_Pnode)

	mov	eax, DWORD PTR _this$[ebp]
	mov	ecx, DWORD PTR __Pnode$[ebp]
	mov	DWORD PTR [eax], ecx

; 44   : 		this->_Adopt(_Plist);

	mov	edx, DWORD PTR __Plist$[ebp]
	push	edx
	mov	ecx, DWORD PTR _this$[ebp]
	call	?_Adopt@_Iterator_base0@std@@QAEXPBX@Z	; std::_Iterator_base0::_Adopt

; 45   : 		}

	mov	eax, DWORD PTR _this$[ebp]
	add	esp, 4
	cmp	ebp, esp
	call	__RTC_CheckEsp
	mov	esp, ebp
	pop	ebp
	ret	8
??0?$_List_unchecked_const_iterator@V?$_List_val@U?$_List_simple_types@PAV?$Goal@VRaven_Bot@@@@@std@@@std@@U_Iterator_base0@2@@std@@QAE@PAU?$_List_node@PAV?$Goal@VRaven_Bot@@@@PAX@1@PBV?$_List_val@U?$_List_simple_types@PAV?$Goal@VRaven_Bot@@@@@std@@@1@@Z ENDP ; std::_List_unchecked_const_iterator<std::_List_val<std::_List_simple_types<Goal<Raven_Bot> *> >,std::_Iterator_base0>::_List_unchecked_const_iterator<std::_List_val<std::_List_simple_types<Goal<Raven_Bot> *> >,std::_Iterator_base0>
_TEXT	ENDS
; Function compile flags: /Odtp /RTCsu
; File c:\program files (x86)\microsoft visual studio\2017\community\vc\tools\msvc\14.15.26726\include\xstddef
;	COMDAT ??$addressof@V?$_List_val@U?$_List_simple_types@PAV?$Goal@VRaven_Bot@@@@@std@@@std@@@std@@YAPAV?$_List_val@U?$_List_simple_types@PAV?$Goal@VRaven_Bot@@@@@std@@@0@AAV10@@Z
_TEXT	SEGMENT
__Val$ = 8						; size = 4
??$addressof@V?$_List_val@U?$_List_simple_types@PAV?$Goal@VRaven_Bot@@@@@std@@@std@@@std@@YAPAV?$_List_val@U?$_List_simple_types@PAV?$Goal@VRaven_Bot@@@@@std@@@0@AAV10@@Z PROC ; std::addressof<std::_List_val<std::_List_simple_types<Goal<Raven_Bot> *> > >, COMDAT

; 329  : 	{	// return address of _Val

	push	ebp
	mov	ebp, esp

; 330  : 	return (__builtin_addressof(_Val));

	mov	eax, DWORD PTR __Val$[ebp]

; 331  : 	}

	pop	ebp
	ret	0
??$addressof@V?$_List_val@U?$_List_simple_types@PAV?$Goal@VRaven_Bot@@@@@std@@@std@@@std@@YAPAV?$_List_val@U?$_List_simple_types@PAV?$Goal@VRaven_Bot@@@@@std@@@0@AAV10@@Z ENDP ; std::addressof<std::_List_val<std::_List_simple_types<Goal<Raven_Bot> *> > >
_TEXT	ENDS
; Function compile flags: /Odtp /RTCsu
; File c:\program files (x86)\microsoft visual studio\2017\community\vc\tools\msvc\14.15.26726\include\vector
;	COMDAT ??$_Emplace_reallocate@PAVGoal_Evaluator@@@?$vector@PAVGoal_Evaluator@@V?$allocator@PAVGoal_Evaluator@@@std@@@std@@QAEPAPAVGoal_Evaluator@@QAPAV2@$$QAPAV2@@Z
_TEXT	SEGMENT
tv206 = -56						; size = 4
__Constructed_first$ = -52				; size = 4
__Constructed_last$ = -48				; size = 4
__Newvec$ = -44						; size = 4
__Newcapacity$ = -40					; size = 4
__Newsize$ = -36					; size = 4
__Oldsize$ = -32					; size = 4
__Al$ = -28						; size = 4
__Whereoff$ = -24					; size = 4
_this$ = -20						; size = 4
__$EHRec$ = -16						; size = 16
__Whereptr$ = 8						; size = 4
_<_Val_0>$ = 12						; size = 4
??$_Emplace_reallocate@PAVGoal_Evaluator@@@?$vector@PAVGoal_Evaluator@@V?$allocator@PAVGoal_Evaluator@@@std@@@std@@QAEPAPAVGoal_Evaluator@@QAPAV2@$$QAPAV2@@Z PROC ; std::vector<Goal_Evaluator *,std::allocator<Goal_Evaluator *> >::_Emplace_reallocate<Goal_Evaluator *>, COMDAT
; _this$ = ecx

; 942  : 		{	// reallocate and insert by perfectly forwarding _Val at _Whereptr

	push	ebp
	mov	ebp, esp
	push	-1
	push	__ehhandler$??$_Emplace_reallocate@PAVGoal_Evaluator@@@?$vector@PAVGoal_Evaluator@@V?$allocator@PAVGoal_Evaluator@@@std@@@std@@QAEPAPAVGoal_Evaluator@@QAPAV2@$$QAPAV2@@Z
	mov	eax, DWORD PTR fs:0
	push	eax
	push	ecx
	sub	esp, 40					; 00000028H
	push	ebx
	push	esi
	push	edi
	push	ecx
	lea	edi, DWORD PTR [ebp-56]
	mov	ecx, 10					; 0000000aH
	mov	eax, -858993460				; ccccccccH
	rep stosd
	pop	ecx
	mov	eax, DWORD PTR ___security_cookie
	xor	eax, ebp
	push	eax
	lea	eax, DWORD PTR __$EHRec$[ebp+4]
	mov	DWORD PTR fs:0, eax
	mov	DWORD PTR __$EHRec$[ebp], esp
	mov	DWORD PTR _this$[ebp], ecx

; 943  : 			// pre: !_Has_unused_capacity()
; 944  : 		const size_type _Whereoff = static_cast<size_type>(_Whereptr - this->_Myfirst());

	mov	ecx, DWORD PTR _this$[ebp]
	call	?_Myfirst@?$_Vector_alloc@U?$_Vec_base_types@PAVGoal_Evaluator@@V?$allocator@PAVGoal_Evaluator@@@std@@@std@@@std@@QAEAAPAPAVGoal_Evaluator@@XZ ; std::_Vector_alloc<std::_Vec_base_types<Goal_Evaluator *,std::allocator<Goal_Evaluator *> > >::_Myfirst
	mov	ecx, DWORD PTR __Whereptr$[ebp]
	sub	ecx, DWORD PTR [eax]
	sar	ecx, 2
	mov	DWORD PTR __Whereoff$[ebp], ecx

; 945  : 		_Alty& _Al = this->_Getal();

	mov	ecx, DWORD PTR _this$[ebp]
	call	?_Getal@?$_Vector_alloc@U?$_Vec_base_types@PAVGoal_Evaluator@@V?$allocator@PAVGoal_Evaluator@@@std@@@std@@@std@@QAEAAV?$allocator@PAVGoal_Evaluator@@@2@XZ ; std::_Vector_alloc<std::_Vec_base_types<Goal_Evaluator *,std::allocator<Goal_Evaluator *> > >::_Getal
	mov	DWORD PTR __Al$[ebp], eax

; 946  : 		const size_type _Oldsize = size();

	mov	ecx, DWORD PTR _this$[ebp]
	call	?size@?$vector@PAVGoal_Evaluator@@V?$allocator@PAVGoal_Evaluator@@@std@@@std@@QBEIXZ ; std::vector<Goal_Evaluator *,std::allocator<Goal_Evaluator *> >::size
	mov	DWORD PTR __Oldsize$[ebp], eax

; 947  : 
; 948  : 		if (_Oldsize == max_size())

	mov	ecx, DWORD PTR _this$[ebp]
	call	?max_size@?$vector@PAVGoal_Evaluator@@V?$allocator@PAVGoal_Evaluator@@@std@@@std@@QBEIXZ ; std::vector<Goal_Evaluator *,std::allocator<Goal_Evaluator *> >::max_size
	cmp	DWORD PTR __Oldsize$[ebp], eax
	jne	SHORT $LN2@Emplace_re

; 949  : 			{
; 950  : 			_Xlength();

	call	?_Xlength@?$vector@PAVGoal_Evaluator@@V?$allocator@PAVGoal_Evaluator@@@std@@@std@@CAXXZ ; std::vector<Goal_Evaluator *,std::allocator<Goal_Evaluator *> >::_Xlength
$LN2@Emplace_re:

; 951  : 			}
; 952  : 
; 953  : 		const size_type _Newsize = _Oldsize + 1;

	mov	edx, DWORD PTR __Oldsize$[ebp]
	add	edx, 1
	mov	DWORD PTR __Newsize$[ebp], edx

; 954  : 		const size_type _Newcapacity = _Calculate_growth(_Newsize);

	mov	eax, DWORD PTR __Newsize$[ebp]
	push	eax
	mov	ecx, DWORD PTR _this$[ebp]
	call	?_Calculate_growth@?$vector@PAVGoal_Evaluator@@V?$allocator@PAVGoal_Evaluator@@@std@@@std@@ABEII@Z ; std::vector<Goal_Evaluator *,std::allocator<Goal_Evaluator *> >::_Calculate_growth
	mov	DWORD PTR __Newcapacity$[ebp], eax

; 955  : 
; 956  : 		const pointer _Newvec = _Al.allocate(_Newcapacity);

	mov	ecx, DWORD PTR __Newcapacity$[ebp]
	push	ecx
	mov	ecx, DWORD PTR __Al$[ebp]
	call	?allocate@?$allocator@PAVGoal_Evaluator@@@std@@QAEPAPAVGoal_Evaluator@@I@Z ; std::allocator<Goal_Evaluator *>::allocate
	mov	DWORD PTR __Newvec$[ebp], eax

; 957  : 		const pointer _Constructed_last = _Newvec + _Whereoff + 1;

	mov	edx, DWORD PTR __Whereoff$[ebp]
	mov	eax, DWORD PTR __Newvec$[ebp]
	lea	ecx, DWORD PTR [eax+edx*4+4]
	mov	DWORD PTR __Constructed_last$[ebp], ecx

; 958  : 		pointer _Constructed_first = _Constructed_last;

	mov	edx, DWORD PTR __Constructed_last$[ebp]
	mov	DWORD PTR __Constructed_first$[ebp], edx

; 959  : 
; 960  : 		_TRY_BEGIN

	mov	DWORD PTR __$EHRec$[ebp+12], 0

; 961  : 		_Alty_traits::construct(_Al, _Unfancy(_Newvec + _Whereoff), _STD forward<_Valty>(_Val)...);

	mov	eax, DWORD PTR __Whereoff$[ebp]
	mov	ecx, DWORD PTR __Newvec$[ebp]
	lea	edx, DWORD PTR [ecx+eax*4]
	push	edx
	call	??$_Unfancy@PAVGoal_Evaluator@@@std@@YAPAPAVGoal_Evaluator@@PAPAV1@@Z ; std::_Unfancy<Goal_Evaluator *>
	add	esp, 4
	mov	DWORD PTR tv206[ebp], eax
	mov	eax, DWORD PTR _<_Val_0>$[ebp]
	push	eax
	call	??$forward@PAVGoal_Evaluator@@@std@@YA$$QAPAVGoal_Evaluator@@AAPAV1@@Z ; std::forward<Goal_Evaluator *>
	add	esp, 4
	push	eax
	mov	ecx, DWORD PTR tv206[ebp]
	push	ecx
	mov	edx, DWORD PTR __Al$[ebp]
	push	edx
	call	??$construct@PAVGoal_Evaluator@@PAV1@@?$_Default_allocator_traits@V?$allocator@PAVGoal_Evaluator@@@std@@@std@@SAXAAV?$allocator@PAVGoal_Evaluator@@@1@QAPAVGoal_Evaluator@@$$QAPAV3@@Z ; std::_Default_allocator_traits<std::allocator<Goal_Evaluator *> >::construct<Goal_Evaluator *,Goal_Evaluator *>
	add	esp, 12					; 0000000cH

; 962  : 		_Constructed_first = _Newvec + _Whereoff;

	mov	eax, DWORD PTR __Whereoff$[ebp]
	mov	ecx, DWORD PTR __Newvec$[ebp]
	lea	edx, DWORD PTR [ecx+eax*4]
	mov	DWORD PTR __Constructed_first$[ebp], edx

; 963  : 
; 964  : 		if (_Whereptr == this->_Mylast())

	mov	ecx, DWORD PTR _this$[ebp]
	call	?_Mylast@?$_Vector_alloc@U?$_Vec_base_types@PAVGoal_Evaluator@@V?$allocator@PAVGoal_Evaluator@@@std@@@std@@@std@@QAEAAPAPAVGoal_Evaluator@@XZ ; std::_Vector_alloc<std::_Vec_base_types<Goal_Evaluator *,std::allocator<Goal_Evaluator *> > >::_Mylast
	mov	ecx, DWORD PTR __Whereptr$[ebp]
	cmp	ecx, DWORD PTR [eax]
	jne	SHORT $LN4@Emplace_re

; 965  : 			{	// at back, provide strong guarantee
; 966  : 			_Umove_if_noexcept(this->_Myfirst(), this->_Mylast(), _Newvec);

	mov	edx, DWORD PTR __Newvec$[ebp]
	push	edx
	mov	ecx, DWORD PTR _this$[ebp]
	call	?_Mylast@?$_Vector_alloc@U?$_Vec_base_types@PAVGoal_Evaluator@@V?$allocator@PAVGoal_Evaluator@@@std@@@std@@@std@@QAEAAPAPAVGoal_Evaluator@@XZ ; std::_Vector_alloc<std::_Vec_base_types<Goal_Evaluator *,std::allocator<Goal_Evaluator *> > >::_Mylast
	mov	eax, DWORD PTR [eax]
	push	eax
	mov	ecx, DWORD PTR _this$[ebp]
	call	?_Myfirst@?$_Vector_alloc@U?$_Vec_base_types@PAVGoal_Evaluator@@V?$allocator@PAVGoal_Evaluator@@@std@@@std@@@std@@QAEAAPAPAVGoal_Evaluator@@XZ ; std::_Vector_alloc<std::_Vec_base_types<Goal_Evaluator *,std::allocator<Goal_Evaluator *> > >::_Myfirst
	mov	ecx, DWORD PTR [eax]
	push	ecx
	mov	ecx, DWORD PTR _this$[ebp]
	call	?_Umove_if_noexcept@?$vector@PAVGoal_Evaluator@@V?$allocator@PAVGoal_Evaluator@@@std@@@std@@AAEXPAPAVGoal_Evaluator@@00@Z ; std::vector<Goal_Evaluator *,std::allocator<Goal_Evaluator *> >::_Umove_if_noexcept

; 967  : 			}
; 968  : 		else

	jmp	SHORT $LN5@Emplace_re
$LN4@Emplace_re:

; 969  : 			{	// provide basic guarantee
; 970  : 			_Umove(this->_Myfirst(), _Whereptr, _Newvec);

	mov	edx, DWORD PTR __Newvec$[ebp]
	push	edx
	mov	eax, DWORD PTR __Whereptr$[ebp]
	push	eax
	mov	ecx, DWORD PTR _this$[ebp]
	call	?_Myfirst@?$_Vector_alloc@U?$_Vec_base_types@PAVGoal_Evaluator@@V?$allocator@PAVGoal_Evaluator@@@std@@@std@@@std@@QAEAAPAPAVGoal_Evaluator@@XZ ; std::_Vector_alloc<std::_Vec_base_types<Goal_Evaluator *,std::allocator<Goal_Evaluator *> > >::_Myfirst
	mov	ecx, DWORD PTR [eax]
	push	ecx
	mov	ecx, DWORD PTR _this$[ebp]
	call	?_Umove@?$vector@PAVGoal_Evaluator@@V?$allocator@PAVGoal_Evaluator@@@std@@@std@@AAEPAPAVGoal_Evaluator@@PAPAV3@00@Z ; std::vector<Goal_Evaluator *,std::allocator<Goal_Evaluator *> >::_Umove

; 971  : 			_Constructed_first = _Newvec;

	mov	edx, DWORD PTR __Newvec$[ebp]
	mov	DWORD PTR __Constructed_first$[ebp], edx

; 972  : 			_Umove(_Whereptr, this->_Mylast(), _Newvec + _Whereoff + 1);

	mov	eax, DWORD PTR __Whereoff$[ebp]
	mov	ecx, DWORD PTR __Newvec$[ebp]
	lea	edx, DWORD PTR [ecx+eax*4+4]
	push	edx
	mov	ecx, DWORD PTR _this$[ebp]
	call	?_Mylast@?$_Vector_alloc@U?$_Vec_base_types@PAVGoal_Evaluator@@V?$allocator@PAVGoal_Evaluator@@@std@@@std@@@std@@QAEAAPAPAVGoal_Evaluator@@XZ ; std::_Vector_alloc<std::_Vec_base_types<Goal_Evaluator *,std::allocator<Goal_Evaluator *> > >::_Mylast
	mov	eax, DWORD PTR [eax]
	push	eax
	mov	ecx, DWORD PTR __Whereptr$[ebp]
	push	ecx
	mov	ecx, DWORD PTR _this$[ebp]
	call	?_Umove@?$vector@PAVGoal_Evaluator@@V?$allocator@PAVGoal_Evaluator@@@std@@@std@@AAEPAPAVGoal_Evaluator@@PAPAV3@00@Z ; std::vector<Goal_Evaluator *,std::allocator<Goal_Evaluator *> >::_Umove
$LN5@Emplace_re:
	jmp	SHORT $LN7@Emplace_re
__catch$??$_Emplace_reallocate@PAVGoal_Evaluator@@@?$vector@PAVGoal_Evaluator@@V?$allocator@PAVGoal_Evaluator@@@std@@@std@@QAEPAPAVGoal_Evaluator@@QAPAV2@$$QAPAV2@@Z$0:

; 973  : 			}
; 974  : 		_CATCH_ALL
; 975  : 		_Destroy(_Constructed_first, _Constructed_last);

	mov	edx, DWORD PTR __Constructed_last$[ebp]
	push	edx
	mov	eax, DWORD PTR __Constructed_first$[ebp]
	push	eax
	mov	ecx, DWORD PTR _this$[ebp]
	call	?_Destroy@?$vector@PAVGoal_Evaluator@@V?$allocator@PAVGoal_Evaluator@@@std@@@std@@AAEXPAPAVGoal_Evaluator@@0@Z ; std::vector<Goal_Evaluator *,std::allocator<Goal_Evaluator *> >::_Destroy

; 976  : 		_Al.deallocate(_Newvec, _Newcapacity);

	mov	ecx, DWORD PTR __Newcapacity$[ebp]
	push	ecx
	mov	edx, DWORD PTR __Newvec$[ebp]
	push	edx
	mov	ecx, DWORD PTR __Al$[ebp]
	call	?deallocate@?$allocator@PAVGoal_Evaluator@@@std@@QAEXQAPAVGoal_Evaluator@@I@Z ; std::allocator<Goal_Evaluator *>::deallocate

; 977  : 		_RERAISE;

	push	0
	push	0
	call	__CxxThrowException@8

; 978  : 		_CATCH_END

	mov	eax, $LN10@Emplace_re
	ret	0
$LN7@Emplace_re:
	mov	DWORD PTR __$EHRec$[ebp+12], -1
	jmp	SHORT __tryend$??$_Emplace_reallocate@PAVGoal_Evaluator@@@?$vector@PAVGoal_Evaluator@@V?$allocator@PAVGoal_Evaluator@@@std@@@std@@QAEPAPAVGoal_Evaluator@@QAPAV2@$$QAPAV2@@Z$1
$LN10@Emplace_re:
	mov	DWORD PTR __$EHRec$[ebp+12], -1
__tryend$??$_Emplace_reallocate@PAVGoal_Evaluator@@@?$vector@PAVGoal_Evaluator@@V?$allocator@PAVGoal_Evaluator@@@std@@@std@@QAEPAPAVGoal_Evaluator@@QAPAV2@$$QAPAV2@@Z$1:

; 979  : 
; 980  : 		_Change_array(_Newvec, _Newsize, _Newcapacity);

	mov	eax, DWORD PTR __Newcapacity$[ebp]
	push	eax
	mov	ecx, DWORD PTR __Newsize$[ebp]
	push	ecx
	mov	edx, DWORD PTR __Newvec$[ebp]
	push	edx
	mov	ecx, DWORD PTR _this$[ebp]
	call	?_Change_array@?$vector@PAVGoal_Evaluator@@V?$allocator@PAVGoal_Evaluator@@@std@@@std@@AAEXQAPAVGoal_Evaluator@@II@Z ; std::vector<Goal_Evaluator *,std::allocator<Goal_Evaluator *> >::_Change_array

; 981  : 		return (this->_Myfirst() + _Whereoff);

	mov	ecx, DWORD PTR _this$[ebp]
	call	?_Myfirst@?$_Vector_alloc@U?$_Vec_base_types@PAVGoal_Evaluator@@V?$allocator@PAVGoal_Evaluator@@@std@@@std@@@std@@QAEAAPAPAVGoal_Evaluator@@XZ ; std::_Vector_alloc<std::_Vec_base_types<Goal_Evaluator *,std::allocator<Goal_Evaluator *> > >::_Myfirst
	mov	eax, DWORD PTR [eax]
	mov	ecx, DWORD PTR __Whereoff$[ebp]
	lea	eax, DWORD PTR [eax+ecx*4]
$LN6@Emplace_re:

; 982  : 		}

	mov	ecx, DWORD PTR __$EHRec$[ebp+4]
	mov	DWORD PTR fs:0, ecx
	pop	ecx
	pop	edi
	pop	esi
	pop	ebx
	add	esp, 56					; 00000038H
	cmp	ebp, esp
	call	__RTC_CheckEsp
	mov	esp, ebp
	pop	ebp
	ret	8
_TEXT	ENDS
;	COMDAT text$x
text$x	SEGMENT
__ehhandler$??$_Emplace_reallocate@PAVGoal_Evaluator@@@?$vector@PAVGoal_Evaluator@@V?$allocator@PAVGoal_Evaluator@@@std@@@std@@QAEPAPAVGoal_Evaluator@@QAPAV2@$$QAPAV2@@Z:
	mov	edx, DWORD PTR [esp+8]
	lea	eax, DWORD PTR [edx+12]
	mov	ecx, DWORD PTR [edx-60]
	xor	ecx, eax
	call	@__security_check_cookie@4
	mov	eax, OFFSET __ehfuncinfo$??$_Emplace_reallocate@PAVGoal_Evaluator@@@?$vector@PAVGoal_Evaluator@@V?$allocator@PAVGoal_Evaluator@@@std@@@std@@QAEPAPAVGoal_Evaluator@@QAPAV2@$$QAPAV2@@Z
	jmp	___CxxFrameHandler3
text$x	ENDS
??$_Emplace_reallocate@PAVGoal_Evaluator@@@?$vector@PAVGoal_Evaluator@@V?$allocator@PAVGoal_Evaluator@@@std@@@std@@QAEPAPAVGoal_Evaluator@@QAPAV2@$$QAPAV2@@Z ENDP ; std::vector<Goal_Evaluator *,std::allocator<Goal_Evaluator *> >::_Emplace_reallocate<Goal_Evaluator *>
; Function compile flags: /Odtp /RTCsu
; File c:\program files (x86)\microsoft visual studio\2017\community\vc\tools\msvc\14.15.26726\include\xmemory0
;	COMDAT ??$construct@PAVGoal_Evaluator@@PAV1@@?$_Default_allocator_traits@V?$allocator@PAVGoal_Evaluator@@@std@@@std@@SAXAAV?$allocator@PAVGoal_Evaluator@@@1@QAPAVGoal_Evaluator@@$$QAPAV3@@Z
_TEXT	SEGMENT
$T1 = -4						; size = 4
___formal$ = 8						; size = 4
__Ptr$ = 12						; size = 4
_<_Args_0>$ = 16					; size = 4
??$construct@PAVGoal_Evaluator@@PAV1@@?$_Default_allocator_traits@V?$allocator@PAVGoal_Evaluator@@@std@@@std@@SAXAAV?$allocator@PAVGoal_Evaluator@@@1@QAPAVGoal_Evaluator@@$$QAPAV3@@Z PROC ; std::_Default_allocator_traits<std::allocator<Goal_Evaluator *> >::construct<Goal_Evaluator *,Goal_Evaluator *>, COMDAT

; 879  : 		{	// construct _Objty(_Types...) at _Ptr

	push	ebp
	mov	ebp, esp
	push	ecx
	mov	DWORD PTR [ebp-4], -858993460		; ccccccccH

; 880  : 		::new (const_cast<void *>(static_cast<const volatile void *>(_Ptr)))

	mov	eax, DWORD PTR __Ptr$[ebp]
	push	eax
	push	4
	call	??2@YAPAXIPAX@Z				; operator new
	add	esp, 8
	mov	DWORD PTR $T1[ebp], eax
	mov	ecx, DWORD PTR _<_Args_0>$[ebp]
	push	ecx
	call	??$forward@PAVGoal_Evaluator@@@std@@YA$$QAPAVGoal_Evaluator@@AAPAV1@@Z ; std::forward<Goal_Evaluator *>
	add	esp, 4
	mov	edx, DWORD PTR $T1[ebp]
	mov	eax, DWORD PTR [eax]
	mov	DWORD PTR [edx], eax

; 881  : 			_Objty(_STD forward<_Types>(_Args)...);
; 882  : 		}

	add	esp, 4
	cmp	ebp, esp
	call	__RTC_CheckEsp
	mov	esp, ebp
	pop	ebp
	ret	0
??$construct@PAVGoal_Evaluator@@PAV1@@?$_Default_allocator_traits@V?$allocator@PAVGoal_Evaluator@@@std@@@std@@SAXAAV?$allocator@PAVGoal_Evaluator@@@1@QAPAVGoal_Evaluator@@$$QAPAV3@@Z ENDP ; std::_Default_allocator_traits<std::allocator<Goal_Evaluator *> >::construct<Goal_Evaluator *,Goal_Evaluator *>
_TEXT	ENDS
; Function compile flags: /Odtp /RTCsu
; File c:\program files (x86)\microsoft visual studio\2017\community\vc\tools\msvc\14.15.26726\include\xstddef
;	COMDAT ??$_Unfancy@PAVGoal_Evaluator@@@std@@YAPAPAVGoal_Evaluator@@PAPAV1@@Z
_TEXT	SEGMENT
__Ptr$ = 8						; size = 4
??$_Unfancy@PAVGoal_Evaluator@@@std@@YAPAPAVGoal_Evaluator@@PAPAV1@@Z PROC ; std::_Unfancy<Goal_Evaluator *>, COMDAT

; 345  : 	{	// do nothing for plain pointers

	push	ebp
	mov	ebp, esp

; 346  : 	return (_Ptr);

	mov	eax, DWORD PTR __Ptr$[ebp]

; 347  : 	}

	pop	ebp
	ret	0
??$_Unfancy@PAVGoal_Evaluator@@@std@@YAPAPAVGoal_Evaluator@@PAPAV1@@Z ENDP ; std::_Unfancy<Goal_Evaluator *>
_TEXT	ENDS
; Function compile flags: /Odtp /RTCsu
; File c:\program files (x86)\microsoft visual studio\2017\community\vc\tools\msvc\14.15.26726\include\vector
;	COMDAT ??$_Emplace_back_with_unused_capacity@PAVGoal_Evaluator@@@?$vector@PAVGoal_Evaluator@@V?$allocator@PAVGoal_Evaluator@@@std@@@std@@AAE@$$QAPAVGoal_Evaluator@@@Z
_TEXT	SEGMENT
tv142 = -12						; size = 4
__Result$ = -8						; size = 4
_this$ = -4						; size = 4
_<_Val_0>$ = 8						; size = 4
??$_Emplace_back_with_unused_capacity@PAVGoal_Evaluator@@@?$vector@PAVGoal_Evaluator@@V?$allocator@PAVGoal_Evaluator@@@std@@@std@@AAE@$$QAPAVGoal_Evaluator@@@Z PROC ; std::vector<Goal_Evaluator *,std::allocator<Goal_Evaluator *> >::_Emplace_back_with_unused_capacity<Goal_Evaluator *>, COMDAT
; _this$ = ecx

; 900  : 		{	// insert by perfectly forwarding into element at end, provide strong guarantee

	push	ebp
	mov	ebp, esp
	sub	esp, 12					; 0000000cH
	mov	DWORD PTR [ebp-12], -858993460		; ccccccccH
	mov	DWORD PTR [ebp-8], -858993460		; ccccccccH
	mov	DWORD PTR [ebp-4], -858993460		; ccccccccH
	mov	DWORD PTR _this$[ebp], ecx

; 901  : 			// pre: _Has_unused_capacity()
; 902  : 		_Alty_traits::construct(this->_Getal(), _Unfancy(this->_Mylast()), _STD forward<_Valty>(_Val)...);

	mov	eax, DWORD PTR _<_Val_0>$[ebp]
	push	eax
	call	??$forward@PAVGoal_Evaluator@@@std@@YA$$QAPAVGoal_Evaluator@@AAPAV1@@Z ; std::forward<Goal_Evaluator *>
	add	esp, 4
	push	eax
	mov	ecx, DWORD PTR _this$[ebp]
	call	?_Mylast@?$_Vector_alloc@U?$_Vec_base_types@PAVGoal_Evaluator@@V?$allocator@PAVGoal_Evaluator@@@std@@@std@@@std@@QAEAAPAPAVGoal_Evaluator@@XZ ; std::_Vector_alloc<std::_Vec_base_types<Goal_Evaluator *,std::allocator<Goal_Evaluator *> > >::_Mylast
	mov	ecx, DWORD PTR [eax]
	push	ecx
	call	??$_Unfancy@PAVGoal_Evaluator@@@std@@YAPAPAVGoal_Evaluator@@PAPAV1@@Z ; std::_Unfancy<Goal_Evaluator *>
	add	esp, 4
	push	eax
	mov	ecx, DWORD PTR _this$[ebp]
	call	?_Getal@?$_Vector_alloc@U?$_Vec_base_types@PAVGoal_Evaluator@@V?$allocator@PAVGoal_Evaluator@@@std@@@std@@@std@@QAEAAV?$allocator@PAVGoal_Evaluator@@@2@XZ ; std::_Vector_alloc<std::_Vec_base_types<Goal_Evaluator *,std::allocator<Goal_Evaluator *> > >::_Getal
	push	eax
	call	??$construct@PAVGoal_Evaluator@@PAV1@@?$_Default_allocator_traits@V?$allocator@PAVGoal_Evaluator@@@std@@@std@@SAXAAV?$allocator@PAVGoal_Evaluator@@@1@QAPAVGoal_Evaluator@@$$QAPAV3@@Z ; std::_Default_allocator_traits<std::allocator<Goal_Evaluator *> >::construct<Goal_Evaluator *,Goal_Evaluator *>
	add	esp, 12					; 0000000cH

; 903  : 		_Orphan_range(this->_Mylast(), this->_Mylast());

	mov	ecx, DWORD PTR _this$[ebp]
	call	?_Mylast@?$_Vector_alloc@U?$_Vec_base_types@PAVGoal_Evaluator@@V?$allocator@PAVGoal_Evaluator@@@std@@@std@@@std@@QAEAAPAPAVGoal_Evaluator@@XZ ; std::_Vector_alloc<std::_Vec_base_types<Goal_Evaluator *,std::allocator<Goal_Evaluator *> > >::_Mylast
	mov	edx, DWORD PTR [eax]
	push	edx
	mov	ecx, DWORD PTR _this$[ebp]
	call	?_Mylast@?$_Vector_alloc@U?$_Vec_base_types@PAVGoal_Evaluator@@V?$allocator@PAVGoal_Evaluator@@@std@@@std@@@std@@QAEAAPAPAVGoal_Evaluator@@XZ ; std::_Vector_alloc<std::_Vec_base_types<Goal_Evaluator *,std::allocator<Goal_Evaluator *> > >::_Mylast
	mov	eax, DWORD PTR [eax]
	push	eax
	mov	ecx, DWORD PTR _this$[ebp]
	call	?_Orphan_range@?$vector@PAVGoal_Evaluator@@V?$allocator@PAVGoal_Evaluator@@@std@@@std@@ABEXPAPAVGoal_Evaluator@@0@Z ; std::vector<Goal_Evaluator *,std::allocator<Goal_Evaluator *> >::_Orphan_range

; 904  : 		_Ty& _Result = *this->_Mylast();

	mov	ecx, DWORD PTR _this$[ebp]
	call	?_Mylast@?$_Vector_alloc@U?$_Vec_base_types@PAVGoal_Evaluator@@V?$allocator@PAVGoal_Evaluator@@@std@@@std@@@std@@QAEAAPAPAVGoal_Evaluator@@XZ ; std::_Vector_alloc<std::_Vec_base_types<Goal_Evaluator *,std::allocator<Goal_Evaluator *> > >::_Mylast
	mov	ecx, DWORD PTR [eax]
	mov	DWORD PTR __Result$[ebp], ecx

; 905  : 		++this->_Mylast();

	mov	ecx, DWORD PTR _this$[ebp]
	call	?_Mylast@?$_Vector_alloc@U?$_Vec_base_types@PAVGoal_Evaluator@@V?$allocator@PAVGoal_Evaluator@@@std@@@std@@@std@@QAEAAPAPAVGoal_Evaluator@@XZ ; std::_Vector_alloc<std::_Vec_base_types<Goal_Evaluator *,std::allocator<Goal_Evaluator *> > >::_Mylast
	mov	DWORD PTR tv142[ebp], eax
	mov	edx, DWORD PTR tv142[ebp]
	mov	eax, DWORD PTR [edx]
	add	eax, 4
	mov	ecx, DWORD PTR tv142[ebp]
	mov	DWORD PTR [ecx], eax

; 906  : #if _HAS_CXX17
; 907  : 		return (_Result);
; 908  : #else /* ^^^ _HAS_CXX17 ^^^ // vvv !_HAS_CXX17 vvv */
; 909  : 		(void)_Result;
; 910  : #endif /* _HAS_CXX17 */
; 911  : 		}

	add	esp, 12					; 0000000cH
	cmp	ebp, esp
	call	__RTC_CheckEsp
	mov	esp, ebp
	pop	ebp
	ret	4
??$_Emplace_back_with_unused_capacity@PAVGoal_Evaluator@@@?$vector@PAVGoal_Evaluator@@V?$allocator@PAVGoal_Evaluator@@@std@@@std@@AAE@$$QAPAVGoal_Evaluator@@@Z ENDP ; std::vector<Goal_Evaluator *,std::allocator<Goal_Evaluator *> >::_Emplace_back_with_unused_capacity<Goal_Evaluator *>
_TEXT	ENDS
; Function compile flags: /Odtp /RTCsu
; File c:\program files (x86)\microsoft visual studio\2017\community\vc\tools\msvc\14.15.26726\include\type_traits
;	COMDAT ??$forward@PAVGoal_Evaluator@@@std@@YA$$QAPAVGoal_Evaluator@@AAPAV1@@Z
_TEXT	SEGMENT
__Arg$ = 8						; size = 4
??$forward@PAVGoal_Evaluator@@@std@@YA$$QAPAVGoal_Evaluator@@AAPAV1@@Z PROC ; std::forward<Goal_Evaluator *>, COMDAT

; 1573 : 	{	// forward an lvalue as either an lvalue or an rvalue

	push	ebp
	mov	ebp, esp

; 1574 : 	return (static_cast<_Ty&&>(_Arg));

	mov	eax, DWORD PTR __Arg$[ebp]

; 1575 : 	}

	pop	ebp
	ret	0
??$forward@PAVGoal_Evaluator@@@std@@YA$$QAPAVGoal_Evaluator@@AAPAV1@@Z ENDP ; std::forward<Goal_Evaluator *>
_TEXT	ENDS
; Function compile flags: /Odtp /RTCsu
; File c:\program files (x86)\microsoft visual studio\2017\community\vc\tools\msvc\14.15.26726\include\vector
;	COMDAT ??$emplace_back@PAVGoal_Evaluator@@@?$vector@PAVGoal_Evaluator@@V?$allocator@PAVGoal_Evaluator@@@std@@@std@@QAE@$$QAPAVGoal_Evaluator@@@Z
_TEXT	SEGMENT
__Result$ = -8						; size = 4
_this$ = -4						; size = 4
_<_Val_0>$ = 8						; size = 4
??$emplace_back@PAVGoal_Evaluator@@@?$vector@PAVGoal_Evaluator@@V?$allocator@PAVGoal_Evaluator@@@std@@@std@@QAE@$$QAPAVGoal_Evaluator@@@Z PROC ; std::vector<Goal_Evaluator *,std::allocator<Goal_Evaluator *> >::emplace_back<Goal_Evaluator *>, COMDAT
; _this$ = ecx

; 916  : 		{	// insert by perfectly forwarding into element at end, provide strong guarantee

	push	ebp
	mov	ebp, esp
	sub	esp, 8
	mov	DWORD PTR [ebp-8], -858993460		; ccccccccH
	mov	DWORD PTR [ebp-4], -858993460		; ccccccccH
	mov	DWORD PTR _this$[ebp], ecx

; 917  : 		if (_Has_unused_capacity())

	mov	ecx, DWORD PTR _this$[ebp]
	call	?_Has_unused_capacity@?$vector@PAVGoal_Evaluator@@V?$allocator@PAVGoal_Evaluator@@@std@@@std@@ABE_NXZ ; std::vector<Goal_Evaluator *,std::allocator<Goal_Evaluator *> >::_Has_unused_capacity
	movzx	eax, al
	test	eax, eax
	je	SHORT $LN2@emplace_ba

; 918  : 			{
; 919  : 			return (_Emplace_back_with_unused_capacity(_STD forward<_Valty>(_Val)...));

	mov	ecx, DWORD PTR _<_Val_0>$[ebp]
	push	ecx
	call	??$forward@PAVGoal_Evaluator@@@std@@YA$$QAPAVGoal_Evaluator@@AAPAV1@@Z ; std::forward<Goal_Evaluator *>
	add	esp, 4
	push	eax
	mov	ecx, DWORD PTR _this$[ebp]
	call	??$_Emplace_back_with_unused_capacity@PAVGoal_Evaluator@@@?$vector@PAVGoal_Evaluator@@V?$allocator@PAVGoal_Evaluator@@@std@@@std@@AAE@$$QAPAVGoal_Evaluator@@@Z ; std::vector<Goal_Evaluator *,std::allocator<Goal_Evaluator *> >::_Emplace_back_with_unused_capacity<Goal_Evaluator *>
	jmp	SHORT $LN1@emplace_ba
$LN2@emplace_ba:

; 920  : 			}
; 921  : 
; 922  : 		_Ty& _Result = *_Emplace_reallocate(this->_Mylast(), _STD forward<_Valty>(_Val)...);

	mov	edx, DWORD PTR _<_Val_0>$[ebp]
	push	edx
	call	??$forward@PAVGoal_Evaluator@@@std@@YA$$QAPAVGoal_Evaluator@@AAPAV1@@Z ; std::forward<Goal_Evaluator *>
	add	esp, 4
	push	eax
	mov	ecx, DWORD PTR _this$[ebp]
	call	?_Mylast@?$_Vector_alloc@U?$_Vec_base_types@PAVGoal_Evaluator@@V?$allocator@PAVGoal_Evaluator@@@std@@@std@@@std@@QAEAAPAPAVGoal_Evaluator@@XZ ; std::_Vector_alloc<std::_Vec_base_types<Goal_Evaluator *,std::allocator<Goal_Evaluator *> > >::_Mylast
	mov	eax, DWORD PTR [eax]
	push	eax
	mov	ecx, DWORD PTR _this$[ebp]
	call	??$_Emplace_reallocate@PAVGoal_Evaluator@@@?$vector@PAVGoal_Evaluator@@V?$allocator@PAVGoal_Evaluator@@@std@@@std@@QAEPAPAVGoal_Evaluator@@QAPAV2@$$QAPAV2@@Z ; std::vector<Goal_Evaluator *,std::allocator<Goal_Evaluator *> >::_Emplace_reallocate<Goal_Evaluator *>
	mov	DWORD PTR __Result$[ebp], eax
$LN1@emplace_ba:

; 923  : #if _HAS_CXX17
; 924  : 		return (_Result);
; 925  : #else /* ^^^ _HAS_CXX17 ^^^ // vvv !_HAS_CXX17 vvv */
; 926  : 		(void)_Result;
; 927  : #endif /* _HAS_CXX17 */
; 928  : 		}

	add	esp, 8
	cmp	ebp, esp
	call	__RTC_CheckEsp
	mov	esp, ebp
	pop	ebp
	ret	4
??$emplace_back@PAVGoal_Evaluator@@@?$vector@PAVGoal_Evaluator@@V?$allocator@PAVGoal_Evaluator@@@std@@@std@@QAE@$$QAPAVGoal_Evaluator@@@Z ENDP ; std::vector<Goal_Evaluator *,std::allocator<Goal_Evaluator *> >::emplace_back<Goal_Evaluator *>
_TEXT	ENDS
; Function compile flags: /Odtp /RTCsu
; File c:\program files (x86)\microsoft visual studio\2017\community\vc\tools\msvc\14.15.26726\include\type_traits
;	COMDAT ??$move@AAPAVGoal_Evaluator@@@std@@YA$$QAPAVGoal_Evaluator@@AAPAV1@@Z
_TEXT	SEGMENT
__Arg$ = 8						; size = 4
??$move@AAPAVGoal_Evaluator@@@std@@YA$$QAPAVGoal_Evaluator@@AAPAV1@@Z PROC ; std::move<Goal_Evaluator * &>, COMDAT

; 1588 : 	{	// forward _Arg as movable

	push	ebp
	mov	ebp, esp

; 1589 : 	return (static_cast<remove_reference_t<_Ty>&&>(_Arg));

	mov	eax, DWORD PTR __Arg$[ebp]

; 1590 : 	}

	pop	ebp
	ret	0
??$move@AAPAVGoal_Evaluator@@@std@@YA$$QAPAVGoal_Evaluator@@AAPAV1@@Z ENDP ; std::move<Goal_Evaluator * &>
_TEXT	ENDS
; Function compile flags: /Odtp /RTCsu
; File c:\program files (x86)\microsoft visual studio\2017\community\vc\tools\msvc\14.15.26726\include\xstddef
;	COMDAT ??$addressof@V?$_Vector_val@U?$_Simple_types@PAVGoal_Evaluator@@@std@@@std@@@std@@YAPAV?$_Vector_val@U?$_Simple_types@PAVGoal_Evaluator@@@std@@@0@AAV10@@Z
_TEXT	SEGMENT
__Val$ = 8						; size = 4
??$addressof@V?$_Vector_val@U?$_Simple_types@PAVGoal_Evaluator@@@std@@@std@@@std@@YAPAV?$_Vector_val@U?$_Simple_types@PAVGoal_Evaluator@@@std@@@0@AAV10@@Z PROC ; std::addressof<std::_Vector_val<std::_Simple_types<Goal_Evaluator *> > >, COMDAT

; 329  : 	{	// return address of _Val

	push	ebp
	mov	ebp, esp

; 330  : 	return (__builtin_addressof(_Val));

	mov	eax, DWORD PTR __Val$[ebp]

; 331  : 	}

	pop	ebp
	ret	0
??$addressof@V?$_Vector_val@U?$_Simple_types@PAVGoal_Evaluator@@@std@@@std@@@std@@YAPAV?$_Vector_val@U?$_Simple_types@PAVGoal_Evaluator@@@std@@@0@AAV10@@Z ENDP ; std::addressof<std::_Vector_val<std::_Simple_types<Goal_Evaluator *> > >
_TEXT	ENDS
; Function compile flags: /Odtp /RTCsu
; File c:\program files (x86)\microsoft visual studio\2017\community\vc\tools\msvc\14.15.26726\include\xstddef
;	COMDAT ??$addressof@$$CBV?$_Vector_val@U?$_Simple_types@PAVGoal_Evaluator@@@std@@@std@@@std@@YAPBV?$_Vector_val@U?$_Simple_types@PAVGoal_Evaluator@@@std@@@0@ABV10@@Z
_TEXT	SEGMENT
__Val$ = 8						; size = 4
??$addressof@$$CBV?$_Vector_val@U?$_Simple_types@PAVGoal_Evaluator@@@std@@@std@@@std@@YAPBV?$_Vector_val@U?$_Simple_types@PAVGoal_Evaluator@@@std@@@0@ABV10@@Z PROC ; std::addressof<std::_Vector_val<std::_Simple_types<Goal_Evaluator *> > const >, COMDAT

; 329  : 	{	// return address of _Val

	push	ebp
	mov	ebp, esp

; 330  : 	return (__builtin_addressof(_Val));

	mov	eax, DWORD PTR __Val$[ebp]

; 331  : 	}

	pop	ebp
	ret	0
??$addressof@$$CBV?$_Vector_val@U?$_Simple_types@PAVGoal_Evaluator@@@std@@@std@@@std@@YAPBV?$_Vector_val@U?$_Simple_types@PAVGoal_Evaluator@@@std@@@0@ABV10@@Z ENDP ; std::addressof<std::_Vector_val<std::_Simple_types<Goal_Evaluator *> > const >
_TEXT	ENDS
; Function compile flags: /Odtp /RTCsu
;	COMDAT ??4?$_List_iterator@V?$_List_val@U?$_List_simple_types@PAV?$Goal@VRaven_Bot@@@@@std@@@std@@@std@@QAEAAV01@$$QAV01@@Z
_TEXT	SEGMENT
_this$ = -4						; size = 4
___that$ = 8						; size = 4
??4?$_List_iterator@V?$_List_val@U?$_List_simple_types@PAV?$Goal@VRaven_Bot@@@@@std@@@std@@@std@@QAEAAV01@$$QAV01@@Z PROC ; std::_List_iterator<std::_List_val<std::_List_simple_types<Goal<Raven_Bot> *> > >::operator=, COMDAT
; _this$ = ecx
	push	ebp
	mov	ebp, esp
	push	ecx
	mov	DWORD PTR [ebp-4], -858993460		; ccccccccH
	mov	DWORD PTR _this$[ebp], ecx
	mov	eax, DWORD PTR ___that$[ebp]
	push	eax
	mov	ecx, DWORD PTR _this$[ebp]
	call	??4?$_List_const_iterator@V?$_List_val@U?$_List_simple_types@PAV?$Goal@VRaven_Bot@@@@@std@@@std@@@std@@QAEAAV01@$$QAV01@@Z
	mov	eax, DWORD PTR _this$[ebp]
	add	esp, 4
	cmp	ebp, esp
	call	__RTC_CheckEsp
	mov	esp, ebp
	pop	ebp
	ret	4
??4?$_List_iterator@V?$_List_val@U?$_List_simple_types@PAV?$Goal@VRaven_Bot@@@@@std@@@std@@@std@@QAEAAV01@$$QAV01@@Z ENDP ; std::_List_iterator<std::_List_val<std::_List_simple_types<Goal<Raven_Bot> *> > >::operator=
_TEXT	ENDS
; Function compile flags: /Odtp /RTCsu
;	COMDAT ??1?$_List_iterator@V?$_List_val@U?$_List_simple_types@PAV?$Goal@VRaven_Bot@@@@@std@@@std@@@std@@QAE@XZ
_TEXT	SEGMENT
_this$ = -4						; size = 4
??1?$_List_iterator@V?$_List_val@U?$_List_simple_types@PAV?$Goal@VRaven_Bot@@@@@std@@@std@@@std@@QAE@XZ PROC ; std::_List_iterator<std::_List_val<std::_List_simple_types<Goal<Raven_Bot> *> > >::~_List_iterator<std::_List_val<std::_List_simple_types<Goal<Raven_Bot> *> > >, COMDAT
; _this$ = ecx
	push	ebp
	mov	ebp, esp
	push	ecx
	mov	DWORD PTR [ebp-4], -858993460		; ccccccccH
	mov	DWORD PTR _this$[ebp], ecx
	mov	ecx, DWORD PTR _this$[ebp]
	call	??1?$_List_const_iterator@V?$_List_val@U?$_List_simple_types@PAV?$Goal@VRaven_Bot@@@@@std@@@std@@@std@@QAE@XZ
	add	esp, 4
	cmp	ebp, esp
	call	__RTC_CheckEsp
	mov	esp, ebp
	pop	ebp
	ret	0
??1?$_List_iterator@V?$_List_val@U?$_List_simple_types@PAV?$Goal@VRaven_Bot@@@@@std@@@std@@@std@@QAE@XZ ENDP ; std::_List_iterator<std::_List_val<std::_List_simple_types<Goal<Raven_Bot> *> > >::~_List_iterator<std::_List_val<std::_List_simple_types<Goal<Raven_Bot> *> > >
_TEXT	ENDS
; Function compile flags: /Odtp /RTCsu
; File c:\program files (x86)\microsoft visual studio\2017\community\vc\tools\msvc\14.15.26726\include\list
;	COMDAT ??E?$_List_iterator@V?$_List_val@U?$_List_simple_types@PAV?$Goal@VRaven_Bot@@@@@std@@@std@@@std@@QAEAAV01@XZ
_TEXT	SEGMENT
_this$ = -4						; size = 4
??E?$_List_iterator@V?$_List_val@U?$_List_simple_types@PAV?$Goal@VRaven_Bot@@@@@std@@@std@@@std@@QAEAAV01@XZ PROC ; std::_List_iterator<std::_List_val<std::_List_simple_types<Goal<Raven_Bot> *> > >::operator++, COMDAT
; _this$ = ecx

; 305  : 		{	// preincrement

	push	ebp
	mov	ebp, esp
	push	ecx
	mov	DWORD PTR [ebp-4], -858993460		; ccccccccH
	mov	DWORD PTR _this$[ebp], ecx

; 306  : 		++(*(_Mybase *)this);

	mov	ecx, DWORD PTR _this$[ebp]
	call	??E?$_List_const_iterator@V?$_List_val@U?$_List_simple_types@PAV?$Goal@VRaven_Bot@@@@@std@@@std@@@std@@QAEAAV01@XZ ; std::_List_const_iterator<std::_List_val<std::_List_simple_types<Goal<Raven_Bot> *> > >::operator++

; 307  : 		return (*this);

	mov	eax, DWORD PTR _this$[ebp]

; 308  : 		}

	add	esp, 4
	cmp	ebp, esp
	call	__RTC_CheckEsp
	mov	esp, ebp
	pop	ebp
	ret	0
??E?$_List_iterator@V?$_List_val@U?$_List_simple_types@PAV?$Goal@VRaven_Bot@@@@@std@@@std@@@std@@QAEAAV01@XZ ENDP ; std::_List_iterator<std::_List_val<std::_List_simple_types<Goal<Raven_Bot> *> > >::operator++
_TEXT	ENDS
; Function compile flags: /Odtp /RTCsu
; File c:\program files (x86)\microsoft visual studio\2017\community\vc\tools\msvc\14.15.26726\include\list
;	COMDAT ??D?$_List_iterator@V?$_List_val@U?$_List_simple_types@PAV?$Goal@VRaven_Bot@@@@@std@@@std@@@std@@QBEAAPAV?$Goal@VRaven_Bot@@@@XZ
_TEXT	SEGMENT
_this$ = -4						; size = 4
??D?$_List_iterator@V?$_List_val@U?$_List_simple_types@PAV?$Goal@VRaven_Bot@@@@@std@@@std@@@std@@QBEAAPAV?$Goal@VRaven_Bot@@@@XZ PROC ; std::_List_iterator<std::_List_val<std::_List_simple_types<Goal<Raven_Bot> *> > >::operator*, COMDAT
; _this$ = ecx

; 295  : 		{	// return designated value

	push	ebp
	mov	ebp, esp
	push	ecx
	mov	DWORD PTR [ebp-4], -858993460		; ccccccccH
	mov	DWORD PTR _this$[ebp], ecx

; 296  : 		return ((reference)**(_Mybase *)this);

	mov	ecx, DWORD PTR _this$[ebp]
	call	??D?$_List_const_iterator@V?$_List_val@U?$_List_simple_types@PAV?$Goal@VRaven_Bot@@@@@std@@@std@@@std@@QBEABQAV?$Goal@VRaven_Bot@@@@XZ ; std::_List_const_iterator<std::_List_val<std::_List_simple_types<Goal<Raven_Bot> *> > >::operator*

; 297  : 		}

	add	esp, 4
	cmp	ebp, esp
	call	__RTC_CheckEsp
	mov	esp, ebp
	pop	ebp
	ret	0
??D?$_List_iterator@V?$_List_val@U?$_List_simple_types@PAV?$Goal@VRaven_Bot@@@@@std@@@std@@@std@@QBEAAPAV?$Goal@VRaven_Bot@@@@XZ ENDP ; std::_List_iterator<std::_List_val<std::_List_simple_types<Goal<Raven_Bot> *> > >::operator*
_TEXT	ENDS
; Function compile flags: /Odtp /RTCsu
; File c:\program files (x86)\microsoft visual studio\2017\community\vc\tools\msvc\14.15.26726\include\list
;	COMDAT ??0?$_List_iterator@V?$_List_val@U?$_List_simple_types@PAV?$Goal@VRaven_Bot@@@@@std@@@std@@@std@@QAE@PAU?$_List_node@PAV?$Goal@VRaven_Bot@@@@PAX@1@PBV?$_List_val@U?$_List_simple_types@PAV?$Goal@VRaven_Bot@@@@@std@@@1@@Z
_TEXT	SEGMENT
_this$ = -4						; size = 4
__Pnode$ = 8						; size = 4
__Plist$ = 12						; size = 4
??0?$_List_iterator@V?$_List_val@U?$_List_simple_types@PAV?$Goal@VRaven_Bot@@@@@std@@@std@@@std@@QAE@PAU?$_List_node@PAV?$Goal@VRaven_Bot@@@@PAX@1@PBV?$_List_val@U?$_List_simple_types@PAV?$Goal@VRaven_Bot@@@@@std@@@1@@Z PROC ; std::_List_iterator<std::_List_val<std::_List_simple_types<Goal<Raven_Bot> *> > >::_List_iterator<std::_List_val<std::_List_simple_types<Goal<Raven_Bot> *> > >, COMDAT
; _this$ = ecx

; 291  : 		{	// construct with node pointer _Pnode

	push	ebp
	mov	ebp, esp
	push	ecx
	mov	DWORD PTR [ebp-4], -858993460		; ccccccccH
	mov	DWORD PTR _this$[ebp], ecx

; 290  : 		: _Mybase(_Pnode, _Plist)

	mov	eax, DWORD PTR __Plist$[ebp]
	push	eax
	mov	ecx, DWORD PTR __Pnode$[ebp]
	push	ecx
	mov	ecx, DWORD PTR _this$[ebp]
	call	??0?$_List_const_iterator@V?$_List_val@U?$_List_simple_types@PAV?$Goal@VRaven_Bot@@@@@std@@@std@@@std@@QAE@PAU?$_List_node@PAV?$Goal@VRaven_Bot@@@@PAX@1@PBV?$_List_val@U?$_List_simple_types@PAV?$Goal@VRaven_Bot@@@@@std@@@1@@Z ; std::_List_const_iterator<std::_List_val<std::_List_simple_types<Goal<Raven_Bot> *> > >::_List_const_iterator<std::_List_val<std::_List_simple_types<Goal<Raven_Bot> *> > >

; 292  : 		}

	mov	eax, DWORD PTR _this$[ebp]
	add	esp, 4
	cmp	ebp, esp
	call	__RTC_CheckEsp
	mov	esp, ebp
	pop	ebp
	ret	8
??0?$_List_iterator@V?$_List_val@U?$_List_simple_types@PAV?$Goal@VRaven_Bot@@@@@std@@@std@@@std@@QAE@PAU?$_List_node@PAV?$Goal@VRaven_Bot@@@@PAX@1@PBV?$_List_val@U?$_List_simple_types@PAV?$Goal@VRaven_Bot@@@@@std@@@1@@Z ENDP ; std::_List_iterator<std::_List_val<std::_List_simple_types<Goal<Raven_Bot> *> > >::_List_iterator<std::_List_val<std::_List_simple_types<Goal<Raven_Bot> *> > >
_TEXT	ENDS
; Function compile flags: /Odtp /RTCsu
; File c:\program files (x86)\microsoft visual studio\2017\community\vc\tools\msvc\14.15.26726\include\list
;	COMDAT ??0?$_List_iterator@V?$_List_val@U?$_List_simple_types@PAV?$Goal@VRaven_Bot@@@@@std@@@std@@@std@@QAE@XZ
_TEXT	SEGMENT
_this$ = -4						; size = 4
??0?$_List_iterator@V?$_List_val@U?$_List_simple_types@PAV?$Goal@VRaven_Bot@@@@@std@@@std@@@std@@QAE@XZ PROC ; std::_List_iterator<std::_List_val<std::_List_simple_types<Goal<Raven_Bot> *> > >::_List_iterator<std::_List_val<std::_List_simple_types<Goal<Raven_Bot> *> > >, COMDAT
; _this$ = ecx

; 285  : 	_List_iterator()

	push	ebp
	mov	ebp, esp
	push	ecx
	mov	DWORD PTR [ebp-4], -858993460		; ccccccccH
	mov	DWORD PTR _this$[ebp], ecx

; 286  : 		{	// construct with null node

	mov	ecx, DWORD PTR _this$[ebp]
	call	??0?$_List_const_iterator@V?$_List_val@U?$_List_simple_types@PAV?$Goal@VRaven_Bot@@@@@std@@@std@@@std@@QAE@XZ ; std::_List_const_iterator<std::_List_val<std::_List_simple_types<Goal<Raven_Bot> *> > >::_List_const_iterator<std::_List_val<std::_List_simple_types<Goal<Raven_Bot> *> > >

; 287  : 		}

	mov	eax, DWORD PTR _this$[ebp]
	add	esp, 4
	cmp	ebp, esp
	call	__RTC_CheckEsp
	mov	esp, ebp
	pop	ebp
	ret	0
??0?$_List_iterator@V?$_List_val@U?$_List_simple_types@PAV?$Goal@VRaven_Bot@@@@@std@@@std@@@std@@QAE@XZ ENDP ; std::_List_iterator<std::_List_val<std::_List_simple_types<Goal<Raven_Bot> *> > >::_List_iterator<std::_List_val<std::_List_simple_types<Goal<Raven_Bot> *> > >
_TEXT	ENDS
; Function compile flags: /Odtp /RTCsu
;	COMDAT ??4?$_List_const_iterator@V?$_List_val@U?$_List_simple_types@PAV?$Goal@VRaven_Bot@@@@@std@@@std@@@std@@QAEAAV01@$$QAV01@@Z
_TEXT	SEGMENT
_this$ = -4						; size = 4
___that$ = 8						; size = 4
??4?$_List_const_iterator@V?$_List_val@U?$_List_simple_types@PAV?$Goal@VRaven_Bot@@@@@std@@@std@@@std@@QAEAAV01@$$QAV01@@Z PROC ; std::_List_const_iterator<std::_List_val<std::_List_simple_types<Goal<Raven_Bot> *> > >::operator=, COMDAT
; _this$ = ecx
	push	ebp
	mov	ebp, esp
	push	ecx
	mov	DWORD PTR [ebp-4], -858993460		; ccccccccH
	mov	DWORD PTR _this$[ebp], ecx
	mov	eax, DWORD PTR ___that$[ebp]
	push	eax
	mov	ecx, DWORD PTR _this$[ebp]
	call	??4?$_List_unchecked_const_iterator@V?$_List_val@U?$_List_simple_types@PAV?$Goal@VRaven_Bot@@@@@std@@@std@@U_Iterator_base12@2@@std@@QAEAAV01@$$QAV01@@Z
	mov	eax, DWORD PTR _this$[ebp]
	add	esp, 4
	cmp	ebp, esp
	call	__RTC_CheckEsp
	mov	esp, ebp
	pop	ebp
	ret	4
??4?$_List_const_iterator@V?$_List_val@U?$_List_simple_types@PAV?$Goal@VRaven_Bot@@@@@std@@@std@@@std@@QAEAAV01@$$QAV01@@Z ENDP ; std::_List_const_iterator<std::_List_val<std::_List_simple_types<Goal<Raven_Bot> *> > >::operator=
_TEXT	ENDS
; Function compile flags: /Odtp /RTCsu
;	COMDAT ??0?$_List_const_iterator@V?$_List_val@U?$_List_simple_types@PAV?$Goal@VRaven_Bot@@@@@std@@@std@@@std@@QAE@$$QAV01@@Z
_TEXT	SEGMENT
_this$ = -4						; size = 4
___that$ = 8						; size = 4
??0?$_List_const_iterator@V?$_List_val@U?$_List_simple_types@PAV?$Goal@VRaven_Bot@@@@@std@@@std@@@std@@QAE@$$QAV01@@Z PROC ; std::_List_const_iterator<std::_List_val<std::_List_simple_types<Goal<Raven_Bot> *> > >::_List_const_iterator<std::_List_val<std::_List_simple_types<Goal<Raven_Bot> *> > >, COMDAT
; _this$ = ecx
	push	ebp
	mov	ebp, esp
	push	ecx
	mov	DWORD PTR [ebp-4], -858993460		; ccccccccH
	mov	DWORD PTR _this$[ebp], ecx
	mov	eax, DWORD PTR ___that$[ebp]
	push	eax
	mov	ecx, DWORD PTR _this$[ebp]
	call	??0?$_List_unchecked_const_iterator@V?$_List_val@U?$_List_simple_types@PAV?$Goal@VRaven_Bot@@@@@std@@@std@@U_Iterator_base12@2@@std@@QAE@$$QAV01@@Z
	mov	eax, DWORD PTR _this$[ebp]
	add	esp, 4
	cmp	ebp, esp
	call	__RTC_CheckEsp
	mov	esp, ebp
	pop	ebp
	ret	4
??0?$_List_const_iterator@V?$_List_val@U?$_List_simple_types@PAV?$Goal@VRaven_Bot@@@@@std@@@std@@@std@@QAE@$$QAV01@@Z ENDP ; std::_List_const_iterator<std::_List_val<std::_List_simple_types<Goal<Raven_Bot> *> > >::_List_const_iterator<std::_List_val<std::_List_simple_types<Goal<Raven_Bot> *> > >
_TEXT	ENDS
; Function compile flags: /Odtp /RTCsu
;	COMDAT ??0?$_List_const_iterator@V?$_List_val@U?$_List_simple_types@PAV?$Goal@VRaven_Bot@@@@@std@@@std@@@std@@QAE@ABV01@@Z
_TEXT	SEGMENT
_this$ = -4						; size = 4
___that$ = 8						; size = 4
??0?$_List_const_iterator@V?$_List_val@U?$_List_simple_types@PAV?$Goal@VRaven_Bot@@@@@std@@@std@@@std@@QAE@ABV01@@Z PROC ; std::_List_const_iterator<std::_List_val<std::_List_simple_types<Goal<Raven_Bot> *> > >::_List_const_iterator<std::_List_val<std::_List_simple_types<Goal<Raven_Bot> *> > >, COMDAT
; _this$ = ecx
	push	ebp
	mov	ebp, esp
	push	ecx
	mov	DWORD PTR [ebp-4], -858993460		; ccccccccH
	mov	DWORD PTR _this$[ebp], ecx
	mov	eax, DWORD PTR ___that$[ebp]
	push	eax
	mov	ecx, DWORD PTR _this$[ebp]
	call	??0?$_List_unchecked_const_iterator@V?$_List_val@U?$_List_simple_types@PAV?$Goal@VRaven_Bot@@@@@std@@@std@@U_Iterator_base12@2@@std@@QAE@ABV01@@Z
	mov	eax, DWORD PTR _this$[ebp]
	add	esp, 4
	cmp	ebp, esp
	call	__RTC_CheckEsp
	mov	esp, ebp
	pop	ebp
	ret	4
??0?$_List_const_iterator@V?$_List_val@U?$_List_simple_types@PAV?$Goal@VRaven_Bot@@@@@std@@@std@@@std@@QAE@ABV01@@Z ENDP ; std::_List_const_iterator<std::_List_val<std::_List_simple_types<Goal<Raven_Bot> *> > >::_List_const_iterator<std::_List_val<std::_List_simple_types<Goal<Raven_Bot> *> > >
_TEXT	ENDS
; Function compile flags: /Odtp /RTCsu
;	COMDAT ??1?$_List_const_iterator@V?$_List_val@U?$_List_simple_types@PAV?$Goal@VRaven_Bot@@@@@std@@@std@@@std@@QAE@XZ
_TEXT	SEGMENT
_this$ = -4						; size = 4
??1?$_List_const_iterator@V?$_List_val@U?$_List_simple_types@PAV?$Goal@VRaven_Bot@@@@@std@@@std@@@std@@QAE@XZ PROC ; std::_List_const_iterator<std::_List_val<std::_List_simple_types<Goal<Raven_Bot> *> > >::~_List_const_iterator<std::_List_val<std::_List_simple_types<Goal<Raven_Bot> *> > >, COMDAT
; _this$ = ecx
	push	ebp
	mov	ebp, esp
	push	ecx
	mov	DWORD PTR [ebp-4], -858993460		; ccccccccH
	mov	DWORD PTR _this$[ebp], ecx
	mov	ecx, DWORD PTR _this$[ebp]
	call	??1?$_List_unchecked_const_iterator@V?$_List_val@U?$_List_simple_types@PAV?$Goal@VRaven_Bot@@@@@std@@@std@@U_Iterator_base12@2@@std@@QAE@XZ
	add	esp, 4
	cmp	ebp, esp
	call	__RTC_CheckEsp
	mov	esp, ebp
	pop	ebp
	ret	0
??1?$_List_const_iterator@V?$_List_val@U?$_List_simple_types@PAV?$Goal@VRaven_Bot@@@@@std@@@std@@@std@@QAE@XZ ENDP ; std::_List_const_iterator<std::_List_val<std::_List_simple_types<Goal<Raven_Bot> *> > >::~_List_const_iterator<std::_List_val<std::_List_simple_types<Goal<Raven_Bot> *> > >
_TEXT	ENDS
; Function compile flags: /Odtp /RTCsu
; File c:\program files (x86)\microsoft visual studio\2017\community\vc\tools\msvc\14.15.26726\include\list
;	COMDAT ??9?$_List_const_iterator@V?$_List_val@U?$_List_simple_types@PAV?$Goal@VRaven_Bot@@@@@std@@@std@@@std@@QBE_NABV01@@Z
_TEXT	SEGMENT
tv69 = -8						; size = 4
_this$ = -4						; size = 4
__Right$ = 8						; size = 4
??9?$_List_const_iterator@V?$_List_val@U?$_List_simple_types@PAV?$Goal@VRaven_Bot@@@@@std@@@std@@@std@@QBE_NABV01@@Z PROC ; std::_List_const_iterator<std::_List_val<std::_List_simple_types<Goal<Raven_Bot> *> > >::operator!=, COMDAT
; _this$ = ecx

; 247  : 		{	// test for iterator inequality

	push	ebp
	mov	ebp, esp
	sub	esp, 8
	mov	DWORD PTR [ebp-8], -858993460		; ccccccccH
	mov	DWORD PTR [ebp-4], -858993460		; ccccccccH
	mov	DWORD PTR _this$[ebp], ecx

; 248  : 		return (!(*this == _Right));

	mov	eax, DWORD PTR __Right$[ebp]
	push	eax
	mov	ecx, DWORD PTR _this$[ebp]
	call	??8?$_List_const_iterator@V?$_List_val@U?$_List_simple_types@PAV?$Goal@VRaven_Bot@@@@@std@@@std@@@std@@QBE_NABV01@@Z ; std::_List_const_iterator<std::_List_val<std::_List_simple_types<Goal<Raven_Bot> *> > >::operator==
	movzx	ecx, al
	test	ecx, ecx
	jne	SHORT $LN3@operator
	mov	DWORD PTR tv69[ebp], 1
	jmp	SHORT $LN4@operator
$LN3@operator:
	mov	DWORD PTR tv69[ebp], 0
$LN4@operator:
	mov	al, BYTE PTR tv69[ebp]

; 249  : 		}

	add	esp, 8
	cmp	ebp, esp
	call	__RTC_CheckEsp
	mov	esp, ebp
	pop	ebp
	ret	4
??9?$_List_const_iterator@V?$_List_val@U?$_List_simple_types@PAV?$Goal@VRaven_Bot@@@@@std@@@std@@@std@@QBE_NABV01@@Z ENDP ; std::_List_const_iterator<std::_List_val<std::_List_simple_types<Goal<Raven_Bot> *> > >::operator!=
_TEXT	ENDS
; Function compile flags: /Odtp /RTCsu
; File c:\program files (x86)\microsoft visual studio\2017\community\vc\tools\msvc\14.15.26726\include\list
;	COMDAT ??8?$_List_const_iterator@V?$_List_val@U?$_List_simple_types@PAV?$Goal@VRaven_Bot@@@@@std@@@std@@@std@@QBE_NABV01@@Z
_TEXT	SEGMENT
tv136 = -8						; size = 4
_this$ = -4						; size = 4
__Right$ = 8						; size = 4
??8?$_List_const_iterator@V?$_List_val@U?$_List_simple_types@PAV?$Goal@VRaven_Bot@@@@@std@@@std@@@std@@QBE_NABV01@@Z PROC ; std::_List_const_iterator<std::_List_val<std::_List_simple_types<Goal<Raven_Bot> *> > >::operator==, COMDAT
; _this$ = ecx

; 238  : 		{	// test for iterator equality

	push	ebp
	mov	ebp, esp
	sub	esp, 8
	push	esi
	mov	DWORD PTR [ebp-8], -858993460		; ccccccccH
	mov	DWORD PTR [ebp-4], -858993460		; ccccccccH
	mov	DWORD PTR _this$[ebp], ecx
$LN4@operator:

; 239  :  #if _ITERATOR_DEBUG_LEVEL != 0
; 240  : 		_STL_VERIFY(this->_Getcont() == _Right._Getcont(), "list iterators incompatible");

	mov	ecx, DWORD PTR _this$[ebp]
	call	?_Getcont@_Iterator_base12@std@@QBEPBU_Container_base12@2@XZ ; std::_Iterator_base12::_Getcont
	mov	esi, eax
	mov	ecx, DWORD PTR __Right$[ebp]
	call	?_Getcont@_Iterator_base12@std@@QBEPBU_Container_base12@2@XZ ; std::_Iterator_base12::_Getcont
	cmp	esi, eax
	jne	SHORT $LN7@operator
	jmp	SHORT $LN2@operator
$LN7@operator:
	push	OFFSET ??_C@_0BM@BALDKKHE@list?5iterators?5incompatible@
	push	OFFSET ??_C@_02DKCKIIND@?$CFs@
	push	0
	push	240					; 000000f0H
	push	OFFSET ??_C@_0GF@CDIONFB@c?3?2program?5files?5?$CIx86?$CJ?2microsof@
	push	2
	call	__CrtDbgReport
	add	esp, 24					; 00000018H
	cmp	eax, 1
	jne	SHORT $LN11@operator
	int	3
$LN11@operator:
	push	0
	push	240					; 000000f0H
	push	OFFSET ??_C@_1MK@MDLCPFJD@?$AAc?$AA?3?$AA?2?$AAp?$AAr?$AAo?$AAg?$AAr?$AAa?$AAm?$AA?5?$AAf?$AAi?$AAl?$AAe@
	push	OFFSET ??_C@_1PM@NGMJNEOB@?$AAs?$AAt?$AAd?$AA?3?$AA?3?$AA_?$AAL?$AAi?$AAs?$AAt?$AA_?$AAc?$AAo?$AAn?$AAs@
	push	OFFSET ??_C@_1DM@KDLJAKOP@?$AA?$CC?$AAl?$AAi?$AAs?$AAt?$AA?5?$AAi?$AAt?$AAe?$AAr?$AAa?$AAt?$AAo?$AAr?$AAs@
	call	__invalid_parameter
	add	esp, 20					; 00000014H
	xor	ecx, ecx
	jne	SHORT $LN7@operator
$LN2@operator:
	xor	edx, edx
	jne	SHORT $LN4@operator

; 241  :  #endif /* _ITERATOR_DEBUG_LEVEL != 0 */
; 242  : 
; 243  : 		return (this->_Ptr == _Right._Ptr);

	mov	eax, DWORD PTR _this$[ebp]
	mov	ecx, DWORD PTR __Right$[ebp]
	mov	edx, DWORD PTR [eax+8]
	cmp	edx, DWORD PTR [ecx+8]
	jne	SHORT $LN12@operator
	mov	DWORD PTR tv136[ebp], 1
	jmp	SHORT $LN13@operator
$LN12@operator:
	mov	DWORD PTR tv136[ebp], 0
$LN13@operator:
	mov	al, BYTE PTR tv136[ebp]

; 244  : 		}

	pop	esi
	add	esp, 8
	cmp	ebp, esp
	call	__RTC_CheckEsp
	mov	esp, ebp
	pop	ebp
	ret	4
??8?$_List_const_iterator@V?$_List_val@U?$_List_simple_types@PAV?$Goal@VRaven_Bot@@@@@std@@@std@@@std@@QBE_NABV01@@Z ENDP ; std::_List_const_iterator<std::_List_val<std::_List_simple_types<Goal<Raven_Bot> *> > >::operator==
_TEXT	ENDS
; Function compile flags: /Odtp /RTCsu
; File c:\program files (x86)\microsoft visual studio\2017\community\vc\tools\msvc\14.15.26726\include\list
;	COMDAT ??F?$_List_const_iterator@V?$_List_val@U?$_List_simple_types@PAV?$Goal@VRaven_Bot@@@@@std@@@std@@@std@@QAEAAV01@XZ
_TEXT	SEGMENT
__Mycont$ = -12						; size = 4
__New_ptr$ = -8						; size = 4
_this$ = -4						; size = 4
??F?$_List_const_iterator@V?$_List_val@U?$_List_simple_types@PAV?$Goal@VRaven_Bot@@@@@std@@@std@@@std@@QAEAAV01@XZ PROC ; std::_List_const_iterator<std::_List_val<std::_List_simple_types<Goal<Raven_Bot> *> > >::operator--, COMDAT
; _this$ = ecx

; 218  : 		{	// predecrement

	push	ebp
	mov	ebp, esp
	sub	esp, 12					; 0000000cH
	mov	DWORD PTR [ebp-12], -858993460		; ccccccccH
	mov	DWORD PTR [ebp-8], -858993460		; ccccccccH
	mov	DWORD PTR [ebp-4], -858993460		; ccccccccH
	mov	DWORD PTR _this$[ebp], ecx

; 219  : 		const auto _New_ptr = this->_Ptr->_Prev;

	mov	eax, DWORD PTR _this$[ebp]
	mov	ecx, DWORD PTR [eax+8]
	mov	edx, DWORD PTR [ecx+4]
	mov	DWORD PTR __New_ptr$[ebp], edx

; 220  :  #if _ITERATOR_DEBUG_LEVEL != 0
; 221  : 		const auto _Mycont = static_cast<const _Mylist *>(this->_Getcont());

	mov	ecx, DWORD PTR _this$[ebp]
	call	?_Getcont@_Iterator_base12@std@@QBEPBU_Container_base12@2@XZ ; std::_Iterator_base12::_Getcont
	mov	DWORD PTR __Mycont$[ebp], eax
$LN4@operator:

; 222  : 		_STL_ASSERT(_Mycont, "cannot decrement value-initialized list iterator");

	cmp	DWORD PTR __Mycont$[ebp], 0
	je	SHORT $LN7@operator
	jmp	SHORT $LN2@operator
$LN7@operator:
	push	OFFSET ??_C@_0DB@MCPEHPCC@cannot?5decrement?5value?9initiali@
	push	OFFSET ??_C@_02DKCKIIND@?$CFs@
	push	0
	push	222					; 000000deH
	push	OFFSET ??_C@_0GF@CDIONFB@c?3?2program?5files?5?$CIx86?$CJ?2microsof@
	push	2
	call	__CrtDbgReport
	add	esp, 24					; 00000018H
	cmp	eax, 1
	jne	SHORT $LN19@operator
	int	3
$LN19@operator:
	push	0
	push	222					; 000000deH
	push	OFFSET ??_C@_1MK@MDLCPFJD@?$AAc?$AA?3?$AA?2?$AAp?$AAr?$AAo?$AAg?$AAr?$AAa?$AAm?$AA?5?$AAf?$AAi?$AAl?$AAe@
	push	OFFSET ??_C@_1PM@IFAGIBOF@?$AAs?$AAt?$AAd?$AA?3?$AA?3?$AA_?$AAL?$AAi?$AAs?$AAt?$AA_?$AAc?$AAo?$AAn?$AAs@
	push	OFFSET ??_C@_1GG@FLDKPFOH@?$AA?$CC?$AAc?$AAa?$AAn?$AAn?$AAo?$AAt?$AA?5?$AAd?$AAe?$AAc?$AAr?$AAe?$AAm?$AAe@
	call	__invalid_parameter
	add	esp, 20					; 00000014H
	xor	ecx, ecx
	jne	SHORT $LN7@operator
$LN2@operator:
	xor	edx, edx
	jne	SHORT $LN4@operator
$LN10@operator:

; 223  : 		_STL_VERIFY(_New_ptr != _Mycont->_Myhead, "cannot decrement begin list iterator");

	mov	eax, DWORD PTR __Mycont$[ebp]
	mov	ecx, DWORD PTR __New_ptr$[ebp]
	cmp	ecx, DWORD PTR [eax+4]
	je	SHORT $LN13@operator
	jmp	SHORT $LN8@operator
$LN13@operator:
	push	OFFSET ??_C@_0CF@BAAFPBMN@cannot?5decrement?5begin?5list?5ite@
	push	OFFSET ??_C@_02DKCKIIND@?$CFs@
	push	0
	push	223					; 000000dfH
	push	OFFSET ??_C@_0GF@CDIONFB@c?3?2program?5files?5?$CIx86?$CJ?2microsof@
	push	2
	call	__CrtDbgReport
	add	esp, 24					; 00000018H
	cmp	eax, 1
	jne	SHORT $LN20@operator
	int	3
$LN20@operator:
	push	0
	push	223					; 000000dfH
	push	OFFSET ??_C@_1MK@MDLCPFJD@?$AAc?$AA?3?$AA?2?$AAp?$AAr?$AAo?$AAg?$AAr?$AAa?$AAm?$AA?5?$AAf?$AAi?$AAl?$AAe@
	push	OFFSET ??_C@_1PM@IFAGIBOF@?$AAs?$AAt?$AAd?$AA?3?$AA?3?$AA_?$AAL?$AAi?$AAs?$AAt?$AA_?$AAc?$AAo?$AAn?$AAs@
	push	OFFSET ??_C@_1EO@PPPLIDNC@?$AA?$CC?$AAc?$AAa?$AAn?$AAn?$AAo?$AAt?$AA?5?$AAd?$AAe?$AAc?$AAr?$AAe?$AAm?$AAe@
	call	__invalid_parameter
	add	esp, 20					; 00000014H
	xor	eax, eax
	jne	SHORT $LN13@operator
$LN8@operator:
	xor	ecx, ecx
	jne	SHORT $LN10@operator

; 224  :  #endif /* _ITERATOR_DEBUG_LEVEL != 0 */
; 225  : 
; 226  : 		this->_Ptr = _New_ptr;

	mov	edx, DWORD PTR _this$[ebp]
	mov	eax, DWORD PTR __New_ptr$[ebp]
	mov	DWORD PTR [edx+8], eax

; 227  : 		return (*this);

	mov	eax, DWORD PTR _this$[ebp]

; 228  : 		}

	add	esp, 12					; 0000000cH
	cmp	ebp, esp
	call	__RTC_CheckEsp
	mov	esp, ebp
	pop	ebp
	ret	0
??F?$_List_const_iterator@V?$_List_val@U?$_List_simple_types@PAV?$Goal@VRaven_Bot@@@@@std@@@std@@@std@@QAEAAV01@XZ ENDP ; std::_List_const_iterator<std::_List_val<std::_List_simple_types<Goal<Raven_Bot> *> > >::operator--
_TEXT	ENDS
; Function compile flags: /Odtp /RTCsu
; File c:\program files (x86)\microsoft visual studio\2017\community\vc\tools\msvc\14.15.26726\include\list
;	COMDAT ??E?$_List_const_iterator@V?$_List_val@U?$_List_simple_types@PAV?$Goal@VRaven_Bot@@@@@std@@@std@@@std@@QAE?AV01@H@Z
_TEXT	SEGMENT
$T2 = -40						; size = 4
__Tmp$ = -32						; size = 12
_this$ = -16						; size = 4
__$EHRec$ = -12						; size = 12
___$ReturnUdt$ = 8					; size = 4
___formal$ = 12						; size = 4
??E?$_List_const_iterator@V?$_List_val@U?$_List_simple_types@PAV?$Goal@VRaven_Bot@@@@@std@@@std@@@std@@QAE?AV01@H@Z PROC ; std::_List_const_iterator<std::_List_val<std::_List_simple_types<Goal<Raven_Bot> *> > >::operator++, COMDAT
; _this$ = ecx

; 211  : 		{	// postincrement

	push	ebp
	mov	ebp, esp
	push	-1
	push	__ehhandler$??E?$_List_const_iterator@V?$_List_val@U?$_List_simple_types@PAV?$Goal@VRaven_Bot@@@@@std@@@std@@@std@@QAE?AV01@H@Z
	mov	eax, DWORD PTR fs:0
	push	eax
	sub	esp, 28					; 0000001cH
	mov	eax, -858993460				; ccccccccH
	mov	DWORD PTR [ebp-40], eax
	mov	DWORD PTR [ebp-36], eax
	mov	DWORD PTR [ebp-32], eax
	mov	DWORD PTR [ebp-28], eax
	mov	DWORD PTR [ebp-24], eax
	mov	DWORD PTR [ebp-20], eax
	mov	DWORD PTR [ebp-16], eax
	mov	eax, DWORD PTR ___security_cookie
	xor	eax, ebp
	push	eax
	lea	eax, DWORD PTR __$EHRec$[ebp]
	mov	DWORD PTR fs:0, eax
	mov	DWORD PTR _this$[ebp], ecx
	mov	DWORD PTR $T2[ebp], 0

; 212  : 		_List_const_iterator _Tmp = *this;

	mov	eax, DWORD PTR _this$[ebp]
	push	eax
	lea	ecx, DWORD PTR __Tmp$[ebp]
	call	??0?$_List_const_iterator@V?$_List_val@U?$_List_simple_types@PAV?$Goal@VRaven_Bot@@@@@std@@@std@@@std@@QAE@ABV01@@Z
	mov	DWORD PTR __$EHRec$[ebp+8], 0

; 213  : 		++*this;

	mov	ecx, DWORD PTR _this$[ebp]
	call	??E?$_List_const_iterator@V?$_List_val@U?$_List_simple_types@PAV?$Goal@VRaven_Bot@@@@@std@@@std@@@std@@QAEAAV01@XZ ; std::_List_const_iterator<std::_List_val<std::_List_simple_types<Goal<Raven_Bot> *> > >::operator++

; 214  : 		return (_Tmp);

	lea	ecx, DWORD PTR __Tmp$[ebp]
	push	ecx
	mov	ecx, DWORD PTR ___$ReturnUdt$[ebp]
	call	??0?$_List_const_iterator@V?$_List_val@U?$_List_simple_types@PAV?$Goal@VRaven_Bot@@@@@std@@@std@@@std@@QAE@$$QAV01@@Z
	mov	edx, DWORD PTR $T2[ebp]
	or	edx, 1
	mov	DWORD PTR $T2[ebp], edx
	mov	DWORD PTR __$EHRec$[ebp+8], -1
	lea	ecx, DWORD PTR __Tmp$[ebp]
	call	??1?$_List_const_iterator@V?$_List_val@U?$_List_simple_types@PAV?$Goal@VRaven_Bot@@@@@std@@@std@@@std@@QAE@XZ
	mov	eax, DWORD PTR ___$ReturnUdt$[ebp]

; 215  : 		}

	push	edx
	mov	ecx, ebp
	push	eax
	lea	edx, DWORD PTR $LN9@operator
	call	@_RTC_CheckStackVars@8
	pop	eax
	pop	edx
	mov	ecx, DWORD PTR __$EHRec$[ebp]
	mov	DWORD PTR fs:0, ecx
	pop	ecx
	add	esp, 40					; 00000028H
	cmp	ebp, esp
	call	__RTC_CheckEsp
	mov	esp, ebp
	pop	ebp
	ret	8
	npad	1
$LN9@operator:
	DD	1
	DD	$LN8@operator
$LN8@operator:
	DD	-32					; ffffffe0H
	DD	12					; 0000000cH
	DD	$LN6@operator
$LN6@operator:
	DB	95					; 0000005fH
	DB	84					; 00000054H
	DB	109					; 0000006dH
	DB	112					; 00000070H
	DB	0
_TEXT	ENDS
;	COMDAT text$x
text$x	SEGMENT
__unwindfunclet$??E?$_List_const_iterator@V?$_List_val@U?$_List_simple_types@PAV?$Goal@VRaven_Bot@@@@@std@@@std@@@std@@QAE?AV01@H@Z$0:
	lea	ecx, DWORD PTR __Tmp$[ebp]
	jmp	??1?$_List_const_iterator@V?$_List_val@U?$_List_simple_types@PAV?$Goal@VRaven_Bot@@@@@std@@@std@@@std@@QAE@XZ
__ehhandler$??E?$_List_const_iterator@V?$_List_val@U?$_List_simple_types@PAV?$Goal@VRaven_Bot@@@@@std@@@std@@@std@@QAE?AV01@H@Z:
	mov	edx, DWORD PTR [esp+8]
	lea	eax, DWORD PTR [edx+12]
	mov	ecx, DWORD PTR [edx-32]
	xor	ecx, eax
	call	@__security_check_cookie@4
	mov	eax, OFFSET __ehfuncinfo$??E?$_List_const_iterator@V?$_List_val@U?$_List_simple_types@PAV?$Goal@VRaven_Bot@@@@@std@@@std@@@std@@QAE?AV01@H@Z
	jmp	___CxxFrameHandler3
text$x	ENDS
??E?$_List_const_iterator@V?$_List_val@U?$_List_simple_types@PAV?$Goal@VRaven_Bot@@@@@std@@@std@@@std@@QAE?AV01@H@Z ENDP ; std::_List_const_iterator<std::_List_val<std::_List_simple_types<Goal<Raven_Bot> *> > >::operator++
; Function compile flags: /Odtp /RTCsu
; File c:\program files (x86)\microsoft visual studio\2017\community\vc\tools\msvc\14.15.26726\include\list
;	COMDAT ??E?$_List_const_iterator@V?$_List_val@U?$_List_simple_types@PAV?$Goal@VRaven_Bot@@@@@std@@@std@@@std@@QAEAAV01@XZ
_TEXT	SEGMENT
__Mycont$ = -8						; size = 4
_this$ = -4						; size = 4
??E?$_List_const_iterator@V?$_List_val@U?$_List_simple_types@PAV?$Goal@VRaven_Bot@@@@@std@@@std@@@std@@QAEAAV01@XZ PROC ; std::_List_const_iterator<std::_List_val<std::_List_simple_types<Goal<Raven_Bot> *> > >::operator++, COMDAT
; _this$ = ecx

; 199  : 		{	// preincrement

	push	ebp
	mov	ebp, esp
	sub	esp, 8
	mov	DWORD PTR [ebp-8], -858993460		; ccccccccH
	mov	DWORD PTR [ebp-4], -858993460		; ccccccccH
	mov	DWORD PTR _this$[ebp], ecx

; 200  :  #if _ITERATOR_DEBUG_LEVEL != 0
; 201  : 		const auto _Mycont = static_cast<const _Mylist *>(this->_Getcont());

	mov	ecx, DWORD PTR _this$[ebp]
	call	?_Getcont@_Iterator_base12@std@@QBEPBU_Container_base12@2@XZ ; std::_Iterator_base12::_Getcont
	mov	DWORD PTR __Mycont$[ebp], eax
$LN4@operator:

; 202  : 		_STL_ASSERT(_Mycont, "cannot increment value-initialized list iterator");

	cmp	DWORD PTR __Mycont$[ebp], 0
	je	SHORT $LN7@operator
	jmp	SHORT $LN2@operator
$LN7@operator:
	push	OFFSET ??_C@_0DB@ENBCPNKO@cannot?5increment?5value?9initiali@
	push	OFFSET ??_C@_02DKCKIIND@?$CFs@
	push	0
	push	202					; 000000caH
	push	OFFSET ??_C@_0GF@CDIONFB@c?3?2program?5files?5?$CIx86?$CJ?2microsof@
	push	2
	call	__CrtDbgReport
	add	esp, 24					; 00000018H
	cmp	eax, 1
	jne	SHORT $LN19@operator
	int	3
$LN19@operator:
	push	0
	push	202					; 000000caH
	push	OFFSET ??_C@_1MK@MDLCPFJD@?$AAc?$AA?3?$AA?2?$AAp?$AAr?$AAo?$AAg?$AAr?$AAa?$AAm?$AA?5?$AAf?$AAi?$AAl?$AAe@
	push	OFFSET ??_C@_1PM@HGDEDNCE@?$AAs?$AAt?$AAd?$AA?3?$AA?3?$AA_?$AAL?$AAi?$AAs?$AAt?$AA_?$AAc?$AAo?$AAn?$AAs@
	push	OFFSET ??_C@_1GG@JLMAGPNK@?$AA?$CC?$AAc?$AAa?$AAn?$AAn?$AAo?$AAt?$AA?5?$AAi?$AAn?$AAc?$AAr?$AAe?$AAm?$AAe@
	call	__invalid_parameter
	add	esp, 20					; 00000014H
	xor	ecx, ecx
	jne	SHORT $LN7@operator
$LN2@operator:
	xor	edx, edx
	jne	SHORT $LN4@operator
$LN10@operator:

; 203  : 		_STL_VERIFY(this->_Ptr != _Mycont->_Myhead, "cannot increment end list iterator");

	mov	eax, DWORD PTR _this$[ebp]
	mov	ecx, DWORD PTR __Mycont$[ebp]
	mov	edx, DWORD PTR [eax+8]
	cmp	edx, DWORD PTR [ecx+4]
	je	SHORT $LN13@operator
	jmp	SHORT $LN8@operator
$LN13@operator:
	push	OFFSET ??_C@_0CD@PMFMCEG@cannot?5increment?5end?5list?5itera@
	push	OFFSET ??_C@_02DKCKIIND@?$CFs@
	push	0
	push	203					; 000000cbH
	push	OFFSET ??_C@_0GF@CDIONFB@c?3?2program?5files?5?$CIx86?$CJ?2microsof@
	push	2
	call	__CrtDbgReport
	add	esp, 24					; 00000018H
	cmp	eax, 1
	jne	SHORT $LN20@operator
	int	3
$LN20@operator:
	push	0
	push	203					; 000000cbH
	push	OFFSET ??_C@_1MK@MDLCPFJD@?$AAc?$AA?3?$AA?2?$AAp?$AAr?$AAo?$AAg?$AAr?$AAa?$AAm?$AA?5?$AAf?$AAi?$AAl?$AAe@
	push	OFFSET ??_C@_1PM@HGDEDNCE@?$AAs?$AAt?$AAd?$AA?3?$AA?3?$AA_?$AAL?$AAi?$AAs?$AAt?$AA_?$AAc?$AAo?$AAn?$AAs@
	push	OFFSET ??_C@_1EK@OKKCFDJN@?$AA?$CC?$AAc?$AAa?$AAn?$AAn?$AAo?$AAt?$AA?5?$AAi?$AAn?$AAc?$AAr?$AAe?$AAm?$AAe@
	call	__invalid_parameter
	add	esp, 20					; 00000014H
	xor	ecx, ecx
	jne	SHORT $LN13@operator
$LN8@operator:
	xor	edx, edx
	jne	SHORT $LN10@operator

; 204  :  #endif /* _ITERATOR_DEBUG_LEVEL != 0 */
; 205  : 
; 206  : 		this->_Ptr = this->_Ptr->_Next;

	mov	eax, DWORD PTR _this$[ebp]
	mov	ecx, DWORD PTR [eax+8]
	mov	edx, DWORD PTR _this$[ebp]
	mov	eax, DWORD PTR [ecx]
	mov	DWORD PTR [edx+8], eax

; 207  : 		return (*this);

	mov	eax, DWORD PTR _this$[ebp]

; 208  : 		}

	add	esp, 8
	cmp	ebp, esp
	call	__RTC_CheckEsp
	mov	esp, ebp
	pop	ebp
	ret	0
??E?$_List_const_iterator@V?$_List_val@U?$_List_simple_types@PAV?$Goal@VRaven_Bot@@@@@std@@@std@@@std@@QAEAAV01@XZ ENDP ; std::_List_const_iterator<std::_List_val<std::_List_simple_types<Goal<Raven_Bot> *> > >::operator++
_TEXT	ENDS
; Function compile flags: /Odtp /RTCsu
; File c:\program files (x86)\microsoft visual studio\2017\community\vc\tools\msvc\14.15.26726\include\list
;	COMDAT ??D?$_List_const_iterator@V?$_List_val@U?$_List_simple_types@PAV?$Goal@VRaven_Bot@@@@@std@@@std@@@std@@QBEABQAV?$Goal@VRaven_Bot@@@@XZ
_TEXT	SEGMENT
__Mycont$ = -8						; size = 4
_this$ = -4						; size = 4
??D?$_List_const_iterator@V?$_List_val@U?$_List_simple_types@PAV?$Goal@VRaven_Bot@@@@@std@@@std@@@std@@QBEABQAV?$Goal@VRaven_Bot@@@@XZ PROC ; std::_List_const_iterator<std::_List_val<std::_List_simple_types<Goal<Raven_Bot> *> > >::operator*, COMDAT
; _this$ = ecx

; 183  : 		{	// return designated value

	push	ebp
	mov	ebp, esp
	sub	esp, 8
	mov	DWORD PTR [ebp-8], -858993460		; ccccccccH
	mov	DWORD PTR [ebp-4], -858993460		; ccccccccH
	mov	DWORD PTR _this$[ebp], ecx

; 184  :  #if _ITERATOR_DEBUG_LEVEL != 0
; 185  : 		const auto _Mycont = static_cast<const _Mylist *>(this->_Getcont());

	mov	ecx, DWORD PTR _this$[ebp]
	call	?_Getcont@_Iterator_base12@std@@QBEPBU_Container_base12@2@XZ ; std::_Iterator_base12::_Getcont
	mov	DWORD PTR __Mycont$[ebp], eax
$LN4@operator:

; 186  : 		_STL_ASSERT(_Mycont, "cannot dereference value-initialized list iterator");

	cmp	DWORD PTR __Mycont$[ebp], 0
	je	SHORT $LN7@operator
	jmp	SHORT $LN2@operator
$LN7@operator:
	push	OFFSET ??_C@_0DD@MBIHGLJE@cannot?5dereference?5value?9initia@
	push	OFFSET ??_C@_02DKCKIIND@?$CFs@
	push	0
	push	186					; 000000baH
	push	OFFSET ??_C@_0GF@CDIONFB@c?3?2program?5files?5?$CIx86?$CJ?2microsof@
	push	2
	call	__CrtDbgReport
	add	esp, 24					; 00000018H
	cmp	eax, 1
	jne	SHORT $LN19@operator
	int	3
$LN19@operator:
	push	0
	push	186					; 000000baH
	push	OFFSET ??_C@_1MK@MDLCPFJD@?$AAc?$AA?3?$AA?2?$AAp?$AAr?$AAo?$AAg?$AAr?$AAa?$AAm?$AA?5?$AAf?$AAi?$AAl?$AAe@
	push	OFFSET ??_C@_1PK@KKMOJEL@?$AAs?$AAt?$AAd?$AA?3?$AA?3?$AA_?$AAL?$AAi?$AAs?$AAt?$AA_?$AAc?$AAo?$AAn?$AAs@
	push	OFFSET ??_C@_1GK@NKIMOCIG@?$AA?$CC?$AAc?$AAa?$AAn?$AAn?$AAo?$AAt?$AA?5?$AAd?$AAe?$AAr?$AAe?$AAf?$AAe?$AAr@
	call	__invalid_parameter
	add	esp, 20					; 00000014H
	xor	ecx, ecx
	jne	SHORT $LN7@operator
$LN2@operator:
	xor	edx, edx
	jne	SHORT $LN4@operator
$LN10@operator:

; 187  : 		_STL_VERIFY(this->_Ptr != _Mycont->_Myhead, "cannot dereference end list iterator");

	mov	eax, DWORD PTR _this$[ebp]
	mov	ecx, DWORD PTR __Mycont$[ebp]
	mov	edx, DWORD PTR [eax+8]
	cmp	edx, DWORD PTR [ecx+4]
	je	SHORT $LN13@operator
	jmp	SHORT $LN8@operator
$LN13@operator:
	push	OFFSET ??_C@_0CF@JCBFHMPL@cannot?5dereference?5end?5list?5ite@
	push	OFFSET ??_C@_02DKCKIIND@?$CFs@
	push	0
	push	187					; 000000bbH
	push	OFFSET ??_C@_0GF@CDIONFB@c?3?2program?5files?5?$CIx86?$CJ?2microsof@
	push	2
	call	__CrtDbgReport
	add	esp, 24					; 00000018H
	cmp	eax, 1
	jne	SHORT $LN20@operator
	int	3
$LN20@operator:
	push	0
	push	187					; 000000bbH
	push	OFFSET ??_C@_1MK@MDLCPFJD@?$AAc?$AA?3?$AA?2?$AAp?$AAr?$AAo?$AAg?$AAr?$AAa?$AAm?$AA?5?$AAf?$AAi?$AAl?$AAe@
	push	OFFSET ??_C@_1PK@KKMOJEL@?$AAs?$AAt?$AAd?$AA?3?$AA?3?$AA_?$AAL?$AAi?$AAs?$AAt?$AA_?$AAc?$AAo?$AAn?$AAs@
	push	OFFSET ??_C@_1EO@CNEFBDCF@?$AA?$CC?$AAc?$AAa?$AAn?$AAn?$AAo?$AAt?$AA?5?$AAd?$AAe?$AAr?$AAe?$AAf?$AAe?$AAr@
	call	__invalid_parameter
	add	esp, 20					; 00000014H
	xor	ecx, ecx
	jne	SHORT $LN13@operator
$LN8@operator:
	xor	edx, edx
	jne	SHORT $LN10@operator

; 188  :  #endif /* _ITERATOR_DEBUG_LEVEL != 0 */
; 189  : 
; 190  : 		return (this->_Ptr->_Myval);

	mov	eax, DWORD PTR _this$[ebp]
	mov	eax, DWORD PTR [eax+8]
	add	eax, 8

; 191  : 		}

	add	esp, 8
	cmp	ebp, esp
	call	__RTC_CheckEsp
	mov	esp, ebp
	pop	ebp
	ret	0
??D?$_List_const_iterator@V?$_List_val@U?$_List_simple_types@PAV?$Goal@VRaven_Bot@@@@@std@@@std@@@std@@QBEABQAV?$Goal@VRaven_Bot@@@@XZ ENDP ; std::_List_const_iterator<std::_List_val<std::_List_simple_types<Goal<Raven_Bot> *> > >::operator*
_TEXT	ENDS
; Function compile flags: /Odtp /RTCsu
; File c:\program files (x86)\microsoft visual studio\2017\community\vc\tools\msvc\14.15.26726\include\list
;	COMDAT ??0?$_List_const_iterator@V?$_List_val@U?$_List_simple_types@PAV?$Goal@VRaven_Bot@@@@@std@@@std@@@std@@QAE@PAU?$_List_node@PAV?$Goal@VRaven_Bot@@@@PAX@1@PBV?$_List_val@U?$_List_simple_types@PAV?$Goal@VRaven_Bot@@@@@std@@@1@@Z
_TEXT	SEGMENT
_this$ = -4						; size = 4
__Pnode$ = 8						; size = 4
__Plist$ = 12						; size = 4
??0?$_List_const_iterator@V?$_List_val@U?$_List_simple_types@PAV?$Goal@VRaven_Bot@@@@@std@@@std@@@std@@QAE@PAU?$_List_node@PAV?$Goal@VRaven_Bot@@@@PAX@1@PBV?$_List_val@U?$_List_simple_types@PAV?$Goal@VRaven_Bot@@@@@std@@@1@@Z PROC ; std::_List_const_iterator<std::_List_val<std::_List_simple_types<Goal<Raven_Bot> *> > >::_List_const_iterator<std::_List_val<std::_List_simple_types<Goal<Raven_Bot> *> > >, COMDAT
; _this$ = ecx

; 179  : 		{	// construct with node pointer _Pnode

	push	ebp
	mov	ebp, esp
	push	ecx
	mov	DWORD PTR [ebp-4], -858993460		; ccccccccH
	mov	DWORD PTR _this$[ebp], ecx

; 178  : 		: _Mybase(_Pnode, _Plist)

	mov	eax, DWORD PTR __Plist$[ebp]
	push	eax
	mov	ecx, DWORD PTR __Pnode$[ebp]
	push	ecx
	mov	ecx, DWORD PTR _this$[ebp]
	call	??0?$_List_unchecked_const_iterator@V?$_List_val@U?$_List_simple_types@PAV?$Goal@VRaven_Bot@@@@@std@@@std@@U_Iterator_base12@2@@std@@QAE@PAU?$_List_node@PAV?$Goal@VRaven_Bot@@@@PAX@1@PBV?$_List_val@U?$_List_simple_types@PAV?$Goal@VRaven_Bot@@@@@std@@@1@@Z ; std::_List_unchecked_const_iterator<std::_List_val<std::_List_simple_types<Goal<Raven_Bot> *> >,std::_Iterator_base12>::_List_unchecked_const_iterator<std::_List_val<std::_List_simple_types<Goal<Raven_Bot> *> >,std::_Iterator_base12>

; 180  : 		}

	mov	eax, DWORD PTR _this$[ebp]
	add	esp, 4
	cmp	ebp, esp
	call	__RTC_CheckEsp
	mov	esp, ebp
	pop	ebp
	ret	8
??0?$_List_const_iterator@V?$_List_val@U?$_List_simple_types@PAV?$Goal@VRaven_Bot@@@@@std@@@std@@@std@@QAE@PAU?$_List_node@PAV?$Goal@VRaven_Bot@@@@PAX@1@PBV?$_List_val@U?$_List_simple_types@PAV?$Goal@VRaven_Bot@@@@@std@@@1@@Z ENDP ; std::_List_const_iterator<std::_List_val<std::_List_simple_types<Goal<Raven_Bot> *> > >::_List_const_iterator<std::_List_val<std::_List_simple_types<Goal<Raven_Bot> *> > >
_TEXT	ENDS
; Function compile flags: /Odtp /RTCsu
; File c:\program files (x86)\microsoft visual studio\2017\community\vc\tools\msvc\14.15.26726\include\list
;	COMDAT ??0?$_List_const_iterator@V?$_List_val@U?$_List_simple_types@PAV?$Goal@VRaven_Bot@@@@@std@@@std@@@std@@QAE@XZ
_TEXT	SEGMENT
_this$ = -4						; size = 4
??0?$_List_const_iterator@V?$_List_val@U?$_List_simple_types@PAV?$Goal@VRaven_Bot@@@@@std@@@std@@@std@@QAE@XZ PROC ; std::_List_const_iterator<std::_List_val<std::_List_simple_types<Goal<Raven_Bot> *> > >::_List_const_iterator<std::_List_val<std::_List_simple_types<Goal<Raven_Bot> *> > >, COMDAT
; _this$ = ecx

; 174  : 		{	// construct with null node pointer

	push	ebp
	mov	ebp, esp
	push	ecx
	mov	DWORD PTR [ebp-4], -858993460		; ccccccccH
	mov	DWORD PTR _this$[ebp], ecx

; 173  : 		: _Mybase()

	mov	ecx, DWORD PTR _this$[ebp]
	call	??0?$_List_unchecked_const_iterator@V?$_List_val@U?$_List_simple_types@PAV?$Goal@VRaven_Bot@@@@@std@@@std@@U_Iterator_base12@2@@std@@QAE@XZ ; std::_List_unchecked_const_iterator<std::_List_val<std::_List_simple_types<Goal<Raven_Bot> *> >,std::_Iterator_base12>::_List_unchecked_const_iterator<std::_List_val<std::_List_simple_types<Goal<Raven_Bot> *> >,std::_Iterator_base12>

; 175  : 		}

	mov	eax, DWORD PTR _this$[ebp]
	add	esp, 4
	cmp	ebp, esp
	call	__RTC_CheckEsp
	mov	esp, ebp
	pop	ebp
	ret	0
??0?$_List_const_iterator@V?$_List_val@U?$_List_simple_types@PAV?$Goal@VRaven_Bot@@@@@std@@@std@@@std@@QAE@XZ ENDP ; std::_List_const_iterator<std::_List_val<std::_List_simple_types<Goal<Raven_Bot> *> > >::_List_const_iterator<std::_List_val<std::_List_simple_types<Goal<Raven_Bot> *> > >
_TEXT	ENDS
; Function compile flags: /Odtp /RTCsu
;	COMDAT ??4?$_List_unchecked_const_iterator@V?$_List_val@U?$_List_simple_types@PAV?$Goal@VRaven_Bot@@@@@std@@@std@@U_Iterator_base12@2@@std@@QAEAAV01@$$QAV01@@Z
_TEXT	SEGMENT
_this$ = -4						; size = 4
___that$ = 8						; size = 4
??4?$_List_unchecked_const_iterator@V?$_List_val@U?$_List_simple_types@PAV?$Goal@VRaven_Bot@@@@@std@@@std@@U_Iterator_base12@2@@std@@QAEAAV01@$$QAV01@@Z PROC ; std::_List_unchecked_const_iterator<std::_List_val<std::_List_simple_types<Goal<Raven_Bot> *> >,std::_Iterator_base12>::operator=, COMDAT
; _this$ = ecx
	push	ebp
	mov	ebp, esp
	push	ecx
	mov	DWORD PTR [ebp-4], -858993460		; ccccccccH
	mov	DWORD PTR _this$[ebp], ecx
	mov	eax, DWORD PTR ___that$[ebp]
	push	eax
	mov	ecx, DWORD PTR _this$[ebp]
	call	??4_Iterator_base12@std@@QAEAAU01@ABU01@@Z ; std::_Iterator_base12::operator=
	mov	ecx, DWORD PTR _this$[ebp]
	mov	edx, DWORD PTR ___that$[ebp]
	mov	eax, DWORD PTR [edx+8]
	mov	DWORD PTR [ecx+8], eax
	mov	eax, DWORD PTR _this$[ebp]
	add	esp, 4
	cmp	ebp, esp
	call	__RTC_CheckEsp
	mov	esp, ebp
	pop	ebp
	ret	4
??4?$_List_unchecked_const_iterator@V?$_List_val@U?$_List_simple_types@PAV?$Goal@VRaven_Bot@@@@@std@@@std@@U_Iterator_base12@2@@std@@QAEAAV01@$$QAV01@@Z ENDP ; std::_List_unchecked_const_iterator<std::_List_val<std::_List_simple_types<Goal<Raven_Bot> *> >,std::_Iterator_base12>::operator=
_TEXT	ENDS
; Function compile flags: /Odtp /RTCsu
;	COMDAT ??0?$_List_unchecked_const_iterator@V?$_List_val@U?$_List_simple_types@PAV?$Goal@VRaven_Bot@@@@@std@@@std@@U_Iterator_base12@2@@std@@QAE@$$QAV01@@Z
_TEXT	SEGMENT
_this$ = -4						; size = 4
___that$ = 8						; size = 4
??0?$_List_unchecked_const_iterator@V?$_List_val@U?$_List_simple_types@PAV?$Goal@VRaven_Bot@@@@@std@@@std@@U_Iterator_base12@2@@std@@QAE@$$QAV01@@Z PROC ; std::_List_unchecked_const_iterator<std::_List_val<std::_List_simple_types<Goal<Raven_Bot> *> >,std::_Iterator_base12>::_List_unchecked_const_iterator<std::_List_val<std::_List_simple_types<Goal<Raven_Bot> *> >,std::_Iterator_base12>, COMDAT
; _this$ = ecx
	push	ebp
	mov	ebp, esp
	push	ecx
	mov	DWORD PTR [ebp-4], -858993460		; ccccccccH
	mov	DWORD PTR _this$[ebp], ecx
	mov	eax, DWORD PTR ___that$[ebp]
	push	eax
	mov	ecx, DWORD PTR _this$[ebp]
	call	??0_Iterator_base12@std@@QAE@ABU01@@Z	; std::_Iterator_base12::_Iterator_base12
	mov	ecx, DWORD PTR _this$[ebp]
	mov	edx, DWORD PTR ___that$[ebp]
	mov	eax, DWORD PTR [edx+8]
	mov	DWORD PTR [ecx+8], eax
	mov	eax, DWORD PTR _this$[ebp]
	add	esp, 4
	cmp	ebp, esp
	call	__RTC_CheckEsp
	mov	esp, ebp
	pop	ebp
	ret	4
??0?$_List_unchecked_const_iterator@V?$_List_val@U?$_List_simple_types@PAV?$Goal@VRaven_Bot@@@@@std@@@std@@U_Iterator_base12@2@@std@@QAE@$$QAV01@@Z ENDP ; std::_List_unchecked_const_iterator<std::_List_val<std::_List_simple_types<Goal<Raven_Bot> *> >,std::_Iterator_base12>::_List_unchecked_const_iterator<std::_List_val<std::_List_simple_types<Goal<Raven_Bot> *> >,std::_Iterator_base12>
_TEXT	ENDS
; Function compile flags: /Odtp /RTCsu
;	COMDAT ??0?$_List_unchecked_const_iterator@V?$_List_val@U?$_List_simple_types@PAV?$Goal@VRaven_Bot@@@@@std@@@std@@U_Iterator_base12@2@@std@@QAE@ABV01@@Z
_TEXT	SEGMENT
_this$ = -4						; size = 4
___that$ = 8						; size = 4
??0?$_List_unchecked_const_iterator@V?$_List_val@U?$_List_simple_types@PAV?$Goal@VRaven_Bot@@@@@std@@@std@@U_Iterator_base12@2@@std@@QAE@ABV01@@Z PROC ; std::_List_unchecked_const_iterator<std::_List_val<std::_List_simple_types<Goal<Raven_Bot> *> >,std::_Iterator_base12>::_List_unchecked_const_iterator<std::_List_val<std::_List_simple_types<Goal<Raven_Bot> *> >,std::_Iterator_base12>, COMDAT
; _this$ = ecx
	push	ebp
	mov	ebp, esp
	push	ecx
	mov	DWORD PTR [ebp-4], -858993460		; ccccccccH
	mov	DWORD PTR _this$[ebp], ecx
	mov	eax, DWORD PTR ___that$[ebp]
	push	eax
	mov	ecx, DWORD PTR _this$[ebp]
	call	??0_Iterator_base12@std@@QAE@ABU01@@Z	; std::_Iterator_base12::_Iterator_base12
	mov	ecx, DWORD PTR _this$[ebp]
	mov	edx, DWORD PTR ___that$[ebp]
	mov	eax, DWORD PTR [edx+8]
	mov	DWORD PTR [ecx+8], eax
	mov	eax, DWORD PTR _this$[ebp]
	add	esp, 4
	cmp	ebp, esp
	call	__RTC_CheckEsp
	mov	esp, ebp
	pop	ebp
	ret	4
??0?$_List_unchecked_const_iterator@V?$_List_val@U?$_List_simple_types@PAV?$Goal@VRaven_Bot@@@@@std@@@std@@U_Iterator_base12@2@@std@@QAE@ABV01@@Z ENDP ; std::_List_unchecked_const_iterator<std::_List_val<std::_List_simple_types<Goal<Raven_Bot> *> >,std::_Iterator_base12>::_List_unchecked_const_iterator<std::_List_val<std::_List_simple_types<Goal<Raven_Bot> *> >,std::_Iterator_base12>
_TEXT	ENDS
; Function compile flags: /Odtp /RTCsu
;	COMDAT ??1?$_List_unchecked_const_iterator@V?$_List_val@U?$_List_simple_types@PAV?$Goal@VRaven_Bot@@@@@std@@@std@@U_Iterator_base12@2@@std@@QAE@XZ
_TEXT	SEGMENT
_this$ = -4						; size = 4
??1?$_List_unchecked_const_iterator@V?$_List_val@U?$_List_simple_types@PAV?$Goal@VRaven_Bot@@@@@std@@@std@@U_Iterator_base12@2@@std@@QAE@XZ PROC ; std::_List_unchecked_const_iterator<std::_List_val<std::_List_simple_types<Goal<Raven_Bot> *> >,std::_Iterator_base12>::~_List_unchecked_const_iterator<std::_List_val<std::_List_simple_types<Goal<Raven_Bot> *> >,std::_Iterator_base12>, COMDAT
; _this$ = ecx
	push	ebp
	mov	ebp, esp
	push	ecx
	mov	DWORD PTR [ebp-4], -858993460		; ccccccccH
	mov	DWORD PTR _this$[ebp], ecx
	mov	ecx, DWORD PTR _this$[ebp]
	call	??1_Iterator_base12@std@@QAE@XZ		; std::_Iterator_base12::~_Iterator_base12
	add	esp, 4
	cmp	ebp, esp
	call	__RTC_CheckEsp
	mov	esp, ebp
	pop	ebp
	ret	0
??1?$_List_unchecked_const_iterator@V?$_List_val@U?$_List_simple_types@PAV?$Goal@VRaven_Bot@@@@@std@@@std@@U_Iterator_base12@2@@std@@QAE@XZ ENDP ; std::_List_unchecked_const_iterator<std::_List_val<std::_List_simple_types<Goal<Raven_Bot> *> >,std::_Iterator_base12>::~_List_unchecked_const_iterator<std::_List_val<std::_List_simple_types<Goal<Raven_Bot> *> >,std::_Iterator_base12>
_TEXT	ENDS
; Function compile flags: /Odtp /RTCsu
; File c:\program files (x86)\microsoft visual studio\2017\community\vc\tools\msvc\14.15.26726\include\list
;	COMDAT ??0?$_List_unchecked_const_iterator@V?$_List_val@U?$_List_simple_types@PAV?$Goal@VRaven_Bot@@@@@std@@@std@@U_Iterator_base12@2@@std@@QAE@PAU?$_List_node@PAV?$Goal@VRaven_Bot@@@@PAX@1@PBV?$_List_val@U?$_List_simple_types@PAV?$Goal@VRaven_Bot@@@@@std@@@1@@Z
_TEXT	SEGMENT
_this$ = -4						; size = 4
__Pnode$ = 8						; size = 4
__Plist$ = 12						; size = 4
??0?$_List_unchecked_const_iterator@V?$_List_val@U?$_List_simple_types@PAV?$Goal@VRaven_Bot@@@@@std@@@std@@U_Iterator_base12@2@@std@@QAE@PAU?$_List_node@PAV?$Goal@VRaven_Bot@@@@PAX@1@PBV?$_List_val@U?$_List_simple_types@PAV?$Goal@VRaven_Bot@@@@@std@@@1@@Z PROC ; std::_List_unchecked_const_iterator<std::_List_val<std::_List_simple_types<Goal<Raven_Bot> *> >,std::_Iterator_base12>::_List_unchecked_const_iterator<std::_List_val<std::_List_simple_types<Goal<Raven_Bot> *> >,std::_Iterator_base12>, COMDAT
; _this$ = ecx

; 43   : 		{	// construct with node pointer _Pnode

	push	ebp
	mov	ebp, esp
	push	ecx
	mov	DWORD PTR [ebp-4], -858993460		; ccccccccH
	mov	DWORD PTR _this$[ebp], ecx
	mov	ecx, DWORD PTR _this$[ebp]
	call	??0_Iterator_base12@std@@QAE@XZ		; std::_Iterator_base12::_Iterator_base12

; 42   : 		: _Ptr(_Pnode)

	mov	eax, DWORD PTR _this$[ebp]
	mov	ecx, DWORD PTR __Pnode$[ebp]
	mov	DWORD PTR [eax+8], ecx

; 44   : 		this->_Adopt(_Plist);

	mov	edx, DWORD PTR __Plist$[ebp]
	push	edx
	mov	ecx, DWORD PTR _this$[ebp]
	call	?_Adopt@_Iterator_base12@std@@QAEXPBU_Container_base12@2@@Z ; std::_Iterator_base12::_Adopt

; 45   : 		}

	mov	eax, DWORD PTR _this$[ebp]
	add	esp, 4
	cmp	ebp, esp
	call	__RTC_CheckEsp
	mov	esp, ebp
	pop	ebp
	ret	8
??0?$_List_unchecked_const_iterator@V?$_List_val@U?$_List_simple_types@PAV?$Goal@VRaven_Bot@@@@@std@@@std@@U_Iterator_base12@2@@std@@QAE@PAU?$_List_node@PAV?$Goal@VRaven_Bot@@@@PAX@1@PBV?$_List_val@U?$_List_simple_types@PAV?$Goal@VRaven_Bot@@@@@std@@@1@@Z ENDP ; std::_List_unchecked_const_iterator<std::_List_val<std::_List_simple_types<Goal<Raven_Bot> *> >,std::_Iterator_base12>::_List_unchecked_const_iterator<std::_List_val<std::_List_simple_types<Goal<Raven_Bot> *> >,std::_Iterator_base12>
_TEXT	ENDS
; Function compile flags: /Odtp /RTCsu
; File c:\program files (x86)\microsoft visual studio\2017\community\vc\tools\msvc\14.15.26726\include\list
;	COMDAT ??0?$_List_unchecked_const_iterator@V?$_List_val@U?$_List_simple_types@PAV?$Goal@VRaven_Bot@@@@@std@@@std@@U_Iterator_base12@2@@std@@QAE@XZ
_TEXT	SEGMENT
_this$ = -4						; size = 4
??0?$_List_unchecked_const_iterator@V?$_List_val@U?$_List_simple_types@PAV?$Goal@VRaven_Bot@@@@@std@@@std@@U_Iterator_base12@2@@std@@QAE@XZ PROC ; std::_List_unchecked_const_iterator<std::_List_val<std::_List_simple_types<Goal<Raven_Bot> *> >,std::_Iterator_base12>::_List_unchecked_const_iterator<std::_List_val<std::_List_simple_types<Goal<Raven_Bot> *> >,std::_Iterator_base12>, COMDAT
; _this$ = ecx

; 38   : 		{	// construct with null node pointer

	push	ebp
	mov	ebp, esp
	push	ecx
	mov	DWORD PTR [ebp-4], -858993460		; ccccccccH
	mov	DWORD PTR _this$[ebp], ecx
	mov	ecx, DWORD PTR _this$[ebp]
	call	??0_Iterator_base12@std@@QAE@XZ		; std::_Iterator_base12::_Iterator_base12

; 37   : 		: _Ptr()

	mov	eax, DWORD PTR _this$[ebp]
	mov	DWORD PTR [eax+8], 0

; 39   : 		}

	mov	eax, DWORD PTR _this$[ebp]
	add	esp, 4
	cmp	ebp, esp
	call	__RTC_CheckEsp
	mov	esp, ebp
	pop	ebp
	ret	0
??0?$_List_unchecked_const_iterator@V?$_List_val@U?$_List_simple_types@PAV?$Goal@VRaven_Bot@@@@@std@@@std@@U_Iterator_base12@2@@std@@QAE@XZ ENDP ; std::_List_unchecked_const_iterator<std::_List_val<std::_List_simple_types<Goal<Raven_Bot> *> >,std::_Iterator_base12>::_List_unchecked_const_iterator<std::_List_val<std::_List_simple_types<Goal<Raven_Bot> *> >,std::_Iterator_base12>
_TEXT	ENDS
; Function compile flags: /Odtp /RTCsu
;	COMDAT ??1?$_Vector_iterator@V?$_Vector_val@U?$_Simple_types@PAVGoal_Evaluator@@@std@@@std@@@std@@QAE@XZ
_TEXT	SEGMENT
_this$ = -4						; size = 4
??1?$_Vector_iterator@V?$_Vector_val@U?$_Simple_types@PAVGoal_Evaluator@@@std@@@std@@@std@@QAE@XZ PROC ; std::_Vector_iterator<std::_Vector_val<std::_Simple_types<Goal_Evaluator *> > >::~_Vector_iterator<std::_Vector_val<std::_Simple_types<Goal_Evaluator *> > >, COMDAT
; _this$ = ecx
	push	ebp
	mov	ebp, esp
	push	ecx
	mov	DWORD PTR [ebp-4], -858993460		; ccccccccH
	mov	DWORD PTR _this$[ebp], ecx
	mov	ecx, DWORD PTR _this$[ebp]
	call	??1?$_Vector_const_iterator@V?$_Vector_val@U?$_Simple_types@PAVGoal_Evaluator@@@std@@@std@@@std@@QAE@XZ
	add	esp, 4
	cmp	ebp, esp
	call	__RTC_CheckEsp
	mov	esp, ebp
	pop	ebp
	ret	0
??1?$_Vector_iterator@V?$_Vector_val@U?$_Simple_types@PAVGoal_Evaluator@@@std@@@std@@@std@@QAE@XZ ENDP ; std::_Vector_iterator<std::_Vector_val<std::_Simple_types<Goal_Evaluator *> > >::~_Vector_iterator<std::_Vector_val<std::_Simple_types<Goal_Evaluator *> > >
_TEXT	ENDS
; Function compile flags: /Odtp /RTCsu
; File c:\program files (x86)\microsoft visual studio\2017\community\vc\tools\msvc\14.15.26726\include\vector
;	COMDAT ??E?$_Vector_iterator@V?$_Vector_val@U?$_Simple_types@PAVGoal_Evaluator@@@std@@@std@@@std@@QAEAAV01@XZ
_TEXT	SEGMENT
_this$ = -4						; size = 4
??E?$_Vector_iterator@V?$_Vector_val@U?$_Simple_types@PAVGoal_Evaluator@@@std@@@std@@@std@@QAEAAV01@XZ PROC ; std::_Vector_iterator<std::_Vector_val<std::_Simple_types<Goal_Evaluator *> > >::operator++, COMDAT
; _this$ = ecx

; 267  : 		{	// preincrement

	push	ebp
	mov	ebp, esp
	push	ecx
	mov	DWORD PTR [ebp-4], -858993460		; ccccccccH
	mov	DWORD PTR _this$[ebp], ecx

; 268  : 		++*(_Mybase *)this;

	mov	ecx, DWORD PTR _this$[ebp]
	call	??E?$_Vector_const_iterator@V?$_Vector_val@U?$_Simple_types@PAVGoal_Evaluator@@@std@@@std@@@std@@QAEAAV01@XZ ; std::_Vector_const_iterator<std::_Vector_val<std::_Simple_types<Goal_Evaluator *> > >::operator++

; 269  : 		return (*this);

	mov	eax, DWORD PTR _this$[ebp]

; 270  : 		}

	add	esp, 4
	cmp	ebp, esp
	call	__RTC_CheckEsp
	mov	esp, ebp
	pop	ebp
	ret	0
??E?$_Vector_iterator@V?$_Vector_val@U?$_Simple_types@PAVGoal_Evaluator@@@std@@@std@@@std@@QAEAAV01@XZ ENDP ; std::_Vector_iterator<std::_Vector_val<std::_Simple_types<Goal_Evaluator *> > >::operator++
_TEXT	ENDS
; Function compile flags: /Odtp /RTCsu
; File c:\program files (x86)\microsoft visual studio\2017\community\vc\tools\msvc\14.15.26726\include\vector
;	COMDAT ??D?$_Vector_iterator@V?$_Vector_val@U?$_Simple_types@PAVGoal_Evaluator@@@std@@@std@@@std@@QBEAAPAVGoal_Evaluator@@XZ
_TEXT	SEGMENT
_this$ = -4						; size = 4
??D?$_Vector_iterator@V?$_Vector_val@U?$_Simple_types@PAVGoal_Evaluator@@@std@@@std@@@std@@QBEAAPAVGoal_Evaluator@@XZ PROC ; std::_Vector_iterator<std::_Vector_val<std::_Simple_types<Goal_Evaluator *> > >::operator*, COMDAT
; _this$ = ecx

; 257  : 		{	// return designated object

	push	ebp
	mov	ebp, esp
	push	ecx
	mov	DWORD PTR [ebp-4], -858993460		; ccccccccH
	mov	DWORD PTR _this$[ebp], ecx

; 258  : 		return (const_cast<reference>(_Mybase::operator*()));

	mov	ecx, DWORD PTR _this$[ebp]
	call	??D?$_Vector_const_iterator@V?$_Vector_val@U?$_Simple_types@PAVGoal_Evaluator@@@std@@@std@@@std@@QBEABQAVGoal_Evaluator@@XZ ; std::_Vector_const_iterator<std::_Vector_val<std::_Simple_types<Goal_Evaluator *> > >::operator*

; 259  : 		}

	add	esp, 4
	cmp	ebp, esp
	call	__RTC_CheckEsp
	mov	esp, ebp
	pop	ebp
	ret	0
??D?$_Vector_iterator@V?$_Vector_val@U?$_Simple_types@PAVGoal_Evaluator@@@std@@@std@@@std@@QBEAAPAVGoal_Evaluator@@XZ ENDP ; std::_Vector_iterator<std::_Vector_val<std::_Simple_types<Goal_Evaluator *> > >::operator*
_TEXT	ENDS
; Function compile flags: /Odtp /RTCsu
; File c:\program files (x86)\microsoft visual studio\2017\community\vc\tools\msvc\14.15.26726\include\vector
;	COMDAT ??0?$_Vector_iterator@V?$_Vector_val@U?$_Simple_types@PAVGoal_Evaluator@@@std@@@std@@@std@@QAE@PAPAVGoal_Evaluator@@PBU_Container_base12@1@@Z
_TEXT	SEGMENT
_this$ = -4						; size = 4
__Parg$ = 8						; size = 4
__Pvector$ = 12						; size = 4
??0?$_Vector_iterator@V?$_Vector_val@U?$_Simple_types@PAVGoal_Evaluator@@@std@@@std@@@std@@QAE@PAPAVGoal_Evaluator@@PBU_Container_base12@1@@Z PROC ; std::_Vector_iterator<std::_Vector_val<std::_Simple_types<Goal_Evaluator *> > >::_Vector_iterator<std::_Vector_val<std::_Simple_types<Goal_Evaluator *> > >, COMDAT
; _this$ = ecx

; 253  : 		{	// construct with pointer _Parg

	push	ebp
	mov	ebp, esp
	push	ecx
	mov	DWORD PTR [ebp-4], -858993460		; ccccccccH
	mov	DWORD PTR _this$[ebp], ecx

; 252  : 		: _Mybase(_Parg, _Pvector)

	mov	eax, DWORD PTR __Pvector$[ebp]
	push	eax
	mov	ecx, DWORD PTR __Parg$[ebp]
	push	ecx
	mov	ecx, DWORD PTR _this$[ebp]
	call	??0?$_Vector_const_iterator@V?$_Vector_val@U?$_Simple_types@PAVGoal_Evaluator@@@std@@@std@@@std@@QAE@PAPAVGoal_Evaluator@@PBU_Container_base12@1@@Z ; std::_Vector_const_iterator<std::_Vector_val<std::_Simple_types<Goal_Evaluator *> > >::_Vector_const_iterator<std::_Vector_val<std::_Simple_types<Goal_Evaluator *> > >

; 254  : 		}

	mov	eax, DWORD PTR _this$[ebp]
	add	esp, 4
	cmp	ebp, esp
	call	__RTC_CheckEsp
	mov	esp, ebp
	pop	ebp
	ret	8
??0?$_Vector_iterator@V?$_Vector_val@U?$_Simple_types@PAVGoal_Evaluator@@@std@@@std@@@std@@QAE@PAPAVGoal_Evaluator@@PBU_Container_base12@1@@Z ENDP ; std::_Vector_iterator<std::_Vector_val<std::_Simple_types<Goal_Evaluator *> > >::_Vector_iterator<std::_Vector_val<std::_Simple_types<Goal_Evaluator *> > >
_TEXT	ENDS
; Function compile flags: /Odtp /RTCsu
;	COMDAT ??1?$_Vector_const_iterator@V?$_Vector_val@U?$_Simple_types@PAVGoal_Evaluator@@@std@@@std@@@std@@QAE@XZ
_TEXT	SEGMENT
_this$ = -4						; size = 4
??1?$_Vector_const_iterator@V?$_Vector_val@U?$_Simple_types@PAVGoal_Evaluator@@@std@@@std@@@std@@QAE@XZ PROC ; std::_Vector_const_iterator<std::_Vector_val<std::_Simple_types<Goal_Evaluator *> > >::~_Vector_const_iterator<std::_Vector_val<std::_Simple_types<Goal_Evaluator *> > >, COMDAT
; _this$ = ecx
	push	ebp
	mov	ebp, esp
	push	ecx
	mov	DWORD PTR [ebp-4], -858993460		; ccccccccH
	mov	DWORD PTR _this$[ebp], ecx
	mov	ecx, DWORD PTR _this$[ebp]
	call	??1_Iterator_base12@std@@QAE@XZ		; std::_Iterator_base12::~_Iterator_base12
	add	esp, 4
	cmp	ebp, esp
	call	__RTC_CheckEsp
	mov	esp, ebp
	pop	ebp
	ret	0
??1?$_Vector_const_iterator@V?$_Vector_val@U?$_Simple_types@PAVGoal_Evaluator@@@std@@@std@@@std@@QAE@XZ ENDP ; std::_Vector_const_iterator<std::_Vector_val<std::_Simple_types<Goal_Evaluator *> > >::~_Vector_const_iterator<std::_Vector_val<std::_Simple_types<Goal_Evaluator *> > >
_TEXT	ENDS
; Function compile flags: /Odtp /RTCsu
; File c:\program files (x86)\microsoft visual studio\2017\community\vc\tools\msvc\14.15.26726\include\vector
;	COMDAT ?_Compat@?$_Vector_const_iterator@V?$_Vector_val@U?$_Simple_types@PAVGoal_Evaluator@@@std@@@std@@@std@@QBEXABV12@@Z
_TEXT	SEGMENT
_this$ = -4						; size = 4
__Right$ = 8						; size = 4
?_Compat@?$_Vector_const_iterator@V?$_Vector_val@U?$_Simple_types@PAVGoal_Evaluator@@@std@@@std@@@std@@QBEXABV12@@Z PROC ; std::_Vector_const_iterator<std::_Vector_val<std::_Simple_types<Goal_Evaluator *> > >::_Compat, COMDAT
; _this$ = ecx

; 195  : 		{	// test for compatible iterator pair

	push	ebp
	mov	ebp, esp
	push	ecx
	push	esi
	mov	DWORD PTR [ebp-4], -858993460		; ccccccccH
	mov	DWORD PTR _this$[ebp], ecx
$LN4@Compat:

; 196  :  #if _ITERATOR_DEBUG_LEVEL == 0
; 197  : 		(void)_Right;
; 198  :  #else /* ^^^ _ITERATOR_DEBUG_LEVEL == 0 ^^^ // vvv _ITERATOR_DEBUG_LEVEL != 0 vvv */
; 199  : 		_STL_VERIFY(this->_Getcont() == _Right._Getcont(), "vector iterators incompatible");

	mov	ecx, DWORD PTR _this$[ebp]
	call	?_Getcont@_Iterator_base12@std@@QBEPBU_Container_base12@2@XZ ; std::_Iterator_base12::_Getcont
	mov	esi, eax
	mov	ecx, DWORD PTR __Right$[ebp]
	call	?_Getcont@_Iterator_base12@std@@QBEPBU_Container_base12@2@XZ ; std::_Iterator_base12::_Getcont
	cmp	esi, eax
	jne	SHORT $LN7@Compat
	jmp	SHORT $LN2@Compat
$LN7@Compat:
	push	OFFSET ??_C@_0BO@CAOBBIOC@vector?5iterators?5incompatible@
	push	OFFSET ??_C@_02DKCKIIND@?$CFs@
	push	0
	push	199					; 000000c7H
	push	OFFSET ??_C@_0GH@PHBFPDPI@c?3?2program?5files?5?$CIx86?$CJ?2microsof@
	push	2
	call	__CrtDbgReport
	add	esp, 24					; 00000018H
	cmp	eax, 1
	jne	SHORT $LN11@Compat
	int	3
$LN11@Compat:
	push	0
	push	199					; 000000c7H
	push	OFFSET ??_C@_1MO@GGNBFPEH@?$AAc?$AA?3?$AA?2?$AAp?$AAr?$AAo?$AAg?$AAr?$AAa?$AAm?$AA?5?$AAf?$AAi?$AAl?$AAe@
	push	OFFSET ??_C@_1OE@CHECBPNH@?$AAs?$AAt?$AAd?$AA?3?$AA?3?$AA_?$AAV?$AAe?$AAc?$AAt?$AAo?$AAr?$AA_?$AAc?$AAo@
	push	OFFSET ??_C@_1EA@DJDGNIII@?$AA?$CC?$AAv?$AAe?$AAc?$AAt?$AAo?$AAr?$AA?5?$AAi?$AAt?$AAe?$AAr?$AAa?$AAt?$AAo@
	call	__invalid_parameter
	add	esp, 20					; 00000014H
	xor	ecx, ecx
	jne	SHORT $LN7@Compat
$LN2@Compat:
	xor	edx, edx
	jne	SHORT $LN4@Compat

; 200  :  #endif /* _ITERATOR_DEBUG_LEVEL == 0 */
; 201  : 		}

	pop	esi
	add	esp, 4
	cmp	ebp, esp
	call	__RTC_CheckEsp
	mov	esp, ebp
	pop	ebp
	ret	4
?_Compat@?$_Vector_const_iterator@V?$_Vector_val@U?$_Simple_types@PAVGoal_Evaluator@@@std@@@std@@@std@@QBEXABV12@@Z ENDP ; std::_Vector_const_iterator<std::_Vector_val<std::_Simple_types<Goal_Evaluator *> > >::_Compat
_TEXT	ENDS
; Function compile flags: /Odtp /RTCsu
; File c:\program files (x86)\microsoft visual studio\2017\community\vc\tools\msvc\14.15.26726\include\vector
;	COMDAT ??9?$_Vector_const_iterator@V?$_Vector_val@U?$_Simple_types@PAVGoal_Evaluator@@@std@@@std@@@std@@QBE_NABV01@@Z
_TEXT	SEGMENT
tv69 = -8						; size = 4
_this$ = -4						; size = 4
__Right$ = 8						; size = 4
??9?$_Vector_const_iterator@V?$_Vector_val@U?$_Simple_types@PAVGoal_Evaluator@@@std@@@std@@@std@@QBE_NABV01@@Z PROC ; std::_Vector_const_iterator<std::_Vector_val<std::_Simple_types<Goal_Evaluator *> > >::operator!=, COMDAT
; _this$ = ecx

; 169  : 		{	// test for iterator inequality

	push	ebp
	mov	ebp, esp
	sub	esp, 8
	mov	DWORD PTR [ebp-8], -858993460		; ccccccccH
	mov	DWORD PTR [ebp-4], -858993460		; ccccccccH
	mov	DWORD PTR _this$[ebp], ecx

; 170  : 		return (!(*this == _Right));

	mov	eax, DWORD PTR __Right$[ebp]
	push	eax
	mov	ecx, DWORD PTR _this$[ebp]
	call	??8?$_Vector_const_iterator@V?$_Vector_val@U?$_Simple_types@PAVGoal_Evaluator@@@std@@@std@@@std@@QBE_NABV01@@Z ; std::_Vector_const_iterator<std::_Vector_val<std::_Simple_types<Goal_Evaluator *> > >::operator==
	movzx	ecx, al
	test	ecx, ecx
	jne	SHORT $LN3@operator
	mov	DWORD PTR tv69[ebp], 1
	jmp	SHORT $LN4@operator
$LN3@operator:
	mov	DWORD PTR tv69[ebp], 0
$LN4@operator:
	mov	al, BYTE PTR tv69[ebp]

; 171  : 		}

	add	esp, 8
	cmp	ebp, esp
	call	__RTC_CheckEsp
	mov	esp, ebp
	pop	ebp
	ret	4
??9?$_Vector_const_iterator@V?$_Vector_val@U?$_Simple_types@PAVGoal_Evaluator@@@std@@@std@@@std@@QBE_NABV01@@Z ENDP ; std::_Vector_const_iterator<std::_Vector_val<std::_Simple_types<Goal_Evaluator *> > >::operator!=
_TEXT	ENDS
; Function compile flags: /Odtp /RTCsu
; File c:\program files (x86)\microsoft visual studio\2017\community\vc\tools\msvc\14.15.26726\include\vector
;	COMDAT ??8?$_Vector_const_iterator@V?$_Vector_val@U?$_Simple_types@PAVGoal_Evaluator@@@std@@@std@@@std@@QBE_NABV01@@Z
_TEXT	SEGMENT
tv69 = -8						; size = 4
_this$ = -4						; size = 4
__Right$ = 8						; size = 4
??8?$_Vector_const_iterator@V?$_Vector_val@U?$_Simple_types@PAVGoal_Evaluator@@@std@@@std@@@std@@QBE_NABV01@@Z PROC ; std::_Vector_const_iterator<std::_Vector_val<std::_Simple_types<Goal_Evaluator *> > >::operator==, COMDAT
; _this$ = ecx

; 163  : 		{	// test for iterator equality

	push	ebp
	mov	ebp, esp
	sub	esp, 8
	mov	DWORD PTR [ebp-8], -858993460		; ccccccccH
	mov	DWORD PTR [ebp-4], -858993460		; ccccccccH
	mov	DWORD PTR _this$[ebp], ecx

; 164  : 		_Compat(_Right);

	mov	eax, DWORD PTR __Right$[ebp]
	push	eax
	mov	ecx, DWORD PTR _this$[ebp]
	call	?_Compat@?$_Vector_const_iterator@V?$_Vector_val@U?$_Simple_types@PAVGoal_Evaluator@@@std@@@std@@@std@@QBEXABV12@@Z ; std::_Vector_const_iterator<std::_Vector_val<std::_Simple_types<Goal_Evaluator *> > >::_Compat

; 165  : 		return (_Ptr == _Right._Ptr);

	mov	ecx, DWORD PTR _this$[ebp]
	mov	edx, DWORD PTR __Right$[ebp]
	mov	eax, DWORD PTR [ecx+8]
	cmp	eax, DWORD PTR [edx+8]
	jne	SHORT $LN3@operator
	mov	DWORD PTR tv69[ebp], 1
	jmp	SHORT $LN4@operator
$LN3@operator:
	mov	DWORD PTR tv69[ebp], 0
$LN4@operator:
	mov	al, BYTE PTR tv69[ebp]

; 166  : 		}

	add	esp, 8
	cmp	ebp, esp
	call	__RTC_CheckEsp
	mov	esp, ebp
	pop	ebp
	ret	4
??8?$_Vector_const_iterator@V?$_Vector_val@U?$_Simple_types@PAVGoal_Evaluator@@@std@@@std@@@std@@QBE_NABV01@@Z ENDP ; std::_Vector_const_iterator<std::_Vector_val<std::_Simple_types<Goal_Evaluator *> > >::operator==
_TEXT	ENDS
; Function compile flags: /Odtp /RTCsu
; File c:\program files (x86)\microsoft visual studio\2017\community\vc\tools\msvc\14.15.26726\include\vector
;	COMDAT ??E?$_Vector_const_iterator@V?$_Vector_val@U?$_Simple_types@PAVGoal_Evaluator@@@std@@@std@@@std@@QAEAAV01@XZ
_TEXT	SEGMENT
__Mycont$ = -8						; size = 4
_this$ = -4						; size = 4
??E?$_Vector_const_iterator@V?$_Vector_val@U?$_Simple_types@PAVGoal_Evaluator@@@std@@@std@@@std@@QAEAAV01@XZ PROC ; std::_Vector_const_iterator<std::_Vector_val<std::_Simple_types<Goal_Evaluator *> > >::operator++, COMDAT
; _this$ = ecx

; 71   : 		{	// preincrement

	push	ebp
	mov	ebp, esp
	sub	esp, 8
	mov	DWORD PTR [ebp-8], -858993460		; ccccccccH
	mov	DWORD PTR [ebp-4], -858993460		; ccccccccH
	mov	DWORD PTR _this$[ebp], ecx

; 72   :  #if _ITERATOR_DEBUG_LEVEL != 0
; 73   : 		const auto _Mycont = static_cast<const _Myvec *>(this->_Getcont());

	mov	ecx, DWORD PTR _this$[ebp]
	call	?_Getcont@_Iterator_base12@std@@QBEPBU_Container_base12@2@XZ ; std::_Iterator_base12::_Getcont
	mov	DWORD PTR __Mycont$[ebp], eax
$LN4@operator:

; 74   : 		_STL_VERIFY(_Ptr, "can't increment value-initialized vector iterator");

	mov	eax, DWORD PTR _this$[ebp]
	cmp	DWORD PTR [eax+8], 0
	je	SHORT $LN7@operator
	jmp	SHORT $LN2@operator
$LN7@operator:
	push	OFFSET ??_C@_0DC@KEKNBAEB@can?8t?5increment?5value?9initializ@
	push	OFFSET ??_C@_02DKCKIIND@?$CFs@
	push	0
	push	74					; 0000004aH
	push	OFFSET ??_C@_0GH@PHBFPDPI@c?3?2program?5files?5?$CIx86?$CJ?2microsof@
	push	2
	call	__CrtDbgReport
	add	esp, 24					; 00000018H
	cmp	eax, 1
	jne	SHORT $LN19@operator
	int	3
$LN19@operator:
	push	0
	push	74					; 0000004aH
	push	OFFSET ??_C@_1MO@GGNBFPEH@?$AAc?$AA?3?$AA?2?$AAp?$AAr?$AAo?$AAg?$AAr?$AAa?$AAm?$AA?5?$AAf?$AAi?$AAl?$AAe@
	push	OFFSET ??_C@_1OM@HMBNDJFP@?$AAs?$AAt?$AAd?$AA?3?$AA?3?$AA_?$AAV?$AAe?$AAc?$AAt?$AAo?$AAr?$AA_?$AAc?$AAo@
	push	OFFSET ??_C@_1GI@EDCILPL@?$AA?$CC?$AAc?$AAa?$AAn?$AA?8?$AAt?$AA?5?$AAi?$AAn?$AAc?$AAr?$AAe?$AAm?$AAe?$AAn@
	call	__invalid_parameter
	add	esp, 20					; 00000014H
	xor	edx, edx
	jne	SHORT $LN7@operator
$LN2@operator:
	xor	eax, eax
	jne	SHORT $LN4@operator
$LN10@operator:

; 75   : 		_STL_VERIFY(_Ptr < _Mycont->_Mylast, "can't increment vector iterator past end");

	mov	ecx, DWORD PTR _this$[ebp]
	mov	edx, DWORD PTR __Mycont$[ebp]
	mov	eax, DWORD PTR [ecx+8]
	cmp	eax, DWORD PTR [edx+8]
	jae	SHORT $LN13@operator
	jmp	SHORT $LN8@operator
$LN13@operator:
	push	OFFSET ??_C@_0CJ@OAAAAGPM@can?8t?5increment?5vector?5iterator@
	push	OFFSET ??_C@_02DKCKIIND@?$CFs@
	push	0
	push	75					; 0000004bH
	push	OFFSET ??_C@_0GH@PHBFPDPI@c?3?2program?5files?5?$CIx86?$CJ?2microsof@
	push	2
	call	__CrtDbgReport
	add	esp, 24					; 00000018H
	cmp	eax, 1
	jne	SHORT $LN20@operator
	int	3
$LN20@operator:
	push	0
	push	75					; 0000004bH
	push	OFFSET ??_C@_1MO@GGNBFPEH@?$AAc?$AA?3?$AA?2?$AAp?$AAr?$AAo?$AAg?$AAr?$AAa?$AAm?$AA?5?$AAf?$AAi?$AAl?$AAe@
	push	OFFSET ??_C@_1OM@HMBNDJFP@?$AAs?$AAt?$AAd?$AA?3?$AA?3?$AA_?$AAV?$AAe?$AAc?$AAt?$AAo?$AAr?$AA_?$AAc?$AAo@
	push	OFFSET ??_C@_1FG@LDPPKMGP@?$AA?$CC?$AAc?$AAa?$AAn?$AA?8?$AAt?$AA?5?$AAi?$AAn?$AAc?$AAr?$AAe?$AAm?$AAe?$AAn@
	call	__invalid_parameter
	add	esp, 20					; 00000014H
	xor	edx, edx
	jne	SHORT $LN13@operator
$LN8@operator:
	xor	eax, eax
	jne	SHORT $LN10@operator

; 76   :  #endif /* _ITERATOR_DEBUG_LEVEL != 0 */
; 77   : 
; 78   : 		++_Ptr;

	mov	ecx, DWORD PTR _this$[ebp]
	mov	edx, DWORD PTR [ecx+8]
	add	edx, 4
	mov	eax, DWORD PTR _this$[ebp]
	mov	DWORD PTR [eax+8], edx

; 79   : 		return (*this);

	mov	eax, DWORD PTR _this$[ebp]

; 80   : 		}

	add	esp, 8
	cmp	ebp, esp
	call	__RTC_CheckEsp
	mov	esp, ebp
	pop	ebp
	ret	0
??E?$_Vector_const_iterator@V?$_Vector_val@U?$_Simple_types@PAVGoal_Evaluator@@@std@@@std@@@std@@QAEAAV01@XZ ENDP ; std::_Vector_const_iterator<std::_Vector_val<std::_Simple_types<Goal_Evaluator *> > >::operator++
_TEXT	ENDS
; Function compile flags: /Odtp /RTCsu
; File c:\program files (x86)\microsoft visual studio\2017\community\vc\tools\msvc\14.15.26726\include\vector
;	COMDAT ??D?$_Vector_const_iterator@V?$_Vector_val@U?$_Simple_types@PAVGoal_Evaluator@@@std@@@std@@@std@@QBEABQAVGoal_Evaluator@@XZ
_TEXT	SEGMENT
__Mycont$ = -8						; size = 4
_this$ = -4						; size = 4
??D?$_Vector_const_iterator@V?$_Vector_val@U?$_Simple_types@PAVGoal_Evaluator@@@std@@@std@@@std@@QBEABQAVGoal_Evaluator@@XZ PROC ; std::_Vector_const_iterator<std::_Vector_val<std::_Simple_types<Goal_Evaluator *> > >::operator*, COMDAT
; _this$ = ecx

; 47   : 		{	// return designated object

	push	ebp
	mov	ebp, esp
	sub	esp, 8
	mov	DWORD PTR [ebp-8], -858993460		; ccccccccH
	mov	DWORD PTR [ebp-4], -858993460		; ccccccccH
	mov	DWORD PTR _this$[ebp], ecx

; 48   :  #if _ITERATOR_DEBUG_LEVEL != 0
; 49   : 		const auto _Mycont = static_cast<const _Myvec *>(this->_Getcont());

	mov	ecx, DWORD PTR _this$[ebp]
	call	?_Getcont@_Iterator_base12@std@@QBEPBU_Container_base12@2@XZ ; std::_Iterator_base12::_Getcont
	mov	DWORD PTR __Mycont$[ebp], eax
$LN4@operator:

; 50   : 		_STL_VERIFY(_Ptr, "can't dereference value-initialized vector iterator");

	mov	eax, DWORD PTR _this$[ebp]
	cmp	DWORD PTR [eax+8], 0
	je	SHORT $LN7@operator
	jmp	SHORT $LN2@operator
$LN7@operator:
	push	OFFSET ??_C@_0DE@CHADHGFF@can?8t?5dereference?5value?9initial@
	push	OFFSET ??_C@_02DKCKIIND@?$CFs@
	push	0
	push	50					; 00000032H
	push	OFFSET ??_C@_0GH@PHBFPDPI@c?3?2program?5files?5?$CIx86?$CJ?2microsof@
	push	2
	call	__CrtDbgReport
	add	esp, 24					; 00000018H
	cmp	eax, 1
	jne	SHORT $LN19@operator
	int	3
$LN19@operator:
	push	0
	push	50					; 00000032H
	push	OFFSET ??_C@_1MO@GGNBFPEH@?$AAc?$AA?3?$AA?2?$AAp?$AAr?$AAo?$AAg?$AAr?$AAa?$AAm?$AA?5?$AAf?$AAi?$AAl?$AAe@
	push	OFFSET ??_C@_1OK@HJDJPPDC@?$AAs?$AAt?$AAd?$AA?3?$AA?3?$AA_?$AAV?$AAe?$AAc?$AAt?$AAo?$AAr?$AA_?$AAc?$AAo@
	push	OFFSET ??_C@_1GM@FNBFNBEL@?$AA?$CC?$AAc?$AAa?$AAn?$AA?8?$AAt?$AA?5?$AAd?$AAe?$AAr?$AAe?$AAf?$AAe?$AAr?$AAe@
	call	__invalid_parameter
	add	esp, 20					; 00000014H
	xor	edx, edx
	jne	SHORT $LN7@operator
$LN2@operator:
	xor	eax, eax
	jne	SHORT $LN4@operator
$LN10@operator:

; 51   : 		_STL_VERIFY(_Mycont->_Myfirst <= _Ptr && _Ptr < _Mycont->_Mylast,

	mov	ecx, DWORD PTR __Mycont$[ebp]
	mov	edx, DWORD PTR _this$[ebp]
	mov	eax, DWORD PTR [ecx+4]
	cmp	eax, DWORD PTR [edx+8]
	ja	SHORT $LN13@operator
	mov	ecx, DWORD PTR _this$[ebp]
	mov	edx, DWORD PTR __Mycont$[ebp]
	mov	eax, DWORD PTR [ecx+8]
	cmp	eax, DWORD PTR [edx+8]
	jae	SHORT $LN13@operator
	jmp	SHORT $LN8@operator
$LN13@operator:
	push	OFFSET ??_C@_0CP@MDHADBHN@can?8t?5dereference?5out?5of?5range?5@
	push	OFFSET ??_C@_02DKCKIIND@?$CFs@
	push	0
	push	52					; 00000034H
	push	OFFSET ??_C@_0GH@PHBFPDPI@c?3?2program?5files?5?$CIx86?$CJ?2microsof@
	push	2
	call	__CrtDbgReport
	add	esp, 24					; 00000018H
	cmp	eax, 1
	jne	SHORT $LN20@operator
	int	3
$LN20@operator:
	push	0
	push	52					; 00000034H
	push	OFFSET ??_C@_1MO@GGNBFPEH@?$AAc?$AA?3?$AA?2?$AAp?$AAr?$AAo?$AAg?$AAr?$AAa?$AAm?$AA?5?$AAf?$AAi?$AAl?$AAe@
	push	OFFSET ??_C@_1OK@HJDJPPDC@?$AAs?$AAt?$AAd?$AA?3?$AA?3?$AA_?$AAV?$AAe?$AAc?$AAt?$AAo?$AAr?$AA_?$AAc?$AAo@
	push	OFFSET ??_C@_1GC@JDCKOLAC@?$AA?$CC?$AAc?$AAa?$AAn?$AA?8?$AAt?$AA?5?$AAd?$AAe?$AAr?$AAe?$AAf?$AAe?$AAr?$AAe@
	call	__invalid_parameter
	add	esp, 20					; 00000014H

; 52   : 			"can't dereference out of range vector iterator");

	xor	edx, edx
	jne	SHORT $LN13@operator
$LN8@operator:
	xor	eax, eax
	jne	SHORT $LN10@operator

; 53   :  #endif /* _ITERATOR_DEBUG_LEVEL != 0 */
; 54   : 
; 55   : 		return (*_Ptr);

	mov	ecx, DWORD PTR _this$[ebp]
	mov	eax, DWORD PTR [ecx+8]

; 56   : 		}

	add	esp, 8
	cmp	ebp, esp
	call	__RTC_CheckEsp
	mov	esp, ebp
	pop	ebp
	ret	0
??D?$_Vector_const_iterator@V?$_Vector_val@U?$_Simple_types@PAVGoal_Evaluator@@@std@@@std@@@std@@QBEABQAVGoal_Evaluator@@XZ ENDP ; std::_Vector_const_iterator<std::_Vector_val<std::_Simple_types<Goal_Evaluator *> > >::operator*
_TEXT	ENDS
; Function compile flags: /Odtp /RTCsu
; File c:\program files (x86)\microsoft visual studio\2017\community\vc\tools\msvc\14.15.26726\include\vector
;	COMDAT ??0?$_Vector_const_iterator@V?$_Vector_val@U?$_Simple_types@PAVGoal_Evaluator@@@std@@@std@@@std@@QAE@PAPAVGoal_Evaluator@@PBU_Container_base12@1@@Z
_TEXT	SEGMENT
_this$ = -4						; size = 4
__Parg$ = 8						; size = 4
__Pvector$ = 12						; size = 4
??0?$_Vector_const_iterator@V?$_Vector_val@U?$_Simple_types@PAVGoal_Evaluator@@@std@@@std@@@std@@QAE@PAPAVGoal_Evaluator@@PBU_Container_base12@1@@Z PROC ; std::_Vector_const_iterator<std::_Vector_val<std::_Simple_types<Goal_Evaluator *> > >::_Vector_const_iterator<std::_Vector_val<std::_Simple_types<Goal_Evaluator *> > >, COMDAT
; _this$ = ecx

; 42   : 		{	// construct with pointer _Parg

	push	ebp
	mov	ebp, esp
	push	ecx
	mov	DWORD PTR [ebp-4], -858993460		; ccccccccH
	mov	DWORD PTR _this$[ebp], ecx
	mov	ecx, DWORD PTR _this$[ebp]
	call	??0_Iterator_base12@std@@QAE@XZ		; std::_Iterator_base12::_Iterator_base12

; 41   : 		: _Ptr(_Parg)

	mov	eax, DWORD PTR _this$[ebp]
	mov	ecx, DWORD PTR __Parg$[ebp]
	mov	DWORD PTR [eax+8], ecx

; 43   : 		this->_Adopt(_Pvector);

	mov	edx, DWORD PTR __Pvector$[ebp]
	push	edx
	mov	ecx, DWORD PTR _this$[ebp]
	call	?_Adopt@_Iterator_base12@std@@QAEXPBU_Container_base12@2@@Z ; std::_Iterator_base12::_Adopt

; 44   : 		}

	mov	eax, DWORD PTR _this$[ebp]
	add	esp, 4
	cmp	ebp, esp
	call	__RTC_CheckEsp
	mov	esp, ebp
	pop	ebp
	ret	8
??0?$_Vector_const_iterator@V?$_Vector_val@U?$_Simple_types@PAVGoal_Evaluator@@@std@@@std@@@std@@QAE@PAPAVGoal_Evaluator@@PBU_Container_base12@1@@Z ENDP ; std::_Vector_const_iterator<std::_Vector_val<std::_Simple_types<Goal_Evaluator *> > >::_Vector_const_iterator<std::_Vector_val<std::_Simple_types<Goal_Evaluator *> > >
_TEXT	ENDS
; Function compile flags: /Odtp /RTCsu
;	COMDAT ??_GAttackTargetGoal_Evaluator@@UAEPAXI@Z
_TEXT	SEGMENT
_this$ = -4						; size = 4
___flags$ = 8						; size = 4
??_GAttackTargetGoal_Evaluator@@UAEPAXI@Z PROC		; AttackTargetGoal_Evaluator::`scalar deleting destructor', COMDAT
; _this$ = ecx
	push	ebp
	mov	ebp, esp
	push	ecx
	mov	DWORD PTR [ebp-4], -858993460		; ccccccccH
	mov	DWORD PTR _this$[ebp], ecx
	mov	ecx, DWORD PTR _this$[ebp]
	call	??1AttackTargetGoal_Evaluator@@UAE@XZ
	mov	eax, DWORD PTR ___flags$[ebp]
	and	eax, 1
	je	SHORT $LN2@scalar
	push	16					; 00000010H
	mov	ecx, DWORD PTR _this$[ebp]
	push	ecx
	call	??3@YAXPAXI@Z				; operator delete
	add	esp, 8
$LN2@scalar:
	mov	eax, DWORD PTR _this$[ebp]
	add	esp, 4
	cmp	ebp, esp
	call	__RTC_CheckEsp
	mov	esp, ebp
	pop	ebp
	ret	4
??_GAttackTargetGoal_Evaluator@@UAEPAXI@Z ENDP		; AttackTargetGoal_Evaluator::`scalar deleting destructor'
_TEXT	ENDS
; Function compile flags: /Odtp /RTCsu
;	COMDAT ??1AttackTargetGoal_Evaluator@@UAE@XZ
_TEXT	SEGMENT
_this$ = -4						; size = 4
??1AttackTargetGoal_Evaluator@@UAE@XZ PROC		; AttackTargetGoal_Evaluator::~AttackTargetGoal_Evaluator, COMDAT
; _this$ = ecx
	push	ebp
	mov	ebp, esp
	push	ecx
	mov	DWORD PTR [ebp-4], -858993460		; ccccccccH
	mov	DWORD PTR _this$[ebp], ecx
	mov	ecx, DWORD PTR _this$[ebp]
	call	??1Goal_Evaluator@@UAE@XZ		; Goal_Evaluator::~Goal_Evaluator
	add	esp, 4
	cmp	ebp, esp
	call	__RTC_CheckEsp
	mov	esp, ebp
	pop	ebp
	ret	0
??1AttackTargetGoal_Evaluator@@UAE@XZ ENDP		; AttackTargetGoal_Evaluator::~AttackTargetGoal_Evaluator
_TEXT	ENDS
; Function compile flags: /Odtp /RTCsu
; File c:\users\utilisateur\documents\github\8iar125-projetraven\vs2015\buckland_chapter7 to 10_raven\goals\attacktargetgoal_evaluator.h
;	COMDAT ??0AttackTargetGoal_Evaluator@@QAE@N@Z
_TEXT	SEGMENT
_this$ = -4						; size = 4
_bias$ = 8						; size = 8
??0AttackTargetGoal_Evaluator@@QAE@N@Z PROC		; AttackTargetGoal_Evaluator::AttackTargetGoal_Evaluator, COMDAT
; _this$ = ecx

; 22   :   AttackTargetGoal_Evaluator(double bias):Goal_Evaluator(bias){}

	push	ebp
	mov	ebp, esp
	push	ecx
	mov	DWORD PTR [ebp-4], -858993460		; ccccccccH
	mov	DWORD PTR _this$[ebp], ecx
	sub	esp, 8
	movsd	xmm0, QWORD PTR _bias$[ebp]
	movsd	QWORD PTR [esp], xmm0
	mov	ecx, DWORD PTR _this$[ebp]
	call	??0Goal_Evaluator@@QAE@N@Z		; Goal_Evaluator::Goal_Evaluator
	mov	eax, DWORD PTR _this$[ebp]
	mov	DWORD PTR [eax], OFFSET ??_7AttackTargetGoal_Evaluator@@6B@
	mov	eax, DWORD PTR _this$[ebp]
	add	esp, 4
	cmp	ebp, esp
	call	__RTC_CheckEsp
	mov	esp, ebp
	pop	ebp
	ret	8
??0AttackTargetGoal_Evaluator@@QAE@N@Z ENDP		; AttackTargetGoal_Evaluator::AttackTargetGoal_Evaluator
_TEXT	ENDS
; Function compile flags: /Odtp /RTCsu
;	COMDAT ??_GExploreGoal_Evaluator@@UAEPAXI@Z
_TEXT	SEGMENT
_this$ = -4						; size = 4
___flags$ = 8						; size = 4
??_GExploreGoal_Evaluator@@UAEPAXI@Z PROC		; ExploreGoal_Evaluator::`scalar deleting destructor', COMDAT
; _this$ = ecx
	push	ebp
	mov	ebp, esp
	push	ecx
	mov	DWORD PTR [ebp-4], -858993460		; ccccccccH
	mov	DWORD PTR _this$[ebp], ecx
	mov	ecx, DWORD PTR _this$[ebp]
	call	??1ExploreGoal_Evaluator@@UAE@XZ
	mov	eax, DWORD PTR ___flags$[ebp]
	and	eax, 1
	je	SHORT $LN2@scalar
	push	16					; 00000010H
	mov	ecx, DWORD PTR _this$[ebp]
	push	ecx
	call	??3@YAXPAXI@Z				; operator delete
	add	esp, 8
$LN2@scalar:
	mov	eax, DWORD PTR _this$[ebp]
	add	esp, 4
	cmp	ebp, esp
	call	__RTC_CheckEsp
	mov	esp, ebp
	pop	ebp
	ret	4
??_GExploreGoal_Evaluator@@UAEPAXI@Z ENDP		; ExploreGoal_Evaluator::`scalar deleting destructor'
_TEXT	ENDS
; Function compile flags: /Odtp /RTCsu
;	COMDAT ??1ExploreGoal_Evaluator@@UAE@XZ
_TEXT	SEGMENT
_this$ = -4						; size = 4
??1ExploreGoal_Evaluator@@UAE@XZ PROC			; ExploreGoal_Evaluator::~ExploreGoal_Evaluator, COMDAT
; _this$ = ecx
	push	ebp
	mov	ebp, esp
	push	ecx
	mov	DWORD PTR [ebp-4], -858993460		; ccccccccH
	mov	DWORD PTR _this$[ebp], ecx
	mov	ecx, DWORD PTR _this$[ebp]
	call	??1Goal_Evaluator@@UAE@XZ		; Goal_Evaluator::~Goal_Evaluator
	add	esp, 4
	cmp	ebp, esp
	call	__RTC_CheckEsp
	mov	esp, ebp
	pop	ebp
	ret	0
??1ExploreGoal_Evaluator@@UAE@XZ ENDP			; ExploreGoal_Evaluator::~ExploreGoal_Evaluator
_TEXT	ENDS
; Function compile flags: /Odtp /RTCsu
; File c:\users\utilisateur\documents\github\8iar125-projetraven\vs2015\buckland_chapter7 to 10_raven\goals\exploregoal_evaluator.h
;	COMDAT ??0ExploreGoal_Evaluator@@QAE@N@Z
_TEXT	SEGMENT
_this$ = -4						; size = 4
_bias$ = 8						; size = 8
??0ExploreGoal_Evaluator@@QAE@N@Z PROC			; ExploreGoal_Evaluator::ExploreGoal_Evaluator, COMDAT
; _this$ = ecx

; 21   :   ExploreGoal_Evaluator(double bias):Goal_Evaluator(bias){}

	push	ebp
	mov	ebp, esp
	push	ecx
	mov	DWORD PTR [ebp-4], -858993460		; ccccccccH
	mov	DWORD PTR _this$[ebp], ecx
	sub	esp, 8
	movsd	xmm0, QWORD PTR _bias$[ebp]
	movsd	QWORD PTR [esp], xmm0
	mov	ecx, DWORD PTR _this$[ebp]
	call	??0Goal_Evaluator@@QAE@N@Z		; Goal_Evaluator::Goal_Evaluator
	mov	eax, DWORD PTR _this$[ebp]
	mov	DWORD PTR [eax], OFFSET ??_7ExploreGoal_Evaluator@@6B@
	mov	eax, DWORD PTR _this$[ebp]
	add	esp, 4
	cmp	ebp, esp
	call	__RTC_CheckEsp
	mov	esp, ebp
	pop	ebp
	ret	8
??0ExploreGoal_Evaluator@@QAE@N@Z ENDP			; ExploreGoal_Evaluator::ExploreGoal_Evaluator
_TEXT	ENDS
; Function compile flags: /Odtp /RTCsu
;	COMDAT ??_GGetHealthGoal_Evaluator@@UAEPAXI@Z
_TEXT	SEGMENT
_this$ = -4						; size = 4
___flags$ = 8						; size = 4
??_GGetHealthGoal_Evaluator@@UAEPAXI@Z PROC		; GetHealthGoal_Evaluator::`scalar deleting destructor', COMDAT
; _this$ = ecx
	push	ebp
	mov	ebp, esp
	push	ecx
	mov	DWORD PTR [ebp-4], -858993460		; ccccccccH
	mov	DWORD PTR _this$[ebp], ecx
	mov	ecx, DWORD PTR _this$[ebp]
	call	??1GetHealthGoal_Evaluator@@UAE@XZ
	mov	eax, DWORD PTR ___flags$[ebp]
	and	eax, 1
	je	SHORT $LN2@scalar
	push	16					; 00000010H
	mov	ecx, DWORD PTR _this$[ebp]
	push	ecx
	call	??3@YAXPAXI@Z				; operator delete
	add	esp, 8
$LN2@scalar:
	mov	eax, DWORD PTR _this$[ebp]
	add	esp, 4
	cmp	ebp, esp
	call	__RTC_CheckEsp
	mov	esp, ebp
	pop	ebp
	ret	4
??_GGetHealthGoal_Evaluator@@UAEPAXI@Z ENDP		; GetHealthGoal_Evaluator::`scalar deleting destructor'
_TEXT	ENDS
; Function compile flags: /Odtp /RTCsu
;	COMDAT ??1GetHealthGoal_Evaluator@@UAE@XZ
_TEXT	SEGMENT
_this$ = -4						; size = 4
??1GetHealthGoal_Evaluator@@UAE@XZ PROC			; GetHealthGoal_Evaluator::~GetHealthGoal_Evaluator, COMDAT
; _this$ = ecx
	push	ebp
	mov	ebp, esp
	push	ecx
	mov	DWORD PTR [ebp-4], -858993460		; ccccccccH
	mov	DWORD PTR _this$[ebp], ecx
	mov	ecx, DWORD PTR _this$[ebp]
	call	??1Goal_Evaluator@@UAE@XZ		; Goal_Evaluator::~Goal_Evaluator
	add	esp, 4
	cmp	ebp, esp
	call	__RTC_CheckEsp
	mov	esp, ebp
	pop	ebp
	ret	0
??1GetHealthGoal_Evaluator@@UAE@XZ ENDP			; GetHealthGoal_Evaluator::~GetHealthGoal_Evaluator
_TEXT	ENDS
; Function compile flags: /Odtp /RTCsu
; File c:\users\utilisateur\documents\github\8iar125-projetraven\vs2015\buckland_chapter7 to 10_raven\goals\gethealthgoal_evaluator.h
;	COMDAT ??0GetHealthGoal_Evaluator@@QAE@N@Z
_TEXT	SEGMENT
_this$ = -4						; size = 4
_bias$ = 8						; size = 8
??0GetHealthGoal_Evaluator@@QAE@N@Z PROC		; GetHealthGoal_Evaluator::GetHealthGoal_Evaluator, COMDAT
; _this$ = ecx

; 21   :   GetHealthGoal_Evaluator(double bias):Goal_Evaluator(bias){}

	push	ebp
	mov	ebp, esp
	push	ecx
	mov	DWORD PTR [ebp-4], -858993460		; ccccccccH
	mov	DWORD PTR _this$[ebp], ecx
	sub	esp, 8
	movsd	xmm0, QWORD PTR _bias$[ebp]
	movsd	QWORD PTR [esp], xmm0
	mov	ecx, DWORD PTR _this$[ebp]
	call	??0Goal_Evaluator@@QAE@N@Z		; Goal_Evaluator::Goal_Evaluator
	mov	eax, DWORD PTR _this$[ebp]
	mov	DWORD PTR [eax], OFFSET ??_7GetHealthGoal_Evaluator@@6B@
	mov	eax, DWORD PTR _this$[ebp]
	add	esp, 4
	cmp	ebp, esp
	call	__RTC_CheckEsp
	mov	esp, ebp
	pop	ebp
	ret	8
??0GetHealthGoal_Evaluator@@QAE@N@Z ENDP		; GetHealthGoal_Evaluator::GetHealthGoal_Evaluator
_TEXT	ENDS
; Function compile flags: /Odtp /RTCsu
;	COMDAT ??_GGetWeaponGoal_Evaluator@@UAEPAXI@Z
_TEXT	SEGMENT
_this$ = -4						; size = 4
___flags$ = 8						; size = 4
??_GGetWeaponGoal_Evaluator@@UAEPAXI@Z PROC		; GetWeaponGoal_Evaluator::`scalar deleting destructor', COMDAT
; _this$ = ecx
	push	ebp
	mov	ebp, esp
	push	ecx
	mov	DWORD PTR [ebp-4], -858993460		; ccccccccH
	mov	DWORD PTR _this$[ebp], ecx
	mov	ecx, DWORD PTR _this$[ebp]
	call	??1GetWeaponGoal_Evaluator@@UAE@XZ
	mov	eax, DWORD PTR ___flags$[ebp]
	and	eax, 1
	je	SHORT $LN2@scalar
	push	24					; 00000018H
	mov	ecx, DWORD PTR _this$[ebp]
	push	ecx
	call	??3@YAXPAXI@Z				; operator delete
	add	esp, 8
$LN2@scalar:
	mov	eax, DWORD PTR _this$[ebp]
	add	esp, 4
	cmp	ebp, esp
	call	__RTC_CheckEsp
	mov	esp, ebp
	pop	ebp
	ret	4
??_GGetWeaponGoal_Evaluator@@UAEPAXI@Z ENDP		; GetWeaponGoal_Evaluator::`scalar deleting destructor'
_TEXT	ENDS
; Function compile flags: /Odtp /RTCsu
;	COMDAT ??1GetWeaponGoal_Evaluator@@UAE@XZ
_TEXT	SEGMENT
_this$ = -4						; size = 4
??1GetWeaponGoal_Evaluator@@UAE@XZ PROC			; GetWeaponGoal_Evaluator::~GetWeaponGoal_Evaluator, COMDAT
; _this$ = ecx
	push	ebp
	mov	ebp, esp
	push	ecx
	mov	DWORD PTR [ebp-4], -858993460		; ccccccccH
	mov	DWORD PTR _this$[ebp], ecx
	mov	ecx, DWORD PTR _this$[ebp]
	call	??1Goal_Evaluator@@UAE@XZ		; Goal_Evaluator::~Goal_Evaluator
	add	esp, 4
	cmp	ebp, esp
	call	__RTC_CheckEsp
	mov	esp, ebp
	pop	ebp
	ret	0
??1GetWeaponGoal_Evaluator@@UAE@XZ ENDP			; GetWeaponGoal_Evaluator::~GetWeaponGoal_Evaluator
_TEXT	ENDS
; Function compile flags: /Odtp /RTCsu
; File c:\users\utilisateur\documents\github\8iar125-projetraven\vs2015\buckland_chapter7 to 10_raven\goals\getweapongoal_evaluator.h
;	COMDAT ??0GetWeaponGoal_Evaluator@@QAE@NH@Z
_TEXT	SEGMENT
_this$ = -4						; size = 4
_bias$ = 8						; size = 8
_WeaponType$ = 16					; size = 4
??0GetWeaponGoal_Evaluator@@QAE@NH@Z PROC		; GetWeaponGoal_Evaluator::GetWeaponGoal_Evaluator, COMDAT
; _this$ = ecx

; 27   :   {}

	push	ebp
	mov	ebp, esp
	push	ecx
	mov	DWORD PTR [ebp-4], -858993460		; ccccccccH
	mov	DWORD PTR _this$[ebp], ecx

; 25   :                           int   WeaponType):Goal_Evaluator(bias),

	sub	esp, 8
	movsd	xmm0, QWORD PTR _bias$[ebp]
	movsd	QWORD PTR [esp], xmm0
	mov	ecx, DWORD PTR _this$[ebp]
	call	??0Goal_Evaluator@@QAE@N@Z		; Goal_Evaluator::Goal_Evaluator

; 27   :   {}

	mov	eax, DWORD PTR _this$[ebp]
	mov	DWORD PTR [eax], OFFSET ??_7GetWeaponGoal_Evaluator@@6B@

; 26   :                                             m_iWeaponType(WeaponType)

	mov	ecx, DWORD PTR _this$[ebp]
	mov	edx, DWORD PTR _WeaponType$[ebp]
	mov	DWORD PTR [ecx+16], edx

; 27   :   {}

	mov	eax, DWORD PTR _this$[ebp]
	add	esp, 4
	cmp	ebp, esp
	call	__RTC_CheckEsp
	mov	esp, ebp
	pop	ebp
	ret	12					; 0000000cH
??0GetWeaponGoal_Evaluator@@QAE@NH@Z ENDP		; GetWeaponGoal_Evaluator::GetWeaponGoal_Evaluator
_TEXT	ENDS
; Function compile flags: /Odtp /RTCsu
;	COMDAT ??_GGoal_AttackTarget@@UAEPAXI@Z
_TEXT	SEGMENT
_this$ = -4						; size = 4
___flags$ = 8						; size = 4
??_GGoal_AttackTarget@@UAEPAXI@Z PROC			; Goal_AttackTarget::`scalar deleting destructor', COMDAT
; _this$ = ecx
	push	ebp
	mov	ebp, esp
	push	ecx
	mov	DWORD PTR [ebp-4], -858993460		; ccccccccH
	mov	DWORD PTR _this$[ebp], ecx
	mov	ecx, DWORD PTR _this$[ebp]
	call	??1Goal_AttackTarget@@UAE@XZ
	mov	eax, DWORD PTR ___flags$[ebp]
	and	eax, 1
	je	SHORT $LN2@scalar
	push	28					; 0000001cH
	mov	ecx, DWORD PTR _this$[ebp]
	push	ecx
	call	??3@YAXPAXI@Z				; operator delete
	add	esp, 8
$LN2@scalar:
	mov	eax, DWORD PTR _this$[ebp]
	add	esp, 4
	cmp	ebp, esp
	call	__RTC_CheckEsp
	mov	esp, ebp
	pop	ebp
	ret	4
??_GGoal_AttackTarget@@UAEPAXI@Z ENDP			; Goal_AttackTarget::`scalar deleting destructor'
_TEXT	ENDS
; Function compile flags: /Odtp /RTCsu
;	COMDAT ??1Goal_AttackTarget@@UAE@XZ
_TEXT	SEGMENT
_this$ = -4						; size = 4
??1Goal_AttackTarget@@UAE@XZ PROC			; Goal_AttackTarget::~Goal_AttackTarget, COMDAT
; _this$ = ecx
	push	ebp
	mov	ebp, esp
	push	ecx
	mov	DWORD PTR [ebp-4], -858993460		; ccccccccH
	mov	DWORD PTR _this$[ebp], ecx
	mov	ecx, DWORD PTR _this$[ebp]
	call	??1?$Goal_Composite@VRaven_Bot@@@@UAE@XZ ; Goal_Composite<Raven_Bot>::~Goal_Composite<Raven_Bot>
	add	esp, 4
	cmp	ebp, esp
	call	__RTC_CheckEsp
	mov	esp, ebp
	pop	ebp
	ret	0
??1Goal_AttackTarget@@UAE@XZ ENDP			; Goal_AttackTarget::~Goal_AttackTarget
_TEXT	ENDS
; Function compile flags: /Odtp /RTCsu
; File c:\users\utilisateur\documents\github\8iar125-projetraven\vs2015\buckland_chapter7 to 10_raven\goals\goal_attacktarget.h
;	COMDAT ?Terminate@Goal_AttackTarget@@UAEXXZ
_TEXT	SEGMENT
_this$ = -4						; size = 4
?Terminate@Goal_AttackTarget@@UAEXXZ PROC		; Goal_AttackTarget::Terminate, COMDAT
; _this$ = ecx

; 32   :   void Terminate(){m_iStatus = completed;}

	push	ebp
	mov	ebp, esp
	push	ecx
	mov	DWORD PTR [ebp-4], -858993460		; ccccccccH
	mov	DWORD PTR _this$[ebp], ecx
	mov	eax, DWORD PTR _this$[ebp]
	mov	DWORD PTR [eax+12], 2
	mov	esp, ebp
	pop	ebp
	ret	0
?Terminate@Goal_AttackTarget@@UAEXXZ ENDP		; Goal_AttackTarget::Terminate
_TEXT	ENDS
; Function compile flags: /Odtp /RTCsu
; File c:\users\utilisateur\documents\github\8iar125-projetraven\vs2015\buckland_chapter7 to 10_raven\goals\goal_attacktarget.h
;	COMDAT ??0Goal_AttackTarget@@QAE@PAVRaven_Bot@@@Z
_TEXT	SEGMENT
_this$ = -4						; size = 4
_pOwner$ = 8						; size = 4
??0Goal_AttackTarget@@QAE@PAVRaven_Bot@@@Z PROC		; Goal_AttackTarget::Goal_AttackTarget, COMDAT
; _this$ = ecx

; 26   :   {}

	push	ebp
	mov	ebp, esp
	push	ecx
	mov	DWORD PTR [ebp-4], -858993460		; ccccccccH
	mov	DWORD PTR _this$[ebp], ecx

; 25   :   Goal_AttackTarget(Raven_Bot* pOwner):Goal_Composite<Raven_Bot>(pOwner, goal_attack_target)

	push	13					; 0000000dH
	mov	eax, DWORD PTR _pOwner$[ebp]
	push	eax
	mov	ecx, DWORD PTR _this$[ebp]
	call	??0?$Goal_Composite@VRaven_Bot@@@@QAE@PAVRaven_Bot@@H@Z ; Goal_Composite<Raven_Bot>::Goal_Composite<Raven_Bot>

; 26   :   {}

	mov	ecx, DWORD PTR _this$[ebp]
	mov	DWORD PTR [ecx], OFFSET ??_7Goal_AttackTarget@@6B@
	mov	eax, DWORD PTR _this$[ebp]
	add	esp, 4
	cmp	ebp, esp
	call	__RTC_CheckEsp
	mov	esp, ebp
	pop	ebp
	ret	4
??0Goal_AttackTarget@@QAE@PAVRaven_Bot@@@Z ENDP		; Goal_AttackTarget::Goal_AttackTarget
_TEXT	ENDS
; Function compile flags: /Odtp /RTCsu
;	COMDAT ??_GGoal_GetItem@@UAEPAXI@Z
_TEXT	SEGMENT
_this$ = -4						; size = 4
___flags$ = 8						; size = 4
??_GGoal_GetItem@@UAEPAXI@Z PROC			; Goal_GetItem::`scalar deleting destructor', COMDAT
; _this$ = ecx
	push	ebp
	mov	ebp, esp
	push	ecx
	mov	DWORD PTR [ebp-4], -858993460		; ccccccccH
	mov	DWORD PTR _this$[ebp], ecx
	mov	ecx, DWORD PTR _this$[ebp]
	call	??1Goal_GetItem@@UAE@XZ
	mov	eax, DWORD PTR ___flags$[ebp]
	and	eax, 1
	je	SHORT $LN2@scalar
	push	40					; 00000028H
	mov	ecx, DWORD PTR _this$[ebp]
	push	ecx
	call	??3@YAXPAXI@Z				; operator delete
	add	esp, 8
$LN2@scalar:
	mov	eax, DWORD PTR _this$[ebp]
	add	esp, 4
	cmp	ebp, esp
	call	__RTC_CheckEsp
	mov	esp, ebp
	pop	ebp
	ret	4
??_GGoal_GetItem@@UAEPAXI@Z ENDP			; Goal_GetItem::`scalar deleting destructor'
_TEXT	ENDS
; Function compile flags: /Odtp /RTCsu
;	COMDAT ??1Goal_GetItem@@UAE@XZ
_TEXT	SEGMENT
_this$ = -4						; size = 4
??1Goal_GetItem@@UAE@XZ PROC				; Goal_GetItem::~Goal_GetItem, COMDAT
; _this$ = ecx
	push	ebp
	mov	ebp, esp
	push	ecx
	mov	DWORD PTR [ebp-4], -858993460		; ccccccccH
	mov	DWORD PTR _this$[ebp], ecx
	mov	ecx, DWORD PTR _this$[ebp]
	call	??1?$Goal_Composite@VRaven_Bot@@@@UAE@XZ ; Goal_Composite<Raven_Bot>::~Goal_Composite<Raven_Bot>
	add	esp, 4
	cmp	ebp, esp
	call	__RTC_CheckEsp
	mov	esp, ebp
	pop	ebp
	ret	0
??1Goal_GetItem@@UAE@XZ ENDP				; Goal_GetItem::~Goal_GetItem
_TEXT	ENDS
; Function compile flags: /Odtp /RTCsu
; File c:\users\utilisateur\documents\github\8iar125-projetraven\vs2015\buckland_chapter7 to 10_raven\goals\goal_getitem.h
;	COMDAT ?Terminate@Goal_GetItem@@UAEXXZ
_TEXT	SEGMENT
_this$ = -4						; size = 4
?Terminate@Goal_GetItem@@UAEXXZ PROC			; Goal_GetItem::Terminate, COMDAT
; _this$ = ecx

; 47   :   void Terminate(){m_iStatus = completed;}

	push	ebp
	mov	ebp, esp
	push	ecx
	mov	DWORD PTR [ebp-4], -858993460		; ccccccccH
	mov	DWORD PTR _this$[ebp], ecx
	mov	eax, DWORD PTR _this$[ebp]
	mov	DWORD PTR [eax+12], 2
	mov	esp, ebp
	pop	ebp
	ret	0
?Terminate@Goal_GetItem@@UAEXXZ ENDP			; Goal_GetItem::Terminate
_TEXT	ENDS
; Function compile flags: /Odtp /RTCsu
; File c:\users\utilisateur\documents\github\8iar125-projetraven\vs2015\buckland_chapter7 to 10_raven\goals\goal_getitem.h
;	COMDAT ??0Goal_GetItem@@QAE@PAVRaven_Bot@@H@Z
_TEXT	SEGMENT
_this$ = -4						; size = 4
_pBot$ = 8						; size = 4
_item$ = 12						; size = 4
??0Goal_GetItem@@QAE@PAVRaven_Bot@@H@Z PROC		; Goal_GetItem::Goal_GetItem, COMDAT
; _this$ = ecx

; 38   :   {}

	push	ebp
	mov	ebp, esp
	push	ecx
	mov	DWORD PTR [ebp-4], -858993460		; ccccccccH
	mov	DWORD PTR _this$[ebp], ecx

; 33   :                int        item):Goal_Composite<Raven_Bot>(pBot,

	mov	eax, DWORD PTR _item$[ebp]
	push	eax
	call	?ItemTypeToGoalType@@YAHH@Z		; ItemTypeToGoalType
	add	esp, 4
	push	eax
	mov	ecx, DWORD PTR _pBot$[ebp]
	push	ecx
	mov	ecx, DWORD PTR _this$[ebp]
	call	??0?$Goal_Composite@VRaven_Bot@@@@QAE@PAVRaven_Bot@@H@Z ; Goal_Composite<Raven_Bot>::Goal_Composite<Raven_Bot>

; 38   :   {}

	mov	edx, DWORD PTR _this$[ebp]
	mov	DWORD PTR [edx], OFFSET ??_7Goal_GetItem@@6B@

; 34   :                                                    ItemTypeToGoalType(item)),
; 35   :                                 m_iItemToGet(item),

	mov	eax, DWORD PTR _this$[ebp]
	mov	ecx, DWORD PTR _item$[ebp]
	mov	DWORD PTR [eax+28], ecx

; 36   :                                 m_pGiverTrigger(0),

	mov	edx, DWORD PTR _this$[ebp]
	mov	DWORD PTR [edx+32], 0

; 37   :                                 m_bFollowingPath(false)

	mov	eax, DWORD PTR _this$[ebp]
	mov	BYTE PTR [eax+36], 0

; 38   :   {}

	mov	eax, DWORD PTR _this$[ebp]
	add	esp, 4
	cmp	ebp, esp
	call	__RTC_CheckEsp
	mov	esp, ebp
	pop	ebp
	ret	8
??0Goal_GetItem@@QAE@PAVRaven_Bot@@H@Z ENDP		; Goal_GetItem::Goal_GetItem
_TEXT	ENDS
; Function compile flags: /Odtp /RTCsu
;	COMDAT ??_GGoal_Explore@@UAEPAXI@Z
_TEXT	SEGMENT
_this$ = -4						; size = 4
___flags$ = 8						; size = 4
??_GGoal_Explore@@UAEPAXI@Z PROC			; Goal_Explore::`scalar deleting destructor', COMDAT
; _this$ = ecx
	push	ebp
	mov	ebp, esp
	push	ecx
	mov	DWORD PTR [ebp-4], -858993460		; ccccccccH
	mov	DWORD PTR _this$[ebp], ecx
	mov	ecx, DWORD PTR _this$[ebp]
	call	??1Goal_Explore@@UAE@XZ
	mov	eax, DWORD PTR ___flags$[ebp]
	and	eax, 1
	je	SHORT $LN2@scalar
	push	56					; 00000038H
	mov	ecx, DWORD PTR _this$[ebp]
	push	ecx
	call	??3@YAXPAXI@Z				; operator delete
	add	esp, 8
$LN2@scalar:
	mov	eax, DWORD PTR _this$[ebp]
	add	esp, 4
	cmp	ebp, esp
	call	__RTC_CheckEsp
	mov	esp, ebp
	pop	ebp
	ret	4
??_GGoal_Explore@@UAEPAXI@Z ENDP			; Goal_Explore::`scalar deleting destructor'
_TEXT	ENDS
; Function compile flags: /Odtp /RTCsu
;	COMDAT ??1Goal_Explore@@UAE@XZ
_TEXT	SEGMENT
_this$ = -4						; size = 4
??1Goal_Explore@@UAE@XZ PROC				; Goal_Explore::~Goal_Explore, COMDAT
; _this$ = ecx
	push	ebp
	mov	ebp, esp
	push	ecx
	mov	DWORD PTR [ebp-4], -858993460		; ccccccccH
	mov	DWORD PTR _this$[ebp], ecx
	mov	ecx, DWORD PTR _this$[ebp]
	call	??1?$Goal_Composite@VRaven_Bot@@@@UAE@XZ ; Goal_Composite<Raven_Bot>::~Goal_Composite<Raven_Bot>
	add	esp, 4
	cmp	ebp, esp
	call	__RTC_CheckEsp
	mov	esp, ebp
	pop	ebp
	ret	0
??1Goal_Explore@@UAE@XZ ENDP				; Goal_Explore::~Goal_Explore
_TEXT	ENDS
; Function compile flags: /Odtp /RTCsu
; File c:\users\utilisateur\documents\github\8iar125-projetraven\vs2015\buckland_chapter7 to 10_raven\goals\goal_explore.h
;	COMDAT ?Terminate@Goal_Explore@@UAEXXZ
_TEXT	SEGMENT
_this$ = -4						; size = 4
?Terminate@Goal_Explore@@UAEXXZ PROC			; Goal_Explore::Terminate, COMDAT
; _this$ = ecx

; 33   :   void Terminate(){}

	push	ebp
	mov	ebp, esp
	push	ecx
	mov	DWORD PTR [ebp-4], -858993460		; ccccccccH
	mov	DWORD PTR _this$[ebp], ecx
	mov	esp, ebp
	pop	ebp
	ret	0
?Terminate@Goal_Explore@@UAEXXZ ENDP			; Goal_Explore::Terminate
_TEXT	ENDS
; Function compile flags: /Odtp /RTCsu
; File c:\users\utilisateur\documents\github\8iar125-projetraven\vs2015\buckland_chapter7 to 10_raven\goals\goal_explore.h
;	COMDAT ??0Goal_Explore@@QAE@PAVRaven_Bot@@@Z
_TEXT	SEGMENT
_this$ = -16						; size = 4
__$EHRec$ = -12						; size = 12
_pOwner$ = 8						; size = 4
??0Goal_Explore@@QAE@PAVRaven_Bot@@@Z PROC		; Goal_Explore::Goal_Explore, COMDAT
; _this$ = ecx

; 26   :   {}

	push	ebp
	mov	ebp, esp
	push	-1
	push	__ehhandler$??0Goal_Explore@@QAE@PAVRaven_Bot@@@Z
	mov	eax, DWORD PTR fs:0
	push	eax
	push	ecx
	mov	DWORD PTR [ebp-16], -858993460		; ccccccccH
	mov	eax, DWORD PTR ___security_cookie
	xor	eax, ebp
	push	eax
	lea	eax, DWORD PTR __$EHRec$[ebp]
	mov	DWORD PTR fs:0, eax
	mov	DWORD PTR _this$[ebp], ecx

; 23   :   Goal_Explore(Raven_Bot* pOwner):Goal_Composite<Raven_Bot>(pOwner,

	push	1
	mov	eax, DWORD PTR _pOwner$[ebp]
	push	eax
	mov	ecx, DWORD PTR _this$[ebp]
	call	??0?$Goal_Composite@VRaven_Bot@@@@QAE@PAVRaven_Bot@@H@Z ; Goal_Composite<Raven_Bot>::Goal_Composite<Raven_Bot>
	mov	DWORD PTR __$EHRec$[ebp+8], 0

; 26   :   {}

	mov	ecx, DWORD PTR _this$[ebp]
	mov	DWORD PTR [ecx], OFFSET ??_7Goal_Explore@@6B@
	mov	ecx, DWORD PTR _this$[ebp]
	add	ecx, 32					; 00000020H
	call	??0Vector2D@@QAE@XZ			; Vector2D::Vector2D

; 24   :                                                             goal_explore),
; 25   :                                   m_bDestinationIsSet(false)

	mov	edx, DWORD PTR _this$[ebp]
	mov	BYTE PTR [edx+48], 0

; 26   :   {}

	mov	DWORD PTR __$EHRec$[ebp+8], -1
	mov	eax, DWORD PTR _this$[ebp]
	mov	ecx, DWORD PTR __$EHRec$[ebp]
	mov	DWORD PTR fs:0, ecx
	pop	ecx
	add	esp, 16					; 00000010H
	cmp	ebp, esp
	call	__RTC_CheckEsp
	mov	esp, ebp
	pop	ebp
	ret	4
_TEXT	ENDS
;	COMDAT text$x
text$x	SEGMENT
__unwindfunclet$??0Goal_Explore@@QAE@PAVRaven_Bot@@@Z$0:
	mov	ecx, DWORD PTR _this$[ebp]
	jmp	??1?$Goal_Composite@VRaven_Bot@@@@UAE@XZ ; Goal_Composite<Raven_Bot>::~Goal_Composite<Raven_Bot>
__ehhandler$??0Goal_Explore@@QAE@PAVRaven_Bot@@@Z:
	mov	edx, DWORD PTR [esp+8]
	lea	eax, DWORD PTR [edx+12]
	mov	ecx, DWORD PTR [edx-8]
	xor	ecx, eax
	call	@__security_check_cookie@4
	mov	eax, OFFSET __ehfuncinfo$??0Goal_Explore@@QAE@PAVRaven_Bot@@@Z
	jmp	___CxxFrameHandler3
text$x	ENDS
??0Goal_Explore@@QAE@PAVRaven_Bot@@@Z ENDP		; Goal_Explore::Goal_Explore
; Function compile flags: /Odtp /RTCsu
;	COMDAT ??_GGoal_MoveToPosition@@UAEPAXI@Z
_TEXT	SEGMENT
_this$ = -4						; size = 4
___flags$ = 8						; size = 4
??_GGoal_MoveToPosition@@UAEPAXI@Z PROC			; Goal_MoveToPosition::`scalar deleting destructor', COMDAT
; _this$ = ecx
	push	ebp
	mov	ebp, esp
	push	ecx
	mov	DWORD PTR [ebp-4], -858993460		; ccccccccH
	mov	DWORD PTR _this$[ebp], ecx
	mov	ecx, DWORD PTR _this$[ebp]
	call	??1Goal_MoveToPosition@@UAE@XZ
	mov	eax, DWORD PTR ___flags$[ebp]
	and	eax, 1
	je	SHORT $LN2@scalar
	push	48					; 00000030H
	mov	ecx, DWORD PTR _this$[ebp]
	push	ecx
	call	??3@YAXPAXI@Z				; operator delete
	add	esp, 8
$LN2@scalar:
	mov	eax, DWORD PTR _this$[ebp]
	add	esp, 4
	cmp	ebp, esp
	call	__RTC_CheckEsp
	mov	esp, ebp
	pop	ebp
	ret	4
??_GGoal_MoveToPosition@@UAEPAXI@Z ENDP			; Goal_MoveToPosition::`scalar deleting destructor'
_TEXT	ENDS
; Function compile flags: /Odtp /RTCsu
;	COMDAT ??1Goal_MoveToPosition@@UAE@XZ
_TEXT	SEGMENT
_this$ = -4						; size = 4
??1Goal_MoveToPosition@@UAE@XZ PROC			; Goal_MoveToPosition::~Goal_MoveToPosition, COMDAT
; _this$ = ecx
	push	ebp
	mov	ebp, esp
	push	ecx
	mov	DWORD PTR [ebp-4], -858993460		; ccccccccH
	mov	DWORD PTR _this$[ebp], ecx
	mov	ecx, DWORD PTR _this$[ebp]
	call	??1?$Goal_Composite@VRaven_Bot@@@@UAE@XZ ; Goal_Composite<Raven_Bot>::~Goal_Composite<Raven_Bot>
	add	esp, 4
	cmp	ebp, esp
	call	__RTC_CheckEsp
	mov	esp, ebp
	pop	ebp
	ret	0
??1Goal_MoveToPosition@@UAE@XZ ENDP			; Goal_MoveToPosition::~Goal_MoveToPosition
_TEXT	ENDS
; Function compile flags: /Odtp /RTCsu
; File c:\users\utilisateur\documents\github\8iar125-projetraven\vs2015\buckland_chapter7 to 10_raven\goals\goal_movetoposition.h
;	COMDAT ?Terminate@Goal_MoveToPosition@@UAEXXZ
_TEXT	SEGMENT
_this$ = -4						; size = 4
?Terminate@Goal_MoveToPosition@@UAEXXZ PROC		; Goal_MoveToPosition::Terminate, COMDAT
; _this$ = ecx

; 32   :   void Terminate(){}

	push	ebp
	mov	ebp, esp
	push	ecx
	mov	DWORD PTR [ebp-4], -858993460		; ccccccccH
	mov	DWORD PTR _this$[ebp], ecx
	mov	esp, ebp
	pop	ebp
	ret	0
?Terminate@Goal_MoveToPosition@@UAEXXZ ENDP		; Goal_MoveToPosition::Terminate
_TEXT	ENDS
; Function compile flags: /Odtp /RTCsu
; File c:\users\utilisateur\documents\github\8iar125-projetraven\vs2015\buckland_chapter7 to 10_raven\goals\goal_movetoposition.h
;	COMDAT ??0Goal_MoveToPosition@@QAE@PAVRaven_Bot@@UVector2D@@@Z
_TEXT	SEGMENT
_this$ = -4						; size = 4
_pBot$ = 8						; size = 4
_pos$ = 12						; size = 16
??0Goal_MoveToPosition@@QAE@PAVRaven_Bot@@UVector2D@@@Z PROC ; Goal_MoveToPosition::Goal_MoveToPosition, COMDAT
; _this$ = ecx

; 27   :   {}

	push	ebp
	mov	ebp, esp
	push	ecx
	mov	DWORD PTR [ebp-4], -858993460		; ccccccccH
	mov	DWORD PTR _this$[ebp], ecx

; 24   :             Goal_Composite<Raven_Bot>(pBot,

	push	6
	mov	eax, DWORD PTR _pBot$[ebp]
	push	eax
	mov	ecx, DWORD PTR _this$[ebp]
	call	??0?$Goal_Composite@VRaven_Bot@@@@QAE@PAVRaven_Bot@@H@Z ; Goal_Composite<Raven_Bot>::Goal_Composite<Raven_Bot>

; 27   :   {}

	mov	ecx, DWORD PTR _this$[ebp]
	mov	DWORD PTR [ecx], OFFSET ??_7Goal_MoveToPosition@@6B@

; 25   :                                       goal_move_to_position),
; 26   :             m_vDestination(pos)

	mov	edx, DWORD PTR _this$[ebp]
	add	edx, 32					; 00000020H
	mov	eax, DWORD PTR _pos$[ebp]
	mov	DWORD PTR [edx], eax
	mov	ecx, DWORD PTR _pos$[ebp+4]
	mov	DWORD PTR [edx+4], ecx
	mov	eax, DWORD PTR _pos$[ebp+8]
	mov	DWORD PTR [edx+8], eax
	mov	ecx, DWORD PTR _pos$[ebp+12]
	mov	DWORD PTR [edx+12], ecx

; 27   :   {}

	mov	eax, DWORD PTR _this$[ebp]
	add	esp, 4
	cmp	ebp, esp
	call	__RTC_CheckEsp
	mov	esp, ebp
	pop	ebp
	ret	20					; 00000014H
??0Goal_MoveToPosition@@QAE@PAVRaven_Bot@@UVector2D@@@Z ENDP ; Goal_MoveToPosition::Goal_MoveToPosition
_TEXT	ENDS
; Function compile flags: /Odtp /RTCsu
;	COMDAT ??_GGoal_Think@@UAEPAXI@Z
_TEXT	SEGMENT
_this$ = -4						; size = 4
___flags$ = 8						; size = 4
??_GGoal_Think@@UAEPAXI@Z PROC				; Goal_Think::`scalar deleting destructor', COMDAT
; _this$ = ecx
	push	ebp
	mov	ebp, esp
	push	ecx
	mov	DWORD PTR [ebp-4], -858993460		; ccccccccH
	mov	DWORD PTR _this$[ebp], ecx
	mov	ecx, DWORD PTR _this$[ebp]
	call	??1Goal_Think@@UAE@XZ			; Goal_Think::~Goal_Think
	mov	eax, DWORD PTR ___flags$[ebp]
	and	eax, 1
	je	SHORT $LN2@scalar
	push	44					; 0000002cH
	mov	ecx, DWORD PTR _this$[ebp]
	push	ecx
	call	??3@YAXPAXI@Z				; operator delete
	add	esp, 8
$LN2@scalar:
	mov	eax, DWORD PTR _this$[ebp]
	add	esp, 4
	cmp	ebp, esp
	call	__RTC_CheckEsp
	mov	esp, ebp
	pop	ebp
	ret	4
??_GGoal_Think@@UAEPAXI@Z ENDP				; Goal_Think::`scalar deleting destructor'
_TEXT	ENDS
; Function compile flags: /Odtp /RTCsu
; File c:\users\utilisateur\documents\github\8iar125-projetraven\vs2015\buckland_chapter7 to 10_raven\goals\goal_think.cpp
_TEXT	SEGMENT
tv139 = -80						; size = 4
tv146 = -76						; size = 4
tv65 = -72						; size = 4
tv144 = -68						; size = 4
$T2 = -64						; size = 12
$T3 = -49						; size = 1
$T4 = -48						; size = 12
_curG$ = -32						; size = 12
_this$ = -16						; size = 4
__$EHRec$ = -12						; size = 12
?Render@Goal_Think@@UAEXXZ PROC				; Goal_Think::Render
; _this$ = ecx

; 194  : {

	push	ebp
	mov	ebp, esp
	push	-1
	push	__ehhandler$?Render@Goal_Think@@UAEXXZ
	mov	eax, DWORD PTR fs:0
	push	eax
	sub	esp, 68					; 00000044H
	push	esi
	push	edi
	push	ecx
	lea	edi, DWORD PTR [ebp-80]
	mov	ecx, 17					; 00000011H
	mov	eax, -858993460				; ccccccccH
	rep stosd
	pop	ecx
	mov	eax, DWORD PTR ___security_cookie
	xor	eax, ebp
	push	eax
	lea	eax, DWORD PTR __$EHRec$[ebp]
	mov	DWORD PTR fs:0, eax
	mov	DWORD PTR _this$[ebp], ecx

; 195  :   std::list<Goal<Raven_Bot>*>::iterator curG;

	lea	ecx, DWORD PTR _curG$[ebp]
	call	??0?$_List_iterator@V?$_List_val@U?$_List_simple_types@PAV?$Goal@VRaven_Bot@@@@@std@@@std@@@std@@QAE@XZ ; std::_List_iterator<std::_List_val<std::_List_simple_types<Goal<Raven_Bot> *> > >::_List_iterator<std::_List_val<std::_List_simple_types<Goal<Raven_Bot> *> > >
	mov	DWORD PTR __$EHRec$[ebp+8], 0

; 196  :   for (curG=m_SubGoals.begin(); curG != m_SubGoals.end(); ++curG)

	lea	eax, DWORD PTR $T4[ebp]
	push	eax
	mov	ecx, DWORD PTR _this$[ebp]
	add	ecx, 16					; 00000010H
	call	?begin@?$list@PAV?$Goal@VRaven_Bot@@@@V?$allocator@PAV?$Goal@VRaven_Bot@@@@@std@@@std@@QAE?AV?$_List_iterator@V?$_List_val@U?$_List_simple_types@PAV?$Goal@VRaven_Bot@@@@@std@@@std@@@2@XZ ; std::list<Goal<Raven_Bot> *,std::allocator<Goal<Raven_Bot> *> >::begin
	mov	DWORD PTR tv144[ebp], eax
	mov	ecx, DWORD PTR tv144[ebp]
	push	ecx
	lea	ecx, DWORD PTR _curG$[ebp]
	call	??4?$_List_iterator@V?$_List_val@U?$_List_simple_types@PAV?$Goal@VRaven_Bot@@@@@std@@@std@@@std@@QAEAAV01@$$QAV01@@Z
	lea	ecx, DWORD PTR $T4[ebp]
	call	??1?$_List_iterator@V?$_List_val@U?$_List_simple_types@PAV?$Goal@VRaven_Bot@@@@@std@@@std@@@std@@QAE@XZ
	jmp	SHORT $LN4@Render
$LN2@Render:
	lea	ecx, DWORD PTR _curG$[ebp]
	call	??E?$_List_iterator@V?$_List_val@U?$_List_simple_types@PAV?$Goal@VRaven_Bot@@@@@std@@@std@@@std@@QAEAAV01@XZ ; std::_List_iterator<std::_List_val<std::_List_simple_types<Goal<Raven_Bot> *> > >::operator++
$LN4@Render:
	lea	edx, DWORD PTR $T2[ebp]
	push	edx
	mov	ecx, DWORD PTR _this$[ebp]
	add	ecx, 16					; 00000010H
	call	?end@?$list@PAV?$Goal@VRaven_Bot@@@@V?$allocator@PAV?$Goal@VRaven_Bot@@@@@std@@@std@@QAE?AV?$_List_iterator@V?$_List_val@U?$_List_simple_types@PAV?$Goal@VRaven_Bot@@@@@std@@@std@@@2@XZ ; std::list<Goal<Raven_Bot> *,std::allocator<Goal<Raven_Bot> *> >::end
	mov	DWORD PTR tv65[ebp], eax
	mov	eax, DWORD PTR tv65[ebp]
	mov	DWORD PTR tv146[ebp], eax
	mov	BYTE PTR __$EHRec$[ebp+8], 1
	mov	ecx, DWORD PTR tv146[ebp]
	push	ecx
	lea	ecx, DWORD PTR _curG$[ebp]
	call	??9?$_List_const_iterator@V?$_List_val@U?$_List_simple_types@PAV?$Goal@VRaven_Bot@@@@@std@@@std@@@std@@QBE_NABV01@@Z ; std::_List_const_iterator<std::_List_val<std::_List_simple_types<Goal<Raven_Bot> *> > >::operator!=
	mov	BYTE PTR $T3[ebp], al
	mov	BYTE PTR __$EHRec$[ebp+8], 0
	lea	ecx, DWORD PTR $T2[ebp]
	call	??1?$_List_iterator@V?$_List_val@U?$_List_simple_types@PAV?$Goal@VRaven_Bot@@@@@std@@@std@@@std@@QAE@XZ
	movzx	edx, BYTE PTR $T3[ebp]
	test	edx, edx
	je	SHORT $LN3@Render

; 197  :   {
; 198  :     (*curG)->Render();

	lea	ecx, DWORD PTR _curG$[ebp]
	call	??D?$_List_iterator@V?$_List_val@U?$_List_simple_types@PAV?$Goal@VRaven_Bot@@@@@std@@@std@@@std@@QBEAAPAV?$Goal@VRaven_Bot@@@@XZ ; std::_List_iterator<std::_List_val<std::_List_simple_types<Goal<Raven_Bot> *> > >::operator*
	mov	eax, DWORD PTR [eax]
	mov	DWORD PTR tv139[ebp], eax
	mov	ecx, DWORD PTR tv139[ebp]
	mov	edx, DWORD PTR [ecx]
	mov	esi, esp
	mov	ecx, DWORD PTR tv139[ebp]
	mov	eax, DWORD PTR [edx+28]
	call	eax
	cmp	esi, esp
	call	__RTC_CheckEsp

; 199  :   }

	jmp	SHORT $LN2@Render
$LN3@Render:

; 200  : }

	mov	DWORD PTR __$EHRec$[ebp+8], -1
	lea	ecx, DWORD PTR _curG$[ebp]
	call	??1?$_List_iterator@V?$_List_val@U?$_List_simple_types@PAV?$Goal@VRaven_Bot@@@@@std@@@std@@@std@@QAE@XZ
	push	edx
	mov	ecx, ebp
	push	eax
	lea	edx, DWORD PTR $LN12@Render
	call	@_RTC_CheckStackVars@8
	pop	eax
	pop	edx
	mov	ecx, DWORD PTR __$EHRec$[ebp]
	mov	DWORD PTR fs:0, ecx
	pop	ecx
	pop	edi
	pop	esi
	add	esp, 80					; 00000050H
	cmp	ebp, esp
	call	__RTC_CheckEsp
	mov	esp, ebp
	pop	ebp
	ret	0
	npad	3
$LN12@Render:
	DD	1
	DD	$LN11@Render
$LN11@Render:
	DD	-32					; ffffffe0H
	DD	12					; 0000000cH
	DD	$LN9@Render
$LN9@Render:
	DB	99					; 00000063H
	DB	117					; 00000075H
	DB	114					; 00000072H
	DB	71					; 00000047H
	DB	0
_TEXT	ENDS
text$x	SEGMENT
__unwindfunclet$?Render@Goal_Think@@UAEXXZ$0:
	lea	ecx, DWORD PTR _curG$[ebp]
	jmp	??1?$_List_iterator@V?$_List_val@U?$_List_simple_types@PAV?$Goal@VRaven_Bot@@@@@std@@@std@@@std@@QAE@XZ
__unwindfunclet$?Render@Goal_Think@@UAEXXZ$2:
	lea	ecx, DWORD PTR $T2[ebp]
	jmp	??1?$_List_iterator@V?$_List_val@U?$_List_simple_types@PAV?$Goal@VRaven_Bot@@@@@std@@@std@@@std@@QAE@XZ
__ehhandler$?Render@Goal_Think@@UAEXXZ:
	mov	edx, DWORD PTR [esp+8]
	lea	eax, DWORD PTR [edx+12]
	mov	ecx, DWORD PTR [edx-80]
	xor	ecx, eax
	call	@__security_check_cookie@4
	mov	eax, OFFSET __ehfuncinfo$?Render@Goal_Think@@UAEXXZ
	jmp	___CxxFrameHandler3
text$x	ENDS
?Render@Goal_Think@@UAEXXZ ENDP				; Goal_Think::Render
; Function compile flags: /Odtp /RTCsu
; File c:\users\utilisateur\documents\github\8iar125-projetraven\vs2015\buckland_chapter7 to 10_raven\goals\goal_think.cpp
_TEXT	SEGMENT
tv88 = -80						; size = 4
tv139 = -76						; size = 4
tv69 = -72						; size = 4
$T2 = -68						; size = 16
$T3 = -52						; size = 12
$T4 = -37						; size = 1
_curDes$ = -32						; size = 12
_this$ = -16						; size = 4
__$EHRec$ = -12						; size = 12
_left$ = 8						; size = 4
_top$ = 12						; size = 4
?RenderEvaluations@Goal_Think@@QBEXHH@Z PROC		; Goal_Think::RenderEvaluations
; _this$ = ecx

; 181  : {

	push	ebp
	mov	ebp, esp
	push	-1
	push	__ehhandler$?RenderEvaluations@Goal_Think@@QBEXHH@Z
	mov	eax, DWORD PTR fs:0
	push	eax
	sub	esp, 68					; 00000044H
	push	esi
	push	edi
	push	ecx
	lea	edi, DWORD PTR [ebp-80]
	mov	ecx, 17					; 00000011H
	mov	eax, -858993460				; ccccccccH
	rep stosd
	pop	ecx
	mov	eax, DWORD PTR ___security_cookie
	xor	eax, ebp
	push	eax
	lea	eax, DWORD PTR __$EHRec$[ebp]
	mov	DWORD PTR fs:0, eax
	mov	DWORD PTR _this$[ebp], ecx

; 182  :   gdi->TextColor(Cgdi::black);

	push	3
	call	?Instance@Cgdi@@SAPAV1@XZ		; Cgdi::Instance
	mov	ecx, eax
	call	?TextColor@Cgdi@@QAEXH@Z		; Cgdi::TextColor

; 183  :   
; 184  :   std::vector<Goal_Evaluator*>::const_iterator curDes = m_Evaluators.begin();

	lea	eax, DWORD PTR _curDes$[ebp]
	push	eax
	mov	ecx, DWORD PTR _this$[ebp]
	add	ecx, 28					; 0000001cH
	call	?begin@?$vector@PAVGoal_Evaluator@@V?$allocator@PAVGoal_Evaluator@@@std@@@std@@QBE?AV?$_Vector_const_iterator@V?$_Vector_val@U?$_Simple_types@PAVGoal_Evaluator@@@std@@@std@@@2@XZ ; std::vector<Goal_Evaluator *,std::allocator<Goal_Evaluator *> >::begin
	mov	DWORD PTR __$EHRec$[ebp+8], 0
	jmp	SHORT $LN4@RenderEval
$LN2@RenderEval:

; 185  :   for (curDes; curDes != m_Evaluators.end(); ++curDes)

	lea	ecx, DWORD PTR _curDes$[ebp]
	call	??E?$_Vector_const_iterator@V?$_Vector_val@U?$_Simple_types@PAVGoal_Evaluator@@@std@@@std@@@std@@QAEAAV01@XZ ; std::_Vector_const_iterator<std::_Vector_val<std::_Simple_types<Goal_Evaluator *> > >::operator++
$LN4@RenderEval:
	lea	ecx, DWORD PTR $T3[ebp]
	push	ecx
	mov	ecx, DWORD PTR _this$[ebp]
	add	ecx, 28					; 0000001cH
	call	?end@?$vector@PAVGoal_Evaluator@@V?$allocator@PAVGoal_Evaluator@@@std@@@std@@QBE?AV?$_Vector_const_iterator@V?$_Vector_val@U?$_Simple_types@PAVGoal_Evaluator@@@std@@@std@@@2@XZ ; std::vector<Goal_Evaluator *,std::allocator<Goal_Evaluator *> >::end
	mov	DWORD PTR tv69[ebp], eax
	mov	edx, DWORD PTR tv69[ebp]
	mov	DWORD PTR tv139[ebp], edx
	mov	BYTE PTR __$EHRec$[ebp+8], 1
	mov	eax, DWORD PTR tv139[ebp]
	push	eax
	lea	ecx, DWORD PTR _curDes$[ebp]
	call	??9?$_Vector_const_iterator@V?$_Vector_val@U?$_Simple_types@PAVGoal_Evaluator@@@std@@@std@@@std@@QBE_NABV01@@Z ; std::_Vector_const_iterator<std::_Vector_val<std::_Simple_types<Goal_Evaluator *> > >::operator!=
	mov	BYTE PTR $T4[ebp], al
	mov	BYTE PTR __$EHRec$[ebp+8], 0
	lea	ecx, DWORD PTR $T3[ebp]
	call	??1?$_Vector_const_iterator@V?$_Vector_val@U?$_Simple_types@PAVGoal_Evaluator@@@std@@@std@@@std@@QAE@XZ
	movzx	ecx, BYTE PTR $T4[ebp]
	test	ecx, ecx
	je	SHORT $LN3@RenderEval

; 186  :   {
; 187  :     (*curDes)->RenderInfo(Vector2D(left, top), m_pOwner);

	lea	ecx, DWORD PTR _curDes$[ebp]
	call	??D?$_Vector_const_iterator@V?$_Vector_val@U?$_Simple_types@PAVGoal_Evaluator@@@std@@@std@@@std@@QBEABQAVGoal_Evaluator@@XZ ; std::_Vector_const_iterator<std::_Vector_val<std::_Simple_types<Goal_Evaluator *> > >::operator*
	mov	edx, DWORD PTR [eax]
	mov	DWORD PTR tv88[ebp], edx
	mov	esi, esp
	mov	eax, DWORD PTR _this$[ebp]
	mov	ecx, DWORD PTR [eax+8]
	push	ecx
	cvtsi2sd xmm0, DWORD PTR _top$[ebp]
	sub	esp, 8
	movsd	QWORD PTR [esp], xmm0
	cvtsi2sd xmm0, DWORD PTR _left$[ebp]
	sub	esp, 8
	movsd	QWORD PTR [esp], xmm0
	lea	ecx, DWORD PTR $T2[ebp]
	call	??0Vector2D@@QAE@NN@Z			; Vector2D::Vector2D
	sub	esp, 16					; 00000010H
	mov	edx, esp
	mov	ecx, DWORD PTR [eax]
	mov	DWORD PTR [edx], ecx
	mov	ecx, DWORD PTR [eax+4]
	mov	DWORD PTR [edx+4], ecx
	mov	ecx, DWORD PTR [eax+8]
	mov	DWORD PTR [edx+8], ecx
	mov	eax, DWORD PTR [eax+12]
	mov	DWORD PTR [edx+12], eax
	mov	ecx, DWORD PTR tv88[ebp]
	mov	edx, DWORD PTR [ecx]
	mov	ecx, DWORD PTR tv88[ebp]
	mov	eax, DWORD PTR [edx+12]
	call	eax
	cmp	esi, esp
	call	__RTC_CheckEsp

; 188  : 
; 189  :     left += 75;

	mov	ecx, DWORD PTR _left$[ebp]
	add	ecx, 75					; 0000004bH
	mov	DWORD PTR _left$[ebp], ecx

; 190  :   }

	jmp	$LN2@RenderEval
$LN3@RenderEval:

; 191  : }

	mov	DWORD PTR __$EHRec$[ebp+8], -1
	lea	ecx, DWORD PTR _curDes$[ebp]
	call	??1?$_Vector_const_iterator@V?$_Vector_val@U?$_Simple_types@PAVGoal_Evaluator@@@std@@@std@@@std@@QAE@XZ
	push	edx
	mov	ecx, ebp
	push	eax
	lea	edx, DWORD PTR $LN11@RenderEval
	call	@_RTC_CheckStackVars@8
	pop	eax
	pop	edx
	mov	ecx, DWORD PTR __$EHRec$[ebp]
	mov	DWORD PTR fs:0, ecx
	pop	ecx
	pop	edi
	pop	esi
	add	esp, 80					; 00000050H
	cmp	ebp, esp
	call	__RTC_CheckEsp
	mov	esp, ebp
	pop	ebp
	ret	8
	npad	2
$LN11@RenderEval:
	DD	1
	DD	$LN10@RenderEval
$LN10@RenderEval:
	DD	-32					; ffffffe0H
	DD	12					; 0000000cH
	DD	$LN8@RenderEval
$LN8@RenderEval:
	DB	99					; 00000063H
	DB	117					; 00000075H
	DB	114					; 00000072H
	DB	68					; 00000044H
	DB	101					; 00000065H
	DB	115					; 00000073H
	DB	0
_TEXT	ENDS
text$x	SEGMENT
__unwindfunclet$?RenderEvaluations@Goal_Think@@QBEXHH@Z$0:
	lea	ecx, DWORD PTR _curDes$[ebp]
	jmp	??1?$_Vector_const_iterator@V?$_Vector_val@U?$_Simple_types@PAVGoal_Evaluator@@@std@@@std@@@std@@QAE@XZ
__unwindfunclet$?RenderEvaluations@Goal_Think@@QBEXHH@Z$1:
	lea	ecx, DWORD PTR $T3[ebp]
	jmp	??1?$_Vector_const_iterator@V?$_Vector_val@U?$_Simple_types@PAVGoal_Evaluator@@@std@@@std@@@std@@QAE@XZ
__ehhandler$?RenderEvaluations@Goal_Think@@QBEXHH@Z:
	mov	edx, DWORD PTR [esp+8]
	lea	eax, DWORD PTR [edx+12]
	mov	ecx, DWORD PTR [edx-80]
	xor	ecx, eax
	call	@__security_check_cookie@4
	mov	eax, OFFSET __ehfuncinfo$?RenderEvaluations@Goal_Think@@QBEXHH@Z
	jmp	___CxxFrameHandler3
text$x	ENDS
?RenderEvaluations@Goal_Think@@QBEXHH@Z ENDP		; Goal_Think::RenderEvaluations
; Function compile flags: /Odtp /RTCsu
; File c:\users\utilisateur\documents\github\8iar125-projetraven\vs2015\buckland_chapter7 to 10_raven\goals\goal_think.cpp
_TEXT	SEGMENT
tv91 = -32						; size = 4
$T2 = -28						; size = 4
$T3 = -24						; size = 4
$T4 = -20						; size = 4
_this$ = -16						; size = 4
__$EHRec$ = -12						; size = 12
_pos$ = 8						; size = 16
?QueueGoal_MoveToPosition@Goal_Think@@QAEXUVector2D@@@Z PROC ; Goal_Think::QueueGoal_MoveToPosition
; _this$ = ecx

; 172  : {

	push	ebp
	mov	ebp, esp
	push	-1
	push	__ehhandler$?QueueGoal_MoveToPosition@Goal_Think@@QAEXUVector2D@@@Z
	mov	eax, DWORD PTR fs:0
	push	eax
	sub	esp, 20					; 00000014H
	mov	eax, -858993460				; ccccccccH
	mov	DWORD PTR [ebp-32], eax
	mov	DWORD PTR [ebp-28], eax
	mov	DWORD PTR [ebp-24], eax
	mov	DWORD PTR [ebp-20], eax
	mov	DWORD PTR [ebp-16], eax
	mov	eax, DWORD PTR ___security_cookie
	xor	eax, ebp
	push	eax
	lea	eax, DWORD PTR __$EHRec$[ebp]
	mov	DWORD PTR fs:0, eax
	mov	DWORD PTR _this$[ebp], ecx

; 173  :    m_SubGoals.push_back(new Goal_MoveToPosition(m_pOwner, pos));

	push	48					; 00000030H
	call	??2@YAPAXI@Z				; operator new
	add	esp, 4
	mov	DWORD PTR $T2[ebp], eax
	mov	DWORD PTR __$EHRec$[ebp+8], 0
	cmp	DWORD PTR $T2[ebp], 0
	je	SHORT $LN3@QueueGoal_
	sub	esp, 16					; 00000010H
	mov	eax, esp
	mov	ecx, DWORD PTR _pos$[ebp]
	mov	DWORD PTR [eax], ecx
	mov	edx, DWORD PTR _pos$[ebp+4]
	mov	DWORD PTR [eax+4], edx
	mov	ecx, DWORD PTR _pos$[ebp+8]
	mov	DWORD PTR [eax+8], ecx
	mov	edx, DWORD PTR _pos$[ebp+12]
	mov	DWORD PTR [eax+12], edx
	mov	eax, DWORD PTR _this$[ebp]
	mov	ecx, DWORD PTR [eax+8]
	push	ecx
	mov	ecx, DWORD PTR $T2[ebp]
	call	??0Goal_MoveToPosition@@QAE@PAVRaven_Bot@@UVector2D@@@Z ; Goal_MoveToPosition::Goal_MoveToPosition
	mov	DWORD PTR tv91[ebp], eax
	jmp	SHORT $LN4@QueueGoal_
$LN3@QueueGoal_:
	mov	DWORD PTR tv91[ebp], 0
$LN4@QueueGoal_:
	mov	edx, DWORD PTR tv91[ebp]
	mov	DWORD PTR $T3[ebp], edx
	mov	DWORD PTR __$EHRec$[ebp+8], -1
	mov	eax, DWORD PTR $T3[ebp]
	mov	DWORD PTR $T4[ebp], eax
	lea	ecx, DWORD PTR $T4[ebp]
	push	ecx
	mov	ecx, DWORD PTR _this$[ebp]
	add	ecx, 16					; 00000010H
	call	?push_back@?$list@PAV?$Goal@VRaven_Bot@@@@V?$allocator@PAV?$Goal@VRaven_Bot@@@@@std@@@std@@QAEX$$QAPAV?$Goal@VRaven_Bot@@@@@Z ; std::list<Goal<Raven_Bot> *,std::allocator<Goal<Raven_Bot> *> >::push_back

; 174  : }

	mov	ecx, DWORD PTR __$EHRec$[ebp]
	mov	DWORD PTR fs:0, ecx
	pop	ecx
	add	esp, 32					; 00000020H
	cmp	ebp, esp
	call	__RTC_CheckEsp
	mov	esp, ebp
	pop	ebp
	ret	16					; 00000010H
_TEXT	ENDS
text$x	SEGMENT
__unwindfunclet$?QueueGoal_MoveToPosition@Goal_Think@@QAEXUVector2D@@@Z$0:
	push	48					; 00000030H
	mov	eax, DWORD PTR $T2[ebp]
	push	eax
	call	??3@YAXPAXI@Z				; operator delete
	add	esp, 8
	ret	0
__ehhandler$?QueueGoal_MoveToPosition@Goal_Think@@QAEXUVector2D@@@Z:
	mov	edx, DWORD PTR [esp+8]
	lea	eax, DWORD PTR [edx+12]
	mov	ecx, DWORD PTR [edx-24]
	xor	ecx, eax
	call	@__security_check_cookie@4
	mov	eax, OFFSET __ehfuncinfo$?QueueGoal_MoveToPosition@Goal_Think@@QAEXUVector2D@@@Z
	jmp	___CxxFrameHandler3
text$x	ENDS
?QueueGoal_MoveToPosition@Goal_Think@@QAEXUVector2D@@@Z ENDP ; Goal_Think::QueueGoal_MoveToPosition
; Function compile flags: /Odtp /RTCsu
; File c:\users\utilisateur\documents\github\8iar125-projetraven\vs2015\buckland_chapter7 to 10_raven\goals\goal_think.cpp
_TEXT	SEGMENT
tv133 = -28						; size = 4
$T2 = -24						; size = 4
$T3 = -20						; size = 4
_this$ = -16						; size = 4
__$EHRec$ = -12						; size = 12
?AddGoal_AttackTarget@Goal_Think@@QAEXXZ PROC		; Goal_Think::AddGoal_AttackTarget
; _this$ = ecx

; 161  : {

	push	ebp
	mov	ebp, esp
	push	-1
	push	__ehhandler$?AddGoal_AttackTarget@Goal_Think@@QAEXXZ
	mov	eax, DWORD PTR fs:0
	push	eax
	sub	esp, 16					; 00000010H
	push	esi
	mov	eax, -858993460				; ccccccccH
	mov	DWORD PTR [ebp-28], eax
	mov	DWORD PTR [ebp-24], eax
	mov	DWORD PTR [ebp-20], eax
	mov	DWORD PTR [ebp-16], eax
	mov	eax, DWORD PTR ___security_cookie
	xor	eax, ebp
	push	eax
	lea	eax, DWORD PTR __$EHRec$[ebp]
	mov	DWORD PTR fs:0, eax
	mov	DWORD PTR _this$[ebp], ecx

; 162  :   if (notPresent(goal_attack_target))

	push	13					; 0000000dH
	mov	ecx, DWORD PTR _this$[ebp]
	call	?notPresent@Goal_Think@@QBE_NI@Z	; Goal_Think::notPresent
	movzx	eax, al
	test	eax, eax
	je	SHORT $LN1@AddGoal_At

; 163  :   {
; 164  :     RemoveAllSubgoals();

	mov	ecx, DWORD PTR _this$[ebp]
	call	?RemoveAllSubgoals@?$Goal_Composite@VRaven_Bot@@@@QAEXXZ ; Goal_Composite<Raven_Bot>::RemoveAllSubgoals

; 165  :     AddSubgoal( new Goal_AttackTarget(m_pOwner));

	push	28					; 0000001cH
	call	??2@YAPAXI@Z				; operator new
	add	esp, 4
	mov	DWORD PTR $T2[ebp], eax
	mov	DWORD PTR __$EHRec$[ebp+8], 0
	cmp	DWORD PTR $T2[ebp], 0
	je	SHORT $LN4@AddGoal_At
	mov	ecx, DWORD PTR _this$[ebp]
	mov	edx, DWORD PTR [ecx+8]
	push	edx
	mov	ecx, DWORD PTR $T2[ebp]
	call	??0Goal_AttackTarget@@QAE@PAVRaven_Bot@@@Z ; Goal_AttackTarget::Goal_AttackTarget
	mov	DWORD PTR tv133[ebp], eax
	jmp	SHORT $LN5@AddGoal_At
$LN4@AddGoal_At:
	mov	DWORD PTR tv133[ebp], 0
$LN5@AddGoal_At:
	mov	eax, DWORD PTR tv133[ebp]
	mov	DWORD PTR $T3[ebp], eax
	mov	DWORD PTR __$EHRec$[ebp+8], -1
	mov	esi, esp
	mov	ecx, DWORD PTR $T3[ebp]
	push	ecx
	mov	edx, DWORD PTR _this$[ebp]
	mov	eax, DWORD PTR [edx]
	mov	ecx, DWORD PTR _this$[ebp]
	mov	edx, DWORD PTR [eax+20]
	call	edx
	cmp	esi, esp
	call	__RTC_CheckEsp
$LN1@AddGoal_At:

; 166  :   }
; 167  : }

	mov	ecx, DWORD PTR __$EHRec$[ebp]
	mov	DWORD PTR fs:0, ecx
	pop	ecx
	pop	esi
	add	esp, 28					; 0000001cH
	cmp	ebp, esp
	call	__RTC_CheckEsp
	mov	esp, ebp
	pop	ebp
	ret	0
_TEXT	ENDS
text$x	SEGMENT
__unwindfunclet$?AddGoal_AttackTarget@Goal_Think@@QAEXXZ$0:
	push	28					; 0000001cH
	mov	eax, DWORD PTR $T2[ebp]
	push	eax
	call	??3@YAXPAXI@Z				; operator delete
	add	esp, 8
	ret	0
__ehhandler$?AddGoal_AttackTarget@Goal_Think@@QAEXXZ:
	mov	edx, DWORD PTR [esp+8]
	lea	eax, DWORD PTR [edx+12]
	mov	ecx, DWORD PTR [edx-24]
	xor	ecx, eax
	call	@__security_check_cookie@4
	mov	eax, OFFSET __ehfuncinfo$?AddGoal_AttackTarget@Goal_Think@@QAEXXZ
	jmp	___CxxFrameHandler3
text$x	ENDS
?AddGoal_AttackTarget@Goal_Think@@QAEXXZ ENDP		; Goal_Think::AddGoal_AttackTarget
; Function compile flags: /Odtp /RTCsu
; File c:\users\utilisateur\documents\github\8iar125-projetraven\vs2015\buckland_chapter7 to 10_raven\goals\goal_think.cpp
_TEXT	SEGMENT
tv133 = -28						; size = 4
$T2 = -24						; size = 4
$T3 = -20						; size = 4
_this$ = -16						; size = 4
__$EHRec$ = -12						; size = 12
?AddGoal_Explore@Goal_Think@@QAEXXZ PROC		; Goal_Think::AddGoal_Explore
; _this$ = ecx

; 143  : {

	push	ebp
	mov	ebp, esp
	push	-1
	push	__ehhandler$?AddGoal_Explore@Goal_Think@@QAEXXZ
	mov	eax, DWORD PTR fs:0
	push	eax
	sub	esp, 16					; 00000010H
	push	esi
	mov	eax, -858993460				; ccccccccH
	mov	DWORD PTR [ebp-28], eax
	mov	DWORD PTR [ebp-24], eax
	mov	DWORD PTR [ebp-20], eax
	mov	DWORD PTR [ebp-16], eax
	mov	eax, DWORD PTR ___security_cookie
	xor	eax, ebp
	push	eax
	lea	eax, DWORD PTR __$EHRec$[ebp]
	mov	DWORD PTR fs:0, eax
	mov	DWORD PTR _this$[ebp], ecx

; 144  :   if (notPresent(goal_explore))

	push	1
	mov	ecx, DWORD PTR _this$[ebp]
	call	?notPresent@Goal_Think@@QBE_NI@Z	; Goal_Think::notPresent
	movzx	eax, al
	test	eax, eax
	je	SHORT $LN1@AddGoal_Ex

; 145  :   {
; 146  :     RemoveAllSubgoals();

	mov	ecx, DWORD PTR _this$[ebp]
	call	?RemoveAllSubgoals@?$Goal_Composite@VRaven_Bot@@@@QAEXXZ ; Goal_Composite<Raven_Bot>::RemoveAllSubgoals

; 147  :     AddSubgoal( new Goal_Explore(m_pOwner));

	push	56					; 00000038H
	call	??2@YAPAXI@Z				; operator new
	add	esp, 4
	mov	DWORD PTR $T2[ebp], eax
	mov	DWORD PTR __$EHRec$[ebp+8], 0
	cmp	DWORD PTR $T2[ebp], 0
	je	SHORT $LN4@AddGoal_Ex
	mov	ecx, DWORD PTR _this$[ebp]
	mov	edx, DWORD PTR [ecx+8]
	push	edx
	mov	ecx, DWORD PTR $T2[ebp]
	call	??0Goal_Explore@@QAE@PAVRaven_Bot@@@Z	; Goal_Explore::Goal_Explore
	mov	DWORD PTR tv133[ebp], eax
	jmp	SHORT $LN5@AddGoal_Ex
$LN4@AddGoal_Ex:
	mov	DWORD PTR tv133[ebp], 0
$LN5@AddGoal_Ex:
	mov	eax, DWORD PTR tv133[ebp]
	mov	DWORD PTR $T3[ebp], eax
	mov	DWORD PTR __$EHRec$[ebp+8], -1
	mov	esi, esp
	mov	ecx, DWORD PTR $T3[ebp]
	push	ecx
	mov	edx, DWORD PTR _this$[ebp]
	mov	eax, DWORD PTR [edx]
	mov	ecx, DWORD PTR _this$[ebp]
	mov	edx, DWORD PTR [eax+20]
	call	edx
	cmp	esi, esp
	call	__RTC_CheckEsp
$LN1@AddGoal_Ex:

; 148  :   }
; 149  : }

	mov	ecx, DWORD PTR __$EHRec$[ebp]
	mov	DWORD PTR fs:0, ecx
	pop	ecx
	pop	esi
	add	esp, 28					; 0000001cH
	cmp	ebp, esp
	call	__RTC_CheckEsp
	mov	esp, ebp
	pop	ebp
	ret	0
_TEXT	ENDS
text$x	SEGMENT
__unwindfunclet$?AddGoal_Explore@Goal_Think@@QAEXXZ$0:
	push	56					; 00000038H
	mov	eax, DWORD PTR $T2[ebp]
	push	eax
	call	??3@YAXPAXI@Z				; operator delete
	add	esp, 8
	ret	0
__ehhandler$?AddGoal_Explore@Goal_Think@@QAEXXZ:
	mov	edx, DWORD PTR [esp+8]
	lea	eax, DWORD PTR [edx+12]
	mov	ecx, DWORD PTR [edx-24]
	xor	ecx, eax
	call	@__security_check_cookie@4
	mov	eax, OFFSET __ehfuncinfo$?AddGoal_Explore@Goal_Think@@QAEXXZ
	jmp	___CxxFrameHandler3
text$x	ENDS
?AddGoal_Explore@Goal_Think@@QAEXXZ ENDP		; Goal_Think::AddGoal_Explore
; Function compile flags: /Odtp /RTCsu
; File c:\users\utilisateur\documents\github\8iar125-projetraven\vs2015\buckland_chapter7 to 10_raven\goals\goal_think.cpp
_TEXT	SEGMENT
tv136 = -28						; size = 4
$T2 = -24						; size = 4
$T3 = -20						; size = 4
_this$ = -16						; size = 4
__$EHRec$ = -12						; size = 12
_ItemType$ = 8						; size = 4
?AddGoal_GetItem@Goal_Think@@QAEXI@Z PROC		; Goal_Think::AddGoal_GetItem
; _this$ = ecx

; 152  : {

	push	ebp
	mov	ebp, esp
	push	-1
	push	__ehhandler$?AddGoal_GetItem@Goal_Think@@QAEXI@Z
	mov	eax, DWORD PTR fs:0
	push	eax
	sub	esp, 16					; 00000010H
	push	esi
	mov	eax, -858993460				; ccccccccH
	mov	DWORD PTR [ebp-28], eax
	mov	DWORD PTR [ebp-24], eax
	mov	DWORD PTR [ebp-20], eax
	mov	DWORD PTR [ebp-16], eax
	mov	eax, DWORD PTR ___security_cookie
	xor	eax, ebp
	push	eax
	lea	eax, DWORD PTR __$EHRec$[ebp]
	mov	DWORD PTR fs:0, eax
	mov	DWORD PTR _this$[ebp], ecx

; 153  :   if (notPresent(ItemTypeToGoalType(ItemType)))

	mov	eax, DWORD PTR _ItemType$[ebp]
	push	eax
	call	?ItemTypeToGoalType@@YAHH@Z		; ItemTypeToGoalType
	add	esp, 4
	push	eax
	mov	ecx, DWORD PTR _this$[ebp]
	call	?notPresent@Goal_Think@@QBE_NI@Z	; Goal_Think::notPresent
	movzx	ecx, al
	test	ecx, ecx
	je	SHORT $LN1@AddGoal_Ge

; 154  :   {
; 155  :     RemoveAllSubgoals();

	mov	ecx, DWORD PTR _this$[ebp]
	call	?RemoveAllSubgoals@?$Goal_Composite@VRaven_Bot@@@@QAEXXZ ; Goal_Composite<Raven_Bot>::RemoveAllSubgoals

; 156  :     AddSubgoal( new Goal_GetItem(m_pOwner, ItemType));

	push	40					; 00000028H
	call	??2@YAPAXI@Z				; operator new
	add	esp, 4
	mov	DWORD PTR $T2[ebp], eax
	mov	DWORD PTR __$EHRec$[ebp+8], 0
	cmp	DWORD PTR $T2[ebp], 0
	je	SHORT $LN4@AddGoal_Ge
	mov	edx, DWORD PTR _ItemType$[ebp]
	push	edx
	mov	eax, DWORD PTR _this$[ebp]
	mov	ecx, DWORD PTR [eax+8]
	push	ecx
	mov	ecx, DWORD PTR $T2[ebp]
	call	??0Goal_GetItem@@QAE@PAVRaven_Bot@@H@Z	; Goal_GetItem::Goal_GetItem
	mov	DWORD PTR tv136[ebp], eax
	jmp	SHORT $LN5@AddGoal_Ge
$LN4@AddGoal_Ge:
	mov	DWORD PTR tv136[ebp], 0
$LN5@AddGoal_Ge:
	mov	edx, DWORD PTR tv136[ebp]
	mov	DWORD PTR $T3[ebp], edx
	mov	DWORD PTR __$EHRec$[ebp+8], -1
	mov	esi, esp
	mov	eax, DWORD PTR $T3[ebp]
	push	eax
	mov	ecx, DWORD PTR _this$[ebp]
	mov	edx, DWORD PTR [ecx]
	mov	ecx, DWORD PTR _this$[ebp]
	mov	eax, DWORD PTR [edx+20]
	call	eax
	cmp	esi, esp
	call	__RTC_CheckEsp
$LN1@AddGoal_Ge:

; 157  :   }
; 158  : }

	mov	ecx, DWORD PTR __$EHRec$[ebp]
	mov	DWORD PTR fs:0, ecx
	pop	ecx
	pop	esi
	add	esp, 28					; 0000001cH
	cmp	ebp, esp
	call	__RTC_CheckEsp
	mov	esp, ebp
	pop	ebp
	ret	4
_TEXT	ENDS
text$x	SEGMENT
__unwindfunclet$?AddGoal_GetItem@Goal_Think@@QAEXI@Z$0:
	push	40					; 00000028H
	mov	eax, DWORD PTR $T2[ebp]
	push	eax
	call	??3@YAXPAXI@Z				; operator delete
	add	esp, 8
	ret	0
__ehhandler$?AddGoal_GetItem@Goal_Think@@QAEXI@Z:
	mov	edx, DWORD PTR [esp+8]
	lea	eax, DWORD PTR [edx+12]
	mov	ecx, DWORD PTR [edx-24]
	xor	ecx, eax
	call	@__security_check_cookie@4
	mov	eax, OFFSET __ehfuncinfo$?AddGoal_GetItem@Goal_Think@@QAEXI@Z
	jmp	___CxxFrameHandler3
text$x	ENDS
?AddGoal_GetItem@Goal_Think@@QAEXI@Z ENDP		; Goal_Think::AddGoal_GetItem
; Function compile flags: /Odtp /RTCsu
; File c:\users\utilisateur\documents\github\8iar125-projetraven\vs2015\buckland_chapter7 to 10_raven\goals\goal_think.cpp
_TEXT	SEGMENT
tv92 = -28						; size = 4
$T2 = -24						; size = 4
$T3 = -20						; size = 4
_this$ = -16						; size = 4
__$EHRec$ = -12						; size = 12
_pos$ = 8						; size = 16
?AddGoal_MoveToPosition@Goal_Think@@QAEXUVector2D@@@Z PROC ; Goal_Think::AddGoal_MoveToPosition
; _this$ = ecx

; 138  : {

	push	ebp
	mov	ebp, esp
	push	-1
	push	__ehhandler$?AddGoal_MoveToPosition@Goal_Think@@QAEXUVector2D@@@Z
	mov	eax, DWORD PTR fs:0
	push	eax
	sub	esp, 16					; 00000010H
	push	esi
	mov	eax, -858993460				; ccccccccH
	mov	DWORD PTR [ebp-28], eax
	mov	DWORD PTR [ebp-24], eax
	mov	DWORD PTR [ebp-20], eax
	mov	DWORD PTR [ebp-16], eax
	mov	eax, DWORD PTR ___security_cookie
	xor	eax, ebp
	push	eax
	lea	eax, DWORD PTR __$EHRec$[ebp]
	mov	DWORD PTR fs:0, eax
	mov	DWORD PTR _this$[ebp], ecx

; 139  :   AddSubgoal( new Goal_MoveToPosition(m_pOwner, pos));

	push	48					; 00000030H
	call	??2@YAPAXI@Z				; operator new
	add	esp, 4
	mov	DWORD PTR $T2[ebp], eax
	mov	DWORD PTR __$EHRec$[ebp+8], 0
	cmp	DWORD PTR $T2[ebp], 0
	je	SHORT $LN3@AddGoal_Mo
	sub	esp, 16					; 00000010H
	mov	eax, esp
	mov	ecx, DWORD PTR _pos$[ebp]
	mov	DWORD PTR [eax], ecx
	mov	edx, DWORD PTR _pos$[ebp+4]
	mov	DWORD PTR [eax+4], edx
	mov	ecx, DWORD PTR _pos$[ebp+8]
	mov	DWORD PTR [eax+8], ecx
	mov	edx, DWORD PTR _pos$[ebp+12]
	mov	DWORD PTR [eax+12], edx
	mov	eax, DWORD PTR _this$[ebp]
	mov	ecx, DWORD PTR [eax+8]
	push	ecx
	mov	ecx, DWORD PTR $T2[ebp]
	call	??0Goal_MoveToPosition@@QAE@PAVRaven_Bot@@UVector2D@@@Z ; Goal_MoveToPosition::Goal_MoveToPosition
	mov	DWORD PTR tv92[ebp], eax
	jmp	SHORT $LN4@AddGoal_Mo
$LN3@AddGoal_Mo:
	mov	DWORD PTR tv92[ebp], 0
$LN4@AddGoal_Mo:
	mov	edx, DWORD PTR tv92[ebp]
	mov	DWORD PTR $T3[ebp], edx
	mov	DWORD PTR __$EHRec$[ebp+8], -1
	mov	esi, esp
	mov	eax, DWORD PTR $T3[ebp]
	push	eax
	mov	ecx, DWORD PTR _this$[ebp]
	mov	edx, DWORD PTR [ecx]
	mov	ecx, DWORD PTR _this$[ebp]
	mov	eax, DWORD PTR [edx+20]
	call	eax
	cmp	esi, esp
	call	__RTC_CheckEsp

; 140  : }

	mov	ecx, DWORD PTR __$EHRec$[ebp]
	mov	DWORD PTR fs:0, ecx
	pop	ecx
	pop	esi
	add	esp, 28					; 0000001cH
	cmp	ebp, esp
	call	__RTC_CheckEsp
	mov	esp, ebp
	pop	ebp
	ret	16					; 00000010H
_TEXT	ENDS
text$x	SEGMENT
__unwindfunclet$?AddGoal_MoveToPosition@Goal_Think@@QAEXUVector2D@@@Z$0:
	push	48					; 00000030H
	mov	eax, DWORD PTR $T2[ebp]
	push	eax
	call	??3@YAXPAXI@Z				; operator delete
	add	esp, 8
	ret	0
__ehhandler$?AddGoal_MoveToPosition@Goal_Think@@QAEXUVector2D@@@Z:
	mov	edx, DWORD PTR [esp+8]
	lea	eax, DWORD PTR [edx+12]
	mov	ecx, DWORD PTR [edx-24]
	xor	ecx, eax
	call	@__security_check_cookie@4
	mov	eax, OFFSET __ehfuncinfo$?AddGoal_MoveToPosition@Goal_Think@@QAEXUVector2D@@@Z
	jmp	___CxxFrameHandler3
text$x	ENDS
?AddGoal_MoveToPosition@Goal_Think@@QAEXUVector2D@@@Z ENDP ; Goal_Think::AddGoal_MoveToPosition
; Function compile flags: /Odtp /RTCsu
; File c:\users\utilisateur\documents\github\8iar125-projetraven\vs2015\buckland_chapter7 to 10_raven\goals\goal_think.h
;	COMDAT ?Terminate@Goal_Think@@UAEXXZ
_TEXT	SEGMENT
_this$ = -4						; size = 4
?Terminate@Goal_Think@@UAEXXZ PROC			; Goal_Think::Terminate, COMDAT
; _this$ = ecx

; 47   :   void Terminate(){}

	push	ebp
	mov	ebp, esp
	push	ecx
	mov	DWORD PTR [ebp-4], -858993460		; ccccccccH
	mov	DWORD PTR _this$[ebp], ecx
	mov	esp, ebp
	pop	ebp
	ret	0
?Terminate@Goal_Think@@UAEXXZ ENDP			; Goal_Think::Terminate
_TEXT	ENDS
; Function compile flags: /Odtp /RTCsu
; File c:\users\utilisateur\documents\github\8iar125-projetraven\vs2015\buckland_chapter7 to 10_raven\goals\goal_think.cpp
_TEXT	SEGMENT
_this$ = -4						; size = 4
?Activate@Goal_Think@@UAEXXZ PROC			; Goal_Think::Activate
; _this$ = ecx

; 63   : {

	push	ebp
	mov	ebp, esp
	push	ecx
	mov	DWORD PTR [ebp-4], -858993460		; ccccccccH
	mov	DWORD PTR _this$[ebp], ecx

; 64   :   if (!m_pOwner->isPossessed())

	mov	eax, DWORD PTR _this$[ebp]
	mov	ecx, DWORD PTR [eax+8]
	call	?isPossessed@Raven_Bot@@QBE_NXZ		; Raven_Bot::isPossessed
	movzx	ecx, al
	test	ecx, ecx
	jne	SHORT $LN2@Activate

; 65   :   {
; 66   :     Arbitrate();

	mov	ecx, DWORD PTR _this$[ebp]
	call	?Arbitrate@Goal_Think@@QAEXXZ		; Goal_Think::Arbitrate
$LN2@Activate:

; 67   :   }
; 68   : 
; 69   :   m_iStatus = active;

	mov	edx, DWORD PTR _this$[ebp]
	mov	DWORD PTR [edx+12], 0

; 70   : }

	add	esp, 4
	cmp	ebp, esp
	call	__RTC_CheckEsp
	mov	esp, ebp
	pop	ebp
	ret	0
?Activate@Goal_Think@@UAEXXZ ENDP			; Goal_Think::Activate
_TEXT	ENDS
; Function compile flags: /Odtp /RTCsu
; File c:\users\utilisateur\documents\github\8iar125-projetraven\vs2015\buckland_chapter7 to 10_raven\goals\goal_think.cpp
_TEXT	SEGMENT
_SubgoalStatus$ = -8					; size = 4
_this$ = -4						; size = 4
?Process@Goal_Think@@UAEHXZ PROC			; Goal_Think::Process
; _this$ = ecx

; 77   : {

	push	ebp
	mov	ebp, esp
	sub	esp, 8
	mov	DWORD PTR [ebp-8], -858993460		; ccccccccH
	mov	DWORD PTR [ebp-4], -858993460		; ccccccccH
	mov	DWORD PTR _this$[ebp], ecx

; 78   :   ActivateIfInactive();

	mov	ecx, DWORD PTR _this$[ebp]
	call	?ActivateIfInactive@?$Goal@VRaven_Bot@@@@IAEXXZ ; Goal<Raven_Bot>::ActivateIfInactive

; 79   :   
; 80   :   int SubgoalStatus = ProcessSubgoals();

	mov	ecx, DWORD PTR _this$[ebp]
	call	?ProcessSubgoals@?$Goal_Composite@VRaven_Bot@@@@IAEHXZ ; Goal_Composite<Raven_Bot>::ProcessSubgoals
	mov	DWORD PTR _SubgoalStatus$[ebp], eax

; 81   : 
; 82   :   if (SubgoalStatus == completed || SubgoalStatus == failed)

	cmp	DWORD PTR _SubgoalStatus$[ebp], 2
	je	SHORT $LN3@Process
	cmp	DWORD PTR _SubgoalStatus$[ebp], 3
	jne	SHORT $LN2@Process
$LN3@Process:

; 83   :   {
; 84   :     if (!m_pOwner->isPossessed())

	mov	eax, DWORD PTR _this$[ebp]
	mov	ecx, DWORD PTR [eax+8]
	call	?isPossessed@Raven_Bot@@QBE_NXZ		; Raven_Bot::isPossessed
	movzx	ecx, al
	test	ecx, ecx
	jne	SHORT $LN2@Process

; 85   :     {
; 86   :       m_iStatus = inactive;

	mov	edx, DWORD PTR _this$[ebp]
	mov	DWORD PTR [edx+12], 1
$LN2@Process:

; 87   :     }
; 88   :   }
; 89   : 
; 90   :   return m_iStatus;

	mov	eax, DWORD PTR _this$[ebp]
	mov	eax, DWORD PTR [eax+12]

; 91   : }

	add	esp, 8
	cmp	ebp, esp
	call	__RTC_CheckEsp
	mov	esp, ebp
	pop	ebp
	ret	0
?Process@Goal_Think@@UAEHXZ ENDP			; Goal_Think::Process
_TEXT	ENDS
; Function compile flags: /Odtp /RTCsu
; File c:\users\utilisateur\documents\github\8iar125-projetraven\vs2015\buckland_chapter7 to 10_raven\goals\goal_think.cpp
_TEXT	SEGMENT
tv83 = -8						; size = 4
_this$ = -4						; size = 4
_GoalType$ = 8						; size = 4
?notPresent@Goal_Think@@QBE_NI@Z PROC			; Goal_Think::notPresent
; _this$ = ecx

; 128  : {

	push	ebp
	mov	ebp, esp
	sub	esp, 8
	mov	DWORD PTR [ebp-8], -858993460		; ccccccccH
	mov	DWORD PTR [ebp-4], -858993460		; ccccccccH
	mov	DWORD PTR _this$[ebp], ecx

; 129  :   if (!m_SubGoals.empty())

	mov	ecx, DWORD PTR _this$[ebp]
	add	ecx, 16					; 00000010H
	call	?empty@?$list@PAV?$Goal@VRaven_Bot@@@@V?$allocator@PAV?$Goal@VRaven_Bot@@@@@std@@@std@@QBE_NXZ ; std::list<Goal<Raven_Bot> *,std::allocator<Goal<Raven_Bot> *> >::empty
	movzx	eax, al
	test	eax, eax
	jne	SHORT $LN2@notPresent

; 130  :   {
; 131  :     return m_SubGoals.front()->GetType() != GoalType;

	mov	ecx, DWORD PTR _this$[ebp]
	add	ecx, 16					; 00000010H
	call	?front@?$list@PAV?$Goal@VRaven_Bot@@@@V?$allocator@PAV?$Goal@VRaven_Bot@@@@@std@@@std@@QBEABQAV?$Goal@VRaven_Bot@@@@XZ ; std::list<Goal<Raven_Bot> *,std::allocator<Goal<Raven_Bot> *> >::front
	mov	ecx, DWORD PTR [eax]
	call	?GetType@?$Goal@VRaven_Bot@@@@QBEHXZ	; Goal<Raven_Bot>::GetType
	cmp	eax, DWORD PTR _GoalType$[ebp]
	je	SHORT $LN4@notPresent
	mov	DWORD PTR tv83[ebp], 1
	jmp	SHORT $LN5@notPresent
$LN4@notPresent:
	mov	DWORD PTR tv83[ebp], 0
$LN5@notPresent:
	mov	al, BYTE PTR tv83[ebp]
	jmp	SHORT $LN1@notPresent
$LN2@notPresent:

; 132  :   }
; 133  : 
; 134  :   return true;

	mov	al, 1
$LN1@notPresent:

; 135  : }

	add	esp, 8
	cmp	ebp, esp
	call	__RTC_CheckEsp
	mov	esp, ebp
	pop	ebp
	ret	4
?notPresent@Goal_Think@@QBE_NI@Z ENDP			; Goal_Think::notPresent
_TEXT	ENDS
; Function compile flags: /Odtp /RTCsu
; File c:\users\utilisateur\documents\github\8iar125-projetraven\vs2015\buckland_chapter7 to 10_raven\goals\goal_think.cpp
_TEXT	SEGMENT
tv93 = -84						; size = 4
tv155 = -80						; size = 4
tv66 = -76						; size = 4
$T2 = -72						; size = 12
$T3 = -57						; size = 1
_desirabilty$4 = -56					; size = 8
_curDes$ = -44						; size = 12
_MostDesirable$ = -28					; size = 4
_best$ = -24						; size = 8
_this$ = -16						; size = 4
__$EHRec$ = -12						; size = 12
?Arbitrate@Goal_Think@@QAEXXZ PROC			; Goal_Think::Arbitrate
; _this$ = ecx

; 99   : {

	push	ebp
	mov	ebp, esp
	push	-1
	push	__ehhandler$?Arbitrate@Goal_Think@@QAEXXZ
	mov	eax, DWORD PTR fs:0
	push	eax
	sub	esp, 72					; 00000048H
	push	esi
	push	edi
	push	ecx
	lea	edi, DWORD PTR [ebp-84]
	mov	ecx, 18					; 00000012H
	mov	eax, -858993460				; ccccccccH
	rep stosd
	pop	ecx
	mov	eax, DWORD PTR ___security_cookie
	xor	eax, ebp
	push	eax
	lea	eax, DWORD PTR __$EHRec$[ebp]
	mov	DWORD PTR fs:0, eax
	mov	DWORD PTR _this$[ebp], ecx

; 100  :   double best = 0;

	xorps	xmm0, xmm0
	movsd	QWORD PTR _best$[ebp], xmm0

; 101  :   Goal_Evaluator* MostDesirable = 0;

	mov	DWORD PTR _MostDesirable$[ebp], 0

; 102  : 
; 103  :   //iterate through all the evaluators to see which produces the highest score
; 104  :   GoalEvaluators::iterator curDes = m_Evaluators.begin();

	lea	eax, DWORD PTR _curDes$[ebp]
	push	eax
	mov	ecx, DWORD PTR _this$[ebp]
	add	ecx, 28					; 0000001cH
	call	?begin@?$vector@PAVGoal_Evaluator@@V?$allocator@PAVGoal_Evaluator@@@std@@@std@@QAE?AV?$_Vector_iterator@V?$_Vector_val@U?$_Simple_types@PAVGoal_Evaluator@@@std@@@std@@@2@XZ ; std::vector<Goal_Evaluator *,std::allocator<Goal_Evaluator *> >::begin
	mov	DWORD PTR __$EHRec$[ebp+8], 0
	jmp	SHORT $LN4@Arbitrate
$LN2@Arbitrate:

; 105  :   for (curDes; curDes != m_Evaluators.end(); ++curDes)

	lea	ecx, DWORD PTR _curDes$[ebp]
	call	??E?$_Vector_iterator@V?$_Vector_val@U?$_Simple_types@PAVGoal_Evaluator@@@std@@@std@@@std@@QAEAAV01@XZ ; std::_Vector_iterator<std::_Vector_val<std::_Simple_types<Goal_Evaluator *> > >::operator++
$LN4@Arbitrate:
	lea	ecx, DWORD PTR $T2[ebp]
	push	ecx
	mov	ecx, DWORD PTR _this$[ebp]
	add	ecx, 28					; 0000001cH
	call	?end@?$vector@PAVGoal_Evaluator@@V?$allocator@PAVGoal_Evaluator@@@std@@@std@@QAE?AV?$_Vector_iterator@V?$_Vector_val@U?$_Simple_types@PAVGoal_Evaluator@@@std@@@std@@@2@XZ ; std::vector<Goal_Evaluator *,std::allocator<Goal_Evaluator *> >::end
	mov	DWORD PTR tv66[ebp], eax
	mov	edx, DWORD PTR tv66[ebp]
	mov	DWORD PTR tv155[ebp], edx
	mov	BYTE PTR __$EHRec$[ebp+8], 1
	mov	eax, DWORD PTR tv155[ebp]
	push	eax
	lea	ecx, DWORD PTR _curDes$[ebp]
	call	??9?$_Vector_const_iterator@V?$_Vector_val@U?$_Simple_types@PAVGoal_Evaluator@@@std@@@std@@@std@@QBE_NABV01@@Z ; std::_Vector_const_iterator<std::_Vector_val<std::_Simple_types<Goal_Evaluator *> > >::operator!=
	mov	BYTE PTR $T3[ebp], al
	mov	BYTE PTR __$EHRec$[ebp+8], 0
	lea	ecx, DWORD PTR $T2[ebp]
	call	??1?$_Vector_iterator@V?$_Vector_val@U?$_Simple_types@PAVGoal_Evaluator@@@std@@@std@@@std@@QAE@XZ
	movzx	ecx, BYTE PTR $T3[ebp]
	test	ecx, ecx
	je	SHORT $LN3@Arbitrate

; 106  :   {
; 107  :     double desirabilty = (*curDes)->CalculateDesirability(m_pOwner);

	lea	ecx, DWORD PTR _curDes$[ebp]
	call	??D?$_Vector_iterator@V?$_Vector_val@U?$_Simple_types@PAVGoal_Evaluator@@@std@@@std@@@std@@QBEAAPAVGoal_Evaluator@@XZ ; std::_Vector_iterator<std::_Vector_val<std::_Simple_types<Goal_Evaluator *> > >::operator*
	mov	edx, DWORD PTR [eax]
	mov	DWORD PTR tv93[ebp], edx
	mov	esi, esp
	mov	eax, DWORD PTR _this$[ebp]
	mov	ecx, DWORD PTR [eax+8]
	push	ecx
	mov	edx, DWORD PTR tv93[ebp]
	mov	eax, DWORD PTR [edx]
	mov	ecx, DWORD PTR tv93[ebp]
	mov	edx, DWORD PTR [eax+4]
	call	edx
	cmp	esi, esp
	call	__RTC_CheckEsp
	fstp	QWORD PTR _desirabilty$4[ebp]

; 108  : 
; 109  :     if (desirabilty >= best)

	movsd	xmm0, QWORD PTR _desirabilty$4[ebp]
	comisd	xmm0, QWORD PTR _best$[ebp]
	jb	SHORT $LN5@Arbitrate

; 110  :     {
; 111  :       best = desirabilty;

	movsd	xmm0, QWORD PTR _desirabilty$4[ebp]
	movsd	QWORD PTR _best$[ebp], xmm0

; 112  :       MostDesirable = *curDes;

	lea	ecx, DWORD PTR _curDes$[ebp]
	call	??D?$_Vector_iterator@V?$_Vector_val@U?$_Simple_types@PAVGoal_Evaluator@@@std@@@std@@@std@@QBEAAPAVGoal_Evaluator@@XZ ; std::_Vector_iterator<std::_Vector_val<std::_Simple_types<Goal_Evaluator *> > >::operator*
	mov	eax, DWORD PTR [eax]
	mov	DWORD PTR _MostDesirable$[ebp], eax
$LN5@Arbitrate:

; 113  :     }
; 114  :   }

	jmp	$LN2@Arbitrate
$LN3@Arbitrate:

; 115  : 
; 116  :   assert(MostDesirable && "<Goal_Think::Arbitrate>: no evaluator selected");

	cmp	DWORD PTR _MostDesirable$[ebp], 0
	je	SHORT $LN7@Arbitrate
	mov	ecx, OFFSET $SG164597
	test	ecx, ecx
	jne	SHORT $LN8@Arbitrate
$LN7@Arbitrate:
	push	116					; 00000074H
	push	OFFSET $SG164598
	push	OFFSET $SG164599
	call	__wassert
	add	esp, 12					; 0000000cH
$LN8@Arbitrate:

; 117  : 
; 118  :   MostDesirable->SetGoal(m_pOwner);

	mov	esi, esp
	mov	eax, DWORD PTR _this$[ebp]
	mov	ecx, DWORD PTR [eax+8]
	push	ecx
	mov	edx, DWORD PTR _MostDesirable$[ebp]
	mov	eax, DWORD PTR [edx]
	mov	ecx, DWORD PTR _MostDesirable$[ebp]
	mov	edx, DWORD PTR [eax+8]
	call	edx
	cmp	esi, esp
	call	__RTC_CheckEsp

; 119  : }

	mov	DWORD PTR __$EHRec$[ebp+8], -1
	lea	ecx, DWORD PTR _curDes$[ebp]
	call	??1?$_Vector_iterator@V?$_Vector_val@U?$_Simple_types@PAVGoal_Evaluator@@@std@@@std@@@std@@QAE@XZ
	push	edx
	mov	ecx, ebp
	push	eax
	lea	edx, DWORD PTR $LN14@Arbitrate
	call	@_RTC_CheckStackVars@8
	pop	eax
	pop	edx
	mov	ecx, DWORD PTR __$EHRec$[ebp]
	mov	DWORD PTR fs:0, ecx
	pop	ecx
	pop	edi
	pop	esi
	add	esp, 84					; 00000054H
	cmp	ebp, esp
	call	__RTC_CheckEsp
	mov	esp, ebp
	pop	ebp
	ret	0
	npad	3
$LN14@Arbitrate:
	DD	1
	DD	$LN13@Arbitrate
$LN13@Arbitrate:
	DD	-44					; ffffffd4H
	DD	12					; 0000000cH
	DD	$LN11@Arbitrate
$LN11@Arbitrate:
	DB	99					; 00000063H
	DB	117					; 00000075H
	DB	114					; 00000072H
	DB	68					; 00000044H
	DB	101					; 00000065H
	DB	115					; 00000073H
	DB	0
_TEXT	ENDS
text$x	SEGMENT
__unwindfunclet$?Arbitrate@Goal_Think@@QAEXXZ$0:
	lea	ecx, DWORD PTR _curDes$[ebp]
	jmp	??1?$_Vector_iterator@V?$_Vector_val@U?$_Simple_types@PAVGoal_Evaluator@@@std@@@std@@@std@@QAE@XZ
__unwindfunclet$?Arbitrate@Goal_Think@@QAEXXZ$1:
	lea	ecx, DWORD PTR $T2[ebp]
	jmp	??1?$_Vector_iterator@V?$_Vector_val@U?$_Simple_types@PAVGoal_Evaluator@@@std@@@std@@@std@@QAE@XZ
__ehhandler$?Arbitrate@Goal_Think@@QAEXXZ:
	mov	edx, DWORD PTR [esp+8]
	lea	eax, DWORD PTR [edx+12]
	mov	ecx, DWORD PTR [edx-84]
	xor	ecx, eax
	call	@__security_check_cookie@4
	mov	eax, OFFSET __ehfuncinfo$?Arbitrate@Goal_Think@@QAEXXZ
	jmp	___CxxFrameHandler3
text$x	ENDS
?Arbitrate@Goal_Think@@QAEXXZ ENDP			; Goal_Think::Arbitrate
; Function compile flags: /Odtp /RTCsu
; File c:\users\utilisateur\documents\github\8iar125-projetraven\vs2015\buckland_chapter7 to 10_raven\goals\goal_think.cpp
_TEXT	SEGMENT
tv141 = -64						; size = 4
$T2 = -60						; size = 4
$T3 = -56						; size = 4
$T4 = -52						; size = 12
$T5 = -37						; size = 1
_curDes$ = -32						; size = 12
_this$ = -16						; size = 4
__$EHRec$ = -12						; size = 12
??1Goal_Think@@UAE@XZ PROC				; Goal_Think::~Goal_Think
; _this$ = ecx

; 52   : {

	push	ebp
	mov	ebp, esp
	push	-1
	push	__ehhandler$??1Goal_Think@@UAE@XZ
	mov	eax, DWORD PTR fs:0
	push	eax
	sub	esp, 52					; 00000034H
	push	esi
	push	edi
	push	ecx
	lea	edi, DWORD PTR [ebp-64]
	mov	ecx, 13					; 0000000dH
	mov	eax, -858993460				; ccccccccH
	rep stosd
	pop	ecx
	mov	eax, DWORD PTR ___security_cookie
	xor	eax, ebp
	push	eax
	lea	eax, DWORD PTR __$EHRec$[ebp]
	mov	DWORD PTR fs:0, eax
	mov	DWORD PTR _this$[ebp], ecx
	mov	eax, DWORD PTR _this$[ebp]
	mov	DWORD PTR [eax], OFFSET ??_7Goal_Think@@6B@

; 53   :   GoalEvaluators::iterator curDes = m_Evaluators.begin();

	lea	ecx, DWORD PTR _curDes$[ebp]
	push	ecx
	mov	ecx, DWORD PTR _this$[ebp]
	add	ecx, 28					; 0000001cH
	call	?begin@?$vector@PAVGoal_Evaluator@@V?$allocator@PAVGoal_Evaluator@@@std@@@std@@QAE?AV?$_Vector_iterator@V?$_Vector_val@U?$_Simple_types@PAVGoal_Evaluator@@@std@@@std@@@2@XZ ; std::vector<Goal_Evaluator *,std::allocator<Goal_Evaluator *> >::begin
	jmp	SHORT $LN4@Goal_Think
$LN2@Goal_Think:

; 54   :   for (curDes; curDes != m_Evaluators.end(); ++curDes)

	lea	ecx, DWORD PTR _curDes$[ebp]
	call	??E?$_Vector_iterator@V?$_Vector_val@U?$_Simple_types@PAVGoal_Evaluator@@@std@@@std@@@std@@QAEAAV01@XZ ; std::_Vector_iterator<std::_Vector_val<std::_Simple_types<Goal_Evaluator *> > >::operator++
$LN4@Goal_Think:
	lea	edx, DWORD PTR $T4[ebp]
	push	edx
	mov	ecx, DWORD PTR _this$[ebp]
	add	ecx, 28					; 0000001cH
	call	?end@?$vector@PAVGoal_Evaluator@@V?$allocator@PAVGoal_Evaluator@@@std@@@std@@QAE?AV?$_Vector_iterator@V?$_Vector_val@U?$_Simple_types@PAVGoal_Evaluator@@@std@@@std@@@2@XZ ; std::vector<Goal_Evaluator *,std::allocator<Goal_Evaluator *> >::end
	push	eax
	lea	ecx, DWORD PTR _curDes$[ebp]
	call	??9?$_Vector_const_iterator@V?$_Vector_val@U?$_Simple_types@PAVGoal_Evaluator@@@std@@@std@@@std@@QBE_NABV01@@Z ; std::_Vector_const_iterator<std::_Vector_val<std::_Simple_types<Goal_Evaluator *> > >::operator!=
	mov	BYTE PTR $T5[ebp], al
	lea	ecx, DWORD PTR $T4[ebp]
	call	??1?$_Vector_iterator@V?$_Vector_val@U?$_Simple_types@PAVGoal_Evaluator@@@std@@@std@@@std@@QAE@XZ
	movzx	eax, BYTE PTR $T5[ebp]
	test	eax, eax
	je	SHORT $LN3@Goal_Think

; 55   :   {
; 56   :     delete *curDes;

	lea	ecx, DWORD PTR _curDes$[ebp]
	call	??D?$_Vector_iterator@V?$_Vector_val@U?$_Simple_types@PAVGoal_Evaluator@@@std@@@std@@@std@@QBEAAPAVGoal_Evaluator@@XZ ; std::_Vector_iterator<std::_Vector_val<std::_Simple_types<Goal_Evaluator *> > >::operator*
	mov	ecx, DWORD PTR [eax]
	mov	DWORD PTR $T2[ebp], ecx
	mov	edx, DWORD PTR $T2[ebp]
	mov	DWORD PTR $T3[ebp], edx
	cmp	DWORD PTR $T3[ebp], 0
	je	SHORT $LN6@Goal_Think
	mov	esi, esp
	push	1
	mov	eax, DWORD PTR $T3[ebp]
	mov	edx, DWORD PTR [eax]
	mov	ecx, DWORD PTR $T3[ebp]
	mov	eax, DWORD PTR [edx]
	call	eax
	cmp	esi, esp
	call	__RTC_CheckEsp
	mov	DWORD PTR tv141[ebp], eax
	jmp	SHORT $LN7@Goal_Think
$LN6@Goal_Think:
	mov	DWORD PTR tv141[ebp], 0
$LN7@Goal_Think:

; 57   :   }

	jmp	SHORT $LN2@Goal_Think
$LN3@Goal_Think:

; 58   : }

	lea	ecx, DWORD PTR _curDes$[ebp]
	call	??1?$_Vector_iterator@V?$_Vector_val@U?$_Simple_types@PAVGoal_Evaluator@@@std@@@std@@@std@@QAE@XZ
	mov	ecx, DWORD PTR _this$[ebp]
	add	ecx, 28					; 0000001cH
	call	??1?$vector@PAVGoal_Evaluator@@V?$allocator@PAVGoal_Evaluator@@@std@@@std@@QAE@XZ ; std::vector<Goal_Evaluator *,std::allocator<Goal_Evaluator *> >::~vector<Goal_Evaluator *,std::allocator<Goal_Evaluator *> >
	mov	ecx, DWORD PTR _this$[ebp]
	call	??1?$Goal_Composite@VRaven_Bot@@@@UAE@XZ ; Goal_Composite<Raven_Bot>::~Goal_Composite<Raven_Bot>
	push	edx
	mov	ecx, ebp
	push	eax
	lea	edx, DWORD PTR $LN11@Goal_Think
	call	@_RTC_CheckStackVars@8
	pop	eax
	pop	edx
	mov	ecx, DWORD PTR __$EHRec$[ebp]
	mov	DWORD PTR fs:0, ecx
	pop	ecx
	pop	edi
	pop	esi
	add	esp, 64					; 00000040H
	cmp	ebp, esp
	call	__RTC_CheckEsp
	mov	esp, ebp
	pop	ebp
	ret	0
	npad	3
$LN11@Goal_Think:
	DD	1
	DD	$LN10@Goal_Think
$LN10@Goal_Think:
	DD	-32					; ffffffe0H
	DD	12					; 0000000cH
	DD	$LN8@Goal_Think
$LN8@Goal_Think:
	DB	99					; 00000063H
	DB	117					; 00000075H
	DB	114					; 00000072H
	DB	68					; 00000044H
	DB	101					; 00000065H
	DB	115					; 00000073H
	DB	0
_TEXT	ENDS
text$x	SEGMENT
__ehhandler$??1Goal_Think@@UAE@XZ:
	mov	edx, DWORD PTR [esp+8]
	lea	eax, DWORD PTR [edx+12]
	mov	ecx, DWORD PTR [edx-64]
	xor	ecx, eax
	call	@__security_check_cookie@4
	mov	eax, OFFSET __ehfuncinfo$??1Goal_Think@@UAE@XZ
	jmp	___CxxFrameHandler3
text$x	ENDS
??1Goal_Think@@UAE@XZ ENDP				; Goal_Think::~Goal_Think
; Function compile flags: /Odtp /RTCsu
; File c:\users\utilisateur\documents\github\8iar125-projetraven\vs2015\buckland_chapter7 to 10_raven\goals\goal_think.cpp
_TEXT	SEGMENT
tv252 = -176						; size = 4
tv232 = -172						; size = 4
tv212 = -168						; size = 4
tv192 = -164						; size = 4
tv173 = -160						; size = 4
tv154 = -156						; size = 4
$T2 = -152						; size = 4
$T3 = -148						; size = 4
$T4 = -144						; size = 4
$T5 = -140						; size = 4
$T6 = -136						; size = 4
$T7 = -132						; size = 4
$T8 = -128						; size = 4
$T9 = -124						; size = 4
$T10 = -120						; size = 4
$T11 = -116						; size = 4
$T12 = -112						; size = 4
$T13 = -108						; size = 4
$T14 = -104						; size = 4
$T15 = -100						; size = 4
$T16 = -96						; size = 4
$T17 = -92						; size = 4
$T18 = -88						; size = 4
$T19 = -84						; size = 4
_AttackBias$ = -80					; size = 8
_ExploreBias$ = -72					; size = 8
_RailgunBias$ = -64					; size = 8
_RocketLauncherBias$ = -56				; size = 8
_ShotgunBias$ = -48					; size = 8
_HealthBias$ = -40					; size = 8
_HighRangeOfBias$ = -32					; size = 8
_LowRangeOfBias$ = -24					; size = 8
_this$ = -16						; size = 4
__$EHRec$ = -12						; size = 12
_pBot$ = 8						; size = 4
??0Goal_Think@@QAE@PAVRaven_Bot@@@Z PROC		; Goal_Think::Goal_Think
; _this$ = ecx

; 23   : {

	push	ebp
	mov	ebp, esp
	push	-1
	push	__ehhandler$??0Goal_Think@@QAE@PAVRaven_Bot@@@Z
	mov	eax, DWORD PTR fs:0
	push	eax
	sub	esp, 164				; 000000a4H
	push	edi
	push	ecx
	lea	edi, DWORD PTR [ebp-176]
	mov	ecx, 41					; 00000029H
	mov	eax, -858993460				; ccccccccH
	rep stosd
	pop	ecx
	mov	eax, DWORD PTR ___security_cookie
	xor	eax, ebp
	push	eax
	lea	eax, DWORD PTR __$EHRec$[ebp]
	mov	DWORD PTR fs:0, eax
	mov	DWORD PTR _this$[ebp], ecx

; 22   : Goal_Think::Goal_Think(Raven_Bot* pBot):Goal_Composite<Raven_Bot>(pBot, goal_think)

	push	0
	mov	eax, DWORD PTR _pBot$[ebp]
	push	eax
	mov	ecx, DWORD PTR _this$[ebp]
	call	??0?$Goal_Composite@VRaven_Bot@@@@QAE@PAVRaven_Bot@@H@Z ; Goal_Composite<Raven_Bot>::Goal_Composite<Raven_Bot>
	mov	DWORD PTR __$EHRec$[ebp+8], 0

; 23   : {

	mov	ecx, DWORD PTR _this$[ebp]
	mov	DWORD PTR [ecx], OFFSET ??_7Goal_Think@@6B@
	mov	ecx, DWORD PTR _this$[ebp]
	add	ecx, 28					; 0000001cH
	call	??0?$vector@PAVGoal_Evaluator@@V?$allocator@PAVGoal_Evaluator@@@std@@@std@@QAE@XZ ; std::vector<Goal_Evaluator *,std::allocator<Goal_Evaluator *> >::vector<Goal_Evaluator *,std::allocator<Goal_Evaluator *> >
	mov	BYTE PTR __$EHRec$[ebp+8], 1

; 24   :   
; 25   :   //these biases could be loaded in from a script on a per bot basis
; 26   :   //but for now we'll just give them some random values
; 27   :   const double LowRangeOfBias = 0.5;

	movsd	xmm0, QWORD PTR __real@3fe0000000000000
	movsd	QWORD PTR _LowRangeOfBias$[ebp], xmm0

; 28   :   const double HighRangeOfBias = 1.5;

	movsd	xmm0, QWORD PTR __real@3ff8000000000000
	movsd	QWORD PTR _HighRangeOfBias$[ebp], xmm0

; 29   : 
; 30   :   double HealthBias = RandInRange(LowRangeOfBias, HighRangeOfBias);

	sub	esp, 8
	movsd	xmm0, QWORD PTR __real@3ff8000000000000
	movsd	QWORD PTR [esp], xmm0
	sub	esp, 8
	movsd	xmm0, QWORD PTR __real@3fe0000000000000
	movsd	QWORD PTR [esp], xmm0
	call	?RandInRange@@YANNN@Z			; RandInRange
	add	esp, 16					; 00000010H
	fstp	QWORD PTR _HealthBias$[ebp]

; 31   :   double ShotgunBias = RandInRange(LowRangeOfBias, HighRangeOfBias);

	sub	esp, 8
	movsd	xmm0, QWORD PTR __real@3ff8000000000000
	movsd	QWORD PTR [esp], xmm0
	sub	esp, 8
	movsd	xmm0, QWORD PTR __real@3fe0000000000000
	movsd	QWORD PTR [esp], xmm0
	call	?RandInRange@@YANNN@Z			; RandInRange
	add	esp, 16					; 00000010H
	fstp	QWORD PTR _ShotgunBias$[ebp]

; 32   :   double RocketLauncherBias = RandInRange(LowRangeOfBias, HighRangeOfBias);

	sub	esp, 8
	movsd	xmm0, QWORD PTR __real@3ff8000000000000
	movsd	QWORD PTR [esp], xmm0
	sub	esp, 8
	movsd	xmm0, QWORD PTR __real@3fe0000000000000
	movsd	QWORD PTR [esp], xmm0
	call	?RandInRange@@YANNN@Z			; RandInRange
	add	esp, 16					; 00000010H
	fstp	QWORD PTR _RocketLauncherBias$[ebp]

; 33   :   double RailgunBias = RandInRange(LowRangeOfBias, HighRangeOfBias);

	sub	esp, 8
	movsd	xmm0, QWORD PTR __real@3ff8000000000000
	movsd	QWORD PTR [esp], xmm0
	sub	esp, 8
	movsd	xmm0, QWORD PTR __real@3fe0000000000000
	movsd	QWORD PTR [esp], xmm0
	call	?RandInRange@@YANNN@Z			; RandInRange
	add	esp, 16					; 00000010H
	fstp	QWORD PTR _RailgunBias$[ebp]

; 34   :   double ExploreBias = RandInRange(LowRangeOfBias, HighRangeOfBias);

	sub	esp, 8
	movsd	xmm0, QWORD PTR __real@3ff8000000000000
	movsd	QWORD PTR [esp], xmm0
	sub	esp, 8
	movsd	xmm0, QWORD PTR __real@3fe0000000000000
	movsd	QWORD PTR [esp], xmm0
	call	?RandInRange@@YANNN@Z			; RandInRange
	add	esp, 16					; 00000010H
	fstp	QWORD PTR _ExploreBias$[ebp]

; 35   :   double AttackBias = RandInRange(LowRangeOfBias, HighRangeOfBias);

	sub	esp, 8
	movsd	xmm0, QWORD PTR __real@3ff8000000000000
	movsd	QWORD PTR [esp], xmm0
	sub	esp, 8
	movsd	xmm0, QWORD PTR __real@3fe0000000000000
	movsd	QWORD PTR [esp], xmm0
	call	?RandInRange@@YANNN@Z			; RandInRange
	add	esp, 16					; 00000010H
	fstp	QWORD PTR _AttackBias$[ebp]

; 36   : 
; 37   :   //create the evaluator objects
; 38   :   m_Evaluators.push_back(new GetHealthGoal_Evaluator(HealthBias));

	push	16					; 00000010H
	call	??2@YAPAXI@Z				; operator new
	add	esp, 4
	mov	DWORD PTR $T17[ebp], eax
	mov	BYTE PTR __$EHRec$[ebp+8], 2
	cmp	DWORD PTR $T17[ebp], 0
	je	SHORT $LN3@Goal_Think
	sub	esp, 8
	movsd	xmm0, QWORD PTR _HealthBias$[ebp]
	movsd	QWORD PTR [esp], xmm0
	mov	ecx, DWORD PTR $T17[ebp]
	call	??0GetHealthGoal_Evaluator@@QAE@N@Z	; GetHealthGoal_Evaluator::GetHealthGoal_Evaluator
	mov	DWORD PTR tv154[ebp], eax
	jmp	SHORT $LN4@Goal_Think
$LN3@Goal_Think:
	mov	DWORD PTR tv154[ebp], 0
$LN4@Goal_Think:
	mov	edx, DWORD PTR tv154[ebp]
	mov	DWORD PTR $T18[ebp], edx
	mov	BYTE PTR __$EHRec$[ebp+8], 1
	mov	eax, DWORD PTR $T18[ebp]
	mov	DWORD PTR $T19[ebp], eax
	lea	ecx, DWORD PTR $T19[ebp]
	push	ecx
	mov	ecx, DWORD PTR _this$[ebp]
	add	ecx, 28					; 0000001cH
	call	?push_back@?$vector@PAVGoal_Evaluator@@V?$allocator@PAVGoal_Evaluator@@@std@@@std@@QAEX$$QAPAVGoal_Evaluator@@@Z ; std::vector<Goal_Evaluator *,std::allocator<Goal_Evaluator *> >::push_back

; 39   :   m_Evaluators.push_back(new ExploreGoal_Evaluator(ExploreBias));

	push	16					; 00000010H
	call	??2@YAPAXI@Z				; operator new
	add	esp, 4
	mov	DWORD PTR $T14[ebp], eax
	mov	BYTE PTR __$EHRec$[ebp+8], 3
	cmp	DWORD PTR $T14[ebp], 0
	je	SHORT $LN5@Goal_Think
	sub	esp, 8
	movsd	xmm0, QWORD PTR _ExploreBias$[ebp]
	movsd	QWORD PTR [esp], xmm0
	mov	ecx, DWORD PTR $T14[ebp]
	call	??0ExploreGoal_Evaluator@@QAE@N@Z	; ExploreGoal_Evaluator::ExploreGoal_Evaluator
	mov	DWORD PTR tv173[ebp], eax
	jmp	SHORT $LN6@Goal_Think
$LN5@Goal_Think:
	mov	DWORD PTR tv173[ebp], 0
$LN6@Goal_Think:
	mov	edx, DWORD PTR tv173[ebp]
	mov	DWORD PTR $T15[ebp], edx
	mov	BYTE PTR __$EHRec$[ebp+8], 1
	mov	eax, DWORD PTR $T15[ebp]
	mov	DWORD PTR $T16[ebp], eax
	lea	ecx, DWORD PTR $T16[ebp]
	push	ecx
	mov	ecx, DWORD PTR _this$[ebp]
	add	ecx, 28					; 0000001cH
	call	?push_back@?$vector@PAVGoal_Evaluator@@V?$allocator@PAVGoal_Evaluator@@@std@@@std@@QAEX$$QAPAVGoal_Evaluator@@@Z ; std::vector<Goal_Evaluator *,std::allocator<Goal_Evaluator *> >::push_back

; 40   :   m_Evaluators.push_back(new AttackTargetGoal_Evaluator(AttackBias));

	push	16					; 00000010H
	call	??2@YAPAXI@Z				; operator new
	add	esp, 4
	mov	DWORD PTR $T11[ebp], eax
	mov	BYTE PTR __$EHRec$[ebp+8], 4
	cmp	DWORD PTR $T11[ebp], 0
	je	SHORT $LN7@Goal_Think
	sub	esp, 8
	movsd	xmm0, QWORD PTR _AttackBias$[ebp]
	movsd	QWORD PTR [esp], xmm0
	mov	ecx, DWORD PTR $T11[ebp]
	call	??0AttackTargetGoal_Evaluator@@QAE@N@Z	; AttackTargetGoal_Evaluator::AttackTargetGoal_Evaluator
	mov	DWORD PTR tv192[ebp], eax
	jmp	SHORT $LN8@Goal_Think
$LN7@Goal_Think:
	mov	DWORD PTR tv192[ebp], 0
$LN8@Goal_Think:
	mov	edx, DWORD PTR tv192[ebp]
	mov	DWORD PTR $T12[ebp], edx
	mov	BYTE PTR __$EHRec$[ebp+8], 1
	mov	eax, DWORD PTR $T12[ebp]
	mov	DWORD PTR $T13[ebp], eax
	lea	ecx, DWORD PTR $T13[ebp]
	push	ecx
	mov	ecx, DWORD PTR _this$[ebp]
	add	ecx, 28					; 0000001cH
	call	?push_back@?$vector@PAVGoal_Evaluator@@V?$allocator@PAVGoal_Evaluator@@@std@@@std@@QAEX$$QAPAVGoal_Evaluator@@@Z ; std::vector<Goal_Evaluator *,std::allocator<Goal_Evaluator *> >::push_back

; 41   :   m_Evaluators.push_back(new GetWeaponGoal_Evaluator(ShotgunBias,

	push	24					; 00000018H
	call	??2@YAPAXI@Z				; operator new
	add	esp, 4
	mov	DWORD PTR $T8[ebp], eax
	mov	BYTE PTR __$EHRec$[ebp+8], 5
	cmp	DWORD PTR $T8[ebp], 0
	je	SHORT $LN9@Goal_Think
	push	8
	sub	esp, 8
	movsd	xmm0, QWORD PTR _ShotgunBias$[ebp]
	movsd	QWORD PTR [esp], xmm0
	mov	ecx, DWORD PTR $T8[ebp]
	call	??0GetWeaponGoal_Evaluator@@QAE@NH@Z	; GetWeaponGoal_Evaluator::GetWeaponGoal_Evaluator
	mov	DWORD PTR tv212[ebp], eax
	jmp	SHORT $LN10@Goal_Think
$LN9@Goal_Think:
	mov	DWORD PTR tv212[ebp], 0
$LN10@Goal_Think:
	mov	edx, DWORD PTR tv212[ebp]
	mov	DWORD PTR $T9[ebp], edx
	mov	BYTE PTR __$EHRec$[ebp+8], 1
	mov	eax, DWORD PTR $T9[ebp]
	mov	DWORD PTR $T10[ebp], eax
	lea	ecx, DWORD PTR $T10[ebp]
	push	ecx
	mov	ecx, DWORD PTR _this$[ebp]
	add	ecx, 28					; 0000001cH
	call	?push_back@?$vector@PAVGoal_Evaluator@@V?$allocator@PAVGoal_Evaluator@@@std@@@std@@QAEX$$QAPAVGoal_Evaluator@@@Z ; std::vector<Goal_Evaluator *,std::allocator<Goal_Evaluator *> >::push_back

; 42   :                                                      type_shotgun));
; 43   :   m_Evaluators.push_back(new GetWeaponGoal_Evaluator(RailgunBias,

	push	24					; 00000018H
	call	??2@YAPAXI@Z				; operator new
	add	esp, 4
	mov	DWORD PTR $T5[ebp], eax
	mov	BYTE PTR __$EHRec$[ebp+8], 6
	cmp	DWORD PTR $T5[ebp], 0
	je	SHORT $LN11@Goal_Think
	push	6
	sub	esp, 8
	movsd	xmm0, QWORD PTR _RailgunBias$[ebp]
	movsd	QWORD PTR [esp], xmm0
	mov	ecx, DWORD PTR $T5[ebp]
	call	??0GetWeaponGoal_Evaluator@@QAE@NH@Z	; GetWeaponGoal_Evaluator::GetWeaponGoal_Evaluator
	mov	DWORD PTR tv232[ebp], eax
	jmp	SHORT $LN12@Goal_Think
$LN11@Goal_Think:
	mov	DWORD PTR tv232[ebp], 0
$LN12@Goal_Think:
	mov	edx, DWORD PTR tv232[ebp]
	mov	DWORD PTR $T6[ebp], edx
	mov	BYTE PTR __$EHRec$[ebp+8], 1
	mov	eax, DWORD PTR $T6[ebp]
	mov	DWORD PTR $T7[ebp], eax
	lea	ecx, DWORD PTR $T7[ebp]
	push	ecx
	mov	ecx, DWORD PTR _this$[ebp]
	add	ecx, 28					; 0000001cH
	call	?push_back@?$vector@PAVGoal_Evaluator@@V?$allocator@PAVGoal_Evaluator@@@std@@@std@@QAEX$$QAPAVGoal_Evaluator@@@Z ; std::vector<Goal_Evaluator *,std::allocator<Goal_Evaluator *> >::push_back

; 44   :                                                      type_rail_gun));
; 45   :   m_Evaluators.push_back(new GetWeaponGoal_Evaluator(RocketLauncherBias,

	push	24					; 00000018H
	call	??2@YAPAXI@Z				; operator new
	add	esp, 4
	mov	DWORD PTR $T2[ebp], eax
	mov	BYTE PTR __$EHRec$[ebp+8], 7
	cmp	DWORD PTR $T2[ebp], 0
	je	SHORT $LN13@Goal_Think
	push	7
	sub	esp, 8
	movsd	xmm0, QWORD PTR _RocketLauncherBias$[ebp]
	movsd	QWORD PTR [esp], xmm0
	mov	ecx, DWORD PTR $T2[ebp]
	call	??0GetWeaponGoal_Evaluator@@QAE@NH@Z	; GetWeaponGoal_Evaluator::GetWeaponGoal_Evaluator
	mov	DWORD PTR tv252[ebp], eax
	jmp	SHORT $LN14@Goal_Think
$LN13@Goal_Think:
	mov	DWORD PTR tv252[ebp], 0
$LN14@Goal_Think:
	mov	edx, DWORD PTR tv252[ebp]
	mov	DWORD PTR $T3[ebp], edx
	mov	BYTE PTR __$EHRec$[ebp+8], 1
	mov	eax, DWORD PTR $T3[ebp]
	mov	DWORD PTR $T4[ebp], eax
	lea	ecx, DWORD PTR $T4[ebp]
	push	ecx
	mov	ecx, DWORD PTR _this$[ebp]
	add	ecx, 28					; 0000001cH
	call	?push_back@?$vector@PAVGoal_Evaluator@@V?$allocator@PAVGoal_Evaluator@@@std@@@std@@QAEX$$QAPAVGoal_Evaluator@@@Z ; std::vector<Goal_Evaluator *,std::allocator<Goal_Evaluator *> >::push_back

; 46   :                                                      type_rocket_launcher));
; 47   : }

	mov	DWORD PTR __$EHRec$[ebp+8], -1
	mov	eax, DWORD PTR _this$[ebp]
	mov	ecx, DWORD PTR __$EHRec$[ebp]
	mov	DWORD PTR fs:0, ecx
	pop	ecx
	pop	edi
	add	esp, 176				; 000000b0H
	cmp	ebp, esp
	call	__RTC_CheckEsp
	mov	esp, ebp
	pop	ebp
	ret	4
_TEXT	ENDS
text$x	SEGMENT
__unwindfunclet$??0Goal_Think@@QAE@PAVRaven_Bot@@@Z$0:
	mov	ecx, DWORD PTR _this$[ebp]
	jmp	??1?$Goal_Composite@VRaven_Bot@@@@UAE@XZ ; Goal_Composite<Raven_Bot>::~Goal_Composite<Raven_Bot>
__unwindfunclet$??0Goal_Think@@QAE@PAVRaven_Bot@@@Z$1:
	mov	ecx, DWORD PTR _this$[ebp]
	add	ecx, 28					; 0000001cH
	jmp	??1?$vector@PAVGoal_Evaluator@@V?$allocator@PAVGoal_Evaluator@@@std@@@std@@QAE@XZ ; std::vector<Goal_Evaluator *,std::allocator<Goal_Evaluator *> >::~vector<Goal_Evaluator *,std::allocator<Goal_Evaluator *> >
__unwindfunclet$??0Goal_Think@@QAE@PAVRaven_Bot@@@Z$2:
	push	16					; 00000010H
	mov	eax, DWORD PTR $T17[ebp]
	push	eax
	call	??3@YAXPAXI@Z				; operator delete
	add	esp, 8
	ret	0
__unwindfunclet$??0Goal_Think@@QAE@PAVRaven_Bot@@@Z$3:
	push	16					; 00000010H
	mov	eax, DWORD PTR $T14[ebp]
	push	eax
	call	??3@YAXPAXI@Z				; operator delete
	add	esp, 8
	ret	0
__unwindfunclet$??0Goal_Think@@QAE@PAVRaven_Bot@@@Z$4:
	push	16					; 00000010H
	mov	eax, DWORD PTR $T11[ebp]
	push	eax
	call	??3@YAXPAXI@Z				; operator delete
	add	esp, 8
	ret	0
__unwindfunclet$??0Goal_Think@@QAE@PAVRaven_Bot@@@Z$5:
	push	24					; 00000018H
	mov	eax, DWORD PTR $T8[ebp]
	push	eax
	call	??3@YAXPAXI@Z				; operator delete
	add	esp, 8
	ret	0
__unwindfunclet$??0Goal_Think@@QAE@PAVRaven_Bot@@@Z$6:
	push	24					; 00000018H
	mov	eax, DWORD PTR $T5[ebp]
	push	eax
	call	??3@YAXPAXI@Z				; operator delete
	add	esp, 8
	ret	0
__unwindfunclet$??0Goal_Think@@QAE@PAVRaven_Bot@@@Z$7:
	push	24					; 00000018H
	mov	eax, DWORD PTR $T2[ebp]
	push	eax
	call	??3@YAXPAXI@Z				; operator delete
	add	esp, 8
	ret	0
__ehhandler$??0Goal_Think@@QAE@PAVRaven_Bot@@@Z:
	mov	edx, DWORD PTR [esp+8]
	lea	eax, DWORD PTR [edx+12]
	mov	ecx, DWORD PTR [edx-172]
	xor	ecx, eax
	call	@__security_check_cookie@4
	mov	eax, OFFSET __ehfuncinfo$??0Goal_Think@@QAE@PAVRaven_Bot@@@Z
	jmp	___CxxFrameHandler3
text$x	ENDS
??0Goal_Think@@QAE@PAVRaven_Bot@@@Z ENDP		; Goal_Think::Goal_Think
; Function compile flags: /Odtp /RTCsu
; File c:\program files (x86)\microsoft visual studio\2017\community\vc\tools\msvc\14.15.26726\include\vector
;	COMDAT ?_Orphan_range@?$vector@PAVGoal_Evaluator@@V?$allocator@PAVGoal_Evaluator@@@std@@@std@@ABEXPAPAVGoal_Evaluator@@0@Z
_TEXT	SEGMENT
__Pnext$ = -32						; size = 4
__Lock$ = -24						; size = 4
_this$ = -16						; size = 4
__$EHRec$ = -12						; size = 12
__First$ = 8						; size = 4
__Last$ = 12						; size = 4
?_Orphan_range@?$vector@PAVGoal_Evaluator@@V?$allocator@PAVGoal_Evaluator@@@std@@@std@@ABEXPAPAVGoal_Evaluator@@0@Z PROC ; std::vector<Goal_Evaluator *,std::allocator<Goal_Evaluator *> >::_Orphan_range, COMDAT
; _this$ = ecx

; 1936 : 		{	// orphan iterators within specified (inclusive) range

	push	ebp
	mov	ebp, esp
	push	-1
	push	__ehhandler$?_Orphan_range@?$vector@PAVGoal_Evaluator@@V?$allocator@PAVGoal_Evaluator@@@std@@@std@@ABEXPAPAVGoal_Evaluator@@0@Z
	mov	eax, DWORD PTR fs:0
	push	eax
	sub	esp, 20					; 00000014H
	mov	eax, -858993460				; ccccccccH
	mov	DWORD PTR [ebp-32], eax
	mov	DWORD PTR [ebp-28], eax
	mov	DWORD PTR [ebp-24], eax
	mov	DWORD PTR [ebp-20], eax
	mov	DWORD PTR [ebp-16], eax
	mov	eax, DWORD PTR ___security_cookie
	xor	eax, ebp
	push	eax
	lea	eax, DWORD PTR __$EHRec$[ebp]
	mov	DWORD PTR fs:0, eax
	mov	DWORD PTR _this$[ebp], ecx

; 1937 : 		_Lockit _Lock(_LOCK_DEBUG);

	push	3
	lea	ecx, DWORD PTR __Lock$[ebp]
	call	??0_Lockit@std@@QAE@H@Z			; std::_Lockit::_Lockit
	mov	DWORD PTR __$EHRec$[ebp+8], 0

; 1938 : 
; 1939 : 		const_iterator ** _Pnext = reinterpret_cast<const_iterator **>(this->_Getpfirst());

	mov	ecx, DWORD PTR _this$[ebp]
	call	?_Getpfirst@?$_Vector_alloc@U?$_Vec_base_types@PAVGoal_Evaluator@@V?$allocator@PAVGoal_Evaluator@@@std@@@std@@@std@@QBEPAPAU_Iterator_base12@2@XZ ; std::_Vector_alloc<std::_Vec_base_types<Goal_Evaluator *,std::allocator<Goal_Evaluator *> > >::_Getpfirst
	mov	DWORD PTR __Pnext$[ebp], eax

; 1940 : 
; 1941 : 		if (_Pnext)

	cmp	DWORD PTR __Pnext$[ebp], 0
	je	SHORT $LN4@Orphan_ran
$LN2@Orphan_ran:

; 1942 : 			{
; 1943 : 			while (*_Pnext)

	mov	eax, DWORD PTR __Pnext$[ebp]
	cmp	DWORD PTR [eax], 0
	je	SHORT $LN4@Orphan_ran

; 1944 : 				{
; 1945 : 				if ((*_Pnext)->_Ptr < _First || _Last < (*_Pnext)->_Ptr)

	mov	ecx, DWORD PTR __Pnext$[ebp]
	mov	edx, DWORD PTR [ecx]
	mov	eax, DWORD PTR [edx+8]
	cmp	eax, DWORD PTR __First$[ebp]
	jb	SHORT $LN7@Orphan_ran
	mov	ecx, DWORD PTR __Pnext$[ebp]
	mov	edx, DWORD PTR [ecx]
	mov	eax, DWORD PTR __Last$[ebp]
	cmp	eax, DWORD PTR [edx+8]
	jae	SHORT $LN5@Orphan_ran
$LN7@Orphan_ran:

; 1946 : 					{	// skip the iterator
; 1947 : 					_Pnext = reinterpret_cast<const_iterator **>((*_Pnext)->_Getpnext());

	mov	ecx, DWORD PTR __Pnext$[ebp]
	mov	ecx, DWORD PTR [ecx]
	call	?_Getpnext@_Iterator_base12@std@@QAEPAPAU12@XZ ; std::_Iterator_base12::_Getpnext
	mov	DWORD PTR __Pnext$[ebp], eax

; 1948 : 					}
; 1949 : 				else

	jmp	SHORT $LN6@Orphan_ran
$LN5@Orphan_ran:

; 1950 : 					{	// orphan the iterator
; 1951 : 					(*_Pnext)->_Clrcont();

	mov	edx, DWORD PTR __Pnext$[ebp]
	mov	ecx, DWORD PTR [edx]
	call	?_Clrcont@_Iterator_base12@std@@QAEXXZ	; std::_Iterator_base12::_Clrcont

; 1952 : 					*_Pnext = *reinterpret_cast<const_iterator **>((*_Pnext)->_Getpnext());

	mov	eax, DWORD PTR __Pnext$[ebp]
	mov	ecx, DWORD PTR [eax]
	call	?_Getpnext@_Iterator_base12@std@@QAEPAPAU12@XZ ; std::_Iterator_base12::_Getpnext
	mov	ecx, DWORD PTR __Pnext$[ebp]
	mov	edx, DWORD PTR [eax]
	mov	DWORD PTR [ecx], edx
$LN6@Orphan_ran:

; 1953 : 					}
; 1954 : 				}

	jmp	SHORT $LN2@Orphan_ran
$LN4@Orphan_ran:

; 1955 : 			}
; 1956 : 		}

	mov	DWORD PTR __$EHRec$[ebp+8], -1
	lea	ecx, DWORD PTR __Lock$[ebp]
	call	??1_Lockit@std@@QAE@XZ			; std::_Lockit::~_Lockit
	push	edx
	mov	ecx, ebp
	push	eax
	lea	edx, DWORD PTR $LN13@Orphan_ran
	call	@_RTC_CheckStackVars@8
	pop	eax
	pop	edx
	mov	ecx, DWORD PTR __$EHRec$[ebp]
	mov	DWORD PTR fs:0, ecx
	pop	ecx
	add	esp, 32					; 00000020H
	cmp	ebp, esp
	call	__RTC_CheckEsp
	mov	esp, ebp
	pop	ebp
	ret	8
	npad	1
$LN13@Orphan_ran:
	DD	1
	DD	$LN12@Orphan_ran
$LN12@Orphan_ran:
	DD	-24					; ffffffe8H
	DD	4
	DD	$LN10@Orphan_ran
$LN10@Orphan_ran:
	DB	95					; 0000005fH
	DB	76					; 0000004cH
	DB	111					; 0000006fH
	DB	99					; 00000063H
	DB	107					; 0000006bH
	DB	0
_TEXT	ENDS
;	COMDAT text$x
text$x	SEGMENT
__unwindfunclet$?_Orphan_range@?$vector@PAVGoal_Evaluator@@V?$allocator@PAVGoal_Evaluator@@@std@@@std@@ABEXPAPAVGoal_Evaluator@@0@Z$0:
	lea	ecx, DWORD PTR __Lock$[ebp]
	jmp	??1_Lockit@std@@QAE@XZ			; std::_Lockit::~_Lockit
__ehhandler$?_Orphan_range@?$vector@PAVGoal_Evaluator@@V?$allocator@PAVGoal_Evaluator@@@std@@@std@@ABEXPAPAVGoal_Evaluator@@0@Z:
	mov	edx, DWORD PTR [esp+8]
	lea	eax, DWORD PTR [edx+12]
	mov	ecx, DWORD PTR [edx-24]
	xor	ecx, eax
	call	@__security_check_cookie@4
	mov	eax, OFFSET __ehfuncinfo$?_Orphan_range@?$vector@PAVGoal_Evaluator@@V?$allocator@PAVGoal_Evaluator@@@std@@@std@@ABEXPAPAVGoal_Evaluator@@0@Z
	jmp	___CxxFrameHandler3
text$x	ENDS
?_Orphan_range@?$vector@PAVGoal_Evaluator@@V?$allocator@PAVGoal_Evaluator@@@std@@@std@@ABEXPAPAVGoal_Evaluator@@0@Z ENDP ; std::vector<Goal_Evaluator *,std::allocator<Goal_Evaluator *> >::_Orphan_range
; Function compile flags: /Odtp /RTCsu
; File c:\program files (x86)\microsoft visual studio\2017\community\vc\tools\msvc\14.15.26726\include\vector
;	COMDAT ?_Xlength@?$vector@PAVGoal_Evaluator@@V?$allocator@PAVGoal_Evaluator@@@std@@@std@@CAXXZ
_TEXT	SEGMENT
?_Xlength@?$vector@PAVGoal_Evaluator@@V?$allocator@PAVGoal_Evaluator@@@std@@@std@@CAXXZ PROC ; std::vector<Goal_Evaluator *,std::allocator<Goal_Evaluator *> >::_Xlength, COMDAT

; 1925 : 		{	// report a length_error

	push	ebp
	mov	ebp, esp

; 1926 : 		_Xlength_error("vector<T> too long");

	push	OFFSET ??_C@_0BD@OLBABOEK@vector?$DMT?$DO?5too?5long@
	call	?_Xlength_error@std@@YAXPBD@Z		; std::_Xlength_error
$LN2@Xlength:

; 1927 : 		}

	cmp	ebp, esp
	call	__RTC_CheckEsp
	pop	ebp
	ret	0
?_Xlength@?$vector@PAVGoal_Evaluator@@V?$allocator@PAVGoal_Evaluator@@@std@@@std@@CAXXZ ENDP ; std::vector<Goal_Evaluator *,std::allocator<Goal_Evaluator *> >::_Xlength
_TEXT	ENDS
; Function compile flags: /Odtp /RTCsu
; File c:\program files (x86)\microsoft visual studio\2017\community\vc\tools\msvc\14.15.26726\include\vector
;	COMDAT ?_Tidy@?$vector@PAVGoal_Evaluator@@V?$allocator@PAVGoal_Evaluator@@@std@@@std@@AAEXXZ
_TEXT	SEGMENT
_this$ = -4						; size = 4
?_Tidy@?$vector@PAVGoal_Evaluator@@V?$allocator@PAVGoal_Evaluator@@@std@@@std@@AAEXXZ PROC ; std::vector<Goal_Evaluator *,std::allocator<Goal_Evaluator *> >::_Tidy, COMDAT
; _this$ = ecx

; 1910 : 		{	// free all storage

	push	ebp
	mov	ebp, esp
	push	ecx
	mov	DWORD PTR [ebp-4], -858993460		; ccccccccH
	mov	DWORD PTR _this$[ebp], ecx

; 1911 : 		this->_Orphan_all();

	mov	ecx, DWORD PTR _this$[ebp]
	call	?_Orphan_all@?$_Vector_alloc@U?$_Vec_base_types@PAVGoal_Evaluator@@V?$allocator@PAVGoal_Evaluator@@@std@@@std@@@std@@QAEXXZ ; std::_Vector_alloc<std::_Vec_base_types<Goal_Evaluator *,std::allocator<Goal_Evaluator *> > >::_Orphan_all

; 1912 : 
; 1913 : 		if (this->_Myfirst() != pointer())

	mov	ecx, DWORD PTR _this$[ebp]
	call	?_Myfirst@?$_Vector_alloc@U?$_Vec_base_types@PAVGoal_Evaluator@@V?$allocator@PAVGoal_Evaluator@@@std@@@std@@@std@@QAEAAPAPAVGoal_Evaluator@@XZ ; std::_Vector_alloc<std::_Vec_base_types<Goal_Evaluator *,std::allocator<Goal_Evaluator *> > >::_Myfirst
	cmp	DWORD PTR [eax], 0
	je	SHORT $LN1@Tidy

; 1914 : 			{	// destroy and deallocate old array
; 1915 : 			_Destroy(this->_Myfirst(), this->_Mylast());

	mov	ecx, DWORD PTR _this$[ebp]
	call	?_Mylast@?$_Vector_alloc@U?$_Vec_base_types@PAVGoal_Evaluator@@V?$allocator@PAVGoal_Evaluator@@@std@@@std@@@std@@QAEAAPAPAVGoal_Evaluator@@XZ ; std::_Vector_alloc<std::_Vec_base_types<Goal_Evaluator *,std::allocator<Goal_Evaluator *> > >::_Mylast
	mov	eax, DWORD PTR [eax]
	push	eax
	mov	ecx, DWORD PTR _this$[ebp]
	call	?_Myfirst@?$_Vector_alloc@U?$_Vec_base_types@PAVGoal_Evaluator@@V?$allocator@PAVGoal_Evaluator@@@std@@@std@@@std@@QAEAAPAPAVGoal_Evaluator@@XZ ; std::_Vector_alloc<std::_Vec_base_types<Goal_Evaluator *,std::allocator<Goal_Evaluator *> > >::_Myfirst
	mov	ecx, DWORD PTR [eax]
	push	ecx
	mov	ecx, DWORD PTR _this$[ebp]
	call	?_Destroy@?$vector@PAVGoal_Evaluator@@V?$allocator@PAVGoal_Evaluator@@@std@@@std@@AAEXPAPAVGoal_Evaluator@@0@Z ; std::vector<Goal_Evaluator *,std::allocator<Goal_Evaluator *> >::_Destroy

; 1916 : 			this->_Getal().deallocate(this->_Myfirst(), capacity());

	mov	ecx, DWORD PTR _this$[ebp]
	call	?capacity@?$vector@PAVGoal_Evaluator@@V?$allocator@PAVGoal_Evaluator@@@std@@@std@@QBEIXZ ; std::vector<Goal_Evaluator *,std::allocator<Goal_Evaluator *> >::capacity
	push	eax
	mov	ecx, DWORD PTR _this$[ebp]
	call	?_Myfirst@?$_Vector_alloc@U?$_Vec_base_types@PAVGoal_Evaluator@@V?$allocator@PAVGoal_Evaluator@@@std@@@std@@@std@@QAEAAPAPAVGoal_Evaluator@@XZ ; std::_Vector_alloc<std::_Vec_base_types<Goal_Evaluator *,std::allocator<Goal_Evaluator *> > >::_Myfirst
	mov	edx, DWORD PTR [eax]
	push	edx
	mov	ecx, DWORD PTR _this$[ebp]
	call	?_Getal@?$_Vector_alloc@U?$_Vec_base_types@PAVGoal_Evaluator@@V?$allocator@PAVGoal_Evaluator@@@std@@@std@@@std@@QAEAAV?$allocator@PAVGoal_Evaluator@@@2@XZ ; std::_Vector_alloc<std::_Vec_base_types<Goal_Evaluator *,std::allocator<Goal_Evaluator *> > >::_Getal
	mov	ecx, eax
	call	?deallocate@?$allocator@PAVGoal_Evaluator@@@std@@QAEXQAPAVGoal_Evaluator@@I@Z ; std::allocator<Goal_Evaluator *>::deallocate

; 1917 : 
; 1918 : 			this->_Myfirst() = pointer();

	mov	ecx, DWORD PTR _this$[ebp]
	call	?_Myfirst@?$_Vector_alloc@U?$_Vec_base_types@PAVGoal_Evaluator@@V?$allocator@PAVGoal_Evaluator@@@std@@@std@@@std@@QAEAAPAPAVGoal_Evaluator@@XZ ; std::_Vector_alloc<std::_Vec_base_types<Goal_Evaluator *,std::allocator<Goal_Evaluator *> > >::_Myfirst
	mov	DWORD PTR [eax], 0

; 1919 : 			this->_Mylast() = pointer();

	mov	ecx, DWORD PTR _this$[ebp]
	call	?_Mylast@?$_Vector_alloc@U?$_Vec_base_types@PAVGoal_Evaluator@@V?$allocator@PAVGoal_Evaluator@@@std@@@std@@@std@@QAEAAPAPAVGoal_Evaluator@@XZ ; std::_Vector_alloc<std::_Vec_base_types<Goal_Evaluator *,std::allocator<Goal_Evaluator *> > >::_Mylast
	mov	DWORD PTR [eax], 0

; 1920 : 			this->_Myend() = pointer();

	mov	ecx, DWORD PTR _this$[ebp]
	call	?_Myend@?$_Vector_alloc@U?$_Vec_base_types@PAVGoal_Evaluator@@V?$allocator@PAVGoal_Evaluator@@@std@@@std@@@std@@QAEAAPAPAVGoal_Evaluator@@XZ ; std::_Vector_alloc<std::_Vec_base_types<Goal_Evaluator *,std::allocator<Goal_Evaluator *> > >::_Myend
	mov	DWORD PTR [eax], 0
$LN1@Tidy:

; 1921 : 			}
; 1922 : 		}

	add	esp, 4
	cmp	ebp, esp
	call	__RTC_CheckEsp
	mov	esp, ebp
	pop	ebp
	ret	0
?_Tidy@?$vector@PAVGoal_Evaluator@@V?$allocator@PAVGoal_Evaluator@@@std@@@std@@AAEXXZ ENDP ; std::vector<Goal_Evaluator *,std::allocator<Goal_Evaluator *> >::_Tidy
_TEXT	ENDS
; Function compile flags: /Odtp /RTCsu
; File c:\program files (x86)\microsoft visual studio\2017\community\vc\tools\msvc\14.15.26726\include\vector
;	COMDAT ?_Change_array@?$vector@PAVGoal_Evaluator@@V?$allocator@PAVGoal_Evaluator@@@std@@@std@@AAEXQAPAVGoal_Evaluator@@II@Z
_TEXT	SEGMENT
_this$ = -4						; size = 4
__Newvec$ = 8						; size = 4
__Newsize$ = 12						; size = 4
__Newcapacity$ = 16					; size = 4
?_Change_array@?$vector@PAVGoal_Evaluator@@V?$allocator@PAVGoal_Evaluator@@@std@@@std@@AAEXQAPAVGoal_Evaluator@@II@Z PROC ; std::vector<Goal_Evaluator *,std::allocator<Goal_Evaluator *> >::_Change_array, COMDAT
; _this$ = ecx

; 1895 : 		{	// orphan all iterators, discard old array, acquire new array

	push	ebp
	mov	ebp, esp
	push	ecx
	push	esi
	mov	DWORD PTR [ebp-4], -858993460		; ccccccccH
	mov	DWORD PTR _this$[ebp], ecx

; 1896 : 		this->_Orphan_all();

	mov	ecx, DWORD PTR _this$[ebp]
	call	?_Orphan_all@?$_Vector_alloc@U?$_Vec_base_types@PAVGoal_Evaluator@@V?$allocator@PAVGoal_Evaluator@@@std@@@std@@@std@@QAEXXZ ; std::_Vector_alloc<std::_Vec_base_types<Goal_Evaluator *,std::allocator<Goal_Evaluator *> > >::_Orphan_all

; 1897 : 
; 1898 : 		if (this->_Myfirst() != pointer())

	mov	ecx, DWORD PTR _this$[ebp]
	call	?_Myfirst@?$_Vector_alloc@U?$_Vec_base_types@PAVGoal_Evaluator@@V?$allocator@PAVGoal_Evaluator@@@std@@@std@@@std@@QAEAAPAPAVGoal_Evaluator@@XZ ; std::_Vector_alloc<std::_Vec_base_types<Goal_Evaluator *,std::allocator<Goal_Evaluator *> > >::_Myfirst
	cmp	DWORD PTR [eax], 0
	je	SHORT $LN2@Change_arr

; 1899 : 			{	// destroy and deallocate old array
; 1900 : 			_Destroy(this->_Myfirst(), this->_Mylast());

	mov	ecx, DWORD PTR _this$[ebp]
	call	?_Mylast@?$_Vector_alloc@U?$_Vec_base_types@PAVGoal_Evaluator@@V?$allocator@PAVGoal_Evaluator@@@std@@@std@@@std@@QAEAAPAPAVGoal_Evaluator@@XZ ; std::_Vector_alloc<std::_Vec_base_types<Goal_Evaluator *,std::allocator<Goal_Evaluator *> > >::_Mylast
	mov	eax, DWORD PTR [eax]
	push	eax
	mov	ecx, DWORD PTR _this$[ebp]
	call	?_Myfirst@?$_Vector_alloc@U?$_Vec_base_types@PAVGoal_Evaluator@@V?$allocator@PAVGoal_Evaluator@@@std@@@std@@@std@@QAEAAPAPAVGoal_Evaluator@@XZ ; std::_Vector_alloc<std::_Vec_base_types<Goal_Evaluator *,std::allocator<Goal_Evaluator *> > >::_Myfirst
	mov	ecx, DWORD PTR [eax]
	push	ecx
	mov	ecx, DWORD PTR _this$[ebp]
	call	?_Destroy@?$vector@PAVGoal_Evaluator@@V?$allocator@PAVGoal_Evaluator@@@std@@@std@@AAEXPAPAVGoal_Evaluator@@0@Z ; std::vector<Goal_Evaluator *,std::allocator<Goal_Evaluator *> >::_Destroy

; 1901 : 			this->_Getal().deallocate(this->_Myfirst(), capacity());

	mov	ecx, DWORD PTR _this$[ebp]
	call	?capacity@?$vector@PAVGoal_Evaluator@@V?$allocator@PAVGoal_Evaluator@@@std@@@std@@QBEIXZ ; std::vector<Goal_Evaluator *,std::allocator<Goal_Evaluator *> >::capacity
	push	eax
	mov	ecx, DWORD PTR _this$[ebp]
	call	?_Myfirst@?$_Vector_alloc@U?$_Vec_base_types@PAVGoal_Evaluator@@V?$allocator@PAVGoal_Evaluator@@@std@@@std@@@std@@QAEAAPAPAVGoal_Evaluator@@XZ ; std::_Vector_alloc<std::_Vec_base_types<Goal_Evaluator *,std::allocator<Goal_Evaluator *> > >::_Myfirst
	mov	edx, DWORD PTR [eax]
	push	edx
	mov	ecx, DWORD PTR _this$[ebp]
	call	?_Getal@?$_Vector_alloc@U?$_Vec_base_types@PAVGoal_Evaluator@@V?$allocator@PAVGoal_Evaluator@@@std@@@std@@@std@@QAEAAV?$allocator@PAVGoal_Evaluator@@@2@XZ ; std::_Vector_alloc<std::_Vec_base_types<Goal_Evaluator *,std::allocator<Goal_Evaluator *> > >::_Getal
	mov	ecx, eax
	call	?deallocate@?$allocator@PAVGoal_Evaluator@@@std@@QAEXQAPAVGoal_Evaluator@@I@Z ; std::allocator<Goal_Evaluator *>::deallocate
$LN2@Change_arr:

; 1902 : 			}
; 1903 : 
; 1904 : 		this->_Myfirst() = _Newvec;

	mov	ecx, DWORD PTR _this$[ebp]
	call	?_Myfirst@?$_Vector_alloc@U?$_Vec_base_types@PAVGoal_Evaluator@@V?$allocator@PAVGoal_Evaluator@@@std@@@std@@@std@@QAEAAPAPAVGoal_Evaluator@@XZ ; std::_Vector_alloc<std::_Vec_base_types<Goal_Evaluator *,std::allocator<Goal_Evaluator *> > >::_Myfirst
	mov	ecx, DWORD PTR __Newvec$[ebp]
	mov	DWORD PTR [eax], ecx

; 1905 : 		this->_Mylast() = _Newvec + _Newsize;

	mov	edx, DWORD PTR __Newsize$[ebp]
	mov	eax, DWORD PTR __Newvec$[ebp]
	lea	esi, DWORD PTR [eax+edx*4]
	mov	ecx, DWORD PTR _this$[ebp]
	call	?_Mylast@?$_Vector_alloc@U?$_Vec_base_types@PAVGoal_Evaluator@@V?$allocator@PAVGoal_Evaluator@@@std@@@std@@@std@@QAEAAPAPAVGoal_Evaluator@@XZ ; std::_Vector_alloc<std::_Vec_base_types<Goal_Evaluator *,std::allocator<Goal_Evaluator *> > >::_Mylast
	mov	DWORD PTR [eax], esi

; 1906 : 		this->_Myend() = _Newvec + _Newcapacity;

	mov	ecx, DWORD PTR __Newcapacity$[ebp]
	mov	edx, DWORD PTR __Newvec$[ebp]
	lea	esi, DWORD PTR [edx+ecx*4]
	mov	ecx, DWORD PTR _this$[ebp]
	call	?_Myend@?$_Vector_alloc@U?$_Vec_base_types@PAVGoal_Evaluator@@V?$allocator@PAVGoal_Evaluator@@@std@@@std@@@std@@QAEAAPAPAVGoal_Evaluator@@XZ ; std::_Vector_alloc<std::_Vec_base_types<Goal_Evaluator *,std::allocator<Goal_Evaluator *> > >::_Myend
	mov	DWORD PTR [eax], esi

; 1907 : 		}

	pop	esi
	add	esp, 4
	cmp	ebp, esp
	call	__RTC_CheckEsp
	mov	esp, ebp
	pop	ebp
	ret	12					; 0000000cH
?_Change_array@?$vector@PAVGoal_Evaluator@@V?$allocator@PAVGoal_Evaluator@@@std@@@std@@AAEXQAPAVGoal_Evaluator@@II@Z ENDP ; std::vector<Goal_Evaluator *,std::allocator<Goal_Evaluator *> >::_Change_array
_TEXT	ENDS
; Function compile flags: /Odtp /RTCsu
; File c:\program files (x86)\microsoft visual studio\2017\community\vc\tools\msvc\14.15.26726\include\vector
;	COMDAT ?_Calculate_growth@?$vector@PAVGoal_Evaluator@@V?$allocator@PAVGoal_Evaluator@@@std@@@std@@ABEII@Z
_TEXT	SEGMENT
__Geometric$ = -12					; size = 4
__Oldcapacity$ = -8					; size = 4
_this$ = -4						; size = 4
__Newsize$ = 8						; size = 4
?_Calculate_growth@?$vector@PAVGoal_Evaluator@@V?$allocator@PAVGoal_Evaluator@@@std@@@std@@ABEII@Z PROC ; std::vector<Goal_Evaluator *,std::allocator<Goal_Evaluator *> >::_Calculate_growth, COMDAT
; _this$ = ecx

; 1853 : 		{	// given _Oldcapacity and _Newsize, calculate geometric growth

	push	ebp
	mov	ebp, esp
	sub	esp, 12					; 0000000cH
	mov	DWORD PTR [ebp-12], -858993460		; ccccccccH
	mov	DWORD PTR [ebp-8], -858993460		; ccccccccH
	mov	DWORD PTR [ebp-4], -858993460		; ccccccccH
	mov	DWORD PTR _this$[ebp], ecx

; 1854 : 		const size_type _Oldcapacity = capacity();

	mov	ecx, DWORD PTR _this$[ebp]
	call	?capacity@?$vector@PAVGoal_Evaluator@@V?$allocator@PAVGoal_Evaluator@@@std@@@std@@QBEIXZ ; std::vector<Goal_Evaluator *,std::allocator<Goal_Evaluator *> >::capacity
	mov	DWORD PTR __Oldcapacity$[ebp], eax

; 1855 : 
; 1856 : 		if (_Oldcapacity > max_size() - _Oldcapacity / 2)

	mov	ecx, DWORD PTR _this$[ebp]
	call	?max_size@?$vector@PAVGoal_Evaluator@@V?$allocator@PAVGoal_Evaluator@@@std@@@std@@QBEIXZ ; std::vector<Goal_Evaluator *,std::allocator<Goal_Evaluator *> >::max_size
	mov	ecx, DWORD PTR __Oldcapacity$[ebp]
	shr	ecx, 1
	sub	eax, ecx
	cmp	DWORD PTR __Oldcapacity$[ebp], eax
	jbe	SHORT $LN2@Calculate_

; 1857 : 			{
; 1858 : 			return (_Newsize);	// geometric growth would overflow

	mov	eax, DWORD PTR __Newsize$[ebp]
	jmp	SHORT $LN1@Calculate_
$LN2@Calculate_:

; 1859 : 			}
; 1860 : 
; 1861 : 		const size_type _Geometric = _Oldcapacity + _Oldcapacity / 2;

	mov	edx, DWORD PTR __Oldcapacity$[ebp]
	shr	edx, 1
	add	edx, DWORD PTR __Oldcapacity$[ebp]
	mov	DWORD PTR __Geometric$[ebp], edx

; 1862 : 
; 1863 : 		if (_Geometric < _Newsize)

	mov	eax, DWORD PTR __Geometric$[ebp]
	cmp	eax, DWORD PTR __Newsize$[ebp]
	jae	SHORT $LN3@Calculate_

; 1864 : 			{
; 1865 : 			return (_Newsize);	// geometric growth would be insufficient

	mov	eax, DWORD PTR __Newsize$[ebp]
	jmp	SHORT $LN1@Calculate_
$LN3@Calculate_:

; 1866 : 			}
; 1867 : 
; 1868 : 		return (_Geometric);	// geometric growth is sufficient

	mov	eax, DWORD PTR __Geometric$[ebp]
$LN1@Calculate_:

; 1869 : 		}

	add	esp, 12					; 0000000cH
	cmp	ebp, esp
	call	__RTC_CheckEsp
	mov	esp, ebp
	pop	ebp
	ret	4
?_Calculate_growth@?$vector@PAVGoal_Evaluator@@V?$allocator@PAVGoal_Evaluator@@@std@@@std@@ABEII@Z ENDP ; std::vector<Goal_Evaluator *,std::allocator<Goal_Evaluator *> >::_Calculate_growth
_TEXT	ENDS
; Function compile flags: /Odtp /RTCsu
; File c:\program files (x86)\microsoft visual studio\2017\community\vc\tools\msvc\14.15.26726\include\vector
;	COMDAT ?_Destroy@?$vector@PAVGoal_Evaluator@@V?$allocator@PAVGoal_Evaluator@@@std@@@std@@AAEXPAPAVGoal_Evaluator@@0@Z
_TEXT	SEGMENT
_this$ = -4						; size = 4
__First$ = 8						; size = 4
__Last$ = 12						; size = 4
?_Destroy@?$vector@PAVGoal_Evaluator@@V?$allocator@PAVGoal_Evaluator@@@std@@@std@@AAEXPAPAVGoal_Evaluator@@0@Z PROC ; std::vector<Goal_Evaluator *,std::allocator<Goal_Evaluator *> >::_Destroy, COMDAT
; _this$ = ecx

; 1848 : 		{	// destroy [_First, _Last) using allocator

	push	ebp
	mov	ebp, esp
	push	ecx
	mov	DWORD PTR [ebp-4], -858993460		; ccccccccH
	mov	DWORD PTR _this$[ebp], ecx

; 1849 : 		_Destroy_range(_First, _Last, this->_Getal());

	mov	ecx, DWORD PTR _this$[ebp]
	call	?_Getal@?$_Vector_alloc@U?$_Vec_base_types@PAVGoal_Evaluator@@V?$allocator@PAVGoal_Evaluator@@@std@@@std@@@std@@QAEAAV?$allocator@PAVGoal_Evaluator@@@2@XZ ; std::_Vector_alloc<std::_Vec_base_types<Goal_Evaluator *,std::allocator<Goal_Evaluator *> > >::_Getal
	push	eax
	mov	eax, DWORD PTR __Last$[ebp]
	push	eax
	mov	ecx, DWORD PTR __First$[ebp]
	push	ecx
	call	??$_Destroy_range@V?$allocator@PAVGoal_Evaluator@@@std@@@std@@YAXPAPAVGoal_Evaluator@@0AAV?$allocator@PAVGoal_Evaluator@@@0@@Z ; std::_Destroy_range<std::allocator<Goal_Evaluator *> >
	add	esp, 12					; 0000000cH

; 1850 : 		}

	add	esp, 4
	cmp	ebp, esp
	call	__RTC_CheckEsp
	mov	esp, ebp
	pop	ebp
	ret	8
?_Destroy@?$vector@PAVGoal_Evaluator@@V?$allocator@PAVGoal_Evaluator@@@std@@@std@@AAEXPAPAVGoal_Evaluator@@0@Z ENDP ; std::vector<Goal_Evaluator *,std::allocator<Goal_Evaluator *> >::_Destroy
_TEXT	ENDS
; Function compile flags: /Odtp /RTCsu
; File c:\program files (x86)\microsoft visual studio\2017\community\vc\tools\msvc\14.15.26726\include\vector
;	COMDAT ?_Umove_if_noexcept@?$vector@PAVGoal_Evaluator@@V?$allocator@PAVGoal_Evaluator@@@std@@@std@@AAEXPAPAVGoal_Evaluator@@00@Z
_TEXT	SEGMENT
$T1 = -5						; size = 1
_this$ = -4						; size = 4
__First$ = 8						; size = 4
__Last$ = 12						; size = 4
__Dest$ = 16						; size = 4
?_Umove_if_noexcept@?$vector@PAVGoal_Evaluator@@V?$allocator@PAVGoal_Evaluator@@@std@@@std@@AAEXPAPAVGoal_Evaluator@@00@Z PROC ; std::vector<Goal_Evaluator *,std::allocator<Goal_Evaluator *> >::_Umove_if_noexcept, COMDAT
; _this$ = ecx

; 1842 : 		{	// move_if_noexcept [_First, _Last) to raw _Dest, using allocator

	push	ebp
	mov	ebp, esp
	sub	esp, 8
	mov	DWORD PTR [ebp-8], -858993460		; ccccccccH
	mov	DWORD PTR [ebp-4], -858993460		; ccccccccH
	mov	DWORD PTR _this$[ebp], ecx

; 1843 : 		_Umove_if_noexcept1(_First, _Last, _Dest,

	xor	eax, eax
	mov	BYTE PTR $T1[ebp], al
	movzx	ecx, BYTE PTR $T1[ebp]
	push	ecx
	mov	edx, DWORD PTR __Dest$[ebp]
	push	edx
	mov	eax, DWORD PTR __Last$[ebp]
	push	eax
	mov	ecx, DWORD PTR __First$[ebp]
	push	ecx
	mov	ecx, DWORD PTR _this$[ebp]
	call	?_Umove_if_noexcept1@?$vector@PAVGoal_Evaluator@@V?$allocator@PAVGoal_Evaluator@@@std@@@std@@AAEXPAPAVGoal_Evaluator@@00U?$integral_constant@_N$00@2@@Z ; std::vector<Goal_Evaluator *,std::allocator<Goal_Evaluator *> >::_Umove_if_noexcept1

; 1844 : 			bool_constant<disjunction_v<is_nothrow_move_constructible<_Ty>, negation<is_copy_constructible<_Ty>>>>{});
; 1845 : 		}

	add	esp, 8
	cmp	ebp, esp
	call	__RTC_CheckEsp
	mov	esp, ebp
	pop	ebp
	ret	12					; 0000000cH
?_Umove_if_noexcept@?$vector@PAVGoal_Evaluator@@V?$allocator@PAVGoal_Evaluator@@@std@@@std@@AAEXPAPAVGoal_Evaluator@@00@Z ENDP ; std::vector<Goal_Evaluator *,std::allocator<Goal_Evaluator *> >::_Umove_if_noexcept
_TEXT	ENDS
; Function compile flags: /Odtp /RTCsu
; File c:\program files (x86)\microsoft visual studio\2017\community\vc\tools\msvc\14.15.26726\include\vector
;	COMDAT ?_Umove_if_noexcept1@?$vector@PAVGoal_Evaluator@@V?$allocator@PAVGoal_Evaluator@@@std@@@std@@AAEXPAPAVGoal_Evaluator@@00U?$integral_constant@_N$00@2@@Z
_TEXT	SEGMENT
_this$ = -4						; size = 4
__First$ = 8						; size = 4
__Last$ = 12						; size = 4
__Dest$ = 16						; size = 4
___formal$ = 20						; size = 1
?_Umove_if_noexcept1@?$vector@PAVGoal_Evaluator@@V?$allocator@PAVGoal_Evaluator@@@std@@@std@@AAEXPAPAVGoal_Evaluator@@00U?$integral_constant@_N$00@2@@Z PROC ; std::vector<Goal_Evaluator *,std::allocator<Goal_Evaluator *> >::_Umove_if_noexcept1, COMDAT
; _this$ = ecx

; 1832 : 		{	// move [_First, _Last) to raw _Dest, using allocator

	push	ebp
	mov	ebp, esp
	push	ecx
	mov	DWORD PTR [ebp-4], -858993460		; ccccccccH
	mov	DWORD PTR _this$[ebp], ecx

; 1833 : 		_Uninitialized_move(_First, _Last, _Dest, this->_Getal());

	mov	ecx, DWORD PTR _this$[ebp]
	call	?_Getal@?$_Vector_alloc@U?$_Vec_base_types@PAVGoal_Evaluator@@V?$allocator@PAVGoal_Evaluator@@@std@@@std@@@std@@QAEAAV?$allocator@PAVGoal_Evaluator@@@2@XZ ; std::_Vector_alloc<std::_Vec_base_types<Goal_Evaluator *,std::allocator<Goal_Evaluator *> > >::_Getal
	push	eax
	mov	eax, DWORD PTR __Dest$[ebp]
	push	eax
	mov	ecx, DWORD PTR __Last$[ebp]
	push	ecx
	mov	edx, DWORD PTR __First$[ebp]
	push	edx
	call	??$_Uninitialized_move@PAPAVGoal_Evaluator@@PAPAV1@V?$allocator@PAVGoal_Evaluator@@@std@@@std@@YAPAPAVGoal_Evaluator@@QAPAV1@0PAPAV1@AAV?$allocator@PAVGoal_Evaluator@@@0@@Z ; std::_Uninitialized_move<Goal_Evaluator * *,Goal_Evaluator * *,std::allocator<Goal_Evaluator *> >
	add	esp, 16					; 00000010H

; 1834 : 		}

	add	esp, 4
	cmp	ebp, esp
	call	__RTC_CheckEsp
	mov	esp, ebp
	pop	ebp
	ret	16					; 00000010H
?_Umove_if_noexcept1@?$vector@PAVGoal_Evaluator@@V?$allocator@PAVGoal_Evaluator@@@std@@@std@@AAEXPAPAVGoal_Evaluator@@00U?$integral_constant@_N$00@2@@Z ENDP ; std::vector<Goal_Evaluator *,std::allocator<Goal_Evaluator *> >::_Umove_if_noexcept1
_TEXT	ENDS
; Function compile flags: /Odtp /RTCsu
; File c:\program files (x86)\microsoft visual studio\2017\community\vc\tools\msvc\14.15.26726\include\vector
;	COMDAT ?_Umove@?$vector@PAVGoal_Evaluator@@V?$allocator@PAVGoal_Evaluator@@@std@@@std@@AAEPAPAVGoal_Evaluator@@PAPAV3@00@Z
_TEXT	SEGMENT
_this$ = -4						; size = 4
__First$ = 8						; size = 4
__Last$ = 12						; size = 4
__Dest$ = 16						; size = 4
?_Umove@?$vector@PAVGoal_Evaluator@@V?$allocator@PAVGoal_Evaluator@@@std@@@std@@AAEPAPAVGoal_Evaluator@@PAPAV3@00@Z PROC ; std::vector<Goal_Evaluator *,std::allocator<Goal_Evaluator *> >::_Umove, COMDAT
; _this$ = ecx

; 1827 : 		{	// move [_First, _Last) to raw _Dest, using allocator

	push	ebp
	mov	ebp, esp
	push	ecx
	mov	DWORD PTR [ebp-4], -858993460		; ccccccccH
	mov	DWORD PTR _this$[ebp], ecx

; 1828 : 		return (_Uninitialized_move(_First, _Last, _Dest, this->_Getal()));

	mov	ecx, DWORD PTR _this$[ebp]
	call	?_Getal@?$_Vector_alloc@U?$_Vec_base_types@PAVGoal_Evaluator@@V?$allocator@PAVGoal_Evaluator@@@std@@@std@@@std@@QAEAAV?$allocator@PAVGoal_Evaluator@@@2@XZ ; std::_Vector_alloc<std::_Vec_base_types<Goal_Evaluator *,std::allocator<Goal_Evaluator *> > >::_Getal
	push	eax
	mov	eax, DWORD PTR __Dest$[ebp]
	push	eax
	mov	ecx, DWORD PTR __Last$[ebp]
	push	ecx
	mov	edx, DWORD PTR __First$[ebp]
	push	edx
	call	??$_Uninitialized_move@PAPAVGoal_Evaluator@@PAPAV1@V?$allocator@PAVGoal_Evaluator@@@std@@@std@@YAPAPAVGoal_Evaluator@@QAPAV1@0PAPAV1@AAV?$allocator@PAVGoal_Evaluator@@@0@@Z ; std::_Uninitialized_move<Goal_Evaluator * *,Goal_Evaluator * *,std::allocator<Goal_Evaluator *> >
	add	esp, 16					; 00000010H

; 1829 : 		}

	add	esp, 4
	cmp	ebp, esp
	call	__RTC_CheckEsp
	mov	esp, ebp
	pop	ebp
	ret	12					; 0000000cH
?_Umove@?$vector@PAVGoal_Evaluator@@V?$allocator@PAVGoal_Evaluator@@@std@@@std@@AAEPAPAVGoal_Evaluator@@PAPAV3@00@Z ENDP ; std::vector<Goal_Evaluator *,std::allocator<Goal_Evaluator *> >::_Umove
_TEXT	ENDS
; Function compile flags: /Odtp /RTCsu
; File c:\program files (x86)\microsoft visual studio\2017\community\vc\tools\msvc\14.15.26726\include\vector
;	COMDAT ?_Has_unused_capacity@?$vector@PAVGoal_Evaluator@@V?$allocator@PAVGoal_Evaluator@@@std@@@std@@ABE_NXZ
_TEXT	SEGMENT
tv77 = -8						; size = 4
_this$ = -4						; size = 4
?_Has_unused_capacity@?$vector@PAVGoal_Evaluator@@V?$allocator@PAVGoal_Evaluator@@@std@@@std@@ABE_NXZ PROC ; std::vector<Goal_Evaluator *,std::allocator<Goal_Evaluator *> >::_Has_unused_capacity, COMDAT
; _this$ = ecx

; 1725 : 		{	// micro-optimization for capacity() != size()

	push	ebp
	mov	ebp, esp
	sub	esp, 8
	push	esi
	mov	DWORD PTR [ebp-8], -858993460		; ccccccccH
	mov	DWORD PTR [ebp-4], -858993460		; ccccccccH
	mov	DWORD PTR _this$[ebp], ecx

; 1726 : 		return (this->_Myend() != this->_Mylast());

	mov	ecx, DWORD PTR _this$[ebp]
	call	?_Myend@?$_Vector_alloc@U?$_Vec_base_types@PAVGoal_Evaluator@@V?$allocator@PAVGoal_Evaluator@@@std@@@std@@@std@@QBEABQAPAVGoal_Evaluator@@XZ ; std::_Vector_alloc<std::_Vec_base_types<Goal_Evaluator *,std::allocator<Goal_Evaluator *> > >::_Myend
	mov	esi, eax
	mov	ecx, DWORD PTR _this$[ebp]
	call	?_Mylast@?$_Vector_alloc@U?$_Vec_base_types@PAVGoal_Evaluator@@V?$allocator@PAVGoal_Evaluator@@@std@@@std@@@std@@QBEABQAPAVGoal_Evaluator@@XZ ; std::_Vector_alloc<std::_Vec_base_types<Goal_Evaluator *,std::allocator<Goal_Evaluator *> > >::_Mylast
	mov	ecx, DWORD PTR [esi]
	cmp	ecx, DWORD PTR [eax]
	je	SHORT $LN3@Has_unused
	mov	DWORD PTR tv77[ebp], 1
	jmp	SHORT $LN4@Has_unused
$LN3@Has_unused:
	mov	DWORD PTR tv77[ebp], 0
$LN4@Has_unused:
	mov	al, BYTE PTR tv77[ebp]

; 1727 : 		}

	pop	esi
	add	esp, 8
	cmp	ebp, esp
	call	__RTC_CheckEsp
	mov	esp, ebp
	pop	ebp
	ret	0
?_Has_unused_capacity@?$vector@PAVGoal_Evaluator@@V?$allocator@PAVGoal_Evaluator@@@std@@@std@@ABE_NXZ ENDP ; std::vector<Goal_Evaluator *,std::allocator<Goal_Evaluator *> >::_Has_unused_capacity
_TEXT	ENDS
; Function compile flags: /Odtp /RTCsu
; File c:\program files (x86)\microsoft visual studio\2017\community\vc\tools\msvc\14.15.26726\include\vector
;	COMDAT ?capacity@?$vector@PAVGoal_Evaluator@@V?$allocator@PAVGoal_Evaluator@@@std@@@std@@QBEIXZ
_TEXT	SEGMENT
_this$ = -4						; size = 4
?capacity@?$vector@PAVGoal_Evaluator@@V?$allocator@PAVGoal_Evaluator@@@std@@@std@@QBEIXZ PROC ; std::vector<Goal_Evaluator *,std::allocator<Goal_Evaluator *> >::capacity, COMDAT
; _this$ = ecx

; 1714 : 		{	// return current length of allocated storage

	push	ebp
	mov	ebp, esp
	push	ecx
	push	esi
	mov	DWORD PTR [ebp-4], -858993460		; ccccccccH
	mov	DWORD PTR _this$[ebp], ecx

; 1715 : 		return (static_cast<size_type>(this->_Myend() - this->_Myfirst()));

	mov	ecx, DWORD PTR _this$[ebp]
	call	?_Myend@?$_Vector_alloc@U?$_Vec_base_types@PAVGoal_Evaluator@@V?$allocator@PAVGoal_Evaluator@@@std@@@std@@@std@@QBEABQAPAVGoal_Evaluator@@XZ ; std::_Vector_alloc<std::_Vec_base_types<Goal_Evaluator *,std::allocator<Goal_Evaluator *> > >::_Myend
	mov	esi, eax
	mov	ecx, DWORD PTR _this$[ebp]
	call	?_Myfirst@?$_Vector_alloc@U?$_Vec_base_types@PAVGoal_Evaluator@@V?$allocator@PAVGoal_Evaluator@@@std@@@std@@@std@@QBEABQAPAVGoal_Evaluator@@XZ ; std::_Vector_alloc<std::_Vec_base_types<Goal_Evaluator *,std::allocator<Goal_Evaluator *> > >::_Myfirst
	mov	ecx, DWORD PTR [esi]
	sub	ecx, DWORD PTR [eax]
	sar	ecx, 2
	mov	eax, ecx

; 1716 : 		}

	pop	esi
	add	esp, 4
	cmp	ebp, esp
	call	__RTC_CheckEsp
	mov	esp, ebp
	pop	ebp
	ret	0
?capacity@?$vector@PAVGoal_Evaluator@@V?$allocator@PAVGoal_Evaluator@@@std@@@std@@QBEIXZ ENDP ; std::vector<Goal_Evaluator *,std::allocator<Goal_Evaluator *> >::capacity
_TEXT	ENDS
; Function compile flags: /Odtp /RTCsu
; File c:\program files (x86)\microsoft visual studio\2017\community\vc\tools\msvc\14.15.26726\include\vector
;	COMDAT ?max_size@?$vector@PAVGoal_Evaluator@@V?$allocator@PAVGoal_Evaluator@@@std@@@std@@QBEIXZ
_TEXT	SEGMENT
$T1 = -12						; size = 4
$T2 = -8						; size = 4
_this$ = -4						; size = 4
?max_size@?$vector@PAVGoal_Evaluator@@V?$allocator@PAVGoal_Evaluator@@@std@@@std@@QBEIXZ PROC ; std::vector<Goal_Evaluator *,std::allocator<Goal_Evaluator *> >::max_size, COMDAT
; _this$ = ecx

; 1708 : 		{	// return maximum possible length of sequence

	push	ebp
	mov	ebp, esp
	sub	esp, 12					; 0000000cH
	mov	DWORD PTR [ebp-12], -858993460		; ccccccccH
	mov	DWORD PTR [ebp-8], -858993460		; ccccccccH
	mov	DWORD PTR [ebp-4], -858993460		; ccccccccH
	mov	DWORD PTR _this$[ebp], ecx

; 1709 : 		return (_Min_value(static_cast<size_type>((numeric_limits<difference_type>::max)()),

	mov	ecx, DWORD PTR _this$[ebp]
	call	?_Getal@?$_Vector_alloc@U?$_Vec_base_types@PAVGoal_Evaluator@@V?$allocator@PAVGoal_Evaluator@@@std@@@std@@@std@@QBEABV?$allocator@PAVGoal_Evaluator@@@2@XZ ; std::_Vector_alloc<std::_Vec_base_types<Goal_Evaluator *,std::allocator<Goal_Evaluator *> > >::_Getal
	push	eax
	call	?max_size@?$_Default_allocator_traits@V?$allocator@PAVGoal_Evaluator@@@std@@@std@@SAIABV?$allocator@PAVGoal_Evaluator@@@2@@Z ; std::_Default_allocator_traits<std::allocator<Goal_Evaluator *> >::max_size
	add	esp, 4
	mov	DWORD PTR $T2[ebp], eax
	call	?max@?$numeric_limits@H@std@@SAHXZ	; std::numeric_limits<int>::max
	mov	DWORD PTR $T1[ebp], eax
	lea	eax, DWORD PTR $T2[ebp]
	push	eax
	lea	ecx, DWORD PTR $T1[ebp]
	push	ecx
	call	??$_Min_value@I@std@@YAABIABI0@Z	; std::_Min_value<unsigned int>
	add	esp, 8
	mov	eax, DWORD PTR [eax]

; 1710 : 			_Alty_traits::max_size(this->_Getal())));
; 1711 : 		}

	add	esp, 12					; 0000000cH
	cmp	ebp, esp
	call	__RTC_CheckEsp
	mov	esp, ebp
	pop	ebp
	ret	0
?max_size@?$vector@PAVGoal_Evaluator@@V?$allocator@PAVGoal_Evaluator@@@std@@@std@@QBEIXZ ENDP ; std::vector<Goal_Evaluator *,std::allocator<Goal_Evaluator *> >::max_size
_TEXT	ENDS
; Function compile flags: /Odtp /RTCsu
; File c:\program files (x86)\microsoft visual studio\2017\community\vc\tools\msvc\14.15.26726\include\vector
;	COMDAT ?size@?$vector@PAVGoal_Evaluator@@V?$allocator@PAVGoal_Evaluator@@@std@@@std@@QBEIXZ
_TEXT	SEGMENT
_this$ = -4						; size = 4
?size@?$vector@PAVGoal_Evaluator@@V?$allocator@PAVGoal_Evaluator@@@std@@@std@@QBEIXZ PROC ; std::vector<Goal_Evaluator *,std::allocator<Goal_Evaluator *> >::size, COMDAT
; _this$ = ecx

; 1703 : 		{	// return length of sequence

	push	ebp
	mov	ebp, esp
	push	ecx
	push	esi
	mov	DWORD PTR [ebp-4], -858993460		; ccccccccH
	mov	DWORD PTR _this$[ebp], ecx

; 1704 : 		return (static_cast<size_type>(this->_Mylast() - this->_Myfirst()));

	mov	ecx, DWORD PTR _this$[ebp]
	call	?_Mylast@?$_Vector_alloc@U?$_Vec_base_types@PAVGoal_Evaluator@@V?$allocator@PAVGoal_Evaluator@@@std@@@std@@@std@@QBEABQAPAVGoal_Evaluator@@XZ ; std::_Vector_alloc<std::_Vec_base_types<Goal_Evaluator *,std::allocator<Goal_Evaluator *> > >::_Mylast
	mov	esi, eax
	mov	ecx, DWORD PTR _this$[ebp]
	call	?_Myfirst@?$_Vector_alloc@U?$_Vec_base_types@PAVGoal_Evaluator@@V?$allocator@PAVGoal_Evaluator@@@std@@@std@@@std@@QBEABQAPAVGoal_Evaluator@@XZ ; std::_Vector_alloc<std::_Vec_base_types<Goal_Evaluator *,std::allocator<Goal_Evaluator *> > >::_Myfirst
	mov	ecx, DWORD PTR [esi]
	sub	ecx, DWORD PTR [eax]
	sar	ecx, 2
	mov	eax, ecx

; 1705 : 		}

	pop	esi
	add	esp, 4
	cmp	ebp, esp
	call	__RTC_CheckEsp
	mov	esp, ebp
	pop	ebp
	ret	0
?size@?$vector@PAVGoal_Evaluator@@V?$allocator@PAVGoal_Evaluator@@@std@@@std@@QBEIXZ ENDP ; std::vector<Goal_Evaluator *,std::allocator<Goal_Evaluator *> >::size
_TEXT	ENDS
; Function compile flags: /Odtp /RTCsu
; File c:\program files (x86)\microsoft visual studio\2017\community\vc\tools\msvc\14.15.26726\include\vector
;	COMDAT ?end@?$vector@PAVGoal_Evaluator@@V?$allocator@PAVGoal_Evaluator@@@std@@@std@@QBE?AV?$_Vector_const_iterator@V?$_Vector_val@U?$_Simple_types@PAVGoal_Evaluator@@@std@@@std@@@2@XZ
_TEXT	SEGMENT
_this$ = -16						; size = 4
__$EHRec$ = -12						; size = 12
___$ReturnUdt$ = 8					; size = 4
?end@?$vector@PAVGoal_Evaluator@@V?$allocator@PAVGoal_Evaluator@@@std@@@std@@QBE?AV?$_Vector_const_iterator@V?$_Vector_val@U?$_Simple_types@PAVGoal_Evaluator@@@std@@@std@@@2@XZ PROC ; std::vector<Goal_Evaluator *,std::allocator<Goal_Evaluator *> >::end, COMDAT
; _this$ = ecx

; 1633 : 		{	// return iterator for end of nonmutable sequence

	push	ebp
	mov	ebp, esp
	push	-1
	push	__ehhandler$?end@?$vector@PAVGoal_Evaluator@@V?$allocator@PAVGoal_Evaluator@@@std@@@std@@QBE?AV?$_Vector_const_iterator@V?$_Vector_val@U?$_Simple_types@PAVGoal_Evaluator@@@std@@@std@@@2@XZ
	mov	eax, DWORD PTR fs:0
	push	eax
	push	ecx
	mov	DWORD PTR [ebp-16], -858993460		; ccccccccH
	mov	eax, DWORD PTR ___security_cookie
	xor	eax, ebp
	push	eax
	lea	eax, DWORD PTR __$EHRec$[ebp]
	mov	DWORD PTR fs:0, eax
	mov	DWORD PTR _this$[ebp], ecx

; 1634 : 		return (const_iterator(this->_Mylast(), _STD addressof(this->_Get_data())));

	mov	ecx, DWORD PTR _this$[ebp]
	call	?_Get_data@?$_Vector_alloc@U?$_Vec_base_types@PAVGoal_Evaluator@@V?$allocator@PAVGoal_Evaluator@@@std@@@std@@@std@@QBEABV?$_Vector_val@U?$_Simple_types@PAVGoal_Evaluator@@@std@@@2@XZ ; std::_Vector_alloc<std::_Vec_base_types<Goal_Evaluator *,std::allocator<Goal_Evaluator *> > >::_Get_data
	push	eax
	call	??$addressof@$$CBV?$_Vector_val@U?$_Simple_types@PAVGoal_Evaluator@@@std@@@std@@@std@@YAPBV?$_Vector_val@U?$_Simple_types@PAVGoal_Evaluator@@@std@@@0@ABV10@@Z ; std::addressof<std::_Vector_val<std::_Simple_types<Goal_Evaluator *> > const >
	add	esp, 4
	push	eax
	mov	ecx, DWORD PTR _this$[ebp]
	call	?_Mylast@?$_Vector_alloc@U?$_Vec_base_types@PAVGoal_Evaluator@@V?$allocator@PAVGoal_Evaluator@@@std@@@std@@@std@@QBEABQAPAVGoal_Evaluator@@XZ ; std::_Vector_alloc<std::_Vec_base_types<Goal_Evaluator *,std::allocator<Goal_Evaluator *> > >::_Mylast
	mov	eax, DWORD PTR [eax]
	push	eax
	mov	ecx, DWORD PTR ___$ReturnUdt$[ebp]
	call	??0?$_Vector_const_iterator@V?$_Vector_val@U?$_Simple_types@PAVGoal_Evaluator@@@std@@@std@@@std@@QAE@PAPAVGoal_Evaluator@@PBU_Container_base12@1@@Z ; std::_Vector_const_iterator<std::_Vector_val<std::_Simple_types<Goal_Evaluator *> > >::_Vector_const_iterator<std::_Vector_val<std::_Simple_types<Goal_Evaluator *> > >
	mov	eax, DWORD PTR ___$ReturnUdt$[ebp]

; 1635 : 		}

	mov	ecx, DWORD PTR __$EHRec$[ebp]
	mov	DWORD PTR fs:0, ecx
	pop	ecx
	add	esp, 16					; 00000010H
	cmp	ebp, esp
	call	__RTC_CheckEsp
	mov	esp, ebp
	pop	ebp
	ret	4
_TEXT	ENDS
;	COMDAT text$x
text$x	SEGMENT
__ehhandler$?end@?$vector@PAVGoal_Evaluator@@V?$allocator@PAVGoal_Evaluator@@@std@@@std@@QBE?AV?$_Vector_const_iterator@V?$_Vector_val@U?$_Simple_types@PAVGoal_Evaluator@@@std@@@std@@@2@XZ:
	mov	edx, DWORD PTR [esp+8]
	lea	eax, DWORD PTR [edx+12]
	mov	ecx, DWORD PTR [edx-8]
	xor	ecx, eax
	call	@__security_check_cookie@4
	mov	eax, OFFSET __ehfuncinfo$?end@?$vector@PAVGoal_Evaluator@@V?$allocator@PAVGoal_Evaluator@@@std@@@std@@QBE?AV?$_Vector_const_iterator@V?$_Vector_val@U?$_Simple_types@PAVGoal_Evaluator@@@std@@@std@@@2@XZ
	jmp	___CxxFrameHandler3
text$x	ENDS
?end@?$vector@PAVGoal_Evaluator@@V?$allocator@PAVGoal_Evaluator@@@std@@@std@@QBE?AV?$_Vector_const_iterator@V?$_Vector_val@U?$_Simple_types@PAVGoal_Evaluator@@@std@@@std@@@2@XZ ENDP ; std::vector<Goal_Evaluator *,std::allocator<Goal_Evaluator *> >::end
; Function compile flags: /Odtp /RTCsu
; File c:\program files (x86)\microsoft visual studio\2017\community\vc\tools\msvc\14.15.26726\include\vector
;	COMDAT ?end@?$vector@PAVGoal_Evaluator@@V?$allocator@PAVGoal_Evaluator@@@std@@@std@@QAE?AV?$_Vector_iterator@V?$_Vector_val@U?$_Simple_types@PAVGoal_Evaluator@@@std@@@std@@@2@XZ
_TEXT	SEGMENT
_this$ = -16						; size = 4
__$EHRec$ = -12						; size = 12
___$ReturnUdt$ = 8					; size = 4
?end@?$vector@PAVGoal_Evaluator@@V?$allocator@PAVGoal_Evaluator@@@std@@@std@@QAE?AV?$_Vector_iterator@V?$_Vector_val@U?$_Simple_types@PAVGoal_Evaluator@@@std@@@std@@@2@XZ PROC ; std::vector<Goal_Evaluator *,std::allocator<Goal_Evaluator *> >::end, COMDAT
; _this$ = ecx

; 1628 : 		{	// return iterator for end of mutable sequence

	push	ebp
	mov	ebp, esp
	push	-1
	push	__ehhandler$?end@?$vector@PAVGoal_Evaluator@@V?$allocator@PAVGoal_Evaluator@@@std@@@std@@QAE?AV?$_Vector_iterator@V?$_Vector_val@U?$_Simple_types@PAVGoal_Evaluator@@@std@@@std@@@2@XZ
	mov	eax, DWORD PTR fs:0
	push	eax
	push	ecx
	mov	DWORD PTR [ebp-16], -858993460		; ccccccccH
	mov	eax, DWORD PTR ___security_cookie
	xor	eax, ebp
	push	eax
	lea	eax, DWORD PTR __$EHRec$[ebp]
	mov	DWORD PTR fs:0, eax
	mov	DWORD PTR _this$[ebp], ecx

; 1629 : 		return (iterator(this->_Mylast(), _STD addressof(this->_Get_data())));

	mov	ecx, DWORD PTR _this$[ebp]
	call	?_Get_data@?$_Vector_alloc@U?$_Vec_base_types@PAVGoal_Evaluator@@V?$allocator@PAVGoal_Evaluator@@@std@@@std@@@std@@QAEAAV?$_Vector_val@U?$_Simple_types@PAVGoal_Evaluator@@@std@@@2@XZ ; std::_Vector_alloc<std::_Vec_base_types<Goal_Evaluator *,std::allocator<Goal_Evaluator *> > >::_Get_data
	push	eax
	call	??$addressof@V?$_Vector_val@U?$_Simple_types@PAVGoal_Evaluator@@@std@@@std@@@std@@YAPAV?$_Vector_val@U?$_Simple_types@PAVGoal_Evaluator@@@std@@@0@AAV10@@Z ; std::addressof<std::_Vector_val<std::_Simple_types<Goal_Evaluator *> > >
	add	esp, 4
	push	eax
	mov	ecx, DWORD PTR _this$[ebp]
	call	?_Mylast@?$_Vector_alloc@U?$_Vec_base_types@PAVGoal_Evaluator@@V?$allocator@PAVGoal_Evaluator@@@std@@@std@@@std@@QAEAAPAPAVGoal_Evaluator@@XZ ; std::_Vector_alloc<std::_Vec_base_types<Goal_Evaluator *,std::allocator<Goal_Evaluator *> > >::_Mylast
	mov	eax, DWORD PTR [eax]
	push	eax
	mov	ecx, DWORD PTR ___$ReturnUdt$[ebp]
	call	??0?$_Vector_iterator@V?$_Vector_val@U?$_Simple_types@PAVGoal_Evaluator@@@std@@@std@@@std@@QAE@PAPAVGoal_Evaluator@@PBU_Container_base12@1@@Z ; std::_Vector_iterator<std::_Vector_val<std::_Simple_types<Goal_Evaluator *> > >::_Vector_iterator<std::_Vector_val<std::_Simple_types<Goal_Evaluator *> > >
	mov	eax, DWORD PTR ___$ReturnUdt$[ebp]

; 1630 : 		}

	mov	ecx, DWORD PTR __$EHRec$[ebp]
	mov	DWORD PTR fs:0, ecx
	pop	ecx
	add	esp, 16					; 00000010H
	cmp	ebp, esp
	call	__RTC_CheckEsp
	mov	esp, ebp
	pop	ebp
	ret	4
_TEXT	ENDS
;	COMDAT text$x
text$x	SEGMENT
__ehhandler$?end@?$vector@PAVGoal_Evaluator@@V?$allocator@PAVGoal_Evaluator@@@std@@@std@@QAE?AV?$_Vector_iterator@V?$_Vector_val@U?$_Simple_types@PAVGoal_Evaluator@@@std@@@std@@@2@XZ:
	mov	edx, DWORD PTR [esp+8]
	lea	eax, DWORD PTR [edx+12]
	mov	ecx, DWORD PTR [edx-8]
	xor	ecx, eax
	call	@__security_check_cookie@4
	mov	eax, OFFSET __ehfuncinfo$?end@?$vector@PAVGoal_Evaluator@@V?$allocator@PAVGoal_Evaluator@@@std@@@std@@QAE?AV?$_Vector_iterator@V?$_Vector_val@U?$_Simple_types@PAVGoal_Evaluator@@@std@@@std@@@2@XZ
	jmp	___CxxFrameHandler3
text$x	ENDS
?end@?$vector@PAVGoal_Evaluator@@V?$allocator@PAVGoal_Evaluator@@@std@@@std@@QAE?AV?$_Vector_iterator@V?$_Vector_val@U?$_Simple_types@PAVGoal_Evaluator@@@std@@@std@@@2@XZ ENDP ; std::vector<Goal_Evaluator *,std::allocator<Goal_Evaluator *> >::end
; Function compile flags: /Odtp /RTCsu
; File c:\program files (x86)\microsoft visual studio\2017\community\vc\tools\msvc\14.15.26726\include\vector
;	COMDAT ?begin@?$vector@PAVGoal_Evaluator@@V?$allocator@PAVGoal_Evaluator@@@std@@@std@@QBE?AV?$_Vector_const_iterator@V?$_Vector_val@U?$_Simple_types@PAVGoal_Evaluator@@@std@@@std@@@2@XZ
_TEXT	SEGMENT
_this$ = -16						; size = 4
__$EHRec$ = -12						; size = 12
___$ReturnUdt$ = 8					; size = 4
?begin@?$vector@PAVGoal_Evaluator@@V?$allocator@PAVGoal_Evaluator@@@std@@@std@@QBE?AV?$_Vector_const_iterator@V?$_Vector_val@U?$_Simple_types@PAVGoal_Evaluator@@@std@@@std@@@2@XZ PROC ; std::vector<Goal_Evaluator *,std::allocator<Goal_Evaluator *> >::begin, COMDAT
; _this$ = ecx

; 1623 : 		{	// return iterator for beginning of nonmutable sequence

	push	ebp
	mov	ebp, esp
	push	-1
	push	__ehhandler$?begin@?$vector@PAVGoal_Evaluator@@V?$allocator@PAVGoal_Evaluator@@@std@@@std@@QBE?AV?$_Vector_const_iterator@V?$_Vector_val@U?$_Simple_types@PAVGoal_Evaluator@@@std@@@std@@@2@XZ
	mov	eax, DWORD PTR fs:0
	push	eax
	push	ecx
	mov	DWORD PTR [ebp-16], -858993460		; ccccccccH
	mov	eax, DWORD PTR ___security_cookie
	xor	eax, ebp
	push	eax
	lea	eax, DWORD PTR __$EHRec$[ebp]
	mov	DWORD PTR fs:0, eax
	mov	DWORD PTR _this$[ebp], ecx

; 1624 : 		return (const_iterator(this->_Myfirst(), _STD addressof(this->_Get_data())));

	mov	ecx, DWORD PTR _this$[ebp]
	call	?_Get_data@?$_Vector_alloc@U?$_Vec_base_types@PAVGoal_Evaluator@@V?$allocator@PAVGoal_Evaluator@@@std@@@std@@@std@@QBEABV?$_Vector_val@U?$_Simple_types@PAVGoal_Evaluator@@@std@@@2@XZ ; std::_Vector_alloc<std::_Vec_base_types<Goal_Evaluator *,std::allocator<Goal_Evaluator *> > >::_Get_data
	push	eax
	call	??$addressof@$$CBV?$_Vector_val@U?$_Simple_types@PAVGoal_Evaluator@@@std@@@std@@@std@@YAPBV?$_Vector_val@U?$_Simple_types@PAVGoal_Evaluator@@@std@@@0@ABV10@@Z ; std::addressof<std::_Vector_val<std::_Simple_types<Goal_Evaluator *> > const >
	add	esp, 4
	push	eax
	mov	ecx, DWORD PTR _this$[ebp]
	call	?_Myfirst@?$_Vector_alloc@U?$_Vec_base_types@PAVGoal_Evaluator@@V?$allocator@PAVGoal_Evaluator@@@std@@@std@@@std@@QBEABQAPAVGoal_Evaluator@@XZ ; std::_Vector_alloc<std::_Vec_base_types<Goal_Evaluator *,std::allocator<Goal_Evaluator *> > >::_Myfirst
	mov	eax, DWORD PTR [eax]
	push	eax
	mov	ecx, DWORD PTR ___$ReturnUdt$[ebp]
	call	??0?$_Vector_const_iterator@V?$_Vector_val@U?$_Simple_types@PAVGoal_Evaluator@@@std@@@std@@@std@@QAE@PAPAVGoal_Evaluator@@PBU_Container_base12@1@@Z ; std::_Vector_const_iterator<std::_Vector_val<std::_Simple_types<Goal_Evaluator *> > >::_Vector_const_iterator<std::_Vector_val<std::_Simple_types<Goal_Evaluator *> > >
	mov	eax, DWORD PTR ___$ReturnUdt$[ebp]

; 1625 : 		}

	mov	ecx, DWORD PTR __$EHRec$[ebp]
	mov	DWORD PTR fs:0, ecx
	pop	ecx
	add	esp, 16					; 00000010H
	cmp	ebp, esp
	call	__RTC_CheckEsp
	mov	esp, ebp
	pop	ebp
	ret	4
_TEXT	ENDS
;	COMDAT text$x
text$x	SEGMENT
__ehhandler$?begin@?$vector@PAVGoal_Evaluator@@V?$allocator@PAVGoal_Evaluator@@@std@@@std@@QBE?AV?$_Vector_const_iterator@V?$_Vector_val@U?$_Simple_types@PAVGoal_Evaluator@@@std@@@std@@@2@XZ:
	mov	edx, DWORD PTR [esp+8]
	lea	eax, DWORD PTR [edx+12]
	mov	ecx, DWORD PTR [edx-8]
	xor	ecx, eax
	call	@__security_check_cookie@4
	mov	eax, OFFSET __ehfuncinfo$?begin@?$vector@PAVGoal_Evaluator@@V?$allocator@PAVGoal_Evaluator@@@std@@@std@@QBE?AV?$_Vector_const_iterator@V?$_Vector_val@U?$_Simple_types@PAVGoal_Evaluator@@@std@@@std@@@2@XZ
	jmp	___CxxFrameHandler3
text$x	ENDS
?begin@?$vector@PAVGoal_Evaluator@@V?$allocator@PAVGoal_Evaluator@@@std@@@std@@QBE?AV?$_Vector_const_iterator@V?$_Vector_val@U?$_Simple_types@PAVGoal_Evaluator@@@std@@@std@@@2@XZ ENDP ; std::vector<Goal_Evaluator *,std::allocator<Goal_Evaluator *> >::begin
; Function compile flags: /Odtp /RTCsu
; File c:\program files (x86)\microsoft visual studio\2017\community\vc\tools\msvc\14.15.26726\include\vector
;	COMDAT ?begin@?$vector@PAVGoal_Evaluator@@V?$allocator@PAVGoal_Evaluator@@@std@@@std@@QAE?AV?$_Vector_iterator@V?$_Vector_val@U?$_Simple_types@PAVGoal_Evaluator@@@std@@@std@@@2@XZ
_TEXT	SEGMENT
_this$ = -16						; size = 4
__$EHRec$ = -12						; size = 12
___$ReturnUdt$ = 8					; size = 4
?begin@?$vector@PAVGoal_Evaluator@@V?$allocator@PAVGoal_Evaluator@@@std@@@std@@QAE?AV?$_Vector_iterator@V?$_Vector_val@U?$_Simple_types@PAVGoal_Evaluator@@@std@@@std@@@2@XZ PROC ; std::vector<Goal_Evaluator *,std::allocator<Goal_Evaluator *> >::begin, COMDAT
; _this$ = ecx

; 1618 : 		{	// return iterator for beginning of mutable sequence

	push	ebp
	mov	ebp, esp
	push	-1
	push	__ehhandler$?begin@?$vector@PAVGoal_Evaluator@@V?$allocator@PAVGoal_Evaluator@@@std@@@std@@QAE?AV?$_Vector_iterator@V?$_Vector_val@U?$_Simple_types@PAVGoal_Evaluator@@@std@@@std@@@2@XZ
	mov	eax, DWORD PTR fs:0
	push	eax
	push	ecx
	mov	DWORD PTR [ebp-16], -858993460		; ccccccccH
	mov	eax, DWORD PTR ___security_cookie
	xor	eax, ebp
	push	eax
	lea	eax, DWORD PTR __$EHRec$[ebp]
	mov	DWORD PTR fs:0, eax
	mov	DWORD PTR _this$[ebp], ecx

; 1619 : 		return (iterator(this->_Myfirst(), _STD addressof(this->_Get_data())));

	mov	ecx, DWORD PTR _this$[ebp]
	call	?_Get_data@?$_Vector_alloc@U?$_Vec_base_types@PAVGoal_Evaluator@@V?$allocator@PAVGoal_Evaluator@@@std@@@std@@@std@@QAEAAV?$_Vector_val@U?$_Simple_types@PAVGoal_Evaluator@@@std@@@2@XZ ; std::_Vector_alloc<std::_Vec_base_types<Goal_Evaluator *,std::allocator<Goal_Evaluator *> > >::_Get_data
	push	eax
	call	??$addressof@V?$_Vector_val@U?$_Simple_types@PAVGoal_Evaluator@@@std@@@std@@@std@@YAPAV?$_Vector_val@U?$_Simple_types@PAVGoal_Evaluator@@@std@@@0@AAV10@@Z ; std::addressof<std::_Vector_val<std::_Simple_types<Goal_Evaluator *> > >
	add	esp, 4
	push	eax
	mov	ecx, DWORD PTR _this$[ebp]
	call	?_Myfirst@?$_Vector_alloc@U?$_Vec_base_types@PAVGoal_Evaluator@@V?$allocator@PAVGoal_Evaluator@@@std@@@std@@@std@@QAEAAPAPAVGoal_Evaluator@@XZ ; std::_Vector_alloc<std::_Vec_base_types<Goal_Evaluator *,std::allocator<Goal_Evaluator *> > >::_Myfirst
	mov	eax, DWORD PTR [eax]
	push	eax
	mov	ecx, DWORD PTR ___$ReturnUdt$[ebp]
	call	??0?$_Vector_iterator@V?$_Vector_val@U?$_Simple_types@PAVGoal_Evaluator@@@std@@@std@@@std@@QAE@PAPAVGoal_Evaluator@@PBU_Container_base12@1@@Z ; std::_Vector_iterator<std::_Vector_val<std::_Simple_types<Goal_Evaluator *> > >::_Vector_iterator<std::_Vector_val<std::_Simple_types<Goal_Evaluator *> > >
	mov	eax, DWORD PTR ___$ReturnUdt$[ebp]

; 1620 : 		}

	mov	ecx, DWORD PTR __$EHRec$[ebp]
	mov	DWORD PTR fs:0, ecx
	pop	ecx
	add	esp, 16					; 00000010H
	cmp	ebp, esp
	call	__RTC_CheckEsp
	mov	esp, ebp
	pop	ebp
	ret	4
_TEXT	ENDS
;	COMDAT text$x
text$x	SEGMENT
__ehhandler$?begin@?$vector@PAVGoal_Evaluator@@V?$allocator@PAVGoal_Evaluator@@@std@@@std@@QAE?AV?$_Vector_iterator@V?$_Vector_val@U?$_Simple_types@PAVGoal_Evaluator@@@std@@@std@@@2@XZ:
	mov	edx, DWORD PTR [esp+8]
	lea	eax, DWORD PTR [edx+12]
	mov	ecx, DWORD PTR [edx-8]
	xor	ecx, eax
	call	@__security_check_cookie@4
	mov	eax, OFFSET __ehfuncinfo$?begin@?$vector@PAVGoal_Evaluator@@V?$allocator@PAVGoal_Evaluator@@@std@@@std@@QAE?AV?$_Vector_iterator@V?$_Vector_val@U?$_Simple_types@PAVGoal_Evaluator@@@std@@@std@@@2@XZ
	jmp	___CxxFrameHandler3
text$x	ENDS
?begin@?$vector@PAVGoal_Evaluator@@V?$allocator@PAVGoal_Evaluator@@@std@@@std@@QAE?AV?$_Vector_iterator@V?$_Vector_val@U?$_Simple_types@PAVGoal_Evaluator@@@std@@@std@@@2@XZ ENDP ; std::vector<Goal_Evaluator *,std::allocator<Goal_Evaluator *> >::begin
; Function compile flags: /Odtp /RTCsu
; File c:\program files (x86)\microsoft visual studio\2017\community\vc\tools\msvc\14.15.26726\include\vector
;	COMDAT ?push_back@?$vector@PAVGoal_Evaluator@@V?$allocator@PAVGoal_Evaluator@@@std@@@std@@QAEX$$QAPAVGoal_Evaluator@@@Z
_TEXT	SEGMENT
_this$ = -4						; size = 4
__Val$ = 8						; size = 4
?push_back@?$vector@PAVGoal_Evaluator@@V?$allocator@PAVGoal_Evaluator@@@std@@@std@@QAEX$$QAPAVGoal_Evaluator@@@Z PROC ; std::vector<Goal_Evaluator *,std::allocator<Goal_Evaluator *> >::push_back, COMDAT
; _this$ = ecx

; 936  : 		{	// insert by moving into element at end, provide strong guarantee

	push	ebp
	mov	ebp, esp
	push	ecx
	mov	DWORD PTR [ebp-4], -858993460		; ccccccccH
	mov	DWORD PTR _this$[ebp], ecx

; 937  : 		emplace_back(_STD move(_Val));

	mov	eax, DWORD PTR __Val$[ebp]
	push	eax
	call	??$move@AAPAVGoal_Evaluator@@@std@@YA$$QAPAVGoal_Evaluator@@AAPAV1@@Z ; std::move<Goal_Evaluator * &>
	add	esp, 4
	push	eax
	mov	ecx, DWORD PTR _this$[ebp]
	call	??$emplace_back@PAVGoal_Evaluator@@@?$vector@PAVGoal_Evaluator@@V?$allocator@PAVGoal_Evaluator@@@std@@@std@@QAE@$$QAPAVGoal_Evaluator@@@Z ; std::vector<Goal_Evaluator *,std::allocator<Goal_Evaluator *> >::emplace_back<Goal_Evaluator *>

; 938  : 		}

	add	esp, 4
	cmp	ebp, esp
	call	__RTC_CheckEsp
	mov	esp, ebp
	pop	ebp
	ret	4
?push_back@?$vector@PAVGoal_Evaluator@@V?$allocator@PAVGoal_Evaluator@@@std@@@std@@QAEX$$QAPAVGoal_Evaluator@@@Z ENDP ; std::vector<Goal_Evaluator *,std::allocator<Goal_Evaluator *> >::push_back
_TEXT	ENDS
; Function compile flags: /Odtp /RTCsu
; File c:\program files (x86)\microsoft visual studio\2017\community\vc\tools\msvc\14.15.26726\include\vector
;	COMDAT ??1?$vector@PAVGoal_Evaluator@@V?$allocator@PAVGoal_Evaluator@@@std@@@std@@QAE@XZ
_TEXT	SEGMENT
_this$ = -16						; size = 4
__$EHRec$ = -12						; size = 12
??1?$vector@PAVGoal_Evaluator@@V?$allocator@PAVGoal_Evaluator@@@std@@@std@@QAE@XZ PROC ; std::vector<Goal_Evaluator *,std::allocator<Goal_Evaluator *> >::~vector<Goal_Evaluator *,std::allocator<Goal_Evaluator *> >, COMDAT
; _this$ = ecx

; 893  : 		{	// destroy the object

	push	ebp
	mov	ebp, esp
	push	-1
	push	__ehhandler$??1?$vector@PAVGoal_Evaluator@@V?$allocator@PAVGoal_Evaluator@@@std@@@std@@QAE@XZ
	mov	eax, DWORD PTR fs:0
	push	eax
	push	ecx
	mov	DWORD PTR [ebp-16], -858993460		; ccccccccH
	mov	eax, DWORD PTR ___security_cookie
	xor	eax, ebp
	push	eax
	lea	eax, DWORD PTR __$EHRec$[ebp]
	mov	DWORD PTR fs:0, eax
	mov	DWORD PTR _this$[ebp], ecx

; 894  : 		_Tidy();

	mov	ecx, DWORD PTR _this$[ebp]
	call	?_Tidy@?$vector@PAVGoal_Evaluator@@V?$allocator@PAVGoal_Evaluator@@@std@@@std@@AAEXXZ ; std::vector<Goal_Evaluator *,std::allocator<Goal_Evaluator *> >::_Tidy

; 895  : 		}

	mov	ecx, DWORD PTR _this$[ebp]
	call	??1?$_Vector_alloc@U?$_Vec_base_types@PAVGoal_Evaluator@@V?$allocator@PAVGoal_Evaluator@@@std@@@std@@@std@@QAE@XZ ; std::_Vector_alloc<std::_Vec_base_types<Goal_Evaluator *,std::allocator<Goal_Evaluator *> > >::~_Vector_alloc<std::_Vec_base_types<Goal_Evaluator *,std::allocator<Goal_Evaluator *> > >
	mov	ecx, DWORD PTR __$EHRec$[ebp]
	mov	DWORD PTR fs:0, ecx
	pop	ecx
	add	esp, 16					; 00000010H
	cmp	ebp, esp
	call	__RTC_CheckEsp
	mov	esp, ebp
	pop	ebp
	ret	0
_TEXT	ENDS
;	COMDAT text$x
text$x	SEGMENT
__ehhandler$??1?$vector@PAVGoal_Evaluator@@V?$allocator@PAVGoal_Evaluator@@@std@@@std@@QAE@XZ:
	mov	edx, DWORD PTR [esp+8]
	lea	eax, DWORD PTR [edx+12]
	mov	ecx, DWORD PTR [edx-8]
	xor	ecx, eax
	call	@__security_check_cookie@4
	mov	eax, OFFSET __ehfuncinfo$??1?$vector@PAVGoal_Evaluator@@V?$allocator@PAVGoal_Evaluator@@@std@@@std@@QAE@XZ
	jmp	___CxxFrameHandler3
text$x	ENDS
??1?$vector@PAVGoal_Evaluator@@V?$allocator@PAVGoal_Evaluator@@@std@@@std@@QAE@XZ ENDP ; std::vector<Goal_Evaluator *,std::allocator<Goal_Evaluator *> >::~vector<Goal_Evaluator *,std::allocator<Goal_Evaluator *> >
; Function compile flags: /Odtp /RTCsu
; File c:\program files (x86)\microsoft visual studio\2017\community\vc\tools\msvc\14.15.26726\include\vector
;	COMDAT ??0?$vector@PAVGoal_Evaluator@@V?$allocator@PAVGoal_Evaluator@@@std@@@std@@QAE@XZ
_TEXT	SEGMENT
_this$ = -16						; size = 4
__$EHRec$ = -12						; size = 12
??0?$vector@PAVGoal_Evaluator@@V?$allocator@PAVGoal_Evaluator@@@std@@@std@@QAE@XZ PROC ; std::vector<Goal_Evaluator *,std::allocator<Goal_Evaluator *> >::vector<Goal_Evaluator *,std::allocator<Goal_Evaluator *> >, COMDAT
; _this$ = ecx

; 651  : 		{	// construct empty vector

	push	ebp
	mov	ebp, esp
	push	-1
	push	__ehhandler$??0?$vector@PAVGoal_Evaluator@@V?$allocator@PAVGoal_Evaluator@@@std@@@std@@QAE@XZ
	mov	eax, DWORD PTR fs:0
	push	eax
	push	ecx
	mov	DWORD PTR [ebp-16], -858993460		; ccccccccH
	mov	eax, DWORD PTR ___security_cookie
	xor	eax, ebp
	push	eax
	lea	eax, DWORD PTR __$EHRec$[ebp]
	mov	DWORD PTR fs:0, eax
	mov	DWORD PTR _this$[ebp], ecx

; 650  : 		: _Mybase()

	mov	ecx, DWORD PTR _this$[ebp]
	call	??0?$_Vector_alloc@U?$_Vec_base_types@PAVGoal_Evaluator@@V?$allocator@PAVGoal_Evaluator@@@std@@@std@@@std@@QAE@XZ ; std::_Vector_alloc<std::_Vec_base_types<Goal_Evaluator *,std::allocator<Goal_Evaluator *> > >::_Vector_alloc<std::_Vec_base_types<Goal_Evaluator *,std::allocator<Goal_Evaluator *> > >

; 652  : 		}

	mov	eax, DWORD PTR _this$[ebp]
	mov	ecx, DWORD PTR __$EHRec$[ebp]
	mov	DWORD PTR fs:0, ecx
	pop	ecx
	add	esp, 16					; 00000010H
	cmp	ebp, esp
	call	__RTC_CheckEsp
	mov	esp, ebp
	pop	ebp
	ret	0
_TEXT	ENDS
;	COMDAT text$x
text$x	SEGMENT
__ehhandler$??0?$vector@PAVGoal_Evaluator@@V?$allocator@PAVGoal_Evaluator@@@std@@@std@@QAE@XZ:
	mov	edx, DWORD PTR [esp+8]
	lea	eax, DWORD PTR [edx+12]
	mov	ecx, DWORD PTR [edx-8]
	xor	ecx, eax
	call	@__security_check_cookie@4
	mov	eax, OFFSET __ehfuncinfo$??0?$vector@PAVGoal_Evaluator@@V?$allocator@PAVGoal_Evaluator@@@std@@@std@@QAE@XZ
	jmp	___CxxFrameHandler3
text$x	ENDS
??0?$vector@PAVGoal_Evaluator@@V?$allocator@PAVGoal_Evaluator@@@std@@@std@@QAE@XZ ENDP ; std::vector<Goal_Evaluator *,std::allocator<Goal_Evaluator *> >::vector<Goal_Evaluator *,std::allocator<Goal_Evaluator *> >
; Function compile flags: /Odtp /RTCsu
; File c:\program files (x86)\microsoft visual studio\2017\community\vc\tools\msvc\14.15.26726\include\xutility
;	COMDAT ?_Get_second@?$_Compressed_pair@V?$allocator@PAVGoal_Evaluator@@@std@@V?$_Vector_val@U?$_Simple_types@PAVGoal_Evaluator@@@std@@@2@$00@std@@QBEABV?$_Vector_val@U?$_Simple_types@PAVGoal_Evaluator@@@std@@@2@XZ
_TEXT	SEGMENT
_this$ = -4						; size = 4
?_Get_second@?$_Compressed_pair@V?$allocator@PAVGoal_Evaluator@@@std@@V?$_Vector_val@U?$_Simple_types@PAVGoal_Evaluator@@@std@@@2@$00@std@@QBEABV?$_Vector_val@U?$_Simple_types@PAVGoal_Evaluator@@@std@@@2@XZ PROC ; std::_Compressed_pair<std::allocator<Goal_Evaluator *>,std::_Vector_val<std::_Simple_types<Goal_Evaluator *> >,1>::_Get_second, COMDAT
; _this$ = ecx

; 306  : 		{	// return const reference to second

	push	ebp
	mov	ebp, esp
	push	ecx
	mov	DWORD PTR [ebp-4], -858993460		; ccccccccH
	mov	DWORD PTR _this$[ebp], ecx

; 307  : 		return (_Myval2);

	mov	eax, DWORD PTR _this$[ebp]

; 308  : 		}

	mov	esp, ebp
	pop	ebp
	ret	0
?_Get_second@?$_Compressed_pair@V?$allocator@PAVGoal_Evaluator@@@std@@V?$_Vector_val@U?$_Simple_types@PAVGoal_Evaluator@@@std@@@2@$00@std@@QBEABV?$_Vector_val@U?$_Simple_types@PAVGoal_Evaluator@@@std@@@2@XZ ENDP ; std::_Compressed_pair<std::allocator<Goal_Evaluator *>,std::_Vector_val<std::_Simple_types<Goal_Evaluator *> >,1>::_Get_second
_TEXT	ENDS
; Function compile flags: /Odtp /RTCsu
; File c:\program files (x86)\microsoft visual studio\2017\community\vc\tools\msvc\14.15.26726\include\xutility
;	COMDAT ?_Get_second@?$_Compressed_pair@V?$allocator@PAVGoal_Evaluator@@@std@@V?$_Vector_val@U?$_Simple_types@PAVGoal_Evaluator@@@std@@@2@$00@std@@QAEAAV?$_Vector_val@U?$_Simple_types@PAVGoal_Evaluator@@@std@@@2@XZ
_TEXT	SEGMENT
_this$ = -4						; size = 4
?_Get_second@?$_Compressed_pair@V?$allocator@PAVGoal_Evaluator@@@std@@V?$_Vector_val@U?$_Simple_types@PAVGoal_Evaluator@@@std@@@2@$00@std@@QAEAAV?$_Vector_val@U?$_Simple_types@PAVGoal_Evaluator@@@std@@@2@XZ PROC ; std::_Compressed_pair<std::allocator<Goal_Evaluator *>,std::_Vector_val<std::_Simple_types<Goal_Evaluator *> >,1>::_Get_second, COMDAT
; _this$ = ecx

; 301  : 		{	// return reference to second

	push	ebp
	mov	ebp, esp
	push	ecx
	mov	DWORD PTR [ebp-4], -858993460		; ccccccccH
	mov	DWORD PTR _this$[ebp], ecx

; 302  : 		return (_Myval2);

	mov	eax, DWORD PTR _this$[ebp]

; 303  : 		}

	mov	esp, ebp
	pop	ebp
	ret	0
?_Get_second@?$_Compressed_pair@V?$allocator@PAVGoal_Evaluator@@@std@@V?$_Vector_val@U?$_Simple_types@PAVGoal_Evaluator@@@std@@@2@$00@std@@QAEAAV?$_Vector_val@U?$_Simple_types@PAVGoal_Evaluator@@@std@@@2@XZ ENDP ; std::_Compressed_pair<std::allocator<Goal_Evaluator *>,std::_Vector_val<std::_Simple_types<Goal_Evaluator *> >,1>::_Get_second
_TEXT	ENDS
; Function compile flags: /Odtp /RTCsu
; File c:\program files (x86)\microsoft visual studio\2017\community\vc\tools\msvc\14.15.26726\include\xutility
;	COMDAT ?_Get_first@?$_Compressed_pair@V?$allocator@PAVGoal_Evaluator@@@std@@V?$_Vector_val@U?$_Simple_types@PAVGoal_Evaluator@@@std@@@2@$00@std@@QBEABV?$allocator@PAVGoal_Evaluator@@@2@XZ
_TEXT	SEGMENT
_this$ = -4						; size = 4
?_Get_first@?$_Compressed_pair@V?$allocator@PAVGoal_Evaluator@@@std@@V?$_Vector_val@U?$_Simple_types@PAVGoal_Evaluator@@@std@@@2@$00@std@@QBEABV?$allocator@PAVGoal_Evaluator@@@2@XZ PROC ; std::_Compressed_pair<std::allocator<Goal_Evaluator *>,std::_Vector_val<std::_Simple_types<Goal_Evaluator *> >,1>::_Get_first, COMDAT
; _this$ = ecx

; 296  : 		{	// return const reference to first

	push	ebp
	mov	ebp, esp
	push	ecx
	mov	DWORD PTR [ebp-4], -858993460		; ccccccccH
	mov	DWORD PTR _this$[ebp], ecx

; 297  : 		return (*this);

	mov	eax, DWORD PTR _this$[ebp]

; 298  : 		}

	mov	esp, ebp
	pop	ebp
	ret	0
?_Get_first@?$_Compressed_pair@V?$allocator@PAVGoal_Evaluator@@@std@@V?$_Vector_val@U?$_Simple_types@PAVGoal_Evaluator@@@std@@@2@$00@std@@QBEABV?$allocator@PAVGoal_Evaluator@@@2@XZ ENDP ; std::_Compressed_pair<std::allocator<Goal_Evaluator *>,std::_Vector_val<std::_Simple_types<Goal_Evaluator *> >,1>::_Get_first
_TEXT	ENDS
; Function compile flags: /Odtp /RTCsu
; File c:\program files (x86)\microsoft visual studio\2017\community\vc\tools\msvc\14.15.26726\include\xutility
;	COMDAT ?_Get_first@?$_Compressed_pair@V?$allocator@PAVGoal_Evaluator@@@std@@V?$_Vector_val@U?$_Simple_types@PAVGoal_Evaluator@@@std@@@2@$00@std@@QAEAAV?$allocator@PAVGoal_Evaluator@@@2@XZ
_TEXT	SEGMENT
_this$ = -4						; size = 4
?_Get_first@?$_Compressed_pair@V?$allocator@PAVGoal_Evaluator@@@std@@V?$_Vector_val@U?$_Simple_types@PAVGoal_Evaluator@@@std@@@2@$00@std@@QAEAAV?$allocator@PAVGoal_Evaluator@@@2@XZ PROC ; std::_Compressed_pair<std::allocator<Goal_Evaluator *>,std::_Vector_val<std::_Simple_types<Goal_Evaluator *> >,1>::_Get_first, COMDAT
; _this$ = ecx

; 291  : 		{	// return reference to first

	push	ebp
	mov	ebp, esp
	push	ecx
	mov	DWORD PTR [ebp-4], -858993460		; ccccccccH
	mov	DWORD PTR _this$[ebp], ecx

; 292  : 		return (*this);

	mov	eax, DWORD PTR _this$[ebp]

; 293  : 		}

	mov	esp, ebp
	pop	ebp
	ret	0
?_Get_first@?$_Compressed_pair@V?$allocator@PAVGoal_Evaluator@@@std@@V?$_Vector_val@U?$_Simple_types@PAVGoal_Evaluator@@@std@@@2@$00@std@@QAEAAV?$allocator@PAVGoal_Evaluator@@@2@XZ ENDP ; std::_Compressed_pair<std::allocator<Goal_Evaluator *>,std::_Vector_val<std::_Simple_types<Goal_Evaluator *> >,1>::_Get_first
_TEXT	ENDS
; Function compile flags: /Odtp /RTCsu
; File c:\program files (x86)\microsoft visual studio\2017\community\vc\tools\msvc\14.15.26726\include\vector
;	COMDAT ??0?$_Vector_val@U?$_Simple_types@PAVGoal_Evaluator@@@std@@@std@@QAE@XZ
_TEXT	SEGMENT
_this$ = -4						; size = 4
??0?$_Vector_val@U?$_Simple_types@PAVGoal_Evaluator@@@std@@@std@@QAE@XZ PROC ; std::_Vector_val<std::_Simple_types<Goal_Evaluator *> >::_Vector_val<std::_Simple_types<Goal_Evaluator *> >, COMDAT
; _this$ = ecx

; 392  : 		{	// initialize values

	push	ebp
	mov	ebp, esp
	push	ecx
	mov	DWORD PTR [ebp-4], -858993460		; ccccccccH
	mov	DWORD PTR _this$[ebp], ecx
	mov	ecx, DWORD PTR _this$[ebp]
	call	??0_Container_base12@std@@QAE@XZ	; std::_Container_base12::_Container_base12

; 389  : 		: _Myfirst(),

	mov	eax, DWORD PTR _this$[ebp]
	mov	DWORD PTR [eax+4], 0

; 390  : 		_Mylast(),

	mov	ecx, DWORD PTR _this$[ebp]
	mov	DWORD PTR [ecx+8], 0

; 391  : 		_Myend()

	mov	edx, DWORD PTR _this$[ebp]
	mov	DWORD PTR [edx+12], 0

; 393  : 		}

	mov	eax, DWORD PTR _this$[ebp]
	add	esp, 4
	cmp	ebp, esp
	call	__RTC_CheckEsp
	mov	esp, ebp
	pop	ebp
	ret	0
??0?$_Vector_val@U?$_Simple_types@PAVGoal_Evaluator@@@std@@@std@@QAE@XZ ENDP ; std::_Vector_val<std::_Simple_types<Goal_Evaluator *> >::_Vector_val<std::_Simple_types<Goal_Evaluator *> >
_TEXT	ENDS
; Function compile flags: /Odtp /RTCsu
; File c:\program files (x86)\microsoft visual studio\2017\community\vc\tools\msvc\14.15.26726\include\vector
;	COMDAT ?_Myend@?$_Vector_alloc@U?$_Vec_base_types@PAVGoal_Evaluator@@V?$allocator@PAVGoal_Evaluator@@@std@@@std@@@std@@QBEABQAPAVGoal_Evaluator@@XZ
_TEXT	SEGMENT
_this$ = -4						; size = 4
?_Myend@?$_Vector_alloc@U?$_Vec_base_types@PAVGoal_Evaluator@@V?$allocator@PAVGoal_Evaluator@@@std@@@std@@@std@@QBEABQAPAVGoal_Evaluator@@XZ PROC ; std::_Vector_alloc<std::_Vec_base_types<Goal_Evaluator *,std::allocator<Goal_Evaluator *> > >::_Myend, COMDAT
; _this$ = ecx

; 600  : 		{	// return const reference to _Myend

	push	ebp
	mov	ebp, esp
	push	ecx
	mov	DWORD PTR [ebp-4], -858993460		; ccccccccH
	mov	DWORD PTR _this$[ebp], ecx

; 601  : 		return (_Get_data()._Myend);

	mov	ecx, DWORD PTR _this$[ebp]
	call	?_Get_data@?$_Vector_alloc@U?$_Vec_base_types@PAVGoal_Evaluator@@V?$allocator@PAVGoal_Evaluator@@@std@@@std@@@std@@QBEABV?$_Vector_val@U?$_Simple_types@PAVGoal_Evaluator@@@std@@@2@XZ ; std::_Vector_alloc<std::_Vec_base_types<Goal_Evaluator *,std::allocator<Goal_Evaluator *> > >::_Get_data
	add	eax, 12					; 0000000cH

; 602  : 		}

	add	esp, 4
	cmp	ebp, esp
	call	__RTC_CheckEsp
	mov	esp, ebp
	pop	ebp
	ret	0
?_Myend@?$_Vector_alloc@U?$_Vec_base_types@PAVGoal_Evaluator@@V?$allocator@PAVGoal_Evaluator@@@std@@@std@@@std@@QBEABQAPAVGoal_Evaluator@@XZ ENDP ; std::_Vector_alloc<std::_Vec_base_types<Goal_Evaluator *,std::allocator<Goal_Evaluator *> > >::_Myend
_TEXT	ENDS
; Function compile flags: /Odtp /RTCsu
; File c:\program files (x86)\microsoft visual studio\2017\community\vc\tools\msvc\14.15.26726\include\vector
;	COMDAT ?_Myend@?$_Vector_alloc@U?$_Vec_base_types@PAVGoal_Evaluator@@V?$allocator@PAVGoal_Evaluator@@@std@@@std@@@std@@QAEAAPAPAVGoal_Evaluator@@XZ
_TEXT	SEGMENT
_this$ = -4						; size = 4
?_Myend@?$_Vector_alloc@U?$_Vec_base_types@PAVGoal_Evaluator@@V?$allocator@PAVGoal_Evaluator@@@std@@@std@@@std@@QAEAAPAPAVGoal_Evaluator@@XZ PROC ; std::_Vector_alloc<std::_Vec_base_types<Goal_Evaluator *,std::allocator<Goal_Evaluator *> > >::_Myend, COMDAT
; _this$ = ecx

; 595  : 		{	// return reference to _Myend

	push	ebp
	mov	ebp, esp
	push	ecx
	mov	DWORD PTR [ebp-4], -858993460		; ccccccccH
	mov	DWORD PTR _this$[ebp], ecx

; 596  : 		return (_Get_data()._Myend);

	mov	ecx, DWORD PTR _this$[ebp]
	call	?_Get_data@?$_Vector_alloc@U?$_Vec_base_types@PAVGoal_Evaluator@@V?$allocator@PAVGoal_Evaluator@@@std@@@std@@@std@@QAEAAV?$_Vector_val@U?$_Simple_types@PAVGoal_Evaluator@@@std@@@2@XZ ; std::_Vector_alloc<std::_Vec_base_types<Goal_Evaluator *,std::allocator<Goal_Evaluator *> > >::_Get_data
	add	eax, 12					; 0000000cH

; 597  : 		}

	add	esp, 4
	cmp	ebp, esp
	call	__RTC_CheckEsp
	mov	esp, ebp
	pop	ebp
	ret	0
?_Myend@?$_Vector_alloc@U?$_Vec_base_types@PAVGoal_Evaluator@@V?$allocator@PAVGoal_Evaluator@@@std@@@std@@@std@@QAEAAPAPAVGoal_Evaluator@@XZ ENDP ; std::_Vector_alloc<std::_Vec_base_types<Goal_Evaluator *,std::allocator<Goal_Evaluator *> > >::_Myend
_TEXT	ENDS
; Function compile flags: /Odtp /RTCsu
; File c:\program files (x86)\microsoft visual studio\2017\community\vc\tools\msvc\14.15.26726\include\vector
;	COMDAT ?_Mylast@?$_Vector_alloc@U?$_Vec_base_types@PAVGoal_Evaluator@@V?$allocator@PAVGoal_Evaluator@@@std@@@std@@@std@@QBEABQAPAVGoal_Evaluator@@XZ
_TEXT	SEGMENT
_this$ = -4						; size = 4
?_Mylast@?$_Vector_alloc@U?$_Vec_base_types@PAVGoal_Evaluator@@V?$allocator@PAVGoal_Evaluator@@@std@@@std@@@std@@QBEABQAPAVGoal_Evaluator@@XZ PROC ; std::_Vector_alloc<std::_Vec_base_types<Goal_Evaluator *,std::allocator<Goal_Evaluator *> > >::_Mylast, COMDAT
; _this$ = ecx

; 590  : 		{	// return const reference to _Mylast

	push	ebp
	mov	ebp, esp
	push	ecx
	mov	DWORD PTR [ebp-4], -858993460		; ccccccccH
	mov	DWORD PTR _this$[ebp], ecx

; 591  : 		return (_Get_data()._Mylast);

	mov	ecx, DWORD PTR _this$[ebp]
	call	?_Get_data@?$_Vector_alloc@U?$_Vec_base_types@PAVGoal_Evaluator@@V?$allocator@PAVGoal_Evaluator@@@std@@@std@@@std@@QBEABV?$_Vector_val@U?$_Simple_types@PAVGoal_Evaluator@@@std@@@2@XZ ; std::_Vector_alloc<std::_Vec_base_types<Goal_Evaluator *,std::allocator<Goal_Evaluator *> > >::_Get_data
	add	eax, 8

; 592  : 		}

	add	esp, 4
	cmp	ebp, esp
	call	__RTC_CheckEsp
	mov	esp, ebp
	pop	ebp
	ret	0
?_Mylast@?$_Vector_alloc@U?$_Vec_base_types@PAVGoal_Evaluator@@V?$allocator@PAVGoal_Evaluator@@@std@@@std@@@std@@QBEABQAPAVGoal_Evaluator@@XZ ENDP ; std::_Vector_alloc<std::_Vec_base_types<Goal_Evaluator *,std::allocator<Goal_Evaluator *> > >::_Mylast
_TEXT	ENDS
; Function compile flags: /Odtp /RTCsu
; File c:\program files (x86)\microsoft visual studio\2017\community\vc\tools\msvc\14.15.26726\include\vector
;	COMDAT ?_Mylast@?$_Vector_alloc@U?$_Vec_base_types@PAVGoal_Evaluator@@V?$allocator@PAVGoal_Evaluator@@@std@@@std@@@std@@QAEAAPAPAVGoal_Evaluator@@XZ
_TEXT	SEGMENT
_this$ = -4						; size = 4
?_Mylast@?$_Vector_alloc@U?$_Vec_base_types@PAVGoal_Evaluator@@V?$allocator@PAVGoal_Evaluator@@@std@@@std@@@std@@QAEAAPAPAVGoal_Evaluator@@XZ PROC ; std::_Vector_alloc<std::_Vec_base_types<Goal_Evaluator *,std::allocator<Goal_Evaluator *> > >::_Mylast, COMDAT
; _this$ = ecx

; 585  : 		{	// return reference to _Mylast

	push	ebp
	mov	ebp, esp
	push	ecx
	mov	DWORD PTR [ebp-4], -858993460		; ccccccccH
	mov	DWORD PTR _this$[ebp], ecx

; 586  : 		return (_Get_data()._Mylast);

	mov	ecx, DWORD PTR _this$[ebp]
	call	?_Get_data@?$_Vector_alloc@U?$_Vec_base_types@PAVGoal_Evaluator@@V?$allocator@PAVGoal_Evaluator@@@std@@@std@@@std@@QAEAAV?$_Vector_val@U?$_Simple_types@PAVGoal_Evaluator@@@std@@@2@XZ ; std::_Vector_alloc<std::_Vec_base_types<Goal_Evaluator *,std::allocator<Goal_Evaluator *> > >::_Get_data
	add	eax, 8

; 587  : 		}

	add	esp, 4
	cmp	ebp, esp
	call	__RTC_CheckEsp
	mov	esp, ebp
	pop	ebp
	ret	0
?_Mylast@?$_Vector_alloc@U?$_Vec_base_types@PAVGoal_Evaluator@@V?$allocator@PAVGoal_Evaluator@@@std@@@std@@@std@@QAEAAPAPAVGoal_Evaluator@@XZ ENDP ; std::_Vector_alloc<std::_Vec_base_types<Goal_Evaluator *,std::allocator<Goal_Evaluator *> > >::_Mylast
_TEXT	ENDS
; Function compile flags: /Odtp /RTCsu
; File c:\program files (x86)\microsoft visual studio\2017\community\vc\tools\msvc\14.15.26726\include\vector
;	COMDAT ?_Myfirst@?$_Vector_alloc@U?$_Vec_base_types@PAVGoal_Evaluator@@V?$allocator@PAVGoal_Evaluator@@@std@@@std@@@std@@QBEABQAPAVGoal_Evaluator@@XZ
_TEXT	SEGMENT
_this$ = -4						; size = 4
?_Myfirst@?$_Vector_alloc@U?$_Vec_base_types@PAVGoal_Evaluator@@V?$allocator@PAVGoal_Evaluator@@@std@@@std@@@std@@QBEABQAPAVGoal_Evaluator@@XZ PROC ; std::_Vector_alloc<std::_Vec_base_types<Goal_Evaluator *,std::allocator<Goal_Evaluator *> > >::_Myfirst, COMDAT
; _this$ = ecx

; 580  : 		{	// return const reference to _Myfirst

	push	ebp
	mov	ebp, esp
	push	ecx
	mov	DWORD PTR [ebp-4], -858993460		; ccccccccH
	mov	DWORD PTR _this$[ebp], ecx

; 581  : 		return (_Get_data()._Myfirst);

	mov	ecx, DWORD PTR _this$[ebp]
	call	?_Get_data@?$_Vector_alloc@U?$_Vec_base_types@PAVGoal_Evaluator@@V?$allocator@PAVGoal_Evaluator@@@std@@@std@@@std@@QBEABV?$_Vector_val@U?$_Simple_types@PAVGoal_Evaluator@@@std@@@2@XZ ; std::_Vector_alloc<std::_Vec_base_types<Goal_Evaluator *,std::allocator<Goal_Evaluator *> > >::_Get_data
	add	eax, 4

; 582  : 		}

	add	esp, 4
	cmp	ebp, esp
	call	__RTC_CheckEsp
	mov	esp, ebp
	pop	ebp
	ret	0
?_Myfirst@?$_Vector_alloc@U?$_Vec_base_types@PAVGoal_Evaluator@@V?$allocator@PAVGoal_Evaluator@@@std@@@std@@@std@@QBEABQAPAVGoal_Evaluator@@XZ ENDP ; std::_Vector_alloc<std::_Vec_base_types<Goal_Evaluator *,std::allocator<Goal_Evaluator *> > >::_Myfirst
_TEXT	ENDS
; Function compile flags: /Odtp /RTCsu
; File c:\program files (x86)\microsoft visual studio\2017\community\vc\tools\msvc\14.15.26726\include\vector
;	COMDAT ?_Myfirst@?$_Vector_alloc@U?$_Vec_base_types@PAVGoal_Evaluator@@V?$allocator@PAVGoal_Evaluator@@@std@@@std@@@std@@QAEAAPAPAVGoal_Evaluator@@XZ
_TEXT	SEGMENT
_this$ = -4						; size = 4
?_Myfirst@?$_Vector_alloc@U?$_Vec_base_types@PAVGoal_Evaluator@@V?$allocator@PAVGoal_Evaluator@@@std@@@std@@@std@@QAEAAPAPAVGoal_Evaluator@@XZ PROC ; std::_Vector_alloc<std::_Vec_base_types<Goal_Evaluator *,std::allocator<Goal_Evaluator *> > >::_Myfirst, COMDAT
; _this$ = ecx

; 575  : 		{	// return reference to _Myfirst

	push	ebp
	mov	ebp, esp
	push	ecx
	mov	DWORD PTR [ebp-4], -858993460		; ccccccccH
	mov	DWORD PTR _this$[ebp], ecx

; 576  : 		return (_Get_data()._Myfirst);

	mov	ecx, DWORD PTR _this$[ebp]
	call	?_Get_data@?$_Vector_alloc@U?$_Vec_base_types@PAVGoal_Evaluator@@V?$allocator@PAVGoal_Evaluator@@@std@@@std@@@std@@QAEAAV?$_Vector_val@U?$_Simple_types@PAVGoal_Evaluator@@@std@@@2@XZ ; std::_Vector_alloc<std::_Vec_base_types<Goal_Evaluator *,std::allocator<Goal_Evaluator *> > >::_Get_data
	add	eax, 4

; 577  : 		}

	add	esp, 4
	cmp	ebp, esp
	call	__RTC_CheckEsp
	mov	esp, ebp
	pop	ebp
	ret	0
?_Myfirst@?$_Vector_alloc@U?$_Vec_base_types@PAVGoal_Evaluator@@V?$allocator@PAVGoal_Evaluator@@@std@@@std@@@std@@QAEAAPAPAVGoal_Evaluator@@XZ ENDP ; std::_Vector_alloc<std::_Vec_base_types<Goal_Evaluator *,std::allocator<Goal_Evaluator *> > >::_Myfirst
_TEXT	ENDS
; Function compile flags: /Odtp /RTCsu
; File c:\program files (x86)\microsoft visual studio\2017\community\vc\tools\msvc\14.15.26726\include\vector
;	COMDAT ?_Get_data@?$_Vector_alloc@U?$_Vec_base_types@PAVGoal_Evaluator@@V?$allocator@PAVGoal_Evaluator@@@std@@@std@@@std@@QBEABV?$_Vector_val@U?$_Simple_types@PAVGoal_Evaluator@@@std@@@2@XZ
_TEXT	SEGMENT
_this$ = -4						; size = 4
?_Get_data@?$_Vector_alloc@U?$_Vec_base_types@PAVGoal_Evaluator@@V?$allocator@PAVGoal_Evaluator@@@std@@@std@@@std@@QBEABV?$_Vector_val@U?$_Simple_types@PAVGoal_Evaluator@@@std@@@2@XZ PROC ; std::_Vector_alloc<std::_Vec_base_types<Goal_Evaluator *,std::allocator<Goal_Evaluator *> > >::_Get_data, COMDAT
; _this$ = ecx

; 559  : 		{	// return const reference to _Vector_val

	push	ebp
	mov	ebp, esp
	push	ecx
	mov	DWORD PTR [ebp-4], -858993460		; ccccccccH
	mov	DWORD PTR _this$[ebp], ecx

; 560  : 		return (_Mypair._Get_second());

	mov	ecx, DWORD PTR _this$[ebp]
	call	?_Get_second@?$_Compressed_pair@V?$allocator@PAVGoal_Evaluator@@@std@@V?$_Vector_val@U?$_Simple_types@PAVGoal_Evaluator@@@std@@@2@$00@std@@QBEABV?$_Vector_val@U?$_Simple_types@PAVGoal_Evaluator@@@std@@@2@XZ ; std::_Compressed_pair<std::allocator<Goal_Evaluator *>,std::_Vector_val<std::_Simple_types<Goal_Evaluator *> >,1>::_Get_second

; 561  : 		}

	add	esp, 4
	cmp	ebp, esp
	call	__RTC_CheckEsp
	mov	esp, ebp
	pop	ebp
	ret	0
?_Get_data@?$_Vector_alloc@U?$_Vec_base_types@PAVGoal_Evaluator@@V?$allocator@PAVGoal_Evaluator@@@std@@@std@@@std@@QBEABV?$_Vector_val@U?$_Simple_types@PAVGoal_Evaluator@@@std@@@2@XZ ENDP ; std::_Vector_alloc<std::_Vec_base_types<Goal_Evaluator *,std::allocator<Goal_Evaluator *> > >::_Get_data
_TEXT	ENDS
; Function compile flags: /Odtp /RTCsu
; File c:\program files (x86)\microsoft visual studio\2017\community\vc\tools\msvc\14.15.26726\include\vector
;	COMDAT ?_Get_data@?$_Vector_alloc@U?$_Vec_base_types@PAVGoal_Evaluator@@V?$allocator@PAVGoal_Evaluator@@@std@@@std@@@std@@QAEAAV?$_Vector_val@U?$_Simple_types@PAVGoal_Evaluator@@@std@@@2@XZ
_TEXT	SEGMENT
_this$ = -4						; size = 4
?_Get_data@?$_Vector_alloc@U?$_Vec_base_types@PAVGoal_Evaluator@@V?$allocator@PAVGoal_Evaluator@@@std@@@std@@@std@@QAEAAV?$_Vector_val@U?$_Simple_types@PAVGoal_Evaluator@@@std@@@2@XZ PROC ; std::_Vector_alloc<std::_Vec_base_types<Goal_Evaluator *,std::allocator<Goal_Evaluator *> > >::_Get_data, COMDAT
; _this$ = ecx

; 554  : 		{	// return reference to _Vector_val

	push	ebp
	mov	ebp, esp
	push	ecx
	mov	DWORD PTR [ebp-4], -858993460		; ccccccccH
	mov	DWORD PTR _this$[ebp], ecx

; 555  : 		return (_Mypair._Get_second());

	mov	ecx, DWORD PTR _this$[ebp]
	call	?_Get_second@?$_Compressed_pair@V?$allocator@PAVGoal_Evaluator@@@std@@V?$_Vector_val@U?$_Simple_types@PAVGoal_Evaluator@@@std@@@2@$00@std@@QAEAAV?$_Vector_val@U?$_Simple_types@PAVGoal_Evaluator@@@std@@@2@XZ ; std::_Compressed_pair<std::allocator<Goal_Evaluator *>,std::_Vector_val<std::_Simple_types<Goal_Evaluator *> >,1>::_Get_second

; 556  : 		}

	add	esp, 4
	cmp	ebp, esp
	call	__RTC_CheckEsp
	mov	esp, ebp
	pop	ebp
	ret	0
?_Get_data@?$_Vector_alloc@U?$_Vec_base_types@PAVGoal_Evaluator@@V?$allocator@PAVGoal_Evaluator@@@std@@@std@@@std@@QAEAAV?$_Vector_val@U?$_Simple_types@PAVGoal_Evaluator@@@std@@@2@XZ ENDP ; std::_Vector_alloc<std::_Vec_base_types<Goal_Evaluator *,std::allocator<Goal_Evaluator *> > >::_Get_data
_TEXT	ENDS
; Function compile flags: /Odtp /RTCsu
; File c:\program files (x86)\microsoft visual studio\2017\community\vc\tools\msvc\14.15.26726\include\vector
;	COMDAT ?_Getal@?$_Vector_alloc@U?$_Vec_base_types@PAVGoal_Evaluator@@V?$allocator@PAVGoal_Evaluator@@@std@@@std@@@std@@QBEABV?$allocator@PAVGoal_Evaluator@@@2@XZ
_TEXT	SEGMENT
_this$ = -4						; size = 4
?_Getal@?$_Vector_alloc@U?$_Vec_base_types@PAVGoal_Evaluator@@V?$allocator@PAVGoal_Evaluator@@@std@@@std@@@std@@QBEABV?$allocator@PAVGoal_Evaluator@@@2@XZ PROC ; std::_Vector_alloc<std::_Vec_base_types<Goal_Evaluator *,std::allocator<Goal_Evaluator *> > >::_Getal, COMDAT
; _this$ = ecx

; 549  : 		{	// return const reference to allocator

	push	ebp
	mov	ebp, esp
	push	ecx
	mov	DWORD PTR [ebp-4], -858993460		; ccccccccH
	mov	DWORD PTR _this$[ebp], ecx

; 550  : 		return (_Mypair._Get_first());

	mov	ecx, DWORD PTR _this$[ebp]
	call	?_Get_first@?$_Compressed_pair@V?$allocator@PAVGoal_Evaluator@@@std@@V?$_Vector_val@U?$_Simple_types@PAVGoal_Evaluator@@@std@@@2@$00@std@@QBEABV?$allocator@PAVGoal_Evaluator@@@2@XZ ; std::_Compressed_pair<std::allocator<Goal_Evaluator *>,std::_Vector_val<std::_Simple_types<Goal_Evaluator *> >,1>::_Get_first

; 551  : 		}

	add	esp, 4
	cmp	ebp, esp
	call	__RTC_CheckEsp
	mov	esp, ebp
	pop	ebp
	ret	0
?_Getal@?$_Vector_alloc@U?$_Vec_base_types@PAVGoal_Evaluator@@V?$allocator@PAVGoal_Evaluator@@@std@@@std@@@std@@QBEABV?$allocator@PAVGoal_Evaluator@@@2@XZ ENDP ; std::_Vector_alloc<std::_Vec_base_types<Goal_Evaluator *,std::allocator<Goal_Evaluator *> > >::_Getal
_TEXT	ENDS
; Function compile flags: /Odtp /RTCsu
; File c:\program files (x86)\microsoft visual studio\2017\community\vc\tools\msvc\14.15.26726\include\vector
;	COMDAT ?_Getal@?$_Vector_alloc@U?$_Vec_base_types@PAVGoal_Evaluator@@V?$allocator@PAVGoal_Evaluator@@@std@@@std@@@std@@QAEAAV?$allocator@PAVGoal_Evaluator@@@2@XZ
_TEXT	SEGMENT
_this$ = -4						; size = 4
?_Getal@?$_Vector_alloc@U?$_Vec_base_types@PAVGoal_Evaluator@@V?$allocator@PAVGoal_Evaluator@@@std@@@std@@@std@@QAEAAV?$allocator@PAVGoal_Evaluator@@@2@XZ PROC ; std::_Vector_alloc<std::_Vec_base_types<Goal_Evaluator *,std::allocator<Goal_Evaluator *> > >::_Getal, COMDAT
; _this$ = ecx

; 544  : 		{	// return reference to allocator

	push	ebp
	mov	ebp, esp
	push	ecx
	mov	DWORD PTR [ebp-4], -858993460		; ccccccccH
	mov	DWORD PTR _this$[ebp], ecx

; 545  : 		return (_Mypair._Get_first());

	mov	ecx, DWORD PTR _this$[ebp]
	call	?_Get_first@?$_Compressed_pair@V?$allocator@PAVGoal_Evaluator@@@std@@V?$_Vector_val@U?$_Simple_types@PAVGoal_Evaluator@@@std@@@2@$00@std@@QAEAAV?$allocator@PAVGoal_Evaluator@@@2@XZ ; std::_Compressed_pair<std::allocator<Goal_Evaluator *>,std::_Vector_val<std::_Simple_types<Goal_Evaluator *> >,1>::_Get_first

; 546  : 		}

	add	esp, 4
	cmp	ebp, esp
	call	__RTC_CheckEsp
	mov	esp, ebp
	pop	ebp
	ret	0
?_Getal@?$_Vector_alloc@U?$_Vec_base_types@PAVGoal_Evaluator@@V?$allocator@PAVGoal_Evaluator@@@std@@@std@@@std@@QAEAAV?$allocator@PAVGoal_Evaluator@@@2@XZ ENDP ; std::_Vector_alloc<std::_Vec_base_types<Goal_Evaluator *,std::allocator<Goal_Evaluator *> > >::_Getal
_TEXT	ENDS
; Function compile flags: /Odtp /RTCsu
; File c:\program files (x86)\microsoft visual studio\2017\community\vc\tools\msvc\14.15.26726\include\vector
;	COMDAT ?_Orphan_all@?$_Vector_alloc@U?$_Vec_base_types@PAVGoal_Evaluator@@V?$allocator@PAVGoal_Evaluator@@@std@@@std@@@std@@QAEXXZ
_TEXT	SEGMENT
_this$ = -4						; size = 4
?_Orphan_all@?$_Vector_alloc@U?$_Vec_base_types@PAVGoal_Evaluator@@V?$allocator@PAVGoal_Evaluator@@@std@@@std@@@std@@QAEXXZ PROC ; std::_Vector_alloc<std::_Vec_base_types<Goal_Evaluator *,std::allocator<Goal_Evaluator *> > >::_Orphan_all, COMDAT
; _this$ = ecx

; 534  : 		{	// orphan all iterators

	push	ebp
	mov	ebp, esp
	push	ecx
	mov	DWORD PTR [ebp-4], -858993460		; ccccccccH
	mov	DWORD PTR _this$[ebp], ecx

; 535  : 		_Get_data()._Orphan_all();

	mov	ecx, DWORD PTR _this$[ebp]
	call	?_Get_data@?$_Vector_alloc@U?$_Vec_base_types@PAVGoal_Evaluator@@V?$allocator@PAVGoal_Evaluator@@@std@@@std@@@std@@QAEAAV?$_Vector_val@U?$_Simple_types@PAVGoal_Evaluator@@@std@@@2@XZ ; std::_Vector_alloc<std::_Vec_base_types<Goal_Evaluator *,std::allocator<Goal_Evaluator *> > >::_Get_data
	mov	ecx, eax
	call	?_Orphan_all@_Container_base12@std@@QAEXXZ ; std::_Container_base12::_Orphan_all

; 536  : 		}

	add	esp, 4
	cmp	ebp, esp
	call	__RTC_CheckEsp
	mov	esp, ebp
	pop	ebp
	ret	0
?_Orphan_all@?$_Vector_alloc@U?$_Vec_base_types@PAVGoal_Evaluator@@V?$allocator@PAVGoal_Evaluator@@@std@@@std@@@std@@QAEXXZ ENDP ; std::_Vector_alloc<std::_Vec_base_types<Goal_Evaluator *,std::allocator<Goal_Evaluator *> > >::_Orphan_all
_TEXT	ENDS
; Function compile flags: /Odtp /RTCsu
; File c:\program files (x86)\microsoft visual studio\2017\community\vc\tools\msvc\14.15.26726\include\vector
;	COMDAT ?_Myproxy@?$_Vector_alloc@U?$_Vec_base_types@PAVGoal_Evaluator@@V?$allocator@PAVGoal_Evaluator@@@std@@@std@@@std@@QAEAAPAU_Container_proxy@2@XZ
_TEXT	SEGMENT
_this$ = -4						; size = 4
?_Myproxy@?$_Vector_alloc@U?$_Vec_base_types@PAVGoal_Evaluator@@V?$allocator@PAVGoal_Evaluator@@@std@@@std@@@std@@QAEAAPAU_Container_proxy@2@XZ PROC ; std::_Vector_alloc<std::_Vec_base_types<Goal_Evaluator *,std::allocator<Goal_Evaluator *> > >::_Myproxy, COMDAT
; _this$ = ecx

; 523  : 		{	// return reference to _Myproxy

	push	ebp
	mov	ebp, esp
	push	ecx
	mov	DWORD PTR [ebp-4], -858993460		; ccccccccH
	mov	DWORD PTR _this$[ebp], ecx

; 524  : 		return (_Get_data()._Myproxy);

	mov	ecx, DWORD PTR _this$[ebp]
	call	?_Get_data@?$_Vector_alloc@U?$_Vec_base_types@PAVGoal_Evaluator@@V?$allocator@PAVGoal_Evaluator@@@std@@@std@@@std@@QAEAAV?$_Vector_val@U?$_Simple_types@PAVGoal_Evaluator@@@std@@@2@XZ ; std::_Vector_alloc<std::_Vec_base_types<Goal_Evaluator *,std::allocator<Goal_Evaluator *> > >::_Get_data

; 525  : 		}

	add	esp, 4
	cmp	ebp, esp
	call	__RTC_CheckEsp
	mov	esp, ebp
	pop	ebp
	ret	0
?_Myproxy@?$_Vector_alloc@U?$_Vec_base_types@PAVGoal_Evaluator@@V?$allocator@PAVGoal_Evaluator@@@std@@@std@@@std@@QAEAAPAU_Container_proxy@2@XZ ENDP ; std::_Vector_alloc<std::_Vec_base_types<Goal_Evaluator *,std::allocator<Goal_Evaluator *> > >::_Myproxy
_TEXT	ENDS
; Function compile flags: /Odtp /RTCsu
; File c:\program files (x86)\microsoft visual studio\2017\community\vc\tools\msvc\14.15.26726\include\vector
;	COMDAT ?_Getpfirst@?$_Vector_alloc@U?$_Vec_base_types@PAVGoal_Evaluator@@V?$allocator@PAVGoal_Evaluator@@@std@@@std@@@std@@QBEPAPAU_Iterator_base12@2@XZ
_TEXT	SEGMENT
_this$ = -4						; size = 4
?_Getpfirst@?$_Vector_alloc@U?$_Vec_base_types@PAVGoal_Evaluator@@V?$allocator@PAVGoal_Evaluator@@@std@@@std@@@std@@QBEPAPAU_Iterator_base12@2@XZ PROC ; std::_Vector_alloc<std::_Vec_base_types<Goal_Evaluator *,std::allocator<Goal_Evaluator *> > >::_Getpfirst, COMDAT
; _this$ = ecx

; 518  : 		{	// get address of iterator chain

	push	ebp
	mov	ebp, esp
	push	ecx
	mov	DWORD PTR [ebp-4], -858993460		; ccccccccH
	mov	DWORD PTR _this$[ebp], ecx

; 519  : 		return (_Get_data()._Getpfirst());

	mov	ecx, DWORD PTR _this$[ebp]
	call	?_Get_data@?$_Vector_alloc@U?$_Vec_base_types@PAVGoal_Evaluator@@V?$allocator@PAVGoal_Evaluator@@@std@@@std@@@std@@QBEABV?$_Vector_val@U?$_Simple_types@PAVGoal_Evaluator@@@std@@@2@XZ ; std::_Vector_alloc<std::_Vec_base_types<Goal_Evaluator *,std::allocator<Goal_Evaluator *> > >::_Get_data
	mov	ecx, eax
	call	?_Getpfirst@_Container_base12@std@@QBEPAPAU_Iterator_base12@2@XZ ; std::_Container_base12::_Getpfirst

; 520  : 		}

	add	esp, 4
	cmp	ebp, esp
	call	__RTC_CheckEsp
	mov	esp, ebp
	pop	ebp
	ret	0
?_Getpfirst@?$_Vector_alloc@U?$_Vec_base_types@PAVGoal_Evaluator@@V?$allocator@PAVGoal_Evaluator@@@std@@@std@@@std@@QBEPAPAU_Iterator_base12@2@XZ ENDP ; std::_Vector_alloc<std::_Vec_base_types<Goal_Evaluator *,std::allocator<Goal_Evaluator *> > >::_Getpfirst
_TEXT	ENDS
; Function compile flags: /Odtp /RTCsu
; File c:\program files (x86)\microsoft visual studio\2017\community\vc\tools\msvc\14.15.26726\include\vector
;	COMDAT ?_Free_proxy@?$_Vector_alloc@U?$_Vec_base_types@PAVGoal_Evaluator@@V?$allocator@PAVGoal_Evaluator@@@std@@@std@@@std@@QAEXXZ
_TEXT	SEGMENT
__Proxy_allocator$ = -9					; size = 1
_this$ = -4						; size = 4
?_Free_proxy@?$_Vector_alloc@U?$_Vec_base_types@PAVGoal_Evaluator@@V?$allocator@PAVGoal_Evaluator@@@std@@@std@@@std@@QAEXXZ PROC ; std::_Vector_alloc<std::_Vec_base_types<Goal_Evaluator *,std::allocator<Goal_Evaluator *> > >::_Free_proxy, COMDAT
; _this$ = ecx

; 509  : 		{	// destroy proxy

	push	ebp
	mov	ebp, esp
	sub	esp, 16					; 00000010H
	mov	eax, -858993460				; ccccccccH
	mov	DWORD PTR [ebp-16], eax
	mov	DWORD PTR [ebp-12], eax
	mov	DWORD PTR [ebp-8], eax
	mov	DWORD PTR [ebp-4], eax
	mov	DWORD PTR _this$[ebp], ecx

; 510  : 		_Alproxy _Proxy_allocator(_Getal());

	mov	ecx, DWORD PTR _this$[ebp]
	call	?_Getal@?$_Vector_alloc@U?$_Vec_base_types@PAVGoal_Evaluator@@V?$allocator@PAVGoal_Evaluator@@@std@@@std@@@std@@QAEAAV?$allocator@PAVGoal_Evaluator@@@2@XZ ; std::_Vector_alloc<std::_Vec_base_types<Goal_Evaluator *,std::allocator<Goal_Evaluator *> > >::_Getal
	push	eax
	lea	ecx, DWORD PTR __Proxy_allocator$[ebp]
	call	??$?0PAVGoal_Evaluator@@@?$allocator@U_Container_proxy@std@@@std@@QAE@ABV?$allocator@PAVGoal_Evaluator@@@1@@Z ; std::allocator<std::_Container_proxy>::allocator<std::_Container_proxy><Goal_Evaluator *>

; 511  : 		_Orphan_all();

	mov	ecx, DWORD PTR _this$[ebp]
	call	?_Orphan_all@?$_Vector_alloc@U?$_Vec_base_types@PAVGoal_Evaluator@@V?$allocator@PAVGoal_Evaluator@@@std@@@std@@@std@@QAEXXZ ; std::_Vector_alloc<std::_Vec_base_types<Goal_Evaluator *,std::allocator<Goal_Evaluator *> > >::_Orphan_all

; 512  : 		_Alproxy_traits::destroy(_Proxy_allocator, _Myproxy());

	mov	ecx, DWORD PTR _this$[ebp]
	call	?_Myproxy@?$_Vector_alloc@U?$_Vec_base_types@PAVGoal_Evaluator@@V?$allocator@PAVGoal_Evaluator@@@std@@@std@@@std@@QAEAAPAU_Container_proxy@2@XZ ; std::_Vector_alloc<std::_Vec_base_types<Goal_Evaluator *,std::allocator<Goal_Evaluator *> > >::_Myproxy
	mov	eax, DWORD PTR [eax]
	push	eax
	lea	ecx, DWORD PTR __Proxy_allocator$[ebp]
	push	ecx
	call	??$destroy@U_Container_proxy@std@@@?$_Default_allocator_traits@V?$allocator@U_Container_proxy@std@@@std@@@std@@SAXAAV?$allocator@U_Container_proxy@std@@@1@QAU_Container_proxy@1@@Z ; std::_Default_allocator_traits<std::allocator<std::_Container_proxy> >::destroy<std::_Container_proxy>
	add	esp, 8

; 513  : 		_Deallocate_plain(_Proxy_allocator, _Myproxy());

	mov	ecx, DWORD PTR _this$[ebp]
	call	?_Myproxy@?$_Vector_alloc@U?$_Vec_base_types@PAVGoal_Evaluator@@V?$allocator@PAVGoal_Evaluator@@@std@@@std@@@std@@QAEAAPAU_Container_proxy@2@XZ ; std::_Vector_alloc<std::_Vec_base_types<Goal_Evaluator *,std::allocator<Goal_Evaluator *> > >::_Myproxy
	mov	edx, DWORD PTR [eax]
	push	edx
	lea	eax, DWORD PTR __Proxy_allocator$[ebp]
	push	eax
	call	??$_Deallocate_plain@V?$allocator@U_Container_proxy@std@@@std@@$0A@@std@@YAXAAV?$allocator@U_Container_proxy@std@@@0@QAU_Container_proxy@0@@Z ; std::_Deallocate_plain<std::allocator<std::_Container_proxy>,0>
	add	esp, 8

; 514  : 		_Myproxy() = nullptr;

	mov	ecx, DWORD PTR _this$[ebp]
	call	?_Myproxy@?$_Vector_alloc@U?$_Vec_base_types@PAVGoal_Evaluator@@V?$allocator@PAVGoal_Evaluator@@@std@@@std@@@std@@QAEAAPAU_Container_proxy@2@XZ ; std::_Vector_alloc<std::_Vec_base_types<Goal_Evaluator *,std::allocator<Goal_Evaluator *> > >::_Myproxy
	mov	DWORD PTR [eax], 0

; 515  : 		}

	push	edx
	mov	ecx, ebp
	push	eax
	lea	edx, DWORD PTR $LN5@Free_proxy
	call	@_RTC_CheckStackVars@8
	pop	eax
	pop	edx
	add	esp, 16					; 00000010H
	cmp	ebp, esp
	call	__RTC_CheckEsp
	mov	esp, ebp
	pop	ebp
	ret	0
	npad	2
$LN5@Free_proxy:
	DD	1
	DD	$LN4@Free_proxy
$LN4@Free_proxy:
	DD	-9					; fffffff7H
	DD	1
	DD	$LN3@Free_proxy
$LN3@Free_proxy:
	DB	95					; 0000005fH
	DB	80					; 00000050H
	DB	114					; 00000072H
	DB	111					; 0000006fH
	DB	120					; 00000078H
	DB	121					; 00000079H
	DB	95					; 0000005fH
	DB	97					; 00000061H
	DB	108					; 0000006cH
	DB	108					; 0000006cH
	DB	111					; 0000006fH
	DB	99					; 00000063H
	DB	97					; 00000061H
	DB	116					; 00000074H
	DB	111					; 0000006fH
	DB	114					; 00000072H
	DB	0
?_Free_proxy@?$_Vector_alloc@U?$_Vec_base_types@PAVGoal_Evaluator@@V?$allocator@PAVGoal_Evaluator@@@std@@@std@@@std@@QAEXXZ ENDP ; std::_Vector_alloc<std::_Vec_base_types<Goal_Evaluator *,std::allocator<Goal_Evaluator *> > >::_Free_proxy
_TEXT	ENDS
; Function compile flags: /Odtp /RTCsu
; File c:\program files (x86)\microsoft visual studio\2017\community\vc\tools\msvc\14.15.26726\include\vector
;	COMDAT ?_Alloc_proxy@?$_Vector_alloc@U?$_Vec_base_types@PAVGoal_Evaluator@@V?$allocator@PAVGoal_Evaluator@@@std@@@std@@@std@@QAEXXZ
_TEXT	SEGMENT
$T1 = -24						; size = 8
__Proxy_allocator$ = -9					; size = 1
_this$ = -4						; size = 4
?_Alloc_proxy@?$_Vector_alloc@U?$_Vec_base_types@PAVGoal_Evaluator@@V?$allocator@PAVGoal_Evaluator@@@std@@@std@@@std@@QAEXXZ PROC ; std::_Vector_alloc<std::_Vec_base_types<Goal_Evaluator *,std::allocator<Goal_Evaluator *> > >::_Alloc_proxy, COMDAT
; _this$ = ecx

; 501  : 		{	// construct proxy

	push	ebp
	mov	ebp, esp
	sub	esp, 24					; 00000018H
	push	esi
	mov	eax, -858993460				; ccccccccH
	mov	DWORD PTR [ebp-24], eax
	mov	DWORD PTR [ebp-20], eax
	mov	DWORD PTR [ebp-16], eax
	mov	DWORD PTR [ebp-12], eax
	mov	DWORD PTR [ebp-8], eax
	mov	DWORD PTR [ebp-4], eax
	mov	DWORD PTR _this$[ebp], ecx

; 502  : 		_Alproxy _Proxy_allocator(_Getal());

	mov	ecx, DWORD PTR _this$[ebp]
	call	?_Getal@?$_Vector_alloc@U?$_Vec_base_types@PAVGoal_Evaluator@@V?$allocator@PAVGoal_Evaluator@@@std@@@std@@@std@@QAEAAV?$allocator@PAVGoal_Evaluator@@@2@XZ ; std::_Vector_alloc<std::_Vec_base_types<Goal_Evaluator *,std::allocator<Goal_Evaluator *> > >::_Getal
	push	eax
	lea	ecx, DWORD PTR __Proxy_allocator$[ebp]
	call	??$?0PAVGoal_Evaluator@@@?$allocator@U_Container_proxy@std@@@std@@QAE@ABV?$allocator@PAVGoal_Evaluator@@@1@@Z ; std::allocator<std::_Container_proxy>::allocator<std::_Container_proxy><Goal_Evaluator *>

; 503  : 		_Myproxy() = _Unfancy(_Proxy_allocator.allocate(1));

	push	1
	lea	ecx, DWORD PTR __Proxy_allocator$[ebp]
	call	?allocate@?$allocator@U_Container_proxy@std@@@std@@QAEPAU_Container_proxy@2@I@Z ; std::allocator<std::_Container_proxy>::allocate
	push	eax
	call	??$_Unfancy@U_Container_proxy@std@@@std@@YAPAU_Container_proxy@0@PAU10@@Z ; std::_Unfancy<std::_Container_proxy>
	add	esp, 4
	mov	esi, eax
	mov	ecx, DWORD PTR _this$[ebp]
	call	?_Myproxy@?$_Vector_alloc@U?$_Vec_base_types@PAVGoal_Evaluator@@V?$allocator@PAVGoal_Evaluator@@@std@@@std@@@std@@QAEAAPAU_Container_proxy@2@XZ ; std::_Vector_alloc<std::_Vec_base_types<Goal_Evaluator *,std::allocator<Goal_Evaluator *> > >::_Myproxy
	mov	DWORD PTR [eax], esi

; 504  : 		_Alproxy_traits::construct(_Proxy_allocator, _Myproxy(), _Container_proxy());

	lea	ecx, DWORD PTR $T1[ebp]
	call	??0_Container_proxy@std@@QAE@XZ		; std::_Container_proxy::_Container_proxy
	push	eax
	mov	ecx, DWORD PTR _this$[ebp]
	call	?_Myproxy@?$_Vector_alloc@U?$_Vec_base_types@PAVGoal_Evaluator@@V?$allocator@PAVGoal_Evaluator@@@std@@@std@@@std@@QAEAAPAU_Container_proxy@2@XZ ; std::_Vector_alloc<std::_Vec_base_types<Goal_Evaluator *,std::allocator<Goal_Evaluator *> > >::_Myproxy
	mov	eax, DWORD PTR [eax]
	push	eax
	lea	ecx, DWORD PTR __Proxy_allocator$[ebp]
	push	ecx
	call	??$construct@U_Container_proxy@std@@U12@@?$_Default_allocator_traits@V?$allocator@U_Container_proxy@std@@@std@@@std@@SAXAAV?$allocator@U_Container_proxy@std@@@1@QAU_Container_proxy@1@$$QAU31@@Z ; std::_Default_allocator_traits<std::allocator<std::_Container_proxy> >::construct<std::_Container_proxy,std::_Container_proxy>
	add	esp, 12					; 0000000cH

; 505  : 		_Myproxy()->_Mycont = _STD addressof(_Get_data());

	mov	ecx, DWORD PTR _this$[ebp]
	call	?_Get_data@?$_Vector_alloc@U?$_Vec_base_types@PAVGoal_Evaluator@@V?$allocator@PAVGoal_Evaluator@@@std@@@std@@@std@@QAEAAV?$_Vector_val@U?$_Simple_types@PAVGoal_Evaluator@@@std@@@2@XZ ; std::_Vector_alloc<std::_Vec_base_types<Goal_Evaluator *,std::allocator<Goal_Evaluator *> > >::_Get_data
	push	eax
	call	??$addressof@V?$_Vector_val@U?$_Simple_types@PAVGoal_Evaluator@@@std@@@std@@@std@@YAPAV?$_Vector_val@U?$_Simple_types@PAVGoal_Evaluator@@@std@@@0@AAV10@@Z ; std::addressof<std::_Vector_val<std::_Simple_types<Goal_Evaluator *> > >
	add	esp, 4
	mov	esi, eax
	mov	ecx, DWORD PTR _this$[ebp]
	call	?_Myproxy@?$_Vector_alloc@U?$_Vec_base_types@PAVGoal_Evaluator@@V?$allocator@PAVGoal_Evaluator@@@std@@@std@@@std@@QAEAAPAU_Container_proxy@2@XZ ; std::_Vector_alloc<std::_Vec_base_types<Goal_Evaluator *,std::allocator<Goal_Evaluator *> > >::_Myproxy
	mov	edx, DWORD PTR [eax]
	mov	DWORD PTR [edx], esi

; 506  : 		}

	push	edx
	mov	ecx, ebp
	push	eax
	lea	edx, DWORD PTR $LN5@Alloc_prox
	call	@_RTC_CheckStackVars@8
	pop	eax
	pop	edx
	pop	esi
	add	esp, 24					; 00000018H
	cmp	ebp, esp
	call	__RTC_CheckEsp
	mov	esp, ebp
	pop	ebp
	ret	0
$LN5@Alloc_prox:
	DD	1
	DD	$LN4@Alloc_prox
$LN4@Alloc_prox:
	DD	-9					; fffffff7H
	DD	1
	DD	$LN3@Alloc_prox
$LN3@Alloc_prox:
	DB	95					; 0000005fH
	DB	80					; 00000050H
	DB	114					; 00000072H
	DB	111					; 0000006fH
	DB	120					; 00000078H
	DB	121					; 00000079H
	DB	95					; 0000005fH
	DB	97					; 00000061H
	DB	108					; 0000006cH
	DB	108					; 0000006cH
	DB	111					; 0000006fH
	DB	99					; 00000063H
	DB	97					; 00000061H
	DB	116					; 00000074H
	DB	111					; 0000006fH
	DB	114					; 00000072H
	DB	0
?_Alloc_proxy@?$_Vector_alloc@U?$_Vec_base_types@PAVGoal_Evaluator@@V?$allocator@PAVGoal_Evaluator@@@std@@@std@@@std@@QAEXXZ ENDP ; std::_Vector_alloc<std::_Vec_base_types<Goal_Evaluator *,std::allocator<Goal_Evaluator *> > >::_Alloc_proxy
_TEXT	ENDS
; Function compile flags: /Odtp /RTCsu
; File c:\program files (x86)\microsoft visual studio\2017\community\vc\tools\msvc\14.15.26726\include\vector
;	COMDAT ??1?$_Vector_alloc@U?$_Vec_base_types@PAVGoal_Evaluator@@V?$allocator@PAVGoal_Evaluator@@@std@@@std@@@std@@QAE@XZ
_TEXT	SEGMENT
_this$ = -16						; size = 4
__$EHRec$ = -12						; size = 12
??1?$_Vector_alloc@U?$_Vec_base_types@PAVGoal_Evaluator@@V?$allocator@PAVGoal_Evaluator@@@std@@@std@@@std@@QAE@XZ PROC ; std::_Vector_alloc<std::_Vec_base_types<Goal_Evaluator *,std::allocator<Goal_Evaluator *> > >::~_Vector_alloc<std::_Vec_base_types<Goal_Evaluator *,std::allocator<Goal_Evaluator *> > >, COMDAT
; _this$ = ecx

; 460  : 		{	// destroy proxy

	push	ebp
	mov	ebp, esp
	push	-1
	push	__ehhandler$??1?$_Vector_alloc@U?$_Vec_base_types@PAVGoal_Evaluator@@V?$allocator@PAVGoal_Evaluator@@@std@@@std@@@std@@QAE@XZ
	mov	eax, DWORD PTR fs:0
	push	eax
	push	ecx
	mov	DWORD PTR [ebp-16], -858993460		; ccccccccH
	mov	eax, DWORD PTR ___security_cookie
	xor	eax, ebp
	push	eax
	lea	eax, DWORD PTR __$EHRec$[ebp]
	mov	DWORD PTR fs:0, eax
	mov	DWORD PTR _this$[ebp], ecx

; 461  : 		_Free_proxy();

	mov	ecx, DWORD PTR _this$[ebp]
	call	?_Free_proxy@?$_Vector_alloc@U?$_Vec_base_types@PAVGoal_Evaluator@@V?$allocator@PAVGoal_Evaluator@@@std@@@std@@@std@@QAEXXZ ; std::_Vector_alloc<std::_Vec_base_types<Goal_Evaluator *,std::allocator<Goal_Evaluator *> > >::_Free_proxy

; 462  : 		}

	mov	ecx, DWORD PTR __$EHRec$[ebp]
	mov	DWORD PTR fs:0, ecx
	pop	ecx
	add	esp, 16					; 00000010H
	cmp	ebp, esp
	call	__RTC_CheckEsp
	mov	esp, ebp
	pop	ebp
	ret	0
_TEXT	ENDS
;	COMDAT text$x
text$x	SEGMENT
__ehhandler$??1?$_Vector_alloc@U?$_Vec_base_types@PAVGoal_Evaluator@@V?$allocator@PAVGoal_Evaluator@@@std@@@std@@@std@@QAE@XZ:
	mov	edx, DWORD PTR [esp+8]
	lea	eax, DWORD PTR [edx+12]
	mov	ecx, DWORD PTR [edx-8]
	xor	ecx, eax
	call	@__security_check_cookie@4
	mov	eax, OFFSET __ehfuncinfo$??1?$_Vector_alloc@U?$_Vec_base_types@PAVGoal_Evaluator@@V?$allocator@PAVGoal_Evaluator@@@std@@@std@@@std@@QAE@XZ
	jmp	___CxxFrameHandler3
text$x	ENDS
??1?$_Vector_alloc@U?$_Vec_base_types@PAVGoal_Evaluator@@V?$allocator@PAVGoal_Evaluator@@@std@@@std@@@std@@QAE@XZ ENDP ; std::_Vector_alloc<std::_Vec_base_types<Goal_Evaluator *,std::allocator<Goal_Evaluator *> > >::~_Vector_alloc<std::_Vec_base_types<Goal_Evaluator *,std::allocator<Goal_Evaluator *> > >
; Function compile flags: /Odtp /RTCsu
; File c:\program files (x86)\microsoft visual studio\2017\community\vc\tools\msvc\14.15.26726\include\vector
;	COMDAT ??0?$_Vector_alloc@U?$_Vec_base_types@PAVGoal_Evaluator@@V?$allocator@PAVGoal_Evaluator@@@std@@@std@@@std@@QAE@XZ
_TEXT	SEGMENT
$T1 = -5						; size = 1
_this$ = -4						; size = 4
??0?$_Vector_alloc@U?$_Vec_base_types@PAVGoal_Evaluator@@V?$allocator@PAVGoal_Evaluator@@@std@@@std@@@std@@QAE@XZ PROC ; std::_Vector_alloc<std::_Vec_base_types<Goal_Evaluator *,std::allocator<Goal_Evaluator *> > >::_Vector_alloc<std::_Vec_base_types<Goal_Evaluator *,std::allocator<Goal_Evaluator *> > >, COMDAT
; _this$ = ecx

; 446  : 		{	// default construct allocator

	push	ebp
	mov	ebp, esp
	sub	esp, 8
	mov	DWORD PTR [ebp-8], -858993460		; ccccccccH
	mov	DWORD PTR [ebp-4], -858993460		; ccccccccH
	mov	DWORD PTR _this$[ebp], ecx

; 445  : 		: _Mypair(_Zero_then_variadic_args_t())

	movzx	eax, BYTE PTR $T1[ebp]
	push	eax
	mov	ecx, DWORD PTR _this$[ebp]
	call	??$?0$$V@?$_Compressed_pair@V?$allocator@PAVGoal_Evaluator@@@std@@V?$_Vector_val@U?$_Simple_types@PAVGoal_Evaluator@@@std@@@2@$00@std@@QAE@U_Zero_then_variadic_args_t@1@@Z ; std::_Compressed_pair<std::allocator<Goal_Evaluator *>,std::_Vector_val<std::_Simple_types<Goal_Evaluator *> >,1>::_Compressed_pair<std::allocator<Goal_Evaluator *>,std::_Vector_val<std::_Simple_types<Goal_Evaluator *> >,1><>

; 447  : 		_Alloc_proxy();

	mov	ecx, DWORD PTR _this$[ebp]
	call	?_Alloc_proxy@?$_Vector_alloc@U?$_Vec_base_types@PAVGoal_Evaluator@@V?$allocator@PAVGoal_Evaluator@@@std@@@std@@@std@@QAEXXZ ; std::_Vector_alloc<std::_Vec_base_types<Goal_Evaluator *,std::allocator<Goal_Evaluator *> > >::_Alloc_proxy

; 448  : 		}

	mov	eax, DWORD PTR _this$[ebp]
	add	esp, 8
	cmp	ebp, esp
	call	__RTC_CheckEsp
	mov	esp, ebp
	pop	ebp
	ret	0
??0?$_Vector_alloc@U?$_Vec_base_types@PAVGoal_Evaluator@@V?$allocator@PAVGoal_Evaluator@@@std@@@std@@@std@@QAE@XZ ENDP ; std::_Vector_alloc<std::_Vec_base_types<Goal_Evaluator *,std::allocator<Goal_Evaluator *> > >::_Vector_alloc<std::_Vec_base_types<Goal_Evaluator *,std::allocator<Goal_Evaluator *> > >
_TEXT	ENDS
; Function compile flags: /Odtp /RTCsu
; File c:\program files (x86)\microsoft visual studio\2017\community\vc\tools\msvc\14.15.26726\include\xmemory0
;	COMDAT ?max_size@?$_Default_allocator_traits@V?$allocator@PAVGoal_Evaluator@@@std@@@std@@SAIABV?$allocator@PAVGoal_Evaluator@@@2@@Z
_TEXT	SEGMENT
___formal$ = 8						; size = 4
?max_size@?$_Default_allocator_traits@V?$allocator@PAVGoal_Evaluator@@@std@@@std@@SAIABV?$allocator@PAVGoal_Evaluator@@@2@@Z PROC ; std::_Default_allocator_traits<std::allocator<Goal_Evaluator *> >::max_size, COMDAT

; 891  : 		{	// get maximum size

	push	ebp
	mov	ebp, esp

; 892  : 		return (static_cast<size_t>(-1) / sizeof(value_type));

	mov	eax, 1073741823				; 3fffffffH

; 893  : 		}

	pop	ebp
	ret	0
?max_size@?$_Default_allocator_traits@V?$allocator@PAVGoal_Evaluator@@@std@@@std@@SAIABV?$allocator@PAVGoal_Evaluator@@@2@@Z ENDP ; std::_Default_allocator_traits<std::allocator<Goal_Evaluator *> >::max_size
_TEXT	ENDS
; Function compile flags: /Odtp /RTCsu
; File c:\program files (x86)\microsoft visual studio\2017\community\vc\tools\msvc\14.15.26726\include\xmemory0
;	COMDAT ?allocate@?$allocator@PAVGoal_Evaluator@@@std@@QAEPAPAVGoal_Evaluator@@I@Z
_TEXT	SEGMENT
_this$ = -4						; size = 4
__Count$ = 8						; size = 4
?allocate@?$allocator@PAVGoal_Evaluator@@@std@@QAEPAPAVGoal_Evaluator@@I@Z PROC ; std::allocator<Goal_Evaluator *>::allocate, COMDAT
; _this$ = ecx

; 996  : 		{	// allocate array of _Count elements

	push	ebp
	mov	ebp, esp
	push	ecx
	mov	DWORD PTR [ebp-4], -858993460		; ccccccccH
	mov	DWORD PTR _this$[ebp], ecx

; 997  : 		return (static_cast<_Ty *>(_Allocate<_New_alignof<_Ty>>(_Get_size_of_n<sizeof(_Ty)>(_Count))));

	mov	eax, DWORD PTR __Count$[ebp]
	push	eax
	call	??$_Get_size_of_n@$03@std@@YAII@Z	; std::_Get_size_of_n<4>
	add	esp, 4
	push	eax
	call	??$_Allocate@$07U_Default_allocate_traits@std@@$0A@@std@@YAPAXI@Z ; std::_Allocate<8,std::_Default_allocate_traits,0>
	add	esp, 4

; 998  : 		}

	add	esp, 4
	cmp	ebp, esp
	call	__RTC_CheckEsp
	mov	esp, ebp
	pop	ebp
	ret	4
?allocate@?$allocator@PAVGoal_Evaluator@@@std@@QAEPAPAVGoal_Evaluator@@I@Z ENDP ; std::allocator<Goal_Evaluator *>::allocate
_TEXT	ENDS
; Function compile flags: /Odtp /RTCsu
; File c:\program files (x86)\microsoft visual studio\2017\community\vc\tools\msvc\14.15.26726\include\xmemory0
;	COMDAT ?deallocate@?$allocator@PAVGoal_Evaluator@@@std@@QAEXQAPAVGoal_Evaluator@@I@Z
_TEXT	SEGMENT
_this$ = -4						; size = 4
__Ptr$ = 8						; size = 4
__Count$ = 12						; size = 4
?deallocate@?$allocator@PAVGoal_Evaluator@@@std@@QAEXQAPAVGoal_Evaluator@@I@Z PROC ; std::allocator<Goal_Evaluator *>::deallocate, COMDAT
; _this$ = ecx

; 990  : 		{	// deallocate object at _Ptr

	push	ebp
	mov	ebp, esp
	push	ecx
	mov	DWORD PTR [ebp-4], -858993460		; ccccccccH
	mov	DWORD PTR _this$[ebp], ecx

; 991  : 		// no overflow check on the following multiply; we assume _Allocate did that check
; 992  : 		_Deallocate<_New_alignof<_Ty>>(_Ptr, sizeof(_Ty) * _Count);

	mov	eax, DWORD PTR __Count$[ebp]
	shl	eax, 2
	push	eax
	mov	ecx, DWORD PTR __Ptr$[ebp]
	push	ecx
	call	??$_Deallocate@$07$0A@@std@@YAXPAXI@Z	; std::_Deallocate<8,0>
	add	esp, 8

; 993  : 		}

	add	esp, 4
	cmp	ebp, esp
	call	__RTC_CheckEsp
	mov	esp, ebp
	pop	ebp
	ret	8
?deallocate@?$allocator@PAVGoal_Evaluator@@@std@@QAEXQAPAVGoal_Evaluator@@I@Z ENDP ; std::allocator<Goal_Evaluator *>::deallocate
_TEXT	ENDS
; Function compile flags: /Odtp /RTCsu
; File c:\program files (x86)\microsoft visual studio\2017\community\vc\tools\msvc\14.15.26726\include\xmemory0
;	COMDAT ??0?$allocator@PAVGoal_Evaluator@@@std@@QAE@XZ
_TEXT	SEGMENT
_this$ = -4						; size = 4
??0?$allocator@PAVGoal_Evaluator@@@std@@QAE@XZ PROC	; std::allocator<Goal_Evaluator *>::allocator<Goal_Evaluator *>, COMDAT
; _this$ = ecx

; 979  : 	constexpr allocator() noexcept

	push	ebp
	mov	ebp, esp
	push	ecx
	mov	DWORD PTR [ebp-4], -858993460		; ccccccccH
	mov	DWORD PTR _this$[ebp], ecx

; 980  : 		{	// construct default allocator (do nothing)
; 981  : 		}

	mov	eax, DWORD PTR _this$[ebp]
	mov	esp, ebp
	pop	ebp
	ret	0
??0?$allocator@PAVGoal_Evaluator@@@std@@QAE@XZ ENDP	; std::allocator<Goal_Evaluator *>::allocator<Goal_Evaluator *>
_TEXT	ENDS
; Function compile flags: /Odtp /RTCsu
;	COMDAT ??_G?$Goal_Composite@VRaven_Bot@@@@UAEPAXI@Z
_TEXT	SEGMENT
_this$ = -4						; size = 4
___flags$ = 8						; size = 4
??_G?$Goal_Composite@VRaven_Bot@@@@UAEPAXI@Z PROC	; Goal_Composite<Raven_Bot>::`scalar deleting destructor', COMDAT
; _this$ = ecx
	push	ebp
	mov	ebp, esp
	push	ecx
	mov	DWORD PTR [ebp-4], -858993460		; ccccccccH
	mov	DWORD PTR _this$[ebp], ecx
	mov	ecx, DWORD PTR _this$[ebp]
	call	??1?$Goal_Composite@VRaven_Bot@@@@UAE@XZ ; Goal_Composite<Raven_Bot>::~Goal_Composite<Raven_Bot>
	mov	eax, DWORD PTR ___flags$[ebp]
	and	eax, 1
	je	SHORT $LN2@scalar
	push	28					; 0000001cH
	mov	ecx, DWORD PTR _this$[ebp]
	push	ecx
	call	??3@YAXPAXI@Z				; operator delete
	add	esp, 8
$LN2@scalar:
	mov	eax, DWORD PTR _this$[ebp]
	add	esp, 4
	cmp	ebp, esp
	call	__RTC_CheckEsp
	mov	esp, ebp
	pop	ebp
	ret	4
??_G?$Goal_Composite@VRaven_Bot@@@@UAEPAXI@Z ENDP	; Goal_Composite<Raven_Bot>::`scalar deleting destructor'
_TEXT	ENDS
; Function compile flags: /Odtp /RTCsu
; File c:\users\utilisateur\documents\github\8iar125-projetraven\vs2015\common\goals\goal_composite.h
;	COMDAT ?Render@?$Goal_Composite@VRaven_Bot@@@@UAEXXZ
_TEXT	SEGMENT
tv74 = -8						; size = 4
_this$ = -4						; size = 4
?Render@?$Goal_Composite@VRaven_Bot@@@@UAEXXZ PROC	; Goal_Composite<Raven_Bot>::Render, COMDAT
; _this$ = ecx

; 182  : {

	push	ebp
	mov	ebp, esp
	sub	esp, 8
	push	esi
	mov	DWORD PTR [ebp-8], -858993460		; ccccccccH
	mov	DWORD PTR [ebp-4], -858993460		; ccccccccH
	mov	DWORD PTR _this$[ebp], ecx

; 183  :   if (!m_SubGoals.empty())

	mov	ecx, DWORD PTR _this$[ebp]
	add	ecx, 16					; 00000010H
	call	?empty@?$list@PAV?$Goal@VRaven_Bot@@@@V?$allocator@PAV?$Goal@VRaven_Bot@@@@@std@@@std@@QBE_NXZ ; std::list<Goal<Raven_Bot> *,std::allocator<Goal<Raven_Bot> *> >::empty
	movzx	eax, al
	test	eax, eax
	jne	SHORT $LN1@Render

; 184  :   {
; 185  :     m_SubGoals.front()->Render();

	mov	ecx, DWORD PTR _this$[ebp]
	add	ecx, 16					; 00000010H
	call	?front@?$list@PAV?$Goal@VRaven_Bot@@@@V?$allocator@PAV?$Goal@VRaven_Bot@@@@@std@@@std@@QAEAAPAV?$Goal@VRaven_Bot@@@@XZ ; std::list<Goal<Raven_Bot> *,std::allocator<Goal<Raven_Bot> *> >::front
	mov	ecx, DWORD PTR [eax]
	mov	DWORD PTR tv74[ebp], ecx
	mov	edx, DWORD PTR tv74[ebp]
	mov	eax, DWORD PTR [edx]
	mov	esi, esp
	mov	ecx, DWORD PTR tv74[ebp]
	mov	edx, DWORD PTR [eax+28]
	call	edx
	cmp	esi, esp
	call	__RTC_CheckEsp
$LN1@Render:

; 186  :   }
; 187  : }

	pop	esi
	add	esp, 8
	cmp	ebp, esp
	call	__RTC_CheckEsp
	mov	esp, ebp
	pop	ebp
	ret	0
?Render@?$Goal_Composite@VRaven_Bot@@@@UAEXXZ ENDP	; Goal_Composite<Raven_Bot>::Render
_TEXT	ENDS
; Function compile flags: /Odtp /RTCsu
; File c:\users\utilisateur\documents\github\8iar125-projetraven\vs2015\common\goals\goal_composite.h
;	COMDAT ?RenderAtPos@?$Goal_Composite@VRaven_Bot@@@@UBEXAAUVector2D@@PAVTypeToString@@@Z
_TEXT	SEGMENT
tv135 = -80						; size = 4
tv147 = -76						; size = 4
tv77 = -72						; size = 4
tv145 = -68						; size = 4
$T2 = -64						; size = 12
$T3 = -49						; size = 1
$T4 = -48						; size = 12
_it$ = -32						; size = 12
_this$ = -16						; size = 4
__$EHRec$ = -12						; size = 12
_pos$ = 8						; size = 4
_tts$ = 12						; size = 4
?RenderAtPos@?$Goal_Composite@VRaven_Bot@@@@UBEXAAUVector2D@@PAVTypeToString@@@Z PROC ; Goal_Composite<Raven_Bot>::RenderAtPos, COMDAT
; _this$ = ecx

; 165  : {

	push	ebp
	mov	ebp, esp
	push	-1
	push	__ehhandler$?RenderAtPos@?$Goal_Composite@VRaven_Bot@@@@UBEXAAUVector2D@@PAVTypeToString@@@Z
	mov	eax, DWORD PTR fs:0
	push	eax
	sub	esp, 68					; 00000044H
	push	esi
	push	edi
	push	ecx
	lea	edi, DWORD PTR [ebp-80]
	mov	ecx, 17					; 00000011H
	mov	eax, -858993460				; ccccccccH
	rep stosd
	pop	ecx
	mov	eax, DWORD PTR ___security_cookie
	xor	eax, ebp
	push	eax
	lea	eax, DWORD PTR __$EHRec$[ebp]
	mov	DWORD PTR fs:0, eax
	mov	DWORD PTR _this$[ebp], ecx

; 166  :   Goal<entity_type>::RenderAtPos(pos, tts);

	mov	eax, DWORD PTR _tts$[ebp]
	push	eax
	mov	ecx, DWORD PTR _pos$[ebp]
	push	ecx
	mov	ecx, DWORD PTR _this$[ebp]
	call	?RenderAtPos@?$Goal@VRaven_Bot@@@@UBEXAAUVector2D@@PAVTypeToString@@@Z ; Goal<Raven_Bot>::RenderAtPos

; 167  : 
; 168  :   pos.x += 10;

	mov	edx, DWORD PTR _pos$[ebp]
	movsd	xmm0, QWORD PTR [edx]
	addsd	xmm0, QWORD PTR __real@4024000000000000
	mov	eax, DWORD PTR _pos$[ebp]
	movsd	QWORD PTR [eax], xmm0

; 169  : 
; 170  :   gdi->TransparentText();

	call	?Instance@Cgdi@@SAPAV1@XZ		; Cgdi::Instance
	mov	ecx, eax
	call	?TransparentText@Cgdi@@QAEXXZ		; Cgdi::TransparentText

; 171  :   SubgoalList::const_reverse_iterator it;

	lea	ecx, DWORD PTR _it$[ebp]
	call	??0?$reverse_iterator@V?$_List_const_iterator@V?$_List_val@U?$_List_simple_types@PAV?$Goal@VRaven_Bot@@@@@std@@@std@@@std@@@std@@QAE@XZ ; std::reverse_iterator<std::_List_const_iterator<std::_List_val<std::_List_simple_types<Goal<Raven_Bot> *> > > >::reverse_iterator<std::_List_const_iterator<std::_List_val<std::_List_simple_types<Goal<Raven_Bot> *> > > >
	mov	DWORD PTR __$EHRec$[ebp+8], 0

; 172  :   for (it=m_SubGoals.rbegin(); it != m_SubGoals.rend(); ++it)

	lea	ecx, DWORD PTR $T4[ebp]
	push	ecx
	mov	ecx, DWORD PTR _this$[ebp]
	add	ecx, 16					; 00000010H
	call	?rbegin@?$list@PAV?$Goal@VRaven_Bot@@@@V?$allocator@PAV?$Goal@VRaven_Bot@@@@@std@@@std@@QBE?AV?$reverse_iterator@V?$_List_const_iterator@V?$_List_val@U?$_List_simple_types@PAV?$Goal@VRaven_Bot@@@@@std@@@std@@@std@@@2@XZ ; std::list<Goal<Raven_Bot> *,std::allocator<Goal<Raven_Bot> *> >::rbegin
	mov	DWORD PTR tv145[ebp], eax
	mov	edx, DWORD PTR tv145[ebp]
	push	edx
	lea	ecx, DWORD PTR _it$[ebp]
	call	??4?$reverse_iterator@V?$_List_const_iterator@V?$_List_val@U?$_List_simple_types@PAV?$Goal@VRaven_Bot@@@@@std@@@std@@@std@@@std@@QAEAAV01@$$QAV01@@Z
	lea	ecx, DWORD PTR $T4[ebp]
	call	??1?$reverse_iterator@V?$_List_const_iterator@V?$_List_val@U?$_List_simple_types@PAV?$Goal@VRaven_Bot@@@@@std@@@std@@@std@@@std@@QAE@XZ
	jmp	SHORT $LN4@RenderAtPo
$LN2@RenderAtPo:
	lea	ecx, DWORD PTR _it$[ebp]
	call	??E?$reverse_iterator@V?$_List_const_iterator@V?$_List_val@U?$_List_simple_types@PAV?$Goal@VRaven_Bot@@@@@std@@@std@@@std@@@std@@QAEAAV01@XZ ; std::reverse_iterator<std::_List_const_iterator<std::_List_val<std::_List_simple_types<Goal<Raven_Bot> *> > > >::operator++
$LN4@RenderAtPo:
	lea	eax, DWORD PTR $T2[ebp]
	push	eax
	mov	ecx, DWORD PTR _this$[ebp]
	add	ecx, 16					; 00000010H
	call	?rend@?$list@PAV?$Goal@VRaven_Bot@@@@V?$allocator@PAV?$Goal@VRaven_Bot@@@@@std@@@std@@QBE?AV?$reverse_iterator@V?$_List_const_iterator@V?$_List_val@U?$_List_simple_types@PAV?$Goal@VRaven_Bot@@@@@std@@@std@@@std@@@2@XZ ; std::list<Goal<Raven_Bot> *,std::allocator<Goal<Raven_Bot> *> >::rend
	mov	DWORD PTR tv77[ebp], eax
	mov	ecx, DWORD PTR tv77[ebp]
	mov	DWORD PTR tv147[ebp], ecx
	mov	BYTE PTR __$EHRec$[ebp+8], 1
	mov	edx, DWORD PTR tv147[ebp]
	push	edx
	lea	eax, DWORD PTR _it$[ebp]
	push	eax
	call	??$?9V?$_List_const_iterator@V?$_List_val@U?$_List_simple_types@PAV?$Goal@VRaven_Bot@@@@@std@@@std@@@std@@V01@@std@@YA_NABV?$reverse_iterator@V?$_List_const_iterator@V?$_List_val@U?$_List_simple_types@PAV?$Goal@VRaven_Bot@@@@@std@@@std@@@std@@@0@0@Z ; std::operator!=<std::_List_const_iterator<std::_List_val<std::_List_simple_types<Goal<Raven_Bot> *> > >,std::_List_const_iterator<std::_List_val<std::_List_simple_types<Goal<Raven_Bot> *> > > >
	add	esp, 8
	mov	BYTE PTR $T3[ebp], al
	mov	BYTE PTR __$EHRec$[ebp+8], 0
	lea	ecx, DWORD PTR $T2[ebp]
	call	??1?$reverse_iterator@V?$_List_const_iterator@V?$_List_val@U?$_List_simple_types@PAV?$Goal@VRaven_Bot@@@@@std@@@std@@@std@@@std@@QAE@XZ
	movzx	ecx, BYTE PTR $T3[ebp]
	test	ecx, ecx
	je	SHORT $LN3@RenderAtPo

; 173  :   {
; 174  :     (*it)->RenderAtPos(pos, tts);

	lea	ecx, DWORD PTR _it$[ebp]
	call	??D?$reverse_iterator@V?$_List_const_iterator@V?$_List_val@U?$_List_simple_types@PAV?$Goal@VRaven_Bot@@@@@std@@@std@@@std@@@std@@QBEABQAV?$Goal@VRaven_Bot@@@@XZ ; std::reverse_iterator<std::_List_const_iterator<std::_List_val<std::_List_simple_types<Goal<Raven_Bot> *> > > >::operator*
	mov	edx, DWORD PTR [eax]
	mov	DWORD PTR tv135[ebp], edx
	mov	esi, esp
	mov	eax, DWORD PTR _tts$[ebp]
	push	eax
	mov	ecx, DWORD PTR _pos$[ebp]
	push	ecx
	mov	edx, DWORD PTR tv135[ebp]
	mov	eax, DWORD PTR [edx]
	mov	ecx, DWORD PTR tv135[ebp]
	mov	edx, DWORD PTR [eax+24]
	call	edx
	cmp	esi, esp
	call	__RTC_CheckEsp

; 175  :   }

	jmp	SHORT $LN2@RenderAtPo
$LN3@RenderAtPo:

; 176  : 
; 177  :   pos.x -= 10;

	mov	eax, DWORD PTR _pos$[ebp]
	movsd	xmm0, QWORD PTR [eax]
	subsd	xmm0, QWORD PTR __real@4024000000000000
	mov	ecx, DWORD PTR _pos$[ebp]
	movsd	QWORD PTR [ecx], xmm0

; 178  : }

	mov	DWORD PTR __$EHRec$[ebp+8], -1
	lea	ecx, DWORD PTR _it$[ebp]
	call	??1?$reverse_iterator@V?$_List_const_iterator@V?$_List_val@U?$_List_simple_types@PAV?$Goal@VRaven_Bot@@@@@std@@@std@@@std@@@std@@QAE@XZ
	push	edx
	mov	ecx, ebp
	push	eax
	lea	edx, DWORD PTR $LN12@RenderAtPo
	call	@_RTC_CheckStackVars@8
	pop	eax
	pop	edx
	mov	ecx, DWORD PTR __$EHRec$[ebp]
	mov	DWORD PTR fs:0, ecx
	pop	ecx
	pop	edi
	pop	esi
	add	esp, 80					; 00000050H
	cmp	ebp, esp
	call	__RTC_CheckEsp
	mov	esp, ebp
	pop	ebp
	ret	8
	npad	1
$LN12@RenderAtPo:
	DD	1
	DD	$LN11@RenderAtPo
$LN11@RenderAtPo:
	DD	-32					; ffffffe0H
	DD	12					; 0000000cH
	DD	$LN9@RenderAtPo
$LN9@RenderAtPo:
	DB	105					; 00000069H
	DB	116					; 00000074H
	DB	0
_TEXT	ENDS
;	COMDAT text$x
text$x	SEGMENT
__unwindfunclet$?RenderAtPos@?$Goal_Composite@VRaven_Bot@@@@UBEXAAUVector2D@@PAVTypeToString@@@Z$0:
	lea	ecx, DWORD PTR _it$[ebp]
	jmp	??1?$reverse_iterator@V?$_List_const_iterator@V?$_List_val@U?$_List_simple_types@PAV?$Goal@VRaven_Bot@@@@@std@@@std@@@std@@@std@@QAE@XZ
__unwindfunclet$?RenderAtPos@?$Goal_Composite@VRaven_Bot@@@@UBEXAAUVector2D@@PAVTypeToString@@@Z$2:
	lea	ecx, DWORD PTR $T2[ebp]
	jmp	??1?$reverse_iterator@V?$_List_const_iterator@V?$_List_val@U?$_List_simple_types@PAV?$Goal@VRaven_Bot@@@@@std@@@std@@@std@@@std@@QAE@XZ
__ehhandler$?RenderAtPos@?$Goal_Composite@VRaven_Bot@@@@UBEXAAUVector2D@@PAVTypeToString@@@Z:
	mov	edx, DWORD PTR [esp+8]
	lea	eax, DWORD PTR [edx+12]
	mov	ecx, DWORD PTR [edx-80]
	xor	ecx, eax
	call	@__security_check_cookie@4
	mov	eax, OFFSET __ehfuncinfo$?RenderAtPos@?$Goal_Composite@VRaven_Bot@@@@UBEXAAUVector2D@@PAVTypeToString@@@Z
	jmp	___CxxFrameHandler3
text$x	ENDS
?RenderAtPos@?$Goal_Composite@VRaven_Bot@@@@UBEXAAUVector2D@@PAVTypeToString@@@Z ENDP ; Goal_Composite<Raven_Bot>::RenderAtPos
; Function compile flags: /Odtp /RTCsu
; File c:\users\utilisateur\documents\github\8iar125-projetraven\vs2015\common\goals\goal_composite.h
;	COMDAT ?RemoveAllSubgoals@?$Goal_Composite@VRaven_Bot@@@@QAEXXZ
_TEXT	SEGMENT
tv136 = -76						; size = 4
tv93 = -72						; size = 4
tv141 = -68						; size = 4
tv66 = -64						; size = 4
$T2 = -60						; size = 4
$T3 = -56						; size = 4
$T4 = -52						; size = 12
$T5 = -37						; size = 1
_it$6 = -32						; size = 12
_this$ = -16						; size = 4
__$EHRec$ = -12						; size = 12
?RemoveAllSubgoals@?$Goal_Composite@VRaven_Bot@@@@QAEXXZ PROC ; Goal_Composite<Raven_Bot>::RemoveAllSubgoals, COMDAT
; _this$ = ecx

; 79   : {

	push	ebp
	mov	ebp, esp
	push	-1
	push	__ehhandler$?RemoveAllSubgoals@?$Goal_Composite@VRaven_Bot@@@@QAEXXZ
	mov	eax, DWORD PTR fs:0
	push	eax
	sub	esp, 64					; 00000040H
	push	esi
	push	edi
	push	ecx
	lea	edi, DWORD PTR [ebp-76]
	mov	ecx, 16					; 00000010H
	mov	eax, -858993460				; ccccccccH
	rep stosd
	pop	ecx
	mov	eax, DWORD PTR ___security_cookie
	xor	eax, ebp
	push	eax
	lea	eax, DWORD PTR __$EHRec$[ebp]
	mov	DWORD PTR fs:0, eax
	mov	DWORD PTR _this$[ebp], ecx

; 80   :   for (SubgoalList::iterator it = m_SubGoals.begin();

	lea	eax, DWORD PTR _it$6[ebp]
	push	eax
	mov	ecx, DWORD PTR _this$[ebp]
	add	ecx, 16					; 00000010H
	call	?begin@?$list@PAV?$Goal@VRaven_Bot@@@@V?$allocator@PAV?$Goal@VRaven_Bot@@@@@std@@@std@@QAE?AV?$_List_iterator@V?$_List_val@U?$_List_simple_types@PAV?$Goal@VRaven_Bot@@@@@std@@@std@@@2@XZ ; std::list<Goal<Raven_Bot> *,std::allocator<Goal<Raven_Bot> *> >::begin
	mov	DWORD PTR __$EHRec$[ebp+8], 0
	jmp	SHORT $LN4@RemoveAllS
$LN2@RemoveAllS:

; 82   :        ++it)

	lea	ecx, DWORD PTR _it$6[ebp]
	call	??E?$_List_iterator@V?$_List_val@U?$_List_simple_types@PAV?$Goal@VRaven_Bot@@@@@std@@@std@@@std@@QAEAAV01@XZ ; std::_List_iterator<std::_List_val<std::_List_simple_types<Goal<Raven_Bot> *> > >::operator++
$LN4@RemoveAllS:

; 81   :        it != m_SubGoals.end();

	lea	ecx, DWORD PTR $T4[ebp]
	push	ecx
	mov	ecx, DWORD PTR _this$[ebp]
	add	ecx, 16					; 00000010H
	call	?end@?$list@PAV?$Goal@VRaven_Bot@@@@V?$allocator@PAV?$Goal@VRaven_Bot@@@@@std@@@std@@QAE?AV?$_List_iterator@V?$_List_val@U?$_List_simple_types@PAV?$Goal@VRaven_Bot@@@@@std@@@std@@@2@XZ ; std::list<Goal<Raven_Bot> *,std::allocator<Goal<Raven_Bot> *> >::end
	mov	DWORD PTR tv66[ebp], eax
	mov	edx, DWORD PTR tv66[ebp]
	mov	DWORD PTR tv141[ebp], edx
	mov	BYTE PTR __$EHRec$[ebp+8], 1
	mov	eax, DWORD PTR tv141[ebp]
	push	eax
	lea	ecx, DWORD PTR _it$6[ebp]
	call	??9?$_List_const_iterator@V?$_List_val@U?$_List_simple_types@PAV?$Goal@VRaven_Bot@@@@@std@@@std@@@std@@QBE_NABV01@@Z ; std::_List_const_iterator<std::_List_val<std::_List_simple_types<Goal<Raven_Bot> *> > >::operator!=
	mov	BYTE PTR $T5[ebp], al
	mov	BYTE PTR __$EHRec$[ebp+8], 0
	lea	ecx, DWORD PTR $T4[ebp]
	call	??1?$_List_iterator@V?$_List_val@U?$_List_simple_types@PAV?$Goal@VRaven_Bot@@@@@std@@@std@@@std@@QAE@XZ
	movzx	ecx, BYTE PTR $T5[ebp]
	test	ecx, ecx
	je	SHORT $LN3@RemoveAllS

; 83   :   {  
; 84   :     (*it)->Terminate();

	lea	ecx, DWORD PTR _it$6[ebp]
	call	??D?$_List_iterator@V?$_List_val@U?$_List_simple_types@PAV?$Goal@VRaven_Bot@@@@@std@@@std@@@std@@QBEAAPAV?$Goal@VRaven_Bot@@@@XZ ; std::_List_iterator<std::_List_val<std::_List_simple_types<Goal<Raven_Bot> *> > >::operator*
	mov	edx, DWORD PTR [eax]
	mov	DWORD PTR tv93[ebp], edx
	mov	eax, DWORD PTR tv93[ebp]
	mov	edx, DWORD PTR [eax]
	mov	esi, esp
	mov	ecx, DWORD PTR tv93[ebp]
	mov	eax, DWORD PTR [edx+12]
	call	eax
	cmp	esi, esp
	call	__RTC_CheckEsp

; 85   :     
; 86   :     delete *it;

	lea	ecx, DWORD PTR _it$6[ebp]
	call	??D?$_List_iterator@V?$_List_val@U?$_List_simple_types@PAV?$Goal@VRaven_Bot@@@@@std@@@std@@@std@@QBEAAPAV?$Goal@VRaven_Bot@@@@XZ ; std::_List_iterator<std::_List_val<std::_List_simple_types<Goal<Raven_Bot> *> > >::operator*
	mov	ecx, DWORD PTR [eax]
	mov	DWORD PTR $T2[ebp], ecx
	mov	edx, DWORD PTR $T2[ebp]
	mov	DWORD PTR $T3[ebp], edx
	cmp	DWORD PTR $T3[ebp], 0
	je	SHORT $LN6@RemoveAllS
	mov	esi, esp
	push	1
	mov	eax, DWORD PTR $T3[ebp]
	mov	edx, DWORD PTR [eax]
	mov	ecx, DWORD PTR $T3[ebp]
	mov	eax, DWORD PTR [edx]
	call	eax
	cmp	esi, esp
	call	__RTC_CheckEsp
	mov	DWORD PTR tv136[ebp], eax
	jmp	SHORT $LN7@RemoveAllS
$LN6@RemoveAllS:
	mov	DWORD PTR tv136[ebp], 0
$LN7@RemoveAllS:

; 87   :   }

	jmp	$LN2@RemoveAllS
$LN3@RemoveAllS:
	mov	DWORD PTR __$EHRec$[ebp+8], -1
	lea	ecx, DWORD PTR _it$6[ebp]
	call	??1?$_List_iterator@V?$_List_val@U?$_List_simple_types@PAV?$Goal@VRaven_Bot@@@@@std@@@std@@@std@@QAE@XZ

; 88   : 
; 89   :   m_SubGoals.clear();

	mov	ecx, DWORD PTR _this$[ebp]
	add	ecx, 16					; 00000010H
	call	?clear@?$list@PAV?$Goal@VRaven_Bot@@@@V?$allocator@PAV?$Goal@VRaven_Bot@@@@@std@@@std@@QAEXXZ ; std::list<Goal<Raven_Bot> *,std::allocator<Goal<Raven_Bot> *> >::clear

; 90   : }

	push	edx
	mov	ecx, ebp
	push	eax
	lea	edx, DWORD PTR $LN13@RemoveAllS
	call	@_RTC_CheckStackVars@8
	pop	eax
	pop	edx
	mov	ecx, DWORD PTR __$EHRec$[ebp]
	mov	DWORD PTR fs:0, ecx
	pop	ecx
	pop	edi
	pop	esi
	add	esp, 76					; 0000004cH
	cmp	ebp, esp
	call	__RTC_CheckEsp
	mov	esp, ebp
	pop	ebp
	ret	0
$LN13@RemoveAllS:
	DD	1
	DD	$LN12@RemoveAllS
$LN12@RemoveAllS:
	DD	-32					; ffffffe0H
	DD	12					; 0000000cH
	DD	$LN10@RemoveAllS
$LN10@RemoveAllS:
	DB	105					; 00000069H
	DB	116					; 00000074H
	DB	0
_TEXT	ENDS
;	COMDAT text$x
text$x	SEGMENT
__unwindfunclet$?RemoveAllSubgoals@?$Goal_Composite@VRaven_Bot@@@@QAEXXZ$0:
	lea	ecx, DWORD PTR _it$6[ebp]
	jmp	??1?$_List_iterator@V?$_List_val@U?$_List_simple_types@PAV?$Goal@VRaven_Bot@@@@@std@@@std@@@std@@QAE@XZ
__unwindfunclet$?RemoveAllSubgoals@?$Goal_Composite@VRaven_Bot@@@@QAEXXZ$1:
	lea	ecx, DWORD PTR $T4[ebp]
	jmp	??1?$_List_iterator@V?$_List_val@U?$_List_simple_types@PAV?$Goal@VRaven_Bot@@@@@std@@@std@@@std@@QAE@XZ
__ehhandler$?RemoveAllSubgoals@?$Goal_Composite@VRaven_Bot@@@@QAEXXZ:
	mov	edx, DWORD PTR [esp+8]
	lea	eax, DWORD PTR [edx+12]
	mov	ecx, DWORD PTR [edx-76]
	xor	ecx, eax
	call	@__security_check_cookie@4
	mov	eax, OFFSET __ehfuncinfo$?RemoveAllSubgoals@?$Goal_Composite@VRaven_Bot@@@@QAEXXZ
	jmp	___CxxFrameHandler3
text$x	ENDS
?RemoveAllSubgoals@?$Goal_Composite@VRaven_Bot@@@@QAEXXZ ENDP ; Goal_Composite<Raven_Bot>::RemoveAllSubgoals
; Function compile flags: /Odtp /RTCsu
; File c:\users\utilisateur\documents\github\8iar125-projetraven\vs2015\common\goals\goal_composite.h
;	COMDAT ?AddSubgoal@?$Goal_Composite@VRaven_Bot@@@@UAEXPAV?$Goal@VRaven_Bot@@@@@Z
_TEXT	SEGMENT
_this$ = -4						; size = 4
_g$ = 8							; size = 4
?AddSubgoal@?$Goal_Composite@VRaven_Bot@@@@UAEXPAV?$Goal@VRaven_Bot@@@@@Z PROC ; Goal_Composite<Raven_Bot>::AddSubgoal, COMDAT
; _this$ = ecx

; 138  : {   

	push	ebp
	mov	ebp, esp
	push	ecx
	mov	DWORD PTR [ebp-4], -858993460		; ccccccccH
	mov	DWORD PTR _this$[ebp], ecx

; 139  :   //add the new goal to the front of the list
; 140  :   m_SubGoals.push_front(g);

	lea	eax, DWORD PTR _g$[ebp]
	push	eax
	mov	ecx, DWORD PTR _this$[ebp]
	add	ecx, 16					; 00000010H
	call	?push_front@?$list@PAV?$Goal@VRaven_Bot@@@@V?$allocator@PAV?$Goal@VRaven_Bot@@@@@std@@@std@@QAEXABQAV?$Goal@VRaven_Bot@@@@@Z ; std::list<Goal<Raven_Bot> *,std::allocator<Goal<Raven_Bot> *> >::push_front

; 141  : }

	add	esp, 4
	cmp	ebp, esp
	call	__RTC_CheckEsp
	mov	esp, ebp
	pop	ebp
	ret	4
?AddSubgoal@?$Goal_Composite@VRaven_Bot@@@@UAEXPAV?$Goal@VRaven_Bot@@@@@Z ENDP ; Goal_Composite<Raven_Bot>::AddSubgoal
_TEXT	ENDS
; Function compile flags: /Odtp /RTCsu
; File c:\users\utilisateur\documents\github\8iar125-projetraven\vs2015\common\goals\goal_composite.h
;	COMDAT ?HandleMessage@?$Goal_Composite@VRaven_Bot@@@@UAE_NABUTelegram@@@Z
_TEXT	SEGMENT
_this$ = -4						; size = 4
_msg$ = 8						; size = 4
?HandleMessage@?$Goal_Composite@VRaven_Bot@@@@UAE_NABUTelegram@@@Z PROC ; Goal_Composite<Raven_Bot>::HandleMessage, COMDAT
; _this$ = ecx

; 56   :   { return ForwardMessageToFrontMostSubgoal(msg);}

	push	ebp
	mov	ebp, esp
	push	ecx
	mov	DWORD PTR [ebp-4], -858993460		; ccccccccH
	mov	DWORD PTR _this$[ebp], ecx
	mov	eax, DWORD PTR _msg$[ebp]
	push	eax
	mov	ecx, DWORD PTR _this$[ebp]
	call	?ForwardMessageToFrontMostSubgoal@?$Goal_Composite@VRaven_Bot@@@@IAE_NABUTelegram@@@Z ; Goal_Composite<Raven_Bot>::ForwardMessageToFrontMostSubgoal
	add	esp, 4
	cmp	ebp, esp
	call	__RTC_CheckEsp
	mov	esp, ebp
	pop	ebp
	ret	4
?HandleMessage@?$Goal_Composite@VRaven_Bot@@@@UAE_NABUTelegram@@@Z ENDP ; Goal_Composite<Raven_Bot>::HandleMessage
_TEXT	ENDS
; Function compile flags: /Odtp /RTCsu
; File c:\users\utilisateur\documents\github\8iar125-projetraven\vs2015\common\goals\goal_composite.h
;	COMDAT ??1?$Goal_Composite@VRaven_Bot@@@@UAE@XZ
_TEXT	SEGMENT
_this$ = -16						; size = 4
__$EHRec$ = -12						; size = 12
??1?$Goal_Composite@VRaven_Bot@@@@UAE@XZ PROC		; Goal_Composite<Raven_Bot>::~Goal_Composite<Raven_Bot>, COMDAT
; _this$ = ecx

; 41   :   virtual ~Goal_Composite(){RemoveAllSubgoals();}

	push	ebp
	mov	ebp, esp
	push	-1
	push	__ehhandler$??1?$Goal_Composite@VRaven_Bot@@@@UAE@XZ
	mov	eax, DWORD PTR fs:0
	push	eax
	push	ecx
	mov	DWORD PTR [ebp-16], -858993460		; ccccccccH
	mov	eax, DWORD PTR ___security_cookie
	xor	eax, ebp
	push	eax
	lea	eax, DWORD PTR __$EHRec$[ebp]
	mov	DWORD PTR fs:0, eax
	mov	DWORD PTR _this$[ebp], ecx
	mov	eax, DWORD PTR _this$[ebp]
	mov	DWORD PTR [eax], OFFSET ??_7?$Goal_Composite@VRaven_Bot@@@@6B@
	mov	ecx, DWORD PTR _this$[ebp]
	call	?RemoveAllSubgoals@?$Goal_Composite@VRaven_Bot@@@@QAEXXZ ; Goal_Composite<Raven_Bot>::RemoveAllSubgoals
	mov	ecx, DWORD PTR _this$[ebp]
	add	ecx, 16					; 00000010H
	call	??1?$list@PAV?$Goal@VRaven_Bot@@@@V?$allocator@PAV?$Goal@VRaven_Bot@@@@@std@@@std@@QAE@XZ ; std::list<Goal<Raven_Bot> *,std::allocator<Goal<Raven_Bot> *> >::~list<Goal<Raven_Bot> *,std::allocator<Goal<Raven_Bot> *> >
	mov	ecx, DWORD PTR _this$[ebp]
	call	??1?$Goal@VRaven_Bot@@@@UAE@XZ		; Goal<Raven_Bot>::~Goal<Raven_Bot>
	mov	ecx, DWORD PTR __$EHRec$[ebp]
	mov	DWORD PTR fs:0, ecx
	pop	ecx
	add	esp, 16					; 00000010H
	cmp	ebp, esp
	call	__RTC_CheckEsp
	mov	esp, ebp
	pop	ebp
	ret	0
_TEXT	ENDS
;	COMDAT text$x
text$x	SEGMENT
__ehhandler$??1?$Goal_Composite@VRaven_Bot@@@@UAE@XZ:
	mov	edx, DWORD PTR [esp+8]
	lea	eax, DWORD PTR [edx+12]
	mov	ecx, DWORD PTR [edx-8]
	xor	ecx, eax
	call	@__security_check_cookie@4
	mov	eax, OFFSET __ehfuncinfo$??1?$Goal_Composite@VRaven_Bot@@@@UAE@XZ
	jmp	___CxxFrameHandler3
text$x	ENDS
??1?$Goal_Composite@VRaven_Bot@@@@UAE@XZ ENDP		; Goal_Composite<Raven_Bot>::~Goal_Composite<Raven_Bot>
; Function compile flags: /Odtp /RTCsu
; File c:\users\utilisateur\documents\github\8iar125-projetraven\vs2015\common\goals\goal_composite.h
;	COMDAT ??0?$Goal_Composite@VRaven_Bot@@@@QAE@PAVRaven_Bot@@H@Z
_TEXT	SEGMENT
_this$ = -16						; size = 4
__$EHRec$ = -12						; size = 12
_pE$ = 8						; size = 4
_type$ = 12						; size = 4
??0?$Goal_Composite@VRaven_Bot@@@@QAE@PAVRaven_Bot@@H@Z PROC ; Goal_Composite<Raven_Bot>::Goal_Composite<Raven_Bot>, COMDAT
; _this$ = ecx

; 37   :   Goal_Composite(entity_type* pE, int type):Goal<entity_type>(pE,type){}

	push	ebp
	mov	ebp, esp
	push	-1
	push	__ehhandler$??0?$Goal_Composite@VRaven_Bot@@@@QAE@PAVRaven_Bot@@H@Z
	mov	eax, DWORD PTR fs:0
	push	eax
	push	ecx
	mov	DWORD PTR [ebp-16], -858993460		; ccccccccH
	mov	eax, DWORD PTR ___security_cookie
	xor	eax, ebp
	push	eax
	lea	eax, DWORD PTR __$EHRec$[ebp]
	mov	DWORD PTR fs:0, eax
	mov	DWORD PTR _this$[ebp], ecx
	mov	eax, DWORD PTR _type$[ebp]
	push	eax
	mov	ecx, DWORD PTR _pE$[ebp]
	push	ecx
	mov	ecx, DWORD PTR _this$[ebp]
	call	??0?$Goal@VRaven_Bot@@@@QAE@PAVRaven_Bot@@H@Z ; Goal<Raven_Bot>::Goal<Raven_Bot>
	mov	DWORD PTR __$EHRec$[ebp+8], 0
	mov	edx, DWORD PTR _this$[ebp]
	mov	DWORD PTR [edx], OFFSET ??_7?$Goal_Composite@VRaven_Bot@@@@6B@
	mov	ecx, DWORD PTR _this$[ebp]
	add	ecx, 16					; 00000010H
	call	??0?$list@PAV?$Goal@VRaven_Bot@@@@V?$allocator@PAV?$Goal@VRaven_Bot@@@@@std@@@std@@QAE@XZ ; std::list<Goal<Raven_Bot> *,std::allocator<Goal<Raven_Bot> *> >::list<Goal<Raven_Bot> *,std::allocator<Goal<Raven_Bot> *> >
	mov	DWORD PTR __$EHRec$[ebp+8], -1
	mov	eax, DWORD PTR _this$[ebp]
	mov	ecx, DWORD PTR __$EHRec$[ebp]
	mov	DWORD PTR fs:0, ecx
	pop	ecx
	add	esp, 16					; 00000010H
	cmp	ebp, esp
	call	__RTC_CheckEsp
	mov	esp, ebp
	pop	ebp
	ret	8
_TEXT	ENDS
;	COMDAT text$x
text$x	SEGMENT
__unwindfunclet$??0?$Goal_Composite@VRaven_Bot@@@@QAE@PAVRaven_Bot@@H@Z$0:
	mov	ecx, DWORD PTR _this$[ebp]
	jmp	??1?$Goal@VRaven_Bot@@@@UAE@XZ		; Goal<Raven_Bot>::~Goal<Raven_Bot>
__ehhandler$??0?$Goal_Composite@VRaven_Bot@@@@QAE@PAVRaven_Bot@@H@Z:
	mov	edx, DWORD PTR [esp+8]
	lea	eax, DWORD PTR [edx+12]
	mov	ecx, DWORD PTR [edx-8]
	xor	ecx, eax
	call	@__security_check_cookie@4
	mov	eax, OFFSET __ehfuncinfo$??0?$Goal_Composite@VRaven_Bot@@@@QAE@PAVRaven_Bot@@H@Z
	jmp	___CxxFrameHandler3
text$x	ENDS
??0?$Goal_Composite@VRaven_Bot@@@@QAE@PAVRaven_Bot@@H@Z ENDP ; Goal_Composite<Raven_Bot>::Goal_Composite<Raven_Bot>
; Function compile flags: /Odtp /RTCsu
; File c:\users\utilisateur\documents\github\8iar125-projetraven\vs2015\common\goals\goal_composite.h
;	COMDAT ?ForwardMessageToFrontMostSubgoal@?$Goal_Composite@VRaven_Bot@@@@IAE_NABUTelegram@@@Z
_TEXT	SEGMENT
tv74 = -8						; size = 4
_this$ = -4						; size = 4
_msg$ = 8						; size = 4
?ForwardMessageToFrontMostSubgoal@?$Goal_Composite@VRaven_Bot@@@@IAE_NABUTelegram@@@Z PROC ; Goal_Composite<Raven_Bot>::ForwardMessageToFrontMostSubgoal, COMDAT
; _this$ = ecx

; 151  : {

	push	ebp
	mov	ebp, esp
	sub	esp, 8
	push	esi
	mov	DWORD PTR [ebp-8], -858993460		; ccccccccH
	mov	DWORD PTR [ebp-4], -858993460		; ccccccccH
	mov	DWORD PTR _this$[ebp], ecx

; 152  :   if (!m_SubGoals.empty())

	mov	ecx, DWORD PTR _this$[ebp]
	add	ecx, 16					; 00000010H
	call	?empty@?$list@PAV?$Goal@VRaven_Bot@@@@V?$allocator@PAV?$Goal@VRaven_Bot@@@@@std@@@std@@QBE_NXZ ; std::list<Goal<Raven_Bot> *,std::allocator<Goal<Raven_Bot> *> >::empty
	movzx	eax, al
	test	eax, eax
	jne	SHORT $LN2@ForwardMes

; 153  :   {
; 154  :     return m_SubGoals.front()->HandleMessage(msg);

	mov	ecx, DWORD PTR _this$[ebp]
	add	ecx, 16					; 00000010H
	call	?front@?$list@PAV?$Goal@VRaven_Bot@@@@V?$allocator@PAV?$Goal@VRaven_Bot@@@@@std@@@std@@QAEAAPAV?$Goal@VRaven_Bot@@@@XZ ; std::list<Goal<Raven_Bot> *,std::allocator<Goal<Raven_Bot> *> >::front
	mov	ecx, DWORD PTR [eax]
	mov	DWORD PTR tv74[ebp], ecx
	mov	esi, esp
	mov	edx, DWORD PTR _msg$[ebp]
	push	edx
	mov	eax, DWORD PTR tv74[ebp]
	mov	edx, DWORD PTR [eax]
	mov	ecx, DWORD PTR tv74[ebp]
	mov	eax, DWORD PTR [edx+16]
	call	eax
	cmp	esi, esp
	call	__RTC_CheckEsp
	jmp	SHORT $LN1@ForwardMes
$LN2@ForwardMes:

; 155  :   }
; 156  : 
; 157  :   //return false if the message has not been handled
; 158  :   return false;

	xor	al, al
$LN1@ForwardMes:

; 159  : }

	pop	esi
	add	esp, 8
	cmp	ebp, esp
	call	__RTC_CheckEsp
	mov	esp, ebp
	pop	ebp
	ret	4
?ForwardMessageToFrontMostSubgoal@?$Goal_Composite@VRaven_Bot@@@@IAE_NABUTelegram@@@Z ENDP ; Goal_Composite<Raven_Bot>::ForwardMessageToFrontMostSubgoal
_TEXT	ENDS
; Function compile flags: /Odtp /RTCsu
; File c:\users\utilisateur\documents\github\8iar125-projetraven\vs2015\common\goals\goal_composite.h
;	COMDAT ?ProcessSubgoals@?$Goal_Composite@VRaven_Bot@@@@IAEHXZ
_TEXT	SEGMENT
tv145 = -28						; size = 4
tv132 = -24						; size = 4
tv88 = -20						; size = 4
$T1 = -16						; size = 4
$T2 = -12						; size = 4
_StatusOfSubGoals$3 = -8				; size = 4
_this$ = -4						; size = 4
?ProcessSubgoals@?$Goal_Composite@VRaven_Bot@@@@IAEHXZ PROC ; Goal_Composite<Raven_Bot>::ProcessSubgoals, COMDAT
; _this$ = ecx

; 100  : { 

	push	ebp
	mov	ebp, esp
	sub	esp, 28					; 0000001cH
	push	esi
	mov	eax, -858993460				; ccccccccH
	mov	DWORD PTR [ebp-28], eax
	mov	DWORD PTR [ebp-24], eax
	mov	DWORD PTR [ebp-20], eax
	mov	DWORD PTR [ebp-16], eax
	mov	DWORD PTR [ebp-12], eax
	mov	DWORD PTR [ebp-8], eax
	mov	DWORD PTR [ebp-4], eax
	mov	DWORD PTR _this$[ebp], ecx
$LN2@ProcessSub:

; 101  :   //remove all completed and failed goals from the front of the subgoal list
; 102  :   while (!m_SubGoals.empty() &&

	mov	ecx, DWORD PTR _this$[ebp]
	add	ecx, 16					; 00000010H
	call	?empty@?$list@PAV?$Goal@VRaven_Bot@@@@V?$allocator@PAV?$Goal@VRaven_Bot@@@@@std@@@std@@QBE_NXZ ; std::list<Goal<Raven_Bot> *,std::allocator<Goal<Raven_Bot> *> >::empty
	movzx	eax, al
	test	eax, eax
	jne	$LN3@ProcessSub
	mov	ecx, DWORD PTR _this$[ebp]
	add	ecx, 16					; 00000010H
	call	?front@?$list@PAV?$Goal@VRaven_Bot@@@@V?$allocator@PAV?$Goal@VRaven_Bot@@@@@std@@@std@@QAEAAPAV?$Goal@VRaven_Bot@@@@XZ ; std::list<Goal<Raven_Bot> *,std::allocator<Goal<Raven_Bot> *> >::front
	mov	ecx, DWORD PTR [eax]
	call	?isComplete@?$Goal@VRaven_Bot@@@@QBE_NXZ ; Goal<Raven_Bot>::isComplete
	movzx	ecx, al
	test	ecx, ecx
	jne	SHORT $LN4@ProcessSub
	mov	ecx, DWORD PTR _this$[ebp]
	add	ecx, 16					; 00000010H
	call	?front@?$list@PAV?$Goal@VRaven_Bot@@@@V?$allocator@PAV?$Goal@VRaven_Bot@@@@@std@@@std@@QAEAAPAV?$Goal@VRaven_Bot@@@@XZ ; std::list<Goal<Raven_Bot> *,std::allocator<Goal<Raven_Bot> *> >::front
	mov	ecx, DWORD PTR [eax]
	call	?hasFailed@?$Goal@VRaven_Bot@@@@QBE_NXZ	; Goal<Raven_Bot>::hasFailed
	movzx	edx, al
	test	edx, edx
	je	SHORT $LN3@ProcessSub
$LN4@ProcessSub:

; 103  :          (m_SubGoals.front()->isComplete() || m_SubGoals.front()->hasFailed()))
; 104  :   {    
; 105  :     m_SubGoals.front()->Terminate();

	mov	ecx, DWORD PTR _this$[ebp]
	add	ecx, 16					; 00000010H
	call	?front@?$list@PAV?$Goal@VRaven_Bot@@@@V?$allocator@PAV?$Goal@VRaven_Bot@@@@@std@@@std@@QAEAAPAV?$Goal@VRaven_Bot@@@@XZ ; std::list<Goal<Raven_Bot> *,std::allocator<Goal<Raven_Bot> *> >::front
	mov	eax, DWORD PTR [eax]
	mov	DWORD PTR tv88[ebp], eax
	mov	ecx, DWORD PTR tv88[ebp]
	mov	edx, DWORD PTR [ecx]
	mov	esi, esp
	mov	ecx, DWORD PTR tv88[ebp]
	mov	eax, DWORD PTR [edx+12]
	call	eax
	cmp	esi, esp
	call	__RTC_CheckEsp

; 106  :     delete m_SubGoals.front(); 

	mov	ecx, DWORD PTR _this$[ebp]
	add	ecx, 16					; 00000010H
	call	?front@?$list@PAV?$Goal@VRaven_Bot@@@@V?$allocator@PAV?$Goal@VRaven_Bot@@@@@std@@@std@@QAEAAPAV?$Goal@VRaven_Bot@@@@XZ ; std::list<Goal<Raven_Bot> *,std::allocator<Goal<Raven_Bot> *> >::front
	mov	ecx, DWORD PTR [eax]
	mov	DWORD PTR $T1[ebp], ecx
	mov	edx, DWORD PTR $T1[ebp]
	mov	DWORD PTR $T2[ebp], edx
	cmp	DWORD PTR $T2[ebp], 0
	je	SHORT $LN9@ProcessSub
	mov	esi, esp
	push	1
	mov	eax, DWORD PTR $T2[ebp]
	mov	edx, DWORD PTR [eax]
	mov	ecx, DWORD PTR $T2[ebp]
	mov	eax, DWORD PTR [edx]
	call	eax
	cmp	esi, esp
	call	__RTC_CheckEsp
	mov	DWORD PTR tv132[ebp], eax
	jmp	SHORT $LN10@ProcessSub
$LN9@ProcessSub:
	mov	DWORD PTR tv132[ebp], 0
$LN10@ProcessSub:

; 107  :     m_SubGoals.pop_front();

	mov	ecx, DWORD PTR _this$[ebp]
	add	ecx, 16					; 00000010H
	call	?pop_front@?$list@PAV?$Goal@VRaven_Bot@@@@V?$allocator@PAV?$Goal@VRaven_Bot@@@@@std@@@std@@QAEXXZ ; std::list<Goal<Raven_Bot> *,std::allocator<Goal<Raven_Bot> *> >::pop_front

; 108  :   }

	jmp	$LN2@ProcessSub
$LN3@ProcessSub:

; 109  : 
; 110  :   //if any subgoals remain, process the one at the front of the list
; 111  :   if (!m_SubGoals.empty())

	mov	ecx, DWORD PTR _this$[ebp]
	add	ecx, 16					; 00000010H
	call	?empty@?$list@PAV?$Goal@VRaven_Bot@@@@V?$allocator@PAV?$Goal@VRaven_Bot@@@@@std@@@std@@QBE_NXZ ; std::list<Goal<Raven_Bot> *,std::allocator<Goal<Raven_Bot> *> >::empty
	movzx	ecx, al
	test	ecx, ecx
	jne	SHORT $LN5@ProcessSub

; 112  :   { 
; 113  :     //grab the status of the front-most subgoal
; 114  :     int StatusOfSubGoals = m_SubGoals.front()->Process();

	mov	ecx, DWORD PTR _this$[ebp]
	add	ecx, 16					; 00000010H
	call	?front@?$list@PAV?$Goal@VRaven_Bot@@@@V?$allocator@PAV?$Goal@VRaven_Bot@@@@@std@@@std@@QAEAAPAV?$Goal@VRaven_Bot@@@@XZ ; std::list<Goal<Raven_Bot> *,std::allocator<Goal<Raven_Bot> *> >::front
	mov	edx, DWORD PTR [eax]
	mov	DWORD PTR tv145[ebp], edx
	mov	eax, DWORD PTR tv145[ebp]
	mov	edx, DWORD PTR [eax]
	mov	esi, esp
	mov	ecx, DWORD PTR tv145[ebp]
	mov	eax, DWORD PTR [edx+8]
	call	eax
	cmp	esi, esp
	call	__RTC_CheckEsp
	mov	DWORD PTR _StatusOfSubGoals$3[ebp], eax

; 115  : 
; 116  :     //we have to test for the special case where the front-most subgoal
; 117  :     //reports 'completed' *and* the subgoal list contains additional goals.When
; 118  :     //this is the case, to ensure the parent keeps processing its subgoal list
; 119  :     //we must return the 'active' status.
; 120  :     if (StatusOfSubGoals == completed && m_SubGoals.size() > 1)

	cmp	DWORD PTR _StatusOfSubGoals$3[ebp], 2
	jne	SHORT $LN7@ProcessSub
	mov	ecx, DWORD PTR _this$[ebp]
	add	ecx, 16					; 00000010H
	call	?size@?$list@PAV?$Goal@VRaven_Bot@@@@V?$allocator@PAV?$Goal@VRaven_Bot@@@@@std@@@std@@QBEIXZ ; std::list<Goal<Raven_Bot> *,std::allocator<Goal<Raven_Bot> *> >::size
	cmp	eax, 1
	jbe	SHORT $LN7@ProcessSub

; 121  :     {
; 122  :       return active;

	xor	eax, eax
	jmp	SHORT $LN1@ProcessSub
$LN7@ProcessSub:

; 123  :     }
; 124  : 
; 125  :     return StatusOfSubGoals;

	mov	eax, DWORD PTR _StatusOfSubGoals$3[ebp]
	jmp	SHORT $LN1@ProcessSub

; 126  :   }
; 127  :   
; 128  :   //no more subgoals to process - return 'completed'
; 129  :   else

	jmp	SHORT $LN1@ProcessSub
$LN5@ProcessSub:

; 130  :   {
; 131  :     return completed;

	mov	eax, 2
$LN1@ProcessSub:

; 132  :   }
; 133  : }

	pop	esi
	add	esp, 28					; 0000001cH
	cmp	ebp, esp
	call	__RTC_CheckEsp
	mov	esp, ebp
	pop	ebp
	ret	0
?ProcessSubgoals@?$Goal_Composite@VRaven_Bot@@@@IAEHXZ ENDP ; Goal_Composite<Raven_Bot>::ProcessSubgoals
_TEXT	ENDS
; Function compile flags: /Odtp /RTCsu
; File c:\program files (x86)\microsoft visual studio\2017\community\vc\tools\msvc\14.15.26726\include\list
;	COMDAT ?_Orphan_ptr@?$list@PAV?$Goal@VRaven_Bot@@@@V?$allocator@PAV?$Goal@VRaven_Bot@@@@@std@@@std@@QAEXPAU?$_List_node@PAV?$Goal@VRaven_Bot@@@@PAX@2@@Z
_TEXT	SEGMENT
__Pnext$ = -32						; size = 4
__Lock$ = -24						; size = 4
_this$ = -16						; size = 4
__$EHRec$ = -12						; size = 12
__Ptr$ = 8						; size = 4
?_Orphan_ptr@?$list@PAV?$Goal@VRaven_Bot@@@@V?$allocator@PAV?$Goal@VRaven_Bot@@@@@std@@@std@@QAEXPAU?$_List_node@PAV?$Goal@VRaven_Bot@@@@PAX@2@@Z PROC ; std::list<Goal<Raven_Bot> *,std::allocator<Goal<Raven_Bot> *> >::_Orphan_ptr, COMDAT
; _this$ = ecx

; 1804 : 		{	// orphan iterators with specified node pointers

	push	ebp
	mov	ebp, esp
	push	-1
	push	__ehhandler$?_Orphan_ptr@?$list@PAV?$Goal@VRaven_Bot@@@@V?$allocator@PAV?$Goal@VRaven_Bot@@@@@std@@@std@@QAEXPAU?$_List_node@PAV?$Goal@VRaven_Bot@@@@PAX@2@@Z
	mov	eax, DWORD PTR fs:0
	push	eax
	sub	esp, 20					; 00000014H
	push	esi
	mov	eax, -858993460				; ccccccccH
	mov	DWORD PTR [ebp-32], eax
	mov	DWORD PTR [ebp-28], eax
	mov	DWORD PTR [ebp-24], eax
	mov	DWORD PTR [ebp-20], eax
	mov	DWORD PTR [ebp-16], eax
	mov	eax, DWORD PTR ___security_cookie
	xor	eax, ebp
	push	eax
	lea	eax, DWORD PTR __$EHRec$[ebp]
	mov	DWORD PTR fs:0, eax
	mov	DWORD PTR _this$[ebp], ecx

; 1805 : 		_Lockit _Lock(_LOCK_DEBUG);

	push	3
	lea	ecx, DWORD PTR __Lock$[ebp]
	call	??0_Lockit@std@@QAE@H@Z			; std::_Lockit::_Lockit
	mov	DWORD PTR __$EHRec$[ebp+8], 0

; 1806 : 		const_iterator **_Pnext = (const_iterator **)this->_Getpfirst();

	mov	ecx, DWORD PTR _this$[ebp]
	call	?_Getpfirst@?$_List_alloc@U?$_List_base_types@PAV?$Goal@VRaven_Bot@@@@V?$allocator@PAV?$Goal@VRaven_Bot@@@@@std@@@std@@@std@@QBEPAPAU_Iterator_base12@2@XZ ; std::_List_alloc<std::_List_base_types<Goal<Raven_Bot> *,std::allocator<Goal<Raven_Bot> *> > >::_Getpfirst
	mov	DWORD PTR __Pnext$[ebp], eax

; 1807 : 		if (_Pnext != nullptr)

	cmp	DWORD PTR __Pnext$[ebp], 0
	je	SHORT $LN4@Orphan_ptr
$LN2@Orphan_ptr:

; 1808 : 			while (*_Pnext != nullptr)

	mov	eax, DWORD PTR __Pnext$[ebp]
	cmp	DWORD PTR [eax], 0
	je	SHORT $LN4@Orphan_ptr

; 1809 : 				{	// test an iterator
; 1810 : 				if ((*_Pnext)->_Ptr == this->_Myhead()
; 1811 : 					|| (_Ptr != nullptr && (*_Pnext)->_Ptr != _Ptr))

	mov	ecx, DWORD PTR __Pnext$[ebp]
	mov	esi, DWORD PTR [ecx]
	mov	ecx, DWORD PTR _this$[ebp]
	call	?_Myhead@?$_List_alloc@U?$_List_base_types@PAV?$Goal@VRaven_Bot@@@@V?$allocator@PAV?$Goal@VRaven_Bot@@@@@std@@@std@@@std@@QAEAAPAU?$_List_node@PAV?$Goal@VRaven_Bot@@@@PAX@2@XZ ; std::_List_alloc<std::_List_base_types<Goal<Raven_Bot> *,std::allocator<Goal<Raven_Bot> *> > >::_Myhead
	mov	edx, DWORD PTR [esi+8]
	cmp	edx, DWORD PTR [eax]
	je	SHORT $LN7@Orphan_ptr
	cmp	DWORD PTR __Ptr$[ebp], 0
	je	SHORT $LN5@Orphan_ptr
	mov	eax, DWORD PTR __Pnext$[ebp]
	mov	ecx, DWORD PTR [eax]
	mov	edx, DWORD PTR [ecx+8]
	cmp	edx, DWORD PTR __Ptr$[ebp]
	je	SHORT $LN5@Orphan_ptr
$LN7@Orphan_ptr:

; 1812 : 					_Pnext = (const_iterator **)(*_Pnext)->_Getpnext();

	mov	eax, DWORD PTR __Pnext$[ebp]
	mov	ecx, DWORD PTR [eax]
	call	?_Getpnext@_Iterator_base12@std@@QAEPAPAU12@XZ ; std::_Iterator_base12::_Getpnext
	mov	DWORD PTR __Pnext$[ebp], eax

; 1813 : 				else

	jmp	SHORT $LN6@Orphan_ptr
$LN5@Orphan_ptr:

; 1814 : 					{	// orphan the iterator
; 1815 : 					(*_Pnext)->_Clrcont();

	mov	ecx, DWORD PTR __Pnext$[ebp]
	mov	ecx, DWORD PTR [ecx]
	call	?_Clrcont@_Iterator_base12@std@@QAEXXZ	; std::_Iterator_base12::_Clrcont

; 1816 : 					*_Pnext = *(const_iterator **)(*_Pnext)->_Getpnext();

	mov	edx, DWORD PTR __Pnext$[ebp]
	mov	ecx, DWORD PTR [edx]
	call	?_Getpnext@_Iterator_base12@std@@QAEPAPAU12@XZ ; std::_Iterator_base12::_Getpnext
	mov	ecx, DWORD PTR __Pnext$[ebp]
	mov	edx, DWORD PTR [eax]
	mov	DWORD PTR [ecx], edx
$LN6@Orphan_ptr:

; 1817 : 					}
; 1818 : 				}

	jmp	SHORT $LN2@Orphan_ptr
$LN4@Orphan_ptr:

; 1819 : 		}

	mov	DWORD PTR __$EHRec$[ebp+8], -1
	lea	ecx, DWORD PTR __Lock$[ebp]
	call	??1_Lockit@std@@QAE@XZ			; std::_Lockit::~_Lockit
	push	edx
	mov	ecx, ebp
	push	eax
	lea	edx, DWORD PTR $LN13@Orphan_ptr
	call	@_RTC_CheckStackVars@8
	pop	eax
	pop	edx
	mov	ecx, DWORD PTR __$EHRec$[ebp]
	mov	DWORD PTR fs:0, ecx
	pop	ecx
	pop	esi
	add	esp, 32					; 00000020H
	cmp	ebp, esp
	call	__RTC_CheckEsp
	mov	esp, ebp
	pop	ebp
	ret	4
	npad	2
$LN13@Orphan_ptr:
	DD	1
	DD	$LN12@Orphan_ptr
$LN12@Orphan_ptr:
	DD	-24					; ffffffe8H
	DD	4
	DD	$LN10@Orphan_ptr
$LN10@Orphan_ptr:
	DB	95					; 0000005fH
	DB	76					; 0000004cH
	DB	111					; 0000006fH
	DB	99					; 00000063H
	DB	107					; 0000006bH
	DB	0
_TEXT	ENDS
;	COMDAT text$x
text$x	SEGMENT
__unwindfunclet$?_Orphan_ptr@?$list@PAV?$Goal@VRaven_Bot@@@@V?$allocator@PAV?$Goal@VRaven_Bot@@@@@std@@@std@@QAEXPAU?$_List_node@PAV?$Goal@VRaven_Bot@@@@PAX@2@@Z$0:
	lea	ecx, DWORD PTR __Lock$[ebp]
	jmp	??1_Lockit@std@@QAE@XZ			; std::_Lockit::~_Lockit
__ehhandler$?_Orphan_ptr@?$list@PAV?$Goal@VRaven_Bot@@@@V?$allocator@PAV?$Goal@VRaven_Bot@@@@@std@@@std@@QAEXPAU?$_List_node@PAV?$Goal@VRaven_Bot@@@@PAX@2@@Z:
	mov	edx, DWORD PTR [esp+8]
	lea	eax, DWORD PTR [edx+12]
	mov	ecx, DWORD PTR [edx-28]
	xor	ecx, eax
	call	@__security_check_cookie@4
	mov	eax, OFFSET __ehfuncinfo$?_Orphan_ptr@?$list@PAV?$Goal@VRaven_Bot@@@@V?$allocator@PAV?$Goal@VRaven_Bot@@@@@std@@@std@@QAEXPAU?$_List_node@PAV?$Goal@VRaven_Bot@@@@PAX@2@@Z
	jmp	___CxxFrameHandler3
text$x	ENDS
?_Orphan_ptr@?$list@PAV?$Goal@VRaven_Bot@@@@V?$allocator@PAV?$Goal@VRaven_Bot@@@@@std@@@std@@QAEXPAU?$_List_node@PAV?$Goal@VRaven_Bot@@@@PAX@2@@Z ENDP ; std::list<Goal<Raven_Bot> *,std::allocator<Goal<Raven_Bot> *> >::_Orphan_ptr
; Function compile flags: /Odtp /RTCsu
; File c:\program files (x86)\microsoft visual studio\2017\community\vc\tools\msvc\14.15.26726\include\list
;	COMDAT ?_Incsize@?$list@PAV?$Goal@VRaven_Bot@@@@V?$allocator@PAV?$Goal@VRaven_Bot@@@@@std@@@std@@QAEXI@Z
_TEXT	SEGMENT
tv82 = -8						; size = 4
_this$ = -4						; size = 4
__Count$ = 8						; size = 4
?_Incsize@?$list@PAV?$Goal@VRaven_Bot@@@@V?$allocator@PAV?$Goal@VRaven_Bot@@@@@std@@@std@@QAEXI@Z PROC ; std::list<Goal<Raven_Bot> *,std::allocator<Goal<Raven_Bot> *> >::_Incsize, COMDAT
; _this$ = ecx

; 1796 : 		{	// alter element count, with checking

	push	ebp
	mov	ebp, esp
	sub	esp, 8
	push	esi
	mov	DWORD PTR [ebp-8], -858993460		; ccccccccH
	mov	DWORD PTR [ebp-4], -858993460		; ccccccccH
	mov	DWORD PTR _this$[ebp], ecx

; 1797 : 		if (max_size() - this->_Mysize() - 1 < _Count)

	mov	ecx, DWORD PTR _this$[ebp]
	call	?max_size@?$list@PAV?$Goal@VRaven_Bot@@@@V?$allocator@PAV?$Goal@VRaven_Bot@@@@@std@@@std@@QBEIXZ ; std::list<Goal<Raven_Bot> *,std::allocator<Goal<Raven_Bot> *> >::max_size
	mov	esi, eax
	mov	ecx, DWORD PTR _this$[ebp]
	call	?_Mysize@?$_List_alloc@U?$_List_base_types@PAV?$Goal@VRaven_Bot@@@@V?$allocator@PAV?$Goal@VRaven_Bot@@@@@std@@@std@@@std@@QAEAAIXZ ; std::_List_alloc<std::_List_base_types<Goal<Raven_Bot> *,std::allocator<Goal<Raven_Bot> *> > >::_Mysize
	sub	esi, DWORD PTR [eax]
	sub	esi, 1
	cmp	esi, DWORD PTR __Count$[ebp]
	jae	SHORT $LN2@Incsize

; 1798 : 			_Xlength_error("list<T> too long");

	push	OFFSET ??_C@_0BB@MOGOBHAF@list?$DMT?$DO?5too?5long@
	call	?_Xlength_error@std@@YAXPBD@Z		; std::_Xlength_error
$LN2@Incsize:

; 1799 : 		this->_Mysize() += _Count;

	mov	ecx, DWORD PTR _this$[ebp]
	call	?_Mysize@?$_List_alloc@U?$_List_base_types@PAV?$Goal@VRaven_Bot@@@@V?$allocator@PAV?$Goal@VRaven_Bot@@@@@std@@@std@@@std@@QAEAAIXZ ; std::_List_alloc<std::_List_base_types<Goal<Raven_Bot> *,std::allocator<Goal<Raven_Bot> *> > >::_Mysize
	mov	DWORD PTR tv82[ebp], eax
	mov	eax, DWORD PTR tv82[ebp]
	mov	ecx, DWORD PTR [eax]
	add	ecx, DWORD PTR __Count$[ebp]
	mov	edx, DWORD PTR tv82[ebp]
	mov	DWORD PTR [edx], ecx
$LN3@Incsize:

; 1800 : 		}

	pop	esi
	add	esp, 8
	cmp	ebp, esp
	call	__RTC_CheckEsp
	mov	esp, ebp
	pop	ebp
	ret	4
?_Incsize@?$list@PAV?$Goal@VRaven_Bot@@@@V?$allocator@PAV?$Goal@VRaven_Bot@@@@@std@@@std@@QAEXI@Z ENDP ; std::list<Goal<Raven_Bot> *,std::allocator<Goal<Raven_Bot> *> >::_Incsize
_TEXT	ENDS
; Function compile flags: /Odtp /RTCsu
; File c:\program files (x86)\microsoft visual studio\2017\community\vc\tools\msvc\14.15.26726\include\list
;	COMDAT ?_Tidy@?$list@PAV?$Goal@VRaven_Bot@@@@V?$allocator@PAV?$Goal@VRaven_Bot@@@@@std@@@std@@QAEXXZ
_TEXT	SEGMENT
_this$ = -4						; size = 4
?_Tidy@?$list@PAV?$Goal@VRaven_Bot@@@@V?$allocator@PAV?$Goal@VRaven_Bot@@@@@std@@@std@@QAEXXZ PROC ; std::list<Goal<Raven_Bot> *,std::allocator<Goal<Raven_Bot> *> >::_Tidy, COMDAT
; _this$ = ecx

; 1773 : 		{	// free all storage

	push	ebp
	mov	ebp, esp
	push	ecx
	mov	DWORD PTR [ebp-4], -858993460		; ccccccccH
	mov	DWORD PTR _this$[ebp], ecx

; 1774 : 		clear();

	mov	ecx, DWORD PTR _this$[ebp]
	call	?clear@?$list@PAV?$Goal@VRaven_Bot@@@@V?$allocator@PAV?$Goal@VRaven_Bot@@@@@std@@@std@@QAEXXZ ; std::list<Goal<Raven_Bot> *,std::allocator<Goal<Raven_Bot> *> >::clear

; 1775 : 		}

	add	esp, 4
	cmp	ebp, esp
	call	__RTC_CheckEsp
	mov	esp, ebp
	pop	ebp
	ret	0
?_Tidy@?$list@PAV?$Goal@VRaven_Bot@@@@V?$allocator@PAV?$Goal@VRaven_Bot@@@@@std@@@std@@QAEXXZ ENDP ; std::list<Goal<Raven_Bot> *,std::allocator<Goal<Raven_Bot> *> >::_Tidy
_TEXT	ENDS
; Function compile flags: /Odtp /RTCsu
; File c:\program files (x86)\microsoft visual studio\2017\community\vc\tools\msvc\14.15.26726\include\list
;	COMDAT ?clear@?$list@PAV?$Goal@VRaven_Bot@@@@V?$allocator@PAV?$Goal@VRaven_Bot@@@@@std@@@std@@QAEXXZ
_TEXT	SEGMENT
__Pnext$2 = -24						; size = 4
__Pnode$ = -20						; size = 4
_this$ = -16						; size = 4
__$EHRec$ = -12						; size = 12
?clear@?$list@PAV?$Goal@VRaven_Bot@@@@V?$allocator@PAV?$Goal@VRaven_Bot@@@@@std@@@std@@QAEXXZ PROC ; std::list<Goal<Raven_Bot> *,std::allocator<Goal<Raven_Bot> *> >::clear, COMDAT
; _this$ = ecx

; 1381 : 		{	// erase all

	push	ebp
	mov	ebp, esp
	push	-1
	push	__ehhandler$?clear@?$list@PAV?$Goal@VRaven_Bot@@@@V?$allocator@PAV?$Goal@VRaven_Bot@@@@@std@@@std@@QAEXXZ
	mov	eax, DWORD PTR fs:0
	push	eax
	sub	esp, 12					; 0000000cH
	push	esi
	mov	DWORD PTR [ebp-24], -858993460		; ccccccccH
	mov	DWORD PTR [ebp-20], -858993460		; ccccccccH
	mov	DWORD PTR [ebp-16], -858993460		; ccccccccH
	mov	eax, DWORD PTR ___security_cookie
	xor	eax, ebp
	push	eax
	lea	eax, DWORD PTR __$EHRec$[ebp]
	mov	DWORD PTR fs:0, eax
	mov	DWORD PTR _this$[ebp], ecx

; 1382 :  #if _ITERATOR_DEBUG_LEVEL == 2
; 1383 : 		this->_Orphan_ptr(nullptr);

	push	0
	mov	ecx, DWORD PTR _this$[ebp]
	call	?_Orphan_ptr@?$list@PAV?$Goal@VRaven_Bot@@@@V?$allocator@PAV?$Goal@VRaven_Bot@@@@@std@@@std@@QAEXPAU?$_List_node@PAV?$Goal@VRaven_Bot@@@@PAX@2@@Z ; std::list<Goal<Raven_Bot> *,std::allocator<Goal<Raven_Bot> *> >::_Orphan_ptr

; 1384 :  #endif /* _ITERATOR_DEBUG_LEVEL == 2 */
; 1385 : 		_Nodeptr _Pnode = this->_Myhead()->_Next;

	mov	ecx, DWORD PTR _this$[ebp]
	call	?_Myhead@?$_List_alloc@U?$_List_base_types@PAV?$Goal@VRaven_Bot@@@@V?$allocator@PAV?$Goal@VRaven_Bot@@@@@std@@@std@@@std@@QAEAAPAU?$_List_node@PAV?$Goal@VRaven_Bot@@@@PAX@2@XZ ; std::_List_alloc<std::_List_base_types<Goal<Raven_Bot> *,std::allocator<Goal<Raven_Bot> *> > >::_Myhead
	mov	eax, DWORD PTR [eax]
	mov	ecx, DWORD PTR [eax]
	mov	DWORD PTR __Pnode$[ebp], ecx

; 1386 : 		this->_Myhead()->_Next = this->_Myhead();

	mov	ecx, DWORD PTR _this$[ebp]
	call	?_Myhead@?$_List_alloc@U?$_List_base_types@PAV?$Goal@VRaven_Bot@@@@V?$allocator@PAV?$Goal@VRaven_Bot@@@@@std@@@std@@@std@@QAEAAPAU?$_List_node@PAV?$Goal@VRaven_Bot@@@@PAX@2@XZ ; std::_List_alloc<std::_List_base_types<Goal<Raven_Bot> *,std::allocator<Goal<Raven_Bot> *> > >::_Myhead
	mov	esi, eax
	mov	ecx, DWORD PTR _this$[ebp]
	call	?_Myhead@?$_List_alloc@U?$_List_base_types@PAV?$Goal@VRaven_Bot@@@@V?$allocator@PAV?$Goal@VRaven_Bot@@@@@std@@@std@@@std@@QAEAAPAU?$_List_node@PAV?$Goal@VRaven_Bot@@@@PAX@2@XZ ; std::_List_alloc<std::_List_base_types<Goal<Raven_Bot> *,std::allocator<Goal<Raven_Bot> *> > >::_Myhead
	mov	edx, DWORD PTR [eax]
	mov	eax, DWORD PTR [esi]
	mov	DWORD PTR [edx], eax

; 1387 : 		this->_Myhead()->_Prev = this->_Myhead();

	mov	ecx, DWORD PTR _this$[ebp]
	call	?_Myhead@?$_List_alloc@U?$_List_base_types@PAV?$Goal@VRaven_Bot@@@@V?$allocator@PAV?$Goal@VRaven_Bot@@@@@std@@@std@@@std@@QAEAAPAU?$_List_node@PAV?$Goal@VRaven_Bot@@@@PAX@2@XZ ; std::_List_alloc<std::_List_base_types<Goal<Raven_Bot> *,std::allocator<Goal<Raven_Bot> *> > >::_Myhead
	mov	esi, eax
	mov	ecx, DWORD PTR _this$[ebp]
	call	?_Myhead@?$_List_alloc@U?$_List_base_types@PAV?$Goal@VRaven_Bot@@@@V?$allocator@PAV?$Goal@VRaven_Bot@@@@@std@@@std@@@std@@QAEAAPAU?$_List_node@PAV?$Goal@VRaven_Bot@@@@PAX@2@XZ ; std::_List_alloc<std::_List_base_types<Goal<Raven_Bot> *,std::allocator<Goal<Raven_Bot> *> > >::_Myhead
	mov	ecx, DWORD PTR [eax]
	mov	edx, DWORD PTR [esi]
	mov	DWORD PTR [ecx+4], edx

; 1388 : 		this->_Mysize() = 0;

	mov	ecx, DWORD PTR _this$[ebp]
	call	?_Mysize@?$_List_alloc@U?$_List_base_types@PAV?$Goal@VRaven_Bot@@@@V?$allocator@PAV?$Goal@VRaven_Bot@@@@@std@@@std@@@std@@QAEAAIXZ ; std::_List_alloc<std::_List_base_types<Goal<Raven_Bot> *,std::allocator<Goal<Raven_Bot> *> > >::_Mysize
	mov	DWORD PTR [eax], 0

; 1389 : 
; 1390 : 		for (_Nodeptr _Pnext; _Pnode != this->_Myhead(); _Pnode = _Pnext)

	jmp	SHORT $LN4@clear
$LN2@clear:
	mov	eax, DWORD PTR __Pnext$2[ebp]
	mov	DWORD PTR __Pnode$[ebp], eax
$LN4@clear:
	mov	ecx, DWORD PTR _this$[ebp]
	call	?_Myhead@?$_List_alloc@U?$_List_base_types@PAV?$Goal@VRaven_Bot@@@@V?$allocator@PAV?$Goal@VRaven_Bot@@@@@std@@@std@@@std@@QAEAAPAU?$_List_node@PAV?$Goal@VRaven_Bot@@@@PAX@2@XZ ; std::_List_alloc<std::_List_base_types<Goal<Raven_Bot> *,std::allocator<Goal<Raven_Bot> *> > >::_Myhead
	mov	ecx, DWORD PTR __Pnode$[ebp]
	cmp	ecx, DWORD PTR [eax]
	je	SHORT $LN5@clear

; 1391 : 			{	// delete an element
; 1392 : 			_Pnext = _Pnode->_Next;

	mov	edx, DWORD PTR __Pnode$[ebp]
	mov	eax, DWORD PTR [edx]
	mov	DWORD PTR __Pnext$2[ebp], eax

; 1393 : 			this->_Freenode(_Pnode);

	mov	ecx, DWORD PTR __Pnode$[ebp]
	push	ecx
	mov	ecx, DWORD PTR _this$[ebp]
	call	?_Freenode@?$_List_buy@PAV?$Goal@VRaven_Bot@@@@V?$allocator@PAV?$Goal@VRaven_Bot@@@@@std@@@std@@QAEXPAU?$_List_node@PAV?$Goal@VRaven_Bot@@@@PAX@2@@Z ; std::_List_buy<Goal<Raven_Bot> *,std::allocator<Goal<Raven_Bot> *> >::_Freenode

; 1394 : 			}

	jmp	SHORT $LN2@clear
$LN5@clear:

; 1395 : 		}

	mov	ecx, DWORD PTR __$EHRec$[ebp]
	mov	DWORD PTR fs:0, ecx
	pop	ecx
	pop	esi
	add	esp, 24					; 00000018H
	cmp	ebp, esp
	call	__RTC_CheckEsp
	mov	esp, ebp
	pop	ebp
	ret	0
_TEXT	ENDS
;	COMDAT text$x
text$x	SEGMENT
__ehhandler$?clear@?$list@PAV?$Goal@VRaven_Bot@@@@V?$allocator@PAV?$Goal@VRaven_Bot@@@@@std@@@std@@QAEXXZ:
	mov	edx, DWORD PTR [esp+8]
	lea	eax, DWORD PTR [edx+12]
	mov	ecx, DWORD PTR [edx-20]
	xor	ecx, eax
	call	@__security_check_cookie@4
	mov	eax, OFFSET __ehfuncinfo$?clear@?$list@PAV?$Goal@VRaven_Bot@@@@V?$allocator@PAV?$Goal@VRaven_Bot@@@@@std@@@std@@QAEXXZ
	jmp	___CxxFrameHandler3
text$x	ENDS
?clear@?$list@PAV?$Goal@VRaven_Bot@@@@V?$allocator@PAV?$Goal@VRaven_Bot@@@@@std@@@std@@QAEXXZ ENDP ; std::list<Goal<Raven_Bot> *,std::allocator<Goal<Raven_Bot> *> >::clear
; Function compile flags: /Odtp /RTCsu
; File c:\program files (x86)\microsoft visual studio\2017\community\vc\tools\msvc\14.15.26726\include\list
;	COMDAT ?erase@?$list@PAV?$Goal@VRaven_Bot@@@@V?$allocator@PAV?$Goal@VRaven_Bot@@@@@std@@@std@@QAE?AV?$_List_iterator@V?$_List_val@U?$_List_simple_types@PAV?$Goal@VRaven_Bot@@@@@std@@@std@@@2@V?$_List_const_iterator@V?$_List_val@U?$_List_simple_types@PAV?$Goal@VRaven_Bot@@@@@std@@@std@@@2@@Z
_TEXT	SEGMENT
tv144 = -40						; size = 4
tv141 = -36						; size = 4
$T2 = -32						; size = 4
$T3 = -28						; size = 4
$T4 = -24						; size = 4
__Pnode$ = -20						; size = 4
_this$ = -16						; size = 4
__$EHRec$ = -12						; size = 12
___$ReturnUdt$ = 8					; size = 4
__Where$ = 12						; size = 12
?erase@?$list@PAV?$Goal@VRaven_Bot@@@@V?$allocator@PAV?$Goal@VRaven_Bot@@@@@std@@@std@@QAE?AV?$_List_iterator@V?$_List_val@U?$_List_simple_types@PAV?$Goal@VRaven_Bot@@@@@std@@@std@@@2@V?$_List_const_iterator@V?$_List_val@U?$_List_simple_types@PAV?$Goal@VRaven_Bot@@@@@std@@@std@@@2@@Z PROC ; std::list<Goal<Raven_Bot> *,std::allocator<Goal<Raven_Bot> *> >::erase, COMDAT
; _this$ = ecx

; 1349 : 		{	// erase element at _Where

	push	ebp
	mov	ebp, esp
	push	-1
	push	__ehhandler$?erase@?$list@PAV?$Goal@VRaven_Bot@@@@V?$allocator@PAV?$Goal@VRaven_Bot@@@@@std@@@std@@QAE?AV?$_List_iterator@V?$_List_val@U?$_List_simple_types@PAV?$Goal@VRaven_Bot@@@@@std@@@std@@@2@V?$_List_const_iterator@V?$_List_val@U?$_List_simple_types@PAV?$Goal@VRaven_Bot@@@@@std@@@std@@@2@@Z
	mov	eax, DWORD PTR fs:0
	push	eax
	sub	esp, 28					; 0000001cH
	mov	eax, -858993460				; ccccccccH
	mov	DWORD PTR [ebp-40], eax
	mov	DWORD PTR [ebp-36], eax
	mov	DWORD PTR [ebp-32], eax
	mov	DWORD PTR [ebp-28], eax
	mov	DWORD PTR [ebp-24], eax
	mov	DWORD PTR [ebp-20], eax
	mov	DWORD PTR [ebp-16], eax
	mov	eax, DWORD PTR ___security_cookie
	xor	eax, ebp
	push	eax
	lea	eax, DWORD PTR __$EHRec$[ebp]
	mov	DWORD PTR fs:0, eax
	mov	DWORD PTR _this$[ebp], ecx
	mov	DWORD PTR $T2[ebp], 0
	mov	DWORD PTR __$EHRec$[ebp+8], 0

; 1350 : 		_Nodeptr _Pnode = _Unlinknode(_Where++);

	sub	esp, 12					; 0000000cH
	mov	eax, esp
	mov	DWORD PTR $T4[ebp], esp
	push	0
	push	eax
	lea	ecx, DWORD PTR __Where$[ebp]
	call	??E?$_List_const_iterator@V?$_List_val@U?$_List_simple_types@PAV?$Goal@VRaven_Bot@@@@@std@@@std@@@std@@QAE?AV01@H@Z ; std::_List_const_iterator<std::_List_val<std::_List_simple_types<Goal<Raven_Bot> *> > >::operator++
	mov	ecx, DWORD PTR _this$[ebp]
	call	?_Unlinknode@?$list@PAV?$Goal@VRaven_Bot@@@@V?$allocator@PAV?$Goal@VRaven_Bot@@@@@std@@@std@@QAEPAU?$_List_node@PAV?$Goal@VRaven_Bot@@@@PAX@2@V?$_List_const_iterator@V?$_List_val@U?$_List_simple_types@PAV?$Goal@VRaven_Bot@@@@@std@@@std@@@2@@Z ; std::list<Goal<Raven_Bot> *,std::allocator<Goal<Raven_Bot> *> >::_Unlinknode
	mov	DWORD PTR tv141[ebp], eax
	mov	ecx, DWORD PTR tv141[ebp]
	mov	DWORD PTR __Pnode$[ebp], ecx

; 1351 : 		this->_Freenode(_Pnode);

	mov	edx, DWORD PTR __Pnode$[ebp]
	push	edx
	mov	ecx, DWORD PTR _this$[ebp]
	call	?_Freenode@?$_List_buy@PAV?$Goal@VRaven_Bot@@@@V?$allocator@PAV?$Goal@VRaven_Bot@@@@@std@@@std@@QAEXPAU?$_List_node@PAV?$Goal@VRaven_Bot@@@@PAX@2@@Z ; std::_List_buy<Goal<Raven_Bot> *,std::allocator<Goal<Raven_Bot> *> >::_Freenode

; 1352 : 		return (_Make_iter(_Where));

	sub	esp, 12					; 0000000cH
	mov	ecx, esp
	mov	DWORD PTR $T3[ebp], esp
	lea	eax, DWORD PTR __Where$[ebp]
	push	eax
	call	??0?$_List_const_iterator@V?$_List_val@U?$_List_simple_types@PAV?$Goal@VRaven_Bot@@@@@std@@@std@@@std@@QAE@ABV01@@Z
	mov	ecx, DWORD PTR ___$ReturnUdt$[ebp]
	push	ecx
	mov	ecx, DWORD PTR _this$[ebp]
	call	?_Make_iter@?$list@PAV?$Goal@VRaven_Bot@@@@V?$allocator@PAV?$Goal@VRaven_Bot@@@@@std@@@std@@QBE?AV?$_List_iterator@V?$_List_val@U?$_List_simple_types@PAV?$Goal@VRaven_Bot@@@@@std@@@std@@@2@V?$_List_const_iterator@V?$_List_val@U?$_List_simple_types@PAV?$Goal@VRaven_Bot@@@@@std@@@std@@@2@@Z ; std::list<Goal<Raven_Bot> *,std::allocator<Goal<Raven_Bot> *> >::_Make_iter
	mov	DWORD PTR tv144[ebp], eax
	mov	edx, DWORD PTR $T2[ebp]
	or	edx, 1
	mov	DWORD PTR $T2[ebp], edx
	mov	DWORD PTR __$EHRec$[ebp+8], -1
	lea	ecx, DWORD PTR __Where$[ebp]
	call	??1?$_List_const_iterator@V?$_List_val@U?$_List_simple_types@PAV?$Goal@VRaven_Bot@@@@@std@@@std@@@std@@QAE@XZ
	mov	eax, DWORD PTR ___$ReturnUdt$[ebp]

; 1353 : 		}

	mov	ecx, DWORD PTR __$EHRec$[ebp]
	mov	DWORD PTR fs:0, ecx
	pop	ecx
	add	esp, 40					; 00000028H
	cmp	ebp, esp
	call	__RTC_CheckEsp
	mov	esp, ebp
	pop	ebp
	ret	16					; 00000010H
_TEXT	ENDS
;	COMDAT text$x
text$x	SEGMENT
__unwindfunclet$?erase@?$list@PAV?$Goal@VRaven_Bot@@@@V?$allocator@PAV?$Goal@VRaven_Bot@@@@@std@@@std@@QAE?AV?$_List_iterator@V?$_List_val@U?$_List_simple_types@PAV?$Goal@VRaven_Bot@@@@@std@@@std@@@2@V?$_List_const_iterator@V?$_List_val@U?$_List_simple_types@PAV?$Goal@VRaven_Bot@@@@@std@@@std@@@2@@Z$0:
	lea	ecx, DWORD PTR __Where$[ebp]
	jmp	??1?$_List_const_iterator@V?$_List_val@U?$_List_simple_types@PAV?$Goal@VRaven_Bot@@@@@std@@@std@@@std@@QAE@XZ
__ehhandler$?erase@?$list@PAV?$Goal@VRaven_Bot@@@@V?$allocator@PAV?$Goal@VRaven_Bot@@@@@std@@@std@@QAE?AV?$_List_iterator@V?$_List_val@U?$_List_simple_types@PAV?$Goal@VRaven_Bot@@@@@std@@@std@@@2@V?$_List_const_iterator@V?$_List_val@U?$_List_simple_types@PAV?$Goal@VRaven_Bot@@@@@std@@@std@@@2@@Z:
	mov	edx, DWORD PTR [esp+8]
	lea	eax, DWORD PTR [edx+12]
	mov	ecx, DWORD PTR [edx-32]
	xor	ecx, eax
	call	@__security_check_cookie@4
	mov	eax, OFFSET __ehfuncinfo$?erase@?$list@PAV?$Goal@VRaven_Bot@@@@V?$allocator@PAV?$Goal@VRaven_Bot@@@@@std@@@std@@QAE?AV?$_List_iterator@V?$_List_val@U?$_List_simple_types@PAV?$Goal@VRaven_Bot@@@@@std@@@std@@@2@V?$_List_const_iterator@V?$_List_val@U?$_List_simple_types@PAV?$Goal@VRaven_Bot@@@@@std@@@std@@@2@@Z
	jmp	___CxxFrameHandler3
text$x	ENDS
?erase@?$list@PAV?$Goal@VRaven_Bot@@@@V?$allocator@PAV?$Goal@VRaven_Bot@@@@@std@@@std@@QAE?AV?$_List_iterator@V?$_List_val@U?$_List_simple_types@PAV?$Goal@VRaven_Bot@@@@@std@@@std@@@2@V?$_List_const_iterator@V?$_List_val@U?$_List_simple_types@PAV?$Goal@VRaven_Bot@@@@@std@@@std@@@2@@Z ENDP ; std::list<Goal<Raven_Bot> *,std::allocator<Goal<Raven_Bot> *> >::erase
; Function compile flags: /Odtp /RTCsu
; File c:\program files (x86)\microsoft visual studio\2017\community\vc\tools\msvc\14.15.26726\include\list
;	COMDAT ?_Unlinknode@?$list@PAV?$Goal@VRaven_Bot@@@@V?$allocator@PAV?$Goal@VRaven_Bot@@@@@std@@@std@@QAEPAU?$_List_node@PAV?$Goal@VRaven_Bot@@@@PAX@2@V?$_List_const_iterator@V?$_List_val@U?$_List_simple_types@PAV?$Goal@VRaven_Bot@@@@@std@@@std@@@2@@Z
_TEXT	SEGMENT
tv151 = -28						; size = 4
$T2 = -24						; size = 4
__Pnode$ = -20						; size = 4
_this$ = -16						; size = 4
__$EHRec$ = -12						; size = 12
__Where$ = 8						; size = 12
?_Unlinknode@?$list@PAV?$Goal@VRaven_Bot@@@@V?$allocator@PAV?$Goal@VRaven_Bot@@@@@std@@@std@@QAEPAU?$_List_node@PAV?$Goal@VRaven_Bot@@@@PAX@2@V?$_List_const_iterator@V?$_List_val@U?$_List_simple_types@PAV?$Goal@VRaven_Bot@@@@@std@@@std@@@2@@Z PROC ; std::list<Goal<Raven_Bot> *,std::allocator<Goal<Raven_Bot> *> >::_Unlinknode, COMDAT
; _this$ = ecx

; 1322 : 		{	// unlink node at _Where from the list

	push	ebp
	mov	ebp, esp
	push	-1
	push	__ehhandler$?_Unlinknode@?$list@PAV?$Goal@VRaven_Bot@@@@V?$allocator@PAV?$Goal@VRaven_Bot@@@@@std@@@std@@QAEPAU?$_List_node@PAV?$Goal@VRaven_Bot@@@@PAX@2@V?$_List_const_iterator@V?$_List_val@U?$_List_simple_types@PAV?$Goal@VRaven_Bot@@@@@std@@@std@@@2@@Z
	mov	eax, DWORD PTR fs:0
	push	eax
	sub	esp, 16					; 00000010H
	push	esi
	mov	eax, -858993460				; ccccccccH
	mov	DWORD PTR [ebp-28], eax
	mov	DWORD PTR [ebp-24], eax
	mov	DWORD PTR [ebp-20], eax
	mov	DWORD PTR [ebp-16], eax
	mov	eax, DWORD PTR ___security_cookie
	xor	eax, ebp
	push	eax
	lea	eax, DWORD PTR __$EHRec$[ebp]
	mov	DWORD PTR fs:0, eax
	mov	DWORD PTR _this$[ebp], ecx
	mov	DWORD PTR __$EHRec$[ebp+8], 0
$LN4@Unlinknode:

; 1323 :  #if _ITERATOR_DEBUG_LEVEL == 2
; 1324 : 		_STL_VERIFY(_Where._Getcont() == _STD addressof(this->_Get_data()), "list erase iterator outside range");

	lea	ecx, DWORD PTR __Where$[ebp]
	call	?_Getcont@_Iterator_base12@std@@QBEPBU_Container_base12@2@XZ ; std::_Iterator_base12::_Getcont
	mov	esi, eax
	mov	ecx, DWORD PTR _this$[ebp]
	call	?_Get_data@?$_List_alloc@U?$_List_base_types@PAV?$Goal@VRaven_Bot@@@@V?$allocator@PAV?$Goal@VRaven_Bot@@@@@std@@@std@@@std@@QAEAAV?$_List_val@U?$_List_simple_types@PAV?$Goal@VRaven_Bot@@@@@std@@@2@XZ ; std::_List_alloc<std::_List_base_types<Goal<Raven_Bot> *,std::allocator<Goal<Raven_Bot> *> > >::_Get_data
	push	eax
	call	??$addressof@V?$_List_val@U?$_List_simple_types@PAV?$Goal@VRaven_Bot@@@@@std@@@std@@@std@@YAPAV?$_List_val@U?$_List_simple_types@PAV?$Goal@VRaven_Bot@@@@@std@@@0@AAV10@@Z ; std::addressof<std::_List_val<std::_List_simple_types<Goal<Raven_Bot> *> > >
	add	esp, 4
	cmp	esi, eax
	jne	SHORT $LN7@Unlinknode
	jmp	SHORT $LN2@Unlinknode
$LN7@Unlinknode:
	push	OFFSET ??_C@_0CC@KEJJOMBH@list?5erase?5iterator?5outside?5ran@
	push	OFFSET ??_C@_02DKCKIIND@?$CFs@
	push	0
	push	1324					; 0000052cH
	push	OFFSET ??_C@_0GF@CDIONFB@c?3?2program?5files?5?$CIx86?$CJ?2microsof@
	push	2
	call	__CrtDbgReport
	add	esp, 24					; 00000018H
	cmp	eax, 1
	jne	SHORT $LN11@Unlinknode
	int	3
$LN11@Unlinknode:
	push	0
	push	1324					; 0000052cH
	push	OFFSET ??_C@_1MK@MDLCPFJD@?$AAc?$AA?3?$AA?2?$AAp?$AAr?$AAo?$AAg?$AAr?$AAa?$AAm?$AA?5?$AAf?$AAi?$AAl?$AAe@
	push	OFFSET ??_C@_1NG@CFOJKHE@?$AAs?$AAt?$AAd?$AA?3?$AA?3?$AAl?$AAi?$AAs?$AAt?$AA?$DM?$AAc?$AAl?$AAa?$AAs?$AAs@
	push	OFFSET ??_C@_1EI@FHIDKIBN@?$AA?$CC?$AAl?$AAi?$AAs?$AAt?$AA?5?$AAe?$AAr?$AAa?$AAs?$AAe?$AA?5?$AAi?$AAt?$AAe@
	call	__invalid_parameter
	add	esp, 20					; 00000014H
	xor	ecx, ecx
	jne	SHORT $LN7@Unlinknode
$LN2@Unlinknode:
	xor	edx, edx
	jne	SHORT $LN4@Unlinknode

; 1325 : 		_Nodeptr _Pnode = _Where._Ptr;

	mov	eax, DWORD PTR __Where$[ebp+8]
	mov	DWORD PTR __Pnode$[ebp], eax

; 1326 : 		_Orphan_ptr(_Pnode);

	mov	ecx, DWORD PTR __Pnode$[ebp]
	push	ecx
	mov	ecx, DWORD PTR _this$[ebp]
	call	?_Orphan_ptr@?$list@PAV?$Goal@VRaven_Bot@@@@V?$allocator@PAV?$Goal@VRaven_Bot@@@@@std@@@std@@QAEXPAU?$_List_node@PAV?$Goal@VRaven_Bot@@@@PAX@2@@Z ; std::list<Goal<Raven_Bot> *,std::allocator<Goal<Raven_Bot> *> >::_Orphan_ptr

; 1327 :  #else /* _ITERATOR_DEBUG_LEVEL == 2 */
; 1328 : 		_Nodeptr _Pnode = _Where._Ptr;
; 1329 :  #endif /* _ITERATOR_DEBUG_LEVEL == 2 */
; 1330 : 
; 1331 : 		_Pnode->_Prev->_Next = _Pnode->_Next;

	mov	edx, DWORD PTR __Pnode$[ebp]
	mov	eax, DWORD PTR [edx+4]
	mov	ecx, DWORD PTR __Pnode$[ebp]
	mov	edx, DWORD PTR [ecx]
	mov	DWORD PTR [eax], edx

; 1332 : 		_Pnode->_Next->_Prev = _Pnode->_Prev;

	mov	eax, DWORD PTR __Pnode$[ebp]
	mov	ecx, DWORD PTR [eax]
	mov	edx, DWORD PTR __Pnode$[ebp]
	mov	eax, DWORD PTR [edx+4]
	mov	DWORD PTR [ecx+4], eax

; 1333 : 
; 1334 : 		--this->_Mysize();

	mov	ecx, DWORD PTR _this$[ebp]
	call	?_Mysize@?$_List_alloc@U?$_List_base_types@PAV?$Goal@VRaven_Bot@@@@V?$allocator@PAV?$Goal@VRaven_Bot@@@@@std@@@std@@@std@@QAEAAIXZ ; std::_List_alloc<std::_List_base_types<Goal<Raven_Bot> *,std::allocator<Goal<Raven_Bot> *> > >::_Mysize
	mov	DWORD PTR tv151[ebp], eax
	mov	ecx, DWORD PTR tv151[ebp]
	mov	edx, DWORD PTR [ecx]
	sub	edx, 1
	mov	eax, DWORD PTR tv151[ebp]
	mov	DWORD PTR [eax], edx

; 1335 : 		return (_Pnode);

	mov	ecx, DWORD PTR __Pnode$[ebp]
	mov	DWORD PTR $T2[ebp], ecx
	mov	DWORD PTR __$EHRec$[ebp+8], -1
	lea	ecx, DWORD PTR __Where$[ebp]
	call	??1?$_List_const_iterator@V?$_List_val@U?$_List_simple_types@PAV?$Goal@VRaven_Bot@@@@@std@@@std@@@std@@QAE@XZ
	mov	eax, DWORD PTR $T2[ebp]

; 1336 : 		}

	mov	ecx, DWORD PTR __$EHRec$[ebp]
	mov	DWORD PTR fs:0, ecx
	pop	ecx
	pop	esi
	add	esp, 28					; 0000001cH
	cmp	ebp, esp
	call	__RTC_CheckEsp
	mov	esp, ebp
	pop	ebp
	ret	12					; 0000000cH
_TEXT	ENDS
;	COMDAT text$x
text$x	SEGMENT
__unwindfunclet$?_Unlinknode@?$list@PAV?$Goal@VRaven_Bot@@@@V?$allocator@PAV?$Goal@VRaven_Bot@@@@@std@@@std@@QAEPAU?$_List_node@PAV?$Goal@VRaven_Bot@@@@PAX@2@V?$_List_const_iterator@V?$_List_val@U?$_List_simple_types@PAV?$Goal@VRaven_Bot@@@@@std@@@std@@@2@@Z$0:
	lea	ecx, DWORD PTR __Where$[ebp]
	jmp	??1?$_List_const_iterator@V?$_List_val@U?$_List_simple_types@PAV?$Goal@VRaven_Bot@@@@@std@@@std@@@std@@QAE@XZ
__ehhandler$?_Unlinknode@?$list@PAV?$Goal@VRaven_Bot@@@@V?$allocator@PAV?$Goal@VRaven_Bot@@@@@std@@@std@@QAEPAU?$_List_node@PAV?$Goal@VRaven_Bot@@@@PAX@2@V?$_List_const_iterator@V?$_List_val@U?$_List_simple_types@PAV?$Goal@VRaven_Bot@@@@@std@@@std@@@2@@Z:
	mov	edx, DWORD PTR [esp+8]
	lea	eax, DWORD PTR [edx+12]
	mov	ecx, DWORD PTR [edx-24]
	xor	ecx, eax
	call	@__security_check_cookie@4
	mov	eax, OFFSET __ehfuncinfo$?_Unlinknode@?$list@PAV?$Goal@VRaven_Bot@@@@V?$allocator@PAV?$Goal@VRaven_Bot@@@@@std@@@std@@QAEPAU?$_List_node@PAV?$Goal@VRaven_Bot@@@@PAX@2@V?$_List_const_iterator@V?$_List_val@U?$_List_simple_types@PAV?$Goal@VRaven_Bot@@@@@std@@@std@@@2@@Z
	jmp	___CxxFrameHandler3
text$x	ENDS
?_Unlinknode@?$list@PAV?$Goal@VRaven_Bot@@@@V?$allocator@PAV?$Goal@VRaven_Bot@@@@@std@@@std@@QAEPAU?$_List_node@PAV?$Goal@VRaven_Bot@@@@PAX@2@V?$_List_const_iterator@V?$_List_val@U?$_List_simple_types@PAV?$Goal@VRaven_Bot@@@@@std@@@std@@@2@@Z ENDP ; std::list<Goal<Raven_Bot> *,std::allocator<Goal<Raven_Bot> *> >::_Unlinknode
; Function compile flags: /Odtp /RTCsu
; File c:\program files (x86)\microsoft visual studio\2017\community\vc\tools\msvc\14.15.26726\include\list
;	COMDAT ?pop_front@?$list@PAV?$Goal@VRaven_Bot@@@@V?$allocator@PAV?$Goal@VRaven_Bot@@@@@std@@@std@@QAEXXZ
_TEXT	SEGMENT
tv95 = -56						; size = 4
tv92 = -52						; size = 4
tv129 = -48						; size = 4
$T2 = -44						; size = 12
$T3 = -32						; size = 12
$T4 = -20						; size = 4
_this$ = -16						; size = 4
__$EHRec$ = -12						; size = 12
?pop_front@?$list@PAV?$Goal@VRaven_Bot@@@@V?$allocator@PAV?$Goal@VRaven_Bot@@@@@std@@@std@@QAEXXZ PROC ; std::list<Goal<Raven_Bot> *,std::allocator<Goal<Raven_Bot> *> >::pop_front, COMDAT
; _this$ = ecx

; 1169 : 		{	// erase element at beginning

	push	ebp
	mov	ebp, esp
	push	-1
	push	__ehhandler$?pop_front@?$list@PAV?$Goal@VRaven_Bot@@@@V?$allocator@PAV?$Goal@VRaven_Bot@@@@@std@@@std@@QAEXXZ
	mov	eax, DWORD PTR fs:0
	push	eax
	sub	esp, 44					; 0000002cH
	push	esi
	push	edi
	push	ecx
	lea	edi, DWORD PTR [ebp-56]
	mov	ecx, 11					; 0000000bH
	mov	eax, -858993460				; ccccccccH
	rep stosd
	pop	ecx
	mov	eax, DWORD PTR ___security_cookie
	xor	eax, ebp
	push	eax
	lea	eax, DWORD PTR __$EHRec$[ebp]
	mov	DWORD PTR fs:0, eax
	mov	DWORD PTR _this$[ebp], ecx

; 1170 : 		erase(begin());

	sub	esp, 12					; 0000000cH
	mov	esi, esp
	mov	DWORD PTR $T4[ebp], esp
	lea	eax, DWORD PTR $T3[ebp]
	push	eax
	mov	ecx, DWORD PTR _this$[ebp]
	call	?begin@?$list@PAV?$Goal@VRaven_Bot@@@@V?$allocator@PAV?$Goal@VRaven_Bot@@@@@std@@@std@@QAE?AV?$_List_iterator@V?$_List_val@U?$_List_simple_types@PAV?$Goal@VRaven_Bot@@@@@std@@@std@@@2@XZ ; std::list<Goal<Raven_Bot> *,std::allocator<Goal<Raven_Bot> *> >::begin
	mov	DWORD PTR tv129[ebp], eax
	mov	ecx, DWORD PTR tv129[ebp]
	mov	DWORD PTR tv92[ebp], ecx
	mov	DWORD PTR __$EHRec$[ebp+8], 0
	mov	edx, DWORD PTR tv92[ebp]
	push	edx
	mov	ecx, esi
	call	??0?$_List_const_iterator@V?$_List_val@U?$_List_simple_types@PAV?$Goal@VRaven_Bot@@@@@std@@@std@@@std@@QAE@$$QAV01@@Z
	lea	eax, DWORD PTR $T2[ebp]
	push	eax
	mov	ecx, DWORD PTR _this$[ebp]
	call	?erase@?$list@PAV?$Goal@VRaven_Bot@@@@V?$allocator@PAV?$Goal@VRaven_Bot@@@@@std@@@std@@QAE?AV?$_List_iterator@V?$_List_val@U?$_List_simple_types@PAV?$Goal@VRaven_Bot@@@@@std@@@std@@@2@V?$_List_const_iterator@V?$_List_val@U?$_List_simple_types@PAV?$Goal@VRaven_Bot@@@@@std@@@std@@@2@@Z ; std::list<Goal<Raven_Bot> *,std::allocator<Goal<Raven_Bot> *> >::erase
	mov	DWORD PTR tv95[ebp], eax
	lea	ecx, DWORD PTR $T2[ebp]
	call	??1?$_List_iterator@V?$_List_val@U?$_List_simple_types@PAV?$Goal@VRaven_Bot@@@@@std@@@std@@@std@@QAE@XZ
	mov	DWORD PTR __$EHRec$[ebp+8], -1
	lea	ecx, DWORD PTR $T3[ebp]
	call	??1?$_List_iterator@V?$_List_val@U?$_List_simple_types@PAV?$Goal@VRaven_Bot@@@@@std@@@std@@@std@@QAE@XZ

; 1171 : 		}

	mov	ecx, DWORD PTR __$EHRec$[ebp]
	mov	DWORD PTR fs:0, ecx
	pop	ecx
	pop	edi
	pop	esi
	add	esp, 56					; 00000038H
	cmp	ebp, esp
	call	__RTC_CheckEsp
	mov	esp, ebp
	pop	ebp
	ret	0
_TEXT	ENDS
;	COMDAT text$x
text$x	SEGMENT
__unwindfunclet$?pop_front@?$list@PAV?$Goal@VRaven_Bot@@@@V?$allocator@PAV?$Goal@VRaven_Bot@@@@@std@@@std@@QAEXXZ$0:
	lea	ecx, DWORD PTR $T3[ebp]
	jmp	??1?$_List_iterator@V?$_List_val@U?$_List_simple_types@PAV?$Goal@VRaven_Bot@@@@@std@@@std@@@std@@QAE@XZ
__ehhandler$?pop_front@?$list@PAV?$Goal@VRaven_Bot@@@@V?$allocator@PAV?$Goal@VRaven_Bot@@@@@std@@@std@@QAEXXZ:
	mov	edx, DWORD PTR [esp+8]
	lea	eax, DWORD PTR [edx+12]
	mov	ecx, DWORD PTR [edx-56]
	xor	ecx, eax
	call	@__security_check_cookie@4
	mov	eax, OFFSET __ehfuncinfo$?pop_front@?$list@PAV?$Goal@VRaven_Bot@@@@V?$allocator@PAV?$Goal@VRaven_Bot@@@@@std@@@std@@QAEXXZ
	jmp	___CxxFrameHandler3
text$x	ENDS
?pop_front@?$list@PAV?$Goal@VRaven_Bot@@@@V?$allocator@PAV?$Goal@VRaven_Bot@@@@@std@@@std@@QAEXXZ ENDP ; std::list<Goal<Raven_Bot> *,std::allocator<Goal<Raven_Bot> *> >::pop_front
; Function compile flags: /Odtp /RTCsu
; File c:\program files (x86)\microsoft visual studio\2017\community\vc\tools\msvc\14.15.26726\include\list
;	COMDAT ?push_front@?$list@PAV?$Goal@VRaven_Bot@@@@V?$allocator@PAV?$Goal@VRaven_Bot@@@@@std@@@std@@QAEXABQAV?$Goal@VRaven_Bot@@@@@Z
_TEXT	SEGMENT
$T1 = -12						; size = 4
$T2 = -8						; size = 4
_this$ = -4						; size = 4
__Val$ = 8						; size = 4
?push_front@?$list@PAV?$Goal@VRaven_Bot@@@@V?$allocator@PAV?$Goal@VRaven_Bot@@@@@std@@@std@@QAEXABQAV?$Goal@VRaven_Bot@@@@@Z PROC ; std::list<Goal<Raven_Bot> *,std::allocator<Goal<Raven_Bot> *> >::push_front, COMDAT
; _this$ = ecx

; 1164 : 		{	// insert element at beginning

	push	ebp
	mov	ebp, esp
	sub	esp, 12					; 0000000cH
	mov	DWORD PTR [ebp-12], -858993460		; ccccccccH
	mov	DWORD PTR [ebp-8], -858993460		; ccccccccH
	mov	DWORD PTR [ebp-4], -858993460		; ccccccccH
	mov	DWORD PTR _this$[ebp], ecx

; 1165 : 		_Insert(_Unchecked_begin(), _Val);

	lea	eax, DWORD PTR $T1[ebp]
	push	eax
	mov	ecx, DWORD PTR _this$[ebp]
	call	?_Unchecked_begin@?$list@PAV?$Goal@VRaven_Bot@@@@V?$allocator@PAV?$Goal@VRaven_Bot@@@@@std@@@std@@QAE?AV?$_List_unchecked_iterator@V?$_List_val@U?$_List_simple_types@PAV?$Goal@VRaven_Bot@@@@@std@@@std@@@2@XZ ; std::list<Goal<Raven_Bot> *,std::allocator<Goal<Raven_Bot> *> >::_Unchecked_begin
	mov	ecx, DWORD PTR [eax]
	mov	DWORD PTR $T2[ebp], ecx
	mov	edx, DWORD PTR __Val$[ebp]
	push	edx
	mov	eax, DWORD PTR $T2[ebp]
	push	eax
	mov	ecx, DWORD PTR _this$[ebp]
	call	??$_Insert@ABQAV?$Goal@VRaven_Bot@@@@@?$list@PAV?$Goal@VRaven_Bot@@@@V?$allocator@PAV?$Goal@VRaven_Bot@@@@@std@@@std@@QAEXV?$_List_unchecked_const_iterator@V?$_List_val@U?$_List_simple_types@PAV?$Goal@VRaven_Bot@@@@@std@@@std@@U_Iterator_base0@2@@1@ABQAV?$Goal@VRaven_Bot@@@@@Z ; std::list<Goal<Raven_Bot> *,std::allocator<Goal<Raven_Bot> *> >::_Insert<Goal<Raven_Bot> * const &>

; 1166 : 		}

	add	esp, 12					; 0000000cH
	cmp	ebp, esp
	call	__RTC_CheckEsp
	mov	esp, ebp
	pop	ebp
	ret	4
?push_front@?$list@PAV?$Goal@VRaven_Bot@@@@V?$allocator@PAV?$Goal@VRaven_Bot@@@@@std@@@std@@QAEXABQAV?$Goal@VRaven_Bot@@@@@Z ENDP ; std::list<Goal<Raven_Bot> *,std::allocator<Goal<Raven_Bot> *> >::push_front
_TEXT	ENDS
; Function compile flags: /Odtp /RTCsu
; File c:\program files (x86)\microsoft visual studio\2017\community\vc\tools\msvc\14.15.26726\include\list
;	COMDAT ?front@?$list@PAV?$Goal@VRaven_Bot@@@@V?$allocator@PAV?$Goal@VRaven_Bot@@@@@std@@@std@@QBEABQAV?$Goal@VRaven_Bot@@@@XZ
_TEXT	SEGMENT
tv72 = -40						; size = 4
tv73 = -36						; size = 4
$T2 = -32						; size = 12
$T3 = -20						; size = 4
_this$ = -16						; size = 4
__$EHRec$ = -12						; size = 12
?front@?$list@PAV?$Goal@VRaven_Bot@@@@V?$allocator@PAV?$Goal@VRaven_Bot@@@@@std@@@std@@QBEABQAV?$Goal@VRaven_Bot@@@@XZ PROC ; std::list<Goal<Raven_Bot> *,std::allocator<Goal<Raven_Bot> *> >::front, COMDAT
; _this$ = ecx

; 1149 : 		{	// return first element of nonmutable sequence

	push	ebp
	mov	ebp, esp
	push	-1
	push	__ehhandler$?front@?$list@PAV?$Goal@VRaven_Bot@@@@V?$allocator@PAV?$Goal@VRaven_Bot@@@@@std@@@std@@QBEABQAV?$Goal@VRaven_Bot@@@@XZ
	mov	eax, DWORD PTR fs:0
	push	eax
	sub	esp, 28					; 0000001cH
	mov	eax, -858993460				; ccccccccH
	mov	DWORD PTR [ebp-40], eax
	mov	DWORD PTR [ebp-36], eax
	mov	DWORD PTR [ebp-32], eax
	mov	DWORD PTR [ebp-28], eax
	mov	DWORD PTR [ebp-24], eax
	mov	DWORD PTR [ebp-20], eax
	mov	DWORD PTR [ebp-16], eax
	mov	eax, DWORD PTR ___security_cookie
	xor	eax, ebp
	push	eax
	lea	eax, DWORD PTR __$EHRec$[ebp]
	mov	DWORD PTR fs:0, eax
	mov	DWORD PTR _this$[ebp], ecx

; 1150 : 		return (*begin());

	lea	eax, DWORD PTR $T2[ebp]
	push	eax
	mov	ecx, DWORD PTR _this$[ebp]
	call	?begin@?$list@PAV?$Goal@VRaven_Bot@@@@V?$allocator@PAV?$Goal@VRaven_Bot@@@@@std@@@std@@QBE?AV?$_List_const_iterator@V?$_List_val@U?$_List_simple_types@PAV?$Goal@VRaven_Bot@@@@@std@@@std@@@2@XZ ; std::list<Goal<Raven_Bot> *,std::allocator<Goal<Raven_Bot> *> >::begin
	mov	DWORD PTR tv73[ebp], eax
	mov	ecx, DWORD PTR tv73[ebp]
	mov	DWORD PTR tv72[ebp], ecx
	mov	DWORD PTR __$EHRec$[ebp+8], 0
	mov	ecx, DWORD PTR tv72[ebp]
	call	??D?$_List_const_iterator@V?$_List_val@U?$_List_simple_types@PAV?$Goal@VRaven_Bot@@@@@std@@@std@@@std@@QBEABQAV?$Goal@VRaven_Bot@@@@XZ ; std::_List_const_iterator<std::_List_val<std::_List_simple_types<Goal<Raven_Bot> *> > >::operator*
	mov	DWORD PTR $T3[ebp], eax
	mov	DWORD PTR __$EHRec$[ebp+8], -1
	lea	ecx, DWORD PTR $T2[ebp]
	call	??1?$_List_const_iterator@V?$_List_val@U?$_List_simple_types@PAV?$Goal@VRaven_Bot@@@@@std@@@std@@@std@@QAE@XZ
	mov	eax, DWORD PTR $T3[ebp]

; 1151 : 		}

	mov	ecx, DWORD PTR __$EHRec$[ebp]
	mov	DWORD PTR fs:0, ecx
	pop	ecx
	add	esp, 40					; 00000028H
	cmp	ebp, esp
	call	__RTC_CheckEsp
	mov	esp, ebp
	pop	ebp
	ret	0
_TEXT	ENDS
;	COMDAT text$x
text$x	SEGMENT
__unwindfunclet$?front@?$list@PAV?$Goal@VRaven_Bot@@@@V?$allocator@PAV?$Goal@VRaven_Bot@@@@@std@@@std@@QBEABQAV?$Goal@VRaven_Bot@@@@XZ$0:
	lea	ecx, DWORD PTR $T2[ebp]
	jmp	??1?$_List_const_iterator@V?$_List_val@U?$_List_simple_types@PAV?$Goal@VRaven_Bot@@@@@std@@@std@@@std@@QAE@XZ
__ehhandler$?front@?$list@PAV?$Goal@VRaven_Bot@@@@V?$allocator@PAV?$Goal@VRaven_Bot@@@@@std@@@std@@QBEABQAV?$Goal@VRaven_Bot@@@@XZ:
	mov	edx, DWORD PTR [esp+8]
	lea	eax, DWORD PTR [edx+12]
	mov	ecx, DWORD PTR [edx-32]
	xor	ecx, eax
	call	@__security_check_cookie@4
	mov	eax, OFFSET __ehfuncinfo$?front@?$list@PAV?$Goal@VRaven_Bot@@@@V?$allocator@PAV?$Goal@VRaven_Bot@@@@@std@@@std@@QBEABQAV?$Goal@VRaven_Bot@@@@XZ
	jmp	___CxxFrameHandler3
text$x	ENDS
?front@?$list@PAV?$Goal@VRaven_Bot@@@@V?$allocator@PAV?$Goal@VRaven_Bot@@@@@std@@@std@@QBEABQAV?$Goal@VRaven_Bot@@@@XZ ENDP ; std::list<Goal<Raven_Bot> *,std::allocator<Goal<Raven_Bot> *> >::front
; Function compile flags: /Odtp /RTCsu
; File c:\program files (x86)\microsoft visual studio\2017\community\vc\tools\msvc\14.15.26726\include\list
;	COMDAT ?front@?$list@PAV?$Goal@VRaven_Bot@@@@V?$allocator@PAV?$Goal@VRaven_Bot@@@@@std@@@std@@QAEAAPAV?$Goal@VRaven_Bot@@@@XZ
_TEXT	SEGMENT
tv72 = -40						; size = 4
tv73 = -36						; size = 4
$T2 = -32						; size = 12
$T3 = -20						; size = 4
_this$ = -16						; size = 4
__$EHRec$ = -12						; size = 12
?front@?$list@PAV?$Goal@VRaven_Bot@@@@V?$allocator@PAV?$Goal@VRaven_Bot@@@@@std@@@std@@QAEAAPAV?$Goal@VRaven_Bot@@@@XZ PROC ; std::list<Goal<Raven_Bot> *,std::allocator<Goal<Raven_Bot> *> >::front, COMDAT
; _this$ = ecx

; 1144 : 		{	// return first element of mutable sequence

	push	ebp
	mov	ebp, esp
	push	-1
	push	__ehhandler$?front@?$list@PAV?$Goal@VRaven_Bot@@@@V?$allocator@PAV?$Goal@VRaven_Bot@@@@@std@@@std@@QAEAAPAV?$Goal@VRaven_Bot@@@@XZ
	mov	eax, DWORD PTR fs:0
	push	eax
	sub	esp, 28					; 0000001cH
	mov	eax, -858993460				; ccccccccH
	mov	DWORD PTR [ebp-40], eax
	mov	DWORD PTR [ebp-36], eax
	mov	DWORD PTR [ebp-32], eax
	mov	DWORD PTR [ebp-28], eax
	mov	DWORD PTR [ebp-24], eax
	mov	DWORD PTR [ebp-20], eax
	mov	DWORD PTR [ebp-16], eax
	mov	eax, DWORD PTR ___security_cookie
	xor	eax, ebp
	push	eax
	lea	eax, DWORD PTR __$EHRec$[ebp]
	mov	DWORD PTR fs:0, eax
	mov	DWORD PTR _this$[ebp], ecx

; 1145 : 		return (*begin());

	lea	eax, DWORD PTR $T2[ebp]
	push	eax
	mov	ecx, DWORD PTR _this$[ebp]
	call	?begin@?$list@PAV?$Goal@VRaven_Bot@@@@V?$allocator@PAV?$Goal@VRaven_Bot@@@@@std@@@std@@QAE?AV?$_List_iterator@V?$_List_val@U?$_List_simple_types@PAV?$Goal@VRaven_Bot@@@@@std@@@std@@@2@XZ ; std::list<Goal<Raven_Bot> *,std::allocator<Goal<Raven_Bot> *> >::begin
	mov	DWORD PTR tv73[ebp], eax
	mov	ecx, DWORD PTR tv73[ebp]
	mov	DWORD PTR tv72[ebp], ecx
	mov	DWORD PTR __$EHRec$[ebp+8], 0
	mov	ecx, DWORD PTR tv72[ebp]
	call	??D?$_List_iterator@V?$_List_val@U?$_List_simple_types@PAV?$Goal@VRaven_Bot@@@@@std@@@std@@@std@@QBEAAPAV?$Goal@VRaven_Bot@@@@XZ ; std::_List_iterator<std::_List_val<std::_List_simple_types<Goal<Raven_Bot> *> > >::operator*
	mov	DWORD PTR $T3[ebp], eax
	mov	DWORD PTR __$EHRec$[ebp+8], -1
	lea	ecx, DWORD PTR $T2[ebp]
	call	??1?$_List_iterator@V?$_List_val@U?$_List_simple_types@PAV?$Goal@VRaven_Bot@@@@@std@@@std@@@std@@QAE@XZ
	mov	eax, DWORD PTR $T3[ebp]

; 1146 : 		}

	mov	ecx, DWORD PTR __$EHRec$[ebp]
	mov	DWORD PTR fs:0, ecx
	pop	ecx
	add	esp, 40					; 00000028H
	cmp	ebp, esp
	call	__RTC_CheckEsp
	mov	esp, ebp
	pop	ebp
	ret	0
_TEXT	ENDS
;	COMDAT text$x
text$x	SEGMENT
__unwindfunclet$?front@?$list@PAV?$Goal@VRaven_Bot@@@@V?$allocator@PAV?$Goal@VRaven_Bot@@@@@std@@@std@@QAEAAPAV?$Goal@VRaven_Bot@@@@XZ$0:
	lea	ecx, DWORD PTR $T2[ebp]
	jmp	??1?$_List_iterator@V?$_List_val@U?$_List_simple_types@PAV?$Goal@VRaven_Bot@@@@@std@@@std@@@std@@QAE@XZ
__ehhandler$?front@?$list@PAV?$Goal@VRaven_Bot@@@@V?$allocator@PAV?$Goal@VRaven_Bot@@@@@std@@@std@@QAEAAPAV?$Goal@VRaven_Bot@@@@XZ:
	mov	edx, DWORD PTR [esp+8]
	lea	eax, DWORD PTR [edx+12]
	mov	ecx, DWORD PTR [edx-32]
	xor	ecx, eax
	call	@__security_check_cookie@4
	mov	eax, OFFSET __ehfuncinfo$?front@?$list@PAV?$Goal@VRaven_Bot@@@@V?$allocator@PAV?$Goal@VRaven_Bot@@@@@std@@@std@@QAEAAPAV?$Goal@VRaven_Bot@@@@XZ
	jmp	___CxxFrameHandler3
text$x	ENDS
?front@?$list@PAV?$Goal@VRaven_Bot@@@@V?$allocator@PAV?$Goal@VRaven_Bot@@@@@std@@@std@@QAEAAPAV?$Goal@VRaven_Bot@@@@XZ ENDP ; std::list<Goal<Raven_Bot> *,std::allocator<Goal<Raven_Bot> *> >::front
; Function compile flags: /Odtp /RTCsu
; File c:\program files (x86)\microsoft visual studio\2017\community\vc\tools\msvc\14.15.26726\include\list
;	COMDAT ?empty@?$list@PAV?$Goal@VRaven_Bot@@@@V?$allocator@PAV?$Goal@VRaven_Bot@@@@@std@@@std@@QBE_NXZ
_TEXT	SEGMENT
tv71 = -8						; size = 4
_this$ = -4						; size = 4
?empty@?$list@PAV?$Goal@VRaven_Bot@@@@V?$allocator@PAV?$Goal@VRaven_Bot@@@@@std@@@std@@QBE_NXZ PROC ; std::list<Goal<Raven_Bot> *,std::allocator<Goal<Raven_Bot> *> >::empty, COMDAT
; _this$ = ecx

; 1134 : 		{	// test if sequence is empty

	push	ebp
	mov	ebp, esp
	sub	esp, 8
	mov	DWORD PTR [ebp-8], -858993460		; ccccccccH
	mov	DWORD PTR [ebp-4], -858993460		; ccccccccH
	mov	DWORD PTR _this$[ebp], ecx

; 1135 : 		return (this->_Mysize() == 0);

	mov	ecx, DWORD PTR _this$[ebp]
	call	?_Mysize@?$_List_alloc@U?$_List_base_types@PAV?$Goal@VRaven_Bot@@@@V?$allocator@PAV?$Goal@VRaven_Bot@@@@@std@@@std@@@std@@QBEABIXZ ; std::_List_alloc<std::_List_base_types<Goal<Raven_Bot> *,std::allocator<Goal<Raven_Bot> *> > >::_Mysize
	cmp	DWORD PTR [eax], 0
	jne	SHORT $LN3@empty
	mov	DWORD PTR tv71[ebp], 1
	jmp	SHORT $LN4@empty
$LN3@empty:
	mov	DWORD PTR tv71[ebp], 0
$LN4@empty:
	mov	al, BYTE PTR tv71[ebp]

; 1136 : 		}

	add	esp, 8
	cmp	ebp, esp
	call	__RTC_CheckEsp
	mov	esp, ebp
	pop	ebp
	ret	0
?empty@?$list@PAV?$Goal@VRaven_Bot@@@@V?$allocator@PAV?$Goal@VRaven_Bot@@@@@std@@@std@@QBE_NXZ ENDP ; std::list<Goal<Raven_Bot> *,std::allocator<Goal<Raven_Bot> *> >::empty
_TEXT	ENDS
; Function compile flags: /Odtp /RTCsu
; File c:\program files (x86)\microsoft visual studio\2017\community\vc\tools\msvc\14.15.26726\include\list
;	COMDAT ?max_size@?$list@PAV?$Goal@VRaven_Bot@@@@V?$allocator@PAV?$Goal@VRaven_Bot@@@@@std@@@std@@QBEIXZ
_TEXT	SEGMENT
_this$ = -4						; size = 4
?max_size@?$list@PAV?$Goal@VRaven_Bot@@@@V?$allocator@PAV?$Goal@VRaven_Bot@@@@@std@@@std@@QBEIXZ PROC ; std::list<Goal<Raven_Bot> *,std::allocator<Goal<Raven_Bot> *> >::max_size, COMDAT
; _this$ = ecx

; 1129 : 		{	// return maximum possible length of sequence

	push	ebp
	mov	ebp, esp
	push	ecx
	mov	DWORD PTR [ebp-4], -858993460		; ccccccccH
	mov	DWORD PTR _this$[ebp], ecx

; 1130 : 		return (_Alnode_traits::max_size(this->_Getal()));

	mov	ecx, DWORD PTR _this$[ebp]
	call	?_Getal@?$_List_alloc@U?$_List_base_types@PAV?$Goal@VRaven_Bot@@@@V?$allocator@PAV?$Goal@VRaven_Bot@@@@@std@@@std@@@std@@QBEABV?$allocator@U?$_List_node@PAV?$Goal@VRaven_Bot@@@@PAX@std@@@2@XZ ; std::_List_alloc<std::_List_base_types<Goal<Raven_Bot> *,std::allocator<Goal<Raven_Bot> *> > >::_Getal
	push	eax
	call	?max_size@?$_Default_allocator_traits@V?$allocator@U?$_List_node@PAV?$Goal@VRaven_Bot@@@@PAX@std@@@std@@@std@@SAIABV?$allocator@U?$_List_node@PAV?$Goal@VRaven_Bot@@@@PAX@std@@@2@@Z ; std::_Default_allocator_traits<std::allocator<std::_List_node<Goal<Raven_Bot> *,void *> > >::max_size
	add	esp, 4

; 1131 : 		}

	add	esp, 4
	cmp	ebp, esp
	call	__RTC_CheckEsp
	mov	esp, ebp
	pop	ebp
	ret	0
?max_size@?$list@PAV?$Goal@VRaven_Bot@@@@V?$allocator@PAV?$Goal@VRaven_Bot@@@@@std@@@std@@QBEIXZ ENDP ; std::list<Goal<Raven_Bot> *,std::allocator<Goal<Raven_Bot> *> >::max_size
_TEXT	ENDS
; Function compile flags: /Odtp /RTCsu
; File c:\program files (x86)\microsoft visual studio\2017\community\vc\tools\msvc\14.15.26726\include\list
;	COMDAT ?size@?$list@PAV?$Goal@VRaven_Bot@@@@V?$allocator@PAV?$Goal@VRaven_Bot@@@@@std@@@std@@QBEIXZ
_TEXT	SEGMENT
_this$ = -4						; size = 4
?size@?$list@PAV?$Goal@VRaven_Bot@@@@V?$allocator@PAV?$Goal@VRaven_Bot@@@@@std@@@std@@QBEIXZ PROC ; std::list<Goal<Raven_Bot> *,std::allocator<Goal<Raven_Bot> *> >::size, COMDAT
; _this$ = ecx

; 1124 : 		{	// return length of sequence

	push	ebp
	mov	ebp, esp
	push	ecx
	mov	DWORD PTR [ebp-4], -858993460		; ccccccccH
	mov	DWORD PTR _this$[ebp], ecx

; 1125 : 		return (this->_Mysize());

	mov	ecx, DWORD PTR _this$[ebp]
	call	?_Mysize@?$_List_alloc@U?$_List_base_types@PAV?$Goal@VRaven_Bot@@@@V?$allocator@PAV?$Goal@VRaven_Bot@@@@@std@@@std@@@std@@QBEABIXZ ; std::_List_alloc<std::_List_base_types<Goal<Raven_Bot> *,std::allocator<Goal<Raven_Bot> *> > >::_Mysize
	mov	eax, DWORD PTR [eax]

; 1126 : 		}

	add	esp, 4
	cmp	ebp, esp
	call	__RTC_CheckEsp
	mov	esp, ebp
	pop	ebp
	ret	0
?size@?$list@PAV?$Goal@VRaven_Bot@@@@V?$allocator@PAV?$Goal@VRaven_Bot@@@@@std@@@std@@QBEIXZ ENDP ; std::list<Goal<Raven_Bot> *,std::allocator<Goal<Raven_Bot> *> >::size
_TEXT	ENDS
; Function compile flags: /Odtp /RTCsu
; File c:\program files (x86)\microsoft visual studio\2017\community\vc\tools\msvc\14.15.26726\include\list
;	COMDAT ?rend@?$list@PAV?$Goal@VRaven_Bot@@@@V?$allocator@PAV?$Goal@VRaven_Bot@@@@@std@@@std@@QBE?AV?$reverse_iterator@V?$_List_const_iterator@V?$_List_val@U?$_List_simple_types@PAV?$Goal@VRaven_Bot@@@@@std@@@std@@@std@@@2@XZ
_TEXT	SEGMENT
$T2 = -20						; size = 4
_this$ = -16						; size = 4
__$EHRec$ = -12						; size = 12
___$ReturnUdt$ = 8					; size = 4
?rend@?$list@PAV?$Goal@VRaven_Bot@@@@V?$allocator@PAV?$Goal@VRaven_Bot@@@@@std@@@std@@QBE?AV?$reverse_iterator@V?$_List_const_iterator@V?$_List_val@U?$_List_simple_types@PAV?$Goal@VRaven_Bot@@@@@std@@@std@@@std@@@2@XZ PROC ; std::list<Goal<Raven_Bot> *,std::allocator<Goal<Raven_Bot> *> >::rend, COMDAT
; _this$ = ecx

; 1071 : 		{	// return iterator for end of reversed nonmutable sequence

	push	ebp
	mov	ebp, esp
	push	-1
	push	__ehhandler$?rend@?$list@PAV?$Goal@VRaven_Bot@@@@V?$allocator@PAV?$Goal@VRaven_Bot@@@@@std@@@std@@QBE?AV?$reverse_iterator@V?$_List_const_iterator@V?$_List_val@U?$_List_simple_types@PAV?$Goal@VRaven_Bot@@@@@std@@@std@@@std@@@2@XZ
	mov	eax, DWORD PTR fs:0
	push	eax
	sub	esp, 8
	mov	DWORD PTR [ebp-20], -858993460		; ccccccccH
	mov	DWORD PTR [ebp-16], -858993460		; ccccccccH
	mov	eax, DWORD PTR ___security_cookie
	xor	eax, ebp
	push	eax
	lea	eax, DWORD PTR __$EHRec$[ebp]
	mov	DWORD PTR fs:0, eax
	mov	DWORD PTR _this$[ebp], ecx

; 1072 : 		return (const_reverse_iterator(begin()));

	sub	esp, 12					; 0000000cH
	mov	eax, esp
	mov	DWORD PTR $T2[ebp], esp
	push	eax
	mov	ecx, DWORD PTR _this$[ebp]
	call	?begin@?$list@PAV?$Goal@VRaven_Bot@@@@V?$allocator@PAV?$Goal@VRaven_Bot@@@@@std@@@std@@QBE?AV?$_List_const_iterator@V?$_List_val@U?$_List_simple_types@PAV?$Goal@VRaven_Bot@@@@@std@@@std@@@2@XZ ; std::list<Goal<Raven_Bot> *,std::allocator<Goal<Raven_Bot> *> >::begin
	mov	ecx, DWORD PTR ___$ReturnUdt$[ebp]
	call	??0?$reverse_iterator@V?$_List_const_iterator@V?$_List_val@U?$_List_simple_types@PAV?$Goal@VRaven_Bot@@@@@std@@@std@@@std@@@std@@QAE@V?$_List_const_iterator@V?$_List_val@U?$_List_simple_types@PAV?$Goal@VRaven_Bot@@@@@std@@@std@@@1@@Z ; std::reverse_iterator<std::_List_const_iterator<std::_List_val<std::_List_simple_types<Goal<Raven_Bot> *> > > >::reverse_iterator<std::_List_const_iterator<std::_List_val<std::_List_simple_types<Goal<Raven_Bot> *> > > >
	mov	eax, DWORD PTR ___$ReturnUdt$[ebp]

; 1073 : 		}

	mov	ecx, DWORD PTR __$EHRec$[ebp]
	mov	DWORD PTR fs:0, ecx
	pop	ecx
	add	esp, 20					; 00000014H
	cmp	ebp, esp
	call	__RTC_CheckEsp
	mov	esp, ebp
	pop	ebp
	ret	4
_TEXT	ENDS
;	COMDAT text$x
text$x	SEGMENT
__ehhandler$?rend@?$list@PAV?$Goal@VRaven_Bot@@@@V?$allocator@PAV?$Goal@VRaven_Bot@@@@@std@@@std@@QBE?AV?$reverse_iterator@V?$_List_const_iterator@V?$_List_val@U?$_List_simple_types@PAV?$Goal@VRaven_Bot@@@@@std@@@std@@@std@@@2@XZ:
	mov	edx, DWORD PTR [esp+8]
	lea	eax, DWORD PTR [edx+12]
	mov	ecx, DWORD PTR [edx-12]
	xor	ecx, eax
	call	@__security_check_cookie@4
	mov	eax, OFFSET __ehfuncinfo$?rend@?$list@PAV?$Goal@VRaven_Bot@@@@V?$allocator@PAV?$Goal@VRaven_Bot@@@@@std@@@std@@QBE?AV?$reverse_iterator@V?$_List_const_iterator@V?$_List_val@U?$_List_simple_types@PAV?$Goal@VRaven_Bot@@@@@std@@@std@@@std@@@2@XZ
	jmp	___CxxFrameHandler3
text$x	ENDS
?rend@?$list@PAV?$Goal@VRaven_Bot@@@@V?$allocator@PAV?$Goal@VRaven_Bot@@@@@std@@@std@@QBE?AV?$reverse_iterator@V?$_List_const_iterator@V?$_List_val@U?$_List_simple_types@PAV?$Goal@VRaven_Bot@@@@@std@@@std@@@std@@@2@XZ ENDP ; std::list<Goal<Raven_Bot> *,std::allocator<Goal<Raven_Bot> *> >::rend
; Function compile flags: /Odtp /RTCsu
; File c:\program files (x86)\microsoft visual studio\2017\community\vc\tools\msvc\14.15.26726\include\list
;	COMDAT ?rbegin@?$list@PAV?$Goal@VRaven_Bot@@@@V?$allocator@PAV?$Goal@VRaven_Bot@@@@@std@@@std@@QBE?AV?$reverse_iterator@V?$_List_const_iterator@V?$_List_val@U?$_List_simple_types@PAV?$Goal@VRaven_Bot@@@@@std@@@std@@@std@@@2@XZ
_TEXT	SEGMENT
$T2 = -20						; size = 4
_this$ = -16						; size = 4
__$EHRec$ = -12						; size = 12
___$ReturnUdt$ = 8					; size = 4
?rbegin@?$list@PAV?$Goal@VRaven_Bot@@@@V?$allocator@PAV?$Goal@VRaven_Bot@@@@@std@@@std@@QBE?AV?$reverse_iterator@V?$_List_const_iterator@V?$_List_val@U?$_List_simple_types@PAV?$Goal@VRaven_Bot@@@@@std@@@std@@@std@@@2@XZ PROC ; std::list<Goal<Raven_Bot> *,std::allocator<Goal<Raven_Bot> *> >::rbegin, COMDAT
; _this$ = ecx

; 1061 : 		{	// return iterator for beginning of reversed nonmutable sequence

	push	ebp
	mov	ebp, esp
	push	-1
	push	__ehhandler$?rbegin@?$list@PAV?$Goal@VRaven_Bot@@@@V?$allocator@PAV?$Goal@VRaven_Bot@@@@@std@@@std@@QBE?AV?$reverse_iterator@V?$_List_const_iterator@V?$_List_val@U?$_List_simple_types@PAV?$Goal@VRaven_Bot@@@@@std@@@std@@@std@@@2@XZ
	mov	eax, DWORD PTR fs:0
	push	eax
	sub	esp, 8
	mov	DWORD PTR [ebp-20], -858993460		; ccccccccH
	mov	DWORD PTR [ebp-16], -858993460		; ccccccccH
	mov	eax, DWORD PTR ___security_cookie
	xor	eax, ebp
	push	eax
	lea	eax, DWORD PTR __$EHRec$[ebp]
	mov	DWORD PTR fs:0, eax
	mov	DWORD PTR _this$[ebp], ecx

; 1062 : 		return (const_reverse_iterator(end()));

	sub	esp, 12					; 0000000cH
	mov	eax, esp
	mov	DWORD PTR $T2[ebp], esp
	push	eax
	mov	ecx, DWORD PTR _this$[ebp]
	call	?end@?$list@PAV?$Goal@VRaven_Bot@@@@V?$allocator@PAV?$Goal@VRaven_Bot@@@@@std@@@std@@QBE?AV?$_List_const_iterator@V?$_List_val@U?$_List_simple_types@PAV?$Goal@VRaven_Bot@@@@@std@@@std@@@2@XZ ; std::list<Goal<Raven_Bot> *,std::allocator<Goal<Raven_Bot> *> >::end
	mov	ecx, DWORD PTR ___$ReturnUdt$[ebp]
	call	??0?$reverse_iterator@V?$_List_const_iterator@V?$_List_val@U?$_List_simple_types@PAV?$Goal@VRaven_Bot@@@@@std@@@std@@@std@@@std@@QAE@V?$_List_const_iterator@V?$_List_val@U?$_List_simple_types@PAV?$Goal@VRaven_Bot@@@@@std@@@std@@@1@@Z ; std::reverse_iterator<std::_List_const_iterator<std::_List_val<std::_List_simple_types<Goal<Raven_Bot> *> > > >::reverse_iterator<std::_List_const_iterator<std::_List_val<std::_List_simple_types<Goal<Raven_Bot> *> > > >
	mov	eax, DWORD PTR ___$ReturnUdt$[ebp]

; 1063 : 		}

	mov	ecx, DWORD PTR __$EHRec$[ebp]
	mov	DWORD PTR fs:0, ecx
	pop	ecx
	add	esp, 20					; 00000014H
	cmp	ebp, esp
	call	__RTC_CheckEsp
	mov	esp, ebp
	pop	ebp
	ret	4
_TEXT	ENDS
;	COMDAT text$x
text$x	SEGMENT
__ehhandler$?rbegin@?$list@PAV?$Goal@VRaven_Bot@@@@V?$allocator@PAV?$Goal@VRaven_Bot@@@@@std@@@std@@QBE?AV?$reverse_iterator@V?$_List_const_iterator@V?$_List_val@U?$_List_simple_types@PAV?$Goal@VRaven_Bot@@@@@std@@@std@@@std@@@2@XZ:
	mov	edx, DWORD PTR [esp+8]
	lea	eax, DWORD PTR [edx+12]
	mov	ecx, DWORD PTR [edx-12]
	xor	ecx, eax
	call	@__security_check_cookie@4
	mov	eax, OFFSET __ehfuncinfo$?rbegin@?$list@PAV?$Goal@VRaven_Bot@@@@V?$allocator@PAV?$Goal@VRaven_Bot@@@@@std@@@std@@QBE?AV?$reverse_iterator@V?$_List_const_iterator@V?$_List_val@U?$_List_simple_types@PAV?$Goal@VRaven_Bot@@@@@std@@@std@@@std@@@2@XZ
	jmp	___CxxFrameHandler3
text$x	ENDS
?rbegin@?$list@PAV?$Goal@VRaven_Bot@@@@V?$allocator@PAV?$Goal@VRaven_Bot@@@@@std@@@std@@QBE?AV?$reverse_iterator@V?$_List_const_iterator@V?$_List_val@U?$_List_simple_types@PAV?$Goal@VRaven_Bot@@@@@std@@@std@@@std@@@2@XZ ENDP ; std::list<Goal<Raven_Bot> *,std::allocator<Goal<Raven_Bot> *> >::rbegin
; Function compile flags: /Odtp /RTCsu
; File c:\program files (x86)\microsoft visual studio\2017\community\vc\tools\msvc\14.15.26726\include\list
;	COMDAT ?_Make_iter@?$list@PAV?$Goal@VRaven_Bot@@@@V?$allocator@PAV?$Goal@VRaven_Bot@@@@@std@@@std@@QBE?AV?$_List_iterator@V?$_List_val@U?$_List_simple_types@PAV?$Goal@VRaven_Bot@@@@@std@@@std@@@2@V?$_List_const_iterator@V?$_List_val@U?$_List_simple_types@PAV?$Goal@VRaven_Bot@@@@@std@@@std@@@2@@Z
_TEXT	SEGMENT
_this$ = -16						; size = 4
__$EHRec$ = -12						; size = 12
___$ReturnUdt$ = 8					; size = 4
__Where$ = 12						; size = 12
?_Make_iter@?$list@PAV?$Goal@VRaven_Bot@@@@V?$allocator@PAV?$Goal@VRaven_Bot@@@@@std@@@std@@QBE?AV?$_List_iterator@V?$_List_val@U?$_List_simple_types@PAV?$Goal@VRaven_Bot@@@@@std@@@std@@@2@V?$_List_const_iterator@V?$_List_val@U?$_List_simple_types@PAV?$Goal@VRaven_Bot@@@@@std@@@std@@@2@@Z PROC ; std::list<Goal<Raven_Bot> *,std::allocator<Goal<Raven_Bot> *> >::_Make_iter, COMDAT
; _this$ = ecx

; 1046 : 		{	// make iterator from const_iterator

	push	ebp
	mov	ebp, esp
	push	-1
	push	__ehhandler$?_Make_iter@?$list@PAV?$Goal@VRaven_Bot@@@@V?$allocator@PAV?$Goal@VRaven_Bot@@@@@std@@@std@@QBE?AV?$_List_iterator@V?$_List_val@U?$_List_simple_types@PAV?$Goal@VRaven_Bot@@@@@std@@@std@@@2@V?$_List_const_iterator@V?$_List_val@U?$_List_simple_types@PAV?$Goal@VRaven_Bot@@@@@std@@@std@@@2@@Z
	mov	eax, DWORD PTR fs:0
	push	eax
	push	ecx
	mov	DWORD PTR [ebp-16], -858993460		; ccccccccH
	mov	eax, DWORD PTR ___security_cookie
	xor	eax, ebp
	push	eax
	lea	eax, DWORD PTR __$EHRec$[ebp]
	mov	DWORD PTR fs:0, eax
	mov	DWORD PTR _this$[ebp], ecx

; 1047 : 		return (iterator(_Where._Ptr, _STD addressof(this->_Get_data())));

	mov	ecx, DWORD PTR _this$[ebp]
	call	?_Get_data@?$_List_alloc@U?$_List_base_types@PAV?$Goal@VRaven_Bot@@@@V?$allocator@PAV?$Goal@VRaven_Bot@@@@@std@@@std@@@std@@QBEABV?$_List_val@U?$_List_simple_types@PAV?$Goal@VRaven_Bot@@@@@std@@@2@XZ ; std::_List_alloc<std::_List_base_types<Goal<Raven_Bot> *,std::allocator<Goal<Raven_Bot> *> > >::_Get_data
	push	eax
	call	??$addressof@$$CBV?$_List_val@U?$_List_simple_types@PAV?$Goal@VRaven_Bot@@@@@std@@@std@@@std@@YAPBV?$_List_val@U?$_List_simple_types@PAV?$Goal@VRaven_Bot@@@@@std@@@0@ABV10@@Z ; std::addressof<std::_List_val<std::_List_simple_types<Goal<Raven_Bot> *> > const >
	add	esp, 4
	push	eax
	mov	eax, DWORD PTR __Where$[ebp+8]
	push	eax
	mov	ecx, DWORD PTR ___$ReturnUdt$[ebp]
	call	??0?$_List_iterator@V?$_List_val@U?$_List_simple_types@PAV?$Goal@VRaven_Bot@@@@@std@@@std@@@std@@QAE@PAU?$_List_node@PAV?$Goal@VRaven_Bot@@@@PAX@1@PBV?$_List_val@U?$_List_simple_types@PAV?$Goal@VRaven_Bot@@@@@std@@@1@@Z ; std::_List_iterator<std::_List_val<std::_List_simple_types<Goal<Raven_Bot> *> > >::_List_iterator<std::_List_val<std::_List_simple_types<Goal<Raven_Bot> *> > >
	lea	ecx, DWORD PTR __Where$[ebp]
	call	??1?$_List_const_iterator@V?$_List_val@U?$_List_simple_types@PAV?$Goal@VRaven_Bot@@@@@std@@@std@@@std@@QAE@XZ
	mov	eax, DWORD PTR ___$ReturnUdt$[ebp]

; 1048 : 		}

	mov	ecx, DWORD PTR __$EHRec$[ebp]
	mov	DWORD PTR fs:0, ecx
	pop	ecx
	add	esp, 16					; 00000010H
	cmp	ebp, esp
	call	__RTC_CheckEsp
	mov	esp, ebp
	pop	ebp
	ret	16					; 00000010H
_TEXT	ENDS
;	COMDAT text$x
text$x	SEGMENT
__ehhandler$?_Make_iter@?$list@PAV?$Goal@VRaven_Bot@@@@V?$allocator@PAV?$Goal@VRaven_Bot@@@@@std@@@std@@QBE?AV?$_List_iterator@V?$_List_val@U?$_List_simple_types@PAV?$Goal@VRaven_Bot@@@@@std@@@std@@@2@V?$_List_const_iterator@V?$_List_val@U?$_List_simple_types@PAV?$Goal@VRaven_Bot@@@@@std@@@std@@@2@@Z:
	mov	edx, DWORD PTR [esp+8]
	lea	eax, DWORD PTR [edx+12]
	mov	ecx, DWORD PTR [edx-8]
	xor	ecx, eax
	call	@__security_check_cookie@4
	mov	eax, OFFSET __ehfuncinfo$?_Make_iter@?$list@PAV?$Goal@VRaven_Bot@@@@V?$allocator@PAV?$Goal@VRaven_Bot@@@@@std@@@std@@QBE?AV?$_List_iterator@V?$_List_val@U?$_List_simple_types@PAV?$Goal@VRaven_Bot@@@@@std@@@std@@@2@V?$_List_const_iterator@V?$_List_val@U?$_List_simple_types@PAV?$Goal@VRaven_Bot@@@@@std@@@std@@@2@@Z
	jmp	___CxxFrameHandler3
text$x	ENDS
?_Make_iter@?$list@PAV?$Goal@VRaven_Bot@@@@V?$allocator@PAV?$Goal@VRaven_Bot@@@@@std@@@std@@QBE?AV?$_List_iterator@V?$_List_val@U?$_List_simple_types@PAV?$Goal@VRaven_Bot@@@@@std@@@std@@@2@V?$_List_const_iterator@V?$_List_val@U?$_List_simple_types@PAV?$Goal@VRaven_Bot@@@@@std@@@std@@@2@@Z ENDP ; std::list<Goal<Raven_Bot> *,std::allocator<Goal<Raven_Bot> *> >::_Make_iter
; Function compile flags: /Odtp /RTCsu
; File c:\program files (x86)\microsoft visual studio\2017\community\vc\tools\msvc\14.15.26726\include\list
;	COMDAT ?_Unchecked_end@?$list@PAV?$Goal@VRaven_Bot@@@@V?$allocator@PAV?$Goal@VRaven_Bot@@@@@std@@@std@@QAE?AV?$_List_unchecked_iterator@V?$_List_val@U?$_List_simple_types@PAV?$Goal@VRaven_Bot@@@@@std@@@std@@@2@XZ
_TEXT	SEGMENT
_this$ = -4						; size = 4
___$ReturnUdt$ = 8					; size = 4
?_Unchecked_end@?$list@PAV?$Goal@VRaven_Bot@@@@V?$allocator@PAV?$Goal@VRaven_Bot@@@@@std@@@std@@QAE?AV?$_List_unchecked_iterator@V?$_List_val@U?$_List_simple_types@PAV?$Goal@VRaven_Bot@@@@@std@@@std@@@2@XZ PROC ; std::list<Goal<Raven_Bot> *,std::allocator<Goal<Raven_Bot> *> >::_Unchecked_end, COMDAT
; _this$ = ecx

; 1036 : 		{	// return unchecked iterator for end of mutable sequence

	push	ebp
	mov	ebp, esp
	push	ecx
	mov	DWORD PTR [ebp-4], -858993460		; ccccccccH
	mov	DWORD PTR _this$[ebp], ecx

; 1037 : 		return (_Unchecked_iterator(this->_Myhead(), nullptr));

	push	0
	mov	ecx, DWORD PTR _this$[ebp]
	call	?_Myhead@?$_List_alloc@U?$_List_base_types@PAV?$Goal@VRaven_Bot@@@@V?$allocator@PAV?$Goal@VRaven_Bot@@@@@std@@@std@@@std@@QAEAAPAU?$_List_node@PAV?$Goal@VRaven_Bot@@@@PAX@2@XZ ; std::_List_alloc<std::_List_base_types<Goal<Raven_Bot> *,std::allocator<Goal<Raven_Bot> *> > >::_Myhead
	mov	eax, DWORD PTR [eax]
	push	eax
	mov	ecx, DWORD PTR ___$ReturnUdt$[ebp]
	call	??0?$_List_unchecked_iterator@V?$_List_val@U?$_List_simple_types@PAV?$Goal@VRaven_Bot@@@@@std@@@std@@@std@@QAE@PAU?$_List_node@PAV?$Goal@VRaven_Bot@@@@PAX@1@PBV?$_List_val@U?$_List_simple_types@PAV?$Goal@VRaven_Bot@@@@@std@@@1@@Z ; std::_List_unchecked_iterator<std::_List_val<std::_List_simple_types<Goal<Raven_Bot> *> > >::_List_unchecked_iterator<std::_List_val<std::_List_simple_types<Goal<Raven_Bot> *> > >
	mov	eax, DWORD PTR ___$ReturnUdt$[ebp]

; 1038 : 		}

	add	esp, 4
	cmp	ebp, esp
	call	__RTC_CheckEsp
	mov	esp, ebp
	pop	ebp
	ret	4
?_Unchecked_end@?$list@PAV?$Goal@VRaven_Bot@@@@V?$allocator@PAV?$Goal@VRaven_Bot@@@@@std@@@std@@QAE?AV?$_List_unchecked_iterator@V?$_List_val@U?$_List_simple_types@PAV?$Goal@VRaven_Bot@@@@@std@@@std@@@2@XZ ENDP ; std::list<Goal<Raven_Bot> *,std::allocator<Goal<Raven_Bot> *> >::_Unchecked_end
_TEXT	ENDS
; Function compile flags: /Odtp /RTCsu
; File c:\program files (x86)\microsoft visual studio\2017\community\vc\tools\msvc\14.15.26726\include\list
;	COMDAT ?_Unchecked_begin@?$list@PAV?$Goal@VRaven_Bot@@@@V?$allocator@PAV?$Goal@VRaven_Bot@@@@@std@@@std@@QAE?AV?$_List_unchecked_iterator@V?$_List_val@U?$_List_simple_types@PAV?$Goal@VRaven_Bot@@@@@std@@@std@@@2@XZ
_TEXT	SEGMENT
_this$ = -4						; size = 4
___$ReturnUdt$ = 8					; size = 4
?_Unchecked_begin@?$list@PAV?$Goal@VRaven_Bot@@@@V?$allocator@PAV?$Goal@VRaven_Bot@@@@@std@@@std@@QAE?AV?$_List_unchecked_iterator@V?$_List_val@U?$_List_simple_types@PAV?$Goal@VRaven_Bot@@@@@std@@@std@@@2@XZ PROC ; std::list<Goal<Raven_Bot> *,std::allocator<Goal<Raven_Bot> *> >::_Unchecked_begin, COMDAT
; _this$ = ecx

; 1026 : 		{	// return iterator for beginning of mutable sequence

	push	ebp
	mov	ebp, esp
	push	ecx
	mov	DWORD PTR [ebp-4], -858993460		; ccccccccH
	mov	DWORD PTR _this$[ebp], ecx

; 1027 : 		return (_Unchecked_iterator(this->_Myhead()->_Next, nullptr));

	push	0
	mov	ecx, DWORD PTR _this$[ebp]
	call	?_Myhead@?$_List_alloc@U?$_List_base_types@PAV?$Goal@VRaven_Bot@@@@V?$allocator@PAV?$Goal@VRaven_Bot@@@@@std@@@std@@@std@@QAEAAPAU?$_List_node@PAV?$Goal@VRaven_Bot@@@@PAX@2@XZ ; std::_List_alloc<std::_List_base_types<Goal<Raven_Bot> *,std::allocator<Goal<Raven_Bot> *> > >::_Myhead
	mov	eax, DWORD PTR [eax]
	mov	ecx, DWORD PTR [eax]
	push	ecx
	mov	ecx, DWORD PTR ___$ReturnUdt$[ebp]
	call	??0?$_List_unchecked_iterator@V?$_List_val@U?$_List_simple_types@PAV?$Goal@VRaven_Bot@@@@@std@@@std@@@std@@QAE@PAU?$_List_node@PAV?$Goal@VRaven_Bot@@@@PAX@1@PBV?$_List_val@U?$_List_simple_types@PAV?$Goal@VRaven_Bot@@@@@std@@@1@@Z ; std::_List_unchecked_iterator<std::_List_val<std::_List_simple_types<Goal<Raven_Bot> *> > >::_List_unchecked_iterator<std::_List_val<std::_List_simple_types<Goal<Raven_Bot> *> > >
	mov	eax, DWORD PTR ___$ReturnUdt$[ebp]

; 1028 : 		}

	add	esp, 4
	cmp	ebp, esp
	call	__RTC_CheckEsp
	mov	esp, ebp
	pop	ebp
	ret	4
?_Unchecked_begin@?$list@PAV?$Goal@VRaven_Bot@@@@V?$allocator@PAV?$Goal@VRaven_Bot@@@@@std@@@std@@QAE?AV?$_List_unchecked_iterator@V?$_List_val@U?$_List_simple_types@PAV?$Goal@VRaven_Bot@@@@@std@@@std@@@2@XZ ENDP ; std::list<Goal<Raven_Bot> *,std::allocator<Goal<Raven_Bot> *> >::_Unchecked_begin
_TEXT	ENDS
; Function compile flags: /Odtp /RTCsu
; File c:\program files (x86)\microsoft visual studio\2017\community\vc\tools\msvc\14.15.26726\include\list
;	COMDAT ?end@?$list@PAV?$Goal@VRaven_Bot@@@@V?$allocator@PAV?$Goal@VRaven_Bot@@@@@std@@@std@@QBE?AV?$_List_const_iterator@V?$_List_val@U?$_List_simple_types@PAV?$Goal@VRaven_Bot@@@@@std@@@std@@@2@XZ
_TEXT	SEGMENT
_this$ = -16						; size = 4
__$EHRec$ = -12						; size = 12
___$ReturnUdt$ = 8					; size = 4
?end@?$list@PAV?$Goal@VRaven_Bot@@@@V?$allocator@PAV?$Goal@VRaven_Bot@@@@@std@@@std@@QBE?AV?$_List_const_iterator@V?$_List_val@U?$_List_simple_types@PAV?$Goal@VRaven_Bot@@@@@std@@@std@@@2@XZ PROC ; std::list<Goal<Raven_Bot> *,std::allocator<Goal<Raven_Bot> *> >::end, COMDAT
; _this$ = ecx

; 1021 : 		{	// return iterator for end of nonmutable sequence

	push	ebp
	mov	ebp, esp
	push	-1
	push	__ehhandler$?end@?$list@PAV?$Goal@VRaven_Bot@@@@V?$allocator@PAV?$Goal@VRaven_Bot@@@@@std@@@std@@QBE?AV?$_List_const_iterator@V?$_List_val@U?$_List_simple_types@PAV?$Goal@VRaven_Bot@@@@@std@@@std@@@2@XZ
	mov	eax, DWORD PTR fs:0
	push	eax
	push	ecx
	mov	DWORD PTR [ebp-16], -858993460		; ccccccccH
	mov	eax, DWORD PTR ___security_cookie
	xor	eax, ebp
	push	eax
	lea	eax, DWORD PTR __$EHRec$[ebp]
	mov	DWORD PTR fs:0, eax
	mov	DWORD PTR _this$[ebp], ecx

; 1022 : 		return (const_iterator(this->_Myhead(), _STD addressof(this->_Get_data())));

	mov	ecx, DWORD PTR _this$[ebp]
	call	?_Get_data@?$_List_alloc@U?$_List_base_types@PAV?$Goal@VRaven_Bot@@@@V?$allocator@PAV?$Goal@VRaven_Bot@@@@@std@@@std@@@std@@QBEABV?$_List_val@U?$_List_simple_types@PAV?$Goal@VRaven_Bot@@@@@std@@@2@XZ ; std::_List_alloc<std::_List_base_types<Goal<Raven_Bot> *,std::allocator<Goal<Raven_Bot> *> > >::_Get_data
	push	eax
	call	??$addressof@$$CBV?$_List_val@U?$_List_simple_types@PAV?$Goal@VRaven_Bot@@@@@std@@@std@@@std@@YAPBV?$_List_val@U?$_List_simple_types@PAV?$Goal@VRaven_Bot@@@@@std@@@0@ABV10@@Z ; std::addressof<std::_List_val<std::_List_simple_types<Goal<Raven_Bot> *> > const >
	add	esp, 4
	push	eax
	mov	ecx, DWORD PTR _this$[ebp]
	call	?_Myhead@?$_List_alloc@U?$_List_base_types@PAV?$Goal@VRaven_Bot@@@@V?$allocator@PAV?$Goal@VRaven_Bot@@@@@std@@@std@@@std@@QBEABQAU?$_List_node@PAV?$Goal@VRaven_Bot@@@@PAX@2@XZ ; std::_List_alloc<std::_List_base_types<Goal<Raven_Bot> *,std::allocator<Goal<Raven_Bot> *> > >::_Myhead
	mov	eax, DWORD PTR [eax]
	push	eax
	mov	ecx, DWORD PTR ___$ReturnUdt$[ebp]
	call	??0?$_List_const_iterator@V?$_List_val@U?$_List_simple_types@PAV?$Goal@VRaven_Bot@@@@@std@@@std@@@std@@QAE@PAU?$_List_node@PAV?$Goal@VRaven_Bot@@@@PAX@1@PBV?$_List_val@U?$_List_simple_types@PAV?$Goal@VRaven_Bot@@@@@std@@@1@@Z ; std::_List_const_iterator<std::_List_val<std::_List_simple_types<Goal<Raven_Bot> *> > >::_List_const_iterator<std::_List_val<std::_List_simple_types<Goal<Raven_Bot> *> > >
	mov	eax, DWORD PTR ___$ReturnUdt$[ebp]

; 1023 : 		}

	mov	ecx, DWORD PTR __$EHRec$[ebp]
	mov	DWORD PTR fs:0, ecx
	pop	ecx
	add	esp, 16					; 00000010H
	cmp	ebp, esp
	call	__RTC_CheckEsp
	mov	esp, ebp
	pop	ebp
	ret	4
_TEXT	ENDS
;	COMDAT text$x
text$x	SEGMENT
__ehhandler$?end@?$list@PAV?$Goal@VRaven_Bot@@@@V?$allocator@PAV?$Goal@VRaven_Bot@@@@@std@@@std@@QBE?AV?$_List_const_iterator@V?$_List_val@U?$_List_simple_types@PAV?$Goal@VRaven_Bot@@@@@std@@@std@@@2@XZ:
	mov	edx, DWORD PTR [esp+8]
	lea	eax, DWORD PTR [edx+12]
	mov	ecx, DWORD PTR [edx-8]
	xor	ecx, eax
	call	@__security_check_cookie@4
	mov	eax, OFFSET __ehfuncinfo$?end@?$list@PAV?$Goal@VRaven_Bot@@@@V?$allocator@PAV?$Goal@VRaven_Bot@@@@@std@@@std@@QBE?AV?$_List_const_iterator@V?$_List_val@U?$_List_simple_types@PAV?$Goal@VRaven_Bot@@@@@std@@@std@@@2@XZ
	jmp	___CxxFrameHandler3
text$x	ENDS
?end@?$list@PAV?$Goal@VRaven_Bot@@@@V?$allocator@PAV?$Goal@VRaven_Bot@@@@@std@@@std@@QBE?AV?$_List_const_iterator@V?$_List_val@U?$_List_simple_types@PAV?$Goal@VRaven_Bot@@@@@std@@@std@@@2@XZ ENDP ; std::list<Goal<Raven_Bot> *,std::allocator<Goal<Raven_Bot> *> >::end
; Function compile flags: /Odtp /RTCsu
; File c:\program files (x86)\microsoft visual studio\2017\community\vc\tools\msvc\14.15.26726\include\list
;	COMDAT ?end@?$list@PAV?$Goal@VRaven_Bot@@@@V?$allocator@PAV?$Goal@VRaven_Bot@@@@@std@@@std@@QAE?AV?$_List_iterator@V?$_List_val@U?$_List_simple_types@PAV?$Goal@VRaven_Bot@@@@@std@@@std@@@2@XZ
_TEXT	SEGMENT
_this$ = -16						; size = 4
__$EHRec$ = -12						; size = 12
___$ReturnUdt$ = 8					; size = 4
?end@?$list@PAV?$Goal@VRaven_Bot@@@@V?$allocator@PAV?$Goal@VRaven_Bot@@@@@std@@@std@@QAE?AV?$_List_iterator@V?$_List_val@U?$_List_simple_types@PAV?$Goal@VRaven_Bot@@@@@std@@@std@@@2@XZ PROC ; std::list<Goal<Raven_Bot> *,std::allocator<Goal<Raven_Bot> *> >::end, COMDAT
; _this$ = ecx

; 1016 : 		{	// return iterator for end of mutable sequence

	push	ebp
	mov	ebp, esp
	push	-1
	push	__ehhandler$?end@?$list@PAV?$Goal@VRaven_Bot@@@@V?$allocator@PAV?$Goal@VRaven_Bot@@@@@std@@@std@@QAE?AV?$_List_iterator@V?$_List_val@U?$_List_simple_types@PAV?$Goal@VRaven_Bot@@@@@std@@@std@@@2@XZ
	mov	eax, DWORD PTR fs:0
	push	eax
	push	ecx
	mov	DWORD PTR [ebp-16], -858993460		; ccccccccH
	mov	eax, DWORD PTR ___security_cookie
	xor	eax, ebp
	push	eax
	lea	eax, DWORD PTR __$EHRec$[ebp]
	mov	DWORD PTR fs:0, eax
	mov	DWORD PTR _this$[ebp], ecx

; 1017 : 		return (iterator(this->_Myhead(), _STD addressof(this->_Get_data())));

	mov	ecx, DWORD PTR _this$[ebp]
	call	?_Get_data@?$_List_alloc@U?$_List_base_types@PAV?$Goal@VRaven_Bot@@@@V?$allocator@PAV?$Goal@VRaven_Bot@@@@@std@@@std@@@std@@QAEAAV?$_List_val@U?$_List_simple_types@PAV?$Goal@VRaven_Bot@@@@@std@@@2@XZ ; std::_List_alloc<std::_List_base_types<Goal<Raven_Bot> *,std::allocator<Goal<Raven_Bot> *> > >::_Get_data
	push	eax
	call	??$addressof@V?$_List_val@U?$_List_simple_types@PAV?$Goal@VRaven_Bot@@@@@std@@@std@@@std@@YAPAV?$_List_val@U?$_List_simple_types@PAV?$Goal@VRaven_Bot@@@@@std@@@0@AAV10@@Z ; std::addressof<std::_List_val<std::_List_simple_types<Goal<Raven_Bot> *> > >
	add	esp, 4
	push	eax
	mov	ecx, DWORD PTR _this$[ebp]
	call	?_Myhead@?$_List_alloc@U?$_List_base_types@PAV?$Goal@VRaven_Bot@@@@V?$allocator@PAV?$Goal@VRaven_Bot@@@@@std@@@std@@@std@@QAEAAPAU?$_List_node@PAV?$Goal@VRaven_Bot@@@@PAX@2@XZ ; std::_List_alloc<std::_List_base_types<Goal<Raven_Bot> *,std::allocator<Goal<Raven_Bot> *> > >::_Myhead
	mov	eax, DWORD PTR [eax]
	push	eax
	mov	ecx, DWORD PTR ___$ReturnUdt$[ebp]
	call	??0?$_List_iterator@V?$_List_val@U?$_List_simple_types@PAV?$Goal@VRaven_Bot@@@@@std@@@std@@@std@@QAE@PAU?$_List_node@PAV?$Goal@VRaven_Bot@@@@PAX@1@PBV?$_List_val@U?$_List_simple_types@PAV?$Goal@VRaven_Bot@@@@@std@@@1@@Z ; std::_List_iterator<std::_List_val<std::_List_simple_types<Goal<Raven_Bot> *> > >::_List_iterator<std::_List_val<std::_List_simple_types<Goal<Raven_Bot> *> > >
	mov	eax, DWORD PTR ___$ReturnUdt$[ebp]

; 1018 : 		}

	mov	ecx, DWORD PTR __$EHRec$[ebp]
	mov	DWORD PTR fs:0, ecx
	pop	ecx
	add	esp, 16					; 00000010H
	cmp	ebp, esp
	call	__RTC_CheckEsp
	mov	esp, ebp
	pop	ebp
	ret	4
_TEXT	ENDS
;	COMDAT text$x
text$x	SEGMENT
__ehhandler$?end@?$list@PAV?$Goal@VRaven_Bot@@@@V?$allocator@PAV?$Goal@VRaven_Bot@@@@@std@@@std@@QAE?AV?$_List_iterator@V?$_List_val@U?$_List_simple_types@PAV?$Goal@VRaven_Bot@@@@@std@@@std@@@2@XZ:
	mov	edx, DWORD PTR [esp+8]
	lea	eax, DWORD PTR [edx+12]
	mov	ecx, DWORD PTR [edx-8]
	xor	ecx, eax
	call	@__security_check_cookie@4
	mov	eax, OFFSET __ehfuncinfo$?end@?$list@PAV?$Goal@VRaven_Bot@@@@V?$allocator@PAV?$Goal@VRaven_Bot@@@@@std@@@std@@QAE?AV?$_List_iterator@V?$_List_val@U?$_List_simple_types@PAV?$Goal@VRaven_Bot@@@@@std@@@std@@@2@XZ
	jmp	___CxxFrameHandler3
text$x	ENDS
?end@?$list@PAV?$Goal@VRaven_Bot@@@@V?$allocator@PAV?$Goal@VRaven_Bot@@@@@std@@@std@@QAE?AV?$_List_iterator@V?$_List_val@U?$_List_simple_types@PAV?$Goal@VRaven_Bot@@@@@std@@@std@@@2@XZ ENDP ; std::list<Goal<Raven_Bot> *,std::allocator<Goal<Raven_Bot> *> >::end
; Function compile flags: /Odtp /RTCsu
; File c:\program files (x86)\microsoft visual studio\2017\community\vc\tools\msvc\14.15.26726\include\list
;	COMDAT ?begin@?$list@PAV?$Goal@VRaven_Bot@@@@V?$allocator@PAV?$Goal@VRaven_Bot@@@@@std@@@std@@QBE?AV?$_List_const_iterator@V?$_List_val@U?$_List_simple_types@PAV?$Goal@VRaven_Bot@@@@@std@@@std@@@2@XZ
_TEXT	SEGMENT
_this$ = -16						; size = 4
__$EHRec$ = -12						; size = 12
___$ReturnUdt$ = 8					; size = 4
?begin@?$list@PAV?$Goal@VRaven_Bot@@@@V?$allocator@PAV?$Goal@VRaven_Bot@@@@@std@@@std@@QBE?AV?$_List_const_iterator@V?$_List_val@U?$_List_simple_types@PAV?$Goal@VRaven_Bot@@@@@std@@@std@@@2@XZ PROC ; std::list<Goal<Raven_Bot> *,std::allocator<Goal<Raven_Bot> *> >::begin, COMDAT
; _this$ = ecx

; 1011 : 		{	// return iterator for beginning of nonmutable sequence

	push	ebp
	mov	ebp, esp
	push	-1
	push	__ehhandler$?begin@?$list@PAV?$Goal@VRaven_Bot@@@@V?$allocator@PAV?$Goal@VRaven_Bot@@@@@std@@@std@@QBE?AV?$_List_const_iterator@V?$_List_val@U?$_List_simple_types@PAV?$Goal@VRaven_Bot@@@@@std@@@std@@@2@XZ
	mov	eax, DWORD PTR fs:0
	push	eax
	push	ecx
	mov	DWORD PTR [ebp-16], -858993460		; ccccccccH
	mov	eax, DWORD PTR ___security_cookie
	xor	eax, ebp
	push	eax
	lea	eax, DWORD PTR __$EHRec$[ebp]
	mov	DWORD PTR fs:0, eax
	mov	DWORD PTR _this$[ebp], ecx

; 1012 : 		return (const_iterator(this->_Myhead()->_Next, _STD addressof(this->_Get_data())));

	mov	ecx, DWORD PTR _this$[ebp]
	call	?_Get_data@?$_List_alloc@U?$_List_base_types@PAV?$Goal@VRaven_Bot@@@@V?$allocator@PAV?$Goal@VRaven_Bot@@@@@std@@@std@@@std@@QBEABV?$_List_val@U?$_List_simple_types@PAV?$Goal@VRaven_Bot@@@@@std@@@2@XZ ; std::_List_alloc<std::_List_base_types<Goal<Raven_Bot> *,std::allocator<Goal<Raven_Bot> *> > >::_Get_data
	push	eax
	call	??$addressof@$$CBV?$_List_val@U?$_List_simple_types@PAV?$Goal@VRaven_Bot@@@@@std@@@std@@@std@@YAPBV?$_List_val@U?$_List_simple_types@PAV?$Goal@VRaven_Bot@@@@@std@@@0@ABV10@@Z ; std::addressof<std::_List_val<std::_List_simple_types<Goal<Raven_Bot> *> > const >
	add	esp, 4
	push	eax
	mov	ecx, DWORD PTR _this$[ebp]
	call	?_Myhead@?$_List_alloc@U?$_List_base_types@PAV?$Goal@VRaven_Bot@@@@V?$allocator@PAV?$Goal@VRaven_Bot@@@@@std@@@std@@@std@@QBEABQAU?$_List_node@PAV?$Goal@VRaven_Bot@@@@PAX@2@XZ ; std::_List_alloc<std::_List_base_types<Goal<Raven_Bot> *,std::allocator<Goal<Raven_Bot> *> > >::_Myhead
	mov	eax, DWORD PTR [eax]
	mov	ecx, DWORD PTR [eax]
	push	ecx
	mov	ecx, DWORD PTR ___$ReturnUdt$[ebp]
	call	??0?$_List_const_iterator@V?$_List_val@U?$_List_simple_types@PAV?$Goal@VRaven_Bot@@@@@std@@@std@@@std@@QAE@PAU?$_List_node@PAV?$Goal@VRaven_Bot@@@@PAX@1@PBV?$_List_val@U?$_List_simple_types@PAV?$Goal@VRaven_Bot@@@@@std@@@1@@Z ; std::_List_const_iterator<std::_List_val<std::_List_simple_types<Goal<Raven_Bot> *> > >::_List_const_iterator<std::_List_val<std::_List_simple_types<Goal<Raven_Bot> *> > >
	mov	eax, DWORD PTR ___$ReturnUdt$[ebp]

; 1013 : 		}

	mov	ecx, DWORD PTR __$EHRec$[ebp]
	mov	DWORD PTR fs:0, ecx
	pop	ecx
	add	esp, 16					; 00000010H
	cmp	ebp, esp
	call	__RTC_CheckEsp
	mov	esp, ebp
	pop	ebp
	ret	4
_TEXT	ENDS
;	COMDAT text$x
text$x	SEGMENT
__ehhandler$?begin@?$list@PAV?$Goal@VRaven_Bot@@@@V?$allocator@PAV?$Goal@VRaven_Bot@@@@@std@@@std@@QBE?AV?$_List_const_iterator@V?$_List_val@U?$_List_simple_types@PAV?$Goal@VRaven_Bot@@@@@std@@@std@@@2@XZ:
	mov	edx, DWORD PTR [esp+8]
	lea	eax, DWORD PTR [edx+12]
	mov	ecx, DWORD PTR [edx-8]
	xor	ecx, eax
	call	@__security_check_cookie@4
	mov	eax, OFFSET __ehfuncinfo$?begin@?$list@PAV?$Goal@VRaven_Bot@@@@V?$allocator@PAV?$Goal@VRaven_Bot@@@@@std@@@std@@QBE?AV?$_List_const_iterator@V?$_List_val@U?$_List_simple_types@PAV?$Goal@VRaven_Bot@@@@@std@@@std@@@2@XZ
	jmp	___CxxFrameHandler3
text$x	ENDS
?begin@?$list@PAV?$Goal@VRaven_Bot@@@@V?$allocator@PAV?$Goal@VRaven_Bot@@@@@std@@@std@@QBE?AV?$_List_const_iterator@V?$_List_val@U?$_List_simple_types@PAV?$Goal@VRaven_Bot@@@@@std@@@std@@@2@XZ ENDP ; std::list<Goal<Raven_Bot> *,std::allocator<Goal<Raven_Bot> *> >::begin
; Function compile flags: /Odtp /RTCsu
; File c:\program files (x86)\microsoft visual studio\2017\community\vc\tools\msvc\14.15.26726\include\list
;	COMDAT ?begin@?$list@PAV?$Goal@VRaven_Bot@@@@V?$allocator@PAV?$Goal@VRaven_Bot@@@@@std@@@std@@QAE?AV?$_List_iterator@V?$_List_val@U?$_List_simple_types@PAV?$Goal@VRaven_Bot@@@@@std@@@std@@@2@XZ
_TEXT	SEGMENT
_this$ = -16						; size = 4
__$EHRec$ = -12						; size = 12
___$ReturnUdt$ = 8					; size = 4
?begin@?$list@PAV?$Goal@VRaven_Bot@@@@V?$allocator@PAV?$Goal@VRaven_Bot@@@@@std@@@std@@QAE?AV?$_List_iterator@V?$_List_val@U?$_List_simple_types@PAV?$Goal@VRaven_Bot@@@@@std@@@std@@@2@XZ PROC ; std::list<Goal<Raven_Bot> *,std::allocator<Goal<Raven_Bot> *> >::begin, COMDAT
; _this$ = ecx

; 1006 : 		{	// return iterator for beginning of mutable sequence

	push	ebp
	mov	ebp, esp
	push	-1
	push	__ehhandler$?begin@?$list@PAV?$Goal@VRaven_Bot@@@@V?$allocator@PAV?$Goal@VRaven_Bot@@@@@std@@@std@@QAE?AV?$_List_iterator@V?$_List_val@U?$_List_simple_types@PAV?$Goal@VRaven_Bot@@@@@std@@@std@@@2@XZ
	mov	eax, DWORD PTR fs:0
	push	eax
	push	ecx
	mov	DWORD PTR [ebp-16], -858993460		; ccccccccH
	mov	eax, DWORD PTR ___security_cookie
	xor	eax, ebp
	push	eax
	lea	eax, DWORD PTR __$EHRec$[ebp]
	mov	DWORD PTR fs:0, eax
	mov	DWORD PTR _this$[ebp], ecx

; 1007 : 		return (iterator(this->_Myhead()->_Next, _STD addressof(this->_Get_data())));

	mov	ecx, DWORD PTR _this$[ebp]
	call	?_Get_data@?$_List_alloc@U?$_List_base_types@PAV?$Goal@VRaven_Bot@@@@V?$allocator@PAV?$Goal@VRaven_Bot@@@@@std@@@std@@@std@@QAEAAV?$_List_val@U?$_List_simple_types@PAV?$Goal@VRaven_Bot@@@@@std@@@2@XZ ; std::_List_alloc<std::_List_base_types<Goal<Raven_Bot> *,std::allocator<Goal<Raven_Bot> *> > >::_Get_data
	push	eax
	call	??$addressof@V?$_List_val@U?$_List_simple_types@PAV?$Goal@VRaven_Bot@@@@@std@@@std@@@std@@YAPAV?$_List_val@U?$_List_simple_types@PAV?$Goal@VRaven_Bot@@@@@std@@@0@AAV10@@Z ; std::addressof<std::_List_val<std::_List_simple_types<Goal<Raven_Bot> *> > >
	add	esp, 4
	push	eax
	mov	ecx, DWORD PTR _this$[ebp]
	call	?_Myhead@?$_List_alloc@U?$_List_base_types@PAV?$Goal@VRaven_Bot@@@@V?$allocator@PAV?$Goal@VRaven_Bot@@@@@std@@@std@@@std@@QAEAAPAU?$_List_node@PAV?$Goal@VRaven_Bot@@@@PAX@2@XZ ; std::_List_alloc<std::_List_base_types<Goal<Raven_Bot> *,std::allocator<Goal<Raven_Bot> *> > >::_Myhead
	mov	eax, DWORD PTR [eax]
	mov	ecx, DWORD PTR [eax]
	push	ecx
	mov	ecx, DWORD PTR ___$ReturnUdt$[ebp]
	call	??0?$_List_iterator@V?$_List_val@U?$_List_simple_types@PAV?$Goal@VRaven_Bot@@@@@std@@@std@@@std@@QAE@PAU?$_List_node@PAV?$Goal@VRaven_Bot@@@@PAX@1@PBV?$_List_val@U?$_List_simple_types@PAV?$Goal@VRaven_Bot@@@@@std@@@1@@Z ; std::_List_iterator<std::_List_val<std::_List_simple_types<Goal<Raven_Bot> *> > >::_List_iterator<std::_List_val<std::_List_simple_types<Goal<Raven_Bot> *> > >
	mov	eax, DWORD PTR ___$ReturnUdt$[ebp]

; 1008 : 		}

	mov	ecx, DWORD PTR __$EHRec$[ebp]
	mov	DWORD PTR fs:0, ecx
	pop	ecx
	add	esp, 16					; 00000010H
	cmp	ebp, esp
	call	__RTC_CheckEsp
	mov	esp, ebp
	pop	ebp
	ret	4
_TEXT	ENDS
;	COMDAT text$x
text$x	SEGMENT
__ehhandler$?begin@?$list@PAV?$Goal@VRaven_Bot@@@@V?$allocator@PAV?$Goal@VRaven_Bot@@@@@std@@@std@@QAE?AV?$_List_iterator@V?$_List_val@U?$_List_simple_types@PAV?$Goal@VRaven_Bot@@@@@std@@@std@@@2@XZ:
	mov	edx, DWORD PTR [esp+8]
	lea	eax, DWORD PTR [edx+12]
	mov	ecx, DWORD PTR [edx-8]
	xor	ecx, eax
	call	@__security_check_cookie@4
	mov	eax, OFFSET __ehfuncinfo$?begin@?$list@PAV?$Goal@VRaven_Bot@@@@V?$allocator@PAV?$Goal@VRaven_Bot@@@@@std@@@std@@QAE?AV?$_List_iterator@V?$_List_val@U?$_List_simple_types@PAV?$Goal@VRaven_Bot@@@@@std@@@std@@@2@XZ
	jmp	___CxxFrameHandler3
text$x	ENDS
?begin@?$list@PAV?$Goal@VRaven_Bot@@@@V?$allocator@PAV?$Goal@VRaven_Bot@@@@@std@@@std@@QAE?AV?$_List_iterator@V?$_List_val@U?$_List_simple_types@PAV?$Goal@VRaven_Bot@@@@@std@@@std@@@2@XZ ENDP ; std::list<Goal<Raven_Bot> *,std::allocator<Goal<Raven_Bot> *> >::begin
; Function compile flags: /Odtp /RTCsu
; File c:\program files (x86)\microsoft visual studio\2017\community\vc\tools\msvc\14.15.26726\include\list
;	COMDAT ??1?$list@PAV?$Goal@VRaven_Bot@@@@V?$allocator@PAV?$Goal@VRaven_Bot@@@@@std@@@std@@QAE@XZ
_TEXT	SEGMENT
_this$ = -16						; size = 4
__$EHRec$ = -12						; size = 12
??1?$list@PAV?$Goal@VRaven_Bot@@@@V?$allocator@PAV?$Goal@VRaven_Bot@@@@@std@@@std@@QAE@XZ PROC ; std::list<Goal<Raven_Bot> *,std::allocator<Goal<Raven_Bot> *> >::~list<Goal<Raven_Bot> *,std::allocator<Goal<Raven_Bot> *> >, COMDAT
; _this$ = ecx

; 981  : 		{	// destroy the object

	push	ebp
	mov	ebp, esp
	push	-1
	push	__ehhandler$??1?$list@PAV?$Goal@VRaven_Bot@@@@V?$allocator@PAV?$Goal@VRaven_Bot@@@@@std@@@std@@QAE@XZ
	mov	eax, DWORD PTR fs:0
	push	eax
	push	ecx
	mov	DWORD PTR [ebp-16], -858993460		; ccccccccH
	mov	eax, DWORD PTR ___security_cookie
	xor	eax, ebp
	push	eax
	lea	eax, DWORD PTR __$EHRec$[ebp]
	mov	DWORD PTR fs:0, eax
	mov	DWORD PTR _this$[ebp], ecx

; 982  : 		_Tidy();

	mov	ecx, DWORD PTR _this$[ebp]
	call	?_Tidy@?$list@PAV?$Goal@VRaven_Bot@@@@V?$allocator@PAV?$Goal@VRaven_Bot@@@@@std@@@std@@QAEXXZ ; std::list<Goal<Raven_Bot> *,std::allocator<Goal<Raven_Bot> *> >::_Tidy

; 983  : 		}

	mov	ecx, DWORD PTR _this$[ebp]
	call	??1?$_List_buy@PAV?$Goal@VRaven_Bot@@@@V?$allocator@PAV?$Goal@VRaven_Bot@@@@@std@@@std@@QAE@XZ
	mov	ecx, DWORD PTR __$EHRec$[ebp]
	mov	DWORD PTR fs:0, ecx
	pop	ecx
	add	esp, 16					; 00000010H
	cmp	ebp, esp
	call	__RTC_CheckEsp
	mov	esp, ebp
	pop	ebp
	ret	0
_TEXT	ENDS
;	COMDAT text$x
text$x	SEGMENT
__ehhandler$??1?$list@PAV?$Goal@VRaven_Bot@@@@V?$allocator@PAV?$Goal@VRaven_Bot@@@@@std@@@std@@QAE@XZ:
	mov	edx, DWORD PTR [esp+8]
	lea	eax, DWORD PTR [edx+12]
	mov	ecx, DWORD PTR [edx-8]
	xor	ecx, eax
	call	@__security_check_cookie@4
	mov	eax, OFFSET __ehfuncinfo$??1?$list@PAV?$Goal@VRaven_Bot@@@@V?$allocator@PAV?$Goal@VRaven_Bot@@@@@std@@@std@@QAE@XZ
	jmp	___CxxFrameHandler3
text$x	ENDS
??1?$list@PAV?$Goal@VRaven_Bot@@@@V?$allocator@PAV?$Goal@VRaven_Bot@@@@@std@@@std@@QAE@XZ ENDP ; std::list<Goal<Raven_Bot> *,std::allocator<Goal<Raven_Bot> *> >::~list<Goal<Raven_Bot> *,std::allocator<Goal<Raven_Bot> *> >
; Function compile flags: /Odtp /RTCsu
; File c:\program files (x86)\microsoft visual studio\2017\community\vc\tools\msvc\14.15.26726\include\list
;	COMDAT ?push_back@?$list@PAV?$Goal@VRaven_Bot@@@@V?$allocator@PAV?$Goal@VRaven_Bot@@@@@std@@@std@@QAEX$$QAPAV?$Goal@VRaven_Bot@@@@@Z
_TEXT	SEGMENT
$T1 = -12						; size = 4
$T2 = -8						; size = 4
_this$ = -4						; size = 4
__Val$ = 8						; size = 4
?push_back@?$list@PAV?$Goal@VRaven_Bot@@@@V?$allocator@PAV?$Goal@VRaven_Bot@@@@@std@@@std@@QAEX$$QAPAV?$Goal@VRaven_Bot@@@@@Z PROC ; std::list<Goal<Raven_Bot> *,std::allocator<Goal<Raven_Bot> *> >::push_back, COMDAT
; _this$ = ecx

; 905  : 		{	// insert element at end

	push	ebp
	mov	ebp, esp
	sub	esp, 12					; 0000000cH
	mov	DWORD PTR [ebp-12], -858993460		; ccccccccH
	mov	DWORD PTR [ebp-8], -858993460		; ccccccccH
	mov	DWORD PTR [ebp-4], -858993460		; ccccccccH
	mov	DWORD PTR _this$[ebp], ecx

; 906  : 		_Insert(_Unchecked_end(), _STD move(_Val));

	lea	eax, DWORD PTR $T1[ebp]
	push	eax
	mov	ecx, DWORD PTR _this$[ebp]
	call	?_Unchecked_end@?$list@PAV?$Goal@VRaven_Bot@@@@V?$allocator@PAV?$Goal@VRaven_Bot@@@@@std@@@std@@QAE?AV?$_List_unchecked_iterator@V?$_List_val@U?$_List_simple_types@PAV?$Goal@VRaven_Bot@@@@@std@@@std@@@2@XZ ; std::list<Goal<Raven_Bot> *,std::allocator<Goal<Raven_Bot> *> >::_Unchecked_end
	mov	ecx, DWORD PTR [eax]
	mov	DWORD PTR $T2[ebp], ecx
	mov	edx, DWORD PTR __Val$[ebp]
	push	edx
	call	??$move@AAPAV?$Goal@VRaven_Bot@@@@@std@@YA$$QAPAV?$Goal@VRaven_Bot@@@@AAPAV1@@Z ; std::move<Goal<Raven_Bot> * &>
	add	esp, 4
	push	eax
	mov	eax, DWORD PTR $T2[ebp]
	push	eax
	mov	ecx, DWORD PTR _this$[ebp]
	call	??$_Insert@PAV?$Goal@VRaven_Bot@@@@@?$list@PAV?$Goal@VRaven_Bot@@@@V?$allocator@PAV?$Goal@VRaven_Bot@@@@@std@@@std@@QAEXV?$_List_unchecked_const_iterator@V?$_List_val@U?$_List_simple_types@PAV?$Goal@VRaven_Bot@@@@@std@@@std@@U_Iterator_base0@2@@1@$$QAPAV?$Goal@VRaven_Bot@@@@@Z ; std::list<Goal<Raven_Bot> *,std::allocator<Goal<Raven_Bot> *> >::_Insert<Goal<Raven_Bot> *>

; 907  : 		}

	add	esp, 12					; 0000000cH
	cmp	ebp, esp
	call	__RTC_CheckEsp
	mov	esp, ebp
	pop	ebp
	ret	4
?push_back@?$list@PAV?$Goal@VRaven_Bot@@@@V?$allocator@PAV?$Goal@VRaven_Bot@@@@@std@@@std@@QAEX$$QAPAV?$Goal@VRaven_Bot@@@@@Z ENDP ; std::list<Goal<Raven_Bot> *,std::allocator<Goal<Raven_Bot> *> >::push_back
_TEXT	ENDS
; Function compile flags: /Odtp /RTCsu
; File c:\program files (x86)\microsoft visual studio\2017\community\vc\tools\msvc\14.15.26726\include\list
;	COMDAT ??0?$list@PAV?$Goal@VRaven_Bot@@@@V?$allocator@PAV?$Goal@VRaven_Bot@@@@@std@@@std@@QAE@XZ
_TEXT	SEGMENT
_this$ = -4						; size = 4
??0?$list@PAV?$Goal@VRaven_Bot@@@@V?$allocator@PAV?$Goal@VRaven_Bot@@@@@std@@@std@@QAE@XZ PROC ; std::list<Goal<Raven_Bot> *,std::allocator<Goal<Raven_Bot> *> >::list<Goal<Raven_Bot> *,std::allocator<Goal<Raven_Bot> *> >, COMDAT
; _this$ = ecx

; 770  : 		{	// construct empty list

	push	ebp
	mov	ebp, esp
	push	ecx
	mov	DWORD PTR [ebp-4], -858993460		; ccccccccH
	mov	DWORD PTR _this$[ebp], ecx

; 769  : 		: _Mybase()

	mov	ecx, DWORD PTR _this$[ebp]
	call	??0?$_List_buy@PAV?$Goal@VRaven_Bot@@@@V?$allocator@PAV?$Goal@VRaven_Bot@@@@@std@@@std@@QAE@XZ ; std::_List_buy<Goal<Raven_Bot> *,std::allocator<Goal<Raven_Bot> *> >::_List_buy<Goal<Raven_Bot> *,std::allocator<Goal<Raven_Bot> *> >

; 771  : 		}

	mov	eax, DWORD PTR _this$[ebp]
	add	esp, 4
	cmp	ebp, esp
	call	__RTC_CheckEsp
	mov	esp, ebp
	pop	ebp
	ret	0
??0?$list@PAV?$Goal@VRaven_Bot@@@@V?$allocator@PAV?$Goal@VRaven_Bot@@@@@std@@@std@@QAE@XZ ENDP ; std::list<Goal<Raven_Bot> *,std::allocator<Goal<Raven_Bot> *> >::list<Goal<Raven_Bot> *,std::allocator<Goal<Raven_Bot> *> >
_TEXT	ENDS
; Function compile flags: /Odtp /RTCsu
;	COMDAT ??1?$_List_buy@PAV?$Goal@VRaven_Bot@@@@V?$allocator@PAV?$Goal@VRaven_Bot@@@@@std@@@std@@QAE@XZ
_TEXT	SEGMENT
_this$ = -4						; size = 4
??1?$_List_buy@PAV?$Goal@VRaven_Bot@@@@V?$allocator@PAV?$Goal@VRaven_Bot@@@@@std@@@std@@QAE@XZ PROC ; std::_List_buy<Goal<Raven_Bot> *,std::allocator<Goal<Raven_Bot> *> >::~_List_buy<Goal<Raven_Bot> *,std::allocator<Goal<Raven_Bot> *> >, COMDAT
; _this$ = ecx
	push	ebp
	mov	ebp, esp
	push	ecx
	mov	DWORD PTR [ebp-4], -858993460		; ccccccccH
	mov	DWORD PTR _this$[ebp], ecx
	mov	ecx, DWORD PTR _this$[ebp]
	call	??1?$_List_alloc@U?$_List_base_types@PAV?$Goal@VRaven_Bot@@@@V?$allocator@PAV?$Goal@VRaven_Bot@@@@@std@@@std@@@std@@QAE@XZ ; std::_List_alloc<std::_List_base_types<Goal<Raven_Bot> *,std::allocator<Goal<Raven_Bot> *> > >::~_List_alloc<std::_List_base_types<Goal<Raven_Bot> *,std::allocator<Goal<Raven_Bot> *> > >
	add	esp, 4
	cmp	ebp, esp
	call	__RTC_CheckEsp
	mov	esp, ebp
	pop	ebp
	ret	0
??1?$_List_buy@PAV?$Goal@VRaven_Bot@@@@V?$allocator@PAV?$Goal@VRaven_Bot@@@@@std@@@std@@QAE@XZ ENDP ; std::_List_buy<Goal<Raven_Bot> *,std::allocator<Goal<Raven_Bot> *> >::~_List_buy<Goal<Raven_Bot> *,std::allocator<Goal<Raven_Bot> *> >
_TEXT	ENDS
; Function compile flags: /Odtp /RTCsu
; File c:\program files (x86)\microsoft visual studio\2017\community\vc\tools\msvc\14.15.26726\include\list
;	COMDAT ?_Freenode@?$_List_buy@PAV?$Goal@VRaven_Bot@@@@V?$allocator@PAV?$Goal@VRaven_Bot@@@@@std@@@std@@QAEXPAU?$_List_node@PAV?$Goal@VRaven_Bot@@@@PAX@2@@Z
_TEXT	SEGMENT
__Al$ = -8						; size = 4
_this$ = -4						; size = 4
__Pnode$ = 8						; size = 4
?_Freenode@?$_List_buy@PAV?$Goal@VRaven_Bot@@@@V?$allocator@PAV?$Goal@VRaven_Bot@@@@@std@@@std@@QAEXPAU?$_List_node@PAV?$Goal@VRaven_Bot@@@@PAX@2@@Z PROC ; std::_List_buy<Goal<Raven_Bot> *,std::allocator<Goal<Raven_Bot> *> >::_Freenode, COMDAT
; _this$ = ecx

; 728  : 		{	// give node back

	push	ebp
	mov	ebp, esp
	sub	esp, 8
	mov	DWORD PTR [ebp-8], -858993460		; ccccccccH
	mov	DWORD PTR [ebp-4], -858993460		; ccccccccH
	mov	DWORD PTR _this$[ebp], ecx

; 729  : 		_Alnode& _Al = this->_Getal();

	mov	ecx, DWORD PTR _this$[ebp]
	call	?_Getal@?$_List_alloc@U?$_List_base_types@PAV?$Goal@VRaven_Bot@@@@V?$allocator@PAV?$Goal@VRaven_Bot@@@@@std@@@std@@@std@@QAEAAV?$allocator@U?$_List_node@PAV?$Goal@VRaven_Bot@@@@PAX@std@@@2@XZ ; std::_List_alloc<std::_List_base_types<Goal<Raven_Bot> *,std::allocator<Goal<Raven_Bot> *> > >::_Getal
	mov	DWORD PTR __Al$[ebp], eax

; 730  : 		_Alnode_traits::destroy(_Al, _STD addressof(_Pnode->_Myval));

	mov	eax, DWORD PTR __Pnode$[ebp]
	add	eax, 8
	push	eax
	call	??$addressof@PAV?$Goal@VRaven_Bot@@@@@std@@YAPAPAV?$Goal@VRaven_Bot@@@@AAPAV1@@Z ; std::addressof<Goal<Raven_Bot> *>
	add	esp, 4
	push	eax
	mov	ecx, DWORD PTR __Al$[ebp]
	push	ecx
	call	??$destroy@PAV?$Goal@VRaven_Bot@@@@@?$_Default_allocator_traits@V?$allocator@U?$_List_node@PAV?$Goal@VRaven_Bot@@@@PAX@std@@@std@@@std@@SAXAAV?$allocator@U?$_List_node@PAV?$Goal@VRaven_Bot@@@@PAX@std@@@1@QAPAV?$Goal@VRaven_Bot@@@@@Z ; std::_Default_allocator_traits<std::allocator<std::_List_node<Goal<Raven_Bot> *,void *> > >::destroy<Goal<Raven_Bot> *>
	add	esp, 8

; 731  : 		_Node::_Freenode0(_Al, _Pnode);

	mov	edx, DWORD PTR __Pnode$[ebp]
	push	edx
	mov	eax, DWORD PTR __Al$[ebp]
	push	eax
	call	??$_Freenode0@V?$allocator@U?$_List_node@PAV?$Goal@VRaven_Bot@@@@PAX@std@@@std@@@?$_List_node@PAV?$Goal@VRaven_Bot@@@@PAX@std@@SAXAAV?$allocator@U?$_List_node@PAV?$Goal@VRaven_Bot@@@@PAX@std@@@1@PAU01@@Z ; std::_List_node<Goal<Raven_Bot> *,void *>::_Freenode0<std::allocator<std::_List_node<Goal<Raven_Bot> *,void *> > >
	add	esp, 8

; 732  : 		}

	add	esp, 8
	cmp	ebp, esp
	call	__RTC_CheckEsp
	mov	esp, ebp
	pop	ebp
	ret	4
?_Freenode@?$_List_buy@PAV?$Goal@VRaven_Bot@@@@V?$allocator@PAV?$Goal@VRaven_Bot@@@@@std@@@std@@QAEXPAU?$_List_node@PAV?$Goal@VRaven_Bot@@@@PAX@2@@Z ENDP ; std::_List_buy<Goal<Raven_Bot> *,std::allocator<Goal<Raven_Bot> *> >::_Freenode
_TEXT	ENDS
; Function compile flags: /Odtp /RTCsu
; File c:\program files (x86)\microsoft visual studio\2017\community\vc\tools\msvc\14.15.26726\include\list
;	COMDAT ??0?$_List_buy@PAV?$Goal@VRaven_Bot@@@@V?$allocator@PAV?$Goal@VRaven_Bot@@@@@std@@@std@@QAE@XZ
_TEXT	SEGMENT
_this$ = -4						; size = 4
??0?$_List_buy@PAV?$Goal@VRaven_Bot@@@@V?$allocator@PAV?$Goal@VRaven_Bot@@@@@std@@@std@@QAE@XZ PROC ; std::_List_buy<Goal<Raven_Bot> *,std::allocator<Goal<Raven_Bot> *> >::_List_buy<Goal<Raven_Bot> *,std::allocator<Goal<Raven_Bot> *> >, COMDAT
; _this$ = ecx

; 699  : 		{	// default construct

	push	ebp
	mov	ebp, esp
	push	ecx
	mov	DWORD PTR [ebp-4], -858993460		; ccccccccH
	mov	DWORD PTR _this$[ebp], ecx

; 698  : 		: _Mybase()

	mov	ecx, DWORD PTR _this$[ebp]
	call	??0?$_List_alloc@U?$_List_base_types@PAV?$Goal@VRaven_Bot@@@@V?$allocator@PAV?$Goal@VRaven_Bot@@@@@std@@@std@@@std@@QAE@XZ ; std::_List_alloc<std::_List_base_types<Goal<Raven_Bot> *,std::allocator<Goal<Raven_Bot> *> > >::_List_alloc<std::_List_base_types<Goal<Raven_Bot> *,std::allocator<Goal<Raven_Bot> *> > >

; 700  : 		}

	mov	eax, DWORD PTR _this$[ebp]
	add	esp, 4
	cmp	ebp, esp
	call	__RTC_CheckEsp
	mov	esp, ebp
	pop	ebp
	ret	0
??0?$_List_buy@PAV?$Goal@VRaven_Bot@@@@V?$allocator@PAV?$Goal@VRaven_Bot@@@@@std@@@std@@QAE@XZ ENDP ; std::_List_buy<Goal<Raven_Bot> *,std::allocator<Goal<Raven_Bot> *> >::_List_buy<Goal<Raven_Bot> *,std::allocator<Goal<Raven_Bot> *> >
_TEXT	ENDS
; Function compile flags: /Odtp /RTCsu
; File c:\program files (x86)\microsoft visual studio\2017\community\vc\tools\msvc\14.15.26726\include\xutility
;	COMDAT ?_Get_second@?$_Compressed_pair@V?$allocator@U?$_List_node@PAV?$Goal@VRaven_Bot@@@@PAX@std@@@std@@V?$_List_val@U?$_List_simple_types@PAV?$Goal@VRaven_Bot@@@@@std@@@2@$00@std@@QBEABV?$_List_val@U?$_List_simple_types@PAV?$Goal@VRaven_Bot@@@@@std@@@2@XZ
_TEXT	SEGMENT
_this$ = -4						; size = 4
?_Get_second@?$_Compressed_pair@V?$allocator@U?$_List_node@PAV?$Goal@VRaven_Bot@@@@PAX@std@@@std@@V?$_List_val@U?$_List_simple_types@PAV?$Goal@VRaven_Bot@@@@@std@@@2@$00@std@@QBEABV?$_List_val@U?$_List_simple_types@PAV?$Goal@VRaven_Bot@@@@@std@@@2@XZ PROC ; std::_Compressed_pair<std::allocator<std::_List_node<Goal<Raven_Bot> *,void *> >,std::_List_val<std::_List_simple_types<Goal<Raven_Bot> *> >,1>::_Get_second, COMDAT
; _this$ = ecx

; 306  : 		{	// return const reference to second

	push	ebp
	mov	ebp, esp
	push	ecx
	mov	DWORD PTR [ebp-4], -858993460		; ccccccccH
	mov	DWORD PTR _this$[ebp], ecx

; 307  : 		return (_Myval2);

	mov	eax, DWORD PTR _this$[ebp]

; 308  : 		}

	mov	esp, ebp
	pop	ebp
	ret	0
?_Get_second@?$_Compressed_pair@V?$allocator@U?$_List_node@PAV?$Goal@VRaven_Bot@@@@PAX@std@@@std@@V?$_List_val@U?$_List_simple_types@PAV?$Goal@VRaven_Bot@@@@@std@@@2@$00@std@@QBEABV?$_List_val@U?$_List_simple_types@PAV?$Goal@VRaven_Bot@@@@@std@@@2@XZ ENDP ; std::_Compressed_pair<std::allocator<std::_List_node<Goal<Raven_Bot> *,void *> >,std::_List_val<std::_List_simple_types<Goal<Raven_Bot> *> >,1>::_Get_second
_TEXT	ENDS
; Function compile flags: /Odtp /RTCsu
; File c:\program files (x86)\microsoft visual studio\2017\community\vc\tools\msvc\14.15.26726\include\xutility
;	COMDAT ?_Get_second@?$_Compressed_pair@V?$allocator@U?$_List_node@PAV?$Goal@VRaven_Bot@@@@PAX@std@@@std@@V?$_List_val@U?$_List_simple_types@PAV?$Goal@VRaven_Bot@@@@@std@@@2@$00@std@@QAEAAV?$_List_val@U?$_List_simple_types@PAV?$Goal@VRaven_Bot@@@@@std@@@2@XZ
_TEXT	SEGMENT
_this$ = -4						; size = 4
?_Get_second@?$_Compressed_pair@V?$allocator@U?$_List_node@PAV?$Goal@VRaven_Bot@@@@PAX@std@@@std@@V?$_List_val@U?$_List_simple_types@PAV?$Goal@VRaven_Bot@@@@@std@@@2@$00@std@@QAEAAV?$_List_val@U?$_List_simple_types@PAV?$Goal@VRaven_Bot@@@@@std@@@2@XZ PROC ; std::_Compressed_pair<std::allocator<std::_List_node<Goal<Raven_Bot> *,void *> >,std::_List_val<std::_List_simple_types<Goal<Raven_Bot> *> >,1>::_Get_second, COMDAT
; _this$ = ecx

; 301  : 		{	// return reference to second

	push	ebp
	mov	ebp, esp
	push	ecx
	mov	DWORD PTR [ebp-4], -858993460		; ccccccccH
	mov	DWORD PTR _this$[ebp], ecx

; 302  : 		return (_Myval2);

	mov	eax, DWORD PTR _this$[ebp]

; 303  : 		}

	mov	esp, ebp
	pop	ebp
	ret	0
?_Get_second@?$_Compressed_pair@V?$allocator@U?$_List_node@PAV?$Goal@VRaven_Bot@@@@PAX@std@@@std@@V?$_List_val@U?$_List_simple_types@PAV?$Goal@VRaven_Bot@@@@@std@@@2@$00@std@@QAEAAV?$_List_val@U?$_List_simple_types@PAV?$Goal@VRaven_Bot@@@@@std@@@2@XZ ENDP ; std::_Compressed_pair<std::allocator<std::_List_node<Goal<Raven_Bot> *,void *> >,std::_List_val<std::_List_simple_types<Goal<Raven_Bot> *> >,1>::_Get_second
_TEXT	ENDS
; Function compile flags: /Odtp /RTCsu
; File c:\program files (x86)\microsoft visual studio\2017\community\vc\tools\msvc\14.15.26726\include\xutility
;	COMDAT ?_Get_first@?$_Compressed_pair@V?$allocator@U?$_List_node@PAV?$Goal@VRaven_Bot@@@@PAX@std@@@std@@V?$_List_val@U?$_List_simple_types@PAV?$Goal@VRaven_Bot@@@@@std@@@2@$00@std@@QBEABV?$allocator@U?$_List_node@PAV?$Goal@VRaven_Bot@@@@PAX@std@@@2@XZ
_TEXT	SEGMENT
_this$ = -4						; size = 4
?_Get_first@?$_Compressed_pair@V?$allocator@U?$_List_node@PAV?$Goal@VRaven_Bot@@@@PAX@std@@@std@@V?$_List_val@U?$_List_simple_types@PAV?$Goal@VRaven_Bot@@@@@std@@@2@$00@std@@QBEABV?$allocator@U?$_List_node@PAV?$Goal@VRaven_Bot@@@@PAX@std@@@2@XZ PROC ; std::_Compressed_pair<std::allocator<std::_List_node<Goal<Raven_Bot> *,void *> >,std::_List_val<std::_List_simple_types<Goal<Raven_Bot> *> >,1>::_Get_first, COMDAT
; _this$ = ecx

; 296  : 		{	// return const reference to first

	push	ebp
	mov	ebp, esp
	push	ecx
	mov	DWORD PTR [ebp-4], -858993460		; ccccccccH
	mov	DWORD PTR _this$[ebp], ecx

; 297  : 		return (*this);

	mov	eax, DWORD PTR _this$[ebp]

; 298  : 		}

	mov	esp, ebp
	pop	ebp
	ret	0
?_Get_first@?$_Compressed_pair@V?$allocator@U?$_List_node@PAV?$Goal@VRaven_Bot@@@@PAX@std@@@std@@V?$_List_val@U?$_List_simple_types@PAV?$Goal@VRaven_Bot@@@@@std@@@2@$00@std@@QBEABV?$allocator@U?$_List_node@PAV?$Goal@VRaven_Bot@@@@PAX@std@@@2@XZ ENDP ; std::_Compressed_pair<std::allocator<std::_List_node<Goal<Raven_Bot> *,void *> >,std::_List_val<std::_List_simple_types<Goal<Raven_Bot> *> >,1>::_Get_first
_TEXT	ENDS
; Function compile flags: /Odtp /RTCsu
; File c:\program files (x86)\microsoft visual studio\2017\community\vc\tools\msvc\14.15.26726\include\xutility
;	COMDAT ?_Get_first@?$_Compressed_pair@V?$allocator@U?$_List_node@PAV?$Goal@VRaven_Bot@@@@PAX@std@@@std@@V?$_List_val@U?$_List_simple_types@PAV?$Goal@VRaven_Bot@@@@@std@@@2@$00@std@@QAEAAV?$allocator@U?$_List_node@PAV?$Goal@VRaven_Bot@@@@PAX@std@@@2@XZ
_TEXT	SEGMENT
_this$ = -4						; size = 4
?_Get_first@?$_Compressed_pair@V?$allocator@U?$_List_node@PAV?$Goal@VRaven_Bot@@@@PAX@std@@@std@@V?$_List_val@U?$_List_simple_types@PAV?$Goal@VRaven_Bot@@@@@std@@@2@$00@std@@QAEAAV?$allocator@U?$_List_node@PAV?$Goal@VRaven_Bot@@@@PAX@std@@@2@XZ PROC ; std::_Compressed_pair<std::allocator<std::_List_node<Goal<Raven_Bot> *,void *> >,std::_List_val<std::_List_simple_types<Goal<Raven_Bot> *> >,1>::_Get_first, COMDAT
; _this$ = ecx

; 291  : 		{	// return reference to first

	push	ebp
	mov	ebp, esp
	push	ecx
	mov	DWORD PTR [ebp-4], -858993460		; ccccccccH
	mov	DWORD PTR _this$[ebp], ecx

; 292  : 		return (*this);

	mov	eax, DWORD PTR _this$[ebp]

; 293  : 		}

	mov	esp, ebp
	pop	ebp
	ret	0
?_Get_first@?$_Compressed_pair@V?$allocator@U?$_List_node@PAV?$Goal@VRaven_Bot@@@@PAX@std@@@std@@V?$_List_val@U?$_List_simple_types@PAV?$Goal@VRaven_Bot@@@@@std@@@2@$00@std@@QAEAAV?$allocator@U?$_List_node@PAV?$Goal@VRaven_Bot@@@@PAX@std@@@2@XZ ENDP ; std::_Compressed_pair<std::allocator<std::_List_node<Goal<Raven_Bot> *,void *> >,std::_List_val<std::_List_simple_types<Goal<Raven_Bot> *> >,1>::_Get_first
_TEXT	ENDS
; Function compile flags: /Odtp /RTCsu
; File c:\program files (x86)\microsoft visual studio\2017\community\vc\tools\msvc\14.15.26726\include\list
;	COMDAT ??0?$_List_val@U?$_List_simple_types@PAV?$Goal@VRaven_Bot@@@@@std@@@std@@QAE@XZ
_TEXT	SEGMENT
_this$ = -4						; size = 4
??0?$_List_val@U?$_List_simple_types@PAV?$Goal@VRaven_Bot@@@@@std@@@std@@QAE@XZ PROC ; std::_List_val<std::_List_simple_types<Goal<Raven_Bot> *> >::_List_val<std::_List_simple_types<Goal<Raven_Bot> *> >, COMDAT
; _this$ = ecx

; 428  : 		{	// initialize data

	push	ebp
	mov	ebp, esp
	push	ecx
	mov	DWORD PTR [ebp-4], -858993460		; ccccccccH
	mov	DWORD PTR _this$[ebp], ecx
	mov	ecx, DWORD PTR _this$[ebp]
	call	??0_Container_base12@std@@QAE@XZ	; std::_Container_base12::_Container_base12

; 426  : 		: _Myhead(),

	mov	eax, DWORD PTR _this$[ebp]
	mov	DWORD PTR [eax+4], 0

; 427  : 		_Mysize(0)

	mov	ecx, DWORD PTR _this$[ebp]
	mov	DWORD PTR [ecx+8], 0

; 429  : 		}

	mov	eax, DWORD PTR _this$[ebp]
	add	esp, 4
	cmp	ebp, esp
	call	__RTC_CheckEsp
	mov	esp, ebp
	pop	ebp
	ret	0
??0?$_List_val@U?$_List_simple_types@PAV?$Goal@VRaven_Bot@@@@@std@@@std@@QAE@XZ ENDP ; std::_List_val<std::_List_simple_types<Goal<Raven_Bot> *> >::_List_val<std::_List_simple_types<Goal<Raven_Bot> *> >
_TEXT	ENDS
; Function compile flags: /Odtp /RTCsu
; File c:\program files (x86)\microsoft visual studio\2017\community\vc\tools\msvc\14.15.26726\include\list
;	COMDAT ?_Mysize@?$_List_alloc@U?$_List_base_types@PAV?$Goal@VRaven_Bot@@@@V?$allocator@PAV?$Goal@VRaven_Bot@@@@@std@@@std@@@std@@QBEABIXZ
_TEXT	SEGMENT
_this$ = -4						; size = 4
?_Mysize@?$_List_alloc@U?$_List_base_types@PAV?$Goal@VRaven_Bot@@@@V?$allocator@PAV?$Goal@VRaven_Bot@@@@@std@@@std@@@std@@QBEABIXZ PROC ; std::_List_alloc<std::_List_base_types<Goal<Raven_Bot> *,std::allocator<Goal<Raven_Bot> *> > >::_Mysize, COMDAT
; _this$ = ecx

; 676  : 		{	// return const reference to _Mysize

	push	ebp
	mov	ebp, esp
	push	ecx
	mov	DWORD PTR [ebp-4], -858993460		; ccccccccH
	mov	DWORD PTR _this$[ebp], ecx

; 677  : 		return (_Get_data()._Mysize);

	mov	ecx, DWORD PTR _this$[ebp]
	call	?_Get_data@?$_List_alloc@U?$_List_base_types@PAV?$Goal@VRaven_Bot@@@@V?$allocator@PAV?$Goal@VRaven_Bot@@@@@std@@@std@@@std@@QBEABV?$_List_val@U?$_List_simple_types@PAV?$Goal@VRaven_Bot@@@@@std@@@2@XZ ; std::_List_alloc<std::_List_base_types<Goal<Raven_Bot> *,std::allocator<Goal<Raven_Bot> *> > >::_Get_data
	add	eax, 8

; 678  : 		}

	add	esp, 4
	cmp	ebp, esp
	call	__RTC_CheckEsp
	mov	esp, ebp
	pop	ebp
	ret	0
?_Mysize@?$_List_alloc@U?$_List_base_types@PAV?$Goal@VRaven_Bot@@@@V?$allocator@PAV?$Goal@VRaven_Bot@@@@@std@@@std@@@std@@QBEABIXZ ENDP ; std::_List_alloc<std::_List_base_types<Goal<Raven_Bot> *,std::allocator<Goal<Raven_Bot> *> > >::_Mysize
_TEXT	ENDS
; Function compile flags: /Odtp /RTCsu
; File c:\program files (x86)\microsoft visual studio\2017\community\vc\tools\msvc\14.15.26726\include\list
;	COMDAT ?_Mysize@?$_List_alloc@U?$_List_base_types@PAV?$Goal@VRaven_Bot@@@@V?$allocator@PAV?$Goal@VRaven_Bot@@@@@std@@@std@@@std@@QAEAAIXZ
_TEXT	SEGMENT
_this$ = -4						; size = 4
?_Mysize@?$_List_alloc@U?$_List_base_types@PAV?$Goal@VRaven_Bot@@@@V?$allocator@PAV?$Goal@VRaven_Bot@@@@@std@@@std@@@std@@QAEAAIXZ PROC ; std::_List_alloc<std::_List_base_types<Goal<Raven_Bot> *,std::allocator<Goal<Raven_Bot> *> > >::_Mysize, COMDAT
; _this$ = ecx

; 671  : 		{	// return reference to _Mysize

	push	ebp
	mov	ebp, esp
	push	ecx
	mov	DWORD PTR [ebp-4], -858993460		; ccccccccH
	mov	DWORD PTR _this$[ebp], ecx

; 672  : 		return (_Get_data()._Mysize);

	mov	ecx, DWORD PTR _this$[ebp]
	call	?_Get_data@?$_List_alloc@U?$_List_base_types@PAV?$Goal@VRaven_Bot@@@@V?$allocator@PAV?$Goal@VRaven_Bot@@@@@std@@@std@@@std@@QAEAAV?$_List_val@U?$_List_simple_types@PAV?$Goal@VRaven_Bot@@@@@std@@@2@XZ ; std::_List_alloc<std::_List_base_types<Goal<Raven_Bot> *,std::allocator<Goal<Raven_Bot> *> > >::_Get_data
	add	eax, 8

; 673  : 		}

	add	esp, 4
	cmp	ebp, esp
	call	__RTC_CheckEsp
	mov	esp, ebp
	pop	ebp
	ret	0
?_Mysize@?$_List_alloc@U?$_List_base_types@PAV?$Goal@VRaven_Bot@@@@V?$allocator@PAV?$Goal@VRaven_Bot@@@@@std@@@std@@@std@@QAEAAIXZ ENDP ; std::_List_alloc<std::_List_base_types<Goal<Raven_Bot> *,std::allocator<Goal<Raven_Bot> *> > >::_Mysize
_TEXT	ENDS
; Function compile flags: /Odtp /RTCsu
; File c:\program files (x86)\microsoft visual studio\2017\community\vc\tools\msvc\14.15.26726\include\list
;	COMDAT ?_Myhead@?$_List_alloc@U?$_List_base_types@PAV?$Goal@VRaven_Bot@@@@V?$allocator@PAV?$Goal@VRaven_Bot@@@@@std@@@std@@@std@@QBEABQAU?$_List_node@PAV?$Goal@VRaven_Bot@@@@PAX@2@XZ
_TEXT	SEGMENT
_this$ = -4						; size = 4
?_Myhead@?$_List_alloc@U?$_List_base_types@PAV?$Goal@VRaven_Bot@@@@V?$allocator@PAV?$Goal@VRaven_Bot@@@@@std@@@std@@@std@@QBEABQAU?$_List_node@PAV?$Goal@VRaven_Bot@@@@PAX@2@XZ PROC ; std::_List_alloc<std::_List_base_types<Goal<Raven_Bot> *,std::allocator<Goal<Raven_Bot> *> > >::_Myhead, COMDAT
; _this$ = ecx

; 666  : 		{	// return const reference to _Myhead

	push	ebp
	mov	ebp, esp
	push	ecx
	mov	DWORD PTR [ebp-4], -858993460		; ccccccccH
	mov	DWORD PTR _this$[ebp], ecx

; 667  : 		return (_Get_data()._Myhead);

	mov	ecx, DWORD PTR _this$[ebp]
	call	?_Get_data@?$_List_alloc@U?$_List_base_types@PAV?$Goal@VRaven_Bot@@@@V?$allocator@PAV?$Goal@VRaven_Bot@@@@@std@@@std@@@std@@QBEABV?$_List_val@U?$_List_simple_types@PAV?$Goal@VRaven_Bot@@@@@std@@@2@XZ ; std::_List_alloc<std::_List_base_types<Goal<Raven_Bot> *,std::allocator<Goal<Raven_Bot> *> > >::_Get_data
	add	eax, 4

; 668  : 		}

	add	esp, 4
	cmp	ebp, esp
	call	__RTC_CheckEsp
	mov	esp, ebp
	pop	ebp
	ret	0
?_Myhead@?$_List_alloc@U?$_List_base_types@PAV?$Goal@VRaven_Bot@@@@V?$allocator@PAV?$Goal@VRaven_Bot@@@@@std@@@std@@@std@@QBEABQAU?$_List_node@PAV?$Goal@VRaven_Bot@@@@PAX@2@XZ ENDP ; std::_List_alloc<std::_List_base_types<Goal<Raven_Bot> *,std::allocator<Goal<Raven_Bot> *> > >::_Myhead
_TEXT	ENDS
; Function compile flags: /Odtp /RTCsu
; File c:\program files (x86)\microsoft visual studio\2017\community\vc\tools\msvc\14.15.26726\include\list
;	COMDAT ?_Myhead@?$_List_alloc@U?$_List_base_types@PAV?$Goal@VRaven_Bot@@@@V?$allocator@PAV?$Goal@VRaven_Bot@@@@@std@@@std@@@std@@QAEAAPAU?$_List_node@PAV?$Goal@VRaven_Bot@@@@PAX@2@XZ
_TEXT	SEGMENT
_this$ = -4						; size = 4
?_Myhead@?$_List_alloc@U?$_List_base_types@PAV?$Goal@VRaven_Bot@@@@V?$allocator@PAV?$Goal@VRaven_Bot@@@@@std@@@std@@@std@@QAEAAPAU?$_List_node@PAV?$Goal@VRaven_Bot@@@@PAX@2@XZ PROC ; std::_List_alloc<std::_List_base_types<Goal<Raven_Bot> *,std::allocator<Goal<Raven_Bot> *> > >::_Myhead, COMDAT
; _this$ = ecx

; 661  : 		{	// return reference to _Myhead

	push	ebp
	mov	ebp, esp
	push	ecx
	mov	DWORD PTR [ebp-4], -858993460		; ccccccccH
	mov	DWORD PTR _this$[ebp], ecx

; 662  : 		return (_Get_data()._Myhead);

	mov	ecx, DWORD PTR _this$[ebp]
	call	?_Get_data@?$_List_alloc@U?$_List_base_types@PAV?$Goal@VRaven_Bot@@@@V?$allocator@PAV?$Goal@VRaven_Bot@@@@@std@@@std@@@std@@QAEAAV?$_List_val@U?$_List_simple_types@PAV?$Goal@VRaven_Bot@@@@@std@@@2@XZ ; std::_List_alloc<std::_List_base_types<Goal<Raven_Bot> *,std::allocator<Goal<Raven_Bot> *> > >::_Get_data
	add	eax, 4

; 663  : 		}

	add	esp, 4
	cmp	ebp, esp
	call	__RTC_CheckEsp
	mov	esp, ebp
	pop	ebp
	ret	0
?_Myhead@?$_List_alloc@U?$_List_base_types@PAV?$Goal@VRaven_Bot@@@@V?$allocator@PAV?$Goal@VRaven_Bot@@@@@std@@@std@@@std@@QAEAAPAU?$_List_node@PAV?$Goal@VRaven_Bot@@@@PAX@2@XZ ENDP ; std::_List_alloc<std::_List_base_types<Goal<Raven_Bot> *,std::allocator<Goal<Raven_Bot> *> > >::_Myhead
_TEXT	ENDS
; Function compile flags: /Odtp /RTCsu
; File c:\program files (x86)\microsoft visual studio\2017\community\vc\tools\msvc\14.15.26726\include\list
;	COMDAT ?_Get_data@?$_List_alloc@U?$_List_base_types@PAV?$Goal@VRaven_Bot@@@@V?$allocator@PAV?$Goal@VRaven_Bot@@@@@std@@@std@@@std@@QBEABV?$_List_val@U?$_List_simple_types@PAV?$Goal@VRaven_Bot@@@@@std@@@2@XZ
_TEXT	SEGMENT
_this$ = -4						; size = 4
?_Get_data@?$_List_alloc@U?$_List_base_types@PAV?$Goal@VRaven_Bot@@@@V?$allocator@PAV?$Goal@VRaven_Bot@@@@@std@@@std@@@std@@QBEABV?$_List_val@U?$_List_simple_types@PAV?$Goal@VRaven_Bot@@@@@std@@@2@XZ PROC ; std::_List_alloc<std::_List_base_types<Goal<Raven_Bot> *,std::allocator<Goal<Raven_Bot> *> > >::_Get_data, COMDAT
; _this$ = ecx

; 656  : 		{	// return const reference to _List_val

	push	ebp
	mov	ebp, esp
	push	ecx
	mov	DWORD PTR [ebp-4], -858993460		; ccccccccH
	mov	DWORD PTR _this$[ebp], ecx

; 657  : 		return (_Mypair._Get_second());

	mov	ecx, DWORD PTR _this$[ebp]
	call	?_Get_second@?$_Compressed_pair@V?$allocator@U?$_List_node@PAV?$Goal@VRaven_Bot@@@@PAX@std@@@std@@V?$_List_val@U?$_List_simple_types@PAV?$Goal@VRaven_Bot@@@@@std@@@2@$00@std@@QBEABV?$_List_val@U?$_List_simple_types@PAV?$Goal@VRaven_Bot@@@@@std@@@2@XZ ; std::_Compressed_pair<std::allocator<std::_List_node<Goal<Raven_Bot> *,void *> >,std::_List_val<std::_List_simple_types<Goal<Raven_Bot> *> >,1>::_Get_second

; 658  : 		}

	add	esp, 4
	cmp	ebp, esp
	call	__RTC_CheckEsp
	mov	esp, ebp
	pop	ebp
	ret	0
?_Get_data@?$_List_alloc@U?$_List_base_types@PAV?$Goal@VRaven_Bot@@@@V?$allocator@PAV?$Goal@VRaven_Bot@@@@@std@@@std@@@std@@QBEABV?$_List_val@U?$_List_simple_types@PAV?$Goal@VRaven_Bot@@@@@std@@@2@XZ ENDP ; std::_List_alloc<std::_List_base_types<Goal<Raven_Bot> *,std::allocator<Goal<Raven_Bot> *> > >::_Get_data
_TEXT	ENDS
; Function compile flags: /Odtp /RTCsu
; File c:\program files (x86)\microsoft visual studio\2017\community\vc\tools\msvc\14.15.26726\include\list
;	COMDAT ?_Get_data@?$_List_alloc@U?$_List_base_types@PAV?$Goal@VRaven_Bot@@@@V?$allocator@PAV?$Goal@VRaven_Bot@@@@@std@@@std@@@std@@QAEAAV?$_List_val@U?$_List_simple_types@PAV?$Goal@VRaven_Bot@@@@@std@@@2@XZ
_TEXT	SEGMENT
_this$ = -4						; size = 4
?_Get_data@?$_List_alloc@U?$_List_base_types@PAV?$Goal@VRaven_Bot@@@@V?$allocator@PAV?$Goal@VRaven_Bot@@@@@std@@@std@@@std@@QAEAAV?$_List_val@U?$_List_simple_types@PAV?$Goal@VRaven_Bot@@@@@std@@@2@XZ PROC ; std::_List_alloc<std::_List_base_types<Goal<Raven_Bot> *,std::allocator<Goal<Raven_Bot> *> > >::_Get_data, COMDAT
; _this$ = ecx

; 651  : 		{	// return reference to _List_val

	push	ebp
	mov	ebp, esp
	push	ecx
	mov	DWORD PTR [ebp-4], -858993460		; ccccccccH
	mov	DWORD PTR _this$[ebp], ecx

; 652  : 		return (_Mypair._Get_second());

	mov	ecx, DWORD PTR _this$[ebp]
	call	?_Get_second@?$_Compressed_pair@V?$allocator@U?$_List_node@PAV?$Goal@VRaven_Bot@@@@PAX@std@@@std@@V?$_List_val@U?$_List_simple_types@PAV?$Goal@VRaven_Bot@@@@@std@@@2@$00@std@@QAEAAV?$_List_val@U?$_List_simple_types@PAV?$Goal@VRaven_Bot@@@@@std@@@2@XZ ; std::_Compressed_pair<std::allocator<std::_List_node<Goal<Raven_Bot> *,void *> >,std::_List_val<std::_List_simple_types<Goal<Raven_Bot> *> >,1>::_Get_second

; 653  : 		}

	add	esp, 4
	cmp	ebp, esp
	call	__RTC_CheckEsp
	mov	esp, ebp
	pop	ebp
	ret	0
?_Get_data@?$_List_alloc@U?$_List_base_types@PAV?$Goal@VRaven_Bot@@@@V?$allocator@PAV?$Goal@VRaven_Bot@@@@@std@@@std@@@std@@QAEAAV?$_List_val@U?$_List_simple_types@PAV?$Goal@VRaven_Bot@@@@@std@@@2@XZ ENDP ; std::_List_alloc<std::_List_base_types<Goal<Raven_Bot> *,std::allocator<Goal<Raven_Bot> *> > >::_Get_data
_TEXT	ENDS
; Function compile flags: /Odtp /RTCsu
; File c:\program files (x86)\microsoft visual studio\2017\community\vc\tools\msvc\14.15.26726\include\list
;	COMDAT ?_Getal@?$_List_alloc@U?$_List_base_types@PAV?$Goal@VRaven_Bot@@@@V?$allocator@PAV?$Goal@VRaven_Bot@@@@@std@@@std@@@std@@QBEABV?$allocator@U?$_List_node@PAV?$Goal@VRaven_Bot@@@@PAX@std@@@2@XZ
_TEXT	SEGMENT
_this$ = -4						; size = 4
?_Getal@?$_List_alloc@U?$_List_base_types@PAV?$Goal@VRaven_Bot@@@@V?$allocator@PAV?$Goal@VRaven_Bot@@@@@std@@@std@@@std@@QBEABV?$allocator@U?$_List_node@PAV?$Goal@VRaven_Bot@@@@PAX@std@@@2@XZ PROC ; std::_List_alloc<std::_List_base_types<Goal<Raven_Bot> *,std::allocator<Goal<Raven_Bot> *> > >::_Getal, COMDAT
; _this$ = ecx

; 646  : 		{	// return const reference to allocator

	push	ebp
	mov	ebp, esp
	push	ecx
	mov	DWORD PTR [ebp-4], -858993460		; ccccccccH
	mov	DWORD PTR _this$[ebp], ecx

; 647  : 		return (_Mypair._Get_first());

	mov	ecx, DWORD PTR _this$[ebp]
	call	?_Get_first@?$_Compressed_pair@V?$allocator@U?$_List_node@PAV?$Goal@VRaven_Bot@@@@PAX@std@@@std@@V?$_List_val@U?$_List_simple_types@PAV?$Goal@VRaven_Bot@@@@@std@@@2@$00@std@@QBEABV?$allocator@U?$_List_node@PAV?$Goal@VRaven_Bot@@@@PAX@std@@@2@XZ ; std::_Compressed_pair<std::allocator<std::_List_node<Goal<Raven_Bot> *,void *> >,std::_List_val<std::_List_simple_types<Goal<Raven_Bot> *> >,1>::_Get_first

; 648  : 		}

	add	esp, 4
	cmp	ebp, esp
	call	__RTC_CheckEsp
	mov	esp, ebp
	pop	ebp
	ret	0
?_Getal@?$_List_alloc@U?$_List_base_types@PAV?$Goal@VRaven_Bot@@@@V?$allocator@PAV?$Goal@VRaven_Bot@@@@@std@@@std@@@std@@QBEABV?$allocator@U?$_List_node@PAV?$Goal@VRaven_Bot@@@@PAX@std@@@2@XZ ENDP ; std::_List_alloc<std::_List_base_types<Goal<Raven_Bot> *,std::allocator<Goal<Raven_Bot> *> > >::_Getal
_TEXT	ENDS
; Function compile flags: /Odtp /RTCsu
; File c:\program files (x86)\microsoft visual studio\2017\community\vc\tools\msvc\14.15.26726\include\list
;	COMDAT ?_Getal@?$_List_alloc@U?$_List_base_types@PAV?$Goal@VRaven_Bot@@@@V?$allocator@PAV?$Goal@VRaven_Bot@@@@@std@@@std@@@std@@QAEAAV?$allocator@U?$_List_node@PAV?$Goal@VRaven_Bot@@@@PAX@std@@@2@XZ
_TEXT	SEGMENT
_this$ = -4						; size = 4
?_Getal@?$_List_alloc@U?$_List_base_types@PAV?$Goal@VRaven_Bot@@@@V?$allocator@PAV?$Goal@VRaven_Bot@@@@@std@@@std@@@std@@QAEAAV?$allocator@U?$_List_node@PAV?$Goal@VRaven_Bot@@@@PAX@std@@@2@XZ PROC ; std::_List_alloc<std::_List_base_types<Goal<Raven_Bot> *,std::allocator<Goal<Raven_Bot> *> > >::_Getal, COMDAT
; _this$ = ecx

; 641  : 		{	// return reference to allocator

	push	ebp
	mov	ebp, esp
	push	ecx
	mov	DWORD PTR [ebp-4], -858993460		; ccccccccH
	mov	DWORD PTR _this$[ebp], ecx

; 642  : 		return (_Mypair._Get_first());

	mov	ecx, DWORD PTR _this$[ebp]
	call	?_Get_first@?$_Compressed_pair@V?$allocator@U?$_List_node@PAV?$Goal@VRaven_Bot@@@@PAX@std@@@std@@V?$_List_val@U?$_List_simple_types@PAV?$Goal@VRaven_Bot@@@@@std@@@2@$00@std@@QAEAAV?$allocator@U?$_List_node@PAV?$Goal@VRaven_Bot@@@@PAX@std@@@2@XZ ; std::_Compressed_pair<std::allocator<std::_List_node<Goal<Raven_Bot> *,void *> >,std::_List_val<std::_List_simple_types<Goal<Raven_Bot> *> >,1>::_Get_first

; 643  : 		}

	add	esp, 4
	cmp	ebp, esp
	call	__RTC_CheckEsp
	mov	esp, ebp
	pop	ebp
	ret	0
?_Getal@?$_List_alloc@U?$_List_base_types@PAV?$Goal@VRaven_Bot@@@@V?$allocator@PAV?$Goal@VRaven_Bot@@@@@std@@@std@@@std@@QAEAAV?$allocator@U?$_List_node@PAV?$Goal@VRaven_Bot@@@@PAX@std@@@2@XZ ENDP ; std::_List_alloc<std::_List_base_types<Goal<Raven_Bot> *,std::allocator<Goal<Raven_Bot> *> > >::_Getal
_TEXT	ENDS
; Function compile flags: /Odtp /RTCsu
; File c:\program files (x86)\microsoft visual studio\2017\community\vc\tools\msvc\14.15.26726\include\list
;	COMDAT ?_Orphan_all@?$_List_alloc@U?$_List_base_types@PAV?$Goal@VRaven_Bot@@@@V?$allocator@PAV?$Goal@VRaven_Bot@@@@@std@@@std@@@std@@QAEXXZ
_TEXT	SEGMENT
_this$ = -4						; size = 4
?_Orphan_all@?$_List_alloc@U?$_List_base_types@PAV?$Goal@VRaven_Bot@@@@V?$allocator@PAV?$Goal@VRaven_Bot@@@@@std@@@std@@@std@@QAEXXZ PROC ; std::_List_alloc<std::_List_base_types<Goal<Raven_Bot> *,std::allocator<Goal<Raven_Bot> *> > >::_Orphan_all, COMDAT
; _this$ = ecx

; 631  : 		{	// orphan all iterators

	push	ebp
	mov	ebp, esp
	push	ecx
	mov	DWORD PTR [ebp-4], -858993460		; ccccccccH
	mov	DWORD PTR _this$[ebp], ecx

; 632  : 		_Get_data()._Orphan_all();

	mov	ecx, DWORD PTR _this$[ebp]
	call	?_Get_data@?$_List_alloc@U?$_List_base_types@PAV?$Goal@VRaven_Bot@@@@V?$allocator@PAV?$Goal@VRaven_Bot@@@@@std@@@std@@@std@@QAEAAV?$_List_val@U?$_List_simple_types@PAV?$Goal@VRaven_Bot@@@@@std@@@2@XZ ; std::_List_alloc<std::_List_base_types<Goal<Raven_Bot> *,std::allocator<Goal<Raven_Bot> *> > >::_Get_data
	mov	ecx, eax
	call	?_Orphan_all@_Container_base12@std@@QAEXXZ ; std::_Container_base12::_Orphan_all

; 633  : 		}

	add	esp, 4
	cmp	ebp, esp
	call	__RTC_CheckEsp
	mov	esp, ebp
	pop	ebp
	ret	0
?_Orphan_all@?$_List_alloc@U?$_List_base_types@PAV?$Goal@VRaven_Bot@@@@V?$allocator@PAV?$Goal@VRaven_Bot@@@@@std@@@std@@@std@@QAEXXZ ENDP ; std::_List_alloc<std::_List_base_types<Goal<Raven_Bot> *,std::allocator<Goal<Raven_Bot> *> > >::_Orphan_all
_TEXT	ENDS
; Function compile flags: /Odtp /RTCsu
; File c:\program files (x86)\microsoft visual studio\2017\community\vc\tools\msvc\14.15.26726\include\list
;	COMDAT ?_Buynode0@?$_List_alloc@U?$_List_base_types@PAV?$Goal@VRaven_Bot@@@@V?$allocator@PAV?$Goal@VRaven_Bot@@@@@std@@@std@@@std@@QAEPAU?$_List_node@PAV?$Goal@VRaven_Bot@@@@PAX@2@PAU32@0@Z
_TEXT	SEGMENT
__Al$ = -28						; size = 4
__Pnode$ = -24						; size = 4
_this$ = -20						; size = 4
__$EHRec$ = -16						; size = 16
__Next$ = 8						; size = 4
__Prev$ = 12						; size = 4
?_Buynode0@?$_List_alloc@U?$_List_base_types@PAV?$Goal@VRaven_Bot@@@@V?$allocator@PAV?$Goal@VRaven_Bot@@@@@std@@@std@@@std@@QAEPAU?$_List_node@PAV?$Goal@VRaven_Bot@@@@PAX@2@PAU32@0@Z PROC ; std::_List_alloc<std::_List_base_types<Goal<Raven_Bot> *,std::allocator<Goal<Raven_Bot> *> > >::_Buynode0, COMDAT
; _this$ = ecx

; 609  : 		{	// allocate a node and set links

	push	ebp
	mov	ebp, esp
	push	-1
	push	__ehhandler$?_Buynode0@?$_List_alloc@U?$_List_base_types@PAV?$Goal@VRaven_Bot@@@@V?$allocator@PAV?$Goal@VRaven_Bot@@@@@std@@@std@@@std@@QAEPAU?$_List_node@PAV?$Goal@VRaven_Bot@@@@PAX@2@PAU32@0@Z
	mov	eax, DWORD PTR fs:0
	push	eax
	push	ecx
	sub	esp, 12					; 0000000cH
	push	ebx
	push	esi
	push	edi
	mov	DWORD PTR [ebp-28], -858993460		; ccccccccH
	mov	DWORD PTR [ebp-24], -858993460		; ccccccccH
	mov	DWORD PTR [ebp-20], -858993460		; ccccccccH
	mov	eax, DWORD PTR ___security_cookie
	xor	eax, ebp
	push	eax
	lea	eax, DWORD PTR __$EHRec$[ebp+4]
	mov	DWORD PTR fs:0, eax
	mov	DWORD PTR __$EHRec$[ebp], esp
	mov	DWORD PTR _this$[ebp], ecx

; 610  : 		_Nodeptr _Pnode = _Getal().allocate(1);

	push	1
	mov	ecx, DWORD PTR _this$[ebp]
	call	?_Getal@?$_List_alloc@U?$_List_base_types@PAV?$Goal@VRaven_Bot@@@@V?$allocator@PAV?$Goal@VRaven_Bot@@@@@std@@@std@@@std@@QAEAAV?$allocator@U?$_List_node@PAV?$Goal@VRaven_Bot@@@@PAX@std@@@2@XZ ; std::_List_alloc<std::_List_base_types<Goal<Raven_Bot> *,std::allocator<Goal<Raven_Bot> *> > >::_Getal
	mov	ecx, eax
	call	?allocate@?$allocator@U?$_List_node@PAV?$Goal@VRaven_Bot@@@@PAX@std@@@std@@QAEPAU?$_List_node@PAV?$Goal@VRaven_Bot@@@@PAX@2@I@Z ; std::allocator<std::_List_node<Goal<Raven_Bot> *,void *> >::allocate
	mov	DWORD PTR __Pnode$[ebp], eax

; 611  : 
; 612  : 		if (_Next == _Nodeptr())

	cmp	DWORD PTR __Next$[ebp], 0
	jne	SHORT $LN2@Buynode0

; 613  : 			{	// point at self
; 614  : 			_Next = _Pnode;

	mov	eax, DWORD PTR __Pnode$[ebp]
	mov	DWORD PTR __Next$[ebp], eax

; 615  : 			_Prev = _Pnode;

	mov	ecx, DWORD PTR __Pnode$[ebp]
	mov	DWORD PTR __Prev$[ebp], ecx
$LN2@Buynode0:

; 616  : 			}
; 617  : 
; 618  : 		_Alnode& _Al = _Getal();

	mov	ecx, DWORD PTR _this$[ebp]
	call	?_Getal@?$_List_alloc@U?$_List_base_types@PAV?$Goal@VRaven_Bot@@@@V?$allocator@PAV?$Goal@VRaven_Bot@@@@@std@@@std@@@std@@QAEAAV?$allocator@U?$_List_node@PAV?$Goal@VRaven_Bot@@@@PAX@std@@@2@XZ ; std::_List_alloc<std::_List_base_types<Goal<Raven_Bot> *,std::allocator<Goal<Raven_Bot> *> > >::_Getal
	mov	DWORD PTR __Al$[ebp], eax

; 619  : 		_TRY_BEGIN

	mov	DWORD PTR __$EHRec$[ebp+12], 0

; 620  : 		_Alnode_traits::construct(_Al, _STD addressof(_Pnode->_Next), _Next);

	lea	edx, DWORD PTR __Next$[ebp]
	push	edx
	mov	eax, DWORD PTR __Pnode$[ebp]
	push	eax
	call	??$addressof@PAU?$_List_node@PAV?$Goal@VRaven_Bot@@@@PAX@std@@@std@@YAPAPAU?$_List_node@PAV?$Goal@VRaven_Bot@@@@PAX@0@AAPAU10@@Z ; std::addressof<std::_List_node<Goal<Raven_Bot> *,void *> *>
	add	esp, 4
	push	eax
	mov	ecx, DWORD PTR __Al$[ebp]
	push	ecx
	call	??$construct@PAU?$_List_node@PAV?$Goal@VRaven_Bot@@@@PAX@std@@AAPAU12@@?$_Default_allocator_traits@V?$allocator@U?$_List_node@PAV?$Goal@VRaven_Bot@@@@PAX@std@@@std@@@std@@SAXAAV?$allocator@U?$_List_node@PAV?$Goal@VRaven_Bot@@@@PAX@std@@@1@QAPAU?$_List_node@PAV?$Goal@VRaven_Bot@@@@PAX@1@AAPAU31@@Z ; std::_Default_allocator_traits<std::allocator<std::_List_node<Goal<Raven_Bot> *,void *> > >::construct<std::_List_node<Goal<Raven_Bot> *,void *> *,std::_List_node<Goal<Raven_Bot> *,void *> * &>
	add	esp, 12					; 0000000cH

; 621  : 		_Alnode_traits::construct(_Al, _STD addressof(_Pnode->_Prev), _Prev);

	lea	edx, DWORD PTR __Prev$[ebp]
	push	edx
	mov	eax, DWORD PTR __Pnode$[ebp]
	add	eax, 4
	push	eax
	call	??$addressof@PAU?$_List_node@PAV?$Goal@VRaven_Bot@@@@PAX@std@@@std@@YAPAPAU?$_List_node@PAV?$Goal@VRaven_Bot@@@@PAX@0@AAPAU10@@Z ; std::addressof<std::_List_node<Goal<Raven_Bot> *,void *> *>
	add	esp, 4
	push	eax
	mov	ecx, DWORD PTR __Al$[ebp]
	push	ecx
	call	??$construct@PAU?$_List_node@PAV?$Goal@VRaven_Bot@@@@PAX@std@@AAPAU12@@?$_Default_allocator_traits@V?$allocator@U?$_List_node@PAV?$Goal@VRaven_Bot@@@@PAX@std@@@std@@@std@@SAXAAV?$allocator@U?$_List_node@PAV?$Goal@VRaven_Bot@@@@PAX@std@@@1@QAPAU?$_List_node@PAV?$Goal@VRaven_Bot@@@@PAX@1@AAPAU31@@Z ; std::_Default_allocator_traits<std::allocator<std::_List_node<Goal<Raven_Bot> *,void *> > >::construct<std::_List_node<Goal<Raven_Bot> *,void *> *,std::_List_node<Goal<Raven_Bot> *,void *> * &>
	add	esp, 12					; 0000000cH
	jmp	SHORT $LN5@Buynode0
__catch$?_Buynode0@?$_List_alloc@U?$_List_base_types@PAV?$Goal@VRaven_Bot@@@@V?$allocator@PAV?$Goal@VRaven_Bot@@@@@std@@@std@@@std@@QAEPAU?$_List_node@PAV?$Goal@VRaven_Bot@@@@PAX@2@PAU32@0@Z$0:

; 622  : 		_CATCH_ALL
; 623  : 		_Al.deallocate(_Pnode, 1);

	push	1
	mov	edx, DWORD PTR __Pnode$[ebp]
	push	edx
	mov	ecx, DWORD PTR __Al$[ebp]
	call	?deallocate@?$allocator@U?$_List_node@PAV?$Goal@VRaven_Bot@@@@PAX@std@@@std@@QAEXQAU?$_List_node@PAV?$Goal@VRaven_Bot@@@@PAX@2@I@Z ; std::allocator<std::_List_node<Goal<Raven_Bot> *,void *> >::deallocate

; 624  : 		_RERAISE;

	push	0
	push	0
	call	__CxxThrowException@8

; 625  : 		_CATCH_END

	mov	eax, $LN8@Buynode0
	ret	0
$LN5@Buynode0:
	mov	DWORD PTR __$EHRec$[ebp+12], -1
	jmp	SHORT __tryend$?_Buynode0@?$_List_alloc@U?$_List_base_types@PAV?$Goal@VRaven_Bot@@@@V?$allocator@PAV?$Goal@VRaven_Bot@@@@@std@@@std@@@std@@QAEPAU?$_List_node@PAV?$Goal@VRaven_Bot@@@@PAX@2@PAU32@0@Z$1
$LN8@Buynode0:
	mov	DWORD PTR __$EHRec$[ebp+12], -1
__tryend$?_Buynode0@?$_List_alloc@U?$_List_base_types@PAV?$Goal@VRaven_Bot@@@@V?$allocator@PAV?$Goal@VRaven_Bot@@@@@std@@@std@@@std@@QAEPAU?$_List_node@PAV?$Goal@VRaven_Bot@@@@PAX@2@PAU32@0@Z$1:

; 626  : 
; 627  : 		return (_Pnode);

	mov	eax, DWORD PTR __Pnode$[ebp]
$LN4@Buynode0:

; 628  : 		}

	mov	ecx, DWORD PTR __$EHRec$[ebp+4]
	mov	DWORD PTR fs:0, ecx
	pop	ecx
	pop	edi
	pop	esi
	pop	ebx
	add	esp, 28					; 0000001cH
	cmp	ebp, esp
	call	__RTC_CheckEsp
	mov	esp, ebp
	pop	ebp
	ret	8
_TEXT	ENDS
;	COMDAT text$x
text$x	SEGMENT
__ehhandler$?_Buynode0@?$_List_alloc@U?$_List_base_types@PAV?$Goal@VRaven_Bot@@@@V?$allocator@PAV?$Goal@VRaven_Bot@@@@@std@@@std@@@std@@QAEPAU?$_List_node@PAV?$Goal@VRaven_Bot@@@@PAX@2@PAU32@0@Z:
	mov	edx, DWORD PTR [esp+8]
	lea	eax, DWORD PTR [edx+12]
	mov	ecx, DWORD PTR [edx-32]
	xor	ecx, eax
	call	@__security_check_cookie@4
	mov	eax, OFFSET __ehfuncinfo$?_Buynode0@?$_List_alloc@U?$_List_base_types@PAV?$Goal@VRaven_Bot@@@@V?$allocator@PAV?$Goal@VRaven_Bot@@@@@std@@@std@@@std@@QAEPAU?$_List_node@PAV?$Goal@VRaven_Bot@@@@PAX@2@PAU32@0@Z
	jmp	___CxxFrameHandler3
text$x	ENDS
?_Buynode0@?$_List_alloc@U?$_List_base_types@PAV?$Goal@VRaven_Bot@@@@V?$allocator@PAV?$Goal@VRaven_Bot@@@@@std@@@std@@@std@@QAEPAU?$_List_node@PAV?$Goal@VRaven_Bot@@@@PAX@2@PAU32@0@Z ENDP ; std::_List_alloc<std::_List_base_types<Goal<Raven_Bot> *,std::allocator<Goal<Raven_Bot> *> > >::_Buynode0
; Function compile flags: /Odtp /RTCsu
; File c:\program files (x86)\microsoft visual studio\2017\community\vc\tools\msvc\14.15.26726\include\list
;	COMDAT ?_Freeheadnode@?$_List_alloc@U?$_List_base_types@PAV?$Goal@VRaven_Bot@@@@V?$allocator@PAV?$Goal@VRaven_Bot@@@@@std@@@std@@@std@@QAEXPAU?$_List_node@PAV?$Goal@VRaven_Bot@@@@PAX@2@@Z
_TEXT	SEGMENT
_this$ = -4						; size = 4
__Pnode$ = 8						; size = 4
?_Freeheadnode@?$_List_alloc@U?$_List_base_types@PAV?$Goal@VRaven_Bot@@@@V?$allocator@PAV?$Goal@VRaven_Bot@@@@@std@@@std@@@std@@QAEXPAU?$_List_node@PAV?$Goal@VRaven_Bot@@@@PAX@2@@Z PROC ; std::_List_alloc<std::_List_base_types<Goal<Raven_Bot> *,std::allocator<Goal<Raven_Bot> *> > >::_Freeheadnode, COMDAT
; _this$ = ecx

; 604  : 		{	// free head node using current allocator

	push	ebp
	mov	ebp, esp
	push	ecx
	mov	DWORD PTR [ebp-4], -858993460		; ccccccccH
	mov	DWORD PTR _this$[ebp], ecx

; 605  : 		_Node::_Freenode0(_Getal(), _Pnode);

	mov	eax, DWORD PTR __Pnode$[ebp]
	push	eax
	mov	ecx, DWORD PTR _this$[ebp]
	call	?_Getal@?$_List_alloc@U?$_List_base_types@PAV?$Goal@VRaven_Bot@@@@V?$allocator@PAV?$Goal@VRaven_Bot@@@@@std@@@std@@@std@@QAEAAV?$allocator@U?$_List_node@PAV?$Goal@VRaven_Bot@@@@PAX@std@@@2@XZ ; std::_List_alloc<std::_List_base_types<Goal<Raven_Bot> *,std::allocator<Goal<Raven_Bot> *> > >::_Getal
	push	eax
	call	??$_Freenode0@V?$allocator@U?$_List_node@PAV?$Goal@VRaven_Bot@@@@PAX@std@@@std@@@?$_List_node@PAV?$Goal@VRaven_Bot@@@@PAX@std@@SAXAAV?$allocator@U?$_List_node@PAV?$Goal@VRaven_Bot@@@@PAX@std@@@1@PAU01@@Z ; std::_List_node<Goal<Raven_Bot> *,void *>::_Freenode0<std::allocator<std::_List_node<Goal<Raven_Bot> *,void *> > >
	add	esp, 8

; 606  : 		}

	add	esp, 4
	cmp	ebp, esp
	call	__RTC_CheckEsp
	mov	esp, ebp
	pop	ebp
	ret	4
?_Freeheadnode@?$_List_alloc@U?$_List_base_types@PAV?$Goal@VRaven_Bot@@@@V?$allocator@PAV?$Goal@VRaven_Bot@@@@@std@@@std@@@std@@QAEXPAU?$_List_node@PAV?$Goal@VRaven_Bot@@@@PAX@2@@Z ENDP ; std::_List_alloc<std::_List_base_types<Goal<Raven_Bot> *,std::allocator<Goal<Raven_Bot> *> > >::_Freeheadnode
_TEXT	ENDS
; Function compile flags: /Odtp /RTCsu
; File c:\program files (x86)\microsoft visual studio\2017\community\vc\tools\msvc\14.15.26726\include\list
;	COMDAT ?_Buyheadnode@?$_List_alloc@U?$_List_base_types@PAV?$Goal@VRaven_Bot@@@@V?$allocator@PAV?$Goal@VRaven_Bot@@@@@std@@@std@@@std@@QAEPAU?$_List_node@PAV?$Goal@VRaven_Bot@@@@PAX@2@XZ
_TEXT	SEGMENT
_this$ = -4						; size = 4
?_Buyheadnode@?$_List_alloc@U?$_List_base_types@PAV?$Goal@VRaven_Bot@@@@V?$allocator@PAV?$Goal@VRaven_Bot@@@@@std@@@std@@@std@@QAEPAU?$_List_node@PAV?$Goal@VRaven_Bot@@@@PAX@2@XZ PROC ; std::_List_alloc<std::_List_base_types<Goal<Raven_Bot> *,std::allocator<Goal<Raven_Bot> *> > >::_Buyheadnode, COMDAT
; _this$ = ecx

; 599  : 		{	// get head node using current allocator

	push	ebp
	mov	ebp, esp
	push	ecx
	mov	DWORD PTR [ebp-4], -858993460		; ccccccccH
	mov	DWORD PTR _this$[ebp], ecx

; 600  : 		return (_Buynode0(_Nodeptr(), _Nodeptr()));

	push	0
	push	0
	mov	ecx, DWORD PTR _this$[ebp]
	call	?_Buynode0@?$_List_alloc@U?$_List_base_types@PAV?$Goal@VRaven_Bot@@@@V?$allocator@PAV?$Goal@VRaven_Bot@@@@@std@@@std@@@std@@QAEPAU?$_List_node@PAV?$Goal@VRaven_Bot@@@@PAX@2@PAU32@0@Z ; std::_List_alloc<std::_List_base_types<Goal<Raven_Bot> *,std::allocator<Goal<Raven_Bot> *> > >::_Buynode0

; 601  : 		}

	add	esp, 4
	cmp	ebp, esp
	call	__RTC_CheckEsp
	mov	esp, ebp
	pop	ebp
	ret	0
?_Buyheadnode@?$_List_alloc@U?$_List_base_types@PAV?$Goal@VRaven_Bot@@@@V?$allocator@PAV?$Goal@VRaven_Bot@@@@@std@@@std@@@std@@QAEPAU?$_List_node@PAV?$Goal@VRaven_Bot@@@@PAX@2@XZ ENDP ; std::_List_alloc<std::_List_base_types<Goal<Raven_Bot> *,std::allocator<Goal<Raven_Bot> *> > >::_Buyheadnode
_TEXT	ENDS
; Function compile flags: /Odtp /RTCsu
; File c:\program files (x86)\microsoft visual studio\2017\community\vc\tools\msvc\14.15.26726\include\list
;	COMDAT ?_Myproxy@?$_List_alloc@U?$_List_base_types@PAV?$Goal@VRaven_Bot@@@@V?$allocator@PAV?$Goal@VRaven_Bot@@@@@std@@@std@@@std@@QAEAAPAU_Container_proxy@2@XZ
_TEXT	SEGMENT
_this$ = -4						; size = 4
?_Myproxy@?$_List_alloc@U?$_List_base_types@PAV?$Goal@VRaven_Bot@@@@V?$allocator@PAV?$Goal@VRaven_Bot@@@@@std@@@std@@@std@@QAEAAPAU_Container_proxy@2@XZ PROC ; std::_List_alloc<std::_List_base_types<Goal<Raven_Bot> *,std::allocator<Goal<Raven_Bot> *> > >::_Myproxy, COMDAT
; _this$ = ecx

; 548  : 		{	// return reference to _Myproxy

	push	ebp
	mov	ebp, esp
	push	ecx
	mov	DWORD PTR [ebp-4], -858993460		; ccccccccH
	mov	DWORD PTR _this$[ebp], ecx

; 549  : 		return (_Get_data()._Myproxy);

	mov	ecx, DWORD PTR _this$[ebp]
	call	?_Get_data@?$_List_alloc@U?$_List_base_types@PAV?$Goal@VRaven_Bot@@@@V?$allocator@PAV?$Goal@VRaven_Bot@@@@@std@@@std@@@std@@QAEAAV?$_List_val@U?$_List_simple_types@PAV?$Goal@VRaven_Bot@@@@@std@@@2@XZ ; std::_List_alloc<std::_List_base_types<Goal<Raven_Bot> *,std::allocator<Goal<Raven_Bot> *> > >::_Get_data

; 550  : 		}

	add	esp, 4
	cmp	ebp, esp
	call	__RTC_CheckEsp
	mov	esp, ebp
	pop	ebp
	ret	0
?_Myproxy@?$_List_alloc@U?$_List_base_types@PAV?$Goal@VRaven_Bot@@@@V?$allocator@PAV?$Goal@VRaven_Bot@@@@@std@@@std@@@std@@QAEAAPAU_Container_proxy@2@XZ ENDP ; std::_List_alloc<std::_List_base_types<Goal<Raven_Bot> *,std::allocator<Goal<Raven_Bot> *> > >::_Myproxy
_TEXT	ENDS
; Function compile flags: /Odtp /RTCsu
; File c:\program files (x86)\microsoft visual studio\2017\community\vc\tools\msvc\14.15.26726\include\list
;	COMDAT ?_Getpfirst@?$_List_alloc@U?$_List_base_types@PAV?$Goal@VRaven_Bot@@@@V?$allocator@PAV?$Goal@VRaven_Bot@@@@@std@@@std@@@std@@QBEPAPAU_Iterator_base12@2@XZ
_TEXT	SEGMENT
_this$ = -4						; size = 4
?_Getpfirst@?$_List_alloc@U?$_List_base_types@PAV?$Goal@VRaven_Bot@@@@V?$allocator@PAV?$Goal@VRaven_Bot@@@@@std@@@std@@@std@@QBEPAPAU_Iterator_base12@2@XZ PROC ; std::_List_alloc<std::_List_base_types<Goal<Raven_Bot> *,std::allocator<Goal<Raven_Bot> *> > >::_Getpfirst, COMDAT
; _this$ = ecx

; 543  : 		{	// get address of iterator chain

	push	ebp
	mov	ebp, esp
	push	ecx
	mov	DWORD PTR [ebp-4], -858993460		; ccccccccH
	mov	DWORD PTR _this$[ebp], ecx

; 544  : 		return (_Get_data()._Getpfirst());

	mov	ecx, DWORD PTR _this$[ebp]
	call	?_Get_data@?$_List_alloc@U?$_List_base_types@PAV?$Goal@VRaven_Bot@@@@V?$allocator@PAV?$Goal@VRaven_Bot@@@@@std@@@std@@@std@@QBEABV?$_List_val@U?$_List_simple_types@PAV?$Goal@VRaven_Bot@@@@@std@@@2@XZ ; std::_List_alloc<std::_List_base_types<Goal<Raven_Bot> *,std::allocator<Goal<Raven_Bot> *> > >::_Get_data
	mov	ecx, eax
	call	?_Getpfirst@_Container_base12@std@@QBEPAPAU_Iterator_base12@2@XZ ; std::_Container_base12::_Getpfirst

; 545  : 		}

	add	esp, 4
	cmp	ebp, esp
	call	__RTC_CheckEsp
	mov	esp, ebp
	pop	ebp
	ret	0
?_Getpfirst@?$_List_alloc@U?$_List_base_types@PAV?$Goal@VRaven_Bot@@@@V?$allocator@PAV?$Goal@VRaven_Bot@@@@@std@@@std@@@std@@QBEPAPAU_Iterator_base12@2@XZ ENDP ; std::_List_alloc<std::_List_base_types<Goal<Raven_Bot> *,std::allocator<Goal<Raven_Bot> *> > >::_Getpfirst
_TEXT	ENDS
; Function compile flags: /Odtp /RTCsu
; File c:\program files (x86)\microsoft visual studio\2017\community\vc\tools\msvc\14.15.26726\include\list
;	COMDAT ?_Free_proxy@?$_List_alloc@U?$_List_base_types@PAV?$Goal@VRaven_Bot@@@@V?$allocator@PAV?$Goal@VRaven_Bot@@@@@std@@@std@@@std@@QAEXXZ
_TEXT	SEGMENT
__Proxy_allocator$ = -9					; size = 1
_this$ = -4						; size = 4
?_Free_proxy@?$_List_alloc@U?$_List_base_types@PAV?$Goal@VRaven_Bot@@@@V?$allocator@PAV?$Goal@VRaven_Bot@@@@@std@@@std@@@std@@QAEXXZ PROC ; std::_List_alloc<std::_List_base_types<Goal<Raven_Bot> *,std::allocator<Goal<Raven_Bot> *> > >::_Free_proxy, COMDAT
; _this$ = ecx

; 534  : 		{	// destroy proxy

	push	ebp
	mov	ebp, esp
	sub	esp, 16					; 00000010H
	mov	eax, -858993460				; ccccccccH
	mov	DWORD PTR [ebp-16], eax
	mov	DWORD PTR [ebp-12], eax
	mov	DWORD PTR [ebp-8], eax
	mov	DWORD PTR [ebp-4], eax
	mov	DWORD PTR _this$[ebp], ecx

; 535  : 		_Alproxy _Proxy_allocator(_Getal());

	mov	ecx, DWORD PTR _this$[ebp]
	call	?_Getal@?$_List_alloc@U?$_List_base_types@PAV?$Goal@VRaven_Bot@@@@V?$allocator@PAV?$Goal@VRaven_Bot@@@@@std@@@std@@@std@@QAEAAV?$allocator@U?$_List_node@PAV?$Goal@VRaven_Bot@@@@PAX@std@@@2@XZ ; std::_List_alloc<std::_List_base_types<Goal<Raven_Bot> *,std::allocator<Goal<Raven_Bot> *> > >::_Getal
	push	eax
	lea	ecx, DWORD PTR __Proxy_allocator$[ebp]
	call	??$?0U?$_List_node@PAV?$Goal@VRaven_Bot@@@@PAX@std@@@?$allocator@U_Container_proxy@std@@@std@@QAE@ABV?$allocator@U?$_List_node@PAV?$Goal@VRaven_Bot@@@@PAX@std@@@1@@Z ; std::allocator<std::_Container_proxy>::allocator<std::_Container_proxy><std::_List_node<Goal<Raven_Bot> *,void *> >

; 536  : 		_Orphan_all();

	mov	ecx, DWORD PTR _this$[ebp]
	call	?_Orphan_all@?$_List_alloc@U?$_List_base_types@PAV?$Goal@VRaven_Bot@@@@V?$allocator@PAV?$Goal@VRaven_Bot@@@@@std@@@std@@@std@@QAEXXZ ; std::_List_alloc<std::_List_base_types<Goal<Raven_Bot> *,std::allocator<Goal<Raven_Bot> *> > >::_Orphan_all

; 537  : 		_Alproxy_traits::destroy(_Proxy_allocator, _Myproxy());

	mov	ecx, DWORD PTR _this$[ebp]
	call	?_Myproxy@?$_List_alloc@U?$_List_base_types@PAV?$Goal@VRaven_Bot@@@@V?$allocator@PAV?$Goal@VRaven_Bot@@@@@std@@@std@@@std@@QAEAAPAU_Container_proxy@2@XZ ; std::_List_alloc<std::_List_base_types<Goal<Raven_Bot> *,std::allocator<Goal<Raven_Bot> *> > >::_Myproxy
	mov	eax, DWORD PTR [eax]
	push	eax
	lea	ecx, DWORD PTR __Proxy_allocator$[ebp]
	push	ecx
	call	??$destroy@U_Container_proxy@std@@@?$_Default_allocator_traits@V?$allocator@U_Container_proxy@std@@@std@@@std@@SAXAAV?$allocator@U_Container_proxy@std@@@1@QAU_Container_proxy@1@@Z ; std::_Default_allocator_traits<std::allocator<std::_Container_proxy> >::destroy<std::_Container_proxy>
	add	esp, 8

; 538  : 		_Deallocate_plain(_Proxy_allocator, _Myproxy());

	mov	ecx, DWORD PTR _this$[ebp]
	call	?_Myproxy@?$_List_alloc@U?$_List_base_types@PAV?$Goal@VRaven_Bot@@@@V?$allocator@PAV?$Goal@VRaven_Bot@@@@@std@@@std@@@std@@QAEAAPAU_Container_proxy@2@XZ ; std::_List_alloc<std::_List_base_types<Goal<Raven_Bot> *,std::allocator<Goal<Raven_Bot> *> > >::_Myproxy
	mov	edx, DWORD PTR [eax]
	push	edx
	lea	eax, DWORD PTR __Proxy_allocator$[ebp]
	push	eax
	call	??$_Deallocate_plain@V?$allocator@U_Container_proxy@std@@@std@@$0A@@std@@YAXAAV?$allocator@U_Container_proxy@std@@@0@QAU_Container_proxy@0@@Z ; std::_Deallocate_plain<std::allocator<std::_Container_proxy>,0>
	add	esp, 8

; 539  : 		_Myproxy() = nullptr;

	mov	ecx, DWORD PTR _this$[ebp]
	call	?_Myproxy@?$_List_alloc@U?$_List_base_types@PAV?$Goal@VRaven_Bot@@@@V?$allocator@PAV?$Goal@VRaven_Bot@@@@@std@@@std@@@std@@QAEAAPAU_Container_proxy@2@XZ ; std::_List_alloc<std::_List_base_types<Goal<Raven_Bot> *,std::allocator<Goal<Raven_Bot> *> > >::_Myproxy
	mov	DWORD PTR [eax], 0

; 540  : 		}

	push	edx
	mov	ecx, ebp
	push	eax
	lea	edx, DWORD PTR $LN5@Free_proxy
	call	@_RTC_CheckStackVars@8
	pop	eax
	pop	edx
	add	esp, 16					; 00000010H
	cmp	ebp, esp
	call	__RTC_CheckEsp
	mov	esp, ebp
	pop	ebp
	ret	0
	npad	2
$LN5@Free_proxy:
	DD	1
	DD	$LN4@Free_proxy
$LN4@Free_proxy:
	DD	-9					; fffffff7H
	DD	1
	DD	$LN3@Free_proxy
$LN3@Free_proxy:
	DB	95					; 0000005fH
	DB	80					; 00000050H
	DB	114					; 00000072H
	DB	111					; 0000006fH
	DB	120					; 00000078H
	DB	121					; 00000079H
	DB	95					; 0000005fH
	DB	97					; 00000061H
	DB	108					; 0000006cH
	DB	108					; 0000006cH
	DB	111					; 0000006fH
	DB	99					; 00000063H
	DB	97					; 00000061H
	DB	116					; 00000074H
	DB	111					; 0000006fH
	DB	114					; 00000072H
	DB	0
?_Free_proxy@?$_List_alloc@U?$_List_base_types@PAV?$Goal@VRaven_Bot@@@@V?$allocator@PAV?$Goal@VRaven_Bot@@@@@std@@@std@@@std@@QAEXXZ ENDP ; std::_List_alloc<std::_List_base_types<Goal<Raven_Bot> *,std::allocator<Goal<Raven_Bot> *> > >::_Free_proxy
_TEXT	ENDS
; Function compile flags: /Odtp /RTCsu
; File c:\program files (x86)\microsoft visual studio\2017\community\vc\tools\msvc\14.15.26726\include\list
;	COMDAT ?_Alloc_proxy@?$_List_alloc@U?$_List_base_types@PAV?$Goal@VRaven_Bot@@@@V?$allocator@PAV?$Goal@VRaven_Bot@@@@@std@@@std@@@std@@QAEXXZ
_TEXT	SEGMENT
$T1 = -24						; size = 8
__Proxy_allocator$ = -9					; size = 1
_this$ = -4						; size = 4
?_Alloc_proxy@?$_List_alloc@U?$_List_base_types@PAV?$Goal@VRaven_Bot@@@@V?$allocator@PAV?$Goal@VRaven_Bot@@@@@std@@@std@@@std@@QAEXXZ PROC ; std::_List_alloc<std::_List_base_types<Goal<Raven_Bot> *,std::allocator<Goal<Raven_Bot> *> > >::_Alloc_proxy, COMDAT
; _this$ = ecx

; 526  : 		{	// construct proxy

	push	ebp
	mov	ebp, esp
	sub	esp, 24					; 00000018H
	push	esi
	mov	eax, -858993460				; ccccccccH
	mov	DWORD PTR [ebp-24], eax
	mov	DWORD PTR [ebp-20], eax
	mov	DWORD PTR [ebp-16], eax
	mov	DWORD PTR [ebp-12], eax
	mov	DWORD PTR [ebp-8], eax
	mov	DWORD PTR [ebp-4], eax
	mov	DWORD PTR _this$[ebp], ecx

; 527  : 		_Alproxy _Proxy_allocator(_Getal());

	mov	ecx, DWORD PTR _this$[ebp]
	call	?_Getal@?$_List_alloc@U?$_List_base_types@PAV?$Goal@VRaven_Bot@@@@V?$allocator@PAV?$Goal@VRaven_Bot@@@@@std@@@std@@@std@@QAEAAV?$allocator@U?$_List_node@PAV?$Goal@VRaven_Bot@@@@PAX@std@@@2@XZ ; std::_List_alloc<std::_List_base_types<Goal<Raven_Bot> *,std::allocator<Goal<Raven_Bot> *> > >::_Getal
	push	eax
	lea	ecx, DWORD PTR __Proxy_allocator$[ebp]
	call	??$?0U?$_List_node@PAV?$Goal@VRaven_Bot@@@@PAX@std@@@?$allocator@U_Container_proxy@std@@@std@@QAE@ABV?$allocator@U?$_List_node@PAV?$Goal@VRaven_Bot@@@@PAX@std@@@1@@Z ; std::allocator<std::_Container_proxy>::allocator<std::_Container_proxy><std::_List_node<Goal<Raven_Bot> *,void *> >

; 528  : 		_Myproxy() = _Unfancy(_Proxy_allocator.allocate(1));

	push	1
	lea	ecx, DWORD PTR __Proxy_allocator$[ebp]
	call	?allocate@?$allocator@U_Container_proxy@std@@@std@@QAEPAU_Container_proxy@2@I@Z ; std::allocator<std::_Container_proxy>::allocate
	push	eax
	call	??$_Unfancy@U_Container_proxy@std@@@std@@YAPAU_Container_proxy@0@PAU10@@Z ; std::_Unfancy<std::_Container_proxy>
	add	esp, 4
	mov	esi, eax
	mov	ecx, DWORD PTR _this$[ebp]
	call	?_Myproxy@?$_List_alloc@U?$_List_base_types@PAV?$Goal@VRaven_Bot@@@@V?$allocator@PAV?$Goal@VRaven_Bot@@@@@std@@@std@@@std@@QAEAAPAU_Container_proxy@2@XZ ; std::_List_alloc<std::_List_base_types<Goal<Raven_Bot> *,std::allocator<Goal<Raven_Bot> *> > >::_Myproxy
	mov	DWORD PTR [eax], esi

; 529  : 		_Alproxy_traits::construct(_Proxy_allocator, _Myproxy(), _Container_proxy());

	lea	ecx, DWORD PTR $T1[ebp]
	call	??0_Container_proxy@std@@QAE@XZ		; std::_Container_proxy::_Container_proxy
	push	eax
	mov	ecx, DWORD PTR _this$[ebp]
	call	?_Myproxy@?$_List_alloc@U?$_List_base_types@PAV?$Goal@VRaven_Bot@@@@V?$allocator@PAV?$Goal@VRaven_Bot@@@@@std@@@std@@@std@@QAEAAPAU_Container_proxy@2@XZ ; std::_List_alloc<std::_List_base_types<Goal<Raven_Bot> *,std::allocator<Goal<Raven_Bot> *> > >::_Myproxy
	mov	eax, DWORD PTR [eax]
	push	eax
	lea	ecx, DWORD PTR __Proxy_allocator$[ebp]
	push	ecx
	call	??$construct@U_Container_proxy@std@@U12@@?$_Default_allocator_traits@V?$allocator@U_Container_proxy@std@@@std@@@std@@SAXAAV?$allocator@U_Container_proxy@std@@@1@QAU_Container_proxy@1@$$QAU31@@Z ; std::_Default_allocator_traits<std::allocator<std::_Container_proxy> >::construct<std::_Container_proxy,std::_Container_proxy>
	add	esp, 12					; 0000000cH

; 530  : 		_Myproxy()->_Mycont = _STD addressof(_Get_data());

	mov	ecx, DWORD PTR _this$[ebp]
	call	?_Get_data@?$_List_alloc@U?$_List_base_types@PAV?$Goal@VRaven_Bot@@@@V?$allocator@PAV?$Goal@VRaven_Bot@@@@@std@@@std@@@std@@QAEAAV?$_List_val@U?$_List_simple_types@PAV?$Goal@VRaven_Bot@@@@@std@@@2@XZ ; std::_List_alloc<std::_List_base_types<Goal<Raven_Bot> *,std::allocator<Goal<Raven_Bot> *> > >::_Get_data
	push	eax
	call	??$addressof@V?$_List_val@U?$_List_simple_types@PAV?$Goal@VRaven_Bot@@@@@std@@@std@@@std@@YAPAV?$_List_val@U?$_List_simple_types@PAV?$Goal@VRaven_Bot@@@@@std@@@0@AAV10@@Z ; std::addressof<std::_List_val<std::_List_simple_types<Goal<Raven_Bot> *> > >
	add	esp, 4
	mov	esi, eax
	mov	ecx, DWORD PTR _this$[ebp]
	call	?_Myproxy@?$_List_alloc@U?$_List_base_types@PAV?$Goal@VRaven_Bot@@@@V?$allocator@PAV?$Goal@VRaven_Bot@@@@@std@@@std@@@std@@QAEAAPAU_Container_proxy@2@XZ ; std::_List_alloc<std::_List_base_types<Goal<Raven_Bot> *,std::allocator<Goal<Raven_Bot> *> > >::_Myproxy
	mov	edx, DWORD PTR [eax]
	mov	DWORD PTR [edx], esi

; 531  : 		}

	push	edx
	mov	ecx, ebp
	push	eax
	lea	edx, DWORD PTR $LN5@Alloc_prox
	call	@_RTC_CheckStackVars@8
	pop	eax
	pop	edx
	pop	esi
	add	esp, 24					; 00000018H
	cmp	ebp, esp
	call	__RTC_CheckEsp
	mov	esp, ebp
	pop	ebp
	ret	0
$LN5@Alloc_prox:
	DD	1
	DD	$LN4@Alloc_prox
$LN4@Alloc_prox:
	DD	-9					; fffffff7H
	DD	1
	DD	$LN3@Alloc_prox
$LN3@Alloc_prox:
	DB	95					; 0000005fH
	DB	80					; 00000050H
	DB	114					; 00000072H
	DB	111					; 0000006fH
	DB	120					; 00000078H
	DB	121					; 00000079H
	DB	95					; 0000005fH
	DB	97					; 00000061H
	DB	108					; 0000006cH
	DB	108					; 0000006cH
	DB	111					; 0000006fH
	DB	99					; 00000063H
	DB	97					; 00000061H
	DB	116					; 00000074H
	DB	111					; 0000006fH
	DB	114					; 00000072H
	DB	0
?_Alloc_proxy@?$_List_alloc@U?$_List_base_types@PAV?$Goal@VRaven_Bot@@@@V?$allocator@PAV?$Goal@VRaven_Bot@@@@@std@@@std@@@std@@QAEXXZ ENDP ; std::_List_alloc<std::_List_base_types<Goal<Raven_Bot> *,std::allocator<Goal<Raven_Bot> *> > >::_Alloc_proxy
_TEXT	ENDS
; Function compile flags: /Odtp /RTCsu
; File c:\program files (x86)\microsoft visual studio\2017\community\vc\tools\msvc\14.15.26726\include\list
;	COMDAT ??1?$_List_alloc@U?$_List_base_types@PAV?$Goal@VRaven_Bot@@@@V?$allocator@PAV?$Goal@VRaven_Bot@@@@@std@@@std@@@std@@QAE@XZ
_TEXT	SEGMENT
_this$ = -16						; size = 4
__$EHRec$ = -12						; size = 12
??1?$_List_alloc@U?$_List_base_types@PAV?$Goal@VRaven_Bot@@@@V?$allocator@PAV?$Goal@VRaven_Bot@@@@@std@@@std@@@std@@QAE@XZ PROC ; std::_List_alloc<std::_List_base_types<Goal<Raven_Bot> *,std::allocator<Goal<Raven_Bot> *> > >::~_List_alloc<std::_List_base_types<Goal<Raven_Bot> *,std::allocator<Goal<Raven_Bot> *> > >, COMDAT
; _this$ = ecx

; 520  : 		{	// destroy proxy

	push	ebp
	mov	ebp, esp
	push	-1
	push	__ehhandler$??1?$_List_alloc@U?$_List_base_types@PAV?$Goal@VRaven_Bot@@@@V?$allocator@PAV?$Goal@VRaven_Bot@@@@@std@@@std@@@std@@QAE@XZ
	mov	eax, DWORD PTR fs:0
	push	eax
	push	ecx
	mov	DWORD PTR [ebp-16], -858993460		; ccccccccH
	mov	eax, DWORD PTR ___security_cookie
	xor	eax, ebp
	push	eax
	lea	eax, DWORD PTR __$EHRec$[ebp]
	mov	DWORD PTR fs:0, eax
	mov	DWORD PTR _this$[ebp], ecx

; 521  : 		_Freeheadnode(_Myhead());

	mov	ecx, DWORD PTR _this$[ebp]
	call	?_Myhead@?$_List_alloc@U?$_List_base_types@PAV?$Goal@VRaven_Bot@@@@V?$allocator@PAV?$Goal@VRaven_Bot@@@@@std@@@std@@@std@@QAEAAPAU?$_List_node@PAV?$Goal@VRaven_Bot@@@@PAX@2@XZ ; std::_List_alloc<std::_List_base_types<Goal<Raven_Bot> *,std::allocator<Goal<Raven_Bot> *> > >::_Myhead
	mov	eax, DWORD PTR [eax]
	push	eax
	mov	ecx, DWORD PTR _this$[ebp]
	call	?_Freeheadnode@?$_List_alloc@U?$_List_base_types@PAV?$Goal@VRaven_Bot@@@@V?$allocator@PAV?$Goal@VRaven_Bot@@@@@std@@@std@@@std@@QAEXPAU?$_List_node@PAV?$Goal@VRaven_Bot@@@@PAX@2@@Z ; std::_List_alloc<std::_List_base_types<Goal<Raven_Bot> *,std::allocator<Goal<Raven_Bot> *> > >::_Freeheadnode

; 522  : 		_Free_proxy();

	mov	ecx, DWORD PTR _this$[ebp]
	call	?_Free_proxy@?$_List_alloc@U?$_List_base_types@PAV?$Goal@VRaven_Bot@@@@V?$allocator@PAV?$Goal@VRaven_Bot@@@@@std@@@std@@@std@@QAEXXZ ; std::_List_alloc<std::_List_base_types<Goal<Raven_Bot> *,std::allocator<Goal<Raven_Bot> *> > >::_Free_proxy

; 523  : 		}

	mov	ecx, DWORD PTR __$EHRec$[ebp]
	mov	DWORD PTR fs:0, ecx
	pop	ecx
	add	esp, 16					; 00000010H
	cmp	ebp, esp
	call	__RTC_CheckEsp
	mov	esp, ebp
	pop	ebp
	ret	0
_TEXT	ENDS
;	COMDAT text$x
text$x	SEGMENT
__ehhandler$??1?$_List_alloc@U?$_List_base_types@PAV?$Goal@VRaven_Bot@@@@V?$allocator@PAV?$Goal@VRaven_Bot@@@@@std@@@std@@@std@@QAE@XZ:
	mov	edx, DWORD PTR [esp+8]
	lea	eax, DWORD PTR [edx+12]
	mov	ecx, DWORD PTR [edx-8]
	xor	ecx, eax
	call	@__security_check_cookie@4
	mov	eax, OFFSET __ehfuncinfo$??1?$_List_alloc@U?$_List_base_types@PAV?$Goal@VRaven_Bot@@@@V?$allocator@PAV?$Goal@VRaven_Bot@@@@@std@@@std@@@std@@QAE@XZ
	jmp	___CxxFrameHandler3
text$x	ENDS
??1?$_List_alloc@U?$_List_base_types@PAV?$Goal@VRaven_Bot@@@@V?$allocator@PAV?$Goal@VRaven_Bot@@@@@std@@@std@@@std@@QAE@XZ ENDP ; std::_List_alloc<std::_List_base_types<Goal<Raven_Bot> *,std::allocator<Goal<Raven_Bot> *> > >::~_List_alloc<std::_List_base_types<Goal<Raven_Bot> *,std::allocator<Goal<Raven_Bot> *> > >
; Function compile flags: /Odtp /RTCsu
; File c:\program files (x86)\microsoft visual studio\2017\community\vc\tools\msvc\14.15.26726\include\list
;	COMDAT ??0?$_List_alloc@U?$_List_base_types@PAV?$Goal@VRaven_Bot@@@@V?$allocator@PAV?$Goal@VRaven_Bot@@@@@std@@@std@@@std@@QAE@XZ
_TEXT	SEGMENT
$T2 = -21						; size = 1
_this$ = -20						; size = 4
__$EHRec$ = -16						; size = 16
??0?$_List_alloc@U?$_List_base_types@PAV?$Goal@VRaven_Bot@@@@V?$allocator@PAV?$Goal@VRaven_Bot@@@@@std@@@std@@@std@@QAE@XZ PROC ; std::_List_alloc<std::_List_base_types<Goal<Raven_Bot> *,std::allocator<Goal<Raven_Bot> *> > >::_List_alloc<std::_List_base_types<Goal<Raven_Bot> *,std::allocator<Goal<Raven_Bot> *> > >, COMDAT
; _this$ = ecx

; 494  : 		{	// default construct head node

	push	ebp
	mov	ebp, esp
	push	-1
	push	__ehhandler$??0?$_List_alloc@U?$_List_base_types@PAV?$Goal@VRaven_Bot@@@@V?$allocator@PAV?$Goal@VRaven_Bot@@@@@std@@@std@@@std@@QAE@XZ
	mov	eax, DWORD PTR fs:0
	push	eax
	push	ecx
	sub	esp, 8
	push	ebx
	push	esi
	push	edi
	mov	DWORD PTR [ebp-24], -858993460		; ccccccccH
	mov	DWORD PTR [ebp-20], -858993460		; ccccccccH
	mov	eax, DWORD PTR ___security_cookie
	xor	eax, ebp
	push	eax
	lea	eax, DWORD PTR __$EHRec$[ebp+4]
	mov	DWORD PTR fs:0, eax
	mov	DWORD PTR __$EHRec$[ebp], esp
	mov	DWORD PTR _this$[ebp], ecx

; 493  : 		: _Mypair(_Zero_then_variadic_args_t())

	movzx	eax, BYTE PTR $T2[ebp]
	push	eax
	mov	ecx, DWORD PTR _this$[ebp]
	call	??$?0$$V@?$_Compressed_pair@V?$allocator@U?$_List_node@PAV?$Goal@VRaven_Bot@@@@PAX@std@@@std@@V?$_List_val@U?$_List_simple_types@PAV?$Goal@VRaven_Bot@@@@@std@@@2@$00@std@@QAE@U_Zero_then_variadic_args_t@1@@Z ; std::_Compressed_pair<std::allocator<std::_List_node<Goal<Raven_Bot> *,void *> >,std::_List_val<std::_List_simple_types<Goal<Raven_Bot> *> >,1>::_Compressed_pair<std::allocator<std::_List_node<Goal<Raven_Bot> *,void *> >,std::_List_val<std::_List_simple_types<Goal<Raven_Bot> *> >,1><>

; 495  : 		_Myhead() = _Buyheadnode();

	mov	ecx, DWORD PTR _this$[ebp]
	call	?_Buyheadnode@?$_List_alloc@U?$_List_base_types@PAV?$Goal@VRaven_Bot@@@@V?$allocator@PAV?$Goal@VRaven_Bot@@@@@std@@@std@@@std@@QAEPAU?$_List_node@PAV?$Goal@VRaven_Bot@@@@PAX@2@XZ ; std::_List_alloc<std::_List_base_types<Goal<Raven_Bot> *,std::allocator<Goal<Raven_Bot> *> > >::_Buyheadnode
	mov	esi, eax
	mov	ecx, DWORD PTR _this$[ebp]
	call	?_Myhead@?$_List_alloc@U?$_List_base_types@PAV?$Goal@VRaven_Bot@@@@V?$allocator@PAV?$Goal@VRaven_Bot@@@@@std@@@std@@@std@@QAEAAPAU?$_List_node@PAV?$Goal@VRaven_Bot@@@@PAX@2@XZ ; std::_List_alloc<std::_List_base_types<Goal<Raven_Bot> *,std::allocator<Goal<Raven_Bot> *> > >::_Myhead
	mov	DWORD PTR [eax], esi

; 496  : 		_TRY_BEGIN

	mov	DWORD PTR __$EHRec$[ebp+12], 0

; 497  : 		_Alloc_proxy();

	mov	ecx, DWORD PTR _this$[ebp]
	call	?_Alloc_proxy@?$_List_alloc@U?$_List_base_types@PAV?$Goal@VRaven_Bot@@@@V?$allocator@PAV?$Goal@VRaven_Bot@@@@@std@@@std@@@std@@QAEXXZ ; std::_List_alloc<std::_List_base_types<Goal<Raven_Bot> *,std::allocator<Goal<Raven_Bot> *> > >::_Alloc_proxy
	jmp	SHORT $LN4@List_alloc
__catch$??0?$_List_alloc@U?$_List_base_types@PAV?$Goal@VRaven_Bot@@@@V?$allocator@PAV?$Goal@VRaven_Bot@@@@@std@@@std@@@std@@QAE@XZ$0:

; 498  : 		_CATCH_ALL
; 499  : 		_Freeheadnode(_Myhead());

	mov	ecx, DWORD PTR _this$[ebp]
	call	?_Myhead@?$_List_alloc@U?$_List_base_types@PAV?$Goal@VRaven_Bot@@@@V?$allocator@PAV?$Goal@VRaven_Bot@@@@@std@@@std@@@std@@QAEAAPAU?$_List_node@PAV?$Goal@VRaven_Bot@@@@PAX@2@XZ ; std::_List_alloc<std::_List_base_types<Goal<Raven_Bot> *,std::allocator<Goal<Raven_Bot> *> > >::_Myhead
	mov	ecx, DWORD PTR [eax]
	push	ecx
	mov	ecx, DWORD PTR _this$[ebp]
	call	?_Freeheadnode@?$_List_alloc@U?$_List_base_types@PAV?$Goal@VRaven_Bot@@@@V?$allocator@PAV?$Goal@VRaven_Bot@@@@@std@@@std@@@std@@QAEXPAU?$_List_node@PAV?$Goal@VRaven_Bot@@@@PAX@2@@Z ; std::_List_alloc<std::_List_base_types<Goal<Raven_Bot> *,std::allocator<Goal<Raven_Bot> *> > >::_Freeheadnode

; 500  : 		_RERAISE;

	push	0
	push	0
	call	__CxxThrowException@8

; 501  : 		_CATCH_END

	mov	eax, $LN7@List_alloc
	ret	0
$LN4@List_alloc:
	mov	DWORD PTR __$EHRec$[ebp+12], -1
	jmp	SHORT $LN1@List_alloc
$LN7@List_alloc:
	mov	DWORD PTR __$EHRec$[ebp+12], -1
$LN1@List_alloc:

; 502  : 		}

	mov	eax, DWORD PTR _this$[ebp]
$LN3@List_alloc:
	mov	ecx, DWORD PTR __$EHRec$[ebp+4]
	mov	DWORD PTR fs:0, ecx
	pop	ecx
	pop	edi
	pop	esi
	pop	ebx
	add	esp, 24					; 00000018H
	cmp	ebp, esp
	call	__RTC_CheckEsp
	mov	esp, ebp
	pop	ebp
	ret	0
_TEXT	ENDS
;	COMDAT text$x
text$x	SEGMENT
__ehhandler$??0?$_List_alloc@U?$_List_base_types@PAV?$Goal@VRaven_Bot@@@@V?$allocator@PAV?$Goal@VRaven_Bot@@@@@std@@@std@@@std@@QAE@XZ:
	mov	edx, DWORD PTR [esp+8]
	lea	eax, DWORD PTR [edx+12]
	mov	ecx, DWORD PTR [edx-28]
	xor	ecx, eax
	call	@__security_check_cookie@4
	mov	eax, OFFSET __ehfuncinfo$??0?$_List_alloc@U?$_List_base_types@PAV?$Goal@VRaven_Bot@@@@V?$allocator@PAV?$Goal@VRaven_Bot@@@@@std@@@std@@@std@@QAE@XZ
	jmp	___CxxFrameHandler3
text$x	ENDS
??0?$_List_alloc@U?$_List_base_types@PAV?$Goal@VRaven_Bot@@@@V?$allocator@PAV?$Goal@VRaven_Bot@@@@@std@@@std@@@std@@QAE@XZ ENDP ; std::_List_alloc<std::_List_base_types<Goal<Raven_Bot> *,std::allocator<Goal<Raven_Bot> *> > >::_List_alloc<std::_List_base_types<Goal<Raven_Bot> *,std::allocator<Goal<Raven_Bot> *> > >
; Function compile flags: /Odtp /RTCsu
; File c:\program files (x86)\microsoft visual studio\2017\community\vc\tools\msvc\14.15.26726\include\xmemory0
;	COMDAT ?max_size@?$_Default_allocator_traits@V?$allocator@U?$_List_node@PAV?$Goal@VRaven_Bot@@@@PAX@std@@@std@@@std@@SAIABV?$allocator@U?$_List_node@PAV?$Goal@VRaven_Bot@@@@PAX@std@@@2@@Z
_TEXT	SEGMENT
___formal$ = 8						; size = 4
?max_size@?$_Default_allocator_traits@V?$allocator@U?$_List_node@PAV?$Goal@VRaven_Bot@@@@PAX@std@@@std@@@std@@SAIABV?$allocator@U?$_List_node@PAV?$Goal@VRaven_Bot@@@@PAX@std@@@2@@Z PROC ; std::_Default_allocator_traits<std::allocator<std::_List_node<Goal<Raven_Bot> *,void *> > >::max_size, COMDAT

; 891  : 		{	// get maximum size

	push	ebp
	mov	ebp, esp

; 892  : 		return (static_cast<size_t>(-1) / sizeof(value_type));

	mov	eax, 357913941				; 15555555H

; 893  : 		}

	pop	ebp
	ret	0
?max_size@?$_Default_allocator_traits@V?$allocator@U?$_List_node@PAV?$Goal@VRaven_Bot@@@@PAX@std@@@std@@@std@@SAIABV?$allocator@U?$_List_node@PAV?$Goal@VRaven_Bot@@@@PAX@std@@@2@@Z ENDP ; std::_Default_allocator_traits<std::allocator<std::_List_node<Goal<Raven_Bot> *,void *> > >::max_size
_TEXT	ENDS
; Function compile flags: /Odtp /RTCsu
; File c:\program files (x86)\microsoft visual studio\2017\community\vc\tools\msvc\14.15.26726\include\xmemory0
;	COMDAT ?deallocate@?$_Default_allocator_traits@V?$allocator@U?$_List_node@PAV?$Goal@VRaven_Bot@@@@PAX@std@@@std@@@std@@SAXAAV?$allocator@U?$_List_node@PAV?$Goal@VRaven_Bot@@@@PAX@std@@@2@QAU?$_List_node@PAV?$Goal@VRaven_Bot@@@@PAX@2@I@Z
_TEXT	SEGMENT
___formal$ = 8						; size = 4
__Ptr$ = 12						; size = 4
__Count$ = 16						; size = 4
?deallocate@?$_Default_allocator_traits@V?$allocator@U?$_List_node@PAV?$Goal@VRaven_Bot@@@@PAX@std@@@std@@@std@@SAXAAV?$allocator@U?$_List_node@PAV?$Goal@VRaven_Bot@@@@PAX@std@@@2@QAU?$_List_node@PAV?$Goal@VRaven_Bot@@@@PAX@2@I@Z PROC ; std::_Default_allocator_traits<std::allocator<std::_List_node<Goal<Raven_Bot> *,void *> > >::deallocate, COMDAT

; 871  : 		{	// deallocate _Count elements at _Ptr

	push	ebp
	mov	ebp, esp

; 872  : 		// no overflow check on the following multiply; we assume _Allocate did that check
; 873  : 		_Deallocate<_New_alignof<value_type>>(_Ptr, sizeof(value_type) * _Count);

	imul	eax, DWORD PTR __Count$[ebp], 12
	push	eax
	mov	ecx, DWORD PTR __Ptr$[ebp]
	push	ecx
	call	??$_Deallocate@$07$0A@@std@@YAXPAXI@Z	; std::_Deallocate<8,0>
	add	esp, 8

; 874  : 		}

	cmp	ebp, esp
	call	__RTC_CheckEsp
	pop	ebp
	ret	0
?deallocate@?$_Default_allocator_traits@V?$allocator@U?$_List_node@PAV?$Goal@VRaven_Bot@@@@PAX@std@@@std@@@std@@SAXAAV?$allocator@U?$_List_node@PAV?$Goal@VRaven_Bot@@@@PAX@std@@@2@QAU?$_List_node@PAV?$Goal@VRaven_Bot@@@@PAX@2@I@Z ENDP ; std::_Default_allocator_traits<std::allocator<std::_List_node<Goal<Raven_Bot> *,void *> > >::deallocate
_TEXT	ENDS
; Function compile flags: /Odtp /RTCsu
; File c:\program files (x86)\microsoft visual studio\2017\community\vc\tools\msvc\14.15.26726\include\xmemory0
;	COMDAT ?allocate@?$allocator@U?$_List_node@PAV?$Goal@VRaven_Bot@@@@PAX@std@@@std@@QAEPAU?$_List_node@PAV?$Goal@VRaven_Bot@@@@PAX@2@I@Z
_TEXT	SEGMENT
_this$ = -4						; size = 4
__Count$ = 8						; size = 4
?allocate@?$allocator@U?$_List_node@PAV?$Goal@VRaven_Bot@@@@PAX@std@@@std@@QAEPAU?$_List_node@PAV?$Goal@VRaven_Bot@@@@PAX@2@I@Z PROC ; std::allocator<std::_List_node<Goal<Raven_Bot> *,void *> >::allocate, COMDAT
; _this$ = ecx

; 996  : 		{	// allocate array of _Count elements

	push	ebp
	mov	ebp, esp
	push	ecx
	mov	DWORD PTR [ebp-4], -858993460		; ccccccccH
	mov	DWORD PTR _this$[ebp], ecx

; 997  : 		return (static_cast<_Ty *>(_Allocate<_New_alignof<_Ty>>(_Get_size_of_n<sizeof(_Ty)>(_Count))));

	mov	eax, DWORD PTR __Count$[ebp]
	push	eax
	call	??$_Get_size_of_n@$0M@@std@@YAII@Z	; std::_Get_size_of_n<12>
	add	esp, 4
	push	eax
	call	??$_Allocate@$07U_Default_allocate_traits@std@@$0A@@std@@YAPAXI@Z ; std::_Allocate<8,std::_Default_allocate_traits,0>
	add	esp, 4

; 998  : 		}

	add	esp, 4
	cmp	ebp, esp
	call	__RTC_CheckEsp
	mov	esp, ebp
	pop	ebp
	ret	4
?allocate@?$allocator@U?$_List_node@PAV?$Goal@VRaven_Bot@@@@PAX@std@@@std@@QAEPAU?$_List_node@PAV?$Goal@VRaven_Bot@@@@PAX@2@I@Z ENDP ; std::allocator<std::_List_node<Goal<Raven_Bot> *,void *> >::allocate
_TEXT	ENDS
; Function compile flags: /Odtp /RTCsu
; File c:\program files (x86)\microsoft visual studio\2017\community\vc\tools\msvc\14.15.26726\include\xmemory0
;	COMDAT ?deallocate@?$allocator@U?$_List_node@PAV?$Goal@VRaven_Bot@@@@PAX@std@@@std@@QAEXQAU?$_List_node@PAV?$Goal@VRaven_Bot@@@@PAX@2@I@Z
_TEXT	SEGMENT
_this$ = -4						; size = 4
__Ptr$ = 8						; size = 4
__Count$ = 12						; size = 4
?deallocate@?$allocator@U?$_List_node@PAV?$Goal@VRaven_Bot@@@@PAX@std@@@std@@QAEXQAU?$_List_node@PAV?$Goal@VRaven_Bot@@@@PAX@2@I@Z PROC ; std::allocator<std::_List_node<Goal<Raven_Bot> *,void *> >::deallocate, COMDAT
; _this$ = ecx

; 990  : 		{	// deallocate object at _Ptr

	push	ebp
	mov	ebp, esp
	push	ecx
	mov	DWORD PTR [ebp-4], -858993460		; ccccccccH
	mov	DWORD PTR _this$[ebp], ecx

; 991  : 		// no overflow check on the following multiply; we assume _Allocate did that check
; 992  : 		_Deallocate<_New_alignof<_Ty>>(_Ptr, sizeof(_Ty) * _Count);

	imul	eax, DWORD PTR __Count$[ebp], 12
	push	eax
	mov	ecx, DWORD PTR __Ptr$[ebp]
	push	ecx
	call	??$_Deallocate@$07$0A@@std@@YAXPAXI@Z	; std::_Deallocate<8,0>
	add	esp, 8

; 993  : 		}

	add	esp, 4
	cmp	ebp, esp
	call	__RTC_CheckEsp
	mov	esp, ebp
	pop	ebp
	ret	8
?deallocate@?$allocator@U?$_List_node@PAV?$Goal@VRaven_Bot@@@@PAX@std@@@std@@QAEXQAU?$_List_node@PAV?$Goal@VRaven_Bot@@@@PAX@2@I@Z ENDP ; std::allocator<std::_List_node<Goal<Raven_Bot> *,void *> >::deallocate
_TEXT	ENDS
; Function compile flags: /Odtp /RTCsu
; File c:\program files (x86)\microsoft visual studio\2017\community\vc\tools\msvc\14.15.26726\include\xmemory0
;	COMDAT ??0?$allocator@U?$_List_node@PAV?$Goal@VRaven_Bot@@@@PAX@std@@@std@@QAE@XZ
_TEXT	SEGMENT
_this$ = -4						; size = 4
??0?$allocator@U?$_List_node@PAV?$Goal@VRaven_Bot@@@@PAX@std@@@std@@QAE@XZ PROC ; std::allocator<std::_List_node<Goal<Raven_Bot> *,void *> >::allocator<std::_List_node<Goal<Raven_Bot> *,void *> >, COMDAT
; _this$ = ecx

; 979  : 	constexpr allocator() noexcept

	push	ebp
	mov	ebp, esp
	push	ecx
	mov	DWORD PTR [ebp-4], -858993460		; ccccccccH
	mov	DWORD PTR _this$[ebp], ecx

; 980  : 		{	// construct default allocator (do nothing)
; 981  : 		}

	mov	eax, DWORD PTR _this$[ebp]
	mov	esp, ebp
	pop	ebp
	ret	0
??0?$allocator@U?$_List_node@PAV?$Goal@VRaven_Bot@@@@PAX@std@@@std@@QAE@XZ ENDP ; std::allocator<std::_List_node<Goal<Raven_Bot> *,void *> >::allocator<std::_List_node<Goal<Raven_Bot> *,void *> >
_TEXT	ENDS
; Function compile flags: /Odtp /RTCsu
;	COMDAT ??_G?$Goal@VRaven_Bot@@@@UAEPAXI@Z
_TEXT	SEGMENT
_this$ = -4						; size = 4
___flags$ = 8						; size = 4
??_G?$Goal@VRaven_Bot@@@@UAEPAXI@Z PROC			; Goal<Raven_Bot>::`scalar deleting destructor', COMDAT
; _this$ = ecx
	push	ebp
	mov	ebp, esp
	push	ecx
	mov	DWORD PTR [ebp-4], -858993460		; ccccccccH
	mov	DWORD PTR _this$[ebp], ecx
	mov	ecx, DWORD PTR _this$[ebp]
	call	??1?$Goal@VRaven_Bot@@@@UAE@XZ		; Goal<Raven_Bot>::~Goal<Raven_Bot>
	mov	eax, DWORD PTR ___flags$[ebp]
	and	eax, 1
	je	SHORT $LN2@scalar
	push	16					; 00000010H
	mov	ecx, DWORD PTR _this$[ebp]
	push	ecx
	call	??3@YAXPAXI@Z				; operator delete
	add	esp, 8
$LN2@scalar:
	mov	eax, DWORD PTR _this$[ebp]
	add	esp, 4
	cmp	ebp, esp
	call	__RTC_CheckEsp
	mov	esp, ebp
	pop	ebp
	ret	4
??_G?$Goal@VRaven_Bot@@@@UAEPAXI@Z ENDP			; Goal<Raven_Bot>::`scalar deleting destructor'
_TEXT	ENDS
; Function compile flags: /Odtp /RTCsu
; File c:\users\utilisateur\documents\github\8iar125-projetraven\vs2015\common\goals\goal.h
;	COMDAT ?Render@?$Goal@VRaven_Bot@@@@UAEXXZ
_TEXT	SEGMENT
_this$ = -4						; size = 4
?Render@?$Goal@VRaven_Bot@@@@UAEXXZ PROC		; Goal<Raven_Bot>::Render, COMDAT
; _this$ = ecx

; 93   :   virtual void Render(){}

	push	ebp
	mov	ebp, esp
	push	ecx
	mov	DWORD PTR [ebp-4], -858993460		; ccccccccH
	mov	DWORD PTR _this$[ebp], ecx
	mov	esp, ebp
	pop	ebp
	ret	0
?Render@?$Goal@VRaven_Bot@@@@UAEXXZ ENDP		; Goal<Raven_Bot>::Render
_TEXT	ENDS
; Function compile flags: /Odtp /RTCsu
; File c:\users\utilisateur\documents\github\8iar125-projetraven\vs2015\common\goals\goal.h
;	COMDAT ?RenderAtPos@?$Goal@VRaven_Bot@@@@UBEXAAUVector2D@@PAVTypeToString@@@Z
_TEXT	SEGMENT
tv155 = -56						; size = 4
tv156 = -52						; size = 4
$T2 = -48						; size = 28
_this$ = -20						; size = 4
__$ArrayPad$ = -16					; size = 4
__$EHRec$ = -12						; size = 12
_pos$ = 8						; size = 4
_tts$ = 12						; size = 4
?RenderAtPos@?$Goal@VRaven_Bot@@@@UBEXAAUVector2D@@PAVTypeToString@@@Z PROC ; Goal<Raven_Bot>::RenderAtPos, COMDAT
; _this$ = ecx

; 123  : {

	push	ebp
	mov	ebp, esp
	push	-1
	push	__ehhandler$?RenderAtPos@?$Goal@VRaven_Bot@@@@UBEXAAUVector2D@@PAVTypeToString@@@Z
	mov	eax, DWORD PTR fs:0
	push	eax
	sub	esp, 44					; 0000002cH
	push	esi
	push	edi
	push	ecx
	lea	edi, DWORD PTR [ebp-56]
	mov	ecx, 11					; 0000000bH
	mov	eax, -858993460				; ccccccccH
	rep stosd
	pop	ecx
	mov	eax, DWORD PTR ___security_cookie
	xor	eax, ebp
	mov	DWORD PTR __$ArrayPad$[ebp], eax
	push	eax
	lea	eax, DWORD PTR __$EHRec$[ebp]
	mov	DWORD PTR fs:0, eax
	mov	DWORD PTR _this$[ebp], ecx

; 124  :   pos.y += 15;

	mov	eax, DWORD PTR _pos$[ebp]
	movsd	xmm0, QWORD PTR [eax+8]
	addsd	xmm0, QWORD PTR __real@402e000000000000
	mov	ecx, DWORD PTR _pos$[ebp]
	movsd	QWORD PTR [ecx+8], xmm0

; 125  :   gdi->TransparentText();

	call	?Instance@Cgdi@@SAPAV1@XZ		; Cgdi::Instance
	mov	ecx, eax
	call	?TransparentText@Cgdi@@QAEXXZ		; Cgdi::TransparentText

; 126  :   if (isComplete()) gdi->TextColor(0,255,0);

	mov	ecx, DWORD PTR _this$[ebp]
	call	?isComplete@?$Goal@VRaven_Bot@@@@QBE_NXZ ; Goal<Raven_Bot>::isComplete
	movzx	edx, al
	test	edx, edx
	je	SHORT $LN2@RenderAtPo
	push	0
	push	255					; 000000ffH
	push	0
	call	?Instance@Cgdi@@SAPAV1@XZ		; Cgdi::Instance
	mov	ecx, eax
	call	?TextColor@Cgdi@@QAEXHHH@Z		; Cgdi::TextColor
$LN2@RenderAtPo:

; 127  :   if (isInactive()) gdi->TextColor(0,0,0);

	mov	ecx, DWORD PTR _this$[ebp]
	call	?isInactive@?$Goal@VRaven_Bot@@@@QBE_NXZ ; Goal<Raven_Bot>::isInactive
	movzx	eax, al
	test	eax, eax
	je	SHORT $LN3@RenderAtPo
	push	0
	push	0
	push	0
	call	?Instance@Cgdi@@SAPAV1@XZ		; Cgdi::Instance
	mov	ecx, eax
	call	?TextColor@Cgdi@@QAEXHHH@Z		; Cgdi::TextColor
$LN3@RenderAtPo:

; 128  :   if (hasFailed()) gdi->TextColor(255,0,0);

	mov	ecx, DWORD PTR _this$[ebp]
	call	?hasFailed@?$Goal@VRaven_Bot@@@@QBE_NXZ	; Goal<Raven_Bot>::hasFailed
	movzx	ecx, al
	test	ecx, ecx
	je	SHORT $LN4@RenderAtPo
	push	0
	push	0
	push	255					; 000000ffH
	call	?Instance@Cgdi@@SAPAV1@XZ		; Cgdi::Instance
	mov	ecx, eax
	call	?TextColor@Cgdi@@QAEXHHH@Z		; Cgdi::TextColor
$LN4@RenderAtPo:

; 129  :   if (isActive()) gdi->TextColor(0,0,255);

	mov	ecx, DWORD PTR _this$[ebp]
	call	?isActive@?$Goal@VRaven_Bot@@@@QBE_NXZ	; Goal<Raven_Bot>::isActive
	movzx	edx, al
	test	edx, edx
	je	SHORT $LN5@RenderAtPo
	push	255					; 000000ffH
	push	0
	push	0
	call	?Instance@Cgdi@@SAPAV1@XZ		; Cgdi::Instance
	mov	ecx, eax
	call	?TextColor@Cgdi@@QAEXHHH@Z		; Cgdi::TextColor
$LN5@RenderAtPo:

; 130  : 
; 131  :   gdi->TextAtPos(pos.x, pos.y, tts->Convert(GetType())); 

	mov	ecx, DWORD PTR _this$[ebp]
	call	?GetType@?$Goal@VRaven_Bot@@@@QBEHXZ	; Goal<Raven_Bot>::GetType
	mov	esi, esp
	push	eax
	lea	eax, DWORD PTR $T2[ebp]
	push	eax
	mov	ecx, DWORD PTR _tts$[ebp]
	mov	edx, DWORD PTR [ecx]
	mov	ecx, DWORD PTR _tts$[ebp]
	mov	eax, DWORD PTR [edx]
	call	eax
	cmp	esi, esp
	call	__RTC_CheckEsp
	mov	DWORD PTR tv156[ebp], eax
	mov	ecx, DWORD PTR tv156[ebp]
	mov	DWORD PTR tv155[ebp], ecx
	mov	DWORD PTR __$EHRec$[ebp+8], 0
	mov	edx, DWORD PTR tv155[ebp]
	push	edx
	mov	eax, DWORD PTR _pos$[ebp]
	sub	esp, 8
	movsd	xmm0, QWORD PTR [eax+8]
	movsd	QWORD PTR [esp], xmm0
	mov	ecx, DWORD PTR _pos$[ebp]
	sub	esp, 8
	movsd	xmm0, QWORD PTR [ecx]
	movsd	QWORD PTR [esp], xmm0
	call	?Instance@Cgdi@@SAPAV1@XZ		; Cgdi::Instance
	mov	ecx, eax
	call	?TextAtPos@Cgdi@@QAEXNNABV?$basic_string@DU?$char_traits@D@std@@V?$allocator@D@2@@std@@@Z ; Cgdi::TextAtPos
	mov	DWORD PTR __$EHRec$[ebp+8], -1
	lea	ecx, DWORD PTR $T2[ebp]
	call	??1?$basic_string@DU?$char_traits@D@std@@V?$allocator@D@2@@std@@QAE@XZ ; std::basic_string<char,std::char_traits<char>,std::allocator<char> >::~basic_string<char,std::char_traits<char>,std::allocator<char> >

; 132  : }

	mov	ecx, DWORD PTR __$EHRec$[ebp]
	mov	DWORD PTR fs:0, ecx
	pop	ecx
	pop	edi
	pop	esi
	mov	ecx, DWORD PTR __$ArrayPad$[ebp]
	xor	ecx, ebp
	call	@__security_check_cookie@4
	add	esp, 56					; 00000038H
	cmp	ebp, esp
	call	__RTC_CheckEsp
	mov	esp, ebp
	pop	ebp
	ret	8
_TEXT	ENDS
;	COMDAT text$x
text$x	SEGMENT
__unwindfunclet$?RenderAtPos@?$Goal@VRaven_Bot@@@@UBEXAAUVector2D@@PAVTypeToString@@@Z$0:
	lea	ecx, DWORD PTR $T2[ebp]
	jmp	??1?$basic_string@DU?$char_traits@D@std@@V?$allocator@D@2@@std@@QAE@XZ ; std::basic_string<char,std::char_traits<char>,std::allocator<char> >::~basic_string<char,std::char_traits<char>,std::allocator<char> >
__ehhandler$?RenderAtPos@?$Goal@VRaven_Bot@@@@UBEXAAUVector2D@@PAVTypeToString@@@Z:
	mov	edx, DWORD PTR [esp+8]
	lea	eax, DWORD PTR [edx+12]
	mov	ecx, DWORD PTR [edx-56]
	xor	ecx, eax
	call	@__security_check_cookie@4
	mov	ecx, DWORD PTR [edx-4]
	xor	ecx, eax
	call	@__security_check_cookie@4
	mov	eax, OFFSET __ehfuncinfo$?RenderAtPos@?$Goal@VRaven_Bot@@@@UBEXAAUVector2D@@PAVTypeToString@@@Z
	jmp	___CxxFrameHandler3
text$x	ENDS
?RenderAtPos@?$Goal@VRaven_Bot@@@@UBEXAAUVector2D@@PAVTypeToString@@@Z ENDP ; Goal<Raven_Bot>::RenderAtPos
; Function compile flags: /Odtp /RTCsu
; File c:\users\utilisateur\documents\github\8iar125-projetraven\vs2015\common\goals\goal.h
;	COMDAT ?GetType@?$Goal@VRaven_Bot@@@@QBEHXZ
_TEXT	SEGMENT
_this$ = -4						; size = 4
?GetType@?$Goal@VRaven_Bot@@@@QBEHXZ PROC		; Goal<Raven_Bot>::GetType, COMDAT
; _this$ = ecx

; 84   :   int          GetType()const{return m_iType;}

	push	ebp
	mov	ebp, esp
	push	ecx
	mov	DWORD PTR [ebp-4], -858993460		; ccccccccH
	mov	DWORD PTR _this$[ebp], ecx
	mov	eax, DWORD PTR _this$[ebp]
	mov	eax, DWORD PTR [eax+4]
	mov	esp, ebp
	pop	ebp
	ret	0
?GetType@?$Goal@VRaven_Bot@@@@QBEHXZ ENDP		; Goal<Raven_Bot>::GetType
_TEXT	ENDS
; Function compile flags: /Odtp /RTCsu
; File c:\users\utilisateur\documents\github\8iar125-projetraven\vs2015\common\goals\goal.h
;	COMDAT ?hasFailed@?$Goal@VRaven_Bot@@@@QBE_NXZ
_TEXT	SEGMENT
tv66 = -8						; size = 4
_this$ = -4						; size = 4
?hasFailed@?$Goal@VRaven_Bot@@@@QBE_NXZ PROC		; Goal<Raven_Bot>::hasFailed, COMDAT
; _this$ = ecx

; 83   :   bool         hasFailed()const{return m_iStatus == failed;}

	push	ebp
	mov	ebp, esp
	sub	esp, 8
	mov	DWORD PTR [ebp-8], -858993460		; ccccccccH
	mov	DWORD PTR [ebp-4], -858993460		; ccccccccH
	mov	DWORD PTR _this$[ebp], ecx
	mov	eax, DWORD PTR _this$[ebp]
	cmp	DWORD PTR [eax+12], 3
	jne	SHORT $LN3@hasFailed
	mov	DWORD PTR tv66[ebp], 1
	jmp	SHORT $LN4@hasFailed
$LN3@hasFailed:
	mov	DWORD PTR tv66[ebp], 0
$LN4@hasFailed:
	mov	al, BYTE PTR tv66[ebp]
	mov	esp, ebp
	pop	ebp
	ret	0
?hasFailed@?$Goal@VRaven_Bot@@@@QBE_NXZ ENDP		; Goal<Raven_Bot>::hasFailed
_TEXT	ENDS
; Function compile flags: /Odtp /RTCsu
; File c:\users\utilisateur\documents\github\8iar125-projetraven\vs2015\common\goals\goal.h
;	COMDAT ?isInactive@?$Goal@VRaven_Bot@@@@QBE_NXZ
_TEXT	SEGMENT
tv66 = -8						; size = 4
_this$ = -4						; size = 4
?isInactive@?$Goal@VRaven_Bot@@@@QBE_NXZ PROC		; Goal<Raven_Bot>::isInactive, COMDAT
; _this$ = ecx

; 82   :   bool         isInactive()const{return m_iStatus == inactive;}

	push	ebp
	mov	ebp, esp
	sub	esp, 8
	mov	DWORD PTR [ebp-8], -858993460		; ccccccccH
	mov	DWORD PTR [ebp-4], -858993460		; ccccccccH
	mov	DWORD PTR _this$[ebp], ecx
	mov	eax, DWORD PTR _this$[ebp]
	cmp	DWORD PTR [eax+12], 1
	jne	SHORT $LN3@isInactive
	mov	DWORD PTR tv66[ebp], 1
	jmp	SHORT $LN4@isInactive
$LN3@isInactive:
	mov	DWORD PTR tv66[ebp], 0
$LN4@isInactive:
	mov	al, BYTE PTR tv66[ebp]
	mov	esp, ebp
	pop	ebp
	ret	0
?isInactive@?$Goal@VRaven_Bot@@@@QBE_NXZ ENDP		; Goal<Raven_Bot>::isInactive
_TEXT	ENDS
; Function compile flags: /Odtp /RTCsu
; File c:\users\utilisateur\documents\github\8iar125-projetraven\vs2015\common\goals\goal.h
;	COMDAT ?isActive@?$Goal@VRaven_Bot@@@@QBE_NXZ
_TEXT	SEGMENT
tv66 = -8						; size = 4
_this$ = -4						; size = 4
?isActive@?$Goal@VRaven_Bot@@@@QBE_NXZ PROC		; Goal<Raven_Bot>::isActive, COMDAT
; _this$ = ecx

; 81   :   bool         isActive()const{return m_iStatus == active;}

	push	ebp
	mov	ebp, esp
	sub	esp, 8
	mov	DWORD PTR [ebp-8], -858993460		; ccccccccH
	mov	DWORD PTR [ebp-4], -858993460		; ccccccccH
	mov	DWORD PTR _this$[ebp], ecx
	mov	eax, DWORD PTR _this$[ebp]
	cmp	DWORD PTR [eax+12], 0
	jne	SHORT $LN3@isActive
	mov	DWORD PTR tv66[ebp], 1
	jmp	SHORT $LN4@isActive
$LN3@isActive:
	mov	DWORD PTR tv66[ebp], 0
$LN4@isActive:
	mov	al, BYTE PTR tv66[ebp]
	mov	esp, ebp
	pop	ebp
	ret	0
?isActive@?$Goal@VRaven_Bot@@@@QBE_NXZ ENDP		; Goal<Raven_Bot>::isActive
_TEXT	ENDS
; Function compile flags: /Odtp /RTCsu
; File c:\users\utilisateur\documents\github\8iar125-projetraven\vs2015\common\goals\goal.h
;	COMDAT ?isComplete@?$Goal@VRaven_Bot@@@@QBE_NXZ
_TEXT	SEGMENT
tv66 = -8						; size = 4
_this$ = -4						; size = 4
?isComplete@?$Goal@VRaven_Bot@@@@QBE_NXZ PROC		; Goal<Raven_Bot>::isComplete, COMDAT
; _this$ = ecx

; 80   :   bool         isComplete()const{return m_iStatus == completed;} 

	push	ebp
	mov	ebp, esp
	sub	esp, 8
	mov	DWORD PTR [ebp-8], -858993460		; ccccccccH
	mov	DWORD PTR [ebp-4], -858993460		; ccccccccH
	mov	DWORD PTR _this$[ebp], ecx
	mov	eax, DWORD PTR _this$[ebp]
	cmp	DWORD PTR [eax+12], 2
	jne	SHORT $LN3@isComplete
	mov	DWORD PTR tv66[ebp], 1
	jmp	SHORT $LN4@isComplete
$LN3@isComplete:
	mov	DWORD PTR tv66[ebp], 0
$LN4@isComplete:
	mov	al, BYTE PTR tv66[ebp]
	mov	esp, ebp
	pop	ebp
	ret	0
?isComplete@?$Goal@VRaven_Bot@@@@QBE_NXZ ENDP		; Goal<Raven_Bot>::isComplete
_TEXT	ENDS
; Function compile flags: /Odtp /RTCsu
; File c:\users\utilisateur\documents\github\8iar125-projetraven\vs2015\common\goals\goal.h
;	COMDAT ?AddSubgoal@?$Goal@VRaven_Bot@@@@UAEXPAV1@@Z
_TEXT	SEGMENT
$T1 = -16						; size = 12
_this$ = -4						; size = 4
_g$ = 8							; size = 4
?AddSubgoal@?$Goal@VRaven_Bot@@@@UAEXPAV1@@Z PROC	; Goal<Raven_Bot>::AddSubgoal, COMDAT
; _this$ = ecx

; 77   :   {throw std::runtime_error("Cannot add goals to atomic goals");}

	push	ebp
	mov	ebp, esp
	sub	esp, 16					; 00000010H
	mov	eax, -858993460				; ccccccccH
	mov	DWORD PTR [ebp-16], eax
	mov	DWORD PTR [ebp-12], eax
	mov	DWORD PTR [ebp-8], eax
	mov	DWORD PTR [ebp-4], eax
	mov	DWORD PTR _this$[ebp], ecx
	push	OFFSET ??_C@_0CB@OHIHCHGJ@Cannot?5add?5goals?5to?5atomic?5goal@
	lea	ecx, DWORD PTR $T1[ebp]
	call	??0runtime_error@std@@QAE@PBD@Z		; std::runtime_error::runtime_error
	push	OFFSET __TI2?AVruntime_error@std@@
	lea	eax, DWORD PTR $T1[ebp]
	push	eax
	call	__CxxThrowException@8
$LN2@AddSubgoal:
	add	esp, 16					; 00000010H
	cmp	ebp, esp
	call	__RTC_CheckEsp
	mov	esp, ebp
	pop	ebp
	ret	4
?AddSubgoal@?$Goal@VRaven_Bot@@@@UAEXPAV1@@Z ENDP	; Goal<Raven_Bot>::AddSubgoal
_TEXT	ENDS
; Function compile flags: /Odtp /RTCsu
; File c:\users\utilisateur\documents\github\8iar125-projetraven\vs2015\common\goals\goal.h
;	COMDAT ?HandleMessage@?$Goal@VRaven_Bot@@@@UAE_NABUTelegram@@@Z
_TEXT	SEGMENT
_this$ = -4						; size = 4
_msg$ = 8						; size = 4
?HandleMessage@?$Goal@VRaven_Bot@@@@UAE_NABUTelegram@@@Z PROC ; Goal<Raven_Bot>::HandleMessage, COMDAT
; _this$ = ecx

; 70   :   virtual bool HandleMessage(const Telegram& msg){return false;}

	push	ebp
	mov	ebp, esp
	push	ecx
	mov	DWORD PTR [ebp-4], -858993460		; ccccccccH
	mov	DWORD PTR _this$[ebp], ecx
	xor	al, al
	mov	esp, ebp
	pop	ebp
	ret	4
?HandleMessage@?$Goal@VRaven_Bot@@@@UAE_NABUTelegram@@@Z ENDP ; Goal<Raven_Bot>::HandleMessage
_TEXT	ENDS
; Function compile flags: /Odtp /RTCsu
; File c:\users\utilisateur\documents\github\8iar125-projetraven\vs2015\common\goals\goal.h
;	COMDAT ??1?$Goal@VRaven_Bot@@@@UAE@XZ
_TEXT	SEGMENT
_this$ = -4						; size = 4
??1?$Goal@VRaven_Bot@@@@UAE@XZ PROC			; Goal<Raven_Bot>::~Goal<Raven_Bot>, COMDAT
; _this$ = ecx

; 56   :   virtual ~Goal(){}

	push	ebp
	mov	ebp, esp
	push	ecx
	mov	DWORD PTR [ebp-4], -858993460		; ccccccccH
	mov	DWORD PTR _this$[ebp], ecx
	mov	eax, DWORD PTR _this$[ebp]
	mov	DWORD PTR [eax], OFFSET ??_7?$Goal@VRaven_Bot@@@@6B@
	mov	esp, ebp
	pop	ebp
	ret	0
??1?$Goal@VRaven_Bot@@@@UAE@XZ ENDP			; Goal<Raven_Bot>::~Goal<Raven_Bot>
_TEXT	ENDS
; Function compile flags: /Odtp /RTCsu
; File c:\users\utilisateur\documents\github\8iar125-projetraven\vs2015\common\goals\goal.h
;	COMDAT ??0?$Goal@VRaven_Bot@@@@QAE@PAVRaven_Bot@@H@Z
_TEXT	SEGMENT
_this$ = -4						; size = 4
_pE$ = 8						; size = 4
_type$ = 12						; size = 4
??0?$Goal@VRaven_Bot@@@@QAE@PAVRaven_Bot@@H@Z PROC	; Goal<Raven_Bot>::Goal<Raven_Bot>, COMDAT
; _this$ = ecx

; 54   :   {}

	push	ebp
	mov	ebp, esp
	push	ecx
	mov	DWORD PTR [ebp-4], -858993460		; ccccccccH
	mov	DWORD PTR _this$[ebp], ecx
	mov	eax, DWORD PTR _this$[ebp]
	mov	DWORD PTR [eax], OFFSET ??_7?$Goal@VRaven_Bot@@@@6B@

; 51   :   Goal(entity_type*  pE, int type):m_iType(type),

	mov	ecx, DWORD PTR _this$[ebp]
	mov	edx, DWORD PTR _type$[ebp]
	mov	DWORD PTR [ecx+4], edx

; 52   :                                    m_pOwner(pE),

	mov	eax, DWORD PTR _this$[ebp]
	mov	ecx, DWORD PTR _pE$[ebp]
	mov	DWORD PTR [eax+8], ecx

; 53   :                                    m_iStatus(inactive)

	mov	edx, DWORD PTR _this$[ebp]
	mov	DWORD PTR [edx+12], 1

; 54   :   {}

	mov	eax, DWORD PTR _this$[ebp]
	mov	esp, ebp
	pop	ebp
	ret	8
??0?$Goal@VRaven_Bot@@@@QAE@PAVRaven_Bot@@H@Z ENDP	; Goal<Raven_Bot>::Goal<Raven_Bot>
_TEXT	ENDS
; Function compile flags: /Odtp /RTCsu
; File c:\users\utilisateur\documents\github\8iar125-projetraven\vs2015\common\goals\goal.h
;	COMDAT ?ActivateIfInactive@?$Goal@VRaven_Bot@@@@IAEXXZ
_TEXT	SEGMENT
_this$ = -4						; size = 4
?ActivateIfInactive@?$Goal@VRaven_Bot@@@@IAEXXZ PROC	; Goal<Raven_Bot>::ActivateIfInactive, COMDAT
; _this$ = ecx

; 114  : {

	push	ebp
	mov	ebp, esp
	push	ecx
	push	esi
	mov	DWORD PTR [ebp-4], -858993460		; ccccccccH
	mov	DWORD PTR _this$[ebp], ecx

; 115  :   if (isInactive())

	mov	ecx, DWORD PTR _this$[ebp]
	call	?isInactive@?$Goal@VRaven_Bot@@@@QBE_NXZ ; Goal<Raven_Bot>::isInactive
	movzx	eax, al
	test	eax, eax
	je	SHORT $LN1@ActivateIf

; 116  :   {
; 117  :     Activate();   

	mov	ecx, DWORD PTR _this$[ebp]
	mov	edx, DWORD PTR [ecx]
	mov	esi, esp
	mov	ecx, DWORD PTR _this$[ebp]
	mov	eax, DWORD PTR [edx+4]
	call	eax
	cmp	esi, esp
	call	__RTC_CheckEsp
$LN1@ActivateIf:

; 118  :   }
; 119  : }

	pop	esi
	add	esp, 4
	cmp	ebp, esp
	call	__RTC_CheckEsp
	mov	esp, ebp
	pop	ebp
	ret	0
?ActivateIfInactive@?$Goal@VRaven_Bot@@@@IAEXXZ ENDP	; Goal<Raven_Bot>::ActivateIfInactive
_TEXT	ENDS
; Function compile flags: /Odtp /RTCsu
;	COMDAT ??_GGoal_Evaluator@@UAEPAXI@Z
_TEXT	SEGMENT
_this$ = -4						; size = 4
___flags$ = 8						; size = 4
??_GGoal_Evaluator@@UAEPAXI@Z PROC			; Goal_Evaluator::`scalar deleting destructor', COMDAT
; _this$ = ecx
	push	ebp
	mov	ebp, esp
	push	ecx
	mov	DWORD PTR [ebp-4], -858993460		; ccccccccH
	mov	DWORD PTR _this$[ebp], ecx
	mov	ecx, DWORD PTR _this$[ebp]
	call	??1Goal_Evaluator@@UAE@XZ		; Goal_Evaluator::~Goal_Evaluator
	mov	eax, DWORD PTR ___flags$[ebp]
	and	eax, 1
	je	SHORT $LN2@scalar
	push	16					; 00000010H
	mov	ecx, DWORD PTR _this$[ebp]
	push	ecx
	call	??3@YAXPAXI@Z				; operator delete
	add	esp, 8
$LN2@scalar:
	mov	eax, DWORD PTR _this$[ebp]
	add	esp, 4
	cmp	ebp, esp
	call	__RTC_CheckEsp
	mov	esp, ebp
	pop	ebp
	ret	4
??_GGoal_Evaluator@@UAEPAXI@Z ENDP			; Goal_Evaluator::`scalar deleting destructor'
_TEXT	ENDS
; Function compile flags: /Odtp /RTCsu
; File c:\users\utilisateur\documents\github\8iar125-projetraven\vs2015\buckland_chapter7 to 10_raven\goals\goal_evaluator.h
;	COMDAT ??1Goal_Evaluator@@UAE@XZ
_TEXT	SEGMENT
_this$ = -4						; size = 4
??1Goal_Evaluator@@UAE@XZ PROC				; Goal_Evaluator::~Goal_Evaluator, COMDAT
; _this$ = ecx

; 30   :   virtual ~Goal_Evaluator(){}

	push	ebp
	mov	ebp, esp
	push	ecx
	mov	DWORD PTR [ebp-4], -858993460		; ccccccccH
	mov	DWORD PTR _this$[ebp], ecx
	mov	eax, DWORD PTR _this$[ebp]
	mov	DWORD PTR [eax], OFFSET ??_7Goal_Evaluator@@6B@
	mov	esp, ebp
	pop	ebp
	ret	0
??1Goal_Evaluator@@UAE@XZ ENDP				; Goal_Evaluator::~Goal_Evaluator
_TEXT	ENDS
; Function compile flags: /Odtp /RTCsu
; File c:\users\utilisateur\documents\github\8iar125-projetraven\vs2015\buckland_chapter7 to 10_raven\goals\goal_evaluator.h
;	COMDAT ??0Goal_Evaluator@@QAE@N@Z
_TEXT	SEGMENT
_this$ = -4						; size = 4
_CharacterBias$ = 8					; size = 8
??0Goal_Evaluator@@QAE@N@Z PROC				; Goal_Evaluator::Goal_Evaluator, COMDAT
; _this$ = ecx

; 28   :   Goal_Evaluator(double CharacterBias):m_dCharacterBias(CharacterBias){}

	push	ebp
	mov	ebp, esp
	push	ecx
	mov	DWORD PTR [ebp-4], -858993460		; ccccccccH
	mov	DWORD PTR _this$[ebp], ecx
	mov	eax, DWORD PTR _this$[ebp]
	mov	DWORD PTR [eax], OFFSET ??_7Goal_Evaluator@@6B@
	mov	ecx, DWORD PTR _this$[ebp]
	movsd	xmm0, QWORD PTR _CharacterBias$[ebp]
	movsd	QWORD PTR [ecx+8], xmm0
	mov	eax, DWORD PTR _this$[ebp]
	mov	esp, ebp
	pop	ebp
	ret	8
??0Goal_Evaluator@@QAE@N@Z ENDP				; Goal_Evaluator::Goal_Evaluator
_TEXT	ENDS
; Function compile flags: /Odtp /RTCsu
; File c:\users\utilisateur\documents\github\8iar125-projetraven\vs2015\buckland_chapter7 to 10_raven\raven_bot.h
;	COMDAT ?isPossessed@Raven_Bot@@QBE_NXZ
_TEXT	SEGMENT
_this$ = -4						; size = 4
?isPossessed@Raven_Bot@@QBE_NXZ PROC			; Raven_Bot::isPossessed, COMDAT
; _this$ = ecx

; 161  :   bool          isPossessed()const{return m_bPossessed;}

	push	ebp
	mov	ebp, esp
	push	ecx
	mov	DWORD PTR [ebp-4], -858993460		; ccccccccH
	mov	DWORD PTR _this$[ebp], ecx
	mov	eax, DWORD PTR _this$[ebp]
	mov	al, BYTE PTR [eax+245]
	mov	esp, ebp
	pop	ebp
	ret	0
?isPossessed@Raven_Bot@@QBE_NXZ ENDP			; Raven_Bot::isPossessed
_TEXT	ENDS
; Function compile flags: /Odtp /RTCsu
; File c:\users\utilisateur\documents\github\8iar125-projetraven\vs2015\common\misc\cgdi.h
;	COMDAT ?TextColor@Cgdi@@QAEXHHH@Z
_TEXT	SEGMENT
_this$ = -4						; size = 4
_r$ = 8							; size = 4
_g$ = 12						; size = 4
_b$ = 16						; size = 4
?TextColor@Cgdi@@QAEXHHH@Z PROC				; Cgdi::TextColor, COMDAT
; _this$ = ecx

; 227  :   void TextColor(int r, int g, int b){SetTextColor(m_hdc, RGB(r,g,b));}

	push	ebp
	mov	ebp, esp
	push	ecx
	push	esi
	mov	DWORD PTR [ebp-4], -858993460		; ccccccccH
	mov	DWORD PTR _this$[ebp], ecx
	movzx	eax, BYTE PTR _r$[ebp]
	movzx	ecx, BYTE PTR _g$[ebp]
	shl	ecx, 8
	or	eax, ecx
	movzx	edx, BYTE PTR _b$[ebp]
	shl	edx, 16					; 00000010H
	or	eax, edx
	mov	esi, esp
	push	eax
	mov	eax, DWORD PTR _this$[ebp]
	mov	ecx, DWORD PTR [eax+124]
	push	ecx
	call	DWORD PTR __imp__SetTextColor@8
	cmp	esi, esp
	call	__RTC_CheckEsp
	pop	esi
	add	esp, 4
	cmp	ebp, esp
	call	__RTC_CheckEsp
	mov	esp, ebp
	pop	ebp
	ret	12					; 0000000cH
?TextColor@Cgdi@@QAEXHHH@Z ENDP				; Cgdi::TextColor
_TEXT	ENDS
; Function compile flags: /Odtp /RTCsu
; File c:\users\utilisateur\documents\github\8iar125-projetraven\vs2015\common\misc\cgdi.h
;	COMDAT ?TextColor@Cgdi@@QAEXH@Z
_TEXT	SEGMENT
_this$ = -4						; size = 4
_color$ = 8						; size = 4
?TextColor@Cgdi@@QAEXH@Z PROC				; Cgdi::TextColor, COMDAT
; _this$ = ecx

; 226  :   void TextColor(int color){assert(color < NumColors); SetTextColor(m_hdc, colors[color]);}

	push	ebp
	mov	ebp, esp
	push	ecx
	push	esi
	mov	DWORD PTR [ebp-4], -858993460		; ccccccccH
	mov	DWORD PTR _this$[ebp], ecx
	cmp	DWORD PTR _color$[ebp], 15		; 0000000fH
	jl	SHORT $LN3@TextColor
	push	226					; 000000e2H
	push	OFFSET ??_C@_1KI@KNIJANCK@?$AAc?$AA?3?$AA?2?$AAu?$AAs?$AAe?$AAr?$AAs?$AA?2?$AAu?$AAt?$AAi?$AAl?$AAi?$AAs@
	push	OFFSET ??_C@_1CE@HKBOKGMG@?$AAc?$AAo?$AAl?$AAo?$AAr?$AA?5?$AA?$DM?$AA?5?$AAN?$AAu?$AAm?$AAC?$AAo?$AAl?$AAo@
	call	__wassert
	add	esp, 12					; 0000000cH
$LN3@TextColor:
	mov	esi, esp
	mov	ecx, DWORD PTR _color$[ebp]
	mov	edx, DWORD PTR ?colors@@3QBKB[ecx*4]
	push	edx
	mov	eax, DWORD PTR _this$[ebp]
	mov	ecx, DWORD PTR [eax+124]
	push	ecx
	call	DWORD PTR __imp__SetTextColor@8
	cmp	esi, esp
	call	__RTC_CheckEsp
	pop	esi
	add	esp, 4
	cmp	ebp, esp
	call	__RTC_CheckEsp
	mov	esp, ebp
	pop	ebp
	ret	4
?TextColor@Cgdi@@QAEXH@Z ENDP				; Cgdi::TextColor
_TEXT	ENDS
; Function compile flags: /Odtp /RTCsu
; File c:\users\utilisateur\documents\github\8iar125-projetraven\vs2015\common\misc\cgdi.h
;	COMDAT ?TransparentText@Cgdi@@QAEXXZ
_TEXT	SEGMENT
_this$ = -4						; size = 4
?TransparentText@Cgdi@@QAEXXZ PROC			; Cgdi::TransparentText, COMDAT
; _this$ = ecx

; 222  :   void TransparentText(){SetBkMode(m_hdc, TRANSPARENT);}

	push	ebp
	mov	ebp, esp
	push	ecx
	push	esi
	mov	DWORD PTR [ebp-4], -858993460		; ccccccccH
	mov	DWORD PTR _this$[ebp], ecx
	mov	esi, esp
	push	1
	mov	eax, DWORD PTR _this$[ebp]
	mov	ecx, DWORD PTR [eax+124]
	push	ecx
	call	DWORD PTR __imp__SetBkMode@8
	cmp	esi, esp
	call	__RTC_CheckEsp
	pop	esi
	add	esp, 4
	cmp	ebp, esp
	call	__RTC_CheckEsp
	mov	esp, ebp
	pop	ebp
	ret	0
?TransparentText@Cgdi@@QAEXXZ ENDP			; Cgdi::TransparentText
_TEXT	ENDS
; Function compile flags: /Odtp /RTCsu
; File c:\users\utilisateur\documents\github\8iar125-projetraven\vs2015\common\misc\cgdi.h
;	COMDAT ?TextAtPos@Cgdi@@QAEXNNABV?$basic_string@DU?$char_traits@D@std@@V?$allocator@D@2@@std@@@Z
_TEXT	SEGMENT
_this$ = -4						; size = 4
_x$ = 8							; size = 8
_y$ = 16						; size = 8
_s$ = 24						; size = 4
?TextAtPos@Cgdi@@QAEXNNABV?$basic_string@DU?$char_traits@D@std@@V?$allocator@D@2@@std@@@Z PROC ; Cgdi::TextAtPos, COMDAT
; _this$ = ecx

; 213  :   {

	push	ebp
	mov	ebp, esp
	push	ecx
	push	esi
	mov	DWORD PTR [ebp-4], -858993460		; ccccccccH
	mov	DWORD PTR _this$[ebp], ecx

; 214  :     TextOut(m_hdc, (int)x, (int)y, s.c_str(), (int)s.size());

	mov	ecx, DWORD PTR _s$[ebp]
	call	?size@?$basic_string@DU?$char_traits@D@std@@V?$allocator@D@2@@std@@QBEIXZ ; std::basic_string<char,std::char_traits<char>,std::allocator<char> >::size
	mov	esi, esp
	push	eax
	mov	ecx, DWORD PTR _s$[ebp]
	call	?c_str@?$basic_string@DU?$char_traits@D@std@@V?$allocator@D@2@@std@@QBEPBDXZ ; std::basic_string<char,std::char_traits<char>,std::allocator<char> >::c_str
	push	eax
	cvttsd2si eax, QWORD PTR _y$[ebp]
	push	eax
	cvttsd2si ecx, QWORD PTR _x$[ebp]
	push	ecx
	mov	edx, DWORD PTR _this$[ebp]
	mov	eax, DWORD PTR [edx+124]
	push	eax
	call	DWORD PTR __imp__TextOutA@20
	cmp	esi, esp
	call	__RTC_CheckEsp

; 215  :   }

	pop	esi
	add	esp, 4
	cmp	ebp, esp
	call	__RTC_CheckEsp
	mov	esp, ebp
	pop	ebp
	ret	20					; 00000014H
?TextAtPos@Cgdi@@QAEXNNABV?$basic_string@DU?$char_traits@D@std@@V?$allocator@D@2@@std@@@Z ENDP ; Cgdi::TextAtPos
_TEXT	ENDS
; Function compile flags: /Odtp /RTCsu
; File c:\users\utilisateur\documents\github\8iar125-projetraven\vs2015\common\2d\vector2d.h
;	COMDAT ??0Vector2D@@QAE@NN@Z
_TEXT	SEGMENT
_this$ = -4						; size = 4
_a$ = 8							; size = 8
_b$ = 16						; size = 8
??0Vector2D@@QAE@NN@Z PROC				; Vector2D::Vector2D, COMDAT
; _this$ = ecx

; 25   :   Vector2D(double a, double b):x(a),y(b){}

	push	ebp
	mov	ebp, esp
	push	ecx
	mov	DWORD PTR [ebp-4], -858993460		; ccccccccH
	mov	DWORD PTR _this$[ebp], ecx
	mov	eax, DWORD PTR _this$[ebp]
	movsd	xmm0, QWORD PTR _a$[ebp]
	movsd	QWORD PTR [eax], xmm0
	mov	ecx, DWORD PTR _this$[ebp]
	movsd	xmm0, QWORD PTR _b$[ebp]
	movsd	QWORD PTR [ecx+8], xmm0
	mov	eax, DWORD PTR _this$[ebp]
	mov	esp, ebp
	pop	ebp
	ret	16					; 00000010H
??0Vector2D@@QAE@NN@Z ENDP				; Vector2D::Vector2D
_TEXT	ENDS
; Function compile flags: /Odtp /RTCsu
; File c:\users\utilisateur\documents\github\8iar125-projetraven\vs2015\common\2d\vector2d.h
;	COMDAT ??0Vector2D@@QAE@XZ
_TEXT	SEGMENT
_this$ = -4						; size = 4
??0Vector2D@@QAE@XZ PROC				; Vector2D::Vector2D, COMDAT
; _this$ = ecx

; 24   :   Vector2D():x(0.0),y(0.0){}

	push	ebp
	mov	ebp, esp
	push	ecx
	mov	DWORD PTR [ebp-4], -858993460		; ccccccccH
	mov	DWORD PTR _this$[ebp], ecx
	mov	eax, DWORD PTR _this$[ebp]
	xorps	xmm0, xmm0
	movsd	QWORD PTR [eax], xmm0
	mov	ecx, DWORD PTR _this$[ebp]
	xorps	xmm0, xmm0
	movsd	QWORD PTR [ecx+8], xmm0
	mov	eax, DWORD PTR _this$[ebp]
	mov	esp, ebp
	pop	ebp
	ret	0
??0Vector2D@@QAE@XZ ENDP				; Vector2D::Vector2D
_TEXT	ENDS
; Function compile flags: /Odtp /RTCsu
; File c:\users\utilisateur\documents\github\8iar125-projetraven\vs2015\common\misc\utils.h
;	COMDAT ?RandInRange@@YANNN@Z
_TEXT	SEGMENT
tv76 = -16						; size = 8
tv72 = -8						; size = 8
_x$ = 8							; size = 8
_y$ = 16						; size = 8
?RandInRange@@YANNN@Z PROC				; RandInRange, COMDAT

; 94   : {

	push	ebp
	mov	ebp, esp
	sub	esp, 16					; 00000010H
	mov	eax, -858993460				; ccccccccH
	mov	DWORD PTR [ebp-16], eax
	mov	DWORD PTR [ebp-12], eax
	mov	DWORD PTR [ebp-8], eax
	mov	DWORD PTR [ebp-4], eax

; 95   :   return x + RandFloat()*(y-x);

	call	?RandFloat@@YANXZ			; RandFloat
	fstp	QWORD PTR tv72[ebp]
	movsd	xmm0, QWORD PTR tv72[ebp]
	movsd	xmm1, QWORD PTR _y$[ebp]
	subsd	xmm1, QWORD PTR _x$[ebp]
	mulsd	xmm0, xmm1
	addsd	xmm0, QWORD PTR _x$[ebp]
	movsd	QWORD PTR tv76[ebp], xmm0
	fld	QWORD PTR tv76[ebp]

; 96   : }

	add	esp, 16					; 00000010H
	cmp	ebp, esp
	call	__RTC_CheckEsp
	mov	esp, ebp
	pop	ebp
	ret	0
?RandInRange@@YANNN@Z ENDP				; RandInRange
_TEXT	ENDS
; Function compile flags: /Odtp /RTCsu
; File c:\users\utilisateur\documents\github\8iar125-projetraven\vs2015\common\misc\utils.h
;	COMDAT ?RandFloat@@YANXZ
_TEXT	SEGMENT
tv70 = -8						; size = 8
?RandFloat@@YANXZ PROC					; RandFloat, COMDAT

; 91   : inline double RandFloat()      {return ((rand())/(RAND_MAX+1.0));}

	push	ebp
	mov	ebp, esp
	sub	esp, 8
	mov	DWORD PTR [ebp-8], -858993460		; ccccccccH
	mov	DWORD PTR [ebp-4], -858993460		; ccccccccH
	call	_rand
	cvtsi2sd xmm0, eax
	divsd	xmm0, QWORD PTR __real@40e0000000000000
	movsd	QWORD PTR tv70[ebp], xmm0
	fld	QWORD PTR tv70[ebp]
	add	esp, 8
	cmp	ebp, esp
	call	__RTC_CheckEsp
	mov	esp, ebp
	pop	ebp
	ret	0
?RandFloat@@YANXZ ENDP					; RandFloat
_TEXT	ENDS
; Function compile flags: /Odtp /RTCsu
; File c:\users\utilisateur\documents\github\8iar125-projetraven\vs2015\common\misc\utils.h
;	COMDAT ??__EMinFloat@@YAXXZ
text$di	SEGMENT
??__EMinFloat@@YAXXZ PROC				; `dynamic initializer for 'MinFloat'', COMDAT

; 27   : const float   MinFloat  = (std::numeric_limits<float>::min)();

	push	ebp
	mov	ebp, esp
	call	?min@?$numeric_limits@M@std@@SAMXZ	; std::numeric_limits<float>::min
	fstp	DWORD PTR ?MinFloat@@3MB
	cmp	ebp, esp
	call	__RTC_CheckEsp
	pop	ebp
	ret	0
??__EMinFloat@@YAXXZ ENDP				; `dynamic initializer for 'MinFloat''
text$di	ENDS
; Function compile flags: /Odtp /RTCsu
; File c:\users\utilisateur\documents\github\8iar125-projetraven\vs2015\common\misc\utils.h
;	COMDAT ??__EMaxFloat@@YAXXZ
text$di	SEGMENT
??__EMaxFloat@@YAXXZ PROC				; `dynamic initializer for 'MaxFloat'', COMDAT

; 26   : const float   MaxFloat  = (std::numeric_limits<float>::max)();

	push	ebp
	mov	ebp, esp
	call	?max@?$numeric_limits@M@std@@SAMXZ	; std::numeric_limits<float>::max
	fstp	DWORD PTR ?MaxFloat@@3MB
	cmp	ebp, esp
	call	__RTC_CheckEsp
	pop	ebp
	ret	0
??__EMaxFloat@@YAXXZ ENDP				; `dynamic initializer for 'MaxFloat''
text$di	ENDS
; Function compile flags: /Odtp /RTCsu
; File c:\users\utilisateur\documents\github\8iar125-projetraven\vs2015\common\misc\utils.h
;	COMDAT ??__EMinDouble@@YAXXZ
text$di	SEGMENT
??__EMinDouble@@YAXXZ PROC				; `dynamic initializer for 'MinDouble'', COMDAT

; 25   : const double  MinDouble = (std::numeric_limits<double>::min)();

	push	ebp
	mov	ebp, esp
	call	?min@?$numeric_limits@N@std@@SANXZ	; std::numeric_limits<double>::min
	fstp	QWORD PTR ?MinDouble@@3NB
	cmp	ebp, esp
	call	__RTC_CheckEsp
	pop	ebp
	ret	0
??__EMinDouble@@YAXXZ ENDP				; `dynamic initializer for 'MinDouble''
text$di	ENDS
; Function compile flags: /Odtp /RTCsu
; File c:\users\utilisateur\documents\github\8iar125-projetraven\vs2015\common\misc\utils.h
;	COMDAT ??__EMaxDouble@@YAXXZ
text$di	SEGMENT
??__EMaxDouble@@YAXXZ PROC				; `dynamic initializer for 'MaxDouble'', COMDAT

; 24   : const double  MaxDouble = (std::numeric_limits<double>::max)();

	push	ebp
	mov	ebp, esp
	call	?max@?$numeric_limits@N@std@@SANXZ	; std::numeric_limits<double>::max
	fstp	QWORD PTR ?MaxDouble@@3NB
	cmp	ebp, esp
	call	__RTC_CheckEsp
	pop	ebp
	ret	0
??__EMaxDouble@@YAXXZ ENDP				; `dynamic initializer for 'MaxDouble''
text$di	ENDS
; Function compile flags: /Odtp /RTCsu
; File c:\users\utilisateur\documents\github\8iar125-projetraven\vs2015\common\misc\utils.h
;	COMDAT ??__EMaxInt@@YAXXZ
text$di	SEGMENT
??__EMaxInt@@YAXXZ PROC					; `dynamic initializer for 'MaxInt'', COMDAT

; 23   : const int     MaxInt    = (std::numeric_limits<int>::max)();

	push	ebp
	mov	ebp, esp
	call	?max@?$numeric_limits@H@std@@SAHXZ	; std::numeric_limits<int>::max
	mov	DWORD PTR ?MaxInt@@3HB, eax
	cmp	ebp, esp
	call	__RTC_CheckEsp
	pop	ebp
	ret	0
??__EMaxInt@@YAXXZ ENDP					; `dynamic initializer for 'MaxInt''
text$di	ENDS
; Function compile flags: /Odtp /RTCsu
; File c:\program files (x86)\microsoft visual studio\2017\community\vc\tools\msvc\14.15.26726\include\xlocale
;	COMDAT ??0id@locale@std@@QAE@I@Z
_TEXT	SEGMENT
_this$ = -4						; size = 4
__Val$ = 8						; size = 4
??0id@locale@std@@QAE@I@Z PROC				; std::locale::id::id, COMDAT
; _this$ = ecx

; 111  : 			{	// construct with specified stamp value

	push	ebp
	mov	ebp, esp
	push	ecx
	mov	DWORD PTR [ebp-4], -858993460		; ccccccccH
	mov	DWORD PTR _this$[ebp], ecx

; 110  : 			: _Id(_Val)

	mov	eax, DWORD PTR _this$[ebp]
	mov	ecx, DWORD PTR __Val$[ebp]
	mov	DWORD PTR [eax], ecx

; 112  : 			}

	mov	eax, DWORD PTR _this$[ebp]
	mov	esp, ebp
	pop	ebp
	ret	4
??0id@locale@std@@QAE@I@Z ENDP				; std::locale::id::id
_TEXT	ENDS
; Function compile flags: /Odtp /RTCsu
;	COMDAT ??_Gruntime_error@std@@UAEPAXI@Z
_TEXT	SEGMENT
_this$ = -4						; size = 4
___flags$ = 8						; size = 4
??_Gruntime_error@std@@UAEPAXI@Z PROC			; std::runtime_error::`scalar deleting destructor', COMDAT
; _this$ = ecx
	push	ebp
	mov	ebp, esp
	push	ecx
	mov	DWORD PTR [ebp-4], -858993460		; ccccccccH
	mov	DWORD PTR _this$[ebp], ecx
	mov	ecx, DWORD PTR _this$[ebp]
	call	??1runtime_error@std@@UAE@XZ
	mov	eax, DWORD PTR ___flags$[ebp]
	and	eax, 1
	je	SHORT $LN2@scalar
	push	12					; 0000000cH
	mov	ecx, DWORD PTR _this$[ebp]
	push	ecx
	call	??3@YAXPAXI@Z				; operator delete
	add	esp, 8
$LN2@scalar:
	mov	eax, DWORD PTR _this$[ebp]
	add	esp, 4
	cmp	ebp, esp
	call	__RTC_CheckEsp
	mov	esp, ebp
	pop	ebp
	ret	4
??_Gruntime_error@std@@UAEPAXI@Z ENDP			; std::runtime_error::`scalar deleting destructor'
_TEXT	ENDS
; Function compile flags: /Odtp /RTCsu
;	COMDAT ??0runtime_error@std@@QAE@ABV01@@Z
_TEXT	SEGMENT
_this$ = -4						; size = 4
___that$ = 8						; size = 4
??0runtime_error@std@@QAE@ABV01@@Z PROC			; std::runtime_error::runtime_error, COMDAT
; _this$ = ecx
	push	ebp
	mov	ebp, esp
	push	ecx
	mov	DWORD PTR [ebp-4], -858993460		; ccccccccH
	mov	DWORD PTR _this$[ebp], ecx
	mov	eax, DWORD PTR ___that$[ebp]
	push	eax
	mov	ecx, DWORD PTR _this$[ebp]
	call	??0exception@std@@QAE@ABV01@@Z		; std::exception::exception
	mov	ecx, DWORD PTR _this$[ebp]
	mov	DWORD PTR [ecx], OFFSET ??_7runtime_error@std@@6B@
	mov	eax, DWORD PTR _this$[ebp]
	add	esp, 4
	cmp	ebp, esp
	call	__RTC_CheckEsp
	mov	esp, ebp
	pop	ebp
	ret	4
??0runtime_error@std@@QAE@ABV01@@Z ENDP			; std::runtime_error::runtime_error
_TEXT	ENDS
; Function compile flags: /Odtp /RTCsu
;	COMDAT ??1runtime_error@std@@UAE@XZ
_TEXT	SEGMENT
_this$ = -4						; size = 4
??1runtime_error@std@@UAE@XZ PROC			; std::runtime_error::~runtime_error, COMDAT
; _this$ = ecx
	push	ebp
	mov	ebp, esp
	push	ecx
	mov	DWORD PTR [ebp-4], -858993460		; ccccccccH
	mov	DWORD PTR _this$[ebp], ecx
	mov	ecx, DWORD PTR _this$[ebp]
	call	??1exception@std@@UAE@XZ		; std::exception::~exception
	add	esp, 4
	cmp	ebp, esp
	call	__RTC_CheckEsp
	mov	esp, ebp
	pop	ebp
	ret	0
??1runtime_error@std@@UAE@XZ ENDP			; std::runtime_error::~runtime_error
_TEXT	ENDS
; Function compile flags: /Odtp /RTCsu
; File c:\program files (x86)\microsoft visual studio\2017\community\vc\tools\msvc\14.15.26726\include\stdexcept
;	COMDAT ??0runtime_error@std@@QAE@PBD@Z
_TEXT	SEGMENT
_this$ = -4						; size = 4
__Message$ = 8						; size = 4
??0runtime_error@std@@QAE@PBD@Z PROC			; std::runtime_error::runtime_error, COMDAT
; _this$ = ecx

; 170  : 		{	// construct from message string

	push	ebp
	mov	ebp, esp
	push	ecx
	mov	DWORD PTR [ebp-4], -858993460		; ccccccccH
	mov	DWORD PTR _this$[ebp], ecx

; 169  : 		: _Mybase(_Message)

	mov	eax, DWORD PTR __Message$[ebp]
	push	eax
	mov	ecx, DWORD PTR _this$[ebp]
	call	??0exception@std@@QAE@QBD@Z		; std::exception::exception

; 170  : 		{	// construct from message string

	mov	ecx, DWORD PTR _this$[ebp]
	mov	DWORD PTR [ecx], OFFSET ??_7runtime_error@std@@6B@

; 171  : 		}

	mov	eax, DWORD PTR _this$[ebp]
	add	esp, 4
	cmp	ebp, esp
	call	__RTC_CheckEsp
	mov	esp, ebp
	pop	ebp
	ret	4
??0runtime_error@std@@QAE@PBD@Z ENDP			; std::runtime_error::runtime_error
_TEXT	ENDS
; Function compile flags: /Odtp /RTCsu
; File c:\program files (x86)\microsoft visual studio\2017\community\vc\tools\msvc\14.15.26726\include\xstring
;	COMDAT ?_Tidy_deallocate@?$basic_string@DU?$char_traits@D@std@@V?$allocator@D@2@@std@@QAEXXZ
_TEXT	SEGMENT
$T1 = -17						; size = 1
__Al$2 = -16						; size = 4
__Ptr$3 = -12						; size = 4
__My_data$ = -8						; size = 4
_this$ = -4						; size = 4
?_Tidy_deallocate@?$basic_string@DU?$char_traits@D@std@@V?$allocator@D@2@@std@@QAEXXZ PROC ; std::basic_string<char,std::char_traits<char>,std::allocator<char> >::_Tidy_deallocate, COMDAT
; _this$ = ecx

; 3984 : 		{	// initialize buffer, deallocating any storage

	push	ebp
	mov	ebp, esp
	sub	esp, 20					; 00000014H
	mov	eax, -858993460				; ccccccccH
	mov	DWORD PTR [ebp-20], eax
	mov	DWORD PTR [ebp-16], eax
	mov	DWORD PTR [ebp-12], eax
	mov	DWORD PTR [ebp-8], eax
	mov	DWORD PTR [ebp-4], eax
	mov	DWORD PTR _this$[ebp], ecx

; 3985 : 		this->_Orphan_all();

	mov	ecx, DWORD PTR _this$[ebp]
	call	?_Orphan_all@?$_String_alloc@U?$_String_base_types@DV?$allocator@D@std@@@std@@@std@@QAEXXZ ; std::_String_alloc<std::_String_base_types<char,std::allocator<char> > >::_Orphan_all

; 3986 : 		auto& _My_data = this->_Get_data();

	mov	ecx, DWORD PTR _this$[ebp]
	call	?_Get_data@?$_String_alloc@U?$_String_base_types@DV?$allocator@D@std@@@std@@@std@@QAEAAV?$_String_val@U?$_Simple_types@D@std@@@2@XZ ; std::_String_alloc<std::_String_base_types<char,std::allocator<char> > >::_Get_data
	mov	DWORD PTR __My_data$[ebp], eax

; 3987 : 		if (_My_data._Large_string_engaged())

	mov	ecx, DWORD PTR __My_data$[ebp]
	call	?_Large_string_engaged@?$_String_val@U?$_Simple_types@D@std@@@std@@QBE_NXZ ; std::_String_val<std::_Simple_types<char> >::_Large_string_engaged
	movzx	eax, al
	test	eax, eax
	je	SHORT $LN2@Tidy_deall

; 3988 : 			{
; 3989 : 			const pointer _Ptr = _My_data._Bx._Ptr;

	mov	ecx, DWORD PTR __My_data$[ebp]
	mov	edx, DWORD PTR [ecx+4]
	mov	DWORD PTR __Ptr$3[ebp], edx

; 3990 : 			auto& _Al = this->_Getal();

	mov	ecx, DWORD PTR _this$[ebp]
	call	?_Getal@?$_String_alloc@U?$_String_base_types@DV?$allocator@D@std@@@std@@@std@@QAEAAV?$allocator@D@2@XZ ; std::_String_alloc<std::_String_base_types<char,std::allocator<char> > >::_Getal
	mov	DWORD PTR __Al$2[ebp], eax

; 3991 : 			_Alty_traits::destroy(_Al, _STD addressof(_My_data._Bx._Ptr));

	mov	eax, DWORD PTR __My_data$[ebp]
	add	eax, 4
	push	eax
	call	??$addressof@PAD@std@@YAPAPADAAPAD@Z	; std::addressof<char *>
	add	esp, 4
	push	eax
	mov	ecx, DWORD PTR __Al$2[ebp]
	push	ecx
	call	??$destroy@PAD@?$_Default_allocator_traits@V?$allocator@D@std@@@std@@SAXAAV?$allocator@D@1@QAPAD@Z ; std::_Default_allocator_traits<std::allocator<char> >::destroy<char *>
	add	esp, 8

; 3992 : 			_Al.deallocate(_Ptr, _My_data._Myres + 1);

	mov	edx, DWORD PTR __My_data$[ebp]
	mov	eax, DWORD PTR [edx+24]
	add	eax, 1
	push	eax
	mov	ecx, DWORD PTR __Ptr$3[ebp]
	push	ecx
	mov	ecx, DWORD PTR __Al$2[ebp]
	call	?deallocate@?$allocator@D@std@@QAEXQADI@Z ; std::allocator<char>::deallocate
$LN2@Tidy_deall:

; 3993 : 			}
; 3994 : 
; 3995 : 		_My_data._Mysize = 0;

	mov	edx, DWORD PTR __My_data$[ebp]
	mov	DWORD PTR [edx+20], 0

; 3996 : 		_My_data._Myres = this->_BUF_SIZE - 1;

	mov	eax, DWORD PTR __My_data$[ebp]
	mov	DWORD PTR [eax+24], 15			; 0000000fH

; 3997 : 		// the _Traits::assign is last so the codegen doesn't think the char
; 3998 : 		// write can alias this
; 3999 : 		_Traits::assign(_My_data._Bx._Buf[0], _Elem());

	mov	BYTE PTR $T1[ebp], 0
	lea	ecx, DWORD PTR $T1[ebp]
	push	ecx
	mov	edx, 1
	imul	eax, edx, 0
	mov	ecx, DWORD PTR __My_data$[ebp]
	lea	edx, DWORD PTR [ecx+eax+4]
	push	edx
	call	?assign@?$char_traits@D@std@@SAXAADABD@Z ; std::char_traits<char>::assign
	add	esp, 8

; 4000 : 		}

	add	esp, 20					; 00000014H
	cmp	ebp, esp
	call	__RTC_CheckEsp
	mov	esp, ebp
	pop	ebp
	ret	0
?_Tidy_deallocate@?$basic_string@DU?$char_traits@D@std@@V?$allocator@D@2@@std@@QAEXXZ ENDP ; std::basic_string<char,std::char_traits<char>,std::allocator<char> >::_Tidy_deallocate
_TEXT	ENDS
; Function compile flags: /Odtp /RTCsu
; File c:\program files (x86)\microsoft visual studio\2017\community\vc\tools\msvc\14.15.26726\include\xstring
;	COMDAT ?size@?$basic_string@DU?$char_traits@D@std@@V?$allocator@D@2@@std@@QBEIXZ
_TEXT	SEGMENT
_this$ = -4						; size = 4
?size@?$basic_string@DU?$char_traits@D@std@@V?$allocator@D@2@@std@@QBEIXZ PROC ; std::basic_string<char,std::char_traits<char>,std::allocator<char> >::size, COMDAT
; _this$ = ecx

; 3301 : 		{	// return length of sequence

	push	ebp
	mov	ebp, esp
	push	ecx
	mov	DWORD PTR [ebp-4], -858993460		; ccccccccH
	mov	DWORD PTR _this$[ebp], ecx

; 3302 : 		return (this->_Get_data()._Mysize);

	mov	ecx, DWORD PTR _this$[ebp]
	call	?_Get_data@?$_String_alloc@U?$_String_base_types@DV?$allocator@D@std@@@std@@@std@@QBEABV?$_String_val@U?$_Simple_types@D@std@@@2@XZ ; std::_String_alloc<std::_String_base_types<char,std::allocator<char> > >::_Get_data
	mov	eax, DWORD PTR [eax+20]

; 3303 : 		}

	add	esp, 4
	cmp	ebp, esp
	call	__RTC_CheckEsp
	mov	esp, ebp
	pop	ebp
	ret	0
?size@?$basic_string@DU?$char_traits@D@std@@V?$allocator@D@2@@std@@QBEIXZ ENDP ; std::basic_string<char,std::char_traits<char>,std::allocator<char> >::size
_TEXT	ENDS
; Function compile flags: /Odtp /RTCsu
; File c:\program files (x86)\microsoft visual studio\2017\community\vc\tools\msvc\14.15.26726\include\xstring
;	COMDAT ?c_str@?$basic_string@DU?$char_traits@D@std@@V?$allocator@D@2@@std@@QBEPBDXZ
_TEXT	SEGMENT
_this$ = -16						; size = 4
__$EHRec$ = -12						; size = 12
?c_str@?$basic_string@DU?$char_traits@D@std@@V?$allocator@D@2@@std@@QBEPBDXZ PROC ; std::basic_string<char,std::char_traits<char>,std::allocator<char> >::c_str, COMDAT
; _this$ = ecx

; 3279 : 		{	// return pointer to null-terminated immutable array

	push	ebp
	mov	ebp, esp
	push	-1
	push	__ehhandler$?c_str@?$basic_string@DU?$char_traits@D@std@@V?$allocator@D@2@@std@@QBEPBDXZ
	mov	eax, DWORD PTR fs:0
	push	eax
	push	ecx
	mov	DWORD PTR [ebp-16], -858993460		; ccccccccH
	mov	eax, DWORD PTR ___security_cookie
	xor	eax, ebp
	push	eax
	lea	eax, DWORD PTR __$EHRec$[ebp]
	mov	DWORD PTR fs:0, eax
	mov	DWORD PTR _this$[ebp], ecx

; 3280 : 		return (this->_Get_data()._Myptr());

	mov	ecx, DWORD PTR _this$[ebp]
	call	?_Get_data@?$_String_alloc@U?$_String_base_types@DV?$allocator@D@std@@@std@@@std@@QBEABV?$_String_val@U?$_Simple_types@D@std@@@2@XZ ; std::_String_alloc<std::_String_base_types<char,std::allocator<char> > >::_Get_data
	mov	ecx, eax
	call	?_Myptr@?$_String_val@U?$_Simple_types@D@std@@@std@@QBEPBDXZ ; std::_String_val<std::_Simple_types<char> >::_Myptr

; 3281 : 		}

	mov	ecx, DWORD PTR __$EHRec$[ebp]
	mov	DWORD PTR fs:0, ecx
	pop	ecx
	add	esp, 16					; 00000010H
	cmp	ebp, esp
	call	__RTC_CheckEsp
	mov	esp, ebp
	pop	ebp
	ret	0
_TEXT	ENDS
;	COMDAT text$x
text$x	SEGMENT
__ehhandler$?c_str@?$basic_string@DU?$char_traits@D@std@@V?$allocator@D@2@@std@@QBEPBDXZ:
	mov	edx, DWORD PTR [esp+8]
	lea	eax, DWORD PTR [edx+12]
	mov	ecx, DWORD PTR [edx-8]
	xor	ecx, eax
	call	@__security_check_cookie@4
	mov	eax, OFFSET __ehfuncinfo$?c_str@?$basic_string@DU?$char_traits@D@std@@V?$allocator@D@2@@std@@QBEPBDXZ
	jmp	___CxxFrameHandler3
text$x	ENDS
?c_str@?$basic_string@DU?$char_traits@D@std@@V?$allocator@D@2@@std@@QBEPBDXZ ENDP ; std::basic_string<char,std::char_traits<char>,std::allocator<char> >::c_str
; Function compile flags: /Odtp /RTCsu
; File c:\program files (x86)\microsoft visual studio\2017\community\vc\tools\msvc\14.15.26726\include\xstring
;	COMDAT ??1?$basic_string@DU?$char_traits@D@std@@V?$allocator@D@2@@std@@QAE@XZ
_TEXT	SEGMENT
_this$ = -16						; size = 4
__$EHRec$ = -12						; size = 12
??1?$basic_string@DU?$char_traits@D@std@@V?$allocator@D@2@@std@@QAE@XZ PROC ; std::basic_string<char,std::char_traits<char>,std::allocator<char> >::~basic_string<char,std::char_traits<char>,std::allocator<char> >, COMDAT
; _this$ = ecx

; 2459 : 		{	// destroy the string

	push	ebp
	mov	ebp, esp
	push	-1
	push	__ehhandler$??1?$basic_string@DU?$char_traits@D@std@@V?$allocator@D@2@@std@@QAE@XZ
	mov	eax, DWORD PTR fs:0
	push	eax
	push	ecx
	mov	DWORD PTR [ebp-16], -858993460		; ccccccccH
	mov	eax, DWORD PTR ___security_cookie
	xor	eax, ebp
	push	eax
	lea	eax, DWORD PTR __$EHRec$[ebp]
	mov	DWORD PTR fs:0, eax
	mov	DWORD PTR _this$[ebp], ecx

; 2460 : 		_Tidy_deallocate();

	mov	ecx, DWORD PTR _this$[ebp]
	call	?_Tidy_deallocate@?$basic_string@DU?$char_traits@D@std@@V?$allocator@D@2@@std@@QAEXXZ ; std::basic_string<char,std::char_traits<char>,std::allocator<char> >::_Tidy_deallocate

; 2461 : 		}

	mov	ecx, DWORD PTR _this$[ebp]
	call	??1?$_String_alloc@U?$_String_base_types@DV?$allocator@D@std@@@std@@@std@@QAE@XZ ; std::_String_alloc<std::_String_base_types<char,std::allocator<char> > >::~_String_alloc<std::_String_base_types<char,std::allocator<char> > >
	mov	ecx, DWORD PTR __$EHRec$[ebp]
	mov	DWORD PTR fs:0, ecx
	pop	ecx
	add	esp, 16					; 00000010H
	cmp	ebp, esp
	call	__RTC_CheckEsp
	mov	esp, ebp
	pop	ebp
	ret	0
_TEXT	ENDS
;	COMDAT text$x
text$x	SEGMENT
__ehhandler$??1?$basic_string@DU?$char_traits@D@std@@V?$allocator@D@2@@std@@QAE@XZ:
	mov	edx, DWORD PTR [esp+8]
	lea	eax, DWORD PTR [edx+12]
	mov	ecx, DWORD PTR [edx-8]
	xor	ecx, eax
	call	@__security_check_cookie@4
	mov	eax, OFFSET __ehfuncinfo$??1?$basic_string@DU?$char_traits@D@std@@V?$allocator@D@2@@std@@QAE@XZ
	jmp	___CxxFrameHandler3
text$x	ENDS
??1?$basic_string@DU?$char_traits@D@std@@V?$allocator@D@2@@std@@QAE@XZ ENDP ; std::basic_string<char,std::char_traits<char>,std::allocator<char> >::~basic_string<char,std::char_traits<char>,std::allocator<char> >
; Function compile flags: /Odtp /RTCsu
;	COMDAT ??1?$_Compressed_pair@V?$allocator@D@std@@V?$_String_val@U?$_Simple_types@D@std@@@2@$00@std@@QAE@XZ
_TEXT	SEGMENT
_this$ = -4						; size = 4
??1?$_Compressed_pair@V?$allocator@D@std@@V?$_String_val@U?$_Simple_types@D@std@@@2@$00@std@@QAE@XZ PROC ; std::_Compressed_pair<std::allocator<char>,std::_String_val<std::_Simple_types<char> >,1>::~_Compressed_pair<std::allocator<char>,std::_String_val<std::_Simple_types<char> >,1>, COMDAT
; _this$ = ecx
	push	ebp
	mov	ebp, esp
	push	ecx
	mov	DWORD PTR [ebp-4], -858993460		; ccccccccH
	mov	DWORD PTR _this$[ebp], ecx
	mov	ecx, DWORD PTR _this$[ebp]
	call	??1?$_String_val@U?$_Simple_types@D@std@@@std@@QAE@XZ
	add	esp, 4
	cmp	ebp, esp
	call	__RTC_CheckEsp
	mov	esp, ebp
	pop	ebp
	ret	0
??1?$_Compressed_pair@V?$allocator@D@std@@V?$_String_val@U?$_Simple_types@D@std@@@2@$00@std@@QAE@XZ ENDP ; std::_Compressed_pair<std::allocator<char>,std::_String_val<std::_Simple_types<char> >,1>::~_Compressed_pair<std::allocator<char>,std::_String_val<std::_Simple_types<char> >,1>
_TEXT	ENDS
; Function compile flags: /Odtp /RTCsu
; File c:\program files (x86)\microsoft visual studio\2017\community\vc\tools\msvc\14.15.26726\include\xutility
;	COMDAT ?_Get_second@?$_Compressed_pair@V?$allocator@D@std@@V?$_String_val@U?$_Simple_types@D@std@@@2@$00@std@@QBEABV?$_String_val@U?$_Simple_types@D@std@@@2@XZ
_TEXT	SEGMENT
_this$ = -4						; size = 4
?_Get_second@?$_Compressed_pair@V?$allocator@D@std@@V?$_String_val@U?$_Simple_types@D@std@@@2@$00@std@@QBEABV?$_String_val@U?$_Simple_types@D@std@@@2@XZ PROC ; std::_Compressed_pair<std::allocator<char>,std::_String_val<std::_Simple_types<char> >,1>::_Get_second, COMDAT
; _this$ = ecx

; 306  : 		{	// return const reference to second

	push	ebp
	mov	ebp, esp
	push	ecx
	mov	DWORD PTR [ebp-4], -858993460		; ccccccccH
	mov	DWORD PTR _this$[ebp], ecx

; 307  : 		return (_Myval2);

	mov	eax, DWORD PTR _this$[ebp]

; 308  : 		}

	mov	esp, ebp
	pop	ebp
	ret	0
?_Get_second@?$_Compressed_pair@V?$allocator@D@std@@V?$_String_val@U?$_Simple_types@D@std@@@2@$00@std@@QBEABV?$_String_val@U?$_Simple_types@D@std@@@2@XZ ENDP ; std::_Compressed_pair<std::allocator<char>,std::_String_val<std::_Simple_types<char> >,1>::_Get_second
_TEXT	ENDS
; Function compile flags: /Odtp /RTCsu
; File c:\program files (x86)\microsoft visual studio\2017\community\vc\tools\msvc\14.15.26726\include\xutility
;	COMDAT ?_Get_second@?$_Compressed_pair@V?$allocator@D@std@@V?$_String_val@U?$_Simple_types@D@std@@@2@$00@std@@QAEAAV?$_String_val@U?$_Simple_types@D@std@@@2@XZ
_TEXT	SEGMENT
_this$ = -4						; size = 4
?_Get_second@?$_Compressed_pair@V?$allocator@D@std@@V?$_String_val@U?$_Simple_types@D@std@@@2@$00@std@@QAEAAV?$_String_val@U?$_Simple_types@D@std@@@2@XZ PROC ; std::_Compressed_pair<std::allocator<char>,std::_String_val<std::_Simple_types<char> >,1>::_Get_second, COMDAT
; _this$ = ecx

; 301  : 		{	// return reference to second

	push	ebp
	mov	ebp, esp
	push	ecx
	mov	DWORD PTR [ebp-4], -858993460		; ccccccccH
	mov	DWORD PTR _this$[ebp], ecx

; 302  : 		return (_Myval2);

	mov	eax, DWORD PTR _this$[ebp]

; 303  : 		}

	mov	esp, ebp
	pop	ebp
	ret	0
?_Get_second@?$_Compressed_pair@V?$allocator@D@std@@V?$_String_val@U?$_Simple_types@D@std@@@2@$00@std@@QAEAAV?$_String_val@U?$_Simple_types@D@std@@@2@XZ ENDP ; std::_Compressed_pair<std::allocator<char>,std::_String_val<std::_Simple_types<char> >,1>::_Get_second
_TEXT	ENDS
; Function compile flags: /Odtp /RTCsu
; File c:\program files (x86)\microsoft visual studio\2017\community\vc\tools\msvc\14.15.26726\include\xutility
;	COMDAT ?_Get_first@?$_Compressed_pair@V?$allocator@D@std@@V?$_String_val@U?$_Simple_types@D@std@@@2@$00@std@@QAEAAV?$allocator@D@2@XZ
_TEXT	SEGMENT
_this$ = -4						; size = 4
?_Get_first@?$_Compressed_pair@V?$allocator@D@std@@V?$_String_val@U?$_Simple_types@D@std@@@2@$00@std@@QAEAAV?$allocator@D@2@XZ PROC ; std::_Compressed_pair<std::allocator<char>,std::_String_val<std::_Simple_types<char> >,1>::_Get_first, COMDAT
; _this$ = ecx

; 291  : 		{	// return reference to first

	push	ebp
	mov	ebp, esp
	push	ecx
	mov	DWORD PTR [ebp-4], -858993460		; ccccccccH
	mov	DWORD PTR _this$[ebp], ecx

; 292  : 		return (*this);

	mov	eax, DWORD PTR _this$[ebp]

; 293  : 		}

	mov	esp, ebp
	pop	ebp
	ret	0
?_Get_first@?$_Compressed_pair@V?$allocator@D@std@@V?$_String_val@U?$_Simple_types@D@std@@@2@$00@std@@QAEAAV?$allocator@D@2@XZ ENDP ; std::_Compressed_pair<std::allocator<char>,std::_String_val<std::_Simple_types<char> >,1>::_Get_first
_TEXT	ENDS
; Function compile flags: /Odtp /RTCsu
; File c:\program files (x86)\microsoft visual studio\2017\community\vc\tools\msvc\14.15.26726\include\xstring
;	COMDAT ?_Get_data@?$_String_alloc@U?$_String_base_types@DV?$allocator@D@std@@@std@@@std@@QBEABV?$_String_val@U?$_Simple_types@D@std@@@2@XZ
_TEXT	SEGMENT
_this$ = -4						; size = 4
?_Get_data@?$_String_alloc@U?$_String_base_types@DV?$allocator@D@std@@@std@@@std@@QBEABV?$_String_val@U?$_Simple_types@D@std@@@2@XZ PROC ; std::_String_alloc<std::_String_base_types<char,std::allocator<char> > >::_Get_data, COMDAT
; _this$ = ecx

; 2047 : 		{	// return const reference to _String_val

	push	ebp
	mov	ebp, esp
	push	ecx
	mov	DWORD PTR [ebp-4], -858993460		; ccccccccH
	mov	DWORD PTR _this$[ebp], ecx

; 2048 : 		return (_Mypair._Get_second());

	mov	ecx, DWORD PTR _this$[ebp]
	call	?_Get_second@?$_Compressed_pair@V?$allocator@D@std@@V?$_String_val@U?$_Simple_types@D@std@@@2@$00@std@@QBEABV?$_String_val@U?$_Simple_types@D@std@@@2@XZ ; std::_Compressed_pair<std::allocator<char>,std::_String_val<std::_Simple_types<char> >,1>::_Get_second

; 2049 : 		}

	add	esp, 4
	cmp	ebp, esp
	call	__RTC_CheckEsp
	mov	esp, ebp
	pop	ebp
	ret	0
?_Get_data@?$_String_alloc@U?$_String_base_types@DV?$allocator@D@std@@@std@@@std@@QBEABV?$_String_val@U?$_Simple_types@D@std@@@2@XZ ENDP ; std::_String_alloc<std::_String_base_types<char,std::allocator<char> > >::_Get_data
_TEXT	ENDS
; Function compile flags: /Odtp /RTCsu
; File c:\program files (x86)\microsoft visual studio\2017\community\vc\tools\msvc\14.15.26726\include\xstring
;	COMDAT ?_Get_data@?$_String_alloc@U?$_String_base_types@DV?$allocator@D@std@@@std@@@std@@QAEAAV?$_String_val@U?$_Simple_types@D@std@@@2@XZ
_TEXT	SEGMENT
_this$ = -4						; size = 4
?_Get_data@?$_String_alloc@U?$_String_base_types@DV?$allocator@D@std@@@std@@@std@@QAEAAV?$_String_val@U?$_Simple_types@D@std@@@2@XZ PROC ; std::_String_alloc<std::_String_base_types<char,std::allocator<char> > >::_Get_data, COMDAT
; _this$ = ecx

; 2042 : 		{	// return reference to _String_val

	push	ebp
	mov	ebp, esp
	push	ecx
	mov	DWORD PTR [ebp-4], -858993460		; ccccccccH
	mov	DWORD PTR _this$[ebp], ecx

; 2043 : 		return (_Mypair._Get_second());

	mov	ecx, DWORD PTR _this$[ebp]
	call	?_Get_second@?$_Compressed_pair@V?$allocator@D@std@@V?$_String_val@U?$_Simple_types@D@std@@@2@$00@std@@QAEAAV?$_String_val@U?$_Simple_types@D@std@@@2@XZ ; std::_Compressed_pair<std::allocator<char>,std::_String_val<std::_Simple_types<char> >,1>::_Get_second

; 2044 : 		}

	add	esp, 4
	cmp	ebp, esp
	call	__RTC_CheckEsp
	mov	esp, ebp
	pop	ebp
	ret	0
?_Get_data@?$_String_alloc@U?$_String_base_types@DV?$allocator@D@std@@@std@@@std@@QAEAAV?$_String_val@U?$_Simple_types@D@std@@@2@XZ ENDP ; std::_String_alloc<std::_String_base_types<char,std::allocator<char> > >::_Get_data
_TEXT	ENDS
; Function compile flags: /Odtp /RTCsu
; File c:\program files (x86)\microsoft visual studio\2017\community\vc\tools\msvc\14.15.26726\include\xstring
;	COMDAT ?_Getal@?$_String_alloc@U?$_String_base_types@DV?$allocator@D@std@@@std@@@std@@QAEAAV?$allocator@D@2@XZ
_TEXT	SEGMENT
_this$ = -4						; size = 4
?_Getal@?$_String_alloc@U?$_String_base_types@DV?$allocator@D@std@@@std@@@std@@QAEAAV?$allocator@D@2@XZ PROC ; std::_String_alloc<std::_String_base_types<char,std::allocator<char> > >::_Getal, COMDAT
; _this$ = ecx

; 2032 : 		{	// return reference to allocator

	push	ebp
	mov	ebp, esp
	push	ecx
	mov	DWORD PTR [ebp-4], -858993460		; ccccccccH
	mov	DWORD PTR _this$[ebp], ecx

; 2033 : 		return (_Mypair._Get_first());

	mov	ecx, DWORD PTR _this$[ebp]
	call	?_Get_first@?$_Compressed_pair@V?$allocator@D@std@@V?$_String_val@U?$_Simple_types@D@std@@@2@$00@std@@QAEAAV?$allocator@D@2@XZ ; std::_Compressed_pair<std::allocator<char>,std::_String_val<std::_Simple_types<char> >,1>::_Get_first

; 2034 : 		}

	add	esp, 4
	cmp	ebp, esp
	call	__RTC_CheckEsp
	mov	esp, ebp
	pop	ebp
	ret	0
?_Getal@?$_String_alloc@U?$_String_base_types@DV?$allocator@D@std@@@std@@@std@@QAEAAV?$allocator@D@2@XZ ENDP ; std::_String_alloc<std::_String_base_types<char,std::allocator<char> > >::_Getal
_TEXT	ENDS
; Function compile flags: /Odtp /RTCsu
; File c:\program files (x86)\microsoft visual studio\2017\community\vc\tools\msvc\14.15.26726\include\xstring
;	COMDAT ?_Orphan_all@?$_String_alloc@U?$_String_base_types@DV?$allocator@D@std@@@std@@@std@@QAEXXZ
_TEXT	SEGMENT
_this$ = -4						; size = 4
?_Orphan_all@?$_String_alloc@U?$_String_base_types@DV?$allocator@D@std@@@std@@@std@@QAEXXZ PROC ; std::_String_alloc<std::_String_base_types<char,std::allocator<char> > >::_Orphan_all, COMDAT
; _this$ = ecx

; 2022 : 		{	// orphan all iterators

	push	ebp
	mov	ebp, esp
	push	ecx
	mov	DWORD PTR [ebp-4], -858993460		; ccccccccH
	mov	DWORD PTR _this$[ebp], ecx

; 2023 : 		_Get_data()._Orphan_all();

	mov	ecx, DWORD PTR _this$[ebp]
	call	?_Get_data@?$_String_alloc@U?$_String_base_types@DV?$allocator@D@std@@@std@@@std@@QAEAAV?$_String_val@U?$_Simple_types@D@std@@@2@XZ ; std::_String_alloc<std::_String_base_types<char,std::allocator<char> > >::_Get_data
	mov	ecx, eax
	call	?_Orphan_all@_Container_base12@std@@QAEXXZ ; std::_Container_base12::_Orphan_all

; 2024 : 		}

	add	esp, 4
	cmp	ebp, esp
	call	__RTC_CheckEsp
	mov	esp, ebp
	pop	ebp
	ret	0
?_Orphan_all@?$_String_alloc@U?$_String_base_types@DV?$allocator@D@std@@@std@@@std@@QAEXXZ ENDP ; std::_String_alloc<std::_String_base_types<char,std::allocator<char> > >::_Orphan_all
_TEXT	ENDS
; Function compile flags: /Odtp /RTCsu
; File c:\program files (x86)\microsoft visual studio\2017\community\vc\tools\msvc\14.15.26726\include\xstring
;	COMDAT ?_Myproxy@?$_String_alloc@U?$_String_base_types@DV?$allocator@D@std@@@std@@@std@@QAEAAPAU_Container_proxy@2@XZ
_TEXT	SEGMENT
_this$ = -4						; size = 4
?_Myproxy@?$_String_alloc@U?$_String_base_types@DV?$allocator@D@std@@@std@@@std@@QAEAAPAU_Container_proxy@2@XZ PROC ; std::_String_alloc<std::_String_base_types<char,std::allocator<char> > >::_Myproxy, COMDAT
; _this$ = ecx

; 2011 : 		{	// return reference to _Myproxy

	push	ebp
	mov	ebp, esp
	push	ecx
	mov	DWORD PTR [ebp-4], -858993460		; ccccccccH
	mov	DWORD PTR _this$[ebp], ecx

; 2012 : 		return (_Get_data()._Myproxy);

	mov	ecx, DWORD PTR _this$[ebp]
	call	?_Get_data@?$_String_alloc@U?$_String_base_types@DV?$allocator@D@std@@@std@@@std@@QAEAAV?$_String_val@U?$_Simple_types@D@std@@@2@XZ ; std::_String_alloc<std::_String_base_types<char,std::allocator<char> > >::_Get_data

; 2013 : 		}

	add	esp, 4
	cmp	ebp, esp
	call	__RTC_CheckEsp
	mov	esp, ebp
	pop	ebp
	ret	0
?_Myproxy@?$_String_alloc@U?$_String_base_types@DV?$allocator@D@std@@@std@@@std@@QAEAAPAU_Container_proxy@2@XZ ENDP ; std::_String_alloc<std::_String_base_types<char,std::allocator<char> > >::_Myproxy
_TEXT	ENDS
; Function compile flags: /Odtp /RTCsu
; File c:\program files (x86)\microsoft visual studio\2017\community\vc\tools\msvc\14.15.26726\include\xstring
;	COMDAT ?_Free_proxy@?$_String_alloc@U?$_String_base_types@DV?$allocator@D@std@@@std@@@std@@QAEXXZ
_TEXT	SEGMENT
__Proxy_allocator$ = -9					; size = 1
_this$ = -4						; size = 4
?_Free_proxy@?$_String_alloc@U?$_String_base_types@DV?$allocator@D@std@@@std@@@std@@QAEXXZ PROC ; std::_String_alloc<std::_String_base_types<char,std::allocator<char> > >::_Free_proxy, COMDAT
; _this$ = ecx

; 1997 : 		{	// destroy proxy

	push	ebp
	mov	ebp, esp
	sub	esp, 16					; 00000010H
	mov	eax, -858993460				; ccccccccH
	mov	DWORD PTR [ebp-16], eax
	mov	DWORD PTR [ebp-12], eax
	mov	DWORD PTR [ebp-8], eax
	mov	DWORD PTR [ebp-4], eax
	mov	DWORD PTR _this$[ebp], ecx

; 1998 : 		_Alproxy _Proxy_allocator(_Getal());

	mov	ecx, DWORD PTR _this$[ebp]
	call	?_Getal@?$_String_alloc@U?$_String_base_types@DV?$allocator@D@std@@@std@@@std@@QAEAAV?$allocator@D@2@XZ ; std::_String_alloc<std::_String_base_types<char,std::allocator<char> > >::_Getal
	push	eax
	lea	ecx, DWORD PTR __Proxy_allocator$[ebp]
	call	??$?0D@?$allocator@U_Container_proxy@std@@@std@@QAE@ABV?$allocator@D@1@@Z ; std::allocator<std::_Container_proxy>::allocator<std::_Container_proxy><char>

; 1999 : 		_Orphan_all();

	mov	ecx, DWORD PTR _this$[ebp]
	call	?_Orphan_all@?$_String_alloc@U?$_String_base_types@DV?$allocator@D@std@@@std@@@std@@QAEXXZ ; std::_String_alloc<std::_String_base_types<char,std::allocator<char> > >::_Orphan_all

; 2000 : 		_Alproxy_traits::destroy(_Proxy_allocator, _Myproxy());

	mov	ecx, DWORD PTR _this$[ebp]
	call	?_Myproxy@?$_String_alloc@U?$_String_base_types@DV?$allocator@D@std@@@std@@@std@@QAEAAPAU_Container_proxy@2@XZ ; std::_String_alloc<std::_String_base_types<char,std::allocator<char> > >::_Myproxy
	mov	eax, DWORD PTR [eax]
	push	eax
	lea	ecx, DWORD PTR __Proxy_allocator$[ebp]
	push	ecx
	call	??$destroy@U_Container_proxy@std@@@?$_Default_allocator_traits@V?$allocator@U_Container_proxy@std@@@std@@@std@@SAXAAV?$allocator@U_Container_proxy@std@@@1@QAU_Container_proxy@1@@Z ; std::_Default_allocator_traits<std::allocator<std::_Container_proxy> >::destroy<std::_Container_proxy>
	add	esp, 8

; 2001 : 		_Deallocate_plain(_Proxy_allocator, _Myproxy());

	mov	ecx, DWORD PTR _this$[ebp]
	call	?_Myproxy@?$_String_alloc@U?$_String_base_types@DV?$allocator@D@std@@@std@@@std@@QAEAAPAU_Container_proxy@2@XZ ; std::_String_alloc<std::_String_base_types<char,std::allocator<char> > >::_Myproxy
	mov	edx, DWORD PTR [eax]
	push	edx
	lea	eax, DWORD PTR __Proxy_allocator$[ebp]
	push	eax
	call	??$_Deallocate_plain@V?$allocator@U_Container_proxy@std@@@std@@$0A@@std@@YAXAAV?$allocator@U_Container_proxy@std@@@0@QAU_Container_proxy@0@@Z ; std::_Deallocate_plain<std::allocator<std::_Container_proxy>,0>
	add	esp, 8

; 2002 : 		_Myproxy() = nullptr;

	mov	ecx, DWORD PTR _this$[ebp]
	call	?_Myproxy@?$_String_alloc@U?$_String_base_types@DV?$allocator@D@std@@@std@@@std@@QAEAAPAU_Container_proxy@2@XZ ; std::_String_alloc<std::_String_base_types<char,std::allocator<char> > >::_Myproxy
	mov	DWORD PTR [eax], 0

; 2003 : 		}

	push	edx
	mov	ecx, ebp
	push	eax
	lea	edx, DWORD PTR $LN5@Free_proxy
	call	@_RTC_CheckStackVars@8
	pop	eax
	pop	edx
	add	esp, 16					; 00000010H
	cmp	ebp, esp
	call	__RTC_CheckEsp
	mov	esp, ebp
	pop	ebp
	ret	0
	npad	2
$LN5@Free_proxy:
	DD	1
	DD	$LN4@Free_proxy
$LN4@Free_proxy:
	DD	-9					; fffffff7H
	DD	1
	DD	$LN3@Free_proxy
$LN3@Free_proxy:
	DB	95					; 0000005fH
	DB	80					; 00000050H
	DB	114					; 00000072H
	DB	111					; 0000006fH
	DB	120					; 00000078H
	DB	121					; 00000079H
	DB	95					; 0000005fH
	DB	97					; 00000061H
	DB	108					; 0000006cH
	DB	108					; 0000006cH
	DB	111					; 0000006fH
	DB	99					; 00000063H
	DB	97					; 00000061H
	DB	116					; 00000074H
	DB	111					; 0000006fH
	DB	114					; 00000072H
	DB	0
?_Free_proxy@?$_String_alloc@U?$_String_base_types@DV?$allocator@D@std@@@std@@@std@@QAEXXZ ENDP ; std::_String_alloc<std::_String_base_types<char,std::allocator<char> > >::_Free_proxy
_TEXT	ENDS
; Function compile flags: /Odtp /RTCsu
; File c:\program files (x86)\microsoft visual studio\2017\community\vc\tools\msvc\14.15.26726\include\xstring
;	COMDAT ??1?$_String_alloc@U?$_String_base_types@DV?$allocator@D@std@@@std@@@std@@QAE@XZ
_TEXT	SEGMENT
_this$ = -16						; size = 4
__$EHRec$ = -12						; size = 12
??1?$_String_alloc@U?$_String_base_types@DV?$allocator@D@std@@@std@@@std@@QAE@XZ PROC ; std::_String_alloc<std::_String_base_types<char,std::allocator<char> > >::~_String_alloc<std::_String_base_types<char,std::allocator<char> > >, COMDAT
; _this$ = ecx

; 1948 : 		{	// destroy the object

	push	ebp
	mov	ebp, esp
	push	-1
	push	__ehhandler$??1?$_String_alloc@U?$_String_base_types@DV?$allocator@D@std@@@std@@@std@@QAE@XZ
	mov	eax, DWORD PTR fs:0
	push	eax
	push	ecx
	mov	DWORD PTR [ebp-16], -858993460		; ccccccccH
	mov	eax, DWORD PTR ___security_cookie
	xor	eax, ebp
	push	eax
	lea	eax, DWORD PTR __$EHRec$[ebp]
	mov	DWORD PTR fs:0, eax
	mov	DWORD PTR _this$[ebp], ecx

; 1949 : 		_Free_proxy();

	mov	ecx, DWORD PTR _this$[ebp]
	call	?_Free_proxy@?$_String_alloc@U?$_String_base_types@DV?$allocator@D@std@@@std@@@std@@QAEXXZ ; std::_String_alloc<std::_String_base_types<char,std::allocator<char> > >::_Free_proxy

; 1950 : 		}

	mov	ecx, DWORD PTR _this$[ebp]
	call	??1?$_Compressed_pair@V?$allocator@D@std@@V?$_String_val@U?$_Simple_types@D@std@@@2@$00@std@@QAE@XZ
	mov	ecx, DWORD PTR __$EHRec$[ebp]
	mov	DWORD PTR fs:0, ecx
	pop	ecx
	add	esp, 16					; 00000010H
	cmp	ebp, esp
	call	__RTC_CheckEsp
	mov	esp, ebp
	pop	ebp
	ret	0
_TEXT	ENDS
;	COMDAT text$x
text$x	SEGMENT
__ehhandler$??1?$_String_alloc@U?$_String_base_types@DV?$allocator@D@std@@@std@@@std@@QAE@XZ:
	mov	edx, DWORD PTR [esp+8]
	lea	eax, DWORD PTR [edx+12]
	mov	ecx, DWORD PTR [edx-8]
	xor	ecx, eax
	call	@__security_check_cookie@4
	mov	eax, OFFSET __ehfuncinfo$??1?$_String_alloc@U?$_String_base_types@DV?$allocator@D@std@@@std@@@std@@QAE@XZ
	jmp	___CxxFrameHandler3
text$x	ENDS
??1?$_String_alloc@U?$_String_base_types@DV?$allocator@D@std@@@std@@@std@@QAE@XZ ENDP ; std::_String_alloc<std::_String_base_types<char,std::allocator<char> > >::~_String_alloc<std::_String_base_types<char,std::allocator<char> > >
; Function compile flags: /Odtp /RTCsu
;	COMDAT ??1?$_String_val@U?$_Simple_types@D@std@@@std@@QAE@XZ
_TEXT	SEGMENT
_this$ = -4						; size = 4
??1?$_String_val@U?$_Simple_types@D@std@@@std@@QAE@XZ PROC ; std::_String_val<std::_Simple_types<char> >::~_String_val<std::_Simple_types<char> >, COMDAT
; _this$ = ecx
	push	ebp
	mov	ebp, esp
	push	ecx
	mov	DWORD PTR [ebp-4], -858993460		; ccccccccH
	mov	DWORD PTR _this$[ebp], ecx
	mov	ecx, DWORD PTR _this$[ebp]
	add	ecx, 4
	call	??1_Bxty@?$_String_val@U?$_Simple_types@D@std@@@std@@QAE@XZ ; std::_String_val<std::_Simple_types<char> >::_Bxty::~_Bxty
	add	esp, 4
	cmp	ebp, esp
	call	__RTC_CheckEsp
	mov	esp, ebp
	pop	ebp
	ret	0
??1?$_String_val@U?$_Simple_types@D@std@@@std@@QAE@XZ ENDP ; std::_String_val<std::_Simple_types<char> >::~_String_val<std::_Simple_types<char> >
_TEXT	ENDS
; Function compile flags: /Odtp /RTCsu
; File c:\program files (x86)\microsoft visual studio\2017\community\vc\tools\msvc\14.15.26726\include\xstring
;	COMDAT ??1_Bxty@?$_String_val@U?$_Simple_types@D@std@@@std@@QAE@XZ
_TEXT	SEGMENT
_this$ = -4						; size = 4
??1_Bxty@?$_String_val@U?$_Simple_types@D@std@@@std@@QAE@XZ PROC ; std::_String_val<std::_Simple_types<char> >::_Bxty::~_Bxty, COMDAT
; _this$ = ecx

; 1861 : 			{	// user-provided, for fancy pointers

	push	ebp
	mov	ebp, esp
	push	ecx
	mov	DWORD PTR [ebp-4], -858993460		; ccccccccH
	mov	DWORD PTR _this$[ebp], ecx

; 1862 : 			}

	mov	esp, ebp
	pop	ebp
	ret	0
??1_Bxty@?$_String_val@U?$_Simple_types@D@std@@@std@@QAE@XZ ENDP ; std::_String_val<std::_Simple_types<char> >::_Bxty::~_Bxty
_TEXT	ENDS
; Function compile flags: /Odtp /RTCsu
; File c:\program files (x86)\microsoft visual studio\2017\community\vc\tools\msvc\14.15.26726\include\xstring
;	COMDAT ?_Large_string_engaged@?$_String_val@U?$_Simple_types@D@std@@@std@@QBE_NXZ
_TEXT	SEGMENT
tv66 = -8						; size = 4
_this$ = -4						; size = 4
?_Large_string_engaged@?$_String_val@U?$_Simple_types@D@std@@@std@@QBE_NXZ PROC ; std::_String_val<std::_Simple_types<char> >::_Large_string_engaged, COMDAT
; _this$ = ecx

; 1824 : 		{	// returns whether the large string mode (allocated memory) is engaged

	push	ebp
	mov	ebp, esp
	sub	esp, 8
	mov	DWORD PTR [ebp-8], -858993460		; ccccccccH
	mov	DWORD PTR [ebp-4], -858993460		; ccccccccH
	mov	DWORD PTR _this$[ebp], ecx

; 1825 : 		return (_BUF_SIZE <= _Myres);

	mov	eax, DWORD PTR _this$[ebp]
	cmp	DWORD PTR [eax+24], 16			; 00000010H
	jb	SHORT $LN3@Large_stri
	mov	DWORD PTR tv66[ebp], 1
	jmp	SHORT $LN4@Large_stri
$LN3@Large_stri:
	mov	DWORD PTR tv66[ebp], 0
$LN4@Large_stri:
	mov	al, BYTE PTR tv66[ebp]

; 1826 : 		}

	mov	esp, ebp
	pop	ebp
	ret	0
?_Large_string_engaged@?$_String_val@U?$_Simple_types@D@std@@@std@@QBE_NXZ ENDP ; std::_String_val<std::_Simple_types<char> >::_Large_string_engaged
_TEXT	ENDS
; Function compile flags: /Odtp /RTCsu
; File c:\program files (x86)\microsoft visual studio\2017\community\vc\tools\msvc\14.15.26726\include\xstring
;	COMDAT ?_Myptr@?$_String_val@U?$_Simple_types@D@std@@@std@@QBEPBDXZ
_TEXT	SEGMENT
__Result$ = -8						; size = 4
_this$ = -4						; size = 4
?_Myptr@?$_String_val@U?$_Simple_types@D@std@@@std@@QBEPBDXZ PROC ; std::_String_val<std::_Simple_types<char> >::_Myptr, COMDAT
; _this$ = ecx

; 1813 : 		{	// determine current pointer to buffer for immutable string

	push	ebp
	mov	ebp, esp
	sub	esp, 8
	mov	DWORD PTR [ebp-8], -858993460		; ccccccccH
	mov	DWORD PTR [ebp-4], -858993460		; ccccccccH
	mov	DWORD PTR _this$[ebp], ecx

; 1814 : 		const value_type * _Result = _Bx._Buf;

	mov	eax, DWORD PTR _this$[ebp]
	add	eax, 4
	mov	DWORD PTR __Result$[ebp], eax

; 1815 : 		if (_Large_string_engaged())

	mov	ecx, DWORD PTR _this$[ebp]
	call	?_Large_string_engaged@?$_String_val@U?$_Simple_types@D@std@@@std@@QBE_NXZ ; std::_String_val<std::_Simple_types<char> >::_Large_string_engaged
	movzx	ecx, al
	test	ecx, ecx
	je	SHORT $LN2@Myptr

; 1816 : 			{
; 1817 : 			_Result = _Unfancy(_Bx._Ptr);

	mov	edx, DWORD PTR _this$[ebp]
	mov	eax, DWORD PTR [edx+4]
	push	eax
	call	??$_Unfancy@D@std@@YAPADPAD@Z		; std::_Unfancy<char>
	add	esp, 4
	mov	DWORD PTR __Result$[ebp], eax
$LN2@Myptr:

; 1818 : 			}
; 1819 : 
; 1820 : 		return (_Result);

	mov	eax, DWORD PTR __Result$[ebp]

; 1821 : 		}

	add	esp, 8
	cmp	ebp, esp
	call	__RTC_CheckEsp
	mov	esp, ebp
	pop	ebp
	ret	0
?_Myptr@?$_String_val@U?$_Simple_types@D@std@@@std@@QBEPBDXZ ENDP ; std::_String_val<std::_Simple_types<char> >::_Myptr
_TEXT	ENDS
; Function compile flags: /Odtp /RTCsu
; File c:\program files (x86)\microsoft visual studio\2017\community\vc\tools\msvc\14.15.26726\include\xmemory0
;	COMDAT ?deallocate@?$allocator@D@std@@QAEXQADI@Z
_TEXT	SEGMENT
_this$ = -4						; size = 4
__Ptr$ = 8						; size = 4
__Count$ = 12						; size = 4
?deallocate@?$allocator@D@std@@QAEXQADI@Z PROC		; std::allocator<char>::deallocate, COMDAT
; _this$ = ecx

; 990  : 		{	// deallocate object at _Ptr

	push	ebp
	mov	ebp, esp
	push	ecx
	mov	DWORD PTR [ebp-4], -858993460		; ccccccccH
	mov	DWORD PTR _this$[ebp], ecx

; 991  : 		// no overflow check on the following multiply; we assume _Allocate did that check
; 992  : 		_Deallocate<_New_alignof<_Ty>>(_Ptr, sizeof(_Ty) * _Count);

	mov	eax, DWORD PTR __Count$[ebp]
	push	eax
	mov	ecx, DWORD PTR __Ptr$[ebp]
	push	ecx
	call	??$_Deallocate@$07$0A@@std@@YAXPAXI@Z	; std::_Deallocate<8,0>
	add	esp, 8

; 993  : 		}

	add	esp, 4
	cmp	ebp, esp
	call	__RTC_CheckEsp
	mov	esp, ebp
	pop	ebp
	ret	8
?deallocate@?$allocator@D@std@@QAEXQADI@Z ENDP		; std::allocator<char>::deallocate
_TEXT	ENDS
; Function compile flags: /Odtp /RTCsu
; File c:\program files (x86)\microsoft visual studio\2017\community\vc\tools\msvc\14.15.26726\include\xmemory0
;	COMDAT ?_Adjust_manually_vector_aligned@std@@YAXAAPAXAAI@Z
_TEXT	SEGMENT
__Back_shift$ = -16					; size = 4
__Min_back_shift$ = -12					; size = 4
__Ptr_container$ = -8					; size = 4
__Ptr_user$ = -4					; size = 4
__Ptr$ = 8						; size = 4
__Bytes$ = 12						; size = 4
?_Adjust_manually_vector_aligned@std@@YAXAAPAXAAI@Z PROC ; std::_Adjust_manually_vector_aligned, COMDAT

; 114  : 	{	// adjust parameters from _Allocate_manually_vector_aligned to pass to operator delete

	push	ebp
	mov	ebp, esp
	sub	esp, 16					; 00000010H
	mov	eax, -858993460				; ccccccccH
	mov	DWORD PTR [ebp-16], eax
	mov	DWORD PTR [ebp-12], eax
	mov	DWORD PTR [ebp-8], eax
	mov	DWORD PTR [ebp-4], eax

; 115  : 	_Bytes += _Non_user_size;

	mov	eax, DWORD PTR __Bytes$[ebp]
	mov	ecx, DWORD PTR [eax]
	add	ecx, 39					; 00000027H
	mov	edx, DWORD PTR __Bytes$[ebp]
	mov	DWORD PTR [edx], ecx

; 116  : 
; 117  : 	const uintptr_t * const _Ptr_user = reinterpret_cast<uintptr_t *>(_Ptr);

	mov	eax, DWORD PTR __Ptr$[ebp]
	mov	ecx, DWORD PTR [eax]
	mov	DWORD PTR __Ptr_user$[ebp], ecx

; 118  : 	const uintptr_t _Ptr_container = _Ptr_user[-1];

	mov	edx, 4
	imul	eax, edx, -1
	mov	ecx, DWORD PTR __Ptr_user$[ebp]
	mov	edx, DWORD PTR [ecx+eax]
	mov	DWORD PTR __Ptr_container$[ebp], edx
$LN4@Adjust_man:

; 119  : 
; 120  : 	// If the following asserts, it likely means that we are performing
; 121  : 	// an aligned delete on memory coming from an unaligned allocation.
; 122  : 	_STL_ASSERT(_Ptr_user[-2] == _Big_allocation_sentinel, "invalid argument");

	mov	eax, 4
	imul	ecx, eax, -2
	mov	edx, DWORD PTR __Ptr_user$[ebp]
	cmp	DWORD PTR [edx+ecx], -84215046		; fafafafaH
	jne	SHORT $LN7@Adjust_man
	jmp	SHORT $LN2@Adjust_man
$LN7@Adjust_man:
	push	OFFSET ??_C@_0BB@FCMFBGOM@invalid?5argument@
	push	OFFSET ??_C@_02DKCKIIND@?$CFs@
	push	0
	push	122					; 0000007aH
	push	OFFSET ??_C@_0GJ@CAJJPMGE@c?3?2program?5files?5?$CIx86?$CJ?2microsof@
	push	2
	call	__CrtDbgReport
	add	esp, 24					; 00000018H
	cmp	eax, 1
	jne	SHORT $LN19@Adjust_man
	int	3
$LN19@Adjust_man:
	push	0
	push	122					; 0000007aH
	push	OFFSET ??_C@_1NC@ICJKIMIP@?$AAc?$AA?3?$AA?2?$AAp?$AAr?$AAo?$AAg?$AAr?$AAa?$AAm?$AA?5?$AAf?$AAi?$AAl?$AAe@
	push	OFFSET ??_C@_1EK@NIFDJFDG@?$AAs?$AAt?$AAd?$AA?3?$AA?3?$AA_?$AAA?$AAd?$AAj?$AAu?$AAs?$AAt?$AA_?$AAm?$AAa@
	push	OFFSET ??_C@_1CG@JNLFBNGN@?$AA?$CC?$AAi?$AAn?$AAv?$AAa?$AAl?$AAi?$AAd?$AA?5?$AAa?$AAr?$AAg?$AAu?$AAm?$AAe@
	call	__invalid_parameter
	add	esp, 20					; 00000014H
	xor	ecx, ecx
	jne	SHORT $LN7@Adjust_man
$LN2@Adjust_man:
	xor	edx, edx
	jne	SHORT $LN4@Adjust_man

; 123  : 
; 124  : 	// Extra paranoia on aligned allocation/deallocation; ensure _Ptr_container is
; 125  : 	// in range [_Min_back_shift, _Non_user_size]
; 126  :   #ifdef _DEBUG
; 127  : 	constexpr uintptr_t _Min_back_shift = 2 * sizeof(void *);

	mov	DWORD PTR __Min_back_shift$[ebp], 8

; 128  :   #else /* ^^^ _DEBUG ^^^ // vvv !_DEBUG vvv */
; 129  : 	constexpr uintptr_t _Min_back_shift = sizeof(void *);
; 130  :   #endif /* _DEBUG */
; 131  : 	const uintptr_t _Back_shift = reinterpret_cast<uintptr_t>(_Ptr) - _Ptr_container;

	mov	eax, DWORD PTR __Ptr$[ebp]
	mov	ecx, DWORD PTR [eax]
	sub	ecx, DWORD PTR __Ptr_container$[ebp]
	mov	DWORD PTR __Back_shift$[ebp], ecx
$LN10@Adjust_man:

; 132  : 	_STL_VERIFY(_Back_shift >= _Min_back_shift && _Back_shift <= _Non_user_size, "invalid argument");

	cmp	DWORD PTR __Back_shift$[ebp], 8
	jb	SHORT $LN13@Adjust_man
	cmp	DWORD PTR __Back_shift$[ebp], 39	; 00000027H
	ja	SHORT $LN13@Adjust_man
	jmp	SHORT $LN8@Adjust_man
$LN13@Adjust_man:
	push	OFFSET ??_C@_0BB@FCMFBGOM@invalid?5argument@
	push	OFFSET ??_C@_02DKCKIIND@?$CFs@
	push	0
	push	132					; 00000084H
	push	OFFSET ??_C@_0GJ@CAJJPMGE@c?3?2program?5files?5?$CIx86?$CJ?2microsof@
	push	2
	call	__CrtDbgReport
	add	esp, 24					; 00000018H
	cmp	eax, 1
	jne	SHORT $LN20@Adjust_man
	int	3
$LN20@Adjust_man:
	push	0
	push	132					; 00000084H
	push	OFFSET ??_C@_1NC@ICJKIMIP@?$AAc?$AA?3?$AA?2?$AAp?$AAr?$AAo?$AAg?$AAr?$AAa?$AAm?$AA?5?$AAf?$AAi?$AAl?$AAe@
	push	OFFSET ??_C@_1EK@NIFDJFDG@?$AAs?$AAt?$AAd?$AA?3?$AA?3?$AA_?$AAA?$AAd?$AAj?$AAu?$AAs?$AAt?$AA_?$AAm?$AAa@
	push	OFFSET ??_C@_1CG@JNLFBNGN@?$AA?$CC?$AAi?$AAn?$AAv?$AAa?$AAl?$AAi?$AAd?$AA?5?$AAa?$AAr?$AAg?$AAu?$AAm?$AAe@
	call	__invalid_parameter
	add	esp, 20					; 00000014H
	xor	eax, eax
	jne	SHORT $LN13@Adjust_man
$LN8@Adjust_man:
	xor	ecx, ecx
	jne	SHORT $LN10@Adjust_man

; 133  : 	_Ptr = reinterpret_cast<void *>(_Ptr_container);

	mov	edx, DWORD PTR __Ptr$[ebp]
	mov	eax, DWORD PTR __Ptr_container$[ebp]
	mov	DWORD PTR [edx], eax

; 134  : 	}

	add	esp, 16					; 00000010H
	cmp	ebp, esp
	call	__RTC_CheckEsp
	mov	esp, ebp
	pop	ebp
	ret	0
?_Adjust_manually_vector_aligned@std@@YAXAAPAXAAI@Z ENDP ; std::_Adjust_manually_vector_aligned
_TEXT	ENDS
; Function compile flags: /Odtp /RTCsu
; File c:\program files (x86)\microsoft visual studio\2017\community\vc\tools\msvc\14.15.26726\include\xmemory0
;	COMDAT ?_Allocate@_Default_allocate_traits@std@@SAPAXI@Z
_TEXT	SEGMENT
__Bytes$ = 8						; size = 4
?_Allocate@_Default_allocate_traits@std@@SAPAXI@Z PROC	; std::_Default_allocate_traits::_Allocate, COMDAT

; 51   : 		{

	push	ebp
	mov	ebp, esp

; 52   : 		return (::operator new(_Bytes));

	mov	eax, DWORD PTR __Bytes$[ebp]
	push	eax
	call	??2@YAPAXI@Z				; operator new
	add	esp, 4

; 53   : 		}

	cmp	ebp, esp
	call	__RTC_CheckEsp
	pop	ebp
	ret	0
?_Allocate@_Default_allocate_traits@std@@SAPAXI@Z ENDP	; std::_Default_allocate_traits::_Allocate
_TEXT	ENDS
; Function compile flags: /Odtp /RTCsu
; File c:\program files (x86)\microsoft visual studio\2017\community\vc\tools\msvc\14.15.26726\include\xutility
;	COMDAT ?_Orphan_me@_Iterator_base12@std@@QAEXXZ
_TEXT	SEGMENT
__Pnext$1 = -8						; size = 4
_this$ = -4						; size = 4
?_Orphan_me@_Iterator_base12@std@@QAEXXZ PROC		; std::_Iterator_base12::_Orphan_me, COMDAT
; _this$ = ecx

; 191  : 		{	// cut ties with parent

	push	ebp
	mov	ebp, esp
	sub	esp, 8
	mov	DWORD PTR [ebp-8], -858993460		; ccccccccH
	mov	DWORD PTR [ebp-4], -858993460		; ccccccccH
	mov	DWORD PTR _this$[ebp], ecx

; 192  :  #if _ITERATOR_DEBUG_LEVEL == 2
; 193  : 		if (_Myproxy != nullptr)

	mov	eax, DWORD PTR _this$[ebp]
	cmp	DWORD PTR [eax], 0
	je	$LN13@Orphan_me

; 194  : 			{	// adopted, remove self from list
; 195  : 			_Iterator_base12 **_Pnext = &_Myproxy->_Myfirstiter;

	mov	ecx, DWORD PTR _this$[ebp]
	mov	edx, DWORD PTR [ecx]
	add	edx, 4
	mov	DWORD PTR __Pnext$1[ebp], edx
$LN2@Orphan_me:

; 196  : 			while (*_Pnext != nullptr && *_Pnext != this)

	mov	eax, DWORD PTR __Pnext$1[ebp]
	cmp	DWORD PTR [eax], 0
	je	SHORT $LN6@Orphan_me
	mov	ecx, DWORD PTR __Pnext$1[ebp]
	mov	edx, DWORD PTR [ecx]
	cmp	edx, DWORD PTR _this$[ebp]
	je	SHORT $LN6@Orphan_me

; 197  : 				_Pnext = &(*_Pnext)->_Mynextiter;

	mov	eax, DWORD PTR __Pnext$1[ebp]
	mov	ecx, DWORD PTR [eax]
	add	ecx, 4
	mov	DWORD PTR __Pnext$1[ebp], ecx
	jmp	SHORT $LN2@Orphan_me
$LN6@Orphan_me:

; 198  : 
; 199  : 			_STL_VERIFY(*_Pnext, "ITERATOR LIST CORRUPTED!");

	mov	edx, DWORD PTR __Pnext$1[ebp]
	cmp	DWORD PTR [edx], 0
	je	SHORT $LN9@Orphan_me
	jmp	SHORT $LN4@Orphan_me
$LN9@Orphan_me:
	push	OFFSET ??_C@_0BJ@LFDBABJJ@ITERATOR?5LIST?5CORRUPTED?$CB@
	push	OFFSET ??_C@_02DKCKIIND@?$CFs@
	push	0
	push	199					; 000000c7H
	push	OFFSET ??_C@_0GJ@DMCEMOMH@c?3?2program?5files?5?$CIx86?$CJ?2microsof@
	push	2
	call	__CrtDbgReport
	add	esp, 24					; 00000018H
	cmp	eax, 1
	jne	SHORT $LN14@Orphan_me
	int	3
$LN14@Orphan_me:
	push	0
	push	199					; 000000c7H
	push	OFFSET ??_C@_1NC@HPHBFJCM@?$AAc?$AA?3?$AA?2?$AAp?$AAr?$AAo?$AAg?$AAr?$AAa?$AAm?$AA?5?$AAf?$AAi?$AAl?$AAe@
	push	OFFSET ??_C@_1EE@KLDMFDFL@?$AAs?$AAt?$AAd?$AA?3?$AA?3?$AA_?$AAI?$AAt?$AAe?$AAr?$AAa?$AAt?$AAo?$AAr?$AA_@
	push	OFFSET ??_C@_1DG@PLBPCAEM@?$AA?$CC?$AAI?$AAT?$AAE?$AAR?$AAA?$AAT?$AAO?$AAR?$AA?5?$AAL?$AAI?$AAS?$AAT?$AA?5@
	call	__invalid_parameter
	add	esp, 20					; 00000014H
	xor	ecx, ecx
	jne	SHORT $LN9@Orphan_me
$LN4@Orphan_me:
	xor	edx, edx
	jne	SHORT $LN6@Orphan_me

; 200  : 			*_Pnext = _Mynextiter;

	mov	eax, DWORD PTR __Pnext$1[ebp]
	mov	ecx, DWORD PTR _this$[ebp]
	mov	edx, DWORD PTR [ecx+4]
	mov	DWORD PTR [eax], edx

; 201  : 			_Myproxy = nullptr;

	mov	eax, DWORD PTR _this$[ebp]
	mov	DWORD PTR [eax], 0
$LN13@Orphan_me:

; 202  : 			}
; 203  :  #endif /* _ITERATOR_DEBUG_LEVEL == 2 */
; 204  : 		}

	add	esp, 8
	cmp	ebp, esp
	call	__RTC_CheckEsp
	mov	esp, ebp
	pop	ebp
	ret	0
?_Orphan_me@_Iterator_base12@std@@QAEXXZ ENDP		; std::_Iterator_base12::_Orphan_me
_TEXT	ENDS
; Function compile flags: /Odtp /RTCsu
; File c:\program files (x86)\microsoft visual studio\2017\community\vc\tools\msvc\14.15.26726\include\xutility
;	COMDAT ?_Getpnext@_Iterator_base12@std@@QAEPAPAU12@XZ
_TEXT	SEGMENT
_this$ = -4						; size = 4
?_Getpnext@_Iterator_base12@std@@QAEPAPAU12@XZ PROC	; std::_Iterator_base12::_Getpnext, COMDAT
; _this$ = ecx

; 186  : 		{	// get address of remaining iterator chain

	push	ebp
	mov	ebp, esp
	push	ecx
	mov	DWORD PTR [ebp-4], -858993460		; ccccccccH
	mov	DWORD PTR _this$[ebp], ecx

; 187  : 		return (&_Mynextiter);

	mov	eax, DWORD PTR _this$[ebp]
	add	eax, 4

; 188  : 		}

	mov	esp, ebp
	pop	ebp
	ret	0
?_Getpnext@_Iterator_base12@std@@QAEPAPAU12@XZ ENDP	; std::_Iterator_base12::_Getpnext
_TEXT	ENDS
; Function compile flags: /Odtp /RTCsu
; File c:\program files (x86)\microsoft visual studio\2017\community\vc\tools\msvc\14.15.26726\include\xutility
;	COMDAT ?_Getcont@_Iterator_base12@std@@QBEPBU_Container_base12@2@XZ
_TEXT	SEGMENT
tv68 = -8						; size = 4
_this$ = -4						; size = 4
?_Getcont@_Iterator_base12@std@@QBEPBU_Container_base12@2@XZ PROC ; std::_Iterator_base12::_Getcont, COMDAT
; _this$ = ecx

; 181  : 		{	// get owning container

	push	ebp
	mov	ebp, esp
	sub	esp, 8
	mov	DWORD PTR [ebp-8], -858993460		; ccccccccH
	mov	DWORD PTR [ebp-4], -858993460		; ccccccccH
	mov	DWORD PTR _this$[ebp], ecx

; 182  : 		return (_Myproxy == nullptr ? nullptr : _Myproxy->_Mycont);

	mov	eax, DWORD PTR _this$[ebp]
	cmp	DWORD PTR [eax], 0
	jne	SHORT $LN3@Getcont
	mov	DWORD PTR tv68[ebp], 0
	jmp	SHORT $LN4@Getcont
$LN3@Getcont:
	mov	ecx, DWORD PTR _this$[ebp]
	mov	edx, DWORD PTR [ecx]
	mov	eax, DWORD PTR [edx]
	mov	DWORD PTR tv68[ebp], eax
$LN4@Getcont:
	mov	eax, DWORD PTR tv68[ebp]

; 183  : 		}

	mov	esp, ebp
	pop	ebp
	ret	0
?_Getcont@_Iterator_base12@std@@QBEPBU_Container_base12@2@XZ ENDP ; std::_Iterator_base12::_Getcont
_TEXT	ENDS
; Function compile flags: /Odtp /RTCsu
; File c:\program files (x86)\microsoft visual studio\2017\community\vc\tools\msvc\14.15.26726\include\xutility
;	COMDAT ?_Clrcont@_Iterator_base12@std@@QAEXXZ
_TEXT	SEGMENT
_this$ = -4						; size = 4
?_Clrcont@_Iterator_base12@std@@QAEXXZ PROC		; std::_Iterator_base12::_Clrcont, COMDAT
; _this$ = ecx

; 176  : 		{	// disown owning container

	push	ebp
	mov	ebp, esp
	push	ecx
	mov	DWORD PTR [ebp-4], -858993460		; ccccccccH
	mov	DWORD PTR _this$[ebp], ecx

; 177  : 		_Myproxy = nullptr;

	mov	eax, DWORD PTR _this$[ebp]
	mov	DWORD PTR [eax], 0

; 178  : 		}

	mov	esp, ebp
	pop	ebp
	ret	0
?_Clrcont@_Iterator_base12@std@@QAEXXZ ENDP		; std::_Iterator_base12::_Clrcont
_TEXT	ENDS
; Function compile flags: /Odtp /RTCsu
; File c:\program files (x86)\microsoft visual studio\2017\community\vc\tools\msvc\14.15.26726\include\xutility
;	COMDAT ?_Adopt@_Iterator_base12@std@@QAEXPBU_Container_base12@2@@Z
_TEXT	SEGMENT
__Lock$2 = -40						; size = 4
__Parent_proxy$3 = -32					; size = 4
__Lock$4 = -24						; size = 4
_this$ = -16						; size = 4
__$EHRec$ = -12						; size = 12
__Parent$ = 8						; size = 4
?_Adopt@_Iterator_base12@std@@QAEXPBU_Container_base12@2@@Z PROC ; std::_Iterator_base12::_Adopt, COMDAT
; _this$ = ecx

; 147  : 		{	// adopt this iterator by parent

	push	ebp
	mov	ebp, esp
	push	-1
	push	__ehhandler$?_Adopt@_Iterator_base12@std@@QAEXPBU_Container_base12@2@@Z
	mov	eax, DWORD PTR fs:0
	push	eax
	sub	esp, 32					; 00000020H
	mov	eax, -858993460				; ccccccccH
	mov	DWORD PTR [ebp-44], eax
	mov	DWORD PTR [ebp-40], eax
	mov	DWORD PTR [ebp-36], eax
	mov	DWORD PTR [ebp-32], eax
	mov	DWORD PTR [ebp-28], eax
	mov	DWORD PTR [ebp-24], eax
	mov	DWORD PTR [ebp-20], eax
	mov	DWORD PTR [ebp-16], eax
	mov	eax, DWORD PTR ___security_cookie
	xor	eax, ebp
	push	eax
	lea	eax, DWORD PTR __$EHRec$[ebp]
	mov	DWORD PTR fs:0, eax
	mov	DWORD PTR _this$[ebp], ecx

; 148  : 		if (_Parent == nullptr)

	cmp	DWORD PTR __Parent$[ebp], 0
	jne	SHORT $LN2@Adopt

; 149  : 			{	// no future parent, just disown current parent
; 150  :  #if _ITERATOR_DEBUG_LEVEL == 2
; 151  : 			_Lockit _Lock(_LOCK_DEBUG);

	push	3
	lea	ecx, DWORD PTR __Lock$4[ebp]
	call	??0_Lockit@std@@QAE@H@Z			; std::_Lockit::_Lockit

; 152  : 			_Orphan_me();

	mov	ecx, DWORD PTR _this$[ebp]
	call	?_Orphan_me@_Iterator_base12@std@@QAEXXZ ; std::_Iterator_base12::_Orphan_me

; 153  :  #endif /* _ITERATOR_DEBUG_LEVEL == 2 */
; 154  : 			}

	lea	ecx, DWORD PTR __Lock$4[ebp]
	call	??1_Lockit@std@@QAE@XZ			; std::_Lockit::~_Lockit

; 155  : 		else

	jmp	SHORT $LN5@Adopt
$LN2@Adopt:

; 156  : 			{	// have a parent, do adoption
; 157  : 			_Container_proxy *_Parent_proxy = _Parent->_Myproxy;

	mov	eax, DWORD PTR __Parent$[ebp]
	mov	ecx, DWORD PTR [eax]
	mov	DWORD PTR __Parent_proxy$3[ebp], ecx

; 158  : 
; 159  :  #if _ITERATOR_DEBUG_LEVEL == 2
; 160  : 			if (_Myproxy != _Parent_proxy)

	mov	edx, DWORD PTR _this$[ebp]
	mov	eax, DWORD PTR [edx]
	cmp	eax, DWORD PTR __Parent_proxy$3[ebp]
	je	SHORT $LN5@Adopt

; 161  : 				{	// change parentage
; 162  : 				_Lockit _Lock(_LOCK_DEBUG);

	push	3
	lea	ecx, DWORD PTR __Lock$2[ebp]
	call	??0_Lockit@std@@QAE@H@Z			; std::_Lockit::_Lockit

; 163  : 				_Orphan_me();

	mov	ecx, DWORD PTR _this$[ebp]
	call	?_Orphan_me@_Iterator_base12@std@@QAEXXZ ; std::_Iterator_base12::_Orphan_me

; 164  : 				_Mynextiter = _Parent_proxy->_Myfirstiter;

	mov	ecx, DWORD PTR _this$[ebp]
	mov	edx, DWORD PTR __Parent_proxy$3[ebp]
	mov	eax, DWORD PTR [edx+4]
	mov	DWORD PTR [ecx+4], eax

; 165  : 				_Parent_proxy->_Myfirstiter = this;

	mov	ecx, DWORD PTR __Parent_proxy$3[ebp]
	mov	edx, DWORD PTR _this$[ebp]
	mov	DWORD PTR [ecx+4], edx

; 166  : 				_Myproxy = _Parent_proxy;

	mov	eax, DWORD PTR _this$[ebp]
	mov	ecx, DWORD PTR __Parent_proxy$3[ebp]
	mov	DWORD PTR [eax], ecx

; 167  : 				}

	lea	ecx, DWORD PTR __Lock$2[ebp]
	call	??1_Lockit@std@@QAE@XZ			; std::_Lockit::~_Lockit
$LN5@Adopt:

; 168  : 
; 169  :  #else /* _ITERATOR_DEBUG_LEVEL == 2 */
; 170  : 			_Myproxy = _Parent_proxy;
; 171  :  #endif /* _ITERATOR_DEBUG_LEVEL == 2 */
; 172  : 			}
; 173  : 		}

	push	edx
	mov	ecx, ebp
	push	eax
	lea	edx, DWORD PTR $LN10@Adopt
	call	@_RTC_CheckStackVars@8
	pop	eax
	pop	edx
	mov	ecx, DWORD PTR __$EHRec$[ebp]
	mov	DWORD PTR fs:0, ecx
	pop	ecx
	add	esp, 44					; 0000002cH
	cmp	ebp, esp
	call	__RTC_CheckEsp
	mov	esp, ebp
	pop	ebp
	ret	4
$LN10@Adopt:
	DD	2
	DD	$LN9@Adopt
$LN9@Adopt:
	DD	-24					; ffffffe8H
	DD	4
	DD	$LN6@Adopt
	DD	-40					; ffffffd8H
	DD	4
	DD	$LN7@Adopt
$LN7@Adopt:
	DB	95					; 0000005fH
	DB	76					; 0000004cH
	DB	111					; 0000006fH
	DB	99					; 00000063H
	DB	107					; 0000006bH
	DB	0
$LN6@Adopt:
	DB	95					; 0000005fH
	DB	76					; 0000004cH
	DB	111					; 0000006fH
	DB	99					; 00000063H
	DB	107					; 0000006bH
	DB	0
_TEXT	ENDS
;	COMDAT text$x
text$x	SEGMENT
__ehhandler$?_Adopt@_Iterator_base12@std@@QAEXPBU_Container_base12@2@@Z:
	mov	edx, DWORD PTR [esp+8]
	lea	eax, DWORD PTR [edx+12]
	mov	ecx, DWORD PTR [edx-36]
	xor	ecx, eax
	call	@__security_check_cookie@4
	mov	eax, OFFSET __ehfuncinfo$?_Adopt@_Iterator_base12@std@@QAEXPBU_Container_base12@2@@Z
	jmp	___CxxFrameHandler3
text$x	ENDS
?_Adopt@_Iterator_base12@std@@QAEXPBU_Container_base12@2@@Z ENDP ; std::_Iterator_base12::_Adopt
; Function compile flags: /Odtp /RTCsu
; File c:\program files (x86)\microsoft visual studio\2017\community\vc\tools\msvc\14.15.26726\include\xutility
;	COMDAT ??1_Iterator_base12@std@@QAE@XZ
_TEXT	SEGMENT
__Lock$ = -24						; size = 4
_this$ = -16						; size = 4
__$EHRec$ = -12						; size = 12
??1_Iterator_base12@std@@QAE@XZ PROC			; std::_Iterator_base12::~_Iterator_base12, COMDAT
; _this$ = ecx

; 139  : 		{	// destroy the iterator

	push	ebp
	mov	ebp, esp
	push	-1
	push	__ehhandler$??1_Iterator_base12@std@@QAE@XZ
	mov	eax, DWORD PTR fs:0
	push	eax
	sub	esp, 16					; 00000010H
	mov	eax, -858993460				; ccccccccH
	mov	DWORD PTR [ebp-28], eax
	mov	DWORD PTR [ebp-24], eax
	mov	DWORD PTR [ebp-20], eax
	mov	DWORD PTR [ebp-16], eax
	mov	eax, DWORD PTR ___security_cookie
	xor	eax, ebp
	push	eax
	lea	eax, DWORD PTR __$EHRec$[ebp]
	mov	DWORD PTR fs:0, eax
	mov	DWORD PTR _this$[ebp], ecx

; 140  :  #if _ITERATOR_DEBUG_LEVEL == 2
; 141  : 		_Lockit _Lock(_LOCK_DEBUG);

	push	3
	lea	ecx, DWORD PTR __Lock$[ebp]
	call	??0_Lockit@std@@QAE@H@Z			; std::_Lockit::_Lockit

; 142  : 		_Orphan_me();

	mov	ecx, DWORD PTR _this$[ebp]
	call	?_Orphan_me@_Iterator_base12@std@@QAEXXZ ; std::_Iterator_base12::_Orphan_me

; 143  :  #endif /* _ITERATOR_DEBUG_LEVEL == 2 */
; 144  : 		}

	lea	ecx, DWORD PTR __Lock$[ebp]
	call	??1_Lockit@std@@QAE@XZ			; std::_Lockit::~_Lockit
	push	edx
	mov	ecx, ebp
	push	eax
	lea	edx, DWORD PTR $LN6@Iterator_b
	call	@_RTC_CheckStackVars@8
	pop	eax
	pop	edx
	mov	ecx, DWORD PTR __$EHRec$[ebp]
	mov	DWORD PTR fs:0, ecx
	pop	ecx
	add	esp, 28					; 0000001cH
	cmp	ebp, esp
	call	__RTC_CheckEsp
	mov	esp, ebp
	pop	ebp
	ret	0
	npad	3
$LN6@Iterator_b:
	DD	1
	DD	$LN5@Iterator_b
$LN5@Iterator_b:
	DD	-24					; ffffffe8H
	DD	4
	DD	$LN3@Iterator_b
$LN3@Iterator_b:
	DB	95					; 0000005fH
	DB	76					; 0000004cH
	DB	111					; 0000006fH
	DB	99					; 00000063H
	DB	107					; 0000006bH
	DB	0
_TEXT	ENDS
;	COMDAT text$x
text$x	SEGMENT
__ehhandler$??1_Iterator_base12@std@@QAE@XZ:
	mov	edx, DWORD PTR [esp+8]
	lea	eax, DWORD PTR [edx+12]
	mov	ecx, DWORD PTR [edx-20]
	xor	ecx, eax
	call	@__security_check_cookie@4
	mov	eax, OFFSET __ehfuncinfo$??1_Iterator_base12@std@@QAE@XZ
	jmp	___CxxFrameHandler3
text$x	ENDS
??1_Iterator_base12@std@@QAE@XZ ENDP			; std::_Iterator_base12::~_Iterator_base12
; Function compile flags: /Odtp /RTCsu
; File c:\program files (x86)\microsoft visual studio\2017\community\vc\tools\msvc\14.15.26726\include\xutility
;	COMDAT ??4_Iterator_base12@std@@QAEAAU01@ABU01@@Z
_TEXT	SEGMENT
__Lock$2 = -24						; size = 4
_this$ = -16						; size = 4
__$EHRec$ = -12						; size = 12
__Right$ = 8						; size = 4
??4_Iterator_base12@std@@QAEAAU01@ABU01@@Z PROC		; std::_Iterator_base12::operator=, COMDAT
; _this$ = ecx

; 119  : 		{	// assign an iterator

	push	ebp
	mov	ebp, esp
	push	-1
	push	__ehhandler$??4_Iterator_base12@std@@QAEAAU01@ABU01@@Z
	mov	eax, DWORD PTR fs:0
	push	eax
	sub	esp, 16					; 00000010H
	mov	eax, -858993460				; ccccccccH
	mov	DWORD PTR [ebp-28], eax
	mov	DWORD PTR [ebp-24], eax
	mov	DWORD PTR [ebp-20], eax
	mov	DWORD PTR [ebp-16], eax
	mov	eax, DWORD PTR ___security_cookie
	xor	eax, ebp
	push	eax
	lea	eax, DWORD PTR __$EHRec$[ebp]
	mov	DWORD PTR fs:0, eax
	mov	DWORD PTR _this$[ebp], ecx

; 120  : 		if (_Myproxy != _Right._Myproxy)

	mov	eax, DWORD PTR _this$[ebp]
	mov	ecx, DWORD PTR __Right$[ebp]
	mov	edx, DWORD PTR [eax]
	cmp	edx, DWORD PTR [ecx]
	je	SHORT $LN2@operator

; 121  : 			{
; 122  : 			if (_Right._Myproxy == nullptr)

	mov	eax, DWORD PTR __Right$[ebp]
	cmp	DWORD PTR [eax], 0
	jne	SHORT $LN3@operator

; 123  : 				{	// becoming invalid, disown current parent
; 124  :  #if _ITERATOR_DEBUG_LEVEL == 2
; 125  : 				_Lockit _Lock(_LOCK_DEBUG);

	push	3
	lea	ecx, DWORD PTR __Lock$2[ebp]
	call	??0_Lockit@std@@QAE@H@Z			; std::_Lockit::_Lockit

; 126  : 				_Orphan_me();

	mov	ecx, DWORD PTR _this$[ebp]
	call	?_Orphan_me@_Iterator_base12@std@@QAEXXZ ; std::_Iterator_base12::_Orphan_me

; 127  :  #endif /* _ITERATOR_DEBUG_LEVEL == 2 */
; 128  : 				}

	lea	ecx, DWORD PTR __Lock$2[ebp]
	call	??1_Lockit@std@@QAE@XZ			; std::_Lockit::~_Lockit

; 129  : 			else

	jmp	SHORT $LN2@operator
$LN3@operator:

; 130  : 				{
; 131  : 				_Adopt(_Right._Myproxy->_Mycont);

	mov	ecx, DWORD PTR __Right$[ebp]
	mov	edx, DWORD PTR [ecx]
	mov	eax, DWORD PTR [edx]
	push	eax
	mov	ecx, DWORD PTR _this$[ebp]
	call	?_Adopt@_Iterator_base12@std@@QAEXPBU_Container_base12@2@@Z ; std::_Iterator_base12::_Adopt
$LN2@operator:

; 132  : 				}
; 133  : 			}
; 134  : 
; 135  : 		return (*this);

	mov	eax, DWORD PTR _this$[ebp]

; 136  : 		}

	push	edx
	mov	ecx, ebp
	push	eax
	lea	edx, DWORD PTR $LN9@operator
	call	@_RTC_CheckStackVars@8
	pop	eax
	pop	edx
	mov	ecx, DWORD PTR __$EHRec$[ebp]
	mov	DWORD PTR fs:0, ecx
	pop	ecx
	add	esp, 28					; 0000001cH
	cmp	ebp, esp
	call	__RTC_CheckEsp
	mov	esp, ebp
	pop	ebp
	ret	4
$LN9@operator:
	DD	1
	DD	$LN8@operator
$LN8@operator:
	DD	-24					; ffffffe8H
	DD	4
	DD	$LN6@operator
$LN6@operator:
	DB	95					; 0000005fH
	DB	76					; 0000004cH
	DB	111					; 0000006fH
	DB	99					; 00000063H
	DB	107					; 0000006bH
	DB	0
_TEXT	ENDS
;	COMDAT text$x
text$x	SEGMENT
__ehhandler$??4_Iterator_base12@std@@QAEAAU01@ABU01@@Z:
	mov	edx, DWORD PTR [esp+8]
	lea	eax, DWORD PTR [edx+12]
	mov	ecx, DWORD PTR [edx-20]
	xor	ecx, eax
	call	@__security_check_cookie@4
	mov	eax, OFFSET __ehfuncinfo$??4_Iterator_base12@std@@QAEAAU01@ABU01@@Z
	jmp	___CxxFrameHandler3
text$x	ENDS
??4_Iterator_base12@std@@QAEAAU01@ABU01@@Z ENDP		; std::_Iterator_base12::operator=
; Function compile flags: /Odtp /RTCsu
; File c:\program files (x86)\microsoft visual studio\2017\community\vc\tools\msvc\14.15.26726\include\xutility
;	COMDAT ??0_Iterator_base12@std@@QAE@ABU01@@Z
_TEXT	SEGMENT
_this$ = -4						; size = 4
__Right$ = 8						; size = 4
??0_Iterator_base12@std@@QAE@ABU01@@Z PROC		; std::_Iterator_base12::_Iterator_base12, COMDAT
; _this$ = ecx

; 114  : 		{	// copy an iterator

	push	ebp
	mov	ebp, esp
	push	ecx
	mov	DWORD PTR [ebp-4], -858993460		; ccccccccH
	mov	DWORD PTR _this$[ebp], ecx

; 113  : 		: _Myproxy(nullptr), _Mynextiter(nullptr)

	mov	eax, DWORD PTR _this$[ebp]
	mov	DWORD PTR [eax], 0
	mov	ecx, DWORD PTR _this$[ebp]
	mov	DWORD PTR [ecx+4], 0

; 115  : 		*this = _Right;

	mov	edx, DWORD PTR __Right$[ebp]
	push	edx
	mov	ecx, DWORD PTR _this$[ebp]
	call	??4_Iterator_base12@std@@QAEAAU01@ABU01@@Z ; std::_Iterator_base12::operator=

; 116  : 		}

	mov	eax, DWORD PTR _this$[ebp]
	add	esp, 4
	cmp	ebp, esp
	call	__RTC_CheckEsp
	mov	esp, ebp
	pop	ebp
	ret	4
??0_Iterator_base12@std@@QAE@ABU01@@Z ENDP		; std::_Iterator_base12::_Iterator_base12
_TEXT	ENDS
; Function compile flags: /Odtp /RTCsu
; File c:\program files (x86)\microsoft visual studio\2017\community\vc\tools\msvc\14.15.26726\include\xutility
;	COMDAT ??0_Iterator_base12@std@@QAE@XZ
_TEXT	SEGMENT
_this$ = -4						; size = 4
??0_Iterator_base12@std@@QAE@XZ PROC			; std::_Iterator_base12::_Iterator_base12, COMDAT
; _this$ = ecx

; 109  : 		{	// construct orphaned iterator

	push	ebp
	mov	ebp, esp
	push	ecx
	mov	DWORD PTR [ebp-4], -858993460		; ccccccccH
	mov	DWORD PTR _this$[ebp], ecx

; 108  : 		: _Myproxy(nullptr), _Mynextiter(nullptr)

	mov	eax, DWORD PTR _this$[ebp]
	mov	DWORD PTR [eax], 0
	mov	ecx, DWORD PTR _this$[ebp]
	mov	DWORD PTR [ecx+4], 0

; 110  : 		}

	mov	eax, DWORD PTR _this$[ebp]
	mov	esp, ebp
	pop	ebp
	ret	0
??0_Iterator_base12@std@@QAE@XZ ENDP			; std::_Iterator_base12::_Iterator_base12
_TEXT	ENDS
; Function compile flags: /Odtp /RTCsu
; File c:\program files (x86)\microsoft visual studio\2017\community\vc\tools\msvc\14.15.26726\include\xutility
;	COMDAT ?_Orphan_all@_Container_base12@std@@QAEXXZ
_TEXT	SEGMENT
__Pnext$2 = -32						; size = 4
__Lock$3 = -24						; size = 4
_this$ = -16						; size = 4
__$EHRec$ = -12						; size = 12
?_Orphan_all@_Container_base12@std@@QAEXXZ PROC		; std::_Container_base12::_Orphan_all, COMDAT
; _this$ = ecx

; 214  : 	{	// orphan all iterators

	push	ebp
	mov	ebp, esp
	push	-1
	push	__ehhandler$?_Orphan_all@_Container_base12@std@@QAEXXZ
	mov	eax, DWORD PTR fs:0
	push	eax
	sub	esp, 20					; 00000014H
	mov	eax, -858993460				; ccccccccH
	mov	DWORD PTR [ebp-32], eax
	mov	DWORD PTR [ebp-28], eax
	mov	DWORD PTR [ebp-24], eax
	mov	DWORD PTR [ebp-20], eax
	mov	DWORD PTR [ebp-16], eax
	mov	eax, DWORD PTR ___security_cookie
	xor	eax, ebp
	push	eax
	lea	eax, DWORD PTR __$EHRec$[ebp]
	mov	DWORD PTR fs:0, eax
	mov	DWORD PTR _this$[ebp], ecx

; 215  :  #if _ITERATOR_DEBUG_LEVEL == 2
; 216  : 	if (_Myproxy != nullptr)

	mov	eax, DWORD PTR _this$[ebp]
	cmp	DWORD PTR [eax], 0
	je	SHORT $LN6@Orphan_all

; 217  : 		{	// proxy allocated, drain it
; 218  : 		_Lockit _Lock(_LOCK_DEBUG);

	push	3
	lea	ecx, DWORD PTR __Lock$3[ebp]
	call	??0_Lockit@std@@QAE@H@Z			; std::_Lockit::_Lockit

; 219  : 
; 220  : 		for (_Iterator_base12 **_Pnext = &_Myproxy->_Myfirstiter;

	mov	ecx, DWORD PTR _this$[ebp]
	mov	edx, DWORD PTR [ecx]
	add	edx, 4
	mov	DWORD PTR __Pnext$2[ebp], edx
	jmp	SHORT $LN4@Orphan_all
$LN2@Orphan_all:

; 221  : 			*_Pnext != nullptr; *_Pnext = (*_Pnext)->_Mynextiter)

	mov	eax, DWORD PTR __Pnext$2[ebp]
	mov	ecx, DWORD PTR [eax]
	mov	edx, DWORD PTR __Pnext$2[ebp]
	mov	eax, DWORD PTR [ecx+4]
	mov	DWORD PTR [edx], eax
$LN4@Orphan_all:
	mov	ecx, DWORD PTR __Pnext$2[ebp]
	cmp	DWORD PTR [ecx], 0
	je	SHORT $LN3@Orphan_all

; 222  : 			(*_Pnext)->_Myproxy = nullptr;

	mov	edx, DWORD PTR __Pnext$2[ebp]
	mov	eax, DWORD PTR [edx]
	mov	DWORD PTR [eax], 0
	jmp	SHORT $LN2@Orphan_all
$LN3@Orphan_all:

; 223  : 		_Myproxy->_Myfirstiter = nullptr;

	mov	ecx, DWORD PTR _this$[ebp]
	mov	edx, DWORD PTR [ecx]
	mov	DWORD PTR [edx+4], 0

; 224  : 		}

	lea	ecx, DWORD PTR __Lock$3[ebp]
	call	??1_Lockit@std@@QAE@XZ			; std::_Lockit::~_Lockit
$LN6@Orphan_all:

; 225  :  #endif /* _ITERATOR_DEBUG_LEVEL == 2 */
; 226  : 	}

	push	edx
	mov	ecx, ebp
	push	eax
	lea	edx, DWORD PTR $LN10@Orphan_all
	call	@_RTC_CheckStackVars@8
	pop	eax
	pop	edx
	mov	ecx, DWORD PTR __$EHRec$[ebp]
	mov	DWORD PTR fs:0, ecx
	pop	ecx
	add	esp, 32					; 00000020H
	cmp	ebp, esp
	call	__RTC_CheckEsp
	mov	esp, ebp
	pop	ebp
	ret	0
	npad	1
$LN10@Orphan_all:
	DD	1
	DD	$LN9@Orphan_all
$LN9@Orphan_all:
	DD	-24					; ffffffe8H
	DD	4
	DD	$LN7@Orphan_all
$LN7@Orphan_all:
	DB	95					; 0000005fH
	DB	76					; 0000004cH
	DB	111					; 0000006fH
	DB	99					; 00000063H
	DB	107					; 0000006bH
	DB	0
_TEXT	ENDS
;	COMDAT text$x
text$x	SEGMENT
__ehhandler$?_Orphan_all@_Container_base12@std@@QAEXXZ:
	mov	edx, DWORD PTR [esp+8]
	lea	eax, DWORD PTR [edx+12]
	mov	ecx, DWORD PTR [edx-24]
	xor	ecx, eax
	call	@__security_check_cookie@4
	mov	eax, OFFSET __ehfuncinfo$?_Orphan_all@_Container_base12@std@@QAEXXZ
	jmp	___CxxFrameHandler3
text$x	ENDS
?_Orphan_all@_Container_base12@std@@QAEXXZ ENDP		; std::_Container_base12::_Orphan_all
; Function compile flags: /Odtp /RTCsu
; File c:\program files (x86)\microsoft visual studio\2017\community\vc\tools\msvc\14.15.26726\include\xutility
;	COMDAT ?_Getpfirst@_Container_base12@std@@QBEPAPAU_Iterator_base12@2@XZ
_TEXT	SEGMENT
tv68 = -8						; size = 4
_this$ = -4						; size = 4
?_Getpfirst@_Container_base12@std@@QBEPAPAU_Iterator_base12@2@XZ PROC ; std::_Container_base12::_Getpfirst, COMDAT
; _this$ = ecx

; 95   : 		{	// get address of iterator chain

	push	ebp
	mov	ebp, esp
	sub	esp, 8
	mov	DWORD PTR [ebp-8], -858993460		; ccccccccH
	mov	DWORD PTR [ebp-4], -858993460		; ccccccccH
	mov	DWORD PTR _this$[ebp], ecx

; 96   : 		return (_Myproxy == nullptr ? nullptr : &_Myproxy->_Myfirstiter);

	mov	eax, DWORD PTR _this$[ebp]
	cmp	DWORD PTR [eax], 0
	jne	SHORT $LN3@Getpfirst
	mov	DWORD PTR tv68[ebp], 0
	jmp	SHORT $LN4@Getpfirst
$LN3@Getpfirst:
	mov	ecx, DWORD PTR _this$[ebp]
	mov	edx, DWORD PTR [ecx]
	add	edx, 4
	mov	DWORD PTR tv68[ebp], edx
$LN4@Getpfirst:
	mov	eax, DWORD PTR tv68[ebp]

; 97   : 		}

	mov	esp, ebp
	pop	ebp
	ret	0
?_Getpfirst@_Container_base12@std@@QBEPAPAU_Iterator_base12@2@XZ ENDP ; std::_Container_base12::_Getpfirst
_TEXT	ENDS
; Function compile flags: /Odtp /RTCsu
; File c:\program files (x86)\microsoft visual studio\2017\community\vc\tools\msvc\14.15.26726\include\xutility
;	COMDAT ??0_Container_base12@std@@QAE@XZ
_TEXT	SEGMENT
_this$ = -4						; size = 4
??0_Container_base12@std@@QAE@XZ PROC			; std::_Container_base12::_Container_base12, COMDAT
; _this$ = ecx

; 81   : 		{	// construct childless container

	push	ebp
	mov	ebp, esp
	push	ecx
	mov	DWORD PTR [ebp-4], -858993460		; ccccccccH
	mov	DWORD PTR _this$[ebp], ecx

; 80   : 		: _Myproxy(nullptr)

	mov	eax, DWORD PTR _this$[ebp]
	mov	DWORD PTR [eax], 0

; 82   : 		}

	mov	eax, DWORD PTR _this$[ebp]
	mov	esp, ebp
	pop	ebp
	ret	0
??0_Container_base12@std@@QAE@XZ ENDP			; std::_Container_base12::_Container_base12
_TEXT	ENDS
; Function compile flags: /Odtp /RTCsu
; File c:\program files (x86)\microsoft visual studio\2017\community\vc\tools\msvc\14.15.26726\include\xutility
;	COMDAT ??0_Container_proxy@std@@QAE@XZ
_TEXT	SEGMENT
_this$ = -4						; size = 4
??0_Container_proxy@std@@QAE@XZ PROC			; std::_Container_proxy::_Container_proxy, COMDAT
; _this$ = ecx

; 69   : 		{	// construct from pointers

	push	ebp
	mov	ebp, esp
	push	ecx
	mov	DWORD PTR [ebp-4], -858993460		; ccccccccH
	mov	DWORD PTR _this$[ebp], ecx

; 68   : 		: _Mycont(nullptr), _Myfirstiter(nullptr)

	mov	eax, DWORD PTR _this$[ebp]
	mov	DWORD PTR [eax], 0
	mov	ecx, DWORD PTR _this$[ebp]
	mov	DWORD PTR [ecx+4], 0

; 70   : 		}

	mov	eax, DWORD PTR _this$[ebp]
	mov	esp, ebp
	pop	ebp
	ret	0
??0_Container_proxy@std@@QAE@XZ ENDP			; std::_Container_proxy::_Container_proxy
_TEXT	ENDS
; Function compile flags: /Odtp /RTCsu
; File c:\program files (x86)\microsoft visual studio\2017\community\vc\tools\msvc\14.15.26726\include\xutility
;	COMDAT ?_Adopt@_Iterator_base0@std@@QAEXPBX@Z
_TEXT	SEGMENT
_this$ = -4						; size = 4
___formal$ = 8						; size = 4
?_Adopt@_Iterator_base0@std@@QAEXPBX@Z PROC		; std::_Iterator_base0::_Adopt, COMDAT
; _this$ = ecx

; 53   : 		{	// adopt this iterator by parent

	push	ebp
	mov	ebp, esp
	push	ecx
	mov	DWORD PTR [ebp-4], -858993460		; ccccccccH
	mov	DWORD PTR _this$[ebp], ecx

; 54   : 		}

	mov	esp, ebp
	pop	ebp
	ret	4
?_Adopt@_Iterator_base0@std@@QAEXPBX@Z ENDP		; std::_Iterator_base0::_Adopt
_TEXT	ENDS
; Function compile flags: /Odtp /RTCsu
; File c:\program files (x86)\microsoft visual studio\2017\community\vc\tools\msvc\14.15.26726\include\iosfwd
;	COMDAT ?assign@?$char_traits@D@std@@SAXAADABD@Z
_TEXT	SEGMENT
__Left$ = 8						; size = 4
__Right$ = 12						; size = 4
?assign@?$char_traits@D@std@@SAXAADABD@Z PROC		; std::char_traits<char>::assign, COMDAT

; 505  : 		{	// assign an element

	push	ebp
	mov	ebp, esp

; 506  : 		_Left = _Right;

	mov	eax, DWORD PTR __Left$[ebp]
	mov	ecx, DWORD PTR __Right$[ebp]
	mov	dl, BYTE PTR [ecx]
	mov	BYTE PTR [eax], dl

; 507  : 		}

	pop	ebp
	ret	0
?assign@?$char_traits@D@std@@SAXAADABD@Z ENDP		; std::char_traits<char>::assign
_TEXT	ENDS
; Function compile flags: /Odtp /RTCsu
;	COMDAT ??_Gexception@std@@UAEPAXI@Z
_TEXT	SEGMENT
_this$ = -4						; size = 4
___flags$ = 8						; size = 4
??_Gexception@std@@UAEPAXI@Z PROC			; std::exception::`scalar deleting destructor', COMDAT
; _this$ = ecx
	push	ebp
	mov	ebp, esp
	push	ecx
	mov	DWORD PTR [ebp-4], -858993460		; ccccccccH
	mov	DWORD PTR _this$[ebp], ecx
	mov	ecx, DWORD PTR _this$[ebp]
	call	??1exception@std@@UAE@XZ		; std::exception::~exception
	mov	eax, DWORD PTR ___flags$[ebp]
	and	eax, 1
	je	SHORT $LN2@scalar
	push	12					; 0000000cH
	mov	ecx, DWORD PTR _this$[ebp]
	push	ecx
	call	??3@YAXPAXI@Z				; operator delete
	add	esp, 8
$LN2@scalar:
	mov	eax, DWORD PTR _this$[ebp]
	add	esp, 4
	cmp	ebp, esp
	call	__RTC_CheckEsp
	mov	esp, ebp
	pop	ebp
	ret	4
??_Gexception@std@@UAEPAXI@Z ENDP			; std::exception::`scalar deleting destructor'
_TEXT	ENDS
; Function compile flags: /Odtp /RTCsu
; File c:\program files (x86)\microsoft visual studio\2017\community\vc\tools\msvc\14.15.26726\include\vcruntime_exception.h
;	COMDAT ?what@exception@std@@UBEPBDXZ
_TEXT	SEGMENT
tv69 = -8						; size = 4
_this$ = -4						; size = 4
?what@exception@std@@UBEPBDXZ PROC			; std::exception::what, COMDAT
; _this$ = ecx

; 90   :     {

	push	ebp
	mov	ebp, esp
	sub	esp, 8
	mov	DWORD PTR [ebp-8], -858993460		; ccccccccH
	mov	DWORD PTR [ebp-4], -858993460		; ccccccccH
	mov	DWORD PTR _this$[ebp], ecx

; 91   :         return _Data._What ? _Data._What : "Unknown exception";

	mov	eax, DWORD PTR _this$[ebp]
	cmp	DWORD PTR [eax+4], 0
	je	SHORT $LN3@what
	mov	ecx, DWORD PTR _this$[ebp]
	mov	edx, DWORD PTR [ecx+4]
	mov	DWORD PTR tv69[ebp], edx
	jmp	SHORT $LN4@what
$LN3@what:
	mov	DWORD PTR tv69[ebp], OFFSET ??_C@_0BC@EOODALEL@Unknown?5exception@
$LN4@what:
	mov	eax, DWORD PTR tv69[ebp]

; 92   :     }

	mov	esp, ebp
	pop	ebp
	ret	0
?what@exception@std@@UBEPBDXZ ENDP			; std::exception::what
_TEXT	ENDS
; Function compile flags: /Odtp /RTCsu
; File c:\program files (x86)\microsoft visual studio\2017\community\vc\tools\msvc\14.15.26726\include\vcruntime_exception.h
;	COMDAT ??1exception@std@@UAE@XZ
_TEXT	SEGMENT
_this$ = -4						; size = 4
??1exception@std@@UAE@XZ PROC				; std::exception::~exception, COMDAT
; _this$ = ecx

; 85   :     {

	push	ebp
	mov	ebp, esp
	push	ecx
	mov	DWORD PTR [ebp-4], -858993460		; ccccccccH
	mov	DWORD PTR _this$[ebp], ecx
	mov	eax, DWORD PTR _this$[ebp]
	mov	DWORD PTR [eax], OFFSET ??_7exception@std@@6B@

; 86   :         __std_exception_destroy(&_Data);

	mov	ecx, DWORD PTR _this$[ebp]
	add	ecx, 4
	push	ecx
	call	___std_exception_destroy
	add	esp, 4

; 87   :     }

	add	esp, 4
	cmp	ebp, esp
	call	__RTC_CheckEsp
	mov	esp, ebp
	pop	ebp
	ret	0
??1exception@std@@UAE@XZ ENDP				; std::exception::~exception
_TEXT	ENDS
; Function compile flags: /Odtp /RTCsu
; File c:\program files (x86)\microsoft visual studio\2017\community\vc\tools\msvc\14.15.26726\include\vcruntime_exception.h
;	COMDAT ??0exception@std@@QAE@ABV01@@Z
_TEXT	SEGMENT
_this$ = -4						; size = 4
__Other$ = 8						; size = 4
??0exception@std@@QAE@ABV01@@Z PROC			; std::exception::exception, COMDAT
; _this$ = ecx

; 68   :     {

	push	ebp
	mov	ebp, esp
	push	ecx
	mov	DWORD PTR [ebp-4], -858993460		; ccccccccH
	mov	DWORD PTR _this$[ebp], ecx
	mov	eax, DWORD PTR _this$[ebp]
	mov	DWORD PTR [eax], OFFSET ??_7exception@std@@6B@

; 67   :         : _Data()

	xor	ecx, ecx
	mov	edx, DWORD PTR _this$[ebp]
	add	edx, 4
	mov	DWORD PTR [edx], ecx
	mov	DWORD PTR [edx+4], ecx

; 69   :         __std_exception_copy(&_Other._Data, &_Data);

	mov	eax, DWORD PTR _this$[ebp]
	add	eax, 4
	push	eax
	mov	ecx, DWORD PTR __Other$[ebp]
	add	ecx, 4
	push	ecx
	call	___std_exception_copy
	add	esp, 8

; 70   :     }

	mov	eax, DWORD PTR _this$[ebp]
	add	esp, 4
	cmp	ebp, esp
	call	__RTC_CheckEsp
	mov	esp, ebp
	pop	ebp
	ret	4
??0exception@std@@QAE@ABV01@@Z ENDP			; std::exception::exception
_TEXT	ENDS
; Function compile flags: /Odtp /RTCsu
; File c:\program files (x86)\microsoft visual studio\2017\community\vc\tools\msvc\14.15.26726\include\vcruntime_exception.h
;	COMDAT ??0exception@std@@QAE@QBD@Z
_TEXT	SEGMENT
__InitData$ = -16					; size = 8
_this$ = -4						; size = 4
__Message$ = 8						; size = 4
??0exception@std@@QAE@QBD@Z PROC			; std::exception::exception, COMDAT
; _this$ = ecx

; 55   :     {

	push	ebp
	mov	ebp, esp
	sub	esp, 20					; 00000014H
	mov	eax, -858993460				; ccccccccH
	mov	DWORD PTR [ebp-20], eax
	mov	DWORD PTR [ebp-16], eax
	mov	DWORD PTR [ebp-12], eax
	mov	DWORD PTR [ebp-8], eax
	mov	DWORD PTR [ebp-4], eax
	mov	DWORD PTR _this$[ebp], ecx
	mov	eax, DWORD PTR _this$[ebp]
	mov	DWORD PTR [eax], OFFSET ??_7exception@std@@6B@

; 54   :         : _Data()

	xor	ecx, ecx
	mov	edx, DWORD PTR _this$[ebp]
	add	edx, 4
	mov	DWORD PTR [edx], ecx
	mov	DWORD PTR [edx+4], ecx

; 56   :         __std_exception_data _InitData = { _Message, true };

	mov	eax, DWORD PTR __Message$[ebp]
	mov	DWORD PTR __InitData$[ebp], eax
	mov	BYTE PTR __InitData$[ebp+4], 1

; 57   :         __std_exception_copy(&_InitData, &_Data);

	mov	ecx, DWORD PTR _this$[ebp]
	add	ecx, 4
	push	ecx
	lea	edx, DWORD PTR __InitData$[ebp]
	push	edx
	call	___std_exception_copy
	add	esp, 8

; 58   :     }

	mov	eax, DWORD PTR _this$[ebp]
	push	edx
	mov	ecx, ebp
	push	eax
	lea	edx, DWORD PTR $LN5@exception
	call	@_RTC_CheckStackVars@8
	pop	eax
	pop	edx
	add	esp, 20					; 00000014H
	cmp	ebp, esp
	call	__RTC_CheckEsp
	mov	esp, ebp
	pop	ebp
	ret	4
$LN5@exception:
	DD	1
	DD	$LN4@exception
$LN4@exception:
	DD	-16					; fffffff0H
	DD	8
	DD	$LN3@exception
$LN3@exception:
	DB	95					; 0000005fH
	DB	73					; 00000049H
	DB	110					; 0000006eH
	DB	105					; 00000069H
	DB	116					; 00000074H
	DB	68					; 00000044H
	DB	97					; 00000061H
	DB	116					; 00000074H
	DB	97					; 00000061H
	DB	0
??0exception@std@@QAE@QBD@Z ENDP			; std::exception::exception
_TEXT	ENDS
; Function compile flags: /Odtp /RTCsu
; File c:\program files (x86)\microsoft visual studio\2017\community\vc\tools\msvc\14.15.26726\include\limits
;	COMDAT ?max@?$numeric_limits@N@std@@SANXZ
_TEXT	SEGMENT
?max@?$numeric_limits@N@std@@SANXZ PROC			; std::numeric_limits<double>::max, COMDAT

; 1062 : 		{	// return maximum value

	push	ebp
	mov	ebp, esp

; 1063 : 		return (DBL_MAX);

	fld	QWORD PTR __real@7fefffffffffffff

; 1064 : 		}

	pop	ebp
	ret	0
?max@?$numeric_limits@N@std@@SANXZ ENDP			; std::numeric_limits<double>::max
_TEXT	ENDS
; Function compile flags: /Odtp /RTCsu
; File c:\program files (x86)\microsoft visual studio\2017\community\vc\tools\msvc\14.15.26726\include\limits
;	COMDAT ?min@?$numeric_limits@N@std@@SANXZ
_TEXT	SEGMENT
?min@?$numeric_limits@N@std@@SANXZ PROC			; std::numeric_limits<double>::min, COMDAT

; 1057 : 		{	// return minimum value

	push	ebp
	mov	ebp, esp

; 1058 : 		return (DBL_MIN);

	fld	QWORD PTR __real@0010000000000000

; 1059 : 		}

	pop	ebp
	ret	0
?min@?$numeric_limits@N@std@@SANXZ ENDP			; std::numeric_limits<double>::min
_TEXT	ENDS
; Function compile flags: /Odtp /RTCsu
; File c:\program files (x86)\microsoft visual studio\2017\community\vc\tools\msvc\14.15.26726\include\limits
;	COMDAT ?max@?$numeric_limits@M@std@@SAMXZ
_TEXT	SEGMENT
?max@?$numeric_limits@M@std@@SAMXZ PROC			; std::numeric_limits<float>::max, COMDAT

; 1003 : 		{	// return maximum value

	push	ebp
	mov	ebp, esp

; 1004 : 		return (FLT_MAX);

	fld	DWORD PTR __real@7f7fffff

; 1005 : 		}

	pop	ebp
	ret	0
?max@?$numeric_limits@M@std@@SAMXZ ENDP			; std::numeric_limits<float>::max
_TEXT	ENDS
; Function compile flags: /Odtp /RTCsu
; File c:\program files (x86)\microsoft visual studio\2017\community\vc\tools\msvc\14.15.26726\include\limits
;	COMDAT ?min@?$numeric_limits@M@std@@SAMXZ
_TEXT	SEGMENT
?min@?$numeric_limits@M@std@@SAMXZ PROC			; std::numeric_limits<float>::min, COMDAT

; 998  : 		{	// return minimum value

	push	ebp
	mov	ebp, esp

; 999  : 		return (FLT_MIN);

	fld	DWORD PTR __real@00800000

; 1000 : 		}

	pop	ebp
	ret	0
?min@?$numeric_limits@M@std@@SAMXZ ENDP			; std::numeric_limits<float>::min
_TEXT	ENDS
; Function compile flags: /Odtp /RTCsu
; File c:\program files (x86)\microsoft visual studio\2017\community\vc\tools\msvc\14.15.26726\include\limits
;	COMDAT ?max@?$numeric_limits@H@std@@SAHXZ
_TEXT	SEGMENT
?max@?$numeric_limits@H@std@@SAHXZ PROC			; std::numeric_limits<int>::max, COMDAT

; 616  : 		{	// return maximum value

	push	ebp
	mov	ebp, esp

; 617  : 		return (INT_MAX);

	mov	eax, 2147483647				; 7fffffffH

; 618  : 		}

	pop	ebp
	ret	0
?max@?$numeric_limits@H@std@@SAHXZ ENDP			; std::numeric_limits<int>::max
_TEXT	ENDS
; Function compile flags: /Odtp /RTCsu
; File c:\program files (x86)\microsoft visual studio\2017\community\vc\tools\msvc\14.15.26726\include\vcruntime_new.h
;	COMDAT ??2@YAPAXIPAX@Z
_TEXT	SEGMENT
__Size$ = 8						; size = 4
__Where$ = 12						; size = 4
??2@YAPAXIPAX@Z PROC					; operator new, COMDAT

; 185  :     {

	push	ebp
	mov	ebp, esp

; 186  :         (void)_Size;
; 187  :         return _Where;

	mov	eax, DWORD PTR __Where$[ebp]

; 188  :     }

	pop	ebp
	ret	0
??2@YAPAXIPAX@Z ENDP					; operator new
_TEXT	ENDS
; Function compile flags: /Odtp /RTCsu
; File c:\users\utilisateur\documents\github\8iar125-projetraven\vs2015\buckland_chapter7 to 10_raven\goals\goal_think.cpp
;	COMDAT ?__empty_global_delete@@YAXPAXI@Z
_TEXT	SEGMENT
___formal$ = 8						; size = 4
___formal$ = 12						; size = 4
?__empty_global_delete@@YAXPAXI@Z PROC			; __empty_global_delete, COMDAT

	push	ebp
	mov	ebp, esp
	pop	ebp
	ret	0
?__empty_global_delete@@YAXPAXI@Z ENDP			; __empty_global_delete
_TEXT	ENDS
; Function compile flags: /Odtp /RTCsu
; File c:\users\utilisateur\documents\github\8iar125-projetraven\vs2015\buckland_chapter7 to 10_raven\goals\goal_think.cpp
;	COMDAT ?__empty_global_delete@@YAXPAX@Z
_TEXT	SEGMENT
___formal$ = 8						; size = 4
?__empty_global_delete@@YAXPAX@Z PROC			; __empty_global_delete, COMDAT

	push	ebp
	mov	ebp, esp
	pop	ebp
	ret	0
?__empty_global_delete@@YAXPAX@Z ENDP			; __empty_global_delete
_TEXT	ENDS
END
