; Listing generated by Microsoft (R) Optimizing Compiler Version 19.15.26730.0 

	TITLE	C:\Users\Utilisateur\Documents\GitHub\8IAR125-ProjetRaven\VS2015\Buckland_Chapter7 to 10_Raven\Raven_WeaponSystem.cpp
	.686P
	.XMM
	include listing.inc
	.model	flat

INCLUDELIB LIBCMTD
INCLUDELIB OLDNAMES

CONST	SEGMENT
?piecewise_construct@std@@3Upiecewise_construct_t@1@B	ORG $+1 ; std::piecewise_construct
	ORG $+3
?colors@@3QBKB DD 0ffH					; colors
	DD	0ff0000H
	DD	0ff00H
	DD	00H
	DD	0c8c8ffH
	DD	0c8c8c8H
	DD	0ffffH
	DD	0aaffH
	DD	0aa00ffH
	DD	05a85H
	DD	0ffffffH
	DD	06400H
	DD	0ffff00H
	DD	0c8c8c8H
	DD	0e6e6ffH
$SG170972 DB	' ', 00H
CONST	ENDS
PUBLIC	?__empty_global_delete@@YAXPAX@Z		; __empty_global_delete
PUBLIC	?__empty_global_delete@@YAXPAXI@Z		; __empty_global_delete
PUBLIC	??2@YAPAXIPAX@Z					; operator new
PUBLIC	___local_stdio_printf_options
PUBLIC	__vsprintf_s_l
PUBLIC	__vscprintf_l
PUBLIC	_sprintf_s
PUBLIC	__scprintf
PUBLIC	?length@?$char_traits@D@std@@SAIQBD@Z		; std::char_traits<char>::length
PUBLIC	?copy@?$char_traits@D@std@@SAPADQADQBDI@Z	; std::char_traits<char>::copy
PUBLIC	?move@?$char_traits@D@std@@SAPADQADQBDI@Z	; std::char_traits<char>::move
PUBLIC	?assign@?$char_traits@D@std@@SAPADQADID@Z	; std::char_traits<char>::assign
PUBLIC	?assign@?$char_traits@D@std@@SAXAADABD@Z	; std::char_traits<char>::assign
PUBLIC	??0_Container_proxy@std@@QAE@XZ			; std::_Container_proxy::_Container_proxy
PUBLIC	??0_Container_base12@std@@QAE@XZ		; std::_Container_base12::_Container_base12
PUBLIC	?_Getpfirst@_Container_base12@std@@QBEPAPAU_Iterator_base12@2@XZ ; std::_Container_base12::_Getpfirst
PUBLIC	?_Orphan_all@_Container_base12@std@@QAEXXZ	; std::_Container_base12::_Orphan_all
PUBLIC	?_Swap_all@_Container_base12@std@@QAEXAAU12@@Z	; std::_Container_base12::_Swap_all
PUBLIC	??0_Iterator_base12@std@@QAE@XZ			; std::_Iterator_base12::_Iterator_base12
PUBLIC	??0_Iterator_base12@std@@QAE@ABU01@@Z		; std::_Iterator_base12::_Iterator_base12
PUBLIC	??4_Iterator_base12@std@@QAEAAU01@ABU01@@Z	; std::_Iterator_base12::operator=
PUBLIC	??1_Iterator_base12@std@@QAE@XZ			; std::_Iterator_base12::~_Iterator_base12
PUBLIC	?_Adopt@_Iterator_base12@std@@QAEXPBU_Container_base12@2@@Z ; std::_Iterator_base12::_Adopt
PUBLIC	?_Clrcont@_Iterator_base12@std@@QAEXXZ		; std::_Iterator_base12::_Clrcont
PUBLIC	?_Getcont@_Iterator_base12@std@@QBEPBU_Container_base12@2@XZ ; std::_Iterator_base12::_Getcont
PUBLIC	?_Getpnext@_Iterator_base12@std@@QAEPAPAU12@XZ	; std::_Iterator_base12::_Getpnext
PUBLIC	?_Orphan_me@_Iterator_base12@std@@QAEXXZ	; std::_Iterator_base12::_Orphan_me
PUBLIC	??0?$tuple@$$V@std@@QAE@XZ			; std::tuple<>::tuple<>
PUBLIC	??0?$tuple@$$V@std@@QAE@ABV01@@Z		; std::tuple<>::tuple<>
PUBLIC	?max@?$numeric_limits@H@std@@SAHXZ		; std::numeric_limits<int>::max
PUBLIC	?min@?$numeric_limits@M@std@@SAMXZ		; std::numeric_limits<float>::min
PUBLIC	?max@?$numeric_limits@M@std@@SAMXZ		; std::numeric_limits<float>::max
PUBLIC	?min@?$numeric_limits@N@std@@SANXZ		; std::numeric_limits<double>::min
PUBLIC	?max@?$numeric_limits@N@std@@SANXZ		; std::numeric_limits<double>::max
PUBLIC	??$_Get_size_of_n@$00@std@@YAII@Z		; std::_Get_size_of_n<1>
PUBLIC	?_Allocate@_Default_allocate_traits@std@@SAPAXI@Z ; std::_Default_allocate_traits::_Allocate
PUBLIC	?_Adjust_manually_vector_aligned@std@@YAXAAPAXAAI@Z ; std::_Adjust_manually_vector_aligned
PUBLIC	??$_Convert_size@I@std@@YAII@Z			; std::_Convert_size<unsigned int>
PUBLIC	??0?$allocator@D@std@@QAE@XZ			; std::allocator<char>::allocator<char>
PUBLIC	?deallocate@?$allocator@D@std@@QAEXQADI@Z	; std::allocator<char>::deallocate
PUBLIC	?allocate@?$allocator@D@std@@QAEPADI@Z		; std::allocator<char>::allocate
PUBLIC	?max_size@?$_Default_allocator_traits@V?$allocator@D@std@@@std@@SAIABV?$allocator@D@2@@Z ; std::_Default_allocator_traits<std::allocator<char> >::max_size
PUBLIC	??0?$_String_val@U?$_Simple_types@D@std@@@std@@QAE@XZ ; std::_String_val<std::_Simple_types<char> >::_String_val<std::_Simple_types<char> >
PUBLIC	?_Myptr@?$_String_val@U?$_Simple_types@D@std@@@std@@QAEPADXZ ; std::_String_val<std::_Simple_types<char> >::_Myptr
PUBLIC	?_Myptr@?$_String_val@U?$_Simple_types@D@std@@@std@@QBEPBDXZ ; std::_String_val<std::_Simple_types<char> >::_Myptr
PUBLIC	?_Large_string_engaged@?$_String_val@U?$_Simple_types@D@std@@@std@@QBE_NXZ ; std::_String_val<std::_Simple_types<char> >::_Large_string_engaged
PUBLIC	??0_Bxty@?$_String_val@U?$_Simple_types@D@std@@@std@@QAE@XZ ; std::_String_val<std::_Simple_types<char> >::_Bxty::_Bxty
PUBLIC	??1_Bxty@?$_String_val@U?$_Simple_types@D@std@@@std@@QAE@XZ ; std::_String_val<std::_Simple_types<char> >::_Bxty::~_Bxty
PUBLIC	??1?$_String_val@U?$_Simple_types@D@std@@@std@@QAE@XZ ; std::_String_val<std::_Simple_types<char> >::~_String_val<std::_Simple_types<char> >
PUBLIC	??0?$_String_alloc@U?$_String_base_types@DV?$allocator@D@std@@@std@@@std@@QAE@XZ ; std::_String_alloc<std::_String_base_types<char,std::allocator<char> > >::_String_alloc<std::_String_base_types<char,std::allocator<char> > >
PUBLIC	??1?$_String_alloc@U?$_String_base_types@DV?$allocator@D@std@@@std@@@std@@QAE@XZ ; std::_String_alloc<std::_String_base_types<char,std::allocator<char> > >::~_String_alloc<std::_String_base_types<char,std::allocator<char> > >
PUBLIC	?_Alloc_proxy@?$_String_alloc@U?$_String_base_types@DV?$allocator@D@std@@@std@@@std@@QAEXXZ ; std::_String_alloc<std::_String_base_types<char,std::allocator<char> > >::_Alloc_proxy
PUBLIC	?_Free_proxy@?$_String_alloc@U?$_String_base_types@DV?$allocator@D@std@@@std@@@std@@QAEXXZ ; std::_String_alloc<std::_String_base_types<char,std::allocator<char> > >::_Free_proxy
PUBLIC	?_Myproxy@?$_String_alloc@U?$_String_base_types@DV?$allocator@D@std@@@std@@@std@@QAEAAPAU_Container_proxy@2@XZ ; std::_String_alloc<std::_String_base_types<char,std::allocator<char> > >::_Myproxy
PUBLIC	?_Orphan_all@?$_String_alloc@U?$_String_base_types@DV?$allocator@D@std@@@std@@@std@@QAEXXZ ; std::_String_alloc<std::_String_base_types<char,std::allocator<char> > >::_Orphan_all
PUBLIC	?_Swap_all@?$_String_alloc@U?$_String_base_types@DV?$allocator@D@std@@@std@@@std@@QAEXAAV12@@Z ; std::_String_alloc<std::_String_base_types<char,std::allocator<char> > >::_Swap_all
PUBLIC	?_Getal@?$_String_alloc@U?$_String_base_types@DV?$allocator@D@std@@@std@@@std@@QAEAAV?$allocator@D@2@XZ ; std::_String_alloc<std::_String_base_types<char,std::allocator<char> > >::_Getal
PUBLIC	?_Getal@?$_String_alloc@U?$_String_base_types@DV?$allocator@D@std@@@std@@@std@@QBEABV?$allocator@D@2@XZ ; std::_String_alloc<std::_String_base_types<char,std::allocator<char> > >::_Getal
PUBLIC	?_Get_data@?$_String_alloc@U?$_String_base_types@DV?$allocator@D@std@@@std@@@std@@QAEAAV?$_String_val@U?$_Simple_types@D@std@@@2@XZ ; std::_String_alloc<std::_String_base_types<char,std::allocator<char> > >::_Get_data
PUBLIC	?_Get_data@?$_String_alloc@U?$_String_base_types@DV?$allocator@D@std@@@std@@@std@@QBEABV?$_String_val@U?$_Simple_types@D@std@@@2@XZ ; std::_String_alloc<std::_String_base_types<char,std::allocator<char> > >::_Get_data
PUBLIC	?_Get_first@?$_Compressed_pair@V?$allocator@D@std@@V?$_String_val@U?$_Simple_types@D@std@@@2@$00@std@@QAEAAV?$allocator@D@2@XZ ; std::_Compressed_pair<std::allocator<char>,std::_String_val<std::_Simple_types<char> >,1>::_Get_first
PUBLIC	?_Get_first@?$_Compressed_pair@V?$allocator@D@std@@V?$_String_val@U?$_Simple_types@D@std@@@2@$00@std@@QBEABV?$allocator@D@2@XZ ; std::_Compressed_pair<std::allocator<char>,std::_String_val<std::_Simple_types<char> >,1>::_Get_first
PUBLIC	?_Get_second@?$_Compressed_pair@V?$allocator@D@std@@V?$_String_val@U?$_Simple_types@D@std@@@2@$00@std@@QAEAAV?$_String_val@U?$_Simple_types@D@std@@@2@XZ ; std::_Compressed_pair<std::allocator<char>,std::_String_val<std::_Simple_types<char> >,1>::_Get_second
PUBLIC	?_Get_second@?$_Compressed_pair@V?$allocator@D@std@@V?$_String_val@U?$_Simple_types@D@std@@@2@$00@std@@QBEABV?$_String_val@U?$_Simple_types@D@std@@@2@XZ ; std::_Compressed_pair<std::allocator<char>,std::_String_val<std::_Simple_types<char> >,1>::_Get_second
PUBLIC	??1?$_Compressed_pair@V?$allocator@D@std@@V?$_String_val@U?$_Simple_types@D@std@@@2@$00@std@@QAE@XZ ; std::_Compressed_pair<std::allocator<char>,std::_String_val<std::_Simple_types<char> >,1>::~_Compressed_pair<std::allocator<char>,std::_String_val<std::_Simple_types<char> >,1>
PUBLIC	??0?$basic_string@DU?$char_traits@D@std@@V?$allocator@D@2@@std@@QAE@XZ ; std::basic_string<char,std::char_traits<char>,std::allocator<char> >::basic_string<char,std::char_traits<char>,std::allocator<char> >
PUBLIC	??0?$basic_string@DU?$char_traits@D@std@@V?$allocator@D@2@@std@@QAE@ID@Z ; std::basic_string<char,std::char_traits<char>,std::allocator<char> >::basic_string<char,std::char_traits<char>,std::allocator<char> >
PUBLIC	??0?$basic_string@DU?$char_traits@D@std@@V?$allocator@D@2@@std@@QAE@$$QAV01@@Z ; std::basic_string<char,std::char_traits<char>,std::allocator<char> >::basic_string<char,std::char_traits<char>,std::allocator<char> >
PUBLIC	?_Assign_rv_contents_with_alloc_always_equal@?$basic_string@DU?$char_traits@D@std@@V?$allocator@D@2@@std@@QAEX$$QAV12@U?$integral_constant@_N$00@2@@Z ; std::basic_string<char,std::char_traits<char>,std::allocator<char> >::_Assign_rv_contents_with_alloc_always_equal
PUBLIC	??1?$basic_string@DU?$char_traits@D@std@@V?$allocator@D@2@@std@@QAE@XZ ; std::basic_string<char,std::char_traits<char>,std::allocator<char> >::~basic_string<char,std::char_traits<char>,std::allocator<char> >
PUBLIC	??4?$basic_string@DU?$char_traits@D@std@@V?$allocator@D@2@@std@@QAEAAV01@QBD@Z ; std::basic_string<char,std::char_traits<char>,std::allocator<char> >::operator=
PUBLIC	?append@?$basic_string@DU?$char_traits@D@std@@V?$allocator@D@2@@std@@QAEAAV12@ABV12@@Z ; std::basic_string<char,std::char_traits<char>,std::allocator<char> >::append
PUBLIC	?append@?$basic_string@DU?$char_traits@D@std@@V?$allocator@D@2@@std@@QAEAAV12@QBDI@Z ; std::basic_string<char,std::char_traits<char>,std::allocator<char> >::append
PUBLIC	?append@?$basic_string@DU?$char_traits@D@std@@V?$allocator@D@2@@std@@QAEAAV12@QBD@Z ; std::basic_string<char,std::char_traits<char>,std::allocator<char> >::append
PUBLIC	?assign@?$basic_string@DU?$char_traits@D@std@@V?$allocator@D@2@@std@@QAEAAV12@QBDI@Z ; std::basic_string<char,std::char_traits<char>,std::allocator<char> >::assign
PUBLIC	?assign@?$basic_string@DU?$char_traits@D@std@@V?$allocator@D@2@@std@@QAEAAV12@QBD@Z ; std::basic_string<char,std::char_traits<char>,std::allocator<char> >::assign
PUBLIC	?assign@?$basic_string@DU?$char_traits@D@std@@V?$allocator@D@2@@std@@QAEAAV12@ID@Z ; std::basic_string<char,std::char_traits<char>,std::allocator<char> >::assign
PUBLIC	??A?$basic_string@DU?$char_traits@D@std@@V?$allocator@D@2@@std@@QAEAADI@Z ; std::basic_string<char,std::char_traits<char>,std::allocator<char> >::operator[]
PUBLIC	?c_str@?$basic_string@DU?$char_traits@D@std@@V?$allocator@D@2@@std@@QBEPBDXZ ; std::basic_string<char,std::char_traits<char>,std::allocator<char> >::c_str
PUBLIC	?size@?$basic_string@DU?$char_traits@D@std@@V?$allocator@D@2@@std@@QBEIXZ ; std::basic_string<char,std::char_traits<char>,std::allocator<char> >::size
PUBLIC	?max_size@?$basic_string@DU?$char_traits@D@std@@V?$allocator@D@2@@std@@QBEIXZ ; std::basic_string<char,std::char_traits<char>,std::allocator<char> >::max_size
PUBLIC	?_Calculate_growth@?$basic_string@DU?$char_traits@D@std@@V?$allocator@D@2@@std@@QBEII@Z ; std::basic_string<char,std::char_traits<char>,std::allocator<char> >::_Calculate_growth
PUBLIC	?_Tidy_init@?$basic_string@DU?$char_traits@D@std@@V?$allocator@D@2@@std@@QAEXXZ ; std::basic_string<char,std::char_traits<char>,std::allocator<char> >::_Tidy_init
PUBLIC	?_Tidy_deallocate@?$basic_string@DU?$char_traits@D@std@@V?$allocator@D@2@@std@@QAEXXZ ; std::basic_string<char,std::char_traits<char>,std::allocator<char> >::_Tidy_deallocate
PUBLIC	?_Xlen@?$basic_string@DU?$char_traits@D@std@@V?$allocator@D@2@@std@@SAXXZ ; std::basic_string<char,std::char_traits<char>,std::allocator<char> >::_Xlen
PUBLIC	??0id@locale@std@@QAE@I@Z			; std::locale::id::id
PUBLIC	?to_string@std@@YA?AV?$basic_string@DU?$char_traits@D@std@@V?$allocator@D@2@@1@N@Z ; std::to_string
PUBLIC	??$_Floating_to_string@N@std@@YA?AV?$basic_string@DU?$char_traits@D@std@@V?$allocator@D@2@@0@PBDN@Z ; std::_Floating_to_string<double>
PUBLIC	?RandFloat@@YANXZ				; RandFloat
PUBLIC	?RandInRange@@YANNN@Z				; RandInRange
PUBLIC	?Length@Vector2D@@QBENXZ			; Vector2D::Length
PUBLIC	??XVector2D@@QAEABU0@ABN@Z			; Vector2D::operator*=
PUBLIC	??D@YA?AUVector2D@@ABU0@N@Z			; operator*
PUBLIC	??G@YA?AUVector2D@@ABU0@0@Z			; operator-
PUBLIC	??H@YA?AUVector2D@@ABU0@0@Z			; operator+
PUBLIC	?Vec2DDistance@@YANABUVector2D@@0@Z		; Vec2DDistance
PUBLIC	??0?$allocator@U?$_Tree_node@U?$pair@$$CBHPAVRaven_Weapon@@@std@@PAX@std@@@std@@QAE@XZ ; std::allocator<std::_Tree_node<std::pair<int const ,Raven_Weapon *>,void *> >::allocator<std::_Tree_node<std::pair<int const ,Raven_Weapon *>,void *> >
PUBLIC	?deallocate@?$allocator@U?$_Tree_node@U?$pair@$$CBHPAVRaven_Weapon@@@std@@PAX@std@@@std@@QAEXQAU?$_Tree_node@U?$pair@$$CBHPAVRaven_Weapon@@@std@@PAX@2@I@Z ; std::allocator<std::_Tree_node<std::pair<int const ,Raven_Weapon *>,void *> >::deallocate
PUBLIC	?allocate@?$allocator@U?$_Tree_node@U?$pair@$$CBHPAVRaven_Weapon@@@std@@PAX@std@@@std@@QAEPAU?$_Tree_node@U?$pair@$$CBHPAVRaven_Weapon@@@std@@PAX@2@I@Z ; std::allocator<std::_Tree_node<std::pair<int const ,Raven_Weapon *>,void *> >::allocate
PUBLIC	?deallocate@?$_Default_allocator_traits@V?$allocator@U?$_Tree_node@U?$pair@$$CBHPAVRaven_Weapon@@@std@@PAX@std@@@std@@@std@@SAXAAV?$allocator@U?$_Tree_node@U?$pair@$$CBHPAVRaven_Weapon@@@std@@PAX@std@@@2@QAU?$_Tree_node@U?$pair@$$CBHPAVRaven_Weapon@@@std@@PAX@2@I@Z ; std::_Default_allocator_traits<std::allocator<std::_Tree_node<std::pair<int const ,Raven_Weapon *>,void *> > >::deallocate
PUBLIC	?max_size@?$_Default_allocator_traits@V?$allocator@U?$_Tree_node@U?$pair@$$CBHPAVRaven_Weapon@@@std@@PAX@std@@@std@@@std@@SAIABV?$allocator@U?$_Tree_node@U?$pair@$$CBHPAVRaven_Weapon@@@std@@PAX@std@@@2@@Z ; std::_Default_allocator_traits<std::allocator<std::_Tree_node<std::pair<int const ,Raven_Weapon *>,void *> > >::max_size
PUBLIC	??0?$_Tree_comp_alloc@V?$_Tmap_traits@HPAVRaven_Weapon@@U?$less@H@std@@V?$allocator@U?$pair@$$CBHPAVRaven_Weapon@@@std@@@3@$0A@@std@@@std@@QAE@ABU?$less@H@1@@Z ; std::_Tree_comp_alloc<std::_Tmap_traits<int,Raven_Weapon *,std::less<int>,std::allocator<std::pair<int const ,Raven_Weapon *> >,0> >::_Tree_comp_alloc<std::_Tmap_traits<int,Raven_Weapon *,std::less<int>,std::allocator<std::pair<int const ,Raven_Weapon *> >,0> >
PUBLIC	?_Construct@?$_Tree_comp_alloc@V?$_Tmap_traits@HPAVRaven_Weapon@@U?$less@H@std@@V?$allocator@U?$pair@$$CBHPAVRaven_Weapon@@@std@@@3@$0A@@std@@@std@@QAEXXZ ; std::_Tree_comp_alloc<std::_Tmap_traits<int,Raven_Weapon *,std::less<int>,std::allocator<std::pair<int const ,Raven_Weapon *> >,0> >::_Construct
PUBLIC	??1?$_Tree_comp_alloc@V?$_Tmap_traits@HPAVRaven_Weapon@@U?$less@H@std@@V?$allocator@U?$pair@$$CBHPAVRaven_Weapon@@@std@@@3@$0A@@std@@@std@@QAE@XZ ; std::_Tree_comp_alloc<std::_Tmap_traits<int,Raven_Weapon *,std::less<int>,std::allocator<std::pair<int const ,Raven_Weapon *> >,0> >::~_Tree_comp_alloc<std::_Tmap_traits<int,Raven_Weapon *,std::less<int>,std::allocator<std::pair<int const ,Raven_Weapon *> >,0> >
PUBLIC	?_Alloc_proxy@?$_Tree_comp_alloc@V?$_Tmap_traits@HPAVRaven_Weapon@@U?$less@H@std@@V?$allocator@U?$pair@$$CBHPAVRaven_Weapon@@@std@@@3@$0A@@std@@@std@@QAEXXZ ; std::_Tree_comp_alloc<std::_Tmap_traits<int,Raven_Weapon *,std::less<int>,std::allocator<std::pair<int const ,Raven_Weapon *> >,0> >::_Alloc_proxy
PUBLIC	?_Free_proxy@?$_Tree_comp_alloc@V?$_Tmap_traits@HPAVRaven_Weapon@@U?$less@H@std@@V?$allocator@U?$pair@$$CBHPAVRaven_Weapon@@@std@@@3@$0A@@std@@@std@@QAEXXZ ; std::_Tree_comp_alloc<std::_Tmap_traits<int,Raven_Weapon *,std::less<int>,std::allocator<std::pair<int const ,Raven_Weapon *> >,0> >::_Free_proxy
PUBLIC	?_Getpfirst@?$_Tree_comp_alloc@V?$_Tmap_traits@HPAVRaven_Weapon@@U?$less@H@std@@V?$allocator@U?$pair@$$CBHPAVRaven_Weapon@@@std@@@3@$0A@@std@@@std@@QBEPAPAU_Iterator_base12@2@XZ ; std::_Tree_comp_alloc<std::_Tmap_traits<int,Raven_Weapon *,std::less<int>,std::allocator<std::pair<int const ,Raven_Weapon *> >,0> >::_Getpfirst
PUBLIC	?_Myproxy@?$_Tree_comp_alloc@V?$_Tmap_traits@HPAVRaven_Weapon@@U?$less@H@std@@V?$allocator@U?$pair@$$CBHPAVRaven_Weapon@@@std@@@3@$0A@@std@@@std@@QAEAAPAU_Container_proxy@2@XZ ; std::_Tree_comp_alloc<std::_Tmap_traits<int,Raven_Weapon *,std::less<int>,std::allocator<std::pair<int const ,Raven_Weapon *> >,0> >::_Myproxy
PUBLIC	?_Orphan_all@?$_Tree_comp_alloc@V?$_Tmap_traits@HPAVRaven_Weapon@@U?$less@H@std@@V?$allocator@U?$pair@$$CBHPAVRaven_Weapon@@@std@@@3@$0A@@std@@@std@@QAEXXZ ; std::_Tree_comp_alloc<std::_Tmap_traits<int,Raven_Weapon *,std::less<int>,std::allocator<std::pair<int const ,Raven_Weapon *> >,0> >::_Orphan_all
PUBLIC	?_Buyheadnode@?$_Tree_comp_alloc@V?$_Tmap_traits@HPAVRaven_Weapon@@U?$less@H@std@@V?$allocator@U?$pair@$$CBHPAVRaven_Weapon@@@std@@@3@$0A@@std@@@std@@QAEPAU?$_Tree_node@U?$pair@$$CBHPAVRaven_Weapon@@@std@@PAX@2@XZ ; std::_Tree_comp_alloc<std::_Tmap_traits<int,Raven_Weapon *,std::less<int>,std::allocator<std::pair<int const ,Raven_Weapon *> >,0> >::_Buyheadnode
PUBLIC	?_Freeheadnode@?$_Tree_comp_alloc@V?$_Tmap_traits@HPAVRaven_Weapon@@U?$less@H@std@@V?$allocator@U?$pair@$$CBHPAVRaven_Weapon@@@std@@@3@$0A@@std@@@std@@QAEXPAU?$_Tree_node@U?$pair@$$CBHPAVRaven_Weapon@@@std@@PAX@2@@Z ; std::_Tree_comp_alloc<std::_Tmap_traits<int,Raven_Weapon *,std::less<int>,std::allocator<std::pair<int const ,Raven_Weapon *> >,0> >::_Freeheadnode
PUBLIC	?_Buynode0@?$_Tree_comp_alloc@V?$_Tmap_traits@HPAVRaven_Weapon@@U?$less@H@std@@V?$allocator@U?$pair@$$CBHPAVRaven_Weapon@@@std@@@3@$0A@@std@@@std@@QAEPAU?$_Tree_node@U?$pair@$$CBHPAVRaven_Weapon@@@std@@PAX@2@XZ ; std::_Tree_comp_alloc<std::_Tmap_traits<int,Raven_Weapon *,std::less<int>,std::allocator<std::pair<int const ,Raven_Weapon *> >,0> >::_Buynode0
PUBLIC	?_Freenode0@?$_Tree_comp_alloc@V?$_Tmap_traits@HPAVRaven_Weapon@@U?$less@H@std@@V?$allocator@U?$pair@$$CBHPAVRaven_Weapon@@@std@@@3@$0A@@std@@@std@@QAEXPAU?$_Tree_node@U?$pair@$$CBHPAVRaven_Weapon@@@std@@PAX@2@@Z ; std::_Tree_comp_alloc<std::_Tmap_traits<int,Raven_Weapon *,std::less<int>,std::allocator<std::pair<int const ,Raven_Weapon *> >,0> >::_Freenode0
PUBLIC	?_Getcomp@?$_Tree_comp_alloc@V?$_Tmap_traits@HPAVRaven_Weapon@@U?$less@H@std@@V?$allocator@U?$pair@$$CBHPAVRaven_Weapon@@@std@@@3@$0A@@std@@@std@@QAEAAU?$less@H@2@XZ ; std::_Tree_comp_alloc<std::_Tmap_traits<int,Raven_Weapon *,std::less<int>,std::allocator<std::pair<int const ,Raven_Weapon *> >,0> >::_Getcomp
PUBLIC	?_Getcomp@?$_Tree_comp_alloc@V?$_Tmap_traits@HPAVRaven_Weapon@@U?$less@H@std@@V?$allocator@U?$pair@$$CBHPAVRaven_Weapon@@@std@@@3@$0A@@std@@@std@@QBEABU?$less@H@2@XZ ; std::_Tree_comp_alloc<std::_Tmap_traits<int,Raven_Weapon *,std::less<int>,std::allocator<std::pair<int const ,Raven_Weapon *> >,0> >::_Getcomp
PUBLIC	?_Getal@?$_Tree_comp_alloc@V?$_Tmap_traits@HPAVRaven_Weapon@@U?$less@H@std@@V?$allocator@U?$pair@$$CBHPAVRaven_Weapon@@@std@@@3@$0A@@std@@@std@@QAEAAV?$allocator@U?$_Tree_node@U?$pair@$$CBHPAVRaven_Weapon@@@std@@PAX@std@@@2@XZ ; std::_Tree_comp_alloc<std::_Tmap_traits<int,Raven_Weapon *,std::less<int>,std::allocator<std::pair<int const ,Raven_Weapon *> >,0> >::_Getal
PUBLIC	?_Getal@?$_Tree_comp_alloc@V?$_Tmap_traits@HPAVRaven_Weapon@@U?$less@H@std@@V?$allocator@U?$pair@$$CBHPAVRaven_Weapon@@@std@@@3@$0A@@std@@@std@@QBEABV?$allocator@U?$_Tree_node@U?$pair@$$CBHPAVRaven_Weapon@@@std@@PAX@std@@@2@XZ ; std::_Tree_comp_alloc<std::_Tmap_traits<int,Raven_Weapon *,std::less<int>,std::allocator<std::pair<int const ,Raven_Weapon *> >,0> >::_Getal
PUBLIC	?_Get_data@?$_Tree_comp_alloc@V?$_Tmap_traits@HPAVRaven_Weapon@@U?$less@H@std@@V?$allocator@U?$pair@$$CBHPAVRaven_Weapon@@@std@@@3@$0A@@std@@@std@@QAEAAV?$_Tree_val@U?$_Tree_simple_types@U?$pair@$$CBHPAVRaven_Weapon@@@std@@@std@@@2@XZ ; std::_Tree_comp_alloc<std::_Tmap_traits<int,Raven_Weapon *,std::less<int>,std::allocator<std::pair<int const ,Raven_Weapon *> >,0> >::_Get_data
PUBLIC	?_Get_data@?$_Tree_comp_alloc@V?$_Tmap_traits@HPAVRaven_Weapon@@U?$less@H@std@@V?$allocator@U?$pair@$$CBHPAVRaven_Weapon@@@std@@@3@$0A@@std@@@std@@QBEABV?$_Tree_val@U?$_Tree_simple_types@U?$pair@$$CBHPAVRaven_Weapon@@@std@@@std@@@2@XZ ; std::_Tree_comp_alloc<std::_Tmap_traits<int,Raven_Weapon *,std::less<int>,std::allocator<std::pair<int const ,Raven_Weapon *> >,0> >::_Get_data
PUBLIC	??R?$less@H@std@@QBE_NABH0@Z			; std::less<int>::operator()
PUBLIC	??0?$_Tree_val@U?$_Tree_simple_types@U?$pair@$$CBHPAVRaven_Weapon@@@std@@@std@@@std@@QAE@XZ ; std::_Tree_val<std::_Tree_simple_types<std::pair<int const ,Raven_Weapon *> > >::_Tree_val<std::_Tree_simple_types<std::pair<int const ,Raven_Weapon *> > >
PUBLIC	?_Max@?$_Tree_val@U?$_Tree_simple_types@U?$pair@$$CBHPAVRaven_Weapon@@@std@@@std@@@std@@SAPAU?$_Tree_node@U?$pair@$$CBHPAVRaven_Weapon@@@std@@PAX@2@PAU32@@Z ; std::_Tree_val<std::_Tree_simple_types<std::pair<int const ,Raven_Weapon *> > >::_Max
PUBLIC	?_Min@?$_Tree_val@U?$_Tree_simple_types@U?$pair@$$CBHPAVRaven_Weapon@@@std@@@std@@@std@@SAPAU?$_Tree_node@U?$pair@$$CBHPAVRaven_Weapon@@@std@@PAX@2@PAU32@@Z ; std::_Tree_val<std::_Tree_simple_types<std::pair<int const ,Raven_Weapon *> > >::_Min
PUBLIC	?_Root@?$_Tree_val@U?$_Tree_simple_types@U?$pair@$$CBHPAVRaven_Weapon@@@std@@@std@@@std@@QBEAAPAU?$_Tree_node@U?$pair@$$CBHPAVRaven_Weapon@@@std@@PAX@2@XZ ; std::_Tree_val<std::_Tree_simple_types<std::pair<int const ,Raven_Weapon *> > >::_Root
PUBLIC	?_Lmost@?$_Tree_val@U?$_Tree_simple_types@U?$pair@$$CBHPAVRaven_Weapon@@@std@@@std@@@std@@QBEAAPAU?$_Tree_node@U?$pair@$$CBHPAVRaven_Weapon@@@std@@PAX@2@XZ ; std::_Tree_val<std::_Tree_simple_types<std::pair<int const ,Raven_Weapon *> > >::_Lmost
PUBLIC	?_Rmost@?$_Tree_val@U?$_Tree_simple_types@U?$pair@$$CBHPAVRaven_Weapon@@@std@@@std@@@std@@QBEAAPAU?$_Tree_node@U?$pair@$$CBHPAVRaven_Weapon@@@std@@PAX@2@XZ ; std::_Tree_val<std::_Tree_simple_types<std::pair<int const ,Raven_Weapon *> > >::_Rmost
PUBLIC	?_Lrotate@?$_Tree_val@U?$_Tree_simple_types@U?$pair@$$CBHPAVRaven_Weapon@@@std@@@std@@@std@@QAEXPAU?$_Tree_node@U?$pair@$$CBHPAVRaven_Weapon@@@std@@PAX@2@@Z ; std::_Tree_val<std::_Tree_simple_types<std::pair<int const ,Raven_Weapon *> > >::_Lrotate
PUBLIC	?_Rrotate@?$_Tree_val@U?$_Tree_simple_types@U?$pair@$$CBHPAVRaven_Weapon@@@std@@@std@@@std@@QAEXPAU?$_Tree_node@U?$pair@$$CBHPAVRaven_Weapon@@@std@@PAX@2@@Z ; std::_Tree_val<std::_Tree_simple_types<std::pair<int const ,Raven_Weapon *> > >::_Rrotate
PUBLIC	?_Extract@?$_Tree_val@U?$_Tree_simple_types@U?$pair@$$CBHPAVRaven_Weapon@@@std@@@std@@@std@@QAEPAU?$_Tree_node@U?$pair@$$CBHPAVRaven_Weapon@@@std@@PAX@2@V?$_Tree_const_iterator@V?$_Tree_val@U?$_Tree_simple_types@U?$pair@$$CBHPAVRaven_Weapon@@@std@@@std@@@std@@@2@@Z ; std::_Tree_val<std::_Tree_simple_types<std::pair<int const ,Raven_Weapon *> > >::_Extract
PUBLIC	?_Get_first@?$_Compressed_pair@V?$allocator@U?$_Tree_node@U?$pair@$$CBHPAVRaven_Weapon@@@std@@PAX@std@@@std@@V?$_Tree_val@U?$_Tree_simple_types@U?$pair@$$CBHPAVRaven_Weapon@@@std@@@std@@@2@$00@std@@QAEAAV?$allocator@U?$_Tree_node@U?$pair@$$CBHPAVRaven_Weapon@@@std@@PAX@std@@@2@XZ ; std::_Compressed_pair<std::allocator<std::_Tree_node<std::pair<int const ,Raven_Weapon *>,void *> >,std::_Tree_val<std::_Tree_simple_types<std::pair<int const ,Raven_Weapon *> > >,1>::_Get_first
PUBLIC	?_Get_first@?$_Compressed_pair@V?$allocator@U?$_Tree_node@U?$pair@$$CBHPAVRaven_Weapon@@@std@@PAX@std@@@std@@V?$_Tree_val@U?$_Tree_simple_types@U?$pair@$$CBHPAVRaven_Weapon@@@std@@@std@@@2@$00@std@@QBEABV?$allocator@U?$_Tree_node@U?$pair@$$CBHPAVRaven_Weapon@@@std@@PAX@std@@@2@XZ ; std::_Compressed_pair<std::allocator<std::_Tree_node<std::pair<int const ,Raven_Weapon *>,void *> >,std::_Tree_val<std::_Tree_simple_types<std::pair<int const ,Raven_Weapon *> > >,1>::_Get_first
PUBLIC	?_Get_second@?$_Compressed_pair@V?$allocator@U?$_Tree_node@U?$pair@$$CBHPAVRaven_Weapon@@@std@@PAX@std@@@std@@V?$_Tree_val@U?$_Tree_simple_types@U?$pair@$$CBHPAVRaven_Weapon@@@std@@@std@@@2@$00@std@@QAEAAV?$_Tree_val@U?$_Tree_simple_types@U?$pair@$$CBHPAVRaven_Weapon@@@std@@@std@@@2@XZ ; std::_Compressed_pair<std::allocator<std::_Tree_node<std::pair<int const ,Raven_Weapon *>,void *> >,std::_Tree_val<std::_Tree_simple_types<std::pair<int const ,Raven_Weapon *> > >,1>::_Get_second
PUBLIC	?_Get_second@?$_Compressed_pair@V?$allocator@U?$_Tree_node@U?$pair@$$CBHPAVRaven_Weapon@@@std@@PAX@std@@@std@@V?$_Tree_val@U?$_Tree_simple_types@U?$pair@$$CBHPAVRaven_Weapon@@@std@@@std@@@2@$00@std@@QBEABV?$_Tree_val@U?$_Tree_simple_types@U?$pair@$$CBHPAVRaven_Weapon@@@std@@@std@@@2@XZ ; std::_Compressed_pair<std::allocator<std::_Tree_node<std::pair<int const ,Raven_Weapon *>,void *> >,std::_Tree_val<std::_Tree_simple_types<std::pair<int const ,Raven_Weapon *> > >,1>::_Get_second
PUBLIC	?_Get_first@?$_Compressed_pair@U?$less@H@std@@V?$_Compressed_pair@V?$allocator@U?$_Tree_node@U?$pair@$$CBHPAVRaven_Weapon@@@std@@PAX@std@@@std@@V?$_Tree_val@U?$_Tree_simple_types@U?$pair@$$CBHPAVRaven_Weapon@@@std@@@std@@@2@$00@2@$00@std@@QAEAAU?$less@H@2@XZ ; std::_Compressed_pair<std::less<int>,std::_Compressed_pair<std::allocator<std::_Tree_node<std::pair<int const ,Raven_Weapon *>,void *> >,std::_Tree_val<std::_Tree_simple_types<std::pair<int const ,Raven_Weapon *> > >,1>,1>::_Get_first
PUBLIC	?_Get_first@?$_Compressed_pair@U?$less@H@std@@V?$_Compressed_pair@V?$allocator@U?$_Tree_node@U?$pair@$$CBHPAVRaven_Weapon@@@std@@PAX@std@@@std@@V?$_Tree_val@U?$_Tree_simple_types@U?$pair@$$CBHPAVRaven_Weapon@@@std@@@std@@@2@$00@2@$00@std@@QBEABU?$less@H@2@XZ ; std::_Compressed_pair<std::less<int>,std::_Compressed_pair<std::allocator<std::_Tree_node<std::pair<int const ,Raven_Weapon *>,void *> >,std::_Tree_val<std::_Tree_simple_types<std::pair<int const ,Raven_Weapon *> > >,1>,1>::_Get_first
PUBLIC	?_Get_second@?$_Compressed_pair@U?$less@H@std@@V?$_Compressed_pair@V?$allocator@U?$_Tree_node@U?$pair@$$CBHPAVRaven_Weapon@@@std@@PAX@std@@@std@@V?$_Tree_val@U?$_Tree_simple_types@U?$pair@$$CBHPAVRaven_Weapon@@@std@@@std@@@2@$00@2@$00@std@@QAEAAV?$_Compressed_pair@V?$allocator@U?$_Tree_node@U?$pair@$$CBHPAVRaven_Weapon@@@std@@PAX@std@@@std@@V?$_Tree_val@U?$_Tree_simple_types@U?$pair@$$CBHPAVRaven_Weapon@@@std@@@std@@@2@$00@2@XZ ; std::_Compressed_pair<std::less<int>,std::_Compressed_pair<std::allocator<std::_Tree_node<std::pair<int const ,Raven_Weapon *>,void *> >,std::_Tree_val<std::_Tree_simple_types<std::pair<int const ,Raven_Weapon *> > >,1>,1>::_Get_second
PUBLIC	?_Get_second@?$_Compressed_pair@U?$less@H@std@@V?$_Compressed_pair@V?$allocator@U?$_Tree_node@U?$pair@$$CBHPAVRaven_Weapon@@@std@@PAX@std@@@std@@V?$_Tree_val@U?$_Tree_simple_types@U?$pair@$$CBHPAVRaven_Weapon@@@std@@@std@@@2@$00@2@$00@std@@QBEABV?$_Compressed_pair@V?$allocator@U?$_Tree_node@U?$pair@$$CBHPAVRaven_Weapon@@@std@@PAX@std@@@std@@V?$_Tree_val@U?$_Tree_simple_types@U?$pair@$$CBHPAVRaven_Weapon@@@std@@@std@@@2@$00@2@XZ ; std::_Compressed_pair<std::less<int>,std::_Compressed_pair<std::allocator<std::_Tree_node<std::pair<int const ,Raven_Weapon *>,void *> >,std::_Tree_val<std::_Tree_simple_types<std::pair<int const ,Raven_Weapon *> > >,1>,1>::_Get_second
PUBLIC	??0?$_Tree@V?$_Tmap_traits@HPAVRaven_Weapon@@U?$less@H@std@@V?$allocator@U?$pair@$$CBHPAVRaven_Weapon@@@std@@@3@$0A@@std@@@std@@QAE@ABU?$less@H@1@@Z ; std::_Tree<std::_Tmap_traits<int,Raven_Weapon *,std::less<int>,std::allocator<std::pair<int const ,Raven_Weapon *> >,0> >::_Tree<std::_Tmap_traits<int,Raven_Weapon *,std::less<int>,std::allocator<std::pair<int const ,Raven_Weapon *> >,0> >
PUBLIC	??1?$_Tree@V?$_Tmap_traits@HPAVRaven_Weapon@@U?$less@H@std@@V?$allocator@U?$pair@$$CBHPAVRaven_Weapon@@@std@@@3@$0A@@std@@@std@@QAE@XZ ; std::_Tree<std::_Tmap_traits<int,Raven_Weapon *,std::less<int>,std::allocator<std::pair<int const ,Raven_Weapon *> >,0> >::~_Tree<std::_Tmap_traits<int,Raven_Weapon *,std::less<int>,std::allocator<std::pair<int const ,Raven_Weapon *> >,0> >
PUBLIC	?begin@?$_Tree@V?$_Tmap_traits@HPAVRaven_Weapon@@U?$less@H@std@@V?$allocator@U?$pair@$$CBHPAVRaven_Weapon@@@std@@@3@$0A@@std@@@std@@QAE?AV?$_Tree_iterator@V?$_Tree_val@U?$_Tree_simple_types@U?$pair@$$CBHPAVRaven_Weapon@@@std@@@std@@@std@@@2@XZ ; std::_Tree<std::_Tmap_traits<int,Raven_Weapon *,std::less<int>,std::allocator<std::pair<int const ,Raven_Weapon *> >,0> >::begin
PUBLIC	?begin@?$_Tree@V?$_Tmap_traits@HPAVRaven_Weapon@@U?$less@H@std@@V?$allocator@U?$pair@$$CBHPAVRaven_Weapon@@@std@@@3@$0A@@std@@@std@@QBE?AV?$_Tree_const_iterator@V?$_Tree_val@U?$_Tree_simple_types@U?$pair@$$CBHPAVRaven_Weapon@@@std@@@std@@@std@@@2@XZ ; std::_Tree<std::_Tmap_traits<int,Raven_Weapon *,std::less<int>,std::allocator<std::pair<int const ,Raven_Weapon *> >,0> >::begin
PUBLIC	?end@?$_Tree@V?$_Tmap_traits@HPAVRaven_Weapon@@U?$less@H@std@@V?$allocator@U?$pair@$$CBHPAVRaven_Weapon@@@std@@@3@$0A@@std@@@std@@QAE?AV?$_Tree_iterator@V?$_Tree_val@U?$_Tree_simple_types@U?$pair@$$CBHPAVRaven_Weapon@@@std@@@std@@@std@@@2@XZ ; std::_Tree<std::_Tmap_traits<int,Raven_Weapon *,std::less<int>,std::allocator<std::pair<int const ,Raven_Weapon *> >,0> >::end
PUBLIC	?end@?$_Tree@V?$_Tmap_traits@HPAVRaven_Weapon@@U?$less@H@std@@V?$allocator@U?$pair@$$CBHPAVRaven_Weapon@@@std@@@3@$0A@@std@@@std@@QBE?AV?$_Tree_const_iterator@V?$_Tree_val@U?$_Tree_simple_types@U?$pair@$$CBHPAVRaven_Weapon@@@std@@@std@@@std@@@2@XZ ; std::_Tree<std::_Tmap_traits<int,Raven_Weapon *,std::less<int>,std::allocator<std::pair<int const ,Raven_Weapon *> >,0> >::end
PUBLIC	?size@?$_Tree@V?$_Tmap_traits@HPAVRaven_Weapon@@U?$less@H@std@@V?$allocator@U?$pair@$$CBHPAVRaven_Weapon@@@std@@@3@$0A@@std@@@std@@QBEIXZ ; std::_Tree<std::_Tmap_traits<int,Raven_Weapon *,std::less<int>,std::allocator<std::pair<int const ,Raven_Weapon *> >,0> >::size
PUBLIC	?max_size@?$_Tree@V?$_Tmap_traits@HPAVRaven_Weapon@@U?$less@H@std@@V?$allocator@U?$pair@$$CBHPAVRaven_Weapon@@@std@@@3@$0A@@std@@@std@@QBEIXZ ; std::_Tree<std::_Tmap_traits<int,Raven_Weapon *,std::less<int>,std::allocator<std::pair<int const ,Raven_Weapon *> >,0> >::max_size
PUBLIC	?erase@?$_Tree@V?$_Tmap_traits@HPAVRaven_Weapon@@U?$less@H@std@@V?$allocator@U?$pair@$$CBHPAVRaven_Weapon@@@std@@@3@$0A@@std@@@std@@QAE?AV?$_Tree_iterator@V?$_Tree_val@U?$_Tree_simple_types@U?$pair@$$CBHPAVRaven_Weapon@@@std@@@std@@@std@@@2@V?$_Tree_const_iterator@V?$_Tree_val@U?$_Tree_simple_types@U?$pair@$$CBHPAVRaven_Weapon@@@std@@@std@@@std@@@2@@Z ; std::_Tree<std::_Tmap_traits<int,Raven_Weapon *,std::less<int>,std::allocator<std::pair<int const ,Raven_Weapon *> >,0> >::erase
PUBLIC	?erase@?$_Tree@V?$_Tmap_traits@HPAVRaven_Weapon@@U?$less@H@std@@V?$allocator@U?$pair@$$CBHPAVRaven_Weapon@@@std@@@3@$0A@@std@@@std@@QAE?AV?$_Tree_iterator@V?$_Tree_val@U?$_Tree_simple_types@U?$pair@$$CBHPAVRaven_Weapon@@@std@@@std@@@std@@@2@V?$_Tree_const_iterator@V?$_Tree_val@U?$_Tree_simple_types@U?$pair@$$CBHPAVRaven_Weapon@@@std@@@std@@@std@@@2@0@Z ; std::_Tree<std::_Tmap_traits<int,Raven_Weapon *,std::less<int>,std::allocator<std::pair<int const ,Raven_Weapon *> >,0> >::erase
PUBLIC	?clear@?$_Tree@V?$_Tmap_traits@HPAVRaven_Weapon@@U?$less@H@std@@V?$allocator@U?$pair@$$CBHPAVRaven_Weapon@@@std@@@3@$0A@@std@@@std@@QAEXXZ ; std::_Tree<std::_Tmap_traits<int,Raven_Weapon *,std::less<int>,std::allocator<std::pair<int const ,Raven_Weapon *> >,0> >::clear
PUBLIC	?lower_bound@?$_Tree@V?$_Tmap_traits@HPAVRaven_Weapon@@U?$less@H@std@@V?$allocator@U?$pair@$$CBHPAVRaven_Weapon@@@std@@@3@$0A@@std@@@std@@QAE?AV?$_Tree_iterator@V?$_Tree_val@U?$_Tree_simple_types@U?$pair@$$CBHPAVRaven_Weapon@@@std@@@std@@@std@@@2@ABH@Z ; std::_Tree<std::_Tmap_traits<int,Raven_Weapon *,std::less<int>,std::allocator<std::pair<int const ,Raven_Weapon *> >,0> >::lower_bound
PUBLIC	?_Destroy_if_node@?$_Tree@V?$_Tmap_traits@HPAVRaven_Weapon@@U?$less@H@std@@V?$allocator@U?$pair@$$CBHPAVRaven_Weapon@@@std@@@3@$0A@@std@@@std@@IAEXPAU?$_Tree_node@U?$pair@$$CBHPAVRaven_Weapon@@@std@@PAX@2@@Z ; std::_Tree<std::_Tmap_traits<int,Raven_Weapon *,std::less<int>,std::allocator<std::pair<int const ,Raven_Weapon *> >,0> >::_Destroy_if_node
PUBLIC	?_Erase@?$_Tree@V?$_Tmap_traits@HPAVRaven_Weapon@@U?$less@H@std@@V?$allocator@U?$pair@$$CBHPAVRaven_Weapon@@@std@@@3@$0A@@std@@@std@@IAEXPAU?$_Tree_node@U?$pair@$$CBHPAVRaven_Weapon@@@std@@PAX@2@@Z ; std::_Tree<std::_Tmap_traits<int,Raven_Weapon *,std::less<int>,std::allocator<std::pair<int const ,Raven_Weapon *> >,0> >::_Erase
PUBLIC	?_Compare@?$_Tree@V?$_Tmap_traits@HPAVRaven_Weapon@@U?$less@H@std@@V?$allocator@U?$pair@$$CBHPAVRaven_Weapon@@@std@@@3@$0A@@std@@@std@@IBE_NABH0@Z ; std::_Tree<std::_Tmap_traits<int,Raven_Weapon *,std::less<int>,std::allocator<std::pair<int const ,Raven_Weapon *> >,0> >::_Compare
PUBLIC	?_Orphan_ptr@?$_Tree@V?$_Tmap_traits@HPAVRaven_Weapon@@U?$less@H@std@@V?$allocator@U?$pair@$$CBHPAVRaven_Weapon@@@std@@@3@$0A@@std@@@std@@IAEXPAU?$_Tree_node@U?$pair@$$CBHPAVRaven_Weapon@@@std@@PAX@2@@Z ; std::_Tree<std::_Tmap_traits<int,Raven_Weapon *,std::less<int>,std::allocator<std::pair<int const ,Raven_Weapon *> >,0> >::_Orphan_ptr
PUBLIC	?_Tidy@?$_Tree@V?$_Tmap_traits@HPAVRaven_Weapon@@U?$less@H@std@@V?$allocator@U?$pair@$$CBHPAVRaven_Weapon@@@std@@@3@$0A@@std@@@std@@IAEXXZ ; std::_Tree<std::_Tmap_traits<int,Raven_Weapon *,std::less<int>,std::allocator<std::pair<int const ,Raven_Weapon *> >,0> >::_Tidy
PUBLIC	?_Kfn@?$_Tree@V?$_Tmap_traits@HPAVRaven_Weapon@@U?$less@H@std@@V?$allocator@U?$pair@$$CBHPAVRaven_Weapon@@@std@@@3@$0A@@std@@@std@@IBEABHABU?$pair@$$CBHPAVRaven_Weapon@@@2@@Z ; std::_Tree<std::_Tmap_traits<int,Raven_Weapon *,std::less<int>,std::allocator<std::pair<int const ,Raven_Weapon *> >,0> >::_Kfn
PUBLIC	?_Key@?$_Tree@V?$_Tmap_traits@HPAVRaven_Weapon@@U?$less@H@std@@V?$allocator@U?$pair@$$CBHPAVRaven_Weapon@@@std@@@3@$0A@@std@@@std@@IBEABHPAU?$_Tree_node@U?$pair@$$CBHPAVRaven_Weapon@@@std@@PAX@2@@Z ; std::_Tree<std::_Tmap_traits<int,Raven_Weapon *,std::less<int>,std::allocator<std::pair<int const ,Raven_Weapon *> >,0> >::_Key
PUBLIC	??0?$map@HPAVRaven_Weapon@@U?$less@H@std@@V?$allocator@U?$pair@$$CBHPAVRaven_Weapon@@@std@@@3@@std@@QAE@XZ ; std::map<int,Raven_Weapon *,std::less<int>,std::allocator<std::pair<int const ,Raven_Weapon *> > >::map<int,Raven_Weapon *,std::less<int>,std::allocator<std::pair<int const ,Raven_Weapon *> > >
PUBLIC	??A?$map@HPAVRaven_Weapon@@U?$less@H@std@@V?$allocator@U?$pair@$$CBHPAVRaven_Weapon@@@std@@@3@@std@@QAEAAPAVRaven_Weapon@@$$QAH@Z ; std::map<int,Raven_Weapon *,std::less<int>,std::allocator<std::pair<int const ,Raven_Weapon *> > >::operator[]
PUBLIC	??A?$map@HPAVRaven_Weapon@@U?$less@H@std@@V?$allocator@U?$pair@$$CBHPAVRaven_Weapon@@@std@@@3@@std@@QAEAAPAVRaven_Weapon@@ABH@Z ; std::map<int,Raven_Weapon *,std::less<int>,std::allocator<std::pair<int const ,Raven_Weapon *> > >::operator[]
PUBLIC	??1?$map@HPAVRaven_Weapon@@U?$less@H@std@@V?$allocator@U?$pair@$$CBHPAVRaven_Weapon@@@std@@@3@@std@@QAE@XZ ; std::map<int,Raven_Weapon *,std::less<int>,std::allocator<std::pair<int const ,Raven_Weapon *> > >::~map<int,Raven_Weapon *,std::less<int>,std::allocator<std::pair<int const ,Raven_Weapon *> > >
PUBLIC	?PredictFuturePositionOfTarget@Raven_WeaponSystem@@ABE?AUVector2D@@XZ ; Raven_WeaponSystem::PredictFuturePositionOfTarget
PUBLIC	?AddNoiseToAim@Raven_WeaponSystem@@ABEXAAUVector2D@@@Z ; Raven_WeaponSystem::AddNoiseToAim
PUBLIC	??0Raven_WeaponSystem@@QAE@PAVRaven_Bot@@NNN@Z	; Raven_WeaponSystem::Raven_WeaponSystem
PUBLIC	??1Raven_WeaponSystem@@QAE@XZ			; Raven_WeaponSystem::~Raven_WeaponSystem
PUBLIC	?Initialize@Raven_WeaponSystem@@QAEXXZ		; Raven_WeaponSystem::Initialize
PUBLIC	?TakeAimAndShoot@Raven_WeaponSystem@@QBEXXZ	; Raven_WeaponSystem::TakeAimAndShoot
PUBLIC	?SelectWeapon@Raven_WeaponSystem@@QAEXXZ	; Raven_WeaponSystem::SelectWeapon
PUBLIC	?AddWeapon@Raven_WeaponSystem@@QAEXI@Z		; Raven_WeaponSystem::AddWeapon
PUBLIC	?ChangeWeapon@Raven_WeaponSystem@@QAEXI@Z	; Raven_WeaponSystem::ChangeWeapon
PUBLIC	?ShootAt@Raven_WeaponSystem@@QBEXUVector2D@@@Z	; Raven_WeaponSystem::ShootAt
PUBLIC	?GetCurrentWeapon@Raven_WeaponSystem@@QBEPAVRaven_Weapon@@XZ ; Raven_WeaponSystem::GetCurrentWeapon
PUBLIC	?GetWeaponFromInventory@Raven_WeaponSystem@@QAEPAVRaven_Weapon@@H@Z ; Raven_WeaponSystem::GetWeaponFromInventory
PUBLIC	?GetAmmoRemainingForWeapon@Raven_WeaponSystem@@QAEHI@Z ; Raven_WeaponSystem::GetAmmoRemainingForWeapon
PUBLIC	?RenderCurrentWeapon@Raven_WeaponSystem@@QBEXXZ	; Raven_WeaponSystem::RenderCurrentWeapon
PUBLIC	?RenderDesirabilities@Raven_WeaponSystem@@QBEXXZ ; Raven_WeaponSystem::RenderDesirabilities
PUBLIC	??0Matrix@C2DMatrix@@QAE@XZ			; C2DMatrix::Matrix::Matrix
PUBLIC	?MatrixMultiply@C2DMatrix@@AAEXAAUMatrix@1@@Z	; C2DMatrix::MatrixMultiply
PUBLIC	??0C2DMatrix@@QAE@XZ				; C2DMatrix::C2DMatrix
PUBLIC	?Identity@C2DMatrix@@QAEXXZ			; C2DMatrix::Identity
PUBLIC	?Rotate@C2DMatrix@@QAEXN@Z			; C2DMatrix::Rotate
PUBLIC	?TransformVector2Ds@C2DMatrix@@QAEXAAUVector2D@@@Z ; C2DMatrix::TransformVector2Ds
PUBLIC	?Vec2DRotateAroundOrigin@@YAXAAUVector2D@@N@Z	; Vec2DRotateAroundOrigin
PUBLIC	?Pos@BaseGameEntity@@QBE?AUVector2D@@XZ		; BaseGameEntity::Pos
PUBLIC	?Velocity@MovingEntity@@QBE?AUVector2D@@XZ	; MovingEntity::Velocity
PUBLIC	?MaxSpeed@MovingEntity@@QBENXZ			; MovingEntity::MaxSpeed
PUBLIC	?Heading@MovingEntity@@QBE?AUVector2D@@XZ	; MovingEntity::Heading
PUBLIC	?isTargetPresent@Raven_TargetingSystem@@QBE_NXZ	; Raven_TargetingSystem::isTargetPresent
PUBLIC	?GetTarget@Raven_TargetingSystem@@QBEPAVRaven_Bot@@XZ ; Raven_TargetingSystem::GetTarget
PUBLIC	?GetTargetSys@Raven_Bot@@QAEQAVRaven_TargetingSystem@@XZ ; Raven_Bot::GetTargetSys
PUBLIC	?GetTargetBot@Raven_Bot@@QBEQAV1@XZ		; Raven_Bot::GetTargetBot
PUBLIC	?GetLastDesirabilityScore@Raven_Weapon@@QBENXZ	; Raven_Weapon::GetLastDesirabilityScore
PUBLIC	?GetMaxProjectileSpeed@Raven_Weapon@@QBENXZ	; Raven_Weapon::GetMaxProjectileSpeed
PUBLIC	?NumRoundsRemaining@Raven_Weapon@@QBEHXZ	; Raven_Weapon::NumRoundsRemaining
PUBLIC	?IncrementRounds@Raven_Weapon@@QAEXH@Z		; Raven_Weapon::IncrementRounds
PUBLIC	?GetType@Raven_Weapon@@QBEIXZ			; Raven_Weapon::GetType
PUBLIC	??$Clamp@IHI@@YAXAAIABHABI@Z			; Clamp<unsigned int,int,unsigned int>
PUBLIC	?GetNameOfType@@YA?AV?$basic_string@DU?$char_traits@D@std@@V?$allocator@D@2@@std@@H@Z ; GetNameOfType
PUBLIC	?TextAtPos@Cgdi@@QAEXNNABV?$basic_string@DU?$char_traits@D@std@@V?$allocator@D@2@@std@@@Z ; Cgdi::TextAtPos
PUBLIC	??0?$_Tree_unchecked_const_iterator@V?$_Tree_val@U?$_Tree_simple_types@U?$pair@$$CBHPAVRaven_Weapon@@@std@@@std@@@std@@U_Iterator_base12@2@@std@@QAE@XZ ; std::_Tree_unchecked_const_iterator<std::_Tree_val<std::_Tree_simple_types<std::pair<int const ,Raven_Weapon *> > >,std::_Iterator_base12>::_Tree_unchecked_const_iterator<std::_Tree_val<std::_Tree_simple_types<std::pair<int const ,Raven_Weapon *> > >,std::_Iterator_base12>
PUBLIC	??0?$_Tree_unchecked_const_iterator@V?$_Tree_val@U?$_Tree_simple_types@U?$pair@$$CBHPAVRaven_Weapon@@@std@@@std@@@std@@U_Iterator_base12@2@@std@@QAE@PAU?$_Tree_node@U?$pair@$$CBHPAVRaven_Weapon@@@std@@PAX@1@PBV?$_Tree_val@U?$_Tree_simple_types@U?$pair@$$CBHPAVRaven_Weapon@@@std@@@std@@@1@@Z ; std::_Tree_unchecked_const_iterator<std::_Tree_val<std::_Tree_simple_types<std::pair<int const ,Raven_Weapon *> > >,std::_Iterator_base12>::_Tree_unchecked_const_iterator<std::_Tree_val<std::_Tree_simple_types<std::pair<int const ,Raven_Weapon *> > >,std::_Iterator_base12>
PUBLIC	??E?$_Tree_unchecked_const_iterator@V?$_Tree_val@U?$_Tree_simple_types@U?$pair@$$CBHPAVRaven_Weapon@@@std@@@std@@@std@@U_Iterator_base12@2@@std@@QAEAAV01@XZ ; std::_Tree_unchecked_const_iterator<std::_Tree_val<std::_Tree_simple_types<std::pair<int const ,Raven_Weapon *> > >,std::_Iterator_base12>::operator++
PUBLIC	??F?$_Tree_unchecked_const_iterator@V?$_Tree_val@U?$_Tree_simple_types@U?$pair@$$CBHPAVRaven_Weapon@@@std@@@std@@@std@@U_Iterator_base12@2@@std@@QAEAAV01@XZ ; std::_Tree_unchecked_const_iterator<std::_Tree_val<std::_Tree_simple_types<std::pair<int const ,Raven_Weapon *> > >,std::_Iterator_base12>::operator--
PUBLIC	??1?$_Tree_unchecked_const_iterator@V?$_Tree_val@U?$_Tree_simple_types@U?$pair@$$CBHPAVRaven_Weapon@@@std@@@std@@@std@@U_Iterator_base12@2@@std@@QAE@XZ ; std::_Tree_unchecked_const_iterator<std::_Tree_val<std::_Tree_simple_types<std::pair<int const ,Raven_Weapon *> > >,std::_Iterator_base12>::~_Tree_unchecked_const_iterator<std::_Tree_val<std::_Tree_simple_types<std::pair<int const ,Raven_Weapon *> > >,std::_Iterator_base12>
PUBLIC	??0?$_Tree_unchecked_const_iterator@V?$_Tree_val@U?$_Tree_simple_types@U?$pair@$$CBHPAVRaven_Weapon@@@std@@@std@@@std@@U_Iterator_base12@2@@std@@QAE@ABV01@@Z ; std::_Tree_unchecked_const_iterator<std::_Tree_val<std::_Tree_simple_types<std::pair<int const ,Raven_Weapon *> > >,std::_Iterator_base12>::_Tree_unchecked_const_iterator<std::_Tree_val<std::_Tree_simple_types<std::pair<int const ,Raven_Weapon *> > >,std::_Iterator_base12>
PUBLIC	??0?$_Tree_unchecked_const_iterator@V?$_Tree_val@U?$_Tree_simple_types@U?$pair@$$CBHPAVRaven_Weapon@@@std@@@std@@@std@@U_Iterator_base12@2@@std@@QAE@$$QAV01@@Z ; std::_Tree_unchecked_const_iterator<std::_Tree_val<std::_Tree_simple_types<std::pair<int const ,Raven_Weapon *> > >,std::_Iterator_base12>::_Tree_unchecked_const_iterator<std::_Tree_val<std::_Tree_simple_types<std::pair<int const ,Raven_Weapon *> > >,std::_Iterator_base12>
PUBLIC	??4?$_Tree_unchecked_const_iterator@V?$_Tree_val@U?$_Tree_simple_types@U?$pair@$$CBHPAVRaven_Weapon@@@std@@@std@@@std@@U_Iterator_base12@2@@std@@QAEAAV01@ABV01@@Z ; std::_Tree_unchecked_const_iterator<std::_Tree_val<std::_Tree_simple_types<std::pair<int const ,Raven_Weapon *> > >,std::_Iterator_base12>::operator=
PUBLIC	??4?$_Tree_unchecked_const_iterator@V?$_Tree_val@U?$_Tree_simple_types@U?$pair@$$CBHPAVRaven_Weapon@@@std@@@std@@@std@@U_Iterator_base12@2@@std@@QAEAAV01@$$QAV01@@Z ; std::_Tree_unchecked_const_iterator<std::_Tree_val<std::_Tree_simple_types<std::pair<int const ,Raven_Weapon *> > >,std::_Iterator_base12>::operator=
PUBLIC	??0?$_Tree_const_iterator@V?$_Tree_val@U?$_Tree_simple_types@U?$pair@$$CBHPAVRaven_Weapon@@@std@@@std@@@std@@@std@@QAE@XZ ; std::_Tree_const_iterator<std::_Tree_val<std::_Tree_simple_types<std::pair<int const ,Raven_Weapon *> > > >::_Tree_const_iterator<std::_Tree_val<std::_Tree_simple_types<std::pair<int const ,Raven_Weapon *> > > >
PUBLIC	??0?$_Tree_const_iterator@V?$_Tree_val@U?$_Tree_simple_types@U?$pair@$$CBHPAVRaven_Weapon@@@std@@@std@@@std@@@std@@QAE@PAU?$_Tree_node@U?$pair@$$CBHPAVRaven_Weapon@@@std@@PAX@1@PBV?$_Tree_val@U?$_Tree_simple_types@U?$pair@$$CBHPAVRaven_Weapon@@@std@@@std@@@1@@Z ; std::_Tree_const_iterator<std::_Tree_val<std::_Tree_simple_types<std::pair<int const ,Raven_Weapon *> > > >::_Tree_const_iterator<std::_Tree_val<std::_Tree_simple_types<std::pair<int const ,Raven_Weapon *> > > >
PUBLIC	??D?$_Tree_const_iterator@V?$_Tree_val@U?$_Tree_simple_types@U?$pair@$$CBHPAVRaven_Weapon@@@std@@@std@@@std@@@std@@QBEABU?$pair@$$CBHPAVRaven_Weapon@@@1@XZ ; std::_Tree_const_iterator<std::_Tree_val<std::_Tree_simple_types<std::pair<int const ,Raven_Weapon *> > > >::operator*
PUBLIC	??C?$_Tree_const_iterator@V?$_Tree_val@U?$_Tree_simple_types@U?$pair@$$CBHPAVRaven_Weapon@@@std@@@std@@@std@@@std@@QBEPBU?$pair@$$CBHPAVRaven_Weapon@@@1@XZ ; std::_Tree_const_iterator<std::_Tree_val<std::_Tree_simple_types<std::pair<int const ,Raven_Weapon *> > > >::operator->
PUBLIC	??E?$_Tree_const_iterator@V?$_Tree_val@U?$_Tree_simple_types@U?$pair@$$CBHPAVRaven_Weapon@@@std@@@std@@@std@@@std@@QAEAAV01@XZ ; std::_Tree_const_iterator<std::_Tree_val<std::_Tree_simple_types<std::pair<int const ,Raven_Weapon *> > > >::operator++
PUBLIC	??E?$_Tree_const_iterator@V?$_Tree_val@U?$_Tree_simple_types@U?$pair@$$CBHPAVRaven_Weapon@@@std@@@std@@@std@@@std@@QAE?AV01@H@Z ; std::_Tree_const_iterator<std::_Tree_val<std::_Tree_simple_types<std::pair<int const ,Raven_Weapon *> > > >::operator++
PUBLIC	??F?$_Tree_const_iterator@V?$_Tree_val@U?$_Tree_simple_types@U?$pair@$$CBHPAVRaven_Weapon@@@std@@@std@@@std@@@std@@QAEAAV01@XZ ; std::_Tree_const_iterator<std::_Tree_val<std::_Tree_simple_types<std::pair<int const ,Raven_Weapon *> > > >::operator--
PUBLIC	??8?$_Tree_const_iterator@V?$_Tree_val@U?$_Tree_simple_types@U?$pair@$$CBHPAVRaven_Weapon@@@std@@@std@@@std@@@std@@QBE_NABV01@@Z ; std::_Tree_const_iterator<std::_Tree_val<std::_Tree_simple_types<std::pair<int const ,Raven_Weapon *> > > >::operator==
PUBLIC	??9?$_Tree_const_iterator@V?$_Tree_val@U?$_Tree_simple_types@U?$pair@$$CBHPAVRaven_Weapon@@@std@@@std@@@std@@@std@@QBE_NABV01@@Z ; std::_Tree_const_iterator<std::_Tree_val<std::_Tree_simple_types<std::pair<int const ,Raven_Weapon *> > > >::operator!=
PUBLIC	??1?$_Tree_const_iterator@V?$_Tree_val@U?$_Tree_simple_types@U?$pair@$$CBHPAVRaven_Weapon@@@std@@@std@@@std@@@std@@QAE@XZ ; std::_Tree_const_iterator<std::_Tree_val<std::_Tree_simple_types<std::pair<int const ,Raven_Weapon *> > > >::~_Tree_const_iterator<std::_Tree_val<std::_Tree_simple_types<std::pair<int const ,Raven_Weapon *> > > >
PUBLIC	??0?$_Tree_const_iterator@V?$_Tree_val@U?$_Tree_simple_types@U?$pair@$$CBHPAVRaven_Weapon@@@std@@@std@@@std@@@std@@QAE@ABV01@@Z ; std::_Tree_const_iterator<std::_Tree_val<std::_Tree_simple_types<std::pair<int const ,Raven_Weapon *> > > >::_Tree_const_iterator<std::_Tree_val<std::_Tree_simple_types<std::pair<int const ,Raven_Weapon *> > > >
PUBLIC	??0?$_Tree_const_iterator@V?$_Tree_val@U?$_Tree_simple_types@U?$pair@$$CBHPAVRaven_Weapon@@@std@@@std@@@std@@@std@@QAE@$$QAV01@@Z ; std::_Tree_const_iterator<std::_Tree_val<std::_Tree_simple_types<std::pair<int const ,Raven_Weapon *> > > >::_Tree_const_iterator<std::_Tree_val<std::_Tree_simple_types<std::pair<int const ,Raven_Weapon *> > > >
PUBLIC	??4?$_Tree_const_iterator@V?$_Tree_val@U?$_Tree_simple_types@U?$pair@$$CBHPAVRaven_Weapon@@@std@@@std@@@std@@@std@@QAEAAV01@ABV01@@Z ; std::_Tree_const_iterator<std::_Tree_val<std::_Tree_simple_types<std::pair<int const ,Raven_Weapon *> > > >::operator=
PUBLIC	??4?$_Tree_const_iterator@V?$_Tree_val@U?$_Tree_simple_types@U?$pair@$$CBHPAVRaven_Weapon@@@std@@@std@@@std@@@std@@QAEAAV01@$$QAV01@@Z ; std::_Tree_const_iterator<std::_Tree_val<std::_Tree_simple_types<std::pair<int const ,Raven_Weapon *> > > >::operator=
PUBLIC	??0?$_Tree_iterator@V?$_Tree_val@U?$_Tree_simple_types@U?$pair@$$CBHPAVRaven_Weapon@@@std@@@std@@@std@@@std@@QAE@XZ ; std::_Tree_iterator<std::_Tree_val<std::_Tree_simple_types<std::pair<int const ,Raven_Weapon *> > > >::_Tree_iterator<std::_Tree_val<std::_Tree_simple_types<std::pair<int const ,Raven_Weapon *> > > >
PUBLIC	??0?$_Tree_iterator@V?$_Tree_val@U?$_Tree_simple_types@U?$pair@$$CBHPAVRaven_Weapon@@@std@@@std@@@std@@@std@@QAE@PAU?$_Tree_node@U?$pair@$$CBHPAVRaven_Weapon@@@std@@PAX@1@PBV?$_Tree_val@U?$_Tree_simple_types@U?$pair@$$CBHPAVRaven_Weapon@@@std@@@std@@@1@@Z ; std::_Tree_iterator<std::_Tree_val<std::_Tree_simple_types<std::pair<int const ,Raven_Weapon *> > > >::_Tree_iterator<std::_Tree_val<std::_Tree_simple_types<std::pair<int const ,Raven_Weapon *> > > >
PUBLIC	??D?$_Tree_iterator@V?$_Tree_val@U?$_Tree_simple_types@U?$pair@$$CBHPAVRaven_Weapon@@@std@@@std@@@std@@@std@@QBEAAU?$pair@$$CBHPAVRaven_Weapon@@@1@XZ ; std::_Tree_iterator<std::_Tree_val<std::_Tree_simple_types<std::pair<int const ,Raven_Weapon *> > > >::operator*
PUBLIC	??C?$_Tree_iterator@V?$_Tree_val@U?$_Tree_simple_types@U?$pair@$$CBHPAVRaven_Weapon@@@std@@@std@@@std@@@std@@QBEPAU?$pair@$$CBHPAVRaven_Weapon@@@1@XZ ; std::_Tree_iterator<std::_Tree_val<std::_Tree_simple_types<std::pair<int const ,Raven_Weapon *> > > >::operator->
PUBLIC	??E?$_Tree_iterator@V?$_Tree_val@U?$_Tree_simple_types@U?$pair@$$CBHPAVRaven_Weapon@@@std@@@std@@@std@@@std@@QAEAAV01@XZ ; std::_Tree_iterator<std::_Tree_val<std::_Tree_simple_types<std::pair<int const ,Raven_Weapon *> > > >::operator++
PUBLIC	??F?$_Tree_iterator@V?$_Tree_val@U?$_Tree_simple_types@U?$pair@$$CBHPAVRaven_Weapon@@@std@@@std@@@std@@@std@@QAEAAV01@XZ ; std::_Tree_iterator<std::_Tree_val<std::_Tree_simple_types<std::pair<int const ,Raven_Weapon *> > > >::operator--
PUBLIC	??1?$_Tree_iterator@V?$_Tree_val@U?$_Tree_simple_types@U?$pair@$$CBHPAVRaven_Weapon@@@std@@@std@@@std@@@std@@QAE@XZ ; std::_Tree_iterator<std::_Tree_val<std::_Tree_simple_types<std::pair<int const ,Raven_Weapon *> > > >::~_Tree_iterator<std::_Tree_val<std::_Tree_simple_types<std::pair<int const ,Raven_Weapon *> > > >
PUBLIC	??0?$_Tree_iterator@V?$_Tree_val@U?$_Tree_simple_types@U?$pair@$$CBHPAVRaven_Weapon@@@std@@@std@@@std@@@std@@QAE@ABV01@@Z ; std::_Tree_iterator<std::_Tree_val<std::_Tree_simple_types<std::pair<int const ,Raven_Weapon *> > > >::_Tree_iterator<std::_Tree_val<std::_Tree_simple_types<std::pair<int const ,Raven_Weapon *> > > >
PUBLIC	??0?$_Tree_iterator@V?$_Tree_val@U?$_Tree_simple_types@U?$pair@$$CBHPAVRaven_Weapon@@@std@@@std@@@std@@@std@@QAE@$$QAV01@@Z ; std::_Tree_iterator<std::_Tree_val<std::_Tree_simple_types<std::pair<int const ,Raven_Weapon *> > > >::_Tree_iterator<std::_Tree_val<std::_Tree_simple_types<std::pair<int const ,Raven_Weapon *> > > >
PUBLIC	??4?$_Tree_iterator@V?$_Tree_val@U?$_Tree_simple_types@U?$pair@$$CBHPAVRaven_Weapon@@@std@@@std@@@std@@@std@@QAEAAV01@$$QAV01@@Z ; std::_Tree_iterator<std::_Tree_val<std::_Tree_simple_types<std::pair<int const ,Raven_Weapon *> > > >::operator=
PUBLIC	??$?HDU?$char_traits@D@std@@V?$allocator@D@1@@std@@YA?AV?$basic_string@DU?$char_traits@D@std@@V?$allocator@D@2@@0@$$QAV10@QBD@Z ; std::operator+<char,std::char_traits<char>,std::allocator<char> >
PUBLIC	??$?HDU?$char_traits@D@std@@V?$allocator@D@1@@std@@YA?AV?$basic_string@DU?$char_traits@D@std@@V?$allocator@D@2@@0@$$QAV10@ABV10@@Z ; std::operator+<char,std::char_traits<char>,std::allocator<char> >
PUBLIC	??$move@AAV?$basic_string@DU?$char_traits@D@std@@V?$allocator@D@2@@std@@@std@@YA$$QAV?$basic_string@DU?$char_traits@D@std@@V?$allocator@D@2@@0@AAV10@@Z ; std::move<std::basic_string<char,std::char_traits<char>,std::allocator<char> > &>
PUBLIC	?pointer_to@?$pointer_traits@PBU?$pair@$$CBHPAVRaven_Weapon@@@std@@@std@@SAPBU?$pair@$$CBHPAVRaven_Weapon@@@2@ABU32@@Z ; std::pointer_traits<std::pair<int const ,Raven_Weapon *> const *>::pointer_to
PUBLIC	?pointer_to@?$pointer_traits@PAU?$pair@$$CBHPAVRaven_Weapon@@@std@@@std@@SAPAU?$pair@$$CBHPAVRaven_Weapon@@@2@AAU32@@Z ; std::pointer_traits<std::pair<int const ,Raven_Weapon *> *>::pointer_to
PUBLIC	??$addressof@$$CBV?$_Tree_val@U?$_Tree_simple_types@U?$pair@$$CBHPAVRaven_Weapon@@@std@@@std@@@std@@@std@@YAPBV?$_Tree_val@U?$_Tree_simple_types@U?$pair@$$CBHPAVRaven_Weapon@@@std@@@std@@@0@ABV10@@Z ; std::addressof<std::_Tree_val<std::_Tree_simple_types<std::pair<int const ,Raven_Weapon *> > > const >
PUBLIC	??$addressof@V?$_Tree_val@U?$_Tree_simple_types@U?$pair@$$CBHPAVRaven_Weapon@@@std@@@std@@@std@@@std@@YAPAV?$_Tree_val@U?$_Tree_simple_types@U?$pair@$$CBHPAVRaven_Weapon@@@std@@@std@@@0@AAV10@@Z ; std::addressof<std::_Tree_val<std::_Tree_simple_types<std::pair<int const ,Raven_Weapon *> > > >
PUBLIC	??$try_emplace@$$V@?$map@HPAVRaven_Weapon@@U?$less@H@std@@V?$allocator@U?$pair@$$CBHPAVRaven_Weapon@@@std@@@3@@std@@QAE?AU?$pair@V?$_Tree_iterator@V?$_Tree_val@U?$_Tree_simple_types@U?$pair@$$CBHPAVRaven_Weapon@@@std@@@std@@@std@@@std@@_N@1@$$QAH@Z ; std::map<int,Raven_Weapon *,std::less<int>,std::allocator<std::pair<int const ,Raven_Weapon *> > >::try_emplace<>
PUBLIC	??$try_emplace@$$V@?$map@HPAVRaven_Weapon@@U?$less@H@std@@V?$allocator@U?$pair@$$CBHPAVRaven_Weapon@@@std@@@3@@std@@QAE?AU?$pair@V?$_Tree_iterator@V?$_Tree_val@U?$_Tree_simple_types@U?$pair@$$CBHPAVRaven_Weapon@@@std@@@std@@@std@@@std@@_N@1@ABH@Z ; std::map<int,Raven_Weapon *,std::less<int>,std::allocator<std::pair<int const ,Raven_Weapon *> > >::try_emplace<>
PUBLIC	??1?$pair@V?$_Tree_iterator@V?$_Tree_val@U?$_Tree_simple_types@U?$pair@$$CBHPAVRaven_Weapon@@@std@@@std@@@std@@@std@@_N@std@@QAE@XZ ; std::pair<std::_Tree_iterator<std::_Tree_val<std::_Tree_simple_types<std::pair<int const ,Raven_Weapon *> > > >,bool>::~pair<std::_Tree_iterator<std::_Tree_val<std::_Tree_simple_types<std::pair<int const ,Raven_Weapon *> > > >,bool>
PUBLIC	??$move@AAH@std@@YA$$QAHAAH@Z			; std::move<int &>
PUBLIC	??$_Min_value@I@std@@YAABIABI0@Z		; std::_Min_value<unsigned int>
PUBLIC	??$_Unfancy@D@std@@YAPADPAD@Z			; std::_Unfancy<char>
PUBLIC	??$move@AAV?$allocator@D@std@@@std@@YA$$QAV?$allocator@D@0@AAV10@@Z ; std::move<std::allocator<char> &>
PUBLIC	??$?0V?$allocator@D@std@@X@?$_String_alloc@U?$_String_base_types@DV?$allocator@D@std@@@std@@@std@@QAE@$$QAV?$allocator@D@1@@Z ; std::_String_alloc<std::_String_base_types<char,std::allocator<char> > >::_String_alloc<std::_String_base_types<char,std::allocator<char> > ><std::allocator<char>,void>
PUBLIC	??$addressof@U?$pair@$$CBHPAVRaven_Weapon@@@std@@@std@@YAPAU?$pair@$$CBHPAVRaven_Weapon@@@0@AAU10@@Z ; std::addressof<std::pair<int const ,Raven_Weapon *> >
PUBLIC	??$addressof@$$CBU?$pair@$$CBHPAVRaven_Weapon@@@std@@@std@@YAPBU?$pair@$$CBHPAVRaven_Weapon@@@0@ABU10@@Z ; std::addressof<std::pair<int const ,Raven_Weapon *> const >
PUBLIC	??$destroy@U?$pair@$$CBHPAVRaven_Weapon@@@std@@@?$_Default_allocator_traits@V?$allocator@U?$_Tree_node@U?$pair@$$CBHPAVRaven_Weapon@@@std@@PAX@std@@@std@@@std@@SAXAAV?$allocator@U?$_Tree_node@U?$pair@$$CBHPAVRaven_Weapon@@@std@@PAX@std@@@1@QAU?$pair@$$CBHPAVRaven_Weapon@@@1@@Z ; std::_Default_allocator_traits<std::allocator<std::_Tree_node<std::pair<int const ,Raven_Weapon *>,void *> > >::destroy<std::pair<int const ,Raven_Weapon *> >
PUBLIC	??$_Freenode0@V?$allocator@U?$_Tree_node@U?$pair@$$CBHPAVRaven_Weapon@@@std@@PAX@std@@@std@@@?$_Tree_node@U?$pair@$$CBHPAVRaven_Weapon@@@std@@PAX@std@@SAXAAV?$allocator@U?$_Tree_node@U?$pair@$$CBHPAVRaven_Weapon@@@std@@PAX@std@@@1@PAU01@@Z ; std::_Tree_node<std::pair<int const ,Raven_Weapon *>,void *>::_Freenode0<std::allocator<std::_Tree_node<std::pair<int const ,Raven_Weapon *>,void *> > >
PUBLIC	??$?0$$V@?$_Compressed_pair@V?$allocator@D@std@@V?$_String_val@U?$_Simple_types@D@std@@@2@$00@std@@QAE@U_Zero_then_variadic_args_t@1@@Z ; std::_Compressed_pair<std::allocator<char>,std::_String_val<std::_Simple_types<char> >,1>::_Compressed_pair<std::allocator<char>,std::_String_val<std::_Simple_types<char> >,1><>
PUBLIC	??$addressof@PAD@std@@YAPAPADAAPAD@Z		; std::addressof<char *>
PUBLIC	??$destroy@PAD@?$_Default_allocator_traits@V?$allocator@D@std@@@std@@SAXAAV?$allocator@D@1@QAPAD@Z ; std::_Default_allocator_traits<std::allocator<char> >::destroy<char *>
PUBLIC	??$_Max_value@I@std@@YAABIABI0@Z		; std::_Max_value<unsigned int>
PUBLIC	??R<lambda_c6753c90be971fc9cc00b4f35f237a75>@@QBE@QADID@Z ; <lambda_c6753c90be971fc9cc00b4f35f237a75>::operator()
PUBLIC	??$_Reallocate_for@V<lambda_c6753c90be971fc9cc00b4f35f237a75>@@D@?$basic_string@DU?$char_traits@D@std@@V?$allocator@D@2@@std@@QAEAAV01@IV<lambda_c6753c90be971fc9cc00b4f35f237a75>@@D@Z ; std::basic_string<char,std::char_traits<char>,std::allocator<char> >::_Reallocate_for<<lambda_c6753c90be971fc9cc00b4f35f237a75>,char>
PUBLIC	??R<lambda_9366063389c5f42a00a5088cf24e69de>@@QBE@QADIQBD@Z ; <lambda_9366063389c5f42a00a5088cf24e69de>::operator()
PUBLIC	??$_Reallocate_for@V<lambda_9366063389c5f42a00a5088cf24e69de>@@PBD@?$basic_string@DU?$char_traits@D@std@@V?$allocator@D@2@@std@@QAEAAV01@IV<lambda_9366063389c5f42a00a5088cf24e69de>@@PBD@Z ; std::basic_string<char,std::char_traits<char>,std::allocator<char> >::_Reallocate_for<<lambda_9366063389c5f42a00a5088cf24e69de>,char const *>
PUBLIC	??R<lambda_ab246b20b9526e2ef7792587e4298a77>@@QBE@QADQBDI1I@Z ; <lambda_ab246b20b9526e2ef7792587e4298a77>::operator()
PUBLIC	??$_Reallocate_grow_by@V<lambda_ab246b20b9526e2ef7792587e4298a77>@@PBDI@?$basic_string@DU?$char_traits@D@std@@V?$allocator@D@2@@std@@QAEAAV01@IV<lambda_ab246b20b9526e2ef7792587e4298a77>@@PBDI@Z ; std::basic_string<char,std::char_traits<char>,std::allocator<char> >::_Reallocate_grow_by<<lambda_ab246b20b9526e2ef7792587e4298a77>,char const *,unsigned int>
PUBLIC	??$construct@PADABQAD@?$_Default_allocator_traits@V?$allocator@D@std@@@std@@SAXAAV?$allocator@D@1@QAPADABQAD@Z ; std::_Default_allocator_traits<std::allocator<char> >::construct<char *,char * const &>
PUBLIC	??$addressof@V?$_String_val@U?$_Simple_types@D@std@@@std@@@std@@YAPAV?$_String_val@U?$_Simple_types@D@std@@@0@AAV10@@Z ; std::addressof<std::_String_val<std::_Simple_types<char> > >
PUBLIC	??$_Allocate@$07U_Default_allocate_traits@std@@$0A@@std@@YAPAXI@Z ; std::_Allocate<8,std::_Default_allocate_traits,0>
PUBLIC	??$_Deallocate@$07$0A@@std@@YAXPAXI@Z		; std::_Deallocate<8,0>
PUBLIC	?allocate@?$allocator@U_Container_proxy@std@@@std@@QAEPAU_Container_proxy@2@I@Z ; std::allocator<std::_Container_proxy>::allocate
PUBLIC	?deallocate@?$_Default_allocator_traits@V?$allocator@U_Container_proxy@std@@@std@@@std@@SAXAAV?$allocator@U_Container_proxy@std@@@2@QAU_Container_proxy@2@I@Z ; std::_Default_allocator_traits<std::allocator<std::_Container_proxy> >::deallocate
PUBLIC	??$destroy@U_Container_proxy@std@@@?$_Default_allocator_traits@V?$allocator@U_Container_proxy@std@@@std@@@std@@SAXAAV?$allocator@U_Container_proxy@std@@@1@QAU_Container_proxy@1@@Z ; std::_Default_allocator_traits<std::allocator<std::_Container_proxy> >::destroy<std::_Container_proxy>
PUBLIC	??$_Deallocate_plain@V?$allocator@U_Container_proxy@std@@@std@@$0A@@std@@YAXAAV?$allocator@U_Container_proxy@std@@@0@QAU_Container_proxy@0@@Z ; std::_Deallocate_plain<std::allocator<std::_Container_proxy>,0>
PUBLIC	??$_Unfancy@U_Container_proxy@std@@@std@@YAPAU_Container_proxy@0@PAU10@@Z ; std::_Unfancy<std::_Container_proxy>
PUBLIC	??$construct@U_Container_proxy@std@@U12@@?$_Default_allocator_traits@V?$allocator@U_Container_proxy@std@@@std@@@std@@SAXAAV?$allocator@U_Container_proxy@std@@@1@QAU_Container_proxy@1@$$QAU31@@Z ; std::_Default_allocator_traits<std::allocator<std::_Container_proxy> >::construct<std::_Container_proxy,std::_Container_proxy>
PUBLIC	??$?0U?$_Tree_node@U?$pair@$$CBHPAVRaven_Weapon@@@std@@PAX@std@@@?$allocator@U_Container_proxy@std@@@std@@QAE@ABV?$allocator@U?$_Tree_node@U?$pair@$$CBHPAVRaven_Weapon@@@std@@PAX@std@@@1@@Z ; std::allocator<std::_Container_proxy>::allocator<std::_Container_proxy><std::_Tree_node<std::pair<int const ,Raven_Weapon *>,void *> >
PUBLIC	??$?0ABU?$less@H@std@@U_Zero_then_variadic_args_t@1@@?$_Compressed_pair@U?$less@H@std@@V?$_Compressed_pair@V?$allocator@U?$_Tree_node@U?$pair@$$CBHPAVRaven_Weapon@@@std@@PAX@std@@@std@@V?$_Tree_val@U?$_Tree_simple_types@U?$pair@$$CBHPAVRaven_Weapon@@@std@@@std@@@2@$00@2@$00@std@@QAE@U_One_then_variadic_args_t@1@ABU?$less@H@1@$$QAU_Zero_then_variadic_args_t@1@@Z ; std::_Compressed_pair<std::less<int>,std::_Compressed_pair<std::allocator<std::_Tree_node<std::pair<int const ,Raven_Weapon *>,void *> >,std::_Tree_val<std::_Tree_simple_types<std::pair<int const ,Raven_Weapon *> > >,1>,1>::_Compressed_pair<std::less<int>,std::_Compressed_pair<std::allocator<std::_Tree_node<std::pair<int const ,Raven_Weapon *>,void *> >,std::_Tree_val<std::_Tree_simple_types<std::pair<int const ,Raven_Weapon *> > >,1>,1><std::less<int> const &,std::_Zero_then_variadic_args_t>
PUBLIC	??$?0D@?$allocator@U_Container_proxy@std@@@std@@QAE@ABV?$allocator@D@1@@Z ; std::allocator<std::_Container_proxy>::allocator<std::_Container_proxy><char>
PUBLIC	??$_Get_size_of_n@$07@std@@YAII@Z		; std::_Get_size_of_n<8>
PUBLIC	??$swap@DX@std@@YAXAAD0@Z			; std::swap<char,void>
PUBLIC	??$addressof@PAU?$_Tree_node@U?$pair@$$CBHPAVRaven_Weapon@@@std@@PAX@std@@@std@@YAPAPAU?$_Tree_node@U?$pair@$$CBHPAVRaven_Weapon@@@std@@PAX@0@AAPAU10@@Z ; std::addressof<std::_Tree_node<std::pair<int const ,Raven_Weapon *>,void *> *>
PUBLIC	??$construct@PAU?$_Tree_node@U?$pair@$$CBHPAVRaven_Weapon@@@std@@PAX@std@@AAPAU12@@?$_Default_allocator_traits@V?$allocator@U?$_Tree_node@U?$pair@$$CBHPAVRaven_Weapon@@@std@@PAX@std@@@std@@@std@@SAXAAV?$allocator@U?$_Tree_node@U?$pair@$$CBHPAVRaven_Weapon@@@std@@PAX@std@@@1@QAPAU?$_Tree_node@U?$pair@$$CBHPAVRaven_Weapon@@@std@@PAX@1@AAPAU31@@Z ; std::_Default_allocator_traits<std::allocator<std::_Tree_node<std::pair<int const ,Raven_Weapon *>,void *> > >::construct<std::_Tree_node<std::pair<int const ,Raven_Weapon *>,void *> *,std::_Tree_node<std::pair<int const ,Raven_Weapon *>,void *> * &>
PUBLIC	??$_Get_size_of_n@$0BI@@std@@YAII@Z		; std::_Get_size_of_n<24>
PUBLIC	??$_Try_emplace@H$$V@?$map@HPAVRaven_Weapon@@U?$less@H@std@@V?$allocator@U?$pair@$$CBHPAVRaven_Weapon@@@std@@@3@@std@@QAE?AU?$pair@V?$_Tree_iterator@V?$_Tree_val@U?$_Tree_simple_types@U?$pair@$$CBHPAVRaven_Weapon@@@std@@@std@@@std@@@std@@_N@1@$$QAH@Z ; std::map<int,Raven_Weapon *,std::less<int>,std::allocator<std::pair<int const ,Raven_Weapon *> > >::_Try_emplace<int>
PUBLIC	??$_Try_emplace@ABH$$V@?$map@HPAVRaven_Weapon@@U?$less@H@std@@V?$allocator@U?$pair@$$CBHPAVRaven_Weapon@@@std@@@3@@std@@QAE?AU?$pair@V?$_Tree_iterator@V?$_Tree_val@U?$_Tree_simple_types@U?$pair@$$CBHPAVRaven_Weapon@@@std@@@std@@@std@@@std@@_N@1@ABH@Z ; std::map<int,Raven_Weapon *,std::less<int>,std::allocator<std::pair<int const ,Raven_Weapon *> > >::_Try_emplace<int const &>
PUBLIC	??$forward@V?$allocator@D@std@@@std@@YA$$QAV?$allocator@D@0@AAV10@@Z ; std::forward<std::allocator<char> >
PUBLIC	??$?0V?$allocator@D@std@@$$V@?$_Compressed_pair@V?$allocator@D@std@@V?$_String_val@U?$_Simple_types@D@std@@@2@$00@std@@QAE@U_One_then_variadic_args_t@1@$$QAV?$allocator@D@1@@Z ; std::_Compressed_pair<std::allocator<char>,std::_String_val<std::_Simple_types<char> >,1>::_Compressed_pair<std::allocator<char>,std::_String_val<std::_Simple_types<char> >,1><std::allocator<char> >
PUBLIC	??$destroy@PAU?$_Tree_node@U?$pair@$$CBHPAVRaven_Weapon@@@std@@PAX@std@@@?$_Default_allocator_traits@V?$allocator@U?$_Tree_node@U?$pair@$$CBHPAVRaven_Weapon@@@std@@PAX@std@@@std@@@std@@SAXAAV?$allocator@U?$_Tree_node@U?$pair@$$CBHPAVRaven_Weapon@@@std@@PAX@std@@@1@QAPAU?$_Tree_node@U?$pair@$$CBHPAVRaven_Weapon@@@std@@PAX@1@@Z ; std::_Default_allocator_traits<std::allocator<std::_Tree_node<std::pair<int const ,Raven_Weapon *>,void *> > >::destroy<std::_Tree_node<std::pair<int const ,Raven_Weapon *>,void *> *>
PUBLIC	??$forward@ABQAD@std@@YAABQADABQAD@Z		; std::forward<char * const &>
PUBLIC	??$_Allocate_manually_vector_aligned@U_Default_allocate_traits@std@@@std@@YAPAXI@Z ; std::_Allocate_manually_vector_aligned<std::_Default_allocate_traits>
PUBLIC	??$forward@U_Container_proxy@std@@@std@@YA$$QAU_Container_proxy@0@AAU10@@Z ; std::forward<std::_Container_proxy>
PUBLIC	??$forward@U_Zero_then_variadic_args_t@std@@@std@@YA$$QAU_Zero_then_variadic_args_t@0@AAU10@@Z ; std::forward<std::_Zero_then_variadic_args_t>
PUBLIC	??$forward@ABU?$less@H@std@@@std@@YAABU?$less@H@0@ABU10@@Z ; std::forward<std::less<int> const &>
PUBLIC	??$?0$$V@?$_Compressed_pair@V?$allocator@U?$_Tree_node@U?$pair@$$CBHPAVRaven_Weapon@@@std@@PAX@std@@@std@@V?$_Tree_val@U?$_Tree_simple_types@U?$pair@$$CBHPAVRaven_Weapon@@@std@@@std@@@2@$00@std@@QAE@U_Zero_then_variadic_args_t@1@@Z ; std::_Compressed_pair<std::allocator<std::_Tree_node<std::pair<int const ,Raven_Weapon *>,void *> >,std::_Tree_val<std::_Tree_simple_types<std::pair<int const ,Raven_Weapon *> > >,1>::_Compressed_pair<std::allocator<std::_Tree_node<std::pair<int const ,Raven_Weapon *>,void *> >,std::_Tree_val<std::_Tree_simple_types<std::pair<int const ,Raven_Weapon *> > >,1><>
PUBLIC	??$move@AAD@std@@YA$$QADAAD@Z			; std::move<char &>
PUBLIC	??$forward@AAPAU?$_Tree_node@U?$pair@$$CBHPAVRaven_Weapon@@@std@@PAX@std@@@std@@YAAAPAU?$_Tree_node@U?$pair@$$CBHPAVRaven_Weapon@@@std@@PAX@0@AAPAU10@@Z ; std::forward<std::_Tree_node<std::pair<int const ,Raven_Weapon *>,void *> * &>
PUBLIC	??$forward_as_tuple@$$V@std@@YA?AV?$tuple@$$V@0@XZ ; std::forward_as_tuple<>
PUBLIC	??$_Debug_lt_pred@AAU?$less@H@std@@AAHABH@std@@YA_NAAU?$less@H@0@AAHABH@Z ; std::_Debug_lt_pred<std::less<int> &,int &,int const &>
PUBLIC	??$forward@H@std@@YA$$QAHAAH@Z			; std::forward<int>
PUBLIC	??$forward_as_tuple@H@std@@YA?AV?$tuple@$$QAH@0@$$QAH@Z ; std::forward_as_tuple<int>
PUBLIC	??0?$tuple@$$QAH@std@@QAE@$$QAV01@@Z		; std::tuple<int &&>::tuple<int &&>
PUBLIC	??$emplace_hint@ABUpiecewise_construct_t@std@@V?$tuple@$$QAH@2@V?$tuple@$$V@2@@?$_Tree@V?$_Tmap_traits@HPAVRaven_Weapon@@U?$less@H@std@@V?$allocator@U?$pair@$$CBHPAVRaven_Weapon@@@std@@@3@$0A@@std@@@std@@QAE?AV?$_Tree_iterator@V?$_Tree_val@U?$_Tree_simple_types@U?$pair@$$CBHPAVRaven_Weapon@@@std@@@std@@@std@@@1@V?$_Tree_const_iterator@V?$_Tree_val@U?$_Tree_simple_types@U?$pair@$$CBHPAVRaven_Weapon@@@std@@@std@@@std@@@1@ABUpiecewise_construct_t@1@$$QAV?$tuple@$$QAH@1@$$QAV?$tuple@$$V@1@@Z ; std::_Tree<std::_Tmap_traits<int,Raven_Weapon *,std::less<int>,std::allocator<std::pair<int const ,Raven_Weapon *> >,0> >::emplace_hint<std::piecewise_construct_t const &,std::tuple<int &&>,std::tuple<> >
PUBLIC	??$?0V?$_Tree_iterator@V?$_Tree_val@U?$_Tree_simple_types@U?$pair@$$CBHPAVRaven_Weapon@@@std@@@std@@@std@@@std@@_N$0A@@?$pair@V?$_Tree_iterator@V?$_Tree_val@U?$_Tree_simple_types@U?$pair@$$CBHPAVRaven_Weapon@@@std@@@std@@@std@@@std@@_N@std@@QAE@$$QAV?$_Tree_iterator@V?$_Tree_val@U?$_Tree_simple_types@U?$pair@$$CBHPAVRaven_Weapon@@@std@@@std@@@std@@@1@$$QA_N@Z ; std::pair<std::_Tree_iterator<std::_Tree_val<std::_Tree_simple_types<std::pair<int const ,Raven_Weapon *> > > >,bool>::pair<std::_Tree_iterator<std::_Tree_val<std::_Tree_simple_types<std::pair<int const ,Raven_Weapon *> > > >,bool><std::_Tree_iterator<std::_Tree_val<std::_Tree_simple_types<std::pair<int const ,Raven_Weapon *> > > >,bool,0>
PUBLIC	??$?0AAV?$_Tree_iterator@V?$_Tree_val@U?$_Tree_simple_types@U?$pair@$$CBHPAVRaven_Weapon@@@std@@@std@@@std@@@std@@_N$0A@@?$pair@V?$_Tree_iterator@V?$_Tree_val@U?$_Tree_simple_types@U?$pair@$$CBHPAVRaven_Weapon@@@std@@@std@@@std@@@std@@_N@std@@QAE@AAV?$_Tree_iterator@V?$_Tree_val@U?$_Tree_simple_types@U?$pair@$$CBHPAVRaven_Weapon@@@std@@@std@@@std@@@1@$$QA_N@Z ; std::pair<std::_Tree_iterator<std::_Tree_val<std::_Tree_simple_types<std::pair<int const ,Raven_Weapon *> > > >,bool>::pair<std::_Tree_iterator<std::_Tree_val<std::_Tree_simple_types<std::pair<int const ,Raven_Weapon *> > > >,bool><std::_Tree_iterator<std::_Tree_val<std::_Tree_simple_types<std::pair<int const ,Raven_Weapon *> > > > &,bool,0>
PUBLIC	??$_Debug_lt_pred@AAU?$less@H@std@@ABHABH@std@@YA_NAAU?$less@H@0@ABH1@Z ; std::_Debug_lt_pred<std::less<int> &,int const &,int const &>
PUBLIC	??$forward@ABH@std@@YAABHABH@Z			; std::forward<int const &>
PUBLIC	??$forward_as_tuple@ABH@std@@YA?AV?$tuple@ABH@0@ABH@Z ; std::forward_as_tuple<int const &>
PUBLIC	??0?$tuple@ABH@std@@QAE@$$QAV01@@Z		; std::tuple<int const &>::tuple<int const &>
PUBLIC	??$emplace_hint@ABUpiecewise_construct_t@std@@V?$tuple@ABH@2@V?$tuple@$$V@2@@?$_Tree@V?$_Tmap_traits@HPAVRaven_Weapon@@U?$less@H@std@@V?$allocator@U?$pair@$$CBHPAVRaven_Weapon@@@std@@@3@$0A@@std@@@std@@QAE?AV?$_Tree_iterator@V?$_Tree_val@U?$_Tree_simple_types@U?$pair@$$CBHPAVRaven_Weapon@@@std@@@std@@@std@@@1@V?$_Tree_const_iterator@V?$_Tree_val@U?$_Tree_simple_types@U?$pair@$$CBHPAVRaven_Weapon@@@std@@@std@@@std@@@1@ABUpiecewise_construct_t@1@$$QAV?$tuple@ABH@1@$$QAV?$tuple@$$V@1@@Z ; std::_Tree<std::_Tmap_traits<int,Raven_Weapon *,std::less<int>,std::allocator<std::pair<int const ,Raven_Weapon *> >,0> >::emplace_hint<std::piecewise_construct_t const &,std::tuple<int const &>,std::tuple<> >
PUBLIC	??$_Lbound@H@?$_Tree@V?$_Tmap_traits@HPAVRaven_Weapon@@U?$less@H@std@@V?$allocator@U?$pair@$$CBHPAVRaven_Weapon@@@std@@@3@$0A@@std@@@std@@IBEPAU?$_Tree_node@U?$pair@$$CBHPAVRaven_Weapon@@@std@@PAX@1@ABH@Z ; std::_Tree<std::_Tmap_traits<int,Raven_Weapon *,std::less<int>,std::allocator<std::pair<int const ,Raven_Weapon *> >,0> >::_Lbound<int>
PUBLIC	??$_Kfn@$$CBHPAVRaven_Weapon@@@?$_Tmap_traits@HPAVRaven_Weapon@@U?$less@H@std@@V?$allocator@U?$pair@$$CBHPAVRaven_Weapon@@@std@@@3@$0A@@std@@SAABHABU?$pair@$$CBHPAVRaven_Weapon@@@1@@Z ; std::_Tmap_traits<int,Raven_Weapon *,std::less<int>,std::allocator<std::pair<int const ,Raven_Weapon *> >,0>::_Kfn<int const ,Raven_Weapon *>
PUBLIC	??$forward@ABUpiecewise_construct_t@std@@@std@@YAABUpiecewise_construct_t@0@ABU10@@Z ; std::forward<std::piecewise_construct_t const &>
PUBLIC	??$forward@V?$tuple@$$V@std@@@std@@YA$$QAV?$tuple@$$V@0@AAV10@@Z ; std::forward<std::tuple<> >
PUBLIC	??$forward@_N@std@@YA$$QA_NAA_N@Z		; std::forward<bool>
PUBLIC	??$?0H$$V$0A@@?$tuple@$$QAH@std@@QAE@$$QAH@Z	; std::tuple<int &&>::tuple<int &&><int,0>
PUBLIC	??$forward@V?$tuple@$$QAH@std@@@std@@YA$$QAV?$tuple@$$QAH@0@AAV10@@Z ; std::forward<std::tuple<int &&> >
PUBLIC	??$_Buynode@ABUpiecewise_construct_t@std@@V?$tuple@$$QAH@2@V?$tuple@$$V@2@@?$_Tree_comp_alloc@V?$_Tmap_traits@HPAVRaven_Weapon@@U?$less@H@std@@V?$allocator@U?$pair@$$CBHPAVRaven_Weapon@@@std@@@3@$0A@@std@@@std@@QAEPAU?$_Tree_node@U?$pair@$$CBHPAVRaven_Weapon@@@std@@PAX@1@ABUpiecewise_construct_t@1@$$QAV?$tuple@$$QAH@1@$$QAV?$tuple@$$V@1@@Z ; std::_Tree_comp_alloc<std::_Tmap_traits<int,Raven_Weapon *,std::less<int>,std::allocator<std::pair<int const ,Raven_Weapon *> >,0> >::_Buynode<std::piecewise_construct_t const &,std::tuple<int &&>,std::tuple<> >
PUBLIC	??$_Insert_hint@AAU?$pair@$$CBHPAVRaven_Weapon@@@std@@PAU?$_Tree_node@U?$pair@$$CBHPAVRaven_Weapon@@@std@@PAX@2@@?$_Tree@V?$_Tmap_traits@HPAVRaven_Weapon@@U?$less@H@std@@V?$allocator@U?$pair@$$CBHPAVRaven_Weapon@@@std@@@3@$0A@@std@@@std@@IAE?AV?$_Tree_iterator@V?$_Tree_val@U?$_Tree_simple_types@U?$pair@$$CBHPAVRaven_Weapon@@@std@@@std@@@std@@@1@V?$_Tree_const_iterator@V?$_Tree_val@U?$_Tree_simple_types@U?$pair@$$CBHPAVRaven_Weapon@@@std@@@std@@@std@@@1@AAU?$pair@$$CBHPAVRaven_Weapon@@@1@PAU?$_Tree_node@U?$pair@$$CBHPAVRaven_Weapon@@@std@@PAX@1@@Z ; std::_Tree<std::_Tmap_traits<int,Raven_Weapon *,std::less<int>,std::allocator<std::pair<int const ,Raven_Weapon *> >,0> >::_Insert_hint<std::pair<int const ,Raven_Weapon *> &,std::_Tree_node<std::pair<int const ,Raven_Weapon *>,void *> *>
PUBLIC	??$forward@V?$_Tree_iterator@V?$_Tree_val@U?$_Tree_simple_types@U?$pair@$$CBHPAVRaven_Weapon@@@std@@@std@@@std@@@std@@@std@@YA$$QAV?$_Tree_iterator@V?$_Tree_val@U?$_Tree_simple_types@U?$pair@$$CBHPAVRaven_Weapon@@@std@@@std@@@std@@@0@AAV10@@Z ; std::forward<std::_Tree_iterator<std::_Tree_val<std::_Tree_simple_types<std::pair<int const ,Raven_Weapon *> > > > >
PUBLIC	??$forward@AAV?$_Tree_iterator@V?$_Tree_val@U?$_Tree_simple_types@U?$pair@$$CBHPAVRaven_Weapon@@@std@@@std@@@std@@@std@@@std@@YAAAV?$_Tree_iterator@V?$_Tree_val@U?$_Tree_simple_types@U?$pair@$$CBHPAVRaven_Weapon@@@std@@@std@@@std@@@0@AAV10@@Z ; std::forward<std::_Tree_iterator<std::_Tree_val<std::_Tree_simple_types<std::pair<int const ,Raven_Weapon *> > > > &>
PUBLIC	??$?0ABH$0A@@?$tuple@ABH@std@@QAE@ABH@Z		; std::tuple<int const &>::tuple<int const &><int const &,0>
PUBLIC	??$forward@V?$tuple@ABH@std@@@std@@YA$$QAV?$tuple@ABH@0@AAV10@@Z ; std::forward<std::tuple<int const &> >
PUBLIC	??$_Buynode@ABUpiecewise_construct_t@std@@V?$tuple@ABH@2@V?$tuple@$$V@2@@?$_Tree_comp_alloc@V?$_Tmap_traits@HPAVRaven_Weapon@@U?$less@H@std@@V?$allocator@U?$pair@$$CBHPAVRaven_Weapon@@@std@@@3@$0A@@std@@@std@@QAEPAU?$_Tree_node@U?$pair@$$CBHPAVRaven_Weapon@@@std@@PAX@1@ABUpiecewise_construct_t@1@$$QAV?$tuple@ABH@1@$$QAV?$tuple@$$V@1@@Z ; std::_Tree_comp_alloc<std::_Tmap_traits<int,Raven_Weapon *,std::less<int>,std::allocator<std::pair<int const ,Raven_Weapon *> >,0> >::_Buynode<std::piecewise_construct_t const &,std::tuple<int const &>,std::tuple<> >
PUBLIC	??$_Debug_lt_pred@ABU?$less@H@std@@ABHABH@std@@YA_NABU?$less@H@0@ABH1@Z ; std::_Debug_lt_pred<std::less<int> const &,int const &,int const &>
PUBLIC	??$?0U_Exact_args_t@std@@H$$V$0A@@?$tuple@$$QAH@std@@QAE@U_Exact_args_t@1@$$QAH@Z ; std::tuple<int &&>::tuple<int &&><std::_Exact_args_t,int,0>
PUBLIC	??$construct@U?$pair@$$CBHPAVRaven_Weapon@@@std@@ABUpiecewise_construct_t@2@V?$tuple@$$QAH@2@V?$tuple@$$V@2@@?$_Default_allocator_traits@V?$allocator@U?$_Tree_node@U?$pair@$$CBHPAVRaven_Weapon@@@std@@PAX@std@@@std@@@std@@SAXAAV?$allocator@U?$_Tree_node@U?$pair@$$CBHPAVRaven_Weapon@@@std@@PAX@std@@@1@QAU?$pair@$$CBHPAVRaven_Weapon@@@1@ABUpiecewise_construct_t@1@$$QAV?$tuple@$$QAH@1@$$QAV?$tuple@$$V@1@@Z ; std::_Default_allocator_traits<std::allocator<std::_Tree_node<std::pair<int const ,Raven_Weapon *>,void *> > >::construct<std::pair<int const ,Raven_Weapon *>,std::piecewise_construct_t const &,std::tuple<int &&>,std::tuple<> >
PUBLIC	??$forward@AAU?$pair@$$CBHPAVRaven_Weapon@@@std@@@std@@YAAAU?$pair@$$CBHPAVRaven_Weapon@@@0@AAU10@@Z ; std::forward<std::pair<int const ,Raven_Weapon *> &>
PUBLIC	??$_Insert_at@AAU?$pair@$$CBHPAVRaven_Weapon@@@std@@PAU?$_Tree_node@U?$pair@$$CBHPAVRaven_Weapon@@@std@@PAX@2@@?$_Tree@V?$_Tmap_traits@HPAVRaven_Weapon@@U?$less@H@std@@V?$allocator@U?$pair@$$CBHPAVRaven_Weapon@@@std@@@3@$0A@@std@@@std@@IAE?AV?$_Tree_iterator@V?$_Tree_val@U?$_Tree_simple_types@U?$pair@$$CBHPAVRaven_Weapon@@@std@@@std@@@std@@@1@_NPAU?$_Tree_node@U?$pair@$$CBHPAVRaven_Weapon@@@std@@PAX@1@AAU?$pair@$$CBHPAVRaven_Weapon@@@1@1@Z ; std::_Tree<std::_Tmap_traits<int,Raven_Weapon *,std::less<int>,std::allocator<std::pair<int const ,Raven_Weapon *> >,0> >::_Insert_at<std::pair<int const ,Raven_Weapon *> &,std::_Tree_node<std::pair<int const ,Raven_Weapon *>,void *> *>
PUBLIC	??$_Insert_nohint@AAU?$pair@$$CBHPAVRaven_Weapon@@@std@@PAU?$_Tree_node@U?$pair@$$CBHPAVRaven_Weapon@@@std@@PAX@2@@?$_Tree@V?$_Tmap_traits@HPAVRaven_Weapon@@U?$less@H@std@@V?$allocator@U?$pair@$$CBHPAVRaven_Weapon@@@std@@@3@$0A@@std@@@std@@IAE?AU?$pair@V?$_Tree_iterator@V?$_Tree_val@U?$_Tree_simple_types@U?$pair@$$CBHPAVRaven_Weapon@@@std@@@std@@@std@@@std@@_N@1@_NAAU?$pair@$$CBHPAVRaven_Weapon@@@1@PAU?$_Tree_node@U?$pair@$$CBHPAVRaven_Weapon@@@std@@PAX@1@@Z ; std::_Tree<std::_Tmap_traits<int,Raven_Weapon *,std::less<int>,std::allocator<std::pair<int const ,Raven_Weapon *> >,0> >::_Insert_nohint<std::pair<int const ,Raven_Weapon *> &,std::_Tree_node<std::pair<int const ,Raven_Weapon *>,void *> *>
PUBLIC	??$?0U_Exact_args_t@std@@ABH$$V$0A@@?$tuple@ABH@std@@QAE@U_Exact_args_t@1@ABH@Z ; std::tuple<int const &>::tuple<int const &><std::_Exact_args_t,int const &,0>
PUBLIC	??$construct@U?$pair@$$CBHPAVRaven_Weapon@@@std@@ABUpiecewise_construct_t@2@V?$tuple@ABH@2@V?$tuple@$$V@2@@?$_Default_allocator_traits@V?$allocator@U?$_Tree_node@U?$pair@$$CBHPAVRaven_Weapon@@@std@@PAX@std@@@std@@@std@@SAXAAV?$allocator@U?$_Tree_node@U?$pair@$$CBHPAVRaven_Weapon@@@std@@PAX@std@@@1@QAU?$pair@$$CBHPAVRaven_Weapon@@@1@ABUpiecewise_construct_t@1@$$QAV?$tuple@ABH@1@$$QAV?$tuple@$$V@1@@Z ; std::_Default_allocator_traits<std::allocator<std::_Tree_node<std::pair<int const ,Raven_Weapon *>,void *> > >::construct<std::pair<int const ,Raven_Weapon *>,std::piecewise_construct_t const &,std::tuple<int const &>,std::tuple<> >
PUBLIC	??$?0U_Exact_args_t@std@@$0A@@?$tuple@$$V@std@@QAE@U_Exact_args_t@1@@Z ; std::tuple<>::tuple<><std::_Exact_args_t,0>
PUBLIC	??$?0H@?$_Tuple_val@$$QAH@std@@QAE@$$QAH@Z	; std::_Tuple_val<int &&>::_Tuple_val<int &&><int>
PUBLIC	??$?0$$QAH$$Z$$V@?$pair@$$CBHPAVRaven_Weapon@@@std@@QAE@Upiecewise_construct_t@1@V?$tuple@$$QAH@1@V?$tuple@$$V@1@@Z ; std::pair<int const ,Raven_Weapon *>::pair<int const ,Raven_Weapon *><int &&>
PUBLIC	??$_Buy_if_not_node@AAU?$pair@$$CBHPAVRaven_Weapon@@@std@@@?$_Tree@V?$_Tmap_traits@HPAVRaven_Weapon@@U?$less@H@std@@V?$allocator@U?$pair@$$CBHPAVRaven_Weapon@@@std@@@3@$0A@@std@@@std@@IAEPAU?$_Tree_node@U?$pair@$$CBHPAVRaven_Weapon@@@std@@PAX@1@PAU21@AAU?$pair@$$CBHPAVRaven_Weapon@@@1@@Z ; std::_Tree<std::_Tmap_traits<int,Raven_Weapon *,std::less<int>,std::allocator<std::pair<int const ,Raven_Weapon *> >,0> >::_Buy_if_not_node<std::pair<int const ,Raven_Weapon *> &>
PUBLIC	??$?0ABH@?$_Tuple_val@ABH@std@@QAE@ABH@Z	; std::_Tuple_val<int const &>::_Tuple_val<int const &><int const &>
PUBLIC	??$?0ABH$$Z$$V@?$pair@$$CBHPAVRaven_Weapon@@@std@@QAE@Upiecewise_construct_t@1@V?$tuple@ABH@1@V?$tuple@$$V@1@@Z ; std::pair<int const ,Raven_Weapon *>::pair<int const ,Raven_Weapon *><int const &>
PUBLIC	??$?0V?$tuple@$$QAH@std@@V?$tuple@$$V@1@$0A@$$Z$S@?$pair@$$CBHPAVRaven_Weapon@@@std@@QAE@AAV?$tuple@$$QAH@1@AAV?$tuple@$$V@1@U?$integer_sequence@I$0A@@1@U?$integer_sequence@I$S@1@@Z ; std::pair<int const ,Raven_Weapon *>::pair<int const ,Raven_Weapon *><std::tuple<int &&>,std::tuple<>,0>
PUBLIC	??$?0V?$tuple@ABH@std@@V?$tuple@$$V@1@$0A@$$Z$S@?$pair@$$CBHPAVRaven_Weapon@@@std@@QAE@AAV?$tuple@ABH@1@AAV?$tuple@$$V@1@U?$integer_sequence@I$0A@@1@U?$integer_sequence@I$S@1@@Z ; std::pair<int const ,Raven_Weapon *>::pair<int const ,Raven_Weapon *><std::tuple<int const &>,std::tuple<>,0>
PUBLIC	??$move@AAV?$tuple@$$QAH@std@@@std@@YA$$QAV?$tuple@$$QAH@0@AAV10@@Z ; std::move<std::tuple<int &&> &>
PUBLIC	??$get@$0A@$$QAH@std@@YA$$QAH$$QAV?$tuple@$$QAH@0@@Z ; std::get<0,int &&>
PUBLIC	??$move@AAV?$tuple@ABH@std@@@std@@YA$$QAV?$tuple@ABH@0@AAV10@@Z ; std::move<std::tuple<int const &> &>
PUBLIC	??$get@$0A@ABH@std@@YAABH$$QAV?$tuple@ABH@0@@Z	; std::get<0,int const &>
PUBLIC	??$forward@$$QAH@std@@YA$$QAHAAH@Z		; std::forward<int &&>
PUBLIC	?_OptionsStorage@?1??__local_stdio_printf_options@@9@4_KA ; `__local_stdio_printf_options'::`2'::_OptionsStorage
PUBLIC	??_C@_0BB@FCMFBGOM@invalid?5argument@		; `string'
PUBLIC	??_C@_02DKCKIIND@?$CFs@				; `string'
PUBLIC	??_C@_1CG@JNLFBNGN@?$AA?$CC?$AAi?$AAn?$AAv?$AAa?$AAl?$AAi?$AAd?$AA?5?$AAa?$AAr?$AAg?$AAu?$AAm?$AAe@ ; `string'
PUBLIC	??_C@_0BJ@LFDBABJJ@ITERATOR?5LIST?5CORRUPTED?$CB@ ; `string'
PUBLIC	??_C@_0GJ@DMCEMOMH@c?3?2program?5files?5?$CIx86?$CJ?2microsof@ ; `string'
PUBLIC	??_C@_1NC@HPHBFJCM@?$AAc?$AA?3?$AA?2?$AAp?$AAr?$AAo?$AAg?$AAr?$AAa?$AAm?$AA?5?$AAf?$AAi?$AAl?$AAe@ ; `string'
PUBLIC	??_C@_1EE@KLDMFDFL@?$AAs?$AAt?$AAd?$AA?3?$AA?3?$AA_?$AAI?$AAt?$AAe?$AAr?$AAa?$AAt?$AAo?$AAr?$AA_@ ; `string'
PUBLIC	??_C@_1DG@PLBPCAEM@?$AA?$CC?$AAI?$AAT?$AAE?$AAR?$AAA?$AAT?$AAO?$AAR?$AA?5?$AAL?$AAI?$AAS?$AAT?$AA?5@ ; `string'
PUBLIC	??_C@_0GJ@CAJJPMGE@c?3?2program?5files?5?$CIx86?$CJ?2microsof@ ; `string'
PUBLIC	??_C@_1NC@ICJKIMIP@?$AAc?$AA?3?$AA?2?$AAp?$AAr?$AAo?$AAg?$AAr?$AAa?$AAm?$AA?5?$AAf?$AAi?$AAl?$AAe@ ; `string'
PUBLIC	??_C@_1EK@NIFDJFDG@?$AAs?$AAt?$AAd?$AA?3?$AA?3?$AA_?$AAA?$AAd?$AAj?$AAu?$AAs?$AAt?$AA_?$AAm?$AAa@ ; `string'
PUBLIC	??_C@_02NJPGOMH@?$CFf@				; `string'
PUBLIC	??_C@_1KK@CPIJEJPB@?$AAc?$AA?3?$AA?2?$AAu?$AAs?$AAe?$AAr?$AAs?$AA?2?$AAu?$AAt?$AAi?$AAl?$AAi?$AAs@ ; `string'
PUBLIC	??_C@_04LIPBJNLA@Wall@				; `string'
PUBLIC	??_C@_08DFAAPNDP@Waypoint@			; `string'
PUBLIC	??_C@_08BDKGKOJG@Obstacle@			; `string'
PUBLIC	??_C@_06GGDALCBD@Health@			; `string'
PUBLIC	??_C@_0M@MJAOKDOC@Spawn?5Point@			; `string'
PUBLIC	??_C@_07NMJDHEIK@Railgun@			; `string'
PUBLIC	??_C@_07HHOBKAAD@Blaster@			; `string'
PUBLIC	??_C@_0BA@KLAKAPPA@rocket_launcher@		; `string'
PUBLIC	??_C@_07PKBOGMMP@shotgun@			; `string'
PUBLIC	??_C@_05BIPCPIBA@knife@				; `string'
PUBLIC	??_C@_03EHEMCPIE@bot@				; `string'
PUBLIC	??_C@_0N@POGFGIIH@sliding_door@			; `string'
PUBLIC	??_C@_0N@FKJMDFJC@door_trigger@			; `string'
PUBLIC	??_C@_0BE@DMMNKACB@UNKNOWN?5OBJECT?5TYPE@	; `string'
PUBLIC	??_C@_0DE@DMNPKCGM@cannot?5increment?5value?9initiali@ ; `string'
PUBLIC	??_C@_0GG@KBILHLPB@c?3?2program?5files?5?$CIx86?$CJ?2microsof@ ; `string'
PUBLIC	??_C@_1MM@ECCNBGLC@?$AAc?$AA?3?$AA?2?$AAp?$AAr?$AAo?$AAg?$AAr?$AAa?$AAm?$AA?5?$AAf?$AAi?$AAl?$AAe@ ; `string'
PUBLIC	??_C@_1BCG@CPGNACGJ@?$AAs?$AAt?$AAd?$AA?3?$AA?3?$AA_?$AAT?$AAr?$AAe?$AAe?$AA_?$AAc?$AAo?$AAn?$AAs@ ; `string'
PUBLIC	??_C@_1GM@BJMCGEGI@?$AA?$CC?$AAc?$AAa?$AAn?$AAn?$AAo?$AAt?$AA?5?$AAi?$AAn?$AAc?$AAr?$AAe?$AAm?$AAe@ ; `string'
PUBLIC	??_C@_0CG@NLEHEOHN@cannot?5increment?5end?5map?1set?5it@ ; `string'
PUBLIC	??_C@_1FA@KLFCDGNE@?$AA?$CC?$AAc?$AAa?$AAn?$AAn?$AAo?$AAt?$AA?5?$AAi?$AAn?$AAc?$AAr?$AAe?$AAm?$AAe@ ; `string'
PUBLIC	??_C@_0BO@LFGPDMIB@string?5subscript?5out?5of?5range@ ; `string'
PUBLIC	??_C@_0GI@CJGNOLDA@c?3?2program?5files?5?$CIx86?$CJ?2microsof@ ; `string'
PUBLIC	??_C@_1NA@JLAKACOO@?$AAc?$AA?3?$AA?2?$AAp?$AAr?$AAo?$AAg?$AAr?$AAa?$AAm?$AA?5?$AAf?$AAi?$AAl?$AAe@ ; `string'
PUBLIC	??_C@_1LO@NPPEKPAI@?$AAs?$AAt?$AAd?$AA?3?$AA?3?$AAb?$AAa?$AAs?$AAi?$AAc?$AA_?$AAs?$AAt?$AAr?$AAi@ ; `string'
PUBLIC	??_C@_1EA@OADAPGGK@?$AA?$CC?$AAs?$AAt?$AAr?$AAi?$AAn?$AAg?$AA?5?$AAs?$AAu?$AAb?$AAs?$AAc?$AAr?$AAi@ ; `string'
PUBLIC	?id@?$codecvt@DDU_Mbstatet@@@std@@2V0locale@2@A	; std::codecvt<char,char,_Mbstatet>::id
PUBLIC	??_C@_0BP@OLDKBHLM@map?1set?5iterators?5incompatible@ ; `string'
PUBLIC	??_C@_1EC@JLIDLCDH@?$AA?$CC?$AAm?$AAa?$AAp?$AA?1?$AAs?$AAe?$AAt?$AA?5?$AAi?$AAt?$AAe?$AAr?$AAa?$AAt@ ; `string'
PUBLIC	??_C@_1BCG@IPJAOLKM@?$AAs?$AAt?$AAd?$AA?3?$AA?3?$AA_?$AAT?$AAr?$AAe?$AAe?$AA_?$AAc?$AAo?$AAn?$AAs@ ; `string'
PUBLIC	??_C@_0DG@LCFNIIPB@cannot?5dereference?5value?9initia@ ; `string'
PUBLIC	??_C@_1BCE@NNLBKMMP@?$AAs?$AAt?$AAd?$AA?3?$AA?3?$AA_?$AAT?$AAr?$AAe?$AAe?$AA_?$AAc?$AAo?$AAn?$AAs@ ; `string'
PUBLIC	??_C@_1HA@ILGCNILF@?$AA?$CC?$AAc?$AAa?$AAn?$AAn?$AAo?$AAt?$AA?5?$AAd?$AAe?$AAr?$AAe?$AAf?$AAe?$AAr@ ; `string'
PUBLIC	??_C@_0CI@OKFEHCEB@cannot?5dereference?5end?5map?1set?5@ ; `string'
PUBLIC	??_C@_1FE@NKHAAGMB@?$AA?$CC?$AAc?$AAa?$AAn?$AAn?$AAo?$AAt?$AA?5?$AAd?$AAe?$AAr?$AAe?$AAf?$AAe?$AAr@ ; `string'
PUBLIC	?id@?$collate@D@std@@2V0locale@2@A		; std::collate<char>::id
PUBLIC	??_C@_0CF@JILFNJOL@map?1set?5erase?5iterator?5outside?5@ ; `string'
PUBLIC	??_C@_1EO@CEDAEPC@?$AA?$CC?$AAm?$AAa?$AAp?$AA?1?$AAs?$AAe?$AAt?$AA?5?$AAe?$AAr?$AAa?$AAs?$AAe?$AA?5@ ; `string'
PUBLIC	??_C@_1BEO@FIBINPCG@?$AAs?$AAt?$AAd?$AA?3?$AA?3?$AA_?$AAT?$AAr?$AAe?$AAe?$AA?$DM?$AAc?$AAl?$AAa?$AAs@ ; `string'
PUBLIC	??_C@_1NM@IMGHIKKF@?$AAs?$AAt?$AAd?$AA?3?$AA?3?$AA_?$AAT?$AAr?$AAe?$AAe?$AA_?$AAv?$AAa?$AAl?$AA?$DM@ ; `string'
PUBLIC	??_C@_0BI@OELFEEAK@?$DMClamp?$DOMaxVal?5?$DM?5MinVal?$CB@ ; `string'
PUBLIC	??_C@_1HO@GLAEGOGM@?$AA?$CI?$AA?$CI?$AAd?$AAo?$AAu?$AAb?$AAl?$AAe?$AA?$CJ?$AAm?$AAi?$AAn?$AAV?$AAa?$AAl@ ; `string'
PUBLIC	??_C@_0BD@FEEMDEPI@invalid?5comparator@		; `string'
PUBLIC	??_C@_1CI@JONCLBEJ@?$AAs?$AAt?$AAd?$AA?3?$AA?3?$AA_?$AAD?$AAe?$AAb?$AAu?$AAg?$AA_?$AAl?$AAt?$AA_@ ; `string'
PUBLIC	??_C@_1CK@NDNHPKPI@?$AA?$CC?$AAi?$AAn?$AAv?$AAa?$AAl?$AAi?$AAd?$AA?5?$AAc?$AAo?$AAm?$AAp?$AAa?$AAr@ ; `string'
PUBLIC	?id@?$num_get@DV?$istreambuf_iterator@DU?$char_traits@D@std@@@std@@@std@@2V0locale@2@A ; std::num_get<char,std::istreambuf_iterator<char,std::char_traits<char> > >::id
PUBLIC	?id@?$numpunct@D@std@@2V0locale@2@A		; std::numpunct<char>::id
PUBLIC	??_C@_0BA@JFNIOLAK@string?5too?5long@		; `string'
PUBLIC	??_C@_1EO@GFNCMDLA@?$AAs?$AAt?$AAd?$AA?3?$AA?3?$AA_?$AAA?$AAl?$AAl?$AAo?$AAc?$AAa?$AAt?$AAe?$AA_@ ; `string'
PUBLIC	??_C@_0CG@MOLIBF@map?1set?5insert?5iterator?5outside@ ; `string'
PUBLIC	??_C@_1FA@HNFOKDLB@?$AA?$CC?$AAm?$AAa?$AAp?$AA?1?$AAs?$AAe?$AAt?$AA?5?$AAi?$AAn?$AAs?$AAe?$AAr?$AAt@ ; `string'
PUBLIC	??_C@_1BFM@PPFCBLHJ@?$AAs?$AAt?$AAd?$AA?3?$AA?3?$AA_?$AAT?$AAr?$AAe?$AAe?$AA?$DM?$AAc?$AAl?$AAa?$AAs@ ; `string'
PUBLIC	??_C@_0DE@JECMPNID@cannot?5decrement?5value?9initiali@ ; `string'
PUBLIC	??_C@_1GM@ECOECPCJ@?$AA?$CC?$AAc?$AAa?$AAn?$AAn?$AAo?$AAt?$AA?5?$AAd?$AAe?$AAc?$AAr?$AAe?$AAm?$AAe@ ; `string'
PUBLIC	??_C@_0CI@FJCIBNID@cannot?5decrement?5begin?5map?1set?5@ ; `string'
PUBLIC	??_C@_1FE@HAEBNAIH@?$AA?$CC?$AAc?$AAa?$AAn?$AAn?$AAo?$AAt?$AA?5?$AAd?$AAe?$AAc?$AAr?$AAe?$AAm?$AAe@ ; `string'
PUBLIC	??_C@_1BCG@NMFPLOKI@?$AAs?$AAt?$AAd?$AA?3?$AA?3?$AA_?$AAT?$AAr?$AAe?$AAe?$AA_?$AAc?$AAo?$AAn?$AAs@ ; `string'
PUBLIC	??_C@_0BE@JONHPENG@map?1set?$DMT?$DO?5too?5long@ ; `string'
PUBLIC	__real@0010000000000000
PUBLIC	__real@00800000
PUBLIC	__real@3ff0000000000000
PUBLIC	__real@4024000000000000
PUBLIC	__real@40e0000000000000
PUBLIC	__real@7f7fffff
PUBLIC	__real@7fefffffffffffff
PUBLIC	__xmm@41f00000000000000000000000000000
PUBLIC	__xmm@80000000000000008000000000000000
EXTRN	??2@YAPAXI@Z:PROC				; operator new
EXTRN	??3@YAXPAXI@Z:PROC				; operator delete
EXTRN	__invalid_parameter:PROC
EXTRN	__CrtDbgReport:PROC
EXTRN	??0_Lockit@std@@QAE@H@Z:PROC			; std::_Lockit::_Lockit
EXTRN	??1_Lockit@std@@QAE@XZ:PROC			; std::_Lockit::~_Lockit
EXTRN	_rand:PROC
EXTRN	_cos:PROC
EXTRN	_sin:PROC
EXTRN	_sqrt:PROC
EXTRN	___stdio_common_vsprintf:PROC
EXTRN	___stdio_common_vsprintf_s:PROC
EXTRN	_memcpy:PROC
EXTRN	_memmove:PROC
EXTRN	_memset:PROC
EXTRN	_strlen:PROC
EXTRN	?_Xlength_error@std@@YAXPBD@Z:PROC		; std::_Xlength_error
EXTRN	__imp__TextOutA@20:PROC
EXTRN	__wassert:PROC
EXTRN	?isTargetShootable@Raven_TargetingSystem@@QBE_NXZ:PROC ; Raven_TargetingSystem::isTargetShootable
EXTRN	?GetTimeTargetHasBeenVisible@Raven_TargetingSystem@@QBENXZ:PROC ; Raven_TargetingSystem::GetTimeTargetHasBeenVisible
EXTRN	?GetTimeTargetHasBeenOutOfView@Raven_TargetingSystem@@QBENXZ:PROC ; Raven_TargetingSystem::GetTimeTargetHasBeenOutOfView
EXTRN	?RotateFacingTowardPosition@Raven_Bot@@QAE_NUVector2D@@@Z:PROC ; Raven_Bot::RotateFacingTowardPosition
EXTRN	?hasLOSto@Raven_Bot@@QBE_NUVector2D@@@Z:PROC	; Raven_Bot::hasLOSto
EXTRN	??0RocketLauncher@@QAE@PAVRaven_Bot@@@Z:PROC	; RocketLauncher::RocketLauncher
EXTRN	??0RailGun@@QAE@PAVRaven_Bot@@@Z:PROC		; RailGun::RailGun
EXTRN	??0ShotGun@@QAE@PAVRaven_Bot@@@Z:PROC		; ShotGun::ShotGun
EXTRN	??0Blaster@@QAE@PAVRaven_Bot@@@Z:PROC		; Blaster::Blaster
EXTRN	?Instance@Cgdi@@SAPAV1@XZ:PROC			; Cgdi::Instance
EXTRN	@_RTC_CheckStackVars@8:PROC
EXTRN	@__security_check_cookie@4:PROC
EXTRN	__CxxThrowException@8:PROC
EXTRN	__RTC_CheckEsp:PROC
EXTRN	__RTC_InitBase:PROC
EXTRN	__RTC_Shutdown:PROC
EXTRN	___CxxFrameHandler3:PROC
EXTRN	___security_cookie:DWORD
EXTRN	__fltused:DWORD
;	COMDAT ?_OptionsStorage@?1??__local_stdio_printf_options@@9@4_KA
_BSS	SEGMENT
?_OptionsStorage@?1??__local_stdio_printf_options@@9@4_KA DQ 01H DUP (?) ; `__local_stdio_printf_options'::`2'::_OptionsStorage
_BSS	ENDS
_BSS	SEGMENT
?MaxInt@@3HB DD	01H DUP (?)				; MaxInt
	ALIGN	8

?MaxDouble@@3NB DQ 01H DUP (?)				; MaxDouble
?MinDouble@@3NB DQ 01H DUP (?)				; MinDouble
?MaxFloat@@3MB DD 01H DUP (?)				; MaxFloat
?MinFloat@@3MB DD 01H DUP (?)				; MinFloat
_BSS	ENDS
;	COMDAT ?id@?$codecvt@DDU_Mbstatet@@@std@@2V0locale@2@A
_BSS	SEGMENT
?id@?$codecvt@DDU_Mbstatet@@@std@@2V0locale@2@A DD 01H DUP (?) ; std::codecvt<char,char,_Mbstatet>::id
_BSS	ENDS
;	COMDAT ?id@?$collate@D@std@@2V0locale@2@A
_BSS	SEGMENT
?id@?$collate@D@std@@2V0locale@2@A DD 01H DUP (?)	; std::collate<char>::id
_BSS	ENDS
;	COMDAT ?id@?$num_get@DV?$istreambuf_iterator@DU?$char_traits@D@std@@@std@@@std@@2V0locale@2@A
_BSS	SEGMENT
?id@?$num_get@DV?$istreambuf_iterator@DU?$char_traits@D@std@@@std@@@std@@2V0locale@2@A DD 01H DUP (?) ; std::num_get<char,std::istreambuf_iterator<char,std::char_traits<char> > >::id
_BSS	ENDS
;	COMDAT ?id@?$numpunct@D@std@@2V0locale@2@A
_BSS	SEGMENT
?id@?$numpunct@D@std@@2V0locale@2@A DD 01H DUP (?)	; std::numpunct<char>::id
_BSS	ENDS
CRT$XCU	SEGMENT
?MaxInt$initializer$@@3P6AXXZA DD FLAT:??__EMaxInt@@YAXXZ ; MaxInt$initializer$
CRT$XCU	ENDS
;	COMDAT __xmm@80000000000000008000000000000000
CONST	SEGMENT
__xmm@80000000000000008000000000000000 DB 00H, 00H, 00H, 00H, 00H, 00H, 00H
	DB	080H, 00H, 00H, 00H, 00H, 00H, 00H, 00H, 080H
CONST	ENDS
;	COMDAT __xmm@41f00000000000000000000000000000
CONST	SEGMENT
__xmm@41f00000000000000000000000000000 DB 00H, 00H, 00H, 00H, 00H, 00H, 00H
	DB	00H, 00H, 00H, 00H, 00H, 00H, 00H, 0f0H, 'A'
CONST	ENDS
;	COMDAT __real@7fefffffffffffff
CONST	SEGMENT
__real@7fefffffffffffff DQ 07fefffffffffffffr	; 1.79769e+308
CONST	ENDS
;	COMDAT __real@7f7fffff
CONST	SEGMENT
__real@7f7fffff DD 07f7fffffr			; 3.40282e+38
CONST	ENDS
;	COMDAT __real@40e0000000000000
CONST	SEGMENT
__real@40e0000000000000 DQ 040e0000000000000r	; 32768
CONST	ENDS
;	COMDAT __real@4024000000000000
CONST	SEGMENT
__real@4024000000000000 DQ 04024000000000000r	; 10
CONST	ENDS
;	COMDAT __real@3ff0000000000000
CONST	SEGMENT
__real@3ff0000000000000 DQ 03ff0000000000000r	; 1
CONST	ENDS
;	COMDAT __real@00800000
CONST	SEGMENT
__real@00800000 DD 000800000r			; 1.17549e-38
CONST	ENDS
;	COMDAT __real@0010000000000000
CONST	SEGMENT
__real@0010000000000000 DQ 00010000000000000r	; 2.22507e-308
CONST	ENDS
;	COMDAT rtc$TMZ
rtc$TMZ	SEGMENT
__RTC_Shutdown.rtc$TMZ DD FLAT:__RTC_Shutdown
rtc$TMZ	ENDS
;	COMDAT rtc$IMZ
rtc$IMZ	SEGMENT
__RTC_InitBase.rtc$IMZ DD FLAT:__RTC_InitBase
rtc$IMZ	ENDS
;	COMDAT ??_C@_0BE@JONHPENG@map?1set?$DMT?$DO?5too?5long@
CONST	SEGMENT
??_C@_0BE@JONHPENG@map?1set?$DMT?$DO?5too?5long@ DB 'map/set<T> too long', 00H ; `string'
CONST	ENDS
;	COMDAT ??_C@_1BCG@NMFPLOKI@?$AAs?$AAt?$AAd?$AA?3?$AA?3?$AA_?$AAT?$AAr?$AAe?$AAe?$AA_?$AAc?$AAo?$AAn?$AAs@
CONST	SEGMENT
??_C@_1BCG@NMFPLOKI@?$AAs?$AAt?$AAd?$AA?3?$AA?3?$AA_?$AAT?$AAr?$AAe?$AAe?$AA_?$AAc?$AAo?$AAn?$AAs@ DB 's'
	DB	00H, 't', 00H, 'd', 00H, ':', 00H, ':', 00H, '_', 00H, 'T', 00H
	DB	'r', 00H, 'e', 00H, 'e', 00H, '_', 00H, 'c', 00H, 'o', 00H, 'n'
	DB	00H, 's', 00H, 't', 00H, '_', 00H, 'i', 00H, 't', 00H, 'e', 00H
	DB	'r', 00H, 'a', 00H, 't', 00H, 'o', 00H, 'r', 00H, '<', 00H, 'c'
	DB	00H, 'l', 00H, 'a', 00H, 's', 00H, 's', 00H, ' ', 00H, 's', 00H
	DB	't', 00H, 'd', 00H, ':', 00H, ':', 00H, '_', 00H, 'T', 00H, 'r'
	DB	00H, 'e', 00H, 'e', 00H, '_', 00H, 'v', 00H, 'a', 00H, 'l', 00H
	DB	'<', 00H, 's', 00H, 't', 00H, 'r', 00H, 'u', 00H, 'c', 00H, 't'
	DB	00H, ' ', 00H, 's', 00H, 't', 00H, 'd', 00H, ':', 00H, ':', 00H
	DB	'_', 00H, 'T', 00H, 'r', 00H, 'e', 00H, 'e', 00H, '_', 00H, 's'
	DB	00H, 'i', 00H, 'm', 00H, 'p', 00H, 'l', 00H, 'e', 00H, '_', 00H
	DB	't', 00H, 'y', 00H, 'p', 00H, 'e', 00H, 's', 00H, '<', 00H, 's'
	DB	00H, 't', 00H, 'r', 00H, 'u', 00H, 'c', 00H, 't', 00H, ' ', 00H
	DB	's', 00H, 't', 00H, 'd', 00H, ':', 00H, ':', 00H, 'p', 00H, 'a'
	DB	00H, 'i', 00H, 'r', 00H, '<', 00H, 'i', 00H, 'n', 00H, 't', 00H
	DB	' ', 00H, 'c', 00H, 'o', 00H, 'n', 00H, 's', 00H, 't', 00H, ' '
	DB	00H, ',', 00H, 'c', 00H, 'l', 00H, 'a', 00H, 's', 00H, 's', 00H
	DB	' ', 00H, 'R', 00H, 'a', 00H, 'v', 00H, 'e', 00H, 'n', 00H, '_'
	DB	00H, 'W', 00H, 'e', 00H, 'a', 00H, 'p', 00H, 'o', 00H, 'n', 00H
	DB	' ', 00H, '*', 00H, '>', 00H, ' ', 00H, '>', 00H, ' ', 00H, '>'
	DB	00H, ' ', 00H, '>', 00H, ':', 00H, ':', 00H, 'o', 00H, 'p', 00H
	DB	'e', 00H, 'r', 00H, 'a', 00H, 't', 00H, 'o', 00H, 'r', 00H, ' '
	DB	00H, '-', 00H, '-', 00H, 00H, 00H		; `string'
CONST	ENDS
;	COMDAT ??_C@_1FE@HAEBNAIH@?$AA?$CC?$AAc?$AAa?$AAn?$AAn?$AAo?$AAt?$AA?5?$AAd?$AAe?$AAc?$AAr?$AAe?$AAm?$AAe@
CONST	SEGMENT
??_C@_1FE@HAEBNAIH@?$AA?$CC?$AAc?$AAa?$AAn?$AAn?$AAo?$AAt?$AA?5?$AAd?$AAe?$AAc?$AAr?$AAe?$AAm?$AAe@ DB '"'
	DB	00H, 'c', 00H, 'a', 00H, 'n', 00H, 'n', 00H, 'o', 00H, 't', 00H
	DB	' ', 00H, 'd', 00H, 'e', 00H, 'c', 00H, 'r', 00H, 'e', 00H, 'm'
	DB	00H, 'e', 00H, 'n', 00H, 't', 00H, ' ', 00H, 'b', 00H, 'e', 00H
	DB	'g', 00H, 'i', 00H, 'n', 00H, ' ', 00H, 'm', 00H, 'a', 00H, 'p'
	DB	00H, '/', 00H, 's', 00H, 'e', 00H, 't', 00H, ' ', 00H, 'i', 00H
	DB	't', 00H, 'e', 00H, 'r', 00H, 'a', 00H, 't', 00H, 'o', 00H, 'r'
	DB	00H, '"', 00H, 00H, 00H			; `string'
CONST	ENDS
;	COMDAT ??_C@_0CI@FJCIBNID@cannot?5decrement?5begin?5map?1set?5@
CONST	SEGMENT
??_C@_0CI@FJCIBNID@cannot?5decrement?5begin?5map?1set?5@ DB 'cannot decre'
	DB	'ment begin map/set iterator', 00H		; `string'
CONST	ENDS
;	COMDAT ??_C@_1GM@ECOECPCJ@?$AA?$CC?$AAc?$AAa?$AAn?$AAn?$AAo?$AAt?$AA?5?$AAd?$AAe?$AAc?$AAr?$AAe?$AAm?$AAe@
CONST	SEGMENT
??_C@_1GM@ECOECPCJ@?$AA?$CC?$AAc?$AAa?$AAn?$AAn?$AAo?$AAt?$AA?5?$AAd?$AAe?$AAc?$AAr?$AAe?$AAm?$AAe@ DB '"'
	DB	00H, 'c', 00H, 'a', 00H, 'n', 00H, 'n', 00H, 'o', 00H, 't', 00H
	DB	' ', 00H, 'd', 00H, 'e', 00H, 'c', 00H, 'r', 00H, 'e', 00H, 'm'
	DB	00H, 'e', 00H, 'n', 00H, 't', 00H, ' ', 00H, 'v', 00H, 'a', 00H
	DB	'l', 00H, 'u', 00H, 'e', 00H, '-', 00H, 'i', 00H, 'n', 00H, 'i'
	DB	00H, 't', 00H, 'i', 00H, 'a', 00H, 'l', 00H, 'i', 00H, 'z', 00H
	DB	'e', 00H, 'd', 00H, ' ', 00H, 'm', 00H, 'a', 00H, 'p', 00H, '/'
	DB	00H, 's', 00H, 'e', 00H, 't', 00H, ' ', 00H, 'i', 00H, 't', 00H
	DB	'e', 00H, 'r', 00H, 'a', 00H, 't', 00H, 'o', 00H, 'r', 00H, '"'
	DB	00H, 00H, 00H				; `string'
CONST	ENDS
;	COMDAT ??_C@_0DE@JECMPNID@cannot?5decrement?5value?9initiali@
CONST	SEGMENT
??_C@_0DE@JECMPNID@cannot?5decrement?5value?9initiali@ DB 'cannot decreme'
	DB	'nt value-initialized map/set iterator', 00H	; `string'
CONST	ENDS
;	COMDAT ??_C@_1BFM@PPFCBLHJ@?$AAs?$AAt?$AAd?$AA?3?$AA?3?$AA_?$AAT?$AAr?$AAe?$AAe?$AA?$DM?$AAc?$AAl?$AAa?$AAs@
CONST	SEGMENT
??_C@_1BFM@PPFCBLHJ@?$AAs?$AAt?$AAd?$AA?3?$AA?3?$AA_?$AAT?$AAr?$AAe?$AAe?$AA?$DM?$AAc?$AAl?$AAa?$AAs@ DB 's'
	DB	00H, 't', 00H, 'd', 00H, ':', 00H, ':', 00H, '_', 00H, 'T', 00H
	DB	'r', 00H, 'e', 00H, 'e', 00H, '<', 00H, 'c', 00H, 'l', 00H, 'a'
	DB	00H, 's', 00H, 's', 00H, ' ', 00H, 's', 00H, 't', 00H, 'd', 00H
	DB	':', 00H, ':', 00H, '_', 00H, 'T', 00H, 'm', 00H, 'a', 00H, 'p'
	DB	00H, '_', 00H, 't', 00H, 'r', 00H, 'a', 00H, 'i', 00H, 't', 00H
	DB	's', 00H, '<', 00H, 'i', 00H, 'n', 00H, 't', 00H, ',', 00H, 'c'
	DB	00H, 'l', 00H, 'a', 00H, 's', 00H, 's', 00H, ' ', 00H, 'R', 00H
	DB	'a', 00H, 'v', 00H, 'e', 00H, 'n', 00H, '_', 00H, 'W', 00H, 'e'
	DB	00H, 'a', 00H, 'p', 00H, 'o', 00H, 'n', 00H, ' ', 00H, '*', 00H
	DB	',', 00H, 's', 00H, 't', 00H, 'r', 00H, 'u', 00H, 'c', 00H, 't'
	DB	00H, ' ', 00H, 's', 00H, 't', 00H, 'd', 00H, ':', 00H, ':', 00H
	DB	'l', 00H, 'e', 00H, 's', 00H, 's', 00H, '<', 00H, 'i', 00H, 'n'
	DB	00H, 't', 00H, '>', 00H, ',', 00H, 'c', 00H, 'l', 00H, 'a', 00H
	DB	's', 00H, 's', 00H, ' ', 00H, 's', 00H, 't', 00H, 'd', 00H, ':'
	DB	00H, ':', 00H, 'a', 00H, 'l', 00H, 'l', 00H, 'o', 00H, 'c', 00H
	DB	'a', 00H, 't', 00H, 'o', 00H, 'r', 00H, '<', 00H, 's', 00H, 't'
	DB	00H, 'r', 00H, 'u', 00H, 'c', 00H, 't', 00H, ' ', 00H, 's', 00H
	DB	't', 00H, 'd', 00H, ':', 00H, ':', 00H, 'p', 00H, 'a', 00H, 'i'
	DB	00H, 'r', 00H, '<', 00H, 'i', 00H, 'n', 00H, 't', 00H, ' ', 00H
	DB	'c', 00H, 'o', 00H, 'n', 00H, 's', 00H, 't', 00H, ' ', 00H, ','
	DB	00H, 'c', 00H, 'l', 00H, 'a', 00H, 's', 00H, 's', 00H, ' ', 00H
	DB	'R', 00H, 'a', 00H, 'v', 00H, 'e', 00H, 'n', 00H, '_', 00H, 'W'
	DB	00H, 'e', 00H, 'a', 00H, 'p', 00H, 'o', 00H, 'n', 00H, ' ', 00H
	DB	'*', 00H, '>', 00H, ' ', 00H, '>', 00H, ',', 00H, '0', 00H, '>'
	DB	00H, ' ', 00H, '>', 00H, ':', 00H, ':', 00H, '_', 00H, 'I', 00H
	DB	'n', 00H, 's', 00H, 'e', 00H, 'r', 00H, 't', 00H, '_', 00H, 'h'
	DB	00H, 'i', 00H, 'n', 00H, 't', 00H, 00H, 00H	; `string'
CONST	ENDS
;	COMDAT ??_C@_1FA@HNFOKDLB@?$AA?$CC?$AAm?$AAa?$AAp?$AA?1?$AAs?$AAe?$AAt?$AA?5?$AAi?$AAn?$AAs?$AAe?$AAr?$AAt@
CONST	SEGMENT
??_C@_1FA@HNFOKDLB@?$AA?$CC?$AAm?$AAa?$AAp?$AA?1?$AAs?$AAe?$AAt?$AA?5?$AAi?$AAn?$AAs?$AAe?$AAr?$AAt@ DB '"'
	DB	00H, 'm', 00H, 'a', 00H, 'p', 00H, '/', 00H, 's', 00H, 'e', 00H
	DB	't', 00H, ' ', 00H, 'i', 00H, 'n', 00H, 's', 00H, 'e', 00H, 'r'
	DB	00H, 't', 00H, ' ', 00H, 'i', 00H, 't', 00H, 'e', 00H, 'r', 00H
	DB	'a', 00H, 't', 00H, 'o', 00H, 'r', 00H, ' ', 00H, 'o', 00H, 'u'
	DB	00H, 't', 00H, 's', 00H, 'i', 00H, 'd', 00H, 'e', 00H, ' ', 00H
	DB	'r', 00H, 'a', 00H, 'n', 00H, 'g', 00H, 'e', 00H, '"', 00H, 00H
	DB	00H						; `string'
CONST	ENDS
;	COMDAT ??_C@_0CG@MOLIBF@map?1set?5insert?5iterator?5outside@
CONST	SEGMENT
??_C@_0CG@MOLIBF@map?1set?5insert?5iterator?5outside@ DB 'map/set insert '
	DB	'iterator outside range', 00H		; `string'
CONST	ENDS
;	COMDAT ??_C@_1EO@GFNCMDLA@?$AAs?$AAt?$AAd?$AA?3?$AA?3?$AA_?$AAA?$AAl?$AAl?$AAo?$AAc?$AAa?$AAt?$AAe?$AA_@
CONST	SEGMENT
??_C@_1EO@GFNCMDLA@?$AAs?$AAt?$AAd?$AA?3?$AA?3?$AA_?$AAA?$AAl?$AAl?$AAo?$AAc?$AAa?$AAt?$AAe?$AA_@ DB 's'
	DB	00H, 't', 00H, 'd', 00H, ':', 00H, ':', 00H, '_', 00H, 'A', 00H
	DB	'l', 00H, 'l', 00H, 'o', 00H, 'c', 00H, 'a', 00H, 't', 00H, 'e'
	DB	00H, '_', 00H, 'm', 00H, 'a', 00H, 'n', 00H, 'u', 00H, 'a', 00H
	DB	'l', 00H, 'l', 00H, 'y', 00H, '_', 00H, 'v', 00H, 'e', 00H, 'c'
	DB	00H, 't', 00H, 'o', 00H, 'r', 00H, '_', 00H, 'a', 00H, 'l', 00H
	DB	'i', 00H, 'g', 00H, 'n', 00H, 'e', 00H, 'd', 00H, 00H, 00H ; `string'
CONST	ENDS
;	COMDAT ??_C@_0BA@JFNIOLAK@string?5too?5long@
CONST	SEGMENT
??_C@_0BA@JFNIOLAK@string?5too?5long@ DB 'string too long', 00H ; `string'
CONST	ENDS
;	COMDAT ??_C@_1CK@NDNHPKPI@?$AA?$CC?$AAi?$AAn?$AAv?$AAa?$AAl?$AAi?$AAd?$AA?5?$AAc?$AAo?$AAm?$AAp?$AAa?$AAr@
CONST	SEGMENT
??_C@_1CK@NDNHPKPI@?$AA?$CC?$AAi?$AAn?$AAv?$AAa?$AAl?$AAi?$AAd?$AA?5?$AAc?$AAo?$AAm?$AAp?$AAa?$AAr@ DB '"'
	DB	00H, 'i', 00H, 'n', 00H, 'v', 00H, 'a', 00H, 'l', 00H, 'i', 00H
	DB	'd', 00H, ' ', 00H, 'c', 00H, 'o', 00H, 'm', 00H, 'p', 00H, 'a'
	DB	00H, 'r', 00H, 'a', 00H, 't', 00H, 'o', 00H, 'r', 00H, '"', 00H
	DB	00H, 00H					; `string'
CONST	ENDS
;	COMDAT ??_C@_1CI@JONCLBEJ@?$AAs?$AAt?$AAd?$AA?3?$AA?3?$AA_?$AAD?$AAe?$AAb?$AAu?$AAg?$AA_?$AAl?$AAt?$AA_@
CONST	SEGMENT
??_C@_1CI@JONCLBEJ@?$AAs?$AAt?$AAd?$AA?3?$AA?3?$AA_?$AAD?$AAe?$AAb?$AAu?$AAg?$AA_?$AAl?$AAt?$AA_@ DB 's'
	DB	00H, 't', 00H, 'd', 00H, ':', 00H, ':', 00H, '_', 00H, 'D', 00H
	DB	'e', 00H, 'b', 00H, 'u', 00H, 'g', 00H, '_', 00H, 'l', 00H, 't'
	DB	00H, '_', 00H, 'p', 00H, 'r', 00H, 'e', 00H, 'd', 00H, 00H, 00H ; `string'
CONST	ENDS
;	COMDAT ??_C@_0BD@FEEMDEPI@invalid?5comparator@
CONST	SEGMENT
??_C@_0BD@FEEMDEPI@invalid?5comparator@ DB 'invalid comparator', 00H ; `string'
CONST	ENDS
;	COMDAT ??_C@_1HO@GLAEGOGM@?$AA?$CI?$AA?$CI?$AAd?$AAo?$AAu?$AAb?$AAl?$AAe?$AA?$CJ?$AAm?$AAi?$AAn?$AAV?$AAa?$AAl@
CONST	SEGMENT
??_C@_1HO@GLAEGOGM@?$AA?$CI?$AA?$CI?$AAd?$AAo?$AAu?$AAb?$AAl?$AAe?$AA?$CJ?$AAm?$AAi?$AAn?$AAV?$AAa?$AAl@ DB '('
	DB	00H, '(', 00H, 'd', 00H, 'o', 00H, 'u', 00H, 'b', 00H, 'l', 00H
	DB	'e', 00H, ')', 00H, 'm', 00H, 'i', 00H, 'n', 00H, 'V', 00H, 'a'
	DB	00H, 'l', 00H, ' ', 00H, '<', 00H, ' ', 00H, '(', 00H, 'd', 00H
	DB	'o', 00H, 'u', 00H, 'b', 00H, 'l', 00H, 'e', 00H, ')', 00H, 'm'
	DB	00H, 'a', 00H, 'x', 00H, 'V', 00H, 'a', 00H, 'l', 00H, ')', 00H
	DB	' ', 00H, '&', 00H, '&', 00H, ' ', 00H, '"', 00H, '<', 00H, 'C'
	DB	00H, 'l', 00H, 'a', 00H, 'm', 00H, 'p', 00H, '>', 00H, 'M', 00H
	DB	'a', 00H, 'x', 00H, 'V', 00H, 'a', 00H, 'l', 00H, ' ', 00H, '<'
	DB	00H, ' ', 00H, 'M', 00H, 'i', 00H, 'n', 00H, 'V', 00H, 'a', 00H
	DB	'l', 00H, '!', 00H, '"', 00H, 00H, 00H	; `string'
CONST	ENDS
;	COMDAT ??_C@_0BI@OELFEEAK@?$DMClamp?$DOMaxVal?5?$DM?5MinVal?$CB@
CONST	SEGMENT
??_C@_0BI@OELFEEAK@?$DMClamp?$DOMaxVal?5?$DM?5MinVal?$CB@ DB '<Clamp>MaxV'
	DB	'al < MinVal!', 00H				; `string'
CONST	ENDS
;	COMDAT ??_C@_1NM@IMGHIKKF@?$AAs?$AAt?$AAd?$AA?3?$AA?3?$AA_?$AAT?$AAr?$AAe?$AAe?$AA_?$AAv?$AAa?$AAl?$AA?$DM@
CONST	SEGMENT
??_C@_1NM@IMGHIKKF@?$AAs?$AAt?$AAd?$AA?3?$AA?3?$AA_?$AAT?$AAr?$AAe?$AAe?$AA_?$AAv?$AAa?$AAl?$AA?$DM@ DB 's'
	DB	00H, 't', 00H, 'd', 00H, ':', 00H, ':', 00H, '_', 00H, 'T', 00H
	DB	'r', 00H, 'e', 00H, 'e', 00H, '_', 00H, 'v', 00H, 'a', 00H, 'l'
	DB	00H, '<', 00H, 's', 00H, 't', 00H, 'r', 00H, 'u', 00H, 'c', 00H
	DB	't', 00H, ' ', 00H, 's', 00H, 't', 00H, 'd', 00H, ':', 00H, ':'
	DB	00H, '_', 00H, 'T', 00H, 'r', 00H, 'e', 00H, 'e', 00H, '_', 00H
	DB	's', 00H, 'i', 00H, 'm', 00H, 'p', 00H, 'l', 00H, 'e', 00H, '_'
	DB	00H, 't', 00H, 'y', 00H, 'p', 00H, 'e', 00H, 's', 00H, '<', 00H
	DB	's', 00H, 't', 00H, 'r', 00H, 'u', 00H, 'c', 00H, 't', 00H, ' '
	DB	00H, 's', 00H, 't', 00H, 'd', 00H, ':', 00H, ':', 00H, 'p', 00H
	DB	'a', 00H, 'i', 00H, 'r', 00H, '<', 00H, 'i', 00H, 'n', 00H, 't'
	DB	00H, ' ', 00H, 'c', 00H, 'o', 00H, 'n', 00H, 's', 00H, 't', 00H
	DB	' ', 00H, ',', 00H, 'c', 00H, 'l', 00H, 'a', 00H, 's', 00H, 's'
	DB	00H, ' ', 00H, 'R', 00H, 'a', 00H, 'v', 00H, 'e', 00H, 'n', 00H
	DB	'_', 00H, 'W', 00H, 'e', 00H, 'a', 00H, 'p', 00H, 'o', 00H, 'n'
	DB	00H, ' ', 00H, '*', 00H, '>', 00H, ' ', 00H, '>', 00H, ' ', 00H
	DB	'>', 00H, ':', 00H, ':', 00H, '_', 00H, 'E', 00H, 'x', 00H, 't'
	DB	00H, 'r', 00H, 'a', 00H, 'c', 00H, 't', 00H, 00H, 00H ; `string'
CONST	ENDS
;	COMDAT ??_C@_1BEO@FIBINPCG@?$AAs?$AAt?$AAd?$AA?3?$AA?3?$AA_?$AAT?$AAr?$AAe?$AAe?$AA?$DM?$AAc?$AAl?$AAa?$AAs@
CONST	SEGMENT
??_C@_1BEO@FIBINPCG@?$AAs?$AAt?$AAd?$AA?3?$AA?3?$AA_?$AAT?$AAr?$AAe?$AAe?$AA?$DM?$AAc?$AAl?$AAa?$AAs@ DB 's'
	DB	00H, 't', 00H, 'd', 00H, ':', 00H, ':', 00H, '_', 00H, 'T', 00H
	DB	'r', 00H, 'e', 00H, 'e', 00H, '<', 00H, 'c', 00H, 'l', 00H, 'a'
	DB	00H, 's', 00H, 's', 00H, ' ', 00H, 's', 00H, 't', 00H, 'd', 00H
	DB	':', 00H, ':', 00H, '_', 00H, 'T', 00H, 'm', 00H, 'a', 00H, 'p'
	DB	00H, '_', 00H, 't', 00H, 'r', 00H, 'a', 00H, 'i', 00H, 't', 00H
	DB	's', 00H, '<', 00H, 'i', 00H, 'n', 00H, 't', 00H, ',', 00H, 'c'
	DB	00H, 'l', 00H, 'a', 00H, 's', 00H, 's', 00H, ' ', 00H, 'R', 00H
	DB	'a', 00H, 'v', 00H, 'e', 00H, 'n', 00H, '_', 00H, 'W', 00H, 'e'
	DB	00H, 'a', 00H, 'p', 00H, 'o', 00H, 'n', 00H, ' ', 00H, '*', 00H
	DB	',', 00H, 's', 00H, 't', 00H, 'r', 00H, 'u', 00H, 'c', 00H, 't'
	DB	00H, ' ', 00H, 's', 00H, 't', 00H, 'd', 00H, ':', 00H, ':', 00H
	DB	'l', 00H, 'e', 00H, 's', 00H, 's', 00H, '<', 00H, 'i', 00H, 'n'
	DB	00H, 't', 00H, '>', 00H, ',', 00H, 'c', 00H, 'l', 00H, 'a', 00H
	DB	's', 00H, 's', 00H, ' ', 00H, 's', 00H, 't', 00H, 'd', 00H, ':'
	DB	00H, ':', 00H, 'a', 00H, 'l', 00H, 'l', 00H, 'o', 00H, 'c', 00H
	DB	'a', 00H, 't', 00H, 'o', 00H, 'r', 00H, '<', 00H, 's', 00H, 't'
	DB	00H, 'r', 00H, 'u', 00H, 'c', 00H, 't', 00H, ' ', 00H, 's', 00H
	DB	't', 00H, 'd', 00H, ':', 00H, ':', 00H, 'p', 00H, 'a', 00H, 'i'
	DB	00H, 'r', 00H, '<', 00H, 'i', 00H, 'n', 00H, 't', 00H, ' ', 00H
	DB	'c', 00H, 'o', 00H, 'n', 00H, 's', 00H, 't', 00H, ' ', 00H, ','
	DB	00H, 'c', 00H, 'l', 00H, 'a', 00H, 's', 00H, 's', 00H, ' ', 00H
	DB	'R', 00H, 'a', 00H, 'v', 00H, 'e', 00H, 'n', 00H, '_', 00H, 'W'
	DB	00H, 'e', 00H, 'a', 00H, 'p', 00H, 'o', 00H, 'n', 00H, ' ', 00H
	DB	'*', 00H, '>', 00H, ' ', 00H, '>', 00H, ',', 00H, '0', 00H, '>'
	DB	00H, ' ', 00H, '>', 00H, ':', 00H, ':', 00H, 'e', 00H, 'r', 00H
	DB	'a', 00H, 's', 00H, 'e', 00H, 00H, 00H	; `string'
CONST	ENDS
;	COMDAT ??_C@_1EO@CEDAEPC@?$AA?$CC?$AAm?$AAa?$AAp?$AA?1?$AAs?$AAe?$AAt?$AA?5?$AAe?$AAr?$AAa?$AAs?$AAe?$AA?5@
CONST	SEGMENT
??_C@_1EO@CEDAEPC@?$AA?$CC?$AAm?$AAa?$AAp?$AA?1?$AAs?$AAe?$AAt?$AA?5?$AAe?$AAr?$AAa?$AAs?$AAe?$AA?5@ DB '"'
	DB	00H, 'm', 00H, 'a', 00H, 'p', 00H, '/', 00H, 's', 00H, 'e', 00H
	DB	't', 00H, ' ', 00H, 'e', 00H, 'r', 00H, 'a', 00H, 's', 00H, 'e'
	DB	00H, ' ', 00H, 'i', 00H, 't', 00H, 'e', 00H, 'r', 00H, 'a', 00H
	DB	't', 00H, 'o', 00H, 'r', 00H, ' ', 00H, 'o', 00H, 'u', 00H, 't'
	DB	00H, 's', 00H, 'i', 00H, 'd', 00H, 'e', 00H, ' ', 00H, 'r', 00H
	DB	'a', 00H, 'n', 00H, 'g', 00H, 'e', 00H, '"', 00H, 00H, 00H ; `string'
CONST	ENDS
;	COMDAT ??_C@_0CF@JILFNJOL@map?1set?5erase?5iterator?5outside?5@
CONST	SEGMENT
??_C@_0CF@JILFNJOL@map?1set?5erase?5iterator?5outside?5@ DB 'map/set eras'
	DB	'e iterator outside range', 00H		; `string'
CONST	ENDS
;	COMDAT ??_C@_1FE@NKHAAGMB@?$AA?$CC?$AAc?$AAa?$AAn?$AAn?$AAo?$AAt?$AA?5?$AAd?$AAe?$AAr?$AAe?$AAf?$AAe?$AAr@
CONST	SEGMENT
??_C@_1FE@NKHAAGMB@?$AA?$CC?$AAc?$AAa?$AAn?$AAn?$AAo?$AAt?$AA?5?$AAd?$AAe?$AAr?$AAe?$AAf?$AAe?$AAr@ DB '"'
	DB	00H, 'c', 00H, 'a', 00H, 'n', 00H, 'n', 00H, 'o', 00H, 't', 00H
	DB	' ', 00H, 'd', 00H, 'e', 00H, 'r', 00H, 'e', 00H, 'f', 00H, 'e'
	DB	00H, 'r', 00H, 'e', 00H, 'n', 00H, 'c', 00H, 'e', 00H, ' ', 00H
	DB	'e', 00H, 'n', 00H, 'd', 00H, ' ', 00H, 'm', 00H, 'a', 00H, 'p'
	DB	00H, '/', 00H, 's', 00H, 'e', 00H, 't', 00H, ' ', 00H, 'i', 00H
	DB	't', 00H, 'e', 00H, 'r', 00H, 'a', 00H, 't', 00H, 'o', 00H, 'r'
	DB	00H, '"', 00H, 00H, 00H			; `string'
CONST	ENDS
;	COMDAT ??_C@_0CI@OKFEHCEB@cannot?5dereference?5end?5map?1set?5@
CONST	SEGMENT
??_C@_0CI@OKFEHCEB@cannot?5dereference?5end?5map?1set?5@ DB 'cannot deref'
	DB	'erence end map/set iterator', 00H		; `string'
CONST	ENDS
;	COMDAT ??_C@_1HA@ILGCNILF@?$AA?$CC?$AAc?$AAa?$AAn?$AAn?$AAo?$AAt?$AA?5?$AAd?$AAe?$AAr?$AAe?$AAf?$AAe?$AAr@
CONST	SEGMENT
??_C@_1HA@ILGCNILF@?$AA?$CC?$AAc?$AAa?$AAn?$AAn?$AAo?$AAt?$AA?5?$AAd?$AAe?$AAr?$AAe?$AAf?$AAe?$AAr@ DB '"'
	DB	00H, 'c', 00H, 'a', 00H, 'n', 00H, 'n', 00H, 'o', 00H, 't', 00H
	DB	' ', 00H, 'd', 00H, 'e', 00H, 'r', 00H, 'e', 00H, 'f', 00H, 'e'
	DB	00H, 'r', 00H, 'e', 00H, 'n', 00H, 'c', 00H, 'e', 00H, ' ', 00H
	DB	'v', 00H, 'a', 00H, 'l', 00H, 'u', 00H, 'e', 00H, '-', 00H, 'i'
	DB	00H, 'n', 00H, 'i', 00H, 't', 00H, 'i', 00H, 'a', 00H, 'l', 00H
	DB	'i', 00H, 'z', 00H, 'e', 00H, 'd', 00H, ' ', 00H, 'm', 00H, 'a'
	DB	00H, 'p', 00H, '/', 00H, 's', 00H, 'e', 00H, 't', 00H, ' ', 00H
	DB	'i', 00H, 't', 00H, 'e', 00H, 'r', 00H, 'a', 00H, 't', 00H, 'o'
	DB	00H, 'r', 00H, '"', 00H, 00H, 00H		; `string'
CONST	ENDS
;	COMDAT ??_C@_1BCE@NNLBKMMP@?$AAs?$AAt?$AAd?$AA?3?$AA?3?$AA_?$AAT?$AAr?$AAe?$AAe?$AA_?$AAc?$AAo?$AAn?$AAs@
CONST	SEGMENT
??_C@_1BCE@NNLBKMMP@?$AAs?$AAt?$AAd?$AA?3?$AA?3?$AA_?$AAT?$AAr?$AAe?$AAe?$AA_?$AAc?$AAo?$AAn?$AAs@ DB 's'
	DB	00H, 't', 00H, 'd', 00H, ':', 00H, ':', 00H, '_', 00H, 'T', 00H
	DB	'r', 00H, 'e', 00H, 'e', 00H, '_', 00H, 'c', 00H, 'o', 00H, 'n'
	DB	00H, 's', 00H, 't', 00H, '_', 00H, 'i', 00H, 't', 00H, 'e', 00H
	DB	'r', 00H, 'a', 00H, 't', 00H, 'o', 00H, 'r', 00H, '<', 00H, 'c'
	DB	00H, 'l', 00H, 'a', 00H, 's', 00H, 's', 00H, ' ', 00H, 's', 00H
	DB	't', 00H, 'd', 00H, ':', 00H, ':', 00H, '_', 00H, 'T', 00H, 'r'
	DB	00H, 'e', 00H, 'e', 00H, '_', 00H, 'v', 00H, 'a', 00H, 'l', 00H
	DB	'<', 00H, 's', 00H, 't', 00H, 'r', 00H, 'u', 00H, 'c', 00H, 't'
	DB	00H, ' ', 00H, 's', 00H, 't', 00H, 'd', 00H, ':', 00H, ':', 00H
	DB	'_', 00H, 'T', 00H, 'r', 00H, 'e', 00H, 'e', 00H, '_', 00H, 's'
	DB	00H, 'i', 00H, 'm', 00H, 'p', 00H, 'l', 00H, 'e', 00H, '_', 00H
	DB	't', 00H, 'y', 00H, 'p', 00H, 'e', 00H, 's', 00H, '<', 00H, 's'
	DB	00H, 't', 00H, 'r', 00H, 'u', 00H, 'c', 00H, 't', 00H, ' ', 00H
	DB	's', 00H, 't', 00H, 'd', 00H, ':', 00H, ':', 00H, 'p', 00H, 'a'
	DB	00H, 'i', 00H, 'r', 00H, '<', 00H, 'i', 00H, 'n', 00H, 't', 00H
	DB	' ', 00H, 'c', 00H, 'o', 00H, 'n', 00H, 's', 00H, 't', 00H, ' '
	DB	00H, ',', 00H, 'c', 00H, 'l', 00H, 'a', 00H, 's', 00H, 's', 00H
	DB	' ', 00H, 'R', 00H, 'a', 00H, 'v', 00H, 'e', 00H, 'n', 00H, '_'
	DB	00H, 'W', 00H, 'e', 00H, 'a', 00H, 'p', 00H, 'o', 00H, 'n', 00H
	DB	' ', 00H, '*', 00H, '>', 00H, ' ', 00H, '>', 00H, ' ', 00H, '>'
	DB	00H, ' ', 00H, '>', 00H, ':', 00H, ':', 00H, 'o', 00H, 'p', 00H
	DB	'e', 00H, 'r', 00H, 'a', 00H, 't', 00H, 'o', 00H, 'r', 00H, ' '
	DB	00H, '*', 00H, 00H, 00H			; `string'
CONST	ENDS
;	COMDAT ??_C@_0DG@LCFNIIPB@cannot?5dereference?5value?9initia@
CONST	SEGMENT
??_C@_0DG@LCFNIIPB@cannot?5dereference?5value?9initia@ DB 'cannot derefer'
	DB	'ence value-initialized map/set iterator', 00H ; `string'
CONST	ENDS
;	COMDAT ??_C@_1BCG@IPJAOLKM@?$AAs?$AAt?$AAd?$AA?3?$AA?3?$AA_?$AAT?$AAr?$AAe?$AAe?$AA_?$AAc?$AAo?$AAn?$AAs@
CONST	SEGMENT
??_C@_1BCG@IPJAOLKM@?$AAs?$AAt?$AAd?$AA?3?$AA?3?$AA_?$AAT?$AAr?$AAe?$AAe?$AA_?$AAc?$AAo?$AAn?$AAs@ DB 's'
	DB	00H, 't', 00H, 'd', 00H, ':', 00H, ':', 00H, '_', 00H, 'T', 00H
	DB	'r', 00H, 'e', 00H, 'e', 00H, '_', 00H, 'c', 00H, 'o', 00H, 'n'
	DB	00H, 's', 00H, 't', 00H, '_', 00H, 'i', 00H, 't', 00H, 'e', 00H
	DB	'r', 00H, 'a', 00H, 't', 00H, 'o', 00H, 'r', 00H, '<', 00H, 'c'
	DB	00H, 'l', 00H, 'a', 00H, 's', 00H, 's', 00H, ' ', 00H, 's', 00H
	DB	't', 00H, 'd', 00H, ':', 00H, ':', 00H, '_', 00H, 'T', 00H, 'r'
	DB	00H, 'e', 00H, 'e', 00H, '_', 00H, 'v', 00H, 'a', 00H, 'l', 00H
	DB	'<', 00H, 's', 00H, 't', 00H, 'r', 00H, 'u', 00H, 'c', 00H, 't'
	DB	00H, ' ', 00H, 's', 00H, 't', 00H, 'd', 00H, ':', 00H, ':', 00H
	DB	'_', 00H, 'T', 00H, 'r', 00H, 'e', 00H, 'e', 00H, '_', 00H, 's'
	DB	00H, 'i', 00H, 'm', 00H, 'p', 00H, 'l', 00H, 'e', 00H, '_', 00H
	DB	't', 00H, 'y', 00H, 'p', 00H, 'e', 00H, 's', 00H, '<', 00H, 's'
	DB	00H, 't', 00H, 'r', 00H, 'u', 00H, 'c', 00H, 't', 00H, ' ', 00H
	DB	's', 00H, 't', 00H, 'd', 00H, ':', 00H, ':', 00H, 'p', 00H, 'a'
	DB	00H, 'i', 00H, 'r', 00H, '<', 00H, 'i', 00H, 'n', 00H, 't', 00H
	DB	' ', 00H, 'c', 00H, 'o', 00H, 'n', 00H, 's', 00H, 't', 00H, ' '
	DB	00H, ',', 00H, 'c', 00H, 'l', 00H, 'a', 00H, 's', 00H, 's', 00H
	DB	' ', 00H, 'R', 00H, 'a', 00H, 'v', 00H, 'e', 00H, 'n', 00H, '_'
	DB	00H, 'W', 00H, 'e', 00H, 'a', 00H, 'p', 00H, 'o', 00H, 'n', 00H
	DB	' ', 00H, '*', 00H, '>', 00H, ' ', 00H, '>', 00H, ' ', 00H, '>'
	DB	00H, ' ', 00H, '>', 00H, ':', 00H, ':', 00H, 'o', 00H, 'p', 00H
	DB	'e', 00H, 'r', 00H, 'a', 00H, 't', 00H, 'o', 00H, 'r', 00H, ' '
	DB	00H, '=', 00H, '=', 00H, 00H, 00H		; `string'
CONST	ENDS
;	COMDAT ??_C@_1EC@JLIDLCDH@?$AA?$CC?$AAm?$AAa?$AAp?$AA?1?$AAs?$AAe?$AAt?$AA?5?$AAi?$AAt?$AAe?$AAr?$AAa?$AAt@
CONST	SEGMENT
??_C@_1EC@JLIDLCDH@?$AA?$CC?$AAm?$AAa?$AAp?$AA?1?$AAs?$AAe?$AAt?$AA?5?$AAi?$AAt?$AAe?$AAr?$AAa?$AAt@ DB '"'
	DB	00H, 'm', 00H, 'a', 00H, 'p', 00H, '/', 00H, 's', 00H, 'e', 00H
	DB	't', 00H, ' ', 00H, 'i', 00H, 't', 00H, 'e', 00H, 'r', 00H, 'a'
	DB	00H, 't', 00H, 'o', 00H, 'r', 00H, 's', 00H, ' ', 00H, 'i', 00H
	DB	'n', 00H, 'c', 00H, 'o', 00H, 'm', 00H, 'p', 00H, 'a', 00H, 't'
	DB	00H, 'i', 00H, 'b', 00H, 'l', 00H, 'e', 00H, '"', 00H, 00H, 00H ; `string'
CONST	ENDS
;	COMDAT ??_C@_0BP@OLDKBHLM@map?1set?5iterators?5incompatible@
CONST	SEGMENT
??_C@_0BP@OLDKBHLM@map?1set?5iterators?5incompatible@ DB 'map/set iterato'
	DB	'rs incompatible', 00H			; `string'
CONST	ENDS
;	COMDAT ??_C@_1EA@OADAPGGK@?$AA?$CC?$AAs?$AAt?$AAr?$AAi?$AAn?$AAg?$AA?5?$AAs?$AAu?$AAb?$AAs?$AAc?$AAr?$AAi@
CONST	SEGMENT
??_C@_1EA@OADAPGGK@?$AA?$CC?$AAs?$AAt?$AAr?$AAi?$AAn?$AAg?$AA?5?$AAs?$AAu?$AAb?$AAs?$AAc?$AAr?$AAi@ DB '"'
	DB	00H, 's', 00H, 't', 00H, 'r', 00H, 'i', 00H, 'n', 00H, 'g', 00H
	DB	' ', 00H, 's', 00H, 'u', 00H, 'b', 00H, 's', 00H, 'c', 00H, 'r'
	DB	00H, 'i', 00H, 'p', 00H, 't', 00H, ' ', 00H, 'o', 00H, 'u', 00H
	DB	't', 00H, ' ', 00H, 'o', 00H, 'f', 00H, ' ', 00H, 'r', 00H, 'a'
	DB	00H, 'n', 00H, 'g', 00H, 'e', 00H, '"', 00H, 00H, 00H ; `string'
CONST	ENDS
;	COMDAT ??_C@_1LO@NPPEKPAI@?$AAs?$AAt?$AAd?$AA?3?$AA?3?$AAb?$AAa?$AAs?$AAi?$AAc?$AA_?$AAs?$AAt?$AAr?$AAi@
CONST	SEGMENT
??_C@_1LO@NPPEKPAI@?$AAs?$AAt?$AAd?$AA?3?$AA?3?$AAb?$AAa?$AAs?$AAi?$AAc?$AA_?$AAs?$AAt?$AAr?$AAi@ DB 's'
	DB	00H, 't', 00H, 'd', 00H, ':', 00H, ':', 00H, 'b', 00H, 'a', 00H
	DB	's', 00H, 'i', 00H, 'c', 00H, '_', 00H, 's', 00H, 't', 00H, 'r'
	DB	00H, 'i', 00H, 'n', 00H, 'g', 00H, '<', 00H, 'c', 00H, 'h', 00H
	DB	'a', 00H, 'r', 00H, ',', 00H, 's', 00H, 't', 00H, 'r', 00H, 'u'
	DB	00H, 'c', 00H, 't', 00H, ' ', 00H, 's', 00H, 't', 00H, 'd', 00H
	DB	':', 00H, ':', 00H, 'c', 00H, 'h', 00H, 'a', 00H, 'r', 00H, '_'
	DB	00H, 't', 00H, 'r', 00H, 'a', 00H, 'i', 00H, 't', 00H, 's', 00H
	DB	'<', 00H, 'c', 00H, 'h', 00H, 'a', 00H, 'r', 00H, '>', 00H, ','
	DB	00H, 'c', 00H, 'l', 00H, 'a', 00H, 's', 00H, 's', 00H, ' ', 00H
	DB	's', 00H, 't', 00H, 'd', 00H, ':', 00H, ':', 00H, 'a', 00H, 'l'
	DB	00H, 'l', 00H, 'o', 00H, 'c', 00H, 'a', 00H, 't', 00H, 'o', 00H
	DB	'r', 00H, '<', 00H, 'c', 00H, 'h', 00H, 'a', 00H, 'r', 00H, '>'
	DB	00H, ' ', 00H, '>', 00H, ':', 00H, ':', 00H, 'o', 00H, 'p', 00H
	DB	'e', 00H, 'r', 00H, 'a', 00H, 't', 00H, 'o', 00H, 'r', 00H, ' '
	DB	00H, '[', 00H, ']', 00H, 00H, 00H		; `string'
CONST	ENDS
;	COMDAT ??_C@_1NA@JLAKACOO@?$AAc?$AA?3?$AA?2?$AAp?$AAr?$AAo?$AAg?$AAr?$AAa?$AAm?$AA?5?$AAf?$AAi?$AAl?$AAe@
CONST	SEGMENT
??_C@_1NA@JLAKACOO@?$AAc?$AA?3?$AA?2?$AAp?$AAr?$AAo?$AAg?$AAr?$AAa?$AAm?$AA?5?$AAf?$AAi?$AAl?$AAe@ DB 'c'
	DB	00H, ':', 00H, '\', 00H, 'p', 00H, 'r', 00H, 'o', 00H, 'g', 00H
	DB	'r', 00H, 'a', 00H, 'm', 00H, ' ', 00H, 'f', 00H, 'i', 00H, 'l'
	DB	00H, 'e', 00H, 's', 00H, ' ', 00H, '(', 00H, 'x', 00H, '8', 00H
	DB	'6', 00H, ')', 00H, '\', 00H, 'm', 00H, 'i', 00H, 'c', 00H, 'r'
	DB	00H, 'o', 00H, 's', 00H, 'o', 00H, 'f', 00H, 't', 00H, ' ', 00H
	DB	'v', 00H, 'i', 00H, 's', 00H, 'u', 00H, 'a', 00H, 'l', 00H, ' '
	DB	00H, 's', 00H, 't', 00H, 'u', 00H, 'd', 00H, 'i', 00H, 'o', 00H
	DB	'\', 00H, '2', 00H, '0', 00H, '1', 00H, '7', 00H, '\', 00H, 'c'
	DB	00H, 'o', 00H, 'm', 00H, 'm', 00H, 'u', 00H, 'n', 00H, 'i', 00H
	DB	't', 00H, 'y', 00H, '\', 00H, 'v', 00H, 'c', 00H, '\', 00H, 't'
	DB	00H, 'o', 00H, 'o', 00H, 'l', 00H, 's', 00H, '\', 00H, 'm', 00H
	DB	's', 00H, 'v', 00H, 'c', 00H, '\', 00H, '1', 00H, '4', 00H, '.'
	DB	00H, '1', 00H, '5', 00H, '.', 00H, '2', 00H, '6', 00H, '7', 00H
	DB	'2', 00H, '6', 00H, '\', 00H, 'i', 00H, 'n', 00H, 'c', 00H, 'l'
	DB	00H, 'u', 00H, 'd', 00H, 'e', 00H, '\', 00H, 'x', 00H, 's', 00H
	DB	't', 00H, 'r', 00H, 'i', 00H, 'n', 00H, 'g', 00H, 00H, 00H ; `string'
CONST	ENDS
;	COMDAT ??_C@_0GI@CJGNOLDA@c?3?2program?5files?5?$CIx86?$CJ?2microsof@
CONST	SEGMENT
??_C@_0GI@CJGNOLDA@c?3?2program?5files?5?$CIx86?$CJ?2microsof@ DB 'c:\pro'
	DB	'gram files (x86)\microsoft visual studio\2017\community\vc\to'
	DB	'ols\msvc\14.15.26726\include\xstring', 00H	; `string'
CONST	ENDS
;	COMDAT ??_C@_0BO@LFGPDMIB@string?5subscript?5out?5of?5range@
CONST	SEGMENT
??_C@_0BO@LFGPDMIB@string?5subscript?5out?5of?5range@ DB 'string subscrip'
	DB	't out of range', 00H			; `string'
CONST	ENDS
;	COMDAT ??_C@_1FA@KLFCDGNE@?$AA?$CC?$AAc?$AAa?$AAn?$AAn?$AAo?$AAt?$AA?5?$AAi?$AAn?$AAc?$AAr?$AAe?$AAm?$AAe@
CONST	SEGMENT
??_C@_1FA@KLFCDGNE@?$AA?$CC?$AAc?$AAa?$AAn?$AAn?$AAo?$AAt?$AA?5?$AAi?$AAn?$AAc?$AAr?$AAe?$AAm?$AAe@ DB '"'
	DB	00H, 'c', 00H, 'a', 00H, 'n', 00H, 'n', 00H, 'o', 00H, 't', 00H
	DB	' ', 00H, 'i', 00H, 'n', 00H, 'c', 00H, 'r', 00H, 'e', 00H, 'm'
	DB	00H, 'e', 00H, 'n', 00H, 't', 00H, ' ', 00H, 'e', 00H, 'n', 00H
	DB	'd', 00H, ' ', 00H, 'm', 00H, 'a', 00H, 'p', 00H, '/', 00H, 's'
	DB	00H, 'e', 00H, 't', 00H, ' ', 00H, 'i', 00H, 't', 00H, 'e', 00H
	DB	'r', 00H, 'a', 00H, 't', 00H, 'o', 00H, 'r', 00H, '"', 00H, 00H
	DB	00H						; `string'
CONST	ENDS
;	COMDAT ??_C@_0CG@NLEHEOHN@cannot?5increment?5end?5map?1set?5it@
CONST	SEGMENT
??_C@_0CG@NLEHEOHN@cannot?5increment?5end?5map?1set?5it@ DB 'cannot incre'
	DB	'ment end map/set iterator', 00H		; `string'
CONST	ENDS
;	COMDAT ??_C@_1GM@BJMCGEGI@?$AA?$CC?$AAc?$AAa?$AAn?$AAn?$AAo?$AAt?$AA?5?$AAi?$AAn?$AAc?$AAr?$AAe?$AAm?$AAe@
CONST	SEGMENT
??_C@_1GM@BJMCGEGI@?$AA?$CC?$AAc?$AAa?$AAn?$AAn?$AAo?$AAt?$AA?5?$AAi?$AAn?$AAc?$AAr?$AAe?$AAm?$AAe@ DB '"'
	DB	00H, 'c', 00H, 'a', 00H, 'n', 00H, 'n', 00H, 'o', 00H, 't', 00H
	DB	' ', 00H, 'i', 00H, 'n', 00H, 'c', 00H, 'r', 00H, 'e', 00H, 'm'
	DB	00H, 'e', 00H, 'n', 00H, 't', 00H, ' ', 00H, 'v', 00H, 'a', 00H
	DB	'l', 00H, 'u', 00H, 'e', 00H, '-', 00H, 'i', 00H, 'n', 00H, 'i'
	DB	00H, 't', 00H, 'i', 00H, 'a', 00H, 'l', 00H, 'i', 00H, 'z', 00H
	DB	'e', 00H, 'd', 00H, ' ', 00H, 'm', 00H, 'a', 00H, 'p', 00H, '/'
	DB	00H, 's', 00H, 'e', 00H, 't', 00H, ' ', 00H, 'i', 00H, 't', 00H
	DB	'e', 00H, 'r', 00H, 'a', 00H, 't', 00H, 'o', 00H, 'r', 00H, '"'
	DB	00H, 00H, 00H				; `string'
CONST	ENDS
;	COMDAT ??_C@_1BCG@CPGNACGJ@?$AAs?$AAt?$AAd?$AA?3?$AA?3?$AA_?$AAT?$AAr?$AAe?$AAe?$AA_?$AAc?$AAo?$AAn?$AAs@
CONST	SEGMENT
??_C@_1BCG@CPGNACGJ@?$AAs?$AAt?$AAd?$AA?3?$AA?3?$AA_?$AAT?$AAr?$AAe?$AAe?$AA_?$AAc?$AAo?$AAn?$AAs@ DB 's'
	DB	00H, 't', 00H, 'd', 00H, ':', 00H, ':', 00H, '_', 00H, 'T', 00H
	DB	'r', 00H, 'e', 00H, 'e', 00H, '_', 00H, 'c', 00H, 'o', 00H, 'n'
	DB	00H, 's', 00H, 't', 00H, '_', 00H, 'i', 00H, 't', 00H, 'e', 00H
	DB	'r', 00H, 'a', 00H, 't', 00H, 'o', 00H, 'r', 00H, '<', 00H, 'c'
	DB	00H, 'l', 00H, 'a', 00H, 's', 00H, 's', 00H, ' ', 00H, 's', 00H
	DB	't', 00H, 'd', 00H, ':', 00H, ':', 00H, '_', 00H, 'T', 00H, 'r'
	DB	00H, 'e', 00H, 'e', 00H, '_', 00H, 'v', 00H, 'a', 00H, 'l', 00H
	DB	'<', 00H, 's', 00H, 't', 00H, 'r', 00H, 'u', 00H, 'c', 00H, 't'
	DB	00H, ' ', 00H, 's', 00H, 't', 00H, 'd', 00H, ':', 00H, ':', 00H
	DB	'_', 00H, 'T', 00H, 'r', 00H, 'e', 00H, 'e', 00H, '_', 00H, 's'
	DB	00H, 'i', 00H, 'm', 00H, 'p', 00H, 'l', 00H, 'e', 00H, '_', 00H
	DB	't', 00H, 'y', 00H, 'p', 00H, 'e', 00H, 's', 00H, '<', 00H, 's'
	DB	00H, 't', 00H, 'r', 00H, 'u', 00H, 'c', 00H, 't', 00H, ' ', 00H
	DB	's', 00H, 't', 00H, 'd', 00H, ':', 00H, ':', 00H, 'p', 00H, 'a'
	DB	00H, 'i', 00H, 'r', 00H, '<', 00H, 'i', 00H, 'n', 00H, 't', 00H
	DB	' ', 00H, 'c', 00H, 'o', 00H, 'n', 00H, 's', 00H, 't', 00H, ' '
	DB	00H, ',', 00H, 'c', 00H, 'l', 00H, 'a', 00H, 's', 00H, 's', 00H
	DB	' ', 00H, 'R', 00H, 'a', 00H, 'v', 00H, 'e', 00H, 'n', 00H, '_'
	DB	00H, 'W', 00H, 'e', 00H, 'a', 00H, 'p', 00H, 'o', 00H, 'n', 00H
	DB	' ', 00H, '*', 00H, '>', 00H, ' ', 00H, '>', 00H, ' ', 00H, '>'
	DB	00H, ' ', 00H, '>', 00H, ':', 00H, ':', 00H, 'o', 00H, 'p', 00H
	DB	'e', 00H, 'r', 00H, 'a', 00H, 't', 00H, 'o', 00H, 'r', 00H, ' '
	DB	00H, '+', 00H, '+', 00H, 00H, 00H		; `string'
CONST	ENDS
;	COMDAT ??_C@_1MM@ECCNBGLC@?$AAc?$AA?3?$AA?2?$AAp?$AAr?$AAo?$AAg?$AAr?$AAa?$AAm?$AA?5?$AAf?$AAi?$AAl?$AAe@
CONST	SEGMENT
??_C@_1MM@ECCNBGLC@?$AAc?$AA?3?$AA?2?$AAp?$AAr?$AAo?$AAg?$AAr?$AAa?$AAm?$AA?5?$AAf?$AAi?$AAl?$AAe@ DB 'c'
	DB	00H, ':', 00H, '\', 00H, 'p', 00H, 'r', 00H, 'o', 00H, 'g', 00H
	DB	'r', 00H, 'a', 00H, 'm', 00H, ' ', 00H, 'f', 00H, 'i', 00H, 'l'
	DB	00H, 'e', 00H, 's', 00H, ' ', 00H, '(', 00H, 'x', 00H, '8', 00H
	DB	'6', 00H, ')', 00H, '\', 00H, 'm', 00H, 'i', 00H, 'c', 00H, 'r'
	DB	00H, 'o', 00H, 's', 00H, 'o', 00H, 'f', 00H, 't', 00H, ' ', 00H
	DB	'v', 00H, 'i', 00H, 's', 00H, 'u', 00H, 'a', 00H, 'l', 00H, ' '
	DB	00H, 's', 00H, 't', 00H, 'u', 00H, 'd', 00H, 'i', 00H, 'o', 00H
	DB	'\', 00H, '2', 00H, '0', 00H, '1', 00H, '7', 00H, '\', 00H, 'c'
	DB	00H, 'o', 00H, 'm', 00H, 'm', 00H, 'u', 00H, 'n', 00H, 'i', 00H
	DB	't', 00H, 'y', 00H, '\', 00H, 'v', 00H, 'c', 00H, '\', 00H, 't'
	DB	00H, 'o', 00H, 'o', 00H, 'l', 00H, 's', 00H, '\', 00H, 'm', 00H
	DB	's', 00H, 'v', 00H, 'c', 00H, '\', 00H, '1', 00H, '4', 00H, '.'
	DB	00H, '1', 00H, '5', 00H, '.', 00H, '2', 00H, '6', 00H, '7', 00H
	DB	'2', 00H, '6', 00H, '\', 00H, 'i', 00H, 'n', 00H, 'c', 00H, 'l'
	DB	00H, 'u', 00H, 'd', 00H, 'e', 00H, '\', 00H, 'x', 00H, 't', 00H
	DB	'r', 00H, 'e', 00H, 'e', 00H, 00H, 00H	; `string'
CONST	ENDS
;	COMDAT ??_C@_0GG@KBILHLPB@c?3?2program?5files?5?$CIx86?$CJ?2microsof@
CONST	SEGMENT
??_C@_0GG@KBILHLPB@c?3?2program?5files?5?$CIx86?$CJ?2microsof@ DB 'c:\pro'
	DB	'gram files (x86)\microsoft visual studio\2017\community\vc\to'
	DB	'ols\msvc\14.15.26726\include\xtree', 00H	; `string'
CONST	ENDS
;	COMDAT ??_C@_0DE@DMNPKCGM@cannot?5increment?5value?9initiali@
CONST	SEGMENT
??_C@_0DE@DMNPKCGM@cannot?5increment?5value?9initiali@ DB 'cannot increme'
	DB	'nt value-initialized map/set iterator', 00H	; `string'
CONST	ENDS
;	COMDAT ??_C@_0BE@DMMNKACB@UNKNOWN?5OBJECT?5TYPE@
CONST	SEGMENT
??_C@_0BE@DMMNKACB@UNKNOWN?5OBJECT?5TYPE@ DB 'UNKNOWN OBJECT TYPE', 00H ; `string'
CONST	ENDS
;	COMDAT ??_C@_0N@FKJMDFJC@door_trigger@
CONST	SEGMENT
??_C@_0N@FKJMDFJC@door_trigger@ DB 'door_trigger', 00H	; `string'
CONST	ENDS
;	COMDAT ??_C@_0N@POGFGIIH@sliding_door@
CONST	SEGMENT
??_C@_0N@POGFGIIH@sliding_door@ DB 'sliding_door', 00H	; `string'
CONST	ENDS
;	COMDAT ??_C@_03EHEMCPIE@bot@
CONST	SEGMENT
??_C@_03EHEMCPIE@bot@ DB 'bot', 00H			; `string'
CONST	ENDS
;	COMDAT ??_C@_05BIPCPIBA@knife@
CONST	SEGMENT
??_C@_05BIPCPIBA@knife@ DB 'knife', 00H			; `string'
CONST	ENDS
;	COMDAT ??_C@_07PKBOGMMP@shotgun@
CONST	SEGMENT
??_C@_07PKBOGMMP@shotgun@ DB 'shotgun', 00H		; `string'
CONST	ENDS
;	COMDAT ??_C@_0BA@KLAKAPPA@rocket_launcher@
CONST	SEGMENT
??_C@_0BA@KLAKAPPA@rocket_launcher@ DB 'rocket_launcher', 00H ; `string'
CONST	ENDS
;	COMDAT ??_C@_07HHOBKAAD@Blaster@
CONST	SEGMENT
??_C@_07HHOBKAAD@Blaster@ DB 'Blaster', 00H		; `string'
CONST	ENDS
;	COMDAT ??_C@_07NMJDHEIK@Railgun@
CONST	SEGMENT
??_C@_07NMJDHEIK@Railgun@ DB 'Railgun', 00H		; `string'
CONST	ENDS
;	COMDAT ??_C@_0M@MJAOKDOC@Spawn?5Point@
CONST	SEGMENT
??_C@_0M@MJAOKDOC@Spawn?5Point@ DB 'Spawn Point', 00H	; `string'
CONST	ENDS
;	COMDAT ??_C@_06GGDALCBD@Health@
CONST	SEGMENT
??_C@_06GGDALCBD@Health@ DB 'Health', 00H		; `string'
CONST	ENDS
;	COMDAT ??_C@_08BDKGKOJG@Obstacle@
CONST	SEGMENT
??_C@_08BDKGKOJG@Obstacle@ DB 'Obstacle', 00H		; `string'
CONST	ENDS
;	COMDAT ??_C@_08DFAAPNDP@Waypoint@
CONST	SEGMENT
??_C@_08DFAAPNDP@Waypoint@ DB 'Waypoint', 00H		; `string'
CONST	ENDS
;	COMDAT ??_C@_04LIPBJNLA@Wall@
CONST	SEGMENT
??_C@_04LIPBJNLA@Wall@ DB 'Wall', 00H			; `string'
CONST	ENDS
;	COMDAT ??_C@_1KK@CPIJEJPB@?$AAc?$AA?3?$AA?2?$AAu?$AAs?$AAe?$AAr?$AAs?$AA?2?$AAu?$AAt?$AAi?$AAl?$AAi?$AAs@
CONST	SEGMENT
??_C@_1KK@CPIJEJPB@?$AAc?$AA?3?$AA?2?$AAu?$AAs?$AAe?$AAr?$AAs?$AA?2?$AAu?$AAt?$AAi?$AAl?$AAi?$AAs@ DB 'c'
	DB	00H, ':', 00H, '\', 00H, 'u', 00H, 's', 00H, 'e', 00H, 'r', 00H
	DB	's', 00H, '\', 00H, 'u', 00H, 't', 00H, 'i', 00H, 'l', 00H, 'i'
	DB	00H, 's', 00H, 'a', 00H, 't', 00H, 'e', 00H, 'u', 00H, 'r', 00H
	DB	'\', 00H, 'd', 00H, 'o', 00H, 'c', 00H, 'u', 00H, 'm', 00H, 'e'
	DB	00H, 'n', 00H, 't', 00H, 's', 00H, '\', 00H, 'g', 00H, 'i', 00H
	DB	't', 00H, 'h', 00H, 'u', 00H, 'b', 00H, '\', 00H, '8', 00H, 'i'
	DB	00H, 'a', 00H, 'r', 00H, '1', 00H, '2', 00H, '5', 00H, '-', 00H
	DB	'p', 00H, 'r', 00H, 'o', 00H, 'j', 00H, 'e', 00H, 't', 00H, 'r'
	DB	00H, 'a', 00H, 'v', 00H, 'e', 00H, 'n', 00H, '\', 00H, 'v', 00H
	DB	's', 00H, '2', 00H, '0', 00H, '1', 00H, '5', 00H, '\', 00H, 'c'
	DB	00H, 'o', 00H, 'm', 00H, 'm', 00H, 'o', 00H, 'n', 00H, '\', 00H
	DB	'm', 00H, 'i', 00H, 's', 00H, 'c', 00H, '\', 00H, 'u', 00H, 't'
	DB	00H, 'i', 00H, 'l', 00H, 's', 00H, '.', 00H, 'h', 00H, 00H, 00H ; `string'
CONST	ENDS
;	COMDAT ??_C@_02NJPGOMH@?$CFf@
CONST	SEGMENT
??_C@_02NJPGOMH@?$CFf@ DB '%f', 00H			; `string'
CONST	ENDS
;	COMDAT ??_C@_1EK@NIFDJFDG@?$AAs?$AAt?$AAd?$AA?3?$AA?3?$AA_?$AAA?$AAd?$AAj?$AAu?$AAs?$AAt?$AA_?$AAm?$AAa@
CONST	SEGMENT
??_C@_1EK@NIFDJFDG@?$AAs?$AAt?$AAd?$AA?3?$AA?3?$AA_?$AAA?$AAd?$AAj?$AAu?$AAs?$AAt?$AA_?$AAm?$AAa@ DB 's'
	DB	00H, 't', 00H, 'd', 00H, ':', 00H, ':', 00H, '_', 00H, 'A', 00H
	DB	'd', 00H, 'j', 00H, 'u', 00H, 's', 00H, 't', 00H, '_', 00H, 'm'
	DB	00H, 'a', 00H, 'n', 00H, 'u', 00H, 'a', 00H, 'l', 00H, 'l', 00H
	DB	'y', 00H, '_', 00H, 'v', 00H, 'e', 00H, 'c', 00H, 't', 00H, 'o'
	DB	00H, 'r', 00H, '_', 00H, 'a', 00H, 'l', 00H, 'i', 00H, 'g', 00H
	DB	'n', 00H, 'e', 00H, 'd', 00H, 00H, 00H	; `string'
CONST	ENDS
;	COMDAT ??_C@_1NC@ICJKIMIP@?$AAc?$AA?3?$AA?2?$AAp?$AAr?$AAo?$AAg?$AAr?$AAa?$AAm?$AA?5?$AAf?$AAi?$AAl?$AAe@
CONST	SEGMENT
??_C@_1NC@ICJKIMIP@?$AAc?$AA?3?$AA?2?$AAp?$AAr?$AAo?$AAg?$AAr?$AAa?$AAm?$AA?5?$AAf?$AAi?$AAl?$AAe@ DB 'c'
	DB	00H, ':', 00H, '\', 00H, 'p', 00H, 'r', 00H, 'o', 00H, 'g', 00H
	DB	'r', 00H, 'a', 00H, 'm', 00H, ' ', 00H, 'f', 00H, 'i', 00H, 'l'
	DB	00H, 'e', 00H, 's', 00H, ' ', 00H, '(', 00H, 'x', 00H, '8', 00H
	DB	'6', 00H, ')', 00H, '\', 00H, 'm', 00H, 'i', 00H, 'c', 00H, 'r'
	DB	00H, 'o', 00H, 's', 00H, 'o', 00H, 'f', 00H, 't', 00H, ' ', 00H
	DB	'v', 00H, 'i', 00H, 's', 00H, 'u', 00H, 'a', 00H, 'l', 00H, ' '
	DB	00H, 's', 00H, 't', 00H, 'u', 00H, 'd', 00H, 'i', 00H, 'o', 00H
	DB	'\', 00H, '2', 00H, '0', 00H, '1', 00H, '7', 00H, '\', 00H, 'c'
	DB	00H, 'o', 00H, 'm', 00H, 'm', 00H, 'u', 00H, 'n', 00H, 'i', 00H
	DB	't', 00H, 'y', 00H, '\', 00H, 'v', 00H, 'c', 00H, '\', 00H, 't'
	DB	00H, 'o', 00H, 'o', 00H, 'l', 00H, 's', 00H, '\', 00H, 'm', 00H
	DB	's', 00H, 'v', 00H, 'c', 00H, '\', 00H, '1', 00H, '4', 00H, '.'
	DB	00H, '1', 00H, '5', 00H, '.', 00H, '2', 00H, '6', 00H, '7', 00H
	DB	'2', 00H, '6', 00H, '\', 00H, 'i', 00H, 'n', 00H, 'c', 00H, 'l'
	DB	00H, 'u', 00H, 'd', 00H, 'e', 00H, '\', 00H, 'x', 00H, 'm', 00H
	DB	'e', 00H, 'm', 00H, 'o', 00H, 'r', 00H, 'y', 00H, '0', 00H, 00H
	DB	00H						; `string'
CONST	ENDS
;	COMDAT ??_C@_0GJ@CAJJPMGE@c?3?2program?5files?5?$CIx86?$CJ?2microsof@
CONST	SEGMENT
??_C@_0GJ@CAJJPMGE@c?3?2program?5files?5?$CIx86?$CJ?2microsof@ DB 'c:\pro'
	DB	'gram files (x86)\microsoft visual studio\2017\community\vc\to'
	DB	'ols\msvc\14.15.26726\include\xmemory0', 00H	; `string'
CONST	ENDS
;	COMDAT ??_C@_1DG@PLBPCAEM@?$AA?$CC?$AAI?$AAT?$AAE?$AAR?$AAA?$AAT?$AAO?$AAR?$AA?5?$AAL?$AAI?$AAS?$AAT?$AA?5@
CONST	SEGMENT
??_C@_1DG@PLBPCAEM@?$AA?$CC?$AAI?$AAT?$AAE?$AAR?$AAA?$AAT?$AAO?$AAR?$AA?5?$AAL?$AAI?$AAS?$AAT?$AA?5@ DB '"'
	DB	00H, 'I', 00H, 'T', 00H, 'E', 00H, 'R', 00H, 'A', 00H, 'T', 00H
	DB	'O', 00H, 'R', 00H, ' ', 00H, 'L', 00H, 'I', 00H, 'S', 00H, 'T'
	DB	00H, ' ', 00H, 'C', 00H, 'O', 00H, 'R', 00H, 'R', 00H, 'U', 00H
	DB	'P', 00H, 'T', 00H, 'E', 00H, 'D', 00H, '!', 00H, '"', 00H, 00H
	DB	00H						; `string'
CONST	ENDS
;	COMDAT ??_C@_1EE@KLDMFDFL@?$AAs?$AAt?$AAd?$AA?3?$AA?3?$AA_?$AAI?$AAt?$AAe?$AAr?$AAa?$AAt?$AAo?$AAr?$AA_@
CONST	SEGMENT
??_C@_1EE@KLDMFDFL@?$AAs?$AAt?$AAd?$AA?3?$AA?3?$AA_?$AAI?$AAt?$AAe?$AAr?$AAa?$AAt?$AAo?$AAr?$AA_@ DB 's'
	DB	00H, 't', 00H, 'd', 00H, ':', 00H, ':', 00H, '_', 00H, 'I', 00H
	DB	't', 00H, 'e', 00H, 'r', 00H, 'a', 00H, 't', 00H, 'o', 00H, 'r'
	DB	00H, '_', 00H, 'b', 00H, 'a', 00H, 's', 00H, 'e', 00H, '1', 00H
	DB	'2', 00H, ':', 00H, ':', 00H, '_', 00H, 'O', 00H, 'r', 00H, 'p'
	DB	00H, 'h', 00H, 'a', 00H, 'n', 00H, '_', 00H, 'm', 00H, 'e', 00H
	DB	00H, 00H					; `string'
CONST	ENDS
;	COMDAT ??_C@_1NC@HPHBFJCM@?$AAc?$AA?3?$AA?2?$AAp?$AAr?$AAo?$AAg?$AAr?$AAa?$AAm?$AA?5?$AAf?$AAi?$AAl?$AAe@
CONST	SEGMENT
??_C@_1NC@HPHBFJCM@?$AAc?$AA?3?$AA?2?$AAp?$AAr?$AAo?$AAg?$AAr?$AAa?$AAm?$AA?5?$AAf?$AAi?$AAl?$AAe@ DB 'c'
	DB	00H, ':', 00H, '\', 00H, 'p', 00H, 'r', 00H, 'o', 00H, 'g', 00H
	DB	'r', 00H, 'a', 00H, 'm', 00H, ' ', 00H, 'f', 00H, 'i', 00H, 'l'
	DB	00H, 'e', 00H, 's', 00H, ' ', 00H, '(', 00H, 'x', 00H, '8', 00H
	DB	'6', 00H, ')', 00H, '\', 00H, 'm', 00H, 'i', 00H, 'c', 00H, 'r'
	DB	00H, 'o', 00H, 's', 00H, 'o', 00H, 'f', 00H, 't', 00H, ' ', 00H
	DB	'v', 00H, 'i', 00H, 's', 00H, 'u', 00H, 'a', 00H, 'l', 00H, ' '
	DB	00H, 's', 00H, 't', 00H, 'u', 00H, 'd', 00H, 'i', 00H, 'o', 00H
	DB	'\', 00H, '2', 00H, '0', 00H, '1', 00H, '7', 00H, '\', 00H, 'c'
	DB	00H, 'o', 00H, 'm', 00H, 'm', 00H, 'u', 00H, 'n', 00H, 'i', 00H
	DB	't', 00H, 'y', 00H, '\', 00H, 'v', 00H, 'c', 00H, '\', 00H, 't'
	DB	00H, 'o', 00H, 'o', 00H, 'l', 00H, 's', 00H, '\', 00H, 'm', 00H
	DB	's', 00H, 'v', 00H, 'c', 00H, '\', 00H, '1', 00H, '4', 00H, '.'
	DB	00H, '1', 00H, '5', 00H, '.', 00H, '2', 00H, '6', 00H, '7', 00H
	DB	'2', 00H, '6', 00H, '\', 00H, 'i', 00H, 'n', 00H, 'c', 00H, 'l'
	DB	00H, 'u', 00H, 'd', 00H, 'e', 00H, '\', 00H, 'x', 00H, 'u', 00H
	DB	't', 00H, 'i', 00H, 'l', 00H, 'i', 00H, 't', 00H, 'y', 00H, 00H
	DB	00H						; `string'
CONST	ENDS
;	COMDAT ??_C@_0GJ@DMCEMOMH@c?3?2program?5files?5?$CIx86?$CJ?2microsof@
CONST	SEGMENT
??_C@_0GJ@DMCEMOMH@c?3?2program?5files?5?$CIx86?$CJ?2microsof@ DB 'c:\pro'
	DB	'gram files (x86)\microsoft visual studio\2017\community\vc\to'
	DB	'ols\msvc\14.15.26726\include\xutility', 00H	; `string'
CONST	ENDS
;	COMDAT ??_C@_0BJ@LFDBABJJ@ITERATOR?5LIST?5CORRUPTED?$CB@
CONST	SEGMENT
??_C@_0BJ@LFDBABJJ@ITERATOR?5LIST?5CORRUPTED?$CB@ DB 'ITERATOR LIST CORRU'
	DB	'PTED!', 00H					; `string'
CONST	ENDS
;	COMDAT ??_C@_1CG@JNLFBNGN@?$AA?$CC?$AAi?$AAn?$AAv?$AAa?$AAl?$AAi?$AAd?$AA?5?$AAa?$AAr?$AAg?$AAu?$AAm?$AAe@
CONST	SEGMENT
??_C@_1CG@JNLFBNGN@?$AA?$CC?$AAi?$AAn?$AAv?$AAa?$AAl?$AAi?$AAd?$AA?5?$AAa?$AAr?$AAg?$AAu?$AAm?$AAe@ DB '"'
	DB	00H, 'i', 00H, 'n', 00H, 'v', 00H, 'a', 00H, 'l', 00H, 'i', 00H
	DB	'd', 00H, ' ', 00H, 'a', 00H, 'r', 00H, 'g', 00H, 'u', 00H, 'm'
	DB	00H, 'e', 00H, 'n', 00H, 't', 00H, '"', 00H, 00H, 00H ; `string'
CONST	ENDS
;	COMDAT ??_C@_02DKCKIIND@?$CFs@
CONST	SEGMENT
??_C@_02DKCKIIND@?$CFs@ DB '%s', 00H			; `string'
CONST	ENDS
;	COMDAT ??_C@_0BB@FCMFBGOM@invalid?5argument@
CONST	SEGMENT
??_C@_0BB@FCMFBGOM@invalid?5argument@ DB 'invalid argument', 00H ; `string'
CONST	ENDS
;	COMDAT xdata$x
xdata$x	SEGMENT
__catchsym$??$_Insert_nohint@AAU?$pair@$$CBHPAVRaven_Weapon@@@std@@PAU?$_Tree_node@U?$pair@$$CBHPAVRaven_Weapon@@@std@@PAX@2@@?$_Tree@V?$_Tmap_traits@HPAVRaven_Weapon@@U?$less@H@std@@V?$allocator@U?$pair@$$CBHPAVRaven_Weapon@@@std@@@3@$0A@@std@@@std@@IAE?AU?$pair@V?$_Tree_iterator@V?$_Tree_val@U?$_Tree_simple_types@U?$pair@$$CBHPAVRaven_Weapon@@@std@@@std@@@std@@@std@@_N@1@_NAAU?$pair@$$CBHPAVRaven_Weapon@@@1@PAU?$_Tree_node@U?$pair@$$CBHPAVRaven_Weapon@@@std@@PAX@1@@Z$8 DD 040H
	DD	00H
	DD	00H
	DD	FLAT:__catch$??$_Insert_nohint@AAU?$pair@$$CBHPAVRaven_Weapon@@@std@@PAU?$_Tree_node@U?$pair@$$CBHPAVRaven_Weapon@@@std@@PAX@2@@?$_Tree@V?$_Tmap_traits@HPAVRaven_Weapon@@U?$less@H@std@@V?$allocator@U?$pair@$$CBHPAVRaven_Weapon@@@std@@@3@$0A@@std@@@std@@IAE?AU?$pair@V?$_Tree_iterator@V?$_Tree_val@U?$_Tree_simple_types@U?$pair@$$CBHPAVRaven_Weapon@@@std@@@std@@@std@@@std@@_N@1@_NAAU?$pair@$$CBHPAVRaven_Weapon@@@1@PAU?$_Tree_node@U?$pair@$$CBHPAVRaven_Weapon@@@std@@PAX@1@@Z$0
__tryblocktable$??$_Insert_nohint@AAU?$pair@$$CBHPAVRaven_Weapon@@@std@@PAU?$_Tree_node@U?$pair@$$CBHPAVRaven_Weapon@@@std@@PAX@2@@?$_Tree@V?$_Tmap_traits@HPAVRaven_Weapon@@U?$less@H@std@@V?$allocator@U?$pair@$$CBHPAVRaven_Weapon@@@std@@@3@$0A@@std@@@std@@IAE?AU?$pair@V?$_Tree_iterator@V?$_Tree_val@U?$_Tree_simple_types@U?$pair@$$CBHPAVRaven_Weapon@@@std@@@std@@@std@@@std@@_N@1@_NAAU?$pair@$$CBHPAVRaven_Weapon@@@1@PAU?$_Tree_node@U?$pair@$$CBHPAVRaven_Weapon@@@std@@PAX@1@@Z DD 00H
	DD	02H
	DD	03H
	DD	01H
	DD	FLAT:__catchsym$??$_Insert_nohint@AAU?$pair@$$CBHPAVRaven_Weapon@@@std@@PAU?$_Tree_node@U?$pair@$$CBHPAVRaven_Weapon@@@std@@PAX@2@@?$_Tree@V?$_Tmap_traits@HPAVRaven_Weapon@@U?$less@H@std@@V?$allocator@U?$pair@$$CBHPAVRaven_Weapon@@@std@@@3@$0A@@std@@@std@@IAE?AU?$pair@V?$_Tree_iterator@V?$_Tree_val@U?$_Tree_simple_types@U?$pair@$$CBHPAVRaven_Weapon@@@std@@@std@@@std@@@std@@_N@1@_NAAU?$pair@$$CBHPAVRaven_Weapon@@@1@PAU?$_Tree_node@U?$pair@$$CBHPAVRaven_Weapon@@@std@@PAX@1@@Z$8
__unwindtable$??$_Insert_nohint@AAU?$pair@$$CBHPAVRaven_Weapon@@@std@@PAU?$_Tree_node@U?$pair@$$CBHPAVRaven_Weapon@@@std@@PAX@2@@?$_Tree@V?$_Tmap_traits@HPAVRaven_Weapon@@U?$less@H@std@@V?$allocator@U?$pair@$$CBHPAVRaven_Weapon@@@std@@@3@$0A@@std@@@std@@IAE?AU?$pair@V?$_Tree_iterator@V?$_Tree_val@U?$_Tree_simple_types@U?$pair@$$CBHPAVRaven_Weapon@@@std@@@std@@@std@@@std@@_N@1@_NAAU?$pair@$$CBHPAVRaven_Weapon@@@1@PAU?$_Tree_node@U?$pair@$$CBHPAVRaven_Weapon@@@std@@PAX@1@@Z DD 0ffffffffH
	DD	00H
	DD	00H
	DD	FLAT:__unwindfunclet$??$_Insert_nohint@AAU?$pair@$$CBHPAVRaven_Weapon@@@std@@PAU?$_Tree_node@U?$pair@$$CBHPAVRaven_Weapon@@@std@@PAX@2@@?$_Tree@V?$_Tmap_traits@HPAVRaven_Weapon@@U?$less@H@std@@V?$allocator@U?$pair@$$CBHPAVRaven_Weapon@@@std@@@3@$0A@@std@@@std@@IAE?AU?$pair@V?$_Tree_iterator@V?$_Tree_val@U?$_Tree_simple_types@U?$pair@$$CBHPAVRaven_Weapon@@@std@@@std@@@std@@@std@@_N@1@_NAAU?$pair@$$CBHPAVRaven_Weapon@@@1@PAU?$_Tree_node@U?$pair@$$CBHPAVRaven_Weapon@@@std@@PAX@1@@Z$4
	DD	01H
	DD	FLAT:__unwindfunclet$??$_Insert_nohint@AAU?$pair@$$CBHPAVRaven_Weapon@@@std@@PAU?$_Tree_node@U?$pair@$$CBHPAVRaven_Weapon@@@std@@PAX@2@@?$_Tree@V?$_Tmap_traits@HPAVRaven_Weapon@@U?$less@H@std@@V?$allocator@U?$pair@$$CBHPAVRaven_Weapon@@@std@@@3@$0A@@std@@@std@@IAE?AU?$pair@V?$_Tree_iterator@V?$_Tree_val@U?$_Tree_simple_types@U?$pair@$$CBHPAVRaven_Weapon@@@std@@@std@@@std@@@std@@_N@1@_NAAU?$pair@$$CBHPAVRaven_Weapon@@@1@PAU?$_Tree_node@U?$pair@$$CBHPAVRaven_Weapon@@@std@@PAX@1@@Z$5
	DD	0ffffffffH
	DD	00H
__ehfuncinfo$??$_Insert_nohint@AAU?$pair@$$CBHPAVRaven_Weapon@@@std@@PAU?$_Tree_node@U?$pair@$$CBHPAVRaven_Weapon@@@std@@PAX@2@@?$_Tree@V?$_Tmap_traits@HPAVRaven_Weapon@@U?$less@H@std@@V?$allocator@U?$pair@$$CBHPAVRaven_Weapon@@@std@@@3@$0A@@std@@@std@@IAE?AU?$pair@V?$_Tree_iterator@V?$_Tree_val@U?$_Tree_simple_types@U?$pair@$$CBHPAVRaven_Weapon@@@std@@@std@@@std@@@std@@_N@1@_NAAU?$pair@$$CBHPAVRaven_Weapon@@@1@PAU?$_Tree_node@U?$pair@$$CBHPAVRaven_Weapon@@@std@@PAX@1@@Z DD 019930522H
	DD	04H
	DD	FLAT:__unwindtable$??$_Insert_nohint@AAU?$pair@$$CBHPAVRaven_Weapon@@@std@@PAU?$_Tree_node@U?$pair@$$CBHPAVRaven_Weapon@@@std@@PAX@2@@?$_Tree@V?$_Tmap_traits@HPAVRaven_Weapon@@U?$less@H@std@@V?$allocator@U?$pair@$$CBHPAVRaven_Weapon@@@std@@@3@$0A@@std@@@std@@IAE?AU?$pair@V?$_Tree_iterator@V?$_Tree_val@U?$_Tree_simple_types@U?$pair@$$CBHPAVRaven_Weapon@@@std@@@std@@@std@@@std@@_N@1@_NAAU?$pair@$$CBHPAVRaven_Weapon@@@1@PAU?$_Tree_node@U?$pair@$$CBHPAVRaven_Weapon@@@std@@PAX@1@@Z
	DD	01H
	DD	FLAT:__tryblocktable$??$_Insert_nohint@AAU?$pair@$$CBHPAVRaven_Weapon@@@std@@PAU?$_Tree_node@U?$pair@$$CBHPAVRaven_Weapon@@@std@@PAX@2@@?$_Tree@V?$_Tmap_traits@HPAVRaven_Weapon@@U?$less@H@std@@V?$allocator@U?$pair@$$CBHPAVRaven_Weapon@@@std@@@3@$0A@@std@@@std@@IAE?AU?$pair@V?$_Tree_iterator@V?$_Tree_val@U?$_Tree_simple_types@U?$pair@$$CBHPAVRaven_Weapon@@@std@@@std@@@std@@@std@@_N@1@_NAAU?$pair@$$CBHPAVRaven_Weapon@@@1@PAU?$_Tree_node@U?$pair@$$CBHPAVRaven_Weapon@@@std@@PAX@1@@Z
	DD	2 DUP(00H)
	DD	00H
	DD	01H
xdata$x	ENDS
;	COMDAT xdata$x
xdata$x	SEGMENT
__catchsym$??$_Buynode@ABUpiecewise_construct_t@std@@V?$tuple@ABH@2@V?$tuple@$$V@2@@?$_Tree_comp_alloc@V?$_Tmap_traits@HPAVRaven_Weapon@@U?$less@H@std@@V?$allocator@U?$pair@$$CBHPAVRaven_Weapon@@@std@@@3@$0A@@std@@@std@@QAEPAU?$_Tree_node@U?$pair@$$CBHPAVRaven_Weapon@@@std@@PAX@1@ABUpiecewise_construct_t@1@$$QAV?$tuple@ABH@1@$$QAV?$tuple@$$V@1@@Z$2 DD 040H
	DD	00H
	DD	00H
	DD	FLAT:__catch$??$_Buynode@ABUpiecewise_construct_t@std@@V?$tuple@ABH@2@V?$tuple@$$V@2@@?$_Tree_comp_alloc@V?$_Tmap_traits@HPAVRaven_Weapon@@U?$less@H@std@@V?$allocator@U?$pair@$$CBHPAVRaven_Weapon@@@std@@@3@$0A@@std@@@std@@QAEPAU?$_Tree_node@U?$pair@$$CBHPAVRaven_Weapon@@@std@@PAX@1@ABUpiecewise_construct_t@1@$$QAV?$tuple@ABH@1@$$QAV?$tuple@$$V@1@@Z$0
__unwindtable$??$_Buynode@ABUpiecewise_construct_t@std@@V?$tuple@ABH@2@V?$tuple@$$V@2@@?$_Tree_comp_alloc@V?$_Tmap_traits@HPAVRaven_Weapon@@U?$less@H@std@@V?$allocator@U?$pair@$$CBHPAVRaven_Weapon@@@std@@@3@$0A@@std@@@std@@QAEPAU?$_Tree_node@U?$pair@$$CBHPAVRaven_Weapon@@@std@@PAX@1@ABUpiecewise_construct_t@1@$$QAV?$tuple@ABH@1@$$QAV?$tuple@$$V@1@@Z DD 0ffffffffH
	DD	00H
	DD	0ffffffffH
	DD	00H
__tryblocktable$??$_Buynode@ABUpiecewise_construct_t@std@@V?$tuple@ABH@2@V?$tuple@$$V@2@@?$_Tree_comp_alloc@V?$_Tmap_traits@HPAVRaven_Weapon@@U?$less@H@std@@V?$allocator@U?$pair@$$CBHPAVRaven_Weapon@@@std@@@3@$0A@@std@@@std@@QAEPAU?$_Tree_node@U?$pair@$$CBHPAVRaven_Weapon@@@std@@PAX@1@ABUpiecewise_construct_t@1@$$QAV?$tuple@ABH@1@$$QAV?$tuple@$$V@1@@Z DD 00H
	DD	00H
	DD	01H
	DD	01H
	DD	FLAT:__catchsym$??$_Buynode@ABUpiecewise_construct_t@std@@V?$tuple@ABH@2@V?$tuple@$$V@2@@?$_Tree_comp_alloc@V?$_Tmap_traits@HPAVRaven_Weapon@@U?$less@H@std@@V?$allocator@U?$pair@$$CBHPAVRaven_Weapon@@@std@@@3@$0A@@std@@@std@@QAEPAU?$_Tree_node@U?$pair@$$CBHPAVRaven_Weapon@@@std@@PAX@1@ABUpiecewise_construct_t@1@$$QAV?$tuple@ABH@1@$$QAV?$tuple@$$V@1@@Z$2
__ehfuncinfo$??$_Buynode@ABUpiecewise_construct_t@std@@V?$tuple@ABH@2@V?$tuple@$$V@2@@?$_Tree_comp_alloc@V?$_Tmap_traits@HPAVRaven_Weapon@@U?$less@H@std@@V?$allocator@U?$pair@$$CBHPAVRaven_Weapon@@@std@@@3@$0A@@std@@@std@@QAEPAU?$_Tree_node@U?$pair@$$CBHPAVRaven_Weapon@@@std@@PAX@1@ABUpiecewise_construct_t@1@$$QAV?$tuple@ABH@1@$$QAV?$tuple@$$V@1@@Z DD 019930522H
	DD	02H
	DD	FLAT:__unwindtable$??$_Buynode@ABUpiecewise_construct_t@std@@V?$tuple@ABH@2@V?$tuple@$$V@2@@?$_Tree_comp_alloc@V?$_Tmap_traits@HPAVRaven_Weapon@@U?$less@H@std@@V?$allocator@U?$pair@$$CBHPAVRaven_Weapon@@@std@@@3@$0A@@std@@@std@@QAEPAU?$_Tree_node@U?$pair@$$CBHPAVRaven_Weapon@@@std@@PAX@1@ABUpiecewise_construct_t@1@$$QAV?$tuple@ABH@1@$$QAV?$tuple@$$V@1@@Z
	DD	01H
	DD	FLAT:__tryblocktable$??$_Buynode@ABUpiecewise_construct_t@std@@V?$tuple@ABH@2@V?$tuple@$$V@2@@?$_Tree_comp_alloc@V?$_Tmap_traits@HPAVRaven_Weapon@@U?$less@H@std@@V?$allocator@U?$pair@$$CBHPAVRaven_Weapon@@@std@@@3@$0A@@std@@@std@@QAEPAU?$_Tree_node@U?$pair@$$CBHPAVRaven_Weapon@@@std@@PAX@1@ABUpiecewise_construct_t@1@$$QAV?$tuple@ABH@1@$$QAV?$tuple@$$V@1@@Z
	DD	2 DUP(00H)
	DD	00H
	DD	01H
xdata$x	ENDS
;	COMDAT xdata$x
xdata$x	SEGMENT
__ehfuncinfo$??$?0ABH$0A@@?$tuple@ABH@std@@QAE@ABH@Z DD 019930522H
	DD	00H
	DD	00H
	DD	2 DUP(00H)
	DD	2 DUP(00H)
	DD	00H
	DD	05H
xdata$x	ENDS
;	COMDAT xdata$x
xdata$x	SEGMENT
__catchsym$??$_Insert_hint@AAU?$pair@$$CBHPAVRaven_Weapon@@@std@@PAU?$_Tree_node@U?$pair@$$CBHPAVRaven_Weapon@@@std@@PAX@2@@?$_Tree@V?$_Tmap_traits@HPAVRaven_Weapon@@U?$less@H@std@@V?$allocator@U?$pair@$$CBHPAVRaven_Weapon@@@std@@@3@$0A@@std@@@std@@IAE?AV?$_Tree_iterator@V?$_Tree_val@U?$_Tree_simple_types@U?$pair@$$CBHPAVRaven_Weapon@@@std@@@std@@@std@@@1@V?$_Tree_const_iterator@V?$_Tree_val@U?$_Tree_simple_types@U?$pair@$$CBHPAVRaven_Weapon@@@std@@@std@@@std@@@1@AAU?$pair@$$CBHPAVRaven_Weapon@@@1@PAU?$_Tree_node@U?$pair@$$CBHPAVRaven_Weapon@@@std@@PAX@1@@Z$12 DD 040H
	DD	00H
	DD	00H
	DD	FLAT:__catch$??$_Insert_hint@AAU?$pair@$$CBHPAVRaven_Weapon@@@std@@PAU?$_Tree_node@U?$pair@$$CBHPAVRaven_Weapon@@@std@@PAX@2@@?$_Tree@V?$_Tmap_traits@HPAVRaven_Weapon@@U?$less@H@std@@V?$allocator@U?$pair@$$CBHPAVRaven_Weapon@@@std@@@3@$0A@@std@@@std@@IAE?AV?$_Tree_iterator@V?$_Tree_val@U?$_Tree_simple_types@U?$pair@$$CBHPAVRaven_Weapon@@@std@@@std@@@std@@@1@V?$_Tree_const_iterator@V?$_Tree_val@U?$_Tree_simple_types@U?$pair@$$CBHPAVRaven_Weapon@@@std@@@std@@@std@@@1@AAU?$pair@$$CBHPAVRaven_Weapon@@@1@PAU?$_Tree_node@U?$pair@$$CBHPAVRaven_Weapon@@@std@@PAX@1@@Z$0
__tryblocktable$??$_Insert_hint@AAU?$pair@$$CBHPAVRaven_Weapon@@@std@@PAU?$_Tree_node@U?$pair@$$CBHPAVRaven_Weapon@@@std@@PAX@2@@?$_Tree@V?$_Tmap_traits@HPAVRaven_Weapon@@U?$less@H@std@@V?$allocator@U?$pair@$$CBHPAVRaven_Weapon@@@std@@@3@$0A@@std@@@std@@IAE?AV?$_Tree_iterator@V?$_Tree_val@U?$_Tree_simple_types@U?$pair@$$CBHPAVRaven_Weapon@@@std@@@std@@@std@@@1@V?$_Tree_const_iterator@V?$_Tree_val@U?$_Tree_simple_types@U?$pair@$$CBHPAVRaven_Weapon@@@std@@@std@@@std@@@1@AAU?$pair@$$CBHPAVRaven_Weapon@@@1@PAU?$_Tree_node@U?$pair@$$CBHPAVRaven_Weapon@@@std@@PAX@1@@Z DD 02H
	DD	08H
	DD	09H
	DD	01H
	DD	FLAT:__catchsym$??$_Insert_hint@AAU?$pair@$$CBHPAVRaven_Weapon@@@std@@PAU?$_Tree_node@U?$pair@$$CBHPAVRaven_Weapon@@@std@@PAX@2@@?$_Tree@V?$_Tmap_traits@HPAVRaven_Weapon@@U?$less@H@std@@V?$allocator@U?$pair@$$CBHPAVRaven_Weapon@@@std@@@3@$0A@@std@@@std@@IAE?AV?$_Tree_iterator@V?$_Tree_val@U?$_Tree_simple_types@U?$pair@$$CBHPAVRaven_Weapon@@@std@@@std@@@std@@@1@V?$_Tree_const_iterator@V?$_Tree_val@U?$_Tree_simple_types@U?$pair@$$CBHPAVRaven_Weapon@@@std@@@std@@@std@@@1@AAU?$pair@$$CBHPAVRaven_Weapon@@@1@PAU?$_Tree_node@U?$pair@$$CBHPAVRaven_Weapon@@@std@@PAX@1@@Z$12
__ehfuncinfo$??$_Insert_hint@AAU?$pair@$$CBHPAVRaven_Weapon@@@std@@PAU?$_Tree_node@U?$pair@$$CBHPAVRaven_Weapon@@@std@@PAX@2@@?$_Tree@V?$_Tmap_traits@HPAVRaven_Weapon@@U?$less@H@std@@V?$allocator@U?$pair@$$CBHPAVRaven_Weapon@@@std@@@3@$0A@@std@@@std@@IAE?AV?$_Tree_iterator@V?$_Tree_val@U?$_Tree_simple_types@U?$pair@$$CBHPAVRaven_Weapon@@@std@@@std@@@std@@@1@V?$_Tree_const_iterator@V?$_Tree_val@U?$_Tree_simple_types@U?$pair@$$CBHPAVRaven_Weapon@@@std@@@std@@@std@@@1@AAU?$pair@$$CBHPAVRaven_Weapon@@@1@PAU?$_Tree_node@U?$pair@$$CBHPAVRaven_Weapon@@@std@@PAX@1@@Z DD 019930522H
	DD	0aH
	DD	FLAT:__unwindtable$??$_Insert_hint@AAU?$pair@$$CBHPAVRaven_Weapon@@@std@@PAU?$_Tree_node@U?$pair@$$CBHPAVRaven_Weapon@@@std@@PAX@2@@?$_Tree@V?$_Tmap_traits@HPAVRaven_Weapon@@U?$less@H@std@@V?$allocator@U?$pair@$$CBHPAVRaven_Weapon@@@std@@@3@$0A@@std@@@std@@IAE?AV?$_Tree_iterator@V?$_Tree_val@U?$_Tree_simple_types@U?$pair@$$CBHPAVRaven_Weapon@@@std@@@std@@@std@@@1@V?$_Tree_const_iterator@V?$_Tree_val@U?$_Tree_simple_types@U?$pair@$$CBHPAVRaven_Weapon@@@std@@@std@@@std@@@1@AAU?$pair@$$CBHPAVRaven_Weapon@@@1@PAU?$_Tree_node@U?$pair@$$CBHPAVRaven_Weapon@@@std@@PAX@1@@Z
	DD	01H
	DD	FLAT:__tryblocktable$??$_Insert_hint@AAU?$pair@$$CBHPAVRaven_Weapon@@@std@@PAU?$_Tree_node@U?$pair@$$CBHPAVRaven_Weapon@@@std@@PAX@2@@?$_Tree@V?$_Tmap_traits@HPAVRaven_Weapon@@U?$less@H@std@@V?$allocator@U?$pair@$$CBHPAVRaven_Weapon@@@std@@@3@$0A@@std@@@std@@IAE?AV?$_Tree_iterator@V?$_Tree_val@U?$_Tree_simple_types@U?$pair@$$CBHPAVRaven_Weapon@@@std@@@std@@@std@@@1@V?$_Tree_const_iterator@V?$_Tree_val@U?$_Tree_simple_types@U?$pair@$$CBHPAVRaven_Weapon@@@std@@@std@@@std@@@1@AAU?$pair@$$CBHPAVRaven_Weapon@@@1@PAU?$_Tree_node@U?$pair@$$CBHPAVRaven_Weapon@@@std@@PAX@1@@Z
	DD	2 DUP(00H)
	DD	00H
	DD	01H
__unwindtable$??$_Insert_hint@AAU?$pair@$$CBHPAVRaven_Weapon@@@std@@PAU?$_Tree_node@U?$pair@$$CBHPAVRaven_Weapon@@@std@@PAX@2@@?$_Tree@V?$_Tmap_traits@HPAVRaven_Weapon@@U?$less@H@std@@V?$allocator@U?$pair@$$CBHPAVRaven_Weapon@@@std@@@3@$0A@@std@@@std@@IAE?AV?$_Tree_iterator@V?$_Tree_val@U?$_Tree_simple_types@U?$pair@$$CBHPAVRaven_Weapon@@@std@@@std@@@std@@@1@V?$_Tree_const_iterator@V?$_Tree_val@U?$_Tree_simple_types@U?$pair@$$CBHPAVRaven_Weapon@@@std@@@std@@@std@@@1@AAU?$pair@$$CBHPAVRaven_Weapon@@@1@PAU?$_Tree_node@U?$pair@$$CBHPAVRaven_Weapon@@@std@@PAX@1@@Z DD 0ffffffffH
	DD	FLAT:__unwindfunclet$??$_Insert_hint@AAU?$pair@$$CBHPAVRaven_Weapon@@@std@@PAU?$_Tree_node@U?$pair@$$CBHPAVRaven_Weapon@@@std@@PAX@2@@?$_Tree@V?$_Tmap_traits@HPAVRaven_Weapon@@U?$less@H@std@@V?$allocator@U?$pair@$$CBHPAVRaven_Weapon@@@std@@@3@$0A@@std@@@std@@IAE?AV?$_Tree_iterator@V?$_Tree_val@U?$_Tree_simple_types@U?$pair@$$CBHPAVRaven_Weapon@@@std@@@std@@@std@@@1@V?$_Tree_const_iterator@V?$_Tree_val@U?$_Tree_simple_types@U?$pair@$$CBHPAVRaven_Weapon@@@std@@@std@@@std@@@1@AAU?$pair@$$CBHPAVRaven_Weapon@@@1@PAU?$_Tree_node@U?$pair@$$CBHPAVRaven_Weapon@@@std@@PAX@1@@Z$2
	DD	00H
	DD	FLAT:__unwindfunclet$??$_Insert_hint@AAU?$pair@$$CBHPAVRaven_Weapon@@@std@@PAU?$_Tree_node@U?$pair@$$CBHPAVRaven_Weapon@@@std@@PAX@2@@?$_Tree@V?$_Tmap_traits@HPAVRaven_Weapon@@U?$less@H@std@@V?$allocator@U?$pair@$$CBHPAVRaven_Weapon@@@std@@@3@$0A@@std@@@std@@IAE?AV?$_Tree_iterator@V?$_Tree_val@U?$_Tree_simple_types@U?$pair@$$CBHPAVRaven_Weapon@@@std@@@std@@@std@@@1@V?$_Tree_const_iterator@V?$_Tree_val@U?$_Tree_simple_types@U?$pair@$$CBHPAVRaven_Weapon@@@std@@@std@@@std@@@1@AAU?$pair@$$CBHPAVRaven_Weapon@@@1@PAU?$_Tree_node@U?$pair@$$CBHPAVRaven_Weapon@@@std@@PAX@1@@Z$3
	DD	01H
	DD	00H
	DD	02H
	DD	FLAT:__unwindfunclet$??$_Insert_hint@AAU?$pair@$$CBHPAVRaven_Weapon@@@std@@PAU?$_Tree_node@U?$pair@$$CBHPAVRaven_Weapon@@@std@@PAX@2@@?$_Tree@V?$_Tmap_traits@HPAVRaven_Weapon@@U?$less@H@std@@V?$allocator@U?$pair@$$CBHPAVRaven_Weapon@@@std@@@3@$0A@@std@@@std@@IAE?AV?$_Tree_iterator@V?$_Tree_val@U?$_Tree_simple_types@U?$pair@$$CBHPAVRaven_Weapon@@@std@@@std@@@std@@@1@V?$_Tree_const_iterator@V?$_Tree_val@U?$_Tree_simple_types@U?$pair@$$CBHPAVRaven_Weapon@@@std@@@std@@@std@@@1@AAU?$pair@$$CBHPAVRaven_Weapon@@@1@PAU?$_Tree_node@U?$pair@$$CBHPAVRaven_Weapon@@@std@@PAX@1@@Z$5
	DD	02H
	DD	FLAT:__unwindfunclet$??$_Insert_hint@AAU?$pair@$$CBHPAVRaven_Weapon@@@std@@PAU?$_Tree_node@U?$pair@$$CBHPAVRaven_Weapon@@@std@@PAX@2@@?$_Tree@V?$_Tmap_traits@HPAVRaven_Weapon@@U?$less@H@std@@V?$allocator@U?$pair@$$CBHPAVRaven_Weapon@@@std@@@3@$0A@@std@@@std@@IAE?AV?$_Tree_iterator@V?$_Tree_val@U?$_Tree_simple_types@U?$pair@$$CBHPAVRaven_Weapon@@@std@@@std@@@std@@@1@V?$_Tree_const_iterator@V?$_Tree_val@U?$_Tree_simple_types@U?$pair@$$CBHPAVRaven_Weapon@@@std@@@std@@@std@@@1@AAU?$pair@$$CBHPAVRaven_Weapon@@@1@PAU?$_Tree_node@U?$pair@$$CBHPAVRaven_Weapon@@@std@@PAX@1@@Z$6
	DD	02H
	DD	FLAT:__unwindfunclet$??$_Insert_hint@AAU?$pair@$$CBHPAVRaven_Weapon@@@std@@PAU?$_Tree_node@U?$pair@$$CBHPAVRaven_Weapon@@@std@@PAX@2@@?$_Tree@V?$_Tmap_traits@HPAVRaven_Weapon@@U?$less@H@std@@V?$allocator@U?$pair@$$CBHPAVRaven_Weapon@@@std@@@3@$0A@@std@@@std@@IAE?AV?$_Tree_iterator@V?$_Tree_val@U?$_Tree_simple_types@U?$pair@$$CBHPAVRaven_Weapon@@@std@@@std@@@std@@@1@V?$_Tree_const_iterator@V?$_Tree_val@U?$_Tree_simple_types@U?$pair@$$CBHPAVRaven_Weapon@@@std@@@std@@@std@@@1@AAU?$pair@$$CBHPAVRaven_Weapon@@@1@PAU?$_Tree_node@U?$pair@$$CBHPAVRaven_Weapon@@@std@@PAX@1@@Z$7
	DD	02H
	DD	FLAT:__unwindfunclet$??$_Insert_hint@AAU?$pair@$$CBHPAVRaven_Weapon@@@std@@PAU?$_Tree_node@U?$pair@$$CBHPAVRaven_Weapon@@@std@@PAX@2@@?$_Tree@V?$_Tmap_traits@HPAVRaven_Weapon@@U?$less@H@std@@V?$allocator@U?$pair@$$CBHPAVRaven_Weapon@@@std@@@3@$0A@@std@@@std@@IAE?AV?$_Tree_iterator@V?$_Tree_val@U?$_Tree_simple_types@U?$pair@$$CBHPAVRaven_Weapon@@@std@@@std@@@std@@@1@V?$_Tree_const_iterator@V?$_Tree_val@U?$_Tree_simple_types@U?$pair@$$CBHPAVRaven_Weapon@@@std@@@std@@@std@@@1@AAU?$pair@$$CBHPAVRaven_Weapon@@@1@PAU?$_Tree_node@U?$pair@$$CBHPAVRaven_Weapon@@@std@@PAX@1@@Z$8
	DD	02H
	DD	FLAT:__unwindfunclet$??$_Insert_hint@AAU?$pair@$$CBHPAVRaven_Weapon@@@std@@PAU?$_Tree_node@U?$pair@$$CBHPAVRaven_Weapon@@@std@@PAX@2@@?$_Tree@V?$_Tmap_traits@HPAVRaven_Weapon@@U?$less@H@std@@V?$allocator@U?$pair@$$CBHPAVRaven_Weapon@@@std@@@3@$0A@@std@@@std@@IAE?AV?$_Tree_iterator@V?$_Tree_val@U?$_Tree_simple_types@U?$pair@$$CBHPAVRaven_Weapon@@@std@@@std@@@std@@@1@V?$_Tree_const_iterator@V?$_Tree_val@U?$_Tree_simple_types@U?$pair@$$CBHPAVRaven_Weapon@@@std@@@std@@@std@@@1@AAU?$pair@$$CBHPAVRaven_Weapon@@@1@PAU?$_Tree_node@U?$pair@$$CBHPAVRaven_Weapon@@@std@@PAX@1@@Z$9
	DD	02H
	DD	FLAT:__unwindfunclet$??$_Insert_hint@AAU?$pair@$$CBHPAVRaven_Weapon@@@std@@PAU?$_Tree_node@U?$pair@$$CBHPAVRaven_Weapon@@@std@@PAX@2@@?$_Tree@V?$_Tmap_traits@HPAVRaven_Weapon@@U?$less@H@std@@V?$allocator@U?$pair@$$CBHPAVRaven_Weapon@@@std@@@3@$0A@@std@@@std@@IAE?AV?$_Tree_iterator@V?$_Tree_val@U?$_Tree_simple_types@U?$pair@$$CBHPAVRaven_Weapon@@@std@@@std@@@std@@@1@V?$_Tree_const_iterator@V?$_Tree_val@U?$_Tree_simple_types@U?$pair@$$CBHPAVRaven_Weapon@@@std@@@std@@@std@@@1@AAU?$pair@$$CBHPAVRaven_Weapon@@@1@PAU?$_Tree_node@U?$pair@$$CBHPAVRaven_Weapon@@@std@@PAX@1@@Z$10
	DD	01H
	DD	00H
xdata$x	ENDS
;	COMDAT xdata$x
xdata$x	SEGMENT
__catchsym$??$_Buynode@ABUpiecewise_construct_t@std@@V?$tuple@$$QAH@2@V?$tuple@$$V@2@@?$_Tree_comp_alloc@V?$_Tmap_traits@HPAVRaven_Weapon@@U?$less@H@std@@V?$allocator@U?$pair@$$CBHPAVRaven_Weapon@@@std@@@3@$0A@@std@@@std@@QAEPAU?$_Tree_node@U?$pair@$$CBHPAVRaven_Weapon@@@std@@PAX@1@ABUpiecewise_construct_t@1@$$QAV?$tuple@$$QAH@1@$$QAV?$tuple@$$V@1@@Z$2 DD 040H
	DD	00H
	DD	00H
	DD	FLAT:__catch$??$_Buynode@ABUpiecewise_construct_t@std@@V?$tuple@$$QAH@2@V?$tuple@$$V@2@@?$_Tree_comp_alloc@V?$_Tmap_traits@HPAVRaven_Weapon@@U?$less@H@std@@V?$allocator@U?$pair@$$CBHPAVRaven_Weapon@@@std@@@3@$0A@@std@@@std@@QAEPAU?$_Tree_node@U?$pair@$$CBHPAVRaven_Weapon@@@std@@PAX@1@ABUpiecewise_construct_t@1@$$QAV?$tuple@$$QAH@1@$$QAV?$tuple@$$V@1@@Z$0
__unwindtable$??$_Buynode@ABUpiecewise_construct_t@std@@V?$tuple@$$QAH@2@V?$tuple@$$V@2@@?$_Tree_comp_alloc@V?$_Tmap_traits@HPAVRaven_Weapon@@U?$less@H@std@@V?$allocator@U?$pair@$$CBHPAVRaven_Weapon@@@std@@@3@$0A@@std@@@std@@QAEPAU?$_Tree_node@U?$pair@$$CBHPAVRaven_Weapon@@@std@@PAX@1@ABUpiecewise_construct_t@1@$$QAV?$tuple@$$QAH@1@$$QAV?$tuple@$$V@1@@Z DD 0ffffffffH
	DD	00H
	DD	0ffffffffH
	DD	00H
__tryblocktable$??$_Buynode@ABUpiecewise_construct_t@std@@V?$tuple@$$QAH@2@V?$tuple@$$V@2@@?$_Tree_comp_alloc@V?$_Tmap_traits@HPAVRaven_Weapon@@U?$less@H@std@@V?$allocator@U?$pair@$$CBHPAVRaven_Weapon@@@std@@@3@$0A@@std@@@std@@QAEPAU?$_Tree_node@U?$pair@$$CBHPAVRaven_Weapon@@@std@@PAX@1@ABUpiecewise_construct_t@1@$$QAV?$tuple@$$QAH@1@$$QAV?$tuple@$$V@1@@Z DD 00H
	DD	00H
	DD	01H
	DD	01H
	DD	FLAT:__catchsym$??$_Buynode@ABUpiecewise_construct_t@std@@V?$tuple@$$QAH@2@V?$tuple@$$V@2@@?$_Tree_comp_alloc@V?$_Tmap_traits@HPAVRaven_Weapon@@U?$less@H@std@@V?$allocator@U?$pair@$$CBHPAVRaven_Weapon@@@std@@@3@$0A@@std@@@std@@QAEPAU?$_Tree_node@U?$pair@$$CBHPAVRaven_Weapon@@@std@@PAX@1@ABUpiecewise_construct_t@1@$$QAV?$tuple@$$QAH@1@$$QAV?$tuple@$$V@1@@Z$2
__ehfuncinfo$??$_Buynode@ABUpiecewise_construct_t@std@@V?$tuple@$$QAH@2@V?$tuple@$$V@2@@?$_Tree_comp_alloc@V?$_Tmap_traits@HPAVRaven_Weapon@@U?$less@H@std@@V?$allocator@U?$pair@$$CBHPAVRaven_Weapon@@@std@@@3@$0A@@std@@@std@@QAEPAU?$_Tree_node@U?$pair@$$CBHPAVRaven_Weapon@@@std@@PAX@1@ABUpiecewise_construct_t@1@$$QAV?$tuple@$$QAH@1@$$QAV?$tuple@$$V@1@@Z DD 019930522H
	DD	02H
	DD	FLAT:__unwindtable$??$_Buynode@ABUpiecewise_construct_t@std@@V?$tuple@$$QAH@2@V?$tuple@$$V@2@@?$_Tree_comp_alloc@V?$_Tmap_traits@HPAVRaven_Weapon@@U?$less@H@std@@V?$allocator@U?$pair@$$CBHPAVRaven_Weapon@@@std@@@3@$0A@@std@@@std@@QAEPAU?$_Tree_node@U?$pair@$$CBHPAVRaven_Weapon@@@std@@PAX@1@ABUpiecewise_construct_t@1@$$QAV?$tuple@$$QAH@1@$$QAV?$tuple@$$V@1@@Z
	DD	01H
	DD	FLAT:__tryblocktable$??$_Buynode@ABUpiecewise_construct_t@std@@V?$tuple@$$QAH@2@V?$tuple@$$V@2@@?$_Tree_comp_alloc@V?$_Tmap_traits@HPAVRaven_Weapon@@U?$less@H@std@@V?$allocator@U?$pair@$$CBHPAVRaven_Weapon@@@std@@@3@$0A@@std@@@std@@QAEPAU?$_Tree_node@U?$pair@$$CBHPAVRaven_Weapon@@@std@@PAX@1@ABUpiecewise_construct_t@1@$$QAV?$tuple@$$QAH@1@$$QAV?$tuple@$$V@1@@Z
	DD	2 DUP(00H)
	DD	00H
	DD	01H
xdata$x	ENDS
;	COMDAT xdata$x
xdata$x	SEGMENT
__ehfuncinfo$??$?0H$$V$0A@@?$tuple@$$QAH@std@@QAE@$$QAH@Z DD 019930522H
	DD	00H
	DD	00H
	DD	2 DUP(00H)
	DD	2 DUP(00H)
	DD	00H
	DD	05H
xdata$x	ENDS
;	COMDAT xdata$x
xdata$x	SEGMENT
__unwindtable$??$emplace_hint@ABUpiecewise_construct_t@std@@V?$tuple@ABH@2@V?$tuple@$$V@2@@?$_Tree@V?$_Tmap_traits@HPAVRaven_Weapon@@U?$less@H@std@@V?$allocator@U?$pair@$$CBHPAVRaven_Weapon@@@std@@@3@$0A@@std@@@std@@QAE?AV?$_Tree_iterator@V?$_Tree_val@U?$_Tree_simple_types@U?$pair@$$CBHPAVRaven_Weapon@@@std@@@std@@@std@@@1@V?$_Tree_const_iterator@V?$_Tree_val@U?$_Tree_simple_types@U?$pair@$$CBHPAVRaven_Weapon@@@std@@@std@@@std@@@1@ABUpiecewise_construct_t@1@$$QAV?$tuple@ABH@1@$$QAV?$tuple@$$V@1@@Z DD 0ffffffffH
	DD	FLAT:__unwindfunclet$??$emplace_hint@ABUpiecewise_construct_t@std@@V?$tuple@ABH@2@V?$tuple@$$V@2@@?$_Tree@V?$_Tmap_traits@HPAVRaven_Weapon@@U?$less@H@std@@V?$allocator@U?$pair@$$CBHPAVRaven_Weapon@@@std@@@3@$0A@@std@@@std@@QAE?AV?$_Tree_iterator@V?$_Tree_val@U?$_Tree_simple_types@U?$pair@$$CBHPAVRaven_Weapon@@@std@@@std@@@std@@@1@V?$_Tree_const_iterator@V?$_Tree_val@U?$_Tree_simple_types@U?$pair@$$CBHPAVRaven_Weapon@@@std@@@std@@@std@@@1@ABUpiecewise_construct_t@1@$$QAV?$tuple@ABH@1@$$QAV?$tuple@$$V@1@@Z$0
__ehfuncinfo$??$emplace_hint@ABUpiecewise_construct_t@std@@V?$tuple@ABH@2@V?$tuple@$$V@2@@?$_Tree@V?$_Tmap_traits@HPAVRaven_Weapon@@U?$less@H@std@@V?$allocator@U?$pair@$$CBHPAVRaven_Weapon@@@std@@@3@$0A@@std@@@std@@QAE?AV?$_Tree_iterator@V?$_Tree_val@U?$_Tree_simple_types@U?$pair@$$CBHPAVRaven_Weapon@@@std@@@std@@@std@@@1@V?$_Tree_const_iterator@V?$_Tree_val@U?$_Tree_simple_types@U?$pair@$$CBHPAVRaven_Weapon@@@std@@@std@@@std@@@1@ABUpiecewise_construct_t@1@$$QAV?$tuple@ABH@1@$$QAV?$tuple@$$V@1@@Z DD 019930522H
	DD	01H
	DD	FLAT:__unwindtable$??$emplace_hint@ABUpiecewise_construct_t@std@@V?$tuple@ABH@2@V?$tuple@$$V@2@@?$_Tree@V?$_Tmap_traits@HPAVRaven_Weapon@@U?$less@H@std@@V?$allocator@U?$pair@$$CBHPAVRaven_Weapon@@@std@@@3@$0A@@std@@@std@@QAE?AV?$_Tree_iterator@V?$_Tree_val@U?$_Tree_simple_types@U?$pair@$$CBHPAVRaven_Weapon@@@std@@@std@@@std@@@1@V?$_Tree_const_iterator@V?$_Tree_val@U?$_Tree_simple_types@U?$pair@$$CBHPAVRaven_Weapon@@@std@@@std@@@std@@@1@ABUpiecewise_construct_t@1@$$QAV?$tuple@ABH@1@$$QAV?$tuple@$$V@1@@Z
	DD	2 DUP(00H)
	DD	2 DUP(00H)
	DD	00H
	DD	01H
xdata$x	ENDS
;	COMDAT xdata$x
xdata$x	SEGMENT
__unwindtable$??$emplace_hint@ABUpiecewise_construct_t@std@@V?$tuple@$$QAH@2@V?$tuple@$$V@2@@?$_Tree@V?$_Tmap_traits@HPAVRaven_Weapon@@U?$less@H@std@@V?$allocator@U?$pair@$$CBHPAVRaven_Weapon@@@std@@@3@$0A@@std@@@std@@QAE?AV?$_Tree_iterator@V?$_Tree_val@U?$_Tree_simple_types@U?$pair@$$CBHPAVRaven_Weapon@@@std@@@std@@@std@@@1@V?$_Tree_const_iterator@V?$_Tree_val@U?$_Tree_simple_types@U?$pair@$$CBHPAVRaven_Weapon@@@std@@@std@@@std@@@1@ABUpiecewise_construct_t@1@$$QAV?$tuple@$$QAH@1@$$QAV?$tuple@$$V@1@@Z DD 0ffffffffH
	DD	FLAT:__unwindfunclet$??$emplace_hint@ABUpiecewise_construct_t@std@@V?$tuple@$$QAH@2@V?$tuple@$$V@2@@?$_Tree@V?$_Tmap_traits@HPAVRaven_Weapon@@U?$less@H@std@@V?$allocator@U?$pair@$$CBHPAVRaven_Weapon@@@std@@@3@$0A@@std@@@std@@QAE?AV?$_Tree_iterator@V?$_Tree_val@U?$_Tree_simple_types@U?$pair@$$CBHPAVRaven_Weapon@@@std@@@std@@@std@@@1@V?$_Tree_const_iterator@V?$_Tree_val@U?$_Tree_simple_types@U?$pair@$$CBHPAVRaven_Weapon@@@std@@@std@@@std@@@1@ABUpiecewise_construct_t@1@$$QAV?$tuple@$$QAH@1@$$QAV?$tuple@$$V@1@@Z$0
__ehfuncinfo$??$emplace_hint@ABUpiecewise_construct_t@std@@V?$tuple@$$QAH@2@V?$tuple@$$V@2@@?$_Tree@V?$_Tmap_traits@HPAVRaven_Weapon@@U?$less@H@std@@V?$allocator@U?$pair@$$CBHPAVRaven_Weapon@@@std@@@3@$0A@@std@@@std@@QAE?AV?$_Tree_iterator@V?$_Tree_val@U?$_Tree_simple_types@U?$pair@$$CBHPAVRaven_Weapon@@@std@@@std@@@std@@@1@V?$_Tree_const_iterator@V?$_Tree_val@U?$_Tree_simple_types@U?$pair@$$CBHPAVRaven_Weapon@@@std@@@std@@@std@@@1@ABUpiecewise_construct_t@1@$$QAV?$tuple@$$QAH@1@$$QAV?$tuple@$$V@1@@Z DD 019930522H
	DD	01H
	DD	FLAT:__unwindtable$??$emplace_hint@ABUpiecewise_construct_t@std@@V?$tuple@$$QAH@2@V?$tuple@$$V@2@@?$_Tree@V?$_Tmap_traits@HPAVRaven_Weapon@@U?$less@H@std@@V?$allocator@U?$pair@$$CBHPAVRaven_Weapon@@@std@@@3@$0A@@std@@@std@@QAE?AV?$_Tree_iterator@V?$_Tree_val@U?$_Tree_simple_types@U?$pair@$$CBHPAVRaven_Weapon@@@std@@@std@@@std@@@1@V?$_Tree_const_iterator@V?$_Tree_val@U?$_Tree_simple_types@U?$pair@$$CBHPAVRaven_Weapon@@@std@@@std@@@std@@@1@ABUpiecewise_construct_t@1@$$QAV?$tuple@$$QAH@1@$$QAV?$tuple@$$V@1@@Z
	DD	2 DUP(00H)
	DD	2 DUP(00H)
	DD	00H
	DD	01H
xdata$x	ENDS
;	COMDAT xdata$x
xdata$x	SEGMENT
__unwindtable$??$_Try_emplace@ABH$$V@?$map@HPAVRaven_Weapon@@U?$less@H@std@@V?$allocator@U?$pair@$$CBHPAVRaven_Weapon@@@std@@@3@@std@@QAE?AU?$pair@V?$_Tree_iterator@V?$_Tree_val@U?$_Tree_simple_types@U?$pair@$$CBHPAVRaven_Weapon@@@std@@@std@@@std@@@std@@_N@1@ABH@Z DD 0ffffffffH
	DD	FLAT:__unwindfunclet$??$_Try_emplace@ABH$$V@?$map@HPAVRaven_Weapon@@U?$less@H@std@@V?$allocator@U?$pair@$$CBHPAVRaven_Weapon@@@std@@@3@@std@@QAE?AU?$pair@V?$_Tree_iterator@V?$_Tree_val@U?$_Tree_simple_types@U?$pair@$$CBHPAVRaven_Weapon@@@std@@@std@@@std@@@std@@_N@1@ABH@Z$0
	DD	00H
	DD	FLAT:__unwindfunclet$??$_Try_emplace@ABH$$V@?$map@HPAVRaven_Weapon@@U?$less@H@std@@V?$allocator@U?$pair@$$CBHPAVRaven_Weapon@@@std@@@3@@std@@QAE?AU?$pair@V?$_Tree_iterator@V?$_Tree_val@U?$_Tree_simple_types@U?$pair@$$CBHPAVRaven_Weapon@@@std@@@std@@@std@@@std@@_N@1@ABH@Z$1
__ehfuncinfo$??$_Try_emplace@ABH$$V@?$map@HPAVRaven_Weapon@@U?$less@H@std@@V?$allocator@U?$pair@$$CBHPAVRaven_Weapon@@@std@@@3@@std@@QAE?AU?$pair@V?$_Tree_iterator@V?$_Tree_val@U?$_Tree_simple_types@U?$pair@$$CBHPAVRaven_Weapon@@@std@@@std@@@std@@@std@@_N@1@ABH@Z DD 019930522H
	DD	02H
	DD	FLAT:__unwindtable$??$_Try_emplace@ABH$$V@?$map@HPAVRaven_Weapon@@U?$less@H@std@@V?$allocator@U?$pair@$$CBHPAVRaven_Weapon@@@std@@@3@@std@@QAE?AU?$pair@V?$_Tree_iterator@V?$_Tree_val@U?$_Tree_simple_types@U?$pair@$$CBHPAVRaven_Weapon@@@std@@@std@@@std@@@std@@_N@1@ABH@Z
	DD	2 DUP(00H)
	DD	2 DUP(00H)
	DD	00H
	DD	01H
xdata$x	ENDS
;	COMDAT xdata$x
xdata$x	SEGMENT
__unwindtable$??$_Try_emplace@H$$V@?$map@HPAVRaven_Weapon@@U?$less@H@std@@V?$allocator@U?$pair@$$CBHPAVRaven_Weapon@@@std@@@3@@std@@QAE?AU?$pair@V?$_Tree_iterator@V?$_Tree_val@U?$_Tree_simple_types@U?$pair@$$CBHPAVRaven_Weapon@@@std@@@std@@@std@@@std@@_N@1@$$QAH@Z DD 0ffffffffH
	DD	FLAT:__unwindfunclet$??$_Try_emplace@H$$V@?$map@HPAVRaven_Weapon@@U?$less@H@std@@V?$allocator@U?$pair@$$CBHPAVRaven_Weapon@@@std@@@3@@std@@QAE?AU?$pair@V?$_Tree_iterator@V?$_Tree_val@U?$_Tree_simple_types@U?$pair@$$CBHPAVRaven_Weapon@@@std@@@std@@@std@@@std@@_N@1@$$QAH@Z$0
	DD	00H
	DD	FLAT:__unwindfunclet$??$_Try_emplace@H$$V@?$map@HPAVRaven_Weapon@@U?$less@H@std@@V?$allocator@U?$pair@$$CBHPAVRaven_Weapon@@@std@@@3@@std@@QAE?AU?$pair@V?$_Tree_iterator@V?$_Tree_val@U?$_Tree_simple_types@U?$pair@$$CBHPAVRaven_Weapon@@@std@@@std@@@std@@@std@@_N@1@$$QAH@Z$1
__ehfuncinfo$??$_Try_emplace@H$$V@?$map@HPAVRaven_Weapon@@U?$less@H@std@@V?$allocator@U?$pair@$$CBHPAVRaven_Weapon@@@std@@@3@@std@@QAE?AU?$pair@V?$_Tree_iterator@V?$_Tree_val@U?$_Tree_simple_types@U?$pair@$$CBHPAVRaven_Weapon@@@std@@@std@@@std@@@std@@_N@1@$$QAH@Z DD 019930522H
	DD	02H
	DD	FLAT:__unwindtable$??$_Try_emplace@H$$V@?$map@HPAVRaven_Weapon@@U?$less@H@std@@V?$allocator@U?$pair@$$CBHPAVRaven_Weapon@@@std@@@3@@std@@QAE?AU?$pair@V?$_Tree_iterator@V?$_Tree_val@U?$_Tree_simple_types@U?$pair@$$CBHPAVRaven_Weapon@@@std@@@std@@@std@@@std@@_N@1@$$QAH@Z
	DD	2 DUP(00H)
	DD	2 DUP(00H)
	DD	00H
	DD	01H
xdata$x	ENDS
;	COMDAT xdata$x
xdata$x	SEGMENT
__ehfuncinfo$??$_Freenode0@V?$allocator@U?$_Tree_node@U?$pair@$$CBHPAVRaven_Weapon@@@std@@PAX@std@@@std@@@?$_Tree_node@U?$pair@$$CBHPAVRaven_Weapon@@@std@@PAX@std@@SAXAAV?$allocator@U?$_Tree_node@U?$pair@$$CBHPAVRaven_Weapon@@@std@@PAX@std@@@1@PAU01@@Z DD 019930522H
	DD	00H
	DD	00H
	DD	2 DUP(00H)
	DD	2 DUP(00H)
	DD	00H
	DD	05H
xdata$x	ENDS
;	COMDAT xdata$x
xdata$x	SEGMENT
__unwindtable$??$?0V?$allocator@D@std@@X@?$_String_alloc@U?$_String_base_types@DV?$allocator@D@std@@@std@@@std@@QAE@$$QAV?$allocator@D@1@@Z DD 0ffffffffH
	DD	FLAT:__unwindfunclet$??$?0V?$allocator@D@std@@X@?$_String_alloc@U?$_String_base_types@DV?$allocator@D@std@@@std@@@std@@QAE@$$QAV?$allocator@D@1@@Z$0
__ehfuncinfo$??$?0V?$allocator@D@std@@X@?$_String_alloc@U?$_String_base_types@DV?$allocator@D@std@@@std@@@std@@QAE@$$QAV?$allocator@D@1@@Z DD 019930522H
	DD	01H
	DD	FLAT:__unwindtable$??$?0V?$allocator@D@std@@X@?$_String_alloc@U?$_String_base_types@DV?$allocator@D@std@@@std@@@std@@QAE@$$QAV?$allocator@D@1@@Z
	DD	2 DUP(00H)
	DD	2 DUP(00H)
	DD	00H
	DD	01H
xdata$x	ENDS
;	COMDAT xdata$x
xdata$x	SEGMENT
__unwindtable$??E?$_Tree_const_iterator@V?$_Tree_val@U?$_Tree_simple_types@U?$pair@$$CBHPAVRaven_Weapon@@@std@@@std@@@std@@@std@@QAE?AV01@H@Z DD 0ffffffffH
	DD	FLAT:__unwindfunclet$??E?$_Tree_const_iterator@V?$_Tree_val@U?$_Tree_simple_types@U?$pair@$$CBHPAVRaven_Weapon@@@std@@@std@@@std@@@std@@QAE?AV01@H@Z$0
__ehfuncinfo$??E?$_Tree_const_iterator@V?$_Tree_val@U?$_Tree_simple_types@U?$pair@$$CBHPAVRaven_Weapon@@@std@@@std@@@std@@@std@@QAE?AV01@H@Z DD 019930522H
	DD	01H
	DD	FLAT:__unwindtable$??E?$_Tree_const_iterator@V?$_Tree_val@U?$_Tree_simple_types@U?$pair@$$CBHPAVRaven_Weapon@@@std@@@std@@@std@@@std@@QAE?AV01@H@Z
	DD	2 DUP(00H)
	DD	2 DUP(00H)
	DD	00H
	DD	01H
xdata$x	ENDS
;	COMDAT xdata$x
xdata$x	SEGMENT
__unwindtable$?GetNameOfType@@YA?AV?$basic_string@DU?$char_traits@D@std@@V?$allocator@D@2@@std@@H@Z DD 0ffffffffH
	DD	FLAT:__unwindfunclet$?GetNameOfType@@YA?AV?$basic_string@DU?$char_traits@D@std@@V?$allocator@D@2@@std@@H@Z$0
__ehfuncinfo$?GetNameOfType@@YA?AV?$basic_string@DU?$char_traits@D@std@@V?$allocator@D@2@@std@@H@Z DD 019930522H
	DD	01H
	DD	FLAT:__unwindtable$?GetNameOfType@@YA?AV?$basic_string@DU?$char_traits@D@std@@V?$allocator@D@2@@std@@H@Z
	DD	2 DUP(00H)
	DD	2 DUP(00H)
	DD	00H
	DD	01H
xdata$x	ENDS
xdata$x	SEGMENT
__unwindtable$??0Raven_WeaponSystem@@QAE@PAVRaven_Bot@@NNN@Z DD 0ffffffffH
	DD	FLAT:__unwindfunclet$??0Raven_WeaponSystem@@QAE@PAVRaven_Bot@@NNN@Z$0
__unwindtable$?SelectWeapon@Raven_WeaponSystem@@QAEXXZ DD 0ffffffffH
	DD	FLAT:__unwindfunclet$?SelectWeapon@Raven_WeaponSystem@@QAEXXZ$0
	DD	00H
	DD	FLAT:__unwindfunclet$?SelectWeapon@Raven_WeaponSystem@@QAEXXZ$2
__unwindtable$?AddWeapon@Raven_WeaponSystem@@QAEXI@Z DD 0ffffffffH
	DD	FLAT:__unwindfunclet$?AddWeapon@Raven_WeaponSystem@@QAEXI@Z$0
	DD	0ffffffffH
	DD	FLAT:__unwindfunclet$?AddWeapon@Raven_WeaponSystem@@QAEXI@Z$1
	DD	0ffffffffH
	DD	FLAT:__unwindfunclet$?AddWeapon@Raven_WeaponSystem@@QAEXI@Z$2
__unwindtable$?Initialize@Raven_WeaponSystem@@QAEXXZ DD 0ffffffffH
	DD	FLAT:__unwindfunclet$?Initialize@Raven_WeaponSystem@@QAEXXZ$0
	DD	00H
	DD	FLAT:__unwindfunclet$?Initialize@Raven_WeaponSystem@@QAEXXZ$2
	DD	00H
	DD	FLAT:__unwindfunclet$?Initialize@Raven_WeaponSystem@@QAEXXZ$3
__ehfuncinfo$?RenderDesirabilities@Raven_WeaponSystem@@QBEXXZ DD 019930522H
	DD	07H
	DD	FLAT:__unwindtable$?RenderDesirabilities@Raven_WeaponSystem@@QBEXXZ
	DD	2 DUP(00H)
	DD	2 DUP(00H)
	DD	00H
	DD	01H
__ehfuncinfo$?AddWeapon@Raven_WeaponSystem@@QAEXI@Z DD 019930522H
	DD	03H
	DD	FLAT:__unwindtable$?AddWeapon@Raven_WeaponSystem@@QAEXI@Z
	DD	2 DUP(00H)
	DD	2 DUP(00H)
	DD	00H
	DD	01H
__ehfuncinfo$?SelectWeapon@Raven_WeaponSystem@@QAEXXZ DD 019930522H
	DD	02H
	DD	FLAT:__unwindtable$?SelectWeapon@Raven_WeaponSystem@@QAEXXZ
	DD	2 DUP(00H)
	DD	2 DUP(00H)
	DD	00H
	DD	01H
__ehfuncinfo$?Initialize@Raven_WeaponSystem@@QAEXXZ DD 019930522H
	DD	03H
	DD	FLAT:__unwindtable$?Initialize@Raven_WeaponSystem@@QAEXXZ
	DD	2 DUP(00H)
	DD	2 DUP(00H)
	DD	00H
	DD	01H
__ehfuncinfo$??1Raven_WeaponSystem@@QAE@XZ DD 019930522H
	DD	00H
	DD	00H
	DD	2 DUP(00H)
	DD	2 DUP(00H)
	DD	00H
	DD	05H
__ehfuncinfo$??0Raven_WeaponSystem@@QAE@PAVRaven_Bot@@NNN@Z DD 019930522H
	DD	01H
	DD	FLAT:__unwindtable$??0Raven_WeaponSystem@@QAE@PAVRaven_Bot@@NNN@Z
	DD	2 DUP(00H)
	DD	2 DUP(00H)
	DD	00H
	DD	01H
__unwindtable$?RenderDesirabilities@Raven_WeaponSystem@@QBEXXZ DD 0ffffffffH
	DD	FLAT:__unwindfunclet$?RenderDesirabilities@Raven_WeaponSystem@@QBEXXZ$0
	DD	00H
	DD	FLAT:__unwindfunclet$?RenderDesirabilities@Raven_WeaponSystem@@QBEXXZ$2
	DD	00H
	DD	FLAT:__unwindfunclet$?RenderDesirabilities@Raven_WeaponSystem@@QBEXXZ$4
	DD	00H
	DD	FLAT:__unwindfunclet$?RenderDesirabilities@Raven_WeaponSystem@@QBEXXZ$5
	DD	03H
	DD	FLAT:__unwindfunclet$?RenderDesirabilities@Raven_WeaponSystem@@QBEXXZ$6
	DD	04H
	DD	FLAT:__unwindfunclet$?RenderDesirabilities@Raven_WeaponSystem@@QBEXXZ$7
	DD	05H
	DD	FLAT:__unwindfunclet$?RenderDesirabilities@Raven_WeaponSystem@@QBEXXZ$8
xdata$x	ENDS
;	COMDAT xdata$x
xdata$x	SEGMENT
__unwindtable$??A?$map@HPAVRaven_Weapon@@U?$less@H@std@@V?$allocator@U?$pair@$$CBHPAVRaven_Weapon@@@std@@@3@@std@@QAEAAPAVRaven_Weapon@@ABH@Z DD 0ffffffffH
	DD	FLAT:__unwindfunclet$??A?$map@HPAVRaven_Weapon@@U?$less@H@std@@V?$allocator@U?$pair@$$CBHPAVRaven_Weapon@@@std@@@3@@std@@QAEAAPAVRaven_Weapon@@ABH@Z$0
__ehfuncinfo$??A?$map@HPAVRaven_Weapon@@U?$less@H@std@@V?$allocator@U?$pair@$$CBHPAVRaven_Weapon@@@std@@@3@@std@@QAEAAPAVRaven_Weapon@@ABH@Z DD 019930522H
	DD	01H
	DD	FLAT:__unwindtable$??A?$map@HPAVRaven_Weapon@@U?$less@H@std@@V?$allocator@U?$pair@$$CBHPAVRaven_Weapon@@@std@@@3@@std@@QAEAAPAVRaven_Weapon@@ABH@Z
	DD	2 DUP(00H)
	DD	2 DUP(00H)
	DD	00H
	DD	01H
xdata$x	ENDS
;	COMDAT xdata$x
xdata$x	SEGMENT
__unwindtable$??A?$map@HPAVRaven_Weapon@@U?$less@H@std@@V?$allocator@U?$pair@$$CBHPAVRaven_Weapon@@@std@@@3@@std@@QAEAAPAVRaven_Weapon@@$$QAH@Z DD 0ffffffffH
	DD	FLAT:__unwindfunclet$??A?$map@HPAVRaven_Weapon@@U?$less@H@std@@V?$allocator@U?$pair@$$CBHPAVRaven_Weapon@@@std@@@3@@std@@QAEAAPAVRaven_Weapon@@$$QAH@Z$0
__ehfuncinfo$??A?$map@HPAVRaven_Weapon@@U?$less@H@std@@V?$allocator@U?$pair@$$CBHPAVRaven_Weapon@@@std@@@3@@std@@QAEAAPAVRaven_Weapon@@$$QAH@Z DD 019930522H
	DD	01H
	DD	FLAT:__unwindtable$??A?$map@HPAVRaven_Weapon@@U?$less@H@std@@V?$allocator@U?$pair@$$CBHPAVRaven_Weapon@@@std@@@3@@std@@QAEAAPAVRaven_Weapon@@$$QAH@Z
	DD	2 DUP(00H)
	DD	2 DUP(00H)
	DD	00H
	DD	01H
xdata$x	ENDS
;	COMDAT xdata$x
xdata$x	SEGMENT
__unwindtable$?_Tidy@?$_Tree@V?$_Tmap_traits@HPAVRaven_Weapon@@U?$less@H@std@@V?$allocator@U?$pair@$$CBHPAVRaven_Weapon@@@std@@@3@$0A@@std@@@std@@IAEXXZ DD 0ffffffffH
	DD	FLAT:__unwindfunclet$?_Tidy@?$_Tree@V?$_Tmap_traits@HPAVRaven_Weapon@@U?$less@H@std@@V?$allocator@U?$pair@$$CBHPAVRaven_Weapon@@@std@@@3@$0A@@std@@@std@@IAEXXZ$0
	DD	00H
	DD	FLAT:__unwindfunclet$?_Tidy@?$_Tree@V?$_Tmap_traits@HPAVRaven_Weapon@@U?$less@H@std@@V?$allocator@U?$pair@$$CBHPAVRaven_Weapon@@@std@@@3@$0A@@std@@@std@@IAEXXZ$2
__ehfuncinfo$?_Tidy@?$_Tree@V?$_Tmap_traits@HPAVRaven_Weapon@@U?$less@H@std@@V?$allocator@U?$pair@$$CBHPAVRaven_Weapon@@@std@@@3@$0A@@std@@@std@@IAEXXZ DD 019930522H
	DD	02H
	DD	FLAT:__unwindtable$?_Tidy@?$_Tree@V?$_Tmap_traits@HPAVRaven_Weapon@@U?$less@H@std@@V?$allocator@U?$pair@$$CBHPAVRaven_Weapon@@@std@@@3@$0A@@std@@@std@@IAEXXZ
	DD	2 DUP(00H)
	DD	2 DUP(00H)
	DD	00H
	DD	01H
xdata$x	ENDS
;	COMDAT xdata$x
xdata$x	SEGMENT
__unwindtable$?_Orphan_ptr@?$_Tree@V?$_Tmap_traits@HPAVRaven_Weapon@@U?$less@H@std@@V?$allocator@U?$pair@$$CBHPAVRaven_Weapon@@@std@@@3@$0A@@std@@@std@@IAEXPAU?$_Tree_node@U?$pair@$$CBHPAVRaven_Weapon@@@std@@PAX@2@@Z DD 0ffffffffH
	DD	FLAT:__unwindfunclet$?_Orphan_ptr@?$_Tree@V?$_Tmap_traits@HPAVRaven_Weapon@@U?$less@H@std@@V?$allocator@U?$pair@$$CBHPAVRaven_Weapon@@@std@@@3@$0A@@std@@@std@@IAEXPAU?$_Tree_node@U?$pair@$$CBHPAVRaven_Weapon@@@std@@PAX@2@@Z$0
__ehfuncinfo$?_Orphan_ptr@?$_Tree@V?$_Tmap_traits@HPAVRaven_Weapon@@U?$less@H@std@@V?$allocator@U?$pair@$$CBHPAVRaven_Weapon@@@std@@@3@$0A@@std@@@std@@IAEXPAU?$_Tree_node@U?$pair@$$CBHPAVRaven_Weapon@@@std@@PAX@2@@Z DD 019930522H
	DD	01H
	DD	FLAT:__unwindtable$?_Orphan_ptr@?$_Tree@V?$_Tmap_traits@HPAVRaven_Weapon@@U?$less@H@std@@V?$allocator@U?$pair@$$CBHPAVRaven_Weapon@@@std@@@3@$0A@@std@@@std@@IAEXPAU?$_Tree_node@U?$pair@$$CBHPAVRaven_Weapon@@@std@@PAX@2@@Z
	DD	2 DUP(00H)
	DD	2 DUP(00H)
	DD	00H
	DD	01H
xdata$x	ENDS
;	COMDAT xdata$x
xdata$x	SEGMENT
__ehfuncinfo$?clear@?$_Tree@V?$_Tmap_traits@HPAVRaven_Weapon@@U?$less@H@std@@V?$allocator@U?$pair@$$CBHPAVRaven_Weapon@@@std@@@3@$0A@@std@@@std@@QAEXXZ DD 019930522H
	DD	00H
	DD	00H
	DD	2 DUP(00H)
	DD	2 DUP(00H)
	DD	00H
	DD	05H
xdata$x	ENDS
;	COMDAT xdata$x
xdata$x	SEGMENT
__unwindtable$?erase@?$_Tree@V?$_Tmap_traits@HPAVRaven_Weapon@@U?$less@H@std@@V?$allocator@U?$pair@$$CBHPAVRaven_Weapon@@@std@@@3@$0A@@std@@@std@@QAE?AV?$_Tree_iterator@V?$_Tree_val@U?$_Tree_simple_types@U?$pair@$$CBHPAVRaven_Weapon@@@std@@@std@@@std@@@2@V?$_Tree_const_iterator@V?$_Tree_val@U?$_Tree_simple_types@U?$pair@$$CBHPAVRaven_Weapon@@@std@@@std@@@std@@@2@0@Z DD 0ffffffffH
	DD	FLAT:__unwindfunclet$?erase@?$_Tree@V?$_Tmap_traits@HPAVRaven_Weapon@@U?$less@H@std@@V?$allocator@U?$pair@$$CBHPAVRaven_Weapon@@@std@@@3@$0A@@std@@@std@@QAE?AV?$_Tree_iterator@V?$_Tree_val@U?$_Tree_simple_types@U?$pair@$$CBHPAVRaven_Weapon@@@std@@@std@@@std@@@2@V?$_Tree_const_iterator@V?$_Tree_val@U?$_Tree_simple_types@U?$pair@$$CBHPAVRaven_Weapon@@@std@@@std@@@std@@@2@0@Z$0
	DD	00H
	DD	FLAT:__unwindfunclet$?erase@?$_Tree@V?$_Tmap_traits@HPAVRaven_Weapon@@U?$less@H@std@@V?$allocator@U?$pair@$$CBHPAVRaven_Weapon@@@std@@@3@$0A@@std@@@std@@QAE?AV?$_Tree_iterator@V?$_Tree_val@U?$_Tree_simple_types@U?$pair@$$CBHPAVRaven_Weapon@@@std@@@std@@@std@@@2@V?$_Tree_const_iterator@V?$_Tree_val@U?$_Tree_simple_types@U?$pair@$$CBHPAVRaven_Weapon@@@std@@@std@@@std@@@2@0@Z$1
	DD	01H
	DD	FLAT:__unwindfunclet$?erase@?$_Tree@V?$_Tmap_traits@HPAVRaven_Weapon@@U?$less@H@std@@V?$allocator@U?$pair@$$CBHPAVRaven_Weapon@@@std@@@3@$0A@@std@@@std@@QAE?AV?$_Tree_iterator@V?$_Tree_val@U?$_Tree_simple_types@U?$pair@$$CBHPAVRaven_Weapon@@@std@@@std@@@std@@@2@V?$_Tree_const_iterator@V?$_Tree_val@U?$_Tree_simple_types@U?$pair@$$CBHPAVRaven_Weapon@@@std@@@std@@@std@@@2@0@Z$2
	DD	02H
	DD	FLAT:__unwindfunclet$?erase@?$_Tree@V?$_Tmap_traits@HPAVRaven_Weapon@@U?$less@H@std@@V?$allocator@U?$pair@$$CBHPAVRaven_Weapon@@@std@@@3@$0A@@std@@@std@@QAE?AV?$_Tree_iterator@V?$_Tree_val@U?$_Tree_simple_types@U?$pair@$$CBHPAVRaven_Weapon@@@std@@@std@@@std@@@2@V?$_Tree_const_iterator@V?$_Tree_val@U?$_Tree_simple_types@U?$pair@$$CBHPAVRaven_Weapon@@@std@@@std@@@std@@@2@0@Z$3
__ehfuncinfo$?erase@?$_Tree@V?$_Tmap_traits@HPAVRaven_Weapon@@U?$less@H@std@@V?$allocator@U?$pair@$$CBHPAVRaven_Weapon@@@std@@@3@$0A@@std@@@std@@QAE?AV?$_Tree_iterator@V?$_Tree_val@U?$_Tree_simple_types@U?$pair@$$CBHPAVRaven_Weapon@@@std@@@std@@@std@@@2@V?$_Tree_const_iterator@V?$_Tree_val@U?$_Tree_simple_types@U?$pair@$$CBHPAVRaven_Weapon@@@std@@@std@@@std@@@2@0@Z DD 019930522H
	DD	04H
	DD	FLAT:__unwindtable$?erase@?$_Tree@V?$_Tmap_traits@HPAVRaven_Weapon@@U?$less@H@std@@V?$allocator@U?$pair@$$CBHPAVRaven_Weapon@@@std@@@3@$0A@@std@@@std@@QAE?AV?$_Tree_iterator@V?$_Tree_val@U?$_Tree_simple_types@U?$pair@$$CBHPAVRaven_Weapon@@@std@@@std@@@std@@@2@V?$_Tree_const_iterator@V?$_Tree_val@U?$_Tree_simple_types@U?$pair@$$CBHPAVRaven_Weapon@@@std@@@std@@@std@@@2@0@Z
	DD	2 DUP(00H)
	DD	2 DUP(00H)
	DD	00H
	DD	01H
xdata$x	ENDS
;	COMDAT xdata$x
xdata$x	SEGMENT
__unwindtable$?erase@?$_Tree@V?$_Tmap_traits@HPAVRaven_Weapon@@U?$less@H@std@@V?$allocator@U?$pair@$$CBHPAVRaven_Weapon@@@std@@@3@$0A@@std@@@std@@QAE?AV?$_Tree_iterator@V?$_Tree_val@U?$_Tree_simple_types@U?$pair@$$CBHPAVRaven_Weapon@@@std@@@std@@@std@@@2@V?$_Tree_const_iterator@V?$_Tree_val@U?$_Tree_simple_types@U?$pair@$$CBHPAVRaven_Weapon@@@std@@@std@@@std@@@2@@Z DD 0ffffffffH
	DD	FLAT:__unwindfunclet$?erase@?$_Tree@V?$_Tmap_traits@HPAVRaven_Weapon@@U?$less@H@std@@V?$allocator@U?$pair@$$CBHPAVRaven_Weapon@@@std@@@3@$0A@@std@@@std@@QAE?AV?$_Tree_iterator@V?$_Tree_val@U?$_Tree_simple_types@U?$pair@$$CBHPAVRaven_Weapon@@@std@@@std@@@std@@@2@V?$_Tree_const_iterator@V?$_Tree_val@U?$_Tree_simple_types@U?$pair@$$CBHPAVRaven_Weapon@@@std@@@std@@@std@@@2@@Z$0
	DD	00H
	DD	FLAT:__unwindfunclet$?erase@?$_Tree@V?$_Tmap_traits@HPAVRaven_Weapon@@U?$less@H@std@@V?$allocator@U?$pair@$$CBHPAVRaven_Weapon@@@std@@@3@$0A@@std@@@std@@QAE?AV?$_Tree_iterator@V?$_Tree_val@U?$_Tree_simple_types@U?$pair@$$CBHPAVRaven_Weapon@@@std@@@std@@@std@@@2@V?$_Tree_const_iterator@V?$_Tree_val@U?$_Tree_simple_types@U?$pair@$$CBHPAVRaven_Weapon@@@std@@@std@@@std@@@2@@Z$1
__ehfuncinfo$?erase@?$_Tree@V?$_Tmap_traits@HPAVRaven_Weapon@@U?$less@H@std@@V?$allocator@U?$pair@$$CBHPAVRaven_Weapon@@@std@@@3@$0A@@std@@@std@@QAE?AV?$_Tree_iterator@V?$_Tree_val@U?$_Tree_simple_types@U?$pair@$$CBHPAVRaven_Weapon@@@std@@@std@@@std@@@2@V?$_Tree_const_iterator@V?$_Tree_val@U?$_Tree_simple_types@U?$pair@$$CBHPAVRaven_Weapon@@@std@@@std@@@std@@@2@@Z DD 019930522H
	DD	02H
	DD	FLAT:__unwindtable$?erase@?$_Tree@V?$_Tmap_traits@HPAVRaven_Weapon@@U?$less@H@std@@V?$allocator@U?$pair@$$CBHPAVRaven_Weapon@@@std@@@3@$0A@@std@@@std@@QAE?AV?$_Tree_iterator@V?$_Tree_val@U?$_Tree_simple_types@U?$pair@$$CBHPAVRaven_Weapon@@@std@@@std@@@std@@@2@V?$_Tree_const_iterator@V?$_Tree_val@U?$_Tree_simple_types@U?$pair@$$CBHPAVRaven_Weapon@@@std@@@std@@@std@@@2@@Z
	DD	2 DUP(00H)
	DD	2 DUP(00H)
	DD	00H
	DD	01H
xdata$x	ENDS
;	COMDAT xdata$x
xdata$x	SEGMENT
__ehfuncinfo$?end@?$_Tree@V?$_Tmap_traits@HPAVRaven_Weapon@@U?$less@H@std@@V?$allocator@U?$pair@$$CBHPAVRaven_Weapon@@@std@@@3@$0A@@std@@@std@@QBE?AV?$_Tree_const_iterator@V?$_Tree_val@U?$_Tree_simple_types@U?$pair@$$CBHPAVRaven_Weapon@@@std@@@std@@@std@@@2@XZ DD 019930522H
	DD	00H
	DD	00H
	DD	2 DUP(00H)
	DD	2 DUP(00H)
	DD	00H
	DD	05H
xdata$x	ENDS
;	COMDAT xdata$x
xdata$x	SEGMENT
__ehfuncinfo$?end@?$_Tree@V?$_Tmap_traits@HPAVRaven_Weapon@@U?$less@H@std@@V?$allocator@U?$pair@$$CBHPAVRaven_Weapon@@@std@@@3@$0A@@std@@@std@@QAE?AV?$_Tree_iterator@V?$_Tree_val@U?$_Tree_simple_types@U?$pair@$$CBHPAVRaven_Weapon@@@std@@@std@@@std@@@2@XZ DD 019930522H
	DD	00H
	DD	00H
	DD	2 DUP(00H)
	DD	2 DUP(00H)
	DD	00H
	DD	05H
xdata$x	ENDS
;	COMDAT xdata$x
xdata$x	SEGMENT
__ehfuncinfo$?begin@?$_Tree@V?$_Tmap_traits@HPAVRaven_Weapon@@U?$less@H@std@@V?$allocator@U?$pair@$$CBHPAVRaven_Weapon@@@std@@@3@$0A@@std@@@std@@QBE?AV?$_Tree_const_iterator@V?$_Tree_val@U?$_Tree_simple_types@U?$pair@$$CBHPAVRaven_Weapon@@@std@@@std@@@std@@@2@XZ DD 019930522H
	DD	00H
	DD	00H
	DD	2 DUP(00H)
	DD	2 DUP(00H)
	DD	00H
	DD	05H
xdata$x	ENDS
;	COMDAT xdata$x
xdata$x	SEGMENT
__ehfuncinfo$?begin@?$_Tree@V?$_Tmap_traits@HPAVRaven_Weapon@@U?$less@H@std@@V?$allocator@U?$pair@$$CBHPAVRaven_Weapon@@@std@@@3@$0A@@std@@@std@@QAE?AV?$_Tree_iterator@V?$_Tree_val@U?$_Tree_simple_types@U?$pair@$$CBHPAVRaven_Weapon@@@std@@@std@@@std@@@2@XZ DD 019930522H
	DD	00H
	DD	00H
	DD	2 DUP(00H)
	DD	2 DUP(00H)
	DD	00H
	DD	05H
xdata$x	ENDS
;	COMDAT xdata$x
xdata$x	SEGMENT
__ehfuncinfo$??1?$_Tree@V?$_Tmap_traits@HPAVRaven_Weapon@@U?$less@H@std@@V?$allocator@U?$pair@$$CBHPAVRaven_Weapon@@@std@@@3@$0A@@std@@@std@@QAE@XZ DD 019930522H
	DD	00H
	DD	00H
	DD	2 DUP(00H)
	DD	2 DUP(00H)
	DD	00H
	DD	05H
xdata$x	ENDS
;	COMDAT xdata$x
xdata$x	SEGMENT
__unwindtable$?_Extract@?$_Tree_val@U?$_Tree_simple_types@U?$pair@$$CBHPAVRaven_Weapon@@@std@@@std@@@std@@QAEPAU?$_Tree_node@U?$pair@$$CBHPAVRaven_Weapon@@@std@@PAX@2@V?$_Tree_const_iterator@V?$_Tree_val@U?$_Tree_simple_types@U?$pair@$$CBHPAVRaven_Weapon@@@std@@@std@@@std@@@2@@Z DD 0ffffffffH
	DD	FLAT:__unwindfunclet$?_Extract@?$_Tree_val@U?$_Tree_simple_types@U?$pair@$$CBHPAVRaven_Weapon@@@std@@@std@@@std@@QAEPAU?$_Tree_node@U?$pair@$$CBHPAVRaven_Weapon@@@std@@PAX@2@V?$_Tree_const_iterator@V?$_Tree_val@U?$_Tree_simple_types@U?$pair@$$CBHPAVRaven_Weapon@@@std@@@std@@@std@@@2@@Z$0
__ehfuncinfo$?_Extract@?$_Tree_val@U?$_Tree_simple_types@U?$pair@$$CBHPAVRaven_Weapon@@@std@@@std@@@std@@QAEPAU?$_Tree_node@U?$pair@$$CBHPAVRaven_Weapon@@@std@@PAX@2@V?$_Tree_const_iterator@V?$_Tree_val@U?$_Tree_simple_types@U?$pair@$$CBHPAVRaven_Weapon@@@std@@@std@@@std@@@2@@Z DD 019930522H
	DD	01H
	DD	FLAT:__unwindtable$?_Extract@?$_Tree_val@U?$_Tree_simple_types@U?$pair@$$CBHPAVRaven_Weapon@@@std@@@std@@@std@@QAEPAU?$_Tree_node@U?$pair@$$CBHPAVRaven_Weapon@@@std@@PAX@2@V?$_Tree_const_iterator@V?$_Tree_val@U?$_Tree_simple_types@U?$pair@$$CBHPAVRaven_Weapon@@@std@@@std@@@std@@@2@@Z
	DD	2 DUP(00H)
	DD	2 DUP(00H)
	DD	00H
	DD	01H
xdata$x	ENDS
;	COMDAT xdata$x
xdata$x	SEGMENT
__catchsym$?_Buynode0@?$_Tree_comp_alloc@V?$_Tmap_traits@HPAVRaven_Weapon@@U?$less@H@std@@V?$allocator@U?$pair@$$CBHPAVRaven_Weapon@@@std@@@3@$0A@@std@@@std@@QAEPAU?$_Tree_node@U?$pair@$$CBHPAVRaven_Weapon@@@std@@PAX@2@XZ$2 DD 040H
	DD	00H
	DD	00H
	DD	FLAT:__catch$?_Buynode0@?$_Tree_comp_alloc@V?$_Tmap_traits@HPAVRaven_Weapon@@U?$less@H@std@@V?$allocator@U?$pair@$$CBHPAVRaven_Weapon@@@std@@@3@$0A@@std@@@std@@QAEPAU?$_Tree_node@U?$pair@$$CBHPAVRaven_Weapon@@@std@@PAX@2@XZ$0
__unwindtable$?_Buynode0@?$_Tree_comp_alloc@V?$_Tmap_traits@HPAVRaven_Weapon@@U?$less@H@std@@V?$allocator@U?$pair@$$CBHPAVRaven_Weapon@@@std@@@3@$0A@@std@@@std@@QAEPAU?$_Tree_node@U?$pair@$$CBHPAVRaven_Weapon@@@std@@PAX@2@XZ DD 0ffffffffH
	DD	00H
	DD	0ffffffffH
	DD	00H
__tryblocktable$?_Buynode0@?$_Tree_comp_alloc@V?$_Tmap_traits@HPAVRaven_Weapon@@U?$less@H@std@@V?$allocator@U?$pair@$$CBHPAVRaven_Weapon@@@std@@@3@$0A@@std@@@std@@QAEPAU?$_Tree_node@U?$pair@$$CBHPAVRaven_Weapon@@@std@@PAX@2@XZ DD 00H
	DD	00H
	DD	01H
	DD	01H
	DD	FLAT:__catchsym$?_Buynode0@?$_Tree_comp_alloc@V?$_Tmap_traits@HPAVRaven_Weapon@@U?$less@H@std@@V?$allocator@U?$pair@$$CBHPAVRaven_Weapon@@@std@@@3@$0A@@std@@@std@@QAEPAU?$_Tree_node@U?$pair@$$CBHPAVRaven_Weapon@@@std@@PAX@2@XZ$2
__ehfuncinfo$?_Buynode0@?$_Tree_comp_alloc@V?$_Tmap_traits@HPAVRaven_Weapon@@U?$less@H@std@@V?$allocator@U?$pair@$$CBHPAVRaven_Weapon@@@std@@@3@$0A@@std@@@std@@QAEPAU?$_Tree_node@U?$pair@$$CBHPAVRaven_Weapon@@@std@@PAX@2@XZ DD 019930522H
	DD	02H
	DD	FLAT:__unwindtable$?_Buynode0@?$_Tree_comp_alloc@V?$_Tmap_traits@HPAVRaven_Weapon@@U?$less@H@std@@V?$allocator@U?$pair@$$CBHPAVRaven_Weapon@@@std@@@3@$0A@@std@@@std@@QAEPAU?$_Tree_node@U?$pair@$$CBHPAVRaven_Weapon@@@std@@PAX@2@XZ
	DD	01H
	DD	FLAT:__tryblocktable$?_Buynode0@?$_Tree_comp_alloc@V?$_Tmap_traits@HPAVRaven_Weapon@@U?$less@H@std@@V?$allocator@U?$pair@$$CBHPAVRaven_Weapon@@@std@@@3@$0A@@std@@@std@@QAEPAU?$_Tree_node@U?$pair@$$CBHPAVRaven_Weapon@@@std@@PAX@2@XZ
	DD	2 DUP(00H)
	DD	00H
	DD	01H
xdata$x	ENDS
;	COMDAT xdata$x
xdata$x	SEGMENT
__catchsym$?_Buyheadnode@?$_Tree_comp_alloc@V?$_Tmap_traits@HPAVRaven_Weapon@@U?$less@H@std@@V?$allocator@U?$pair@$$CBHPAVRaven_Weapon@@@std@@@3@$0A@@std@@@std@@QAEPAU?$_Tree_node@U?$pair@$$CBHPAVRaven_Weapon@@@std@@PAX@2@XZ$2 DD 040H
	DD	00H
	DD	00H
	DD	FLAT:__catch$?_Buyheadnode@?$_Tree_comp_alloc@V?$_Tmap_traits@HPAVRaven_Weapon@@U?$less@H@std@@V?$allocator@U?$pair@$$CBHPAVRaven_Weapon@@@std@@@3@$0A@@std@@@std@@QAEPAU?$_Tree_node@U?$pair@$$CBHPAVRaven_Weapon@@@std@@PAX@2@XZ$0
__unwindtable$?_Buyheadnode@?$_Tree_comp_alloc@V?$_Tmap_traits@HPAVRaven_Weapon@@U?$less@H@std@@V?$allocator@U?$pair@$$CBHPAVRaven_Weapon@@@std@@@3@$0A@@std@@@std@@QAEPAU?$_Tree_node@U?$pair@$$CBHPAVRaven_Weapon@@@std@@PAX@2@XZ DD 0ffffffffH
	DD	00H
	DD	0ffffffffH
	DD	00H
__tryblocktable$?_Buyheadnode@?$_Tree_comp_alloc@V?$_Tmap_traits@HPAVRaven_Weapon@@U?$less@H@std@@V?$allocator@U?$pair@$$CBHPAVRaven_Weapon@@@std@@@3@$0A@@std@@@std@@QAEPAU?$_Tree_node@U?$pair@$$CBHPAVRaven_Weapon@@@std@@PAX@2@XZ DD 00H
	DD	00H
	DD	01H
	DD	01H
	DD	FLAT:__catchsym$?_Buyheadnode@?$_Tree_comp_alloc@V?$_Tmap_traits@HPAVRaven_Weapon@@U?$less@H@std@@V?$allocator@U?$pair@$$CBHPAVRaven_Weapon@@@std@@@3@$0A@@std@@@std@@QAEPAU?$_Tree_node@U?$pair@$$CBHPAVRaven_Weapon@@@std@@PAX@2@XZ$2
__ehfuncinfo$?_Buyheadnode@?$_Tree_comp_alloc@V?$_Tmap_traits@HPAVRaven_Weapon@@U?$less@H@std@@V?$allocator@U?$pair@$$CBHPAVRaven_Weapon@@@std@@@3@$0A@@std@@@std@@QAEPAU?$_Tree_node@U?$pair@$$CBHPAVRaven_Weapon@@@std@@PAX@2@XZ DD 019930522H
	DD	02H
	DD	FLAT:__unwindtable$?_Buyheadnode@?$_Tree_comp_alloc@V?$_Tmap_traits@HPAVRaven_Weapon@@U?$less@H@std@@V?$allocator@U?$pair@$$CBHPAVRaven_Weapon@@@std@@@3@$0A@@std@@@std@@QAEPAU?$_Tree_node@U?$pair@$$CBHPAVRaven_Weapon@@@std@@PAX@2@XZ
	DD	01H
	DD	FLAT:__tryblocktable$?_Buyheadnode@?$_Tree_comp_alloc@V?$_Tmap_traits@HPAVRaven_Weapon@@U?$less@H@std@@V?$allocator@U?$pair@$$CBHPAVRaven_Weapon@@@std@@@3@$0A@@std@@@std@@QAEPAU?$_Tree_node@U?$pair@$$CBHPAVRaven_Weapon@@@std@@PAX@2@XZ
	DD	2 DUP(00H)
	DD	00H
	DD	01H
xdata$x	ENDS
;	COMDAT xdata$x
xdata$x	SEGMENT
__ehfuncinfo$??1?$_Tree_comp_alloc@V?$_Tmap_traits@HPAVRaven_Weapon@@U?$less@H@std@@V?$allocator@U?$pair@$$CBHPAVRaven_Weapon@@@std@@@3@$0A@@std@@@std@@QAE@XZ DD 019930522H
	DD	00H
	DD	00H
	DD	2 DUP(00H)
	DD	2 DUP(00H)
	DD	00H
	DD	05H
xdata$x	ENDS
;	COMDAT xdata$x
xdata$x	SEGMENT
__catchsym$?_Construct@?$_Tree_comp_alloc@V?$_Tmap_traits@HPAVRaven_Weapon@@U?$less@H@std@@V?$allocator@U?$pair@$$CBHPAVRaven_Weapon@@@std@@@3@$0A@@std@@@std@@QAEXXZ$2 DD 040H
	DD	00H
	DD	00H
	DD	FLAT:__catch$?_Construct@?$_Tree_comp_alloc@V?$_Tmap_traits@HPAVRaven_Weapon@@U?$less@H@std@@V?$allocator@U?$pair@$$CBHPAVRaven_Weapon@@@std@@@3@$0A@@std@@@std@@QAEXXZ$0
__unwindtable$?_Construct@?$_Tree_comp_alloc@V?$_Tmap_traits@HPAVRaven_Weapon@@U?$less@H@std@@V?$allocator@U?$pair@$$CBHPAVRaven_Weapon@@@std@@@3@$0A@@std@@@std@@QAEXXZ DD 0ffffffffH
	DD	00H
	DD	0ffffffffH
	DD	00H
__tryblocktable$?_Construct@?$_Tree_comp_alloc@V?$_Tmap_traits@HPAVRaven_Weapon@@U?$less@H@std@@V?$allocator@U?$pair@$$CBHPAVRaven_Weapon@@@std@@@3@$0A@@std@@@std@@QAEXXZ DD 00H
	DD	00H
	DD	01H
	DD	01H
	DD	FLAT:__catchsym$?_Construct@?$_Tree_comp_alloc@V?$_Tmap_traits@HPAVRaven_Weapon@@U?$less@H@std@@V?$allocator@U?$pair@$$CBHPAVRaven_Weapon@@@std@@@3@$0A@@std@@@std@@QAEXXZ$2
__ehfuncinfo$?_Construct@?$_Tree_comp_alloc@V?$_Tmap_traits@HPAVRaven_Weapon@@U?$less@H@std@@V?$allocator@U?$pair@$$CBHPAVRaven_Weapon@@@std@@@3@$0A@@std@@@std@@QAEXXZ DD 019930522H
	DD	02H
	DD	FLAT:__unwindtable$?_Construct@?$_Tree_comp_alloc@V?$_Tmap_traits@HPAVRaven_Weapon@@U?$less@H@std@@V?$allocator@U?$pair@$$CBHPAVRaven_Weapon@@@std@@@3@$0A@@std@@@std@@QAEXXZ
	DD	01H
	DD	FLAT:__tryblocktable$?_Construct@?$_Tree_comp_alloc@V?$_Tmap_traits@HPAVRaven_Weapon@@U?$less@H@std@@V?$allocator@U?$pair@$$CBHPAVRaven_Weapon@@@std@@@3@$0A@@std@@@std@@QAEXXZ
	DD	2 DUP(00H)
	DD	00H
	DD	01H
xdata$x	ENDS
;	COMDAT xdata$x
xdata$x	SEGMENT
__unwindtable$??$_Floating_to_string@N@std@@YA?AV?$basic_string@DU?$char_traits@D@std@@V?$allocator@D@2@@0@PBDN@Z DD 0ffffffffH
	DD	FLAT:__unwindfunclet$??$_Floating_to_string@N@std@@YA?AV?$basic_string@DU?$char_traits@D@std@@V?$allocator@D@2@@0@PBDN@Z$0
__ehfuncinfo$??$_Floating_to_string@N@std@@YA?AV?$basic_string@DU?$char_traits@D@std@@V?$allocator@D@2@@0@PBDN@Z DD 019930522H
	DD	01H
	DD	FLAT:__unwindtable$??$_Floating_to_string@N@std@@YA?AV?$basic_string@DU?$char_traits@D@std@@V?$allocator@D@2@@0@PBDN@Z
	DD	2 DUP(00H)
	DD	2 DUP(00H)
	DD	00H
	DD	01H
xdata$x	ENDS
;	COMDAT xdata$x
xdata$x	SEGMENT
__ehfuncinfo$?c_str@?$basic_string@DU?$char_traits@D@std@@V?$allocator@D@2@@std@@QBEPBDXZ DD 019930522H
	DD	00H
	DD	00H
	DD	2 DUP(00H)
	DD	2 DUP(00H)
	DD	00H
	DD	05H
xdata$x	ENDS
;	COMDAT xdata$x
xdata$x	SEGMENT
__ehfuncinfo$??1?$basic_string@DU?$char_traits@D@std@@V?$allocator@D@2@@std@@QAE@XZ DD 019930522H
	DD	00H
	DD	00H
	DD	2 DUP(00H)
	DD	2 DUP(00H)
	DD	00H
	DD	05H
xdata$x	ENDS
;	COMDAT xdata$x
xdata$x	SEGMENT
__ehfuncinfo$?_Assign_rv_contents_with_alloc_always_equal@?$basic_string@DU?$char_traits@D@std@@V?$allocator@D@2@@std@@QAEX$$QAV12@U?$integral_constant@_N$00@2@@Z DD 019930522H
	DD	00H
	DD	00H
	DD	2 DUP(00H)
	DD	2 DUP(00H)
	DD	00H
	DD	05H
xdata$x	ENDS
;	COMDAT xdata$x
xdata$x	SEGMENT
__ehfuncinfo$??0?$basic_string@DU?$char_traits@D@std@@V?$allocator@D@2@@std@@QAE@$$QAV01@@Z DD 019930522H
	DD	00H
	DD	00H
	DD	2 DUP(00H)
	DD	2 DUP(00H)
	DD	00H
	DD	05H
xdata$x	ENDS
;	COMDAT xdata$x
xdata$x	SEGMENT
__unwindtable$??0?$basic_string@DU?$char_traits@D@std@@V?$allocator@D@2@@std@@QAE@ID@Z DD 0ffffffffH
	DD	FLAT:__unwindfunclet$??0?$basic_string@DU?$char_traits@D@std@@V?$allocator@D@2@@std@@QAE@ID@Z$0
__ehfuncinfo$??0?$basic_string@DU?$char_traits@D@std@@V?$allocator@D@2@@std@@QAE@ID@Z DD 019930522H
	DD	01H
	DD	FLAT:__unwindtable$??0?$basic_string@DU?$char_traits@D@std@@V?$allocator@D@2@@std@@QAE@ID@Z
	DD	2 DUP(00H)
	DD	2 DUP(00H)
	DD	00H
	DD	01H
xdata$x	ENDS
;	COMDAT xdata$x
xdata$x	SEGMENT
__ehfuncinfo$??0?$basic_string@DU?$char_traits@D@std@@V?$allocator@D@2@@std@@QAE@XZ DD 019930522H
	DD	00H
	DD	00H
	DD	2 DUP(00H)
	DD	2 DUP(00H)
	DD	00H
	DD	05H
xdata$x	ENDS
;	COMDAT xdata$x
xdata$x	SEGMENT
__ehfuncinfo$??1?$_String_alloc@U?$_String_base_types@DV?$allocator@D@std@@@std@@@std@@QAE@XZ DD 019930522H
	DD	00H
	DD	00H
	DD	2 DUP(00H)
	DD	2 DUP(00H)
	DD	00H
	DD	05H
xdata$x	ENDS
;	COMDAT xdata$x
xdata$x	SEGMENT
__unwindtable$??0?$_String_alloc@U?$_String_base_types@DV?$allocator@D@std@@@std@@@std@@QAE@XZ DD 0ffffffffH
	DD	FLAT:__unwindfunclet$??0?$_String_alloc@U?$_String_base_types@DV?$allocator@D@std@@@std@@@std@@QAE@XZ$0
__ehfuncinfo$??0?$_String_alloc@U?$_String_base_types@DV?$allocator@D@std@@@std@@@std@@QAE@XZ DD 019930522H
	DD	01H
	DD	FLAT:__unwindtable$??0?$_String_alloc@U?$_String_base_types@DV?$allocator@D@std@@@std@@@std@@QAE@XZ
	DD	2 DUP(00H)
	DD	2 DUP(00H)
	DD	00H
	DD	01H
xdata$x	ENDS
;	COMDAT xdata$x
xdata$x	SEGMENT
__ehfuncinfo$?_Adopt@_Iterator_base12@std@@QAEXPBU_Container_base12@2@@Z DD 019930522H
	DD	00H
	DD	00H
	DD	2 DUP(00H)
	DD	2 DUP(00H)
	DD	00H
	DD	05H
xdata$x	ENDS
;	COMDAT xdata$x
xdata$x	SEGMENT
__ehfuncinfo$??1_Iterator_base12@std@@QAE@XZ DD 019930522H
	DD	00H
	DD	00H
	DD	2 DUP(00H)
	DD	2 DUP(00H)
	DD	00H
	DD	05H
xdata$x	ENDS
;	COMDAT xdata$x
xdata$x	SEGMENT
__ehfuncinfo$??4_Iterator_base12@std@@QAEAAU01@ABU01@@Z DD 019930522H
	DD	00H
	DD	00H
	DD	2 DUP(00H)
	DD	2 DUP(00H)
	DD	00H
	DD	05H
xdata$x	ENDS
;	COMDAT xdata$x
xdata$x	SEGMENT
__ehfuncinfo$?_Swap_all@_Container_base12@std@@QAEXAAU12@@Z DD 019930522H
	DD	00H
	DD	00H
	DD	2 DUP(00H)
	DD	2 DUP(00H)
	DD	00H
	DD	05H
xdata$x	ENDS
;	COMDAT xdata$x
xdata$x	SEGMENT
__ehfuncinfo$?_Orphan_all@_Container_base12@std@@QAEXXZ DD 019930522H
	DD	00H
	DD	00H
	DD	2 DUP(00H)
	DD	2 DUP(00H)
	DD	00H
	DD	05H
xdata$x	ENDS
CRT$XCU	SEGMENT
?MaxDouble$initializer$@@3P6AXXZA DD FLAT:??__EMaxDouble@@YAXXZ ; MaxDouble$initializer$
CRT$XCU	ENDS
CRT$XCU	SEGMENT
?MinDouble$initializer$@@3P6AXXZA DD FLAT:??__EMinDouble@@YAXXZ ; MinDouble$initializer$
CRT$XCU	ENDS
CRT$XCU	SEGMENT
?MaxFloat$initializer$@@3P6AXXZA DD FLAT:??__EMaxFloat@@YAXXZ ; MaxFloat$initializer$
CRT$XCU	ENDS
CRT$XCU	SEGMENT
?MinFloat$initializer$@@3P6AXXZA DD FLAT:??__EMinFloat@@YAXXZ ; MinFloat$initializer$
CRT$XCU	ENDS
;	COMDAT CRT$XCU
CRT$XCU	SEGMENT
??id$initializer$@?$collate@D@std@@2P6AXXZA@@3P6AXXZA DD FLAT:??__E?id@?$collate@D@std@@2V0locale@2@A@@YAXXZ ; ??id$initializer$@?$collate@D@std@@2P6AXXZA@@3P6AXXZA
CRT$XCU	ENDS
;	COMDAT CRT$XCU
CRT$XCU	SEGMENT
??id$initializer$@?$codecvt@DDU_Mbstatet@@@std@@2P6AXXZA@@3P6AXXZA DD FLAT:??__E?id@?$codecvt@DDU_Mbstatet@@@std@@2V0locale@2@A@@YAXXZ ; ??id$initializer$@?$codecvt@DDU_Mbstatet@@@std@@2P6AXXZA@@3P6AXXZA
CRT$XCU	ENDS
;	COMDAT CRT$XCU
CRT$XCU	SEGMENT
??id$initializer$@?$num_get@DV?$istreambuf_iterator@DU?$char_traits@D@std@@@std@@@std@@2P6AXXZA@@3P6AXXZA DD FLAT:??__E?id@?$num_get@DV?$istreambuf_iterator@DU?$char_traits@D@std@@@std@@@std@@2V0locale@2@A@@YAXXZ ; ??id$initializer$@?$num_get@DV?$istreambuf_iterator@DU?$char_traits@D@std@@@std@@@std@@2P6AXXZA@@3P6AXXZA
CRT$XCU	ENDS
;	COMDAT CRT$XCU
CRT$XCU	SEGMENT
??id$initializer$@?$numpunct@D@std@@2P6AXXZA@@3P6AXXZA DD FLAT:??__E?id@?$numpunct@D@std@@2V0locale@2@A@@YAXXZ ; ??id$initializer$@?$numpunct@D@std@@2P6AXXZA@@3P6AXXZA
CRT$XCU	ENDS
; Function compile flags: /Odtp /RTCsu
; File c:\program files (x86)\microsoft visual studio\2017\community\vc\tools\msvc\14.15.26726\include\type_traits
;	COMDAT ??$forward@$$QAH@std@@YA$$QAHAAH@Z
_TEXT	SEGMENT
__Arg$ = 8						; size = 4
??$forward@$$QAH@std@@YA$$QAHAAH@Z PROC			; std::forward<int &&>, COMDAT

; 1573 : 	{	// forward an lvalue as either an lvalue or an rvalue

	push	ebp
	mov	ebp, esp

; 1574 : 	return (static_cast<_Ty&&>(_Arg));

	mov	eax, DWORD PTR __Arg$[ebp]

; 1575 : 	}

	pop	ebp
	ret	0
??$forward@$$QAH@std@@YA$$QAHAAH@Z ENDP			; std::forward<int &&>
_TEXT	ENDS
; Function compile flags: /Odtp /RTCsu
; File c:\program files (x86)\microsoft visual studio\2017\community\vc\tools\msvc\14.15.26726\include\tuple
;	COMDAT ??$get@$0A@ABH@std@@YAABH$$QAV?$tuple@ABH@0@@Z
_TEXT	SEGMENT
__Tuple$ = 8						; size = 4
??$get@$0A@ABH@std@@YAABH$$QAV?$tuple@ABH@0@@Z PROC	; std::get<0,int const &>, COMDAT

; 978  : 	{	// get rvalue reference to _Index element of tuple

	push	ebp
	mov	ebp, esp

; 979  : 	typedef typename tuple_element<_Index, tuple<_Types...>>::_Ttype _Ttype;
; 980  : 	typedef tuple_element_t<_Index, tuple<_Types...>>&& _RRtype;
; 981  : 	return (_STD forward<_RRtype>(((_Ttype&)_Tuple)._Myfirst._Val));

	mov	eax, DWORD PTR __Tuple$[ebp]
	mov	ecx, DWORD PTR [eax]
	push	ecx
	call	??$forward@ABH@std@@YAABHABH@Z		; std::forward<int const &>
	add	esp, 4

; 982  : 	}

	cmp	ebp, esp
	call	__RTC_CheckEsp
	pop	ebp
	ret	0
??$get@$0A@ABH@std@@YAABH$$QAV?$tuple@ABH@0@@Z ENDP	; std::get<0,int const &>
_TEXT	ENDS
; Function compile flags: /Odtp /RTCsu
; File c:\program files (x86)\microsoft visual studio\2017\community\vc\tools\msvc\14.15.26726\include\type_traits
;	COMDAT ??$move@AAV?$tuple@ABH@std@@@std@@YA$$QAV?$tuple@ABH@0@AAV10@@Z
_TEXT	SEGMENT
__Arg$ = 8						; size = 4
??$move@AAV?$tuple@ABH@std@@@std@@YA$$QAV?$tuple@ABH@0@AAV10@@Z PROC ; std::move<std::tuple<int const &> &>, COMDAT

; 1588 : 	{	// forward _Arg as movable

	push	ebp
	mov	ebp, esp

; 1589 : 	return (static_cast<remove_reference_t<_Ty>&&>(_Arg));

	mov	eax, DWORD PTR __Arg$[ebp]

; 1590 : 	}

	pop	ebp
	ret	0
??$move@AAV?$tuple@ABH@std@@@std@@YA$$QAV?$tuple@ABH@0@AAV10@@Z ENDP ; std::move<std::tuple<int const &> &>
_TEXT	ENDS
; Function compile flags: /Odtp /RTCsu
; File c:\program files (x86)\microsoft visual studio\2017\community\vc\tools\msvc\14.15.26726\include\tuple
;	COMDAT ??$get@$0A@$$QAH@std@@YA$$QAH$$QAV?$tuple@$$QAH@0@@Z
_TEXT	SEGMENT
__Tuple$ = 8						; size = 4
??$get@$0A@$$QAH@std@@YA$$QAH$$QAV?$tuple@$$QAH@0@@Z PROC ; std::get<0,int &&>, COMDAT

; 978  : 	{	// get rvalue reference to _Index element of tuple

	push	ebp
	mov	ebp, esp

; 979  : 	typedef typename tuple_element<_Index, tuple<_Types...>>::_Ttype _Ttype;
; 980  : 	typedef tuple_element_t<_Index, tuple<_Types...>>&& _RRtype;
; 981  : 	return (_STD forward<_RRtype>(((_Ttype&)_Tuple)._Myfirst._Val));

	mov	eax, DWORD PTR __Tuple$[ebp]
	mov	ecx, DWORD PTR [eax]
	push	ecx
	call	??$forward@$$QAH@std@@YA$$QAHAAH@Z	; std::forward<int &&>
	add	esp, 4

; 982  : 	}

	cmp	ebp, esp
	call	__RTC_CheckEsp
	pop	ebp
	ret	0
??$get@$0A@$$QAH@std@@YA$$QAH$$QAV?$tuple@$$QAH@0@@Z ENDP ; std::get<0,int &&>
_TEXT	ENDS
; Function compile flags: /Odtp /RTCsu
; File c:\program files (x86)\microsoft visual studio\2017\community\vc\tools\msvc\14.15.26726\include\type_traits
;	COMDAT ??$move@AAV?$tuple@$$QAH@std@@@std@@YA$$QAV?$tuple@$$QAH@0@AAV10@@Z
_TEXT	SEGMENT
__Arg$ = 8						; size = 4
??$move@AAV?$tuple@$$QAH@std@@@std@@YA$$QAV?$tuple@$$QAH@0@AAV10@@Z PROC ; std::move<std::tuple<int &&> &>, COMDAT

; 1588 : 	{	// forward _Arg as movable

	push	ebp
	mov	ebp, esp

; 1589 : 	return (static_cast<remove_reference_t<_Ty>&&>(_Arg));

	mov	eax, DWORD PTR __Arg$[ebp]

; 1590 : 	}

	pop	ebp
	ret	0
??$move@AAV?$tuple@$$QAH@std@@@std@@YA$$QAV?$tuple@$$QAH@0@AAV10@@Z ENDP ; std::move<std::tuple<int &&> &>
_TEXT	ENDS
; Function compile flags: /Odtp /RTCsu
; File c:\program files (x86)\microsoft visual studio\2017\community\vc\tools\msvc\14.15.26726\include\tuple
;	COMDAT ??$?0V?$tuple@ABH@std@@V?$tuple@$$V@1@$0A@$$Z$S@?$pair@$$CBHPAVRaven_Weapon@@@std@@QAE@AAV?$tuple@ABH@1@AAV?$tuple@$$V@1@U?$integer_sequence@I$0A@@1@U?$integer_sequence@I$S@1@@Z
_TEXT	SEGMENT
_this$ = -4						; size = 4
__Val1$ = 8						; size = 4
__Val2$ = 12						; size = 4
___formal$ = 16						; size = 1
___formal$ = 20						; size = 1
??$?0V?$tuple@ABH@std@@V?$tuple@$$V@1@$0A@$$Z$S@?$pair@$$CBHPAVRaven_Weapon@@@std@@QAE@AAV?$tuple@ABH@1@AAV?$tuple@$$V@1@U?$integer_sequence@I$0A@@1@U?$integer_sequence@I$S@1@@Z PROC ; std::pair<int const ,Raven_Weapon *>::pair<int const ,Raven_Weapon *><std::tuple<int const &>,std::tuple<>,0>, COMDAT
; _this$ = ecx

; 1306 : 		{	// construct from pair of tuples

	push	ebp
	mov	ebp, esp
	push	ecx
	mov	DWORD PTR [ebp-4], -858993460		; ccccccccH
	mov	DWORD PTR _this$[ebp], ecx

; 1304 : 		: first(_STD get<_Indexes1>(_STD move(_Val1))...),

	mov	eax, DWORD PTR __Val1$[ebp]
	push	eax
	call	??$move@AAV?$tuple@ABH@std@@@std@@YA$$QAV?$tuple@ABH@0@AAV10@@Z ; std::move<std::tuple<int const &> &>
	add	esp, 4
	push	eax
	call	??$get@$0A@ABH@std@@YAABH$$QAV?$tuple@ABH@0@@Z ; std::get<0,int const &>
	add	esp, 4
	mov	ecx, DWORD PTR _this$[ebp]
	mov	edx, DWORD PTR [eax]
	mov	DWORD PTR [ecx], edx

; 1305 : 			second(_STD get<_Indexes2>(_STD move(_Val2))...)

	mov	eax, DWORD PTR _this$[ebp]
	mov	DWORD PTR [eax+4], 0

; 1307 : 		}

	mov	eax, DWORD PTR _this$[ebp]
	add	esp, 4
	cmp	ebp, esp
	call	__RTC_CheckEsp
	mov	esp, ebp
	pop	ebp
	ret	16					; 00000010H
??$?0V?$tuple@ABH@std@@V?$tuple@$$V@1@$0A@$$Z$S@?$pair@$$CBHPAVRaven_Weapon@@@std@@QAE@AAV?$tuple@ABH@1@AAV?$tuple@$$V@1@U?$integer_sequence@I$0A@@1@U?$integer_sequence@I$S@1@@Z ENDP ; std::pair<int const ,Raven_Weapon *>::pair<int const ,Raven_Weapon *><std::tuple<int const &>,std::tuple<>,0>
_TEXT	ENDS
; Function compile flags: /Odtp /RTCsu
; File c:\program files (x86)\microsoft visual studio\2017\community\vc\tools\msvc\14.15.26726\include\tuple
;	COMDAT ??$?0V?$tuple@$$QAH@std@@V?$tuple@$$V@1@$0A@$$Z$S@?$pair@$$CBHPAVRaven_Weapon@@@std@@QAE@AAV?$tuple@$$QAH@1@AAV?$tuple@$$V@1@U?$integer_sequence@I$0A@@1@U?$integer_sequence@I$S@1@@Z
_TEXT	SEGMENT
_this$ = -4						; size = 4
__Val1$ = 8						; size = 4
__Val2$ = 12						; size = 4
___formal$ = 16						; size = 1
___formal$ = 20						; size = 1
??$?0V?$tuple@$$QAH@std@@V?$tuple@$$V@1@$0A@$$Z$S@?$pair@$$CBHPAVRaven_Weapon@@@std@@QAE@AAV?$tuple@$$QAH@1@AAV?$tuple@$$V@1@U?$integer_sequence@I$0A@@1@U?$integer_sequence@I$S@1@@Z PROC ; std::pair<int const ,Raven_Weapon *>::pair<int const ,Raven_Weapon *><std::tuple<int &&>,std::tuple<>,0>, COMDAT
; _this$ = ecx

; 1306 : 		{	// construct from pair of tuples

	push	ebp
	mov	ebp, esp
	push	ecx
	mov	DWORD PTR [ebp-4], -858993460		; ccccccccH
	mov	DWORD PTR _this$[ebp], ecx

; 1304 : 		: first(_STD get<_Indexes1>(_STD move(_Val1))...),

	mov	eax, DWORD PTR __Val1$[ebp]
	push	eax
	call	??$move@AAV?$tuple@$$QAH@std@@@std@@YA$$QAV?$tuple@$$QAH@0@AAV10@@Z ; std::move<std::tuple<int &&> &>
	add	esp, 4
	push	eax
	call	??$get@$0A@$$QAH@std@@YA$$QAH$$QAV?$tuple@$$QAH@0@@Z ; std::get<0,int &&>
	add	esp, 4
	mov	ecx, DWORD PTR _this$[ebp]
	mov	edx, DWORD PTR [eax]
	mov	DWORD PTR [ecx], edx

; 1305 : 			second(_STD get<_Indexes2>(_STD move(_Val2))...)

	mov	eax, DWORD PTR _this$[ebp]
	mov	DWORD PTR [eax+4], 0

; 1307 : 		}

	mov	eax, DWORD PTR _this$[ebp]
	add	esp, 4
	cmp	ebp, esp
	call	__RTC_CheckEsp
	mov	esp, ebp
	pop	ebp
	ret	16					; 00000010H
??$?0V?$tuple@$$QAH@std@@V?$tuple@$$V@1@$0A@$$Z$S@?$pair@$$CBHPAVRaven_Weapon@@@std@@QAE@AAV?$tuple@$$QAH@1@AAV?$tuple@$$V@1@U?$integer_sequence@I$0A@@1@U?$integer_sequence@I$S@1@@Z ENDP ; std::pair<int const ,Raven_Weapon *>::pair<int const ,Raven_Weapon *><std::tuple<int &&>,std::tuple<>,0>
_TEXT	ENDS
; Function compile flags: /Odtp /RTCsu
; File c:\program files (x86)\microsoft visual studio\2017\community\vc\tools\msvc\14.15.26726\include\tuple
;	COMDAT ??$?0ABH$$Z$$V@?$pair@$$CBHPAVRaven_Weapon@@@std@@QAE@Upiecewise_construct_t@1@V?$tuple@ABH@1@V?$tuple@$$V@1@@Z
_TEXT	SEGMENT
$T1 = -6						; size = 1
$T2 = -5						; size = 1
_this$ = -4						; size = 4
___formal$ = 8						; size = 1
__Val1$ = 12						; size = 4
__Val2$ = 16						; size = 1
??$?0ABH$$Z$$V@?$pair@$$CBHPAVRaven_Weapon@@@std@@QAE@Upiecewise_construct_t@1@V?$tuple@ABH@1@V?$tuple@$$V@1@@Z PROC ; std::pair<int const ,Raven_Weapon *>::pair<int const ,Raven_Weapon *><int const &>, COMDAT
; _this$ = ecx

; 1321 : 		{	// construct from pair of tuples

	push	ebp
	mov	ebp, esp
	sub	esp, 8
	mov	DWORD PTR [ebp-8], -858993460		; ccccccccH
	mov	DWORD PTR [ebp-4], -858993460		; ccccccccH
	mov	DWORD PTR _this$[ebp], ecx

; 1318 : 		: pair(_Val1, _Val2,

	movzx	eax, BYTE PTR $T2[ebp]
	push	eax
	movzx	ecx, BYTE PTR $T1[ebp]
	push	ecx
	lea	edx, DWORD PTR __Val2$[ebp]
	push	edx
	lea	eax, DWORD PTR __Val1$[ebp]
	push	eax
	mov	ecx, DWORD PTR _this$[ebp]
	call	??$?0V?$tuple@ABH@std@@V?$tuple@$$V@1@$0A@$$Z$S@?$pair@$$CBHPAVRaven_Weapon@@@std@@QAE@AAV?$tuple@ABH@1@AAV?$tuple@$$V@1@U?$integer_sequence@I$0A@@1@U?$integer_sequence@I$S@1@@Z ; std::pair<int const ,Raven_Weapon *>::pair<int const ,Raven_Weapon *><std::tuple<int const &>,std::tuple<>,0>

; 1322 : 		}

	mov	eax, DWORD PTR _this$[ebp]
	add	esp, 8
	cmp	ebp, esp
	call	__RTC_CheckEsp
	mov	esp, ebp
	pop	ebp
	ret	12					; 0000000cH
??$?0ABH$$Z$$V@?$pair@$$CBHPAVRaven_Weapon@@@std@@QAE@Upiecewise_construct_t@1@V?$tuple@ABH@1@V?$tuple@$$V@1@@Z ENDP ; std::pair<int const ,Raven_Weapon *>::pair<int const ,Raven_Weapon *><int const &>
_TEXT	ENDS
; Function compile flags: /Odtp /RTCsu
; File c:\program files (x86)\microsoft visual studio\2017\community\vc\tools\msvc\14.15.26726\include\tuple
;	COMDAT ??$?0ABH@?$_Tuple_val@ABH@std@@QAE@ABH@Z
_TEXT	SEGMENT
_this$ = -4						; size = 4
__Arg$ = 8						; size = 4
??$?0ABH@?$_Tuple_val@ABH@std@@QAE@ABH@Z PROC		; std::_Tuple_val<int const &>::_Tuple_val<int const &><int const &>, COMDAT
; _this$ = ecx

; 237  : 		{	// construct with argument

	push	ebp
	mov	ebp, esp
	push	ecx
	mov	DWORD PTR [ebp-4], -858993460		; ccccccccH
	mov	DWORD PTR _this$[ebp], ecx

; 236  : 		: _Val(_STD forward<_Other>(_Arg))

	mov	eax, DWORD PTR __Arg$[ebp]
	push	eax
	call	??$forward@ABH@std@@YAABHABH@Z		; std::forward<int const &>
	add	esp, 4
	mov	ecx, DWORD PTR _this$[ebp]
	mov	DWORD PTR [ecx], eax

; 238  : 		}

	mov	eax, DWORD PTR _this$[ebp]
	add	esp, 4
	cmp	ebp, esp
	call	__RTC_CheckEsp
	mov	esp, ebp
	pop	ebp
	ret	4
??$?0ABH@?$_Tuple_val@ABH@std@@QAE@ABH@Z ENDP		; std::_Tuple_val<int const &>::_Tuple_val<int const &><int const &>
_TEXT	ENDS
; Function compile flags: /Odtp /RTCsu
; File c:\program files (x86)\microsoft visual studio\2017\community\vc\tools\msvc\14.15.26726\include\xtree
;	COMDAT ??$_Buy_if_not_node@AAU?$pair@$$CBHPAVRaven_Weapon@@@std@@@?$_Tree@V?$_Tmap_traits@HPAVRaven_Weapon@@U?$less@H@std@@V?$allocator@U?$pair@$$CBHPAVRaven_Weapon@@@std@@@3@$0A@@std@@@std@@IAEPAU?$_Tree_node@U?$pair@$$CBHPAVRaven_Weapon@@@std@@PAX@1@PAU21@AAU?$pair@$$CBHPAVRaven_Weapon@@@1@@Z
_TEXT	SEGMENT
_this$ = -4						; size = 4
__Node$ = 8						; size = 4
___formal$ = 12						; size = 4
??$_Buy_if_not_node@AAU?$pair@$$CBHPAVRaven_Weapon@@@std@@@?$_Tree@V?$_Tmap_traits@HPAVRaven_Weapon@@U?$less@H@std@@V?$allocator@U?$pair@$$CBHPAVRaven_Weapon@@@std@@@3@$0A@@std@@@std@@IAEPAU?$_Tree_node@U?$pair@$$CBHPAVRaven_Weapon@@@std@@PAX@1@PAU21@AAU?$pair@$$CBHPAVRaven_Weapon@@@1@@Z PROC ; std::_Tree<std::_Tmap_traits<int,Raven_Weapon *,std::less<int>,std::allocator<std::pair<int const ,Raven_Weapon *> >,0> >::_Buy_if_not_node<std::pair<int const ,Raven_Weapon *> &>, COMDAT
; _this$ = ecx

; 1574 : 		{	// node exists, just return it

	push	ebp
	mov	ebp, esp
	push	ecx
	mov	DWORD PTR [ebp-4], -858993460		; ccccccccH
	mov	DWORD PTR _this$[ebp], ecx

; 1575 : 		return (_Node);

	mov	eax, DWORD PTR __Node$[ebp]

; 1576 : 		}

	mov	esp, ebp
	pop	ebp
	ret	8
??$_Buy_if_not_node@AAU?$pair@$$CBHPAVRaven_Weapon@@@std@@@?$_Tree@V?$_Tmap_traits@HPAVRaven_Weapon@@U?$less@H@std@@V?$allocator@U?$pair@$$CBHPAVRaven_Weapon@@@std@@@3@$0A@@std@@@std@@IAEPAU?$_Tree_node@U?$pair@$$CBHPAVRaven_Weapon@@@std@@PAX@1@PAU21@AAU?$pair@$$CBHPAVRaven_Weapon@@@1@@Z ENDP ; std::_Tree<std::_Tmap_traits<int,Raven_Weapon *,std::less<int>,std::allocator<std::pair<int const ,Raven_Weapon *> >,0> >::_Buy_if_not_node<std::pair<int const ,Raven_Weapon *> &>
_TEXT	ENDS
; Function compile flags: /Odtp /RTCsu
; File c:\program files (x86)\microsoft visual studio\2017\community\vc\tools\msvc\14.15.26726\include\tuple
;	COMDAT ??$?0$$QAH$$Z$$V@?$pair@$$CBHPAVRaven_Weapon@@@std@@QAE@Upiecewise_construct_t@1@V?$tuple@$$QAH@1@V?$tuple@$$V@1@@Z
_TEXT	SEGMENT
$T1 = -6						; size = 1
$T2 = -5						; size = 1
_this$ = -4						; size = 4
___formal$ = 8						; size = 1
__Val1$ = 12						; size = 4
__Val2$ = 16						; size = 1
??$?0$$QAH$$Z$$V@?$pair@$$CBHPAVRaven_Weapon@@@std@@QAE@Upiecewise_construct_t@1@V?$tuple@$$QAH@1@V?$tuple@$$V@1@@Z PROC ; std::pair<int const ,Raven_Weapon *>::pair<int const ,Raven_Weapon *><int &&>, COMDAT
; _this$ = ecx

; 1321 : 		{	// construct from pair of tuples

	push	ebp
	mov	ebp, esp
	sub	esp, 8
	mov	DWORD PTR [ebp-8], -858993460		; ccccccccH
	mov	DWORD PTR [ebp-4], -858993460		; ccccccccH
	mov	DWORD PTR _this$[ebp], ecx

; 1318 : 		: pair(_Val1, _Val2,

	movzx	eax, BYTE PTR $T2[ebp]
	push	eax
	movzx	ecx, BYTE PTR $T1[ebp]
	push	ecx
	lea	edx, DWORD PTR __Val2$[ebp]
	push	edx
	lea	eax, DWORD PTR __Val1$[ebp]
	push	eax
	mov	ecx, DWORD PTR _this$[ebp]
	call	??$?0V?$tuple@$$QAH@std@@V?$tuple@$$V@1@$0A@$$Z$S@?$pair@$$CBHPAVRaven_Weapon@@@std@@QAE@AAV?$tuple@$$QAH@1@AAV?$tuple@$$V@1@U?$integer_sequence@I$0A@@1@U?$integer_sequence@I$S@1@@Z ; std::pair<int const ,Raven_Weapon *>::pair<int const ,Raven_Weapon *><std::tuple<int &&>,std::tuple<>,0>

; 1322 : 		}

	mov	eax, DWORD PTR _this$[ebp]
	add	esp, 8
	cmp	ebp, esp
	call	__RTC_CheckEsp
	mov	esp, ebp
	pop	ebp
	ret	12					; 0000000cH
??$?0$$QAH$$Z$$V@?$pair@$$CBHPAVRaven_Weapon@@@std@@QAE@Upiecewise_construct_t@1@V?$tuple@$$QAH@1@V?$tuple@$$V@1@@Z ENDP ; std::pair<int const ,Raven_Weapon *>::pair<int const ,Raven_Weapon *><int &&>
_TEXT	ENDS
; Function compile flags: /Odtp /RTCsu
; File c:\program files (x86)\microsoft visual studio\2017\community\vc\tools\msvc\14.15.26726\include\tuple
;	COMDAT ??$?0H@?$_Tuple_val@$$QAH@std@@QAE@$$QAH@Z
_TEXT	SEGMENT
_this$ = -4						; size = 4
__Arg$ = 8						; size = 4
??$?0H@?$_Tuple_val@$$QAH@std@@QAE@$$QAH@Z PROC		; std::_Tuple_val<int &&>::_Tuple_val<int &&><int>, COMDAT
; _this$ = ecx

; 237  : 		{	// construct with argument

	push	ebp
	mov	ebp, esp
	push	ecx
	mov	DWORD PTR [ebp-4], -858993460		; ccccccccH
	mov	DWORD PTR _this$[ebp], ecx

; 236  : 		: _Val(_STD forward<_Other>(_Arg))

	mov	eax, DWORD PTR __Arg$[ebp]
	push	eax
	call	??$forward@H@std@@YA$$QAHAAH@Z		; std::forward<int>
	add	esp, 4
	mov	ecx, DWORD PTR _this$[ebp]
	mov	DWORD PTR [ecx], eax

; 238  : 		}

	mov	eax, DWORD PTR _this$[ebp]
	add	esp, 4
	cmp	ebp, esp
	call	__RTC_CheckEsp
	mov	esp, ebp
	pop	ebp
	ret	4
??$?0H@?$_Tuple_val@$$QAH@std@@QAE@$$QAH@Z ENDP		; std::_Tuple_val<int &&>::_Tuple_val<int &&><int>
_TEXT	ENDS
; Function compile flags: /Odtp /RTCsu
; File c:\program files (x86)\microsoft visual studio\2017\community\vc\tools\msvc\14.15.26726\include\tuple
;	COMDAT ??$?0U_Exact_args_t@std@@$0A@@?$tuple@$$V@std@@QAE@U_Exact_args_t@1@@Z
_TEXT	SEGMENT
_this$ = -4						; size = 4
___formal$ = 8						; size = 1
??$?0U_Exact_args_t@std@@$0A@@?$tuple@$$V@std@@QAE@U_Exact_args_t@1@@Z PROC ; std::tuple<>::tuple<><std::_Exact_args_t,0>, COMDAT
; _this$ = ecx

; 318  : 		{	// construct from one arg per element

	push	ebp
	mov	ebp, esp
	push	ecx
	mov	DWORD PTR [ebp-4], -858993460		; ccccccccH
	mov	DWORD PTR _this$[ebp], ecx

; 319  : 		}

	mov	eax, DWORD PTR _this$[ebp]
	mov	esp, ebp
	pop	ebp
	ret	4
??$?0U_Exact_args_t@std@@$0A@@?$tuple@$$V@std@@QAE@U_Exact_args_t@1@@Z ENDP ; std::tuple<>::tuple<><std::_Exact_args_t,0>
_TEXT	ENDS
; Function compile flags: /Odtp /RTCsu
; File c:\program files (x86)\microsoft visual studio\2017\community\vc\tools\msvc\14.15.26726\include\xmemory0
;	COMDAT ??$construct@U?$pair@$$CBHPAVRaven_Weapon@@@std@@ABUpiecewise_construct_t@2@V?$tuple@ABH@2@V?$tuple@$$V@2@@?$_Default_allocator_traits@V?$allocator@U?$_Tree_node@U?$pair@$$CBHPAVRaven_Weapon@@@std@@PAX@std@@@std@@@std@@SAXAAV?$allocator@U?$_Tree_node@U?$pair@$$CBHPAVRaven_Weapon@@@std@@PAX@std@@@1@QAU?$pair@$$CBHPAVRaven_Weapon@@@1@ABUpiecewise_construct_t@1@$$QAV?$tuple@ABH@1@$$QAV?$tuple@$$V@1@@Z
_TEXT	SEGMENT
$T1 = -4						; size = 4
___formal$ = 8						; size = 4
__Ptr$ = 12						; size = 4
_<_Args_0>$ = 16					; size = 4
_<_Args_1>$ = 20					; size = 4
_<_Args_2>$ = 24					; size = 4
??$construct@U?$pair@$$CBHPAVRaven_Weapon@@@std@@ABUpiecewise_construct_t@2@V?$tuple@ABH@2@V?$tuple@$$V@2@@?$_Default_allocator_traits@V?$allocator@U?$_Tree_node@U?$pair@$$CBHPAVRaven_Weapon@@@std@@PAX@std@@@std@@@std@@SAXAAV?$allocator@U?$_Tree_node@U?$pair@$$CBHPAVRaven_Weapon@@@std@@PAX@std@@@1@QAU?$pair@$$CBHPAVRaven_Weapon@@@1@ABUpiecewise_construct_t@1@$$QAV?$tuple@ABH@1@$$QAV?$tuple@$$V@1@@Z PROC ; std::_Default_allocator_traits<std::allocator<std::_Tree_node<std::pair<int const ,Raven_Weapon *>,void *> > >::construct<std::pair<int const ,Raven_Weapon *>,std::piecewise_construct_t const &,std::tuple<int const &>,std::tuple<> >, COMDAT

; 879  : 		{	// construct _Objty(_Types...) at _Ptr

	push	ebp
	mov	ebp, esp
	sub	esp, 12					; 0000000cH
	push	esi
	mov	DWORD PTR [ebp-12], -858993460		; ccccccccH
	mov	DWORD PTR [ebp-8], -858993460		; ccccccccH
	mov	DWORD PTR [ebp-4], -858993460		; ccccccccH

; 880  : 		::new (const_cast<void *>(static_cast<const volatile void *>(_Ptr)))

	mov	eax, DWORD PTR __Ptr$[ebp]
	push	eax
	push	8
	call	??2@YAPAXIPAX@Z				; operator new
	add	esp, 8
	mov	DWORD PTR $T1[ebp], eax
	push	ecx
	mov	esi, esp
	mov	ecx, DWORD PTR _<_Args_2>$[ebp]
	push	ecx
	call	??$forward@V?$tuple@$$V@std@@@std@@YA$$QAV?$tuple@$$V@0@AAV10@@Z ; std::forward<std::tuple<> >
	add	esp, 4
	push	eax
	mov	ecx, esi
	call	??0?$tuple@$$V@std@@QAE@ABV01@@Z	; std::tuple<>::tuple<>
	push	ecx
	mov	esi, esp
	mov	edx, DWORD PTR _<_Args_1>$[ebp]
	push	edx
	call	??$forward@V?$tuple@ABH@std@@@std@@YA$$QAV?$tuple@ABH@0@AAV10@@Z ; std::forward<std::tuple<int const &> >
	add	esp, 4
	push	eax
	mov	ecx, esi
	call	??0?$tuple@ABH@std@@QAE@$$QAV01@@Z	; std::tuple<int const &>::tuple<int const &>
	mov	eax, DWORD PTR _<_Args_0>$[ebp]
	push	eax
	call	??$forward@ABUpiecewise_construct_t@std@@@std@@YAABUpiecewise_construct_t@0@ABU10@@Z ; std::forward<std::piecewise_construct_t const &>
	add	esp, 4
	mov	cl, BYTE PTR [eax]
	movzx	edx, cl
	push	edx
	mov	ecx, DWORD PTR $T1[ebp]
	call	??$?0ABH$$Z$$V@?$pair@$$CBHPAVRaven_Weapon@@@std@@QAE@Upiecewise_construct_t@1@V?$tuple@ABH@1@V?$tuple@$$V@1@@Z ; std::pair<int const ,Raven_Weapon *>::pair<int const ,Raven_Weapon *><int const &>

; 881  : 			_Objty(_STD forward<_Types>(_Args)...);
; 882  : 		}

	pop	esi
	add	esp, 12					; 0000000cH
	cmp	ebp, esp
	call	__RTC_CheckEsp
	mov	esp, ebp
	pop	ebp
	ret	0
??$construct@U?$pair@$$CBHPAVRaven_Weapon@@@std@@ABUpiecewise_construct_t@2@V?$tuple@ABH@2@V?$tuple@$$V@2@@?$_Default_allocator_traits@V?$allocator@U?$_Tree_node@U?$pair@$$CBHPAVRaven_Weapon@@@std@@PAX@std@@@std@@@std@@SAXAAV?$allocator@U?$_Tree_node@U?$pair@$$CBHPAVRaven_Weapon@@@std@@PAX@std@@@1@QAU?$pair@$$CBHPAVRaven_Weapon@@@1@ABUpiecewise_construct_t@1@$$QAV?$tuple@ABH@1@$$QAV?$tuple@$$V@1@@Z ENDP ; std::_Default_allocator_traits<std::allocator<std::_Tree_node<std::pair<int const ,Raven_Weapon *>,void *> > >::construct<std::pair<int const ,Raven_Weapon *>,std::piecewise_construct_t const &,std::tuple<int const &>,std::tuple<> >
_TEXT	ENDS
; Function compile flags: /Odtp /RTCsu
; File c:\program files (x86)\microsoft visual studio\2017\community\vc\tools\msvc\14.15.26726\include\tuple
;	COMDAT ??$?0U_Exact_args_t@std@@ABH$$V$0A@@?$tuple@ABH@std@@QAE@U_Exact_args_t@1@ABH@Z
_TEXT	SEGMENT
$T1 = -5						; size = 1
_this$ = -4						; size = 4
___formal$ = 8						; size = 1
__This_arg$ = 12					; size = 4
??$?0U_Exact_args_t@std@@ABH$$V$0A@@?$tuple@ABH@std@@QAE@U_Exact_args_t@1@ABH@Z PROC ; std::tuple<int const &>::tuple<int const &><std::_Exact_args_t,int const &,0>, COMDAT
; _this$ = ecx

; 359  : 		{	// construct from one arg per element

	push	ebp
	mov	ebp, esp
	sub	esp, 8
	mov	DWORD PTR [ebp-8], -858993460		; ccccccccH
	mov	DWORD PTR [ebp-4], -858993460		; ccccccccH
	mov	DWORD PTR _this$[ebp], ecx

; 357  : 		: _Mybase(_Exact_args_t{}, _STD forward<_Rest2>(_Rest_arg)...),

	xor	eax, eax
	mov	BYTE PTR $T1[ebp], al
	movzx	ecx, BYTE PTR $T1[ebp]
	push	ecx
	mov	ecx, DWORD PTR _this$[ebp]
	call	??$?0U_Exact_args_t@std@@$0A@@?$tuple@$$V@std@@QAE@U_Exact_args_t@1@@Z ; std::tuple<>::tuple<><std::_Exact_args_t,0>

; 358  : 			_Myfirst(_STD forward<_This2>(_This_arg))

	mov	edx, DWORD PTR __This_arg$[ebp]
	push	edx
	call	??$forward@ABH@std@@YAABHABH@Z		; std::forward<int const &>
	add	esp, 4
	push	eax
	mov	ecx, DWORD PTR _this$[ebp]
	call	??$?0ABH@?$_Tuple_val@ABH@std@@QAE@ABH@Z ; std::_Tuple_val<int const &>::_Tuple_val<int const &><int const &>

; 360  : 		}

	mov	eax, DWORD PTR _this$[ebp]
	add	esp, 8
	cmp	ebp, esp
	call	__RTC_CheckEsp
	mov	esp, ebp
	pop	ebp
	ret	8
??$?0U_Exact_args_t@std@@ABH$$V$0A@@?$tuple@ABH@std@@QAE@U_Exact_args_t@1@ABH@Z ENDP ; std::tuple<int const &>::tuple<int const &><std::_Exact_args_t,int const &,0>
_TEXT	ENDS
; Function compile flags: /Odtp /RTCsu
; File c:\program files (x86)\microsoft visual studio\2017\community\vc\tools\msvc\14.15.26726\include\xtree
;	COMDAT ??$_Insert_nohint@AAU?$pair@$$CBHPAVRaven_Weapon@@@std@@PAU?$_Tree_node@U?$pair@$$CBHPAVRaven_Weapon@@@std@@PAX@2@@?$_Tree@V?$_Tmap_traits@HPAVRaven_Weapon@@U?$less@H@std@@V?$allocator@U?$pair@$$CBHPAVRaven_Weapon@@@std@@@3@$0A@@std@@@std@@IAE?AU?$pair@V?$_Tree_iterator@V?$_Tree_val@U?$_Tree_simple_types@U?$pair@$$CBHPAVRaven_Weapon@@@std@@@std@@@std@@@std@@_N@1@_NAAU?$pair@$$CBHPAVRaven_Weapon@@@1@PAU?$_Tree_node@U?$pair@$$CBHPAVRaven_Weapon@@@std@@PAX@1@@Z
_TEXT	SEGMENT
tv275 = -200						; size = 4
tv288 = -193						; size = 1
tv287 = -192						; size = 4
tv286 = -188						; size = 4
tv271 = -184						; size = 4
tv285 = -177						; size = 1
tv269 = -176						; size = 4
tv284 = -172						; size = 4
tv283 = -168						; size = 4
tv262 = -164						; size = 4
tv149 = -160						; size = 4
tv282 = -153						; size = 1
tv281 = -152						; size = 4
tv152 = -148						; size = 4
tv95 = -144						; size = 4
tv195 = -137						; size = 1
tv235 = -136						; size = 4
tv253 = -132						; size = 4
$T2 = -128						; size = 4
$T3 = -121						; size = 1
$T4 = -120						; size = 12
$T5 = -105						; size = 1
$T6 = -104						; size = 12
$T7 = -89						; size = 1
$T8 = -88						; size = 12
$T9 = -73						; size = 1
$T10 = -72						; size = 12
$T11 = -57						; size = 1
__Where$12 = -52					; size = 12
__Addleft$13 = -33					; size = 1
__Trynode$14 = -32					; size = 4
__Wherenode$15 = -28					; size = 4
__My_data$ = -24					; size = 4
_this$ = -20						; size = 4
__$EHRec$ = -16						; size = 16
___$ReturnUdt$ = 8					; size = 4
__Leftish$ = 12						; size = 1
__Val$ = 16						; size = 4
__Newnode$ = 20						; size = 4
??$_Insert_nohint@AAU?$pair@$$CBHPAVRaven_Weapon@@@std@@PAU?$_Tree_node@U?$pair@$$CBHPAVRaven_Weapon@@@std@@PAX@2@@?$_Tree@V?$_Tmap_traits@HPAVRaven_Weapon@@U?$less@H@std@@V?$allocator@U?$pair@$$CBHPAVRaven_Weapon@@@std@@@3@$0A@@std@@@std@@IAE?AU?$pair@V?$_Tree_iterator@V?$_Tree_val@U?$_Tree_simple_types@U?$pair@$$CBHPAVRaven_Weapon@@@std@@@std@@@std@@@std@@_N@1@_NAAU?$pair@$$CBHPAVRaven_Weapon@@@1@PAU?$_Tree_node@U?$pair@$$CBHPAVRaven_Weapon@@@std@@PAX@1@@Z PROC ; std::_Tree<std::_Tmap_traits<int,Raven_Weapon *,std::less<int>,std::allocator<std::pair<int const ,Raven_Weapon *> >,0> >::_Insert_nohint<std::pair<int const ,Raven_Weapon *> &,std::_Tree_node<std::pair<int const ,Raven_Weapon *>,void *> *>, COMDAT
; _this$ = ecx

; 1733 : 		{	// try to insert node, on left if _Leftish

	push	ebp
	mov	ebp, esp
	push	-1
	push	__ehhandler$??$_Insert_nohint@AAU?$pair@$$CBHPAVRaven_Weapon@@@std@@PAU?$_Tree_node@U?$pair@$$CBHPAVRaven_Weapon@@@std@@PAX@2@@?$_Tree@V?$_Tmap_traits@HPAVRaven_Weapon@@U?$less@H@std@@V?$allocator@U?$pair@$$CBHPAVRaven_Weapon@@@std@@@3@$0A@@std@@@std@@IAE?AU?$pair@V?$_Tree_iterator@V?$_Tree_val@U?$_Tree_simple_types@U?$pair@$$CBHPAVRaven_Weapon@@@std@@@std@@@std@@@std@@_N@1@_NAAU?$pair@$$CBHPAVRaven_Weapon@@@1@PAU?$_Tree_node@U?$pair@$$CBHPAVRaven_Weapon@@@std@@PAX@1@@Z
	mov	eax, DWORD PTR fs:0
	push	eax
	push	ecx
	sub	esp, 184				; 000000b8H
	push	ebx
	push	esi
	push	edi
	push	ecx
	lea	edi, DWORD PTR [ebp-200]
	mov	ecx, 46					; 0000002eH
	mov	eax, -858993460				; ccccccccH
	rep stosd
	pop	ecx
	mov	eax, DWORD PTR ___security_cookie
	xor	eax, ebp
	push	eax
	lea	eax, DWORD PTR __$EHRec$[ebp+4]
	mov	DWORD PTR fs:0, eax
	mov	DWORD PTR __$EHRec$[ebp], esp
	mov	DWORD PTR _this$[ebp], ecx
	mov	DWORD PTR $T2[ebp], 0

; 1734 : 		auto& _My_data = this->_Get_data();

	mov	ecx, DWORD PTR _this$[ebp]
	call	?_Get_data@?$_Tree_comp_alloc@V?$_Tmap_traits@HPAVRaven_Weapon@@U?$less@H@std@@V?$allocator@U?$pair@$$CBHPAVRaven_Weapon@@@std@@@3@$0A@@std@@@std@@QAEAAV?$_Tree_val@U?$_Tree_simple_types@U?$pair@$$CBHPAVRaven_Weapon@@@std@@@std@@@2@XZ ; std::_Tree_comp_alloc<std::_Tmap_traits<int,Raven_Weapon *,std::less<int>,std::allocator<std::pair<int const ,Raven_Weapon *> >,0> >::_Get_data
	mov	DWORD PTR __My_data$[ebp], eax

; 1735 : 		_TRY_BEGIN

	mov	DWORD PTR __$EHRec$[ebp+12], 0

; 1736 : 		_Nodeptr _Wherenode = _My_data._Myhead;

	mov	eax, DWORD PTR __My_data$[ebp]
	mov	ecx, DWORD PTR [eax+4]
	mov	DWORD PTR __Wherenode$15[ebp], ecx

; 1737 : 		_Nodeptr _Trynode = _Wherenode->_Parent;

	mov	edx, DWORD PTR __Wherenode$15[ebp]
	mov	eax, DWORD PTR [edx+4]
	mov	DWORD PTR __Trynode$14[ebp], eax

; 1738 : 		bool _Addleft = true;	// add to left of head if tree empty

	mov	BYTE PTR __Addleft$13[ebp], 1
$LN2@Insert_noh:

; 1739 : 
; 1740 : 		while (!_Trynode->_Isnil)

	mov	ecx, DWORD PTR __Trynode$14[ebp]
	movsx	edx, BYTE PTR [ecx+13]
	test	edx, edx
	jne	$LN3@Insert_noh

; 1741 : 			{	// look for leaf to insert before (_Addleft) or after
; 1742 : 			_Wherenode = _Trynode;

	mov	eax, DWORD PTR __Trynode$14[ebp]
	mov	DWORD PTR __Wherenode$15[ebp], eax

; 1743 : 			if (_Leftish)

	movzx	ecx, BYTE PTR __Leftish$[ebp]
	test	ecx, ecx
	je	SHORT $LN5@Insert_noh

; 1744 : 				{
; 1745 : 				_Addleft = !_DEBUG_LT_PRED(this->_Getcomp(),

	mov	edx, DWORD PTR __Val$[ebp]
	push	edx
	mov	ecx, DWORD PTR _this$[ebp]
	call	?_Kfn@?$_Tree@V?$_Tmap_traits@HPAVRaven_Weapon@@U?$less@H@std@@V?$allocator@U?$pair@$$CBHPAVRaven_Weapon@@@std@@@3@$0A@@std@@@std@@IBEABHABU?$pair@$$CBHPAVRaven_Weapon@@@2@@Z ; std::_Tree<std::_Tmap_traits<int,Raven_Weapon *,std::less<int>,std::allocator<std::pair<int const ,Raven_Weapon *> >,0> >::_Kfn
	mov	DWORD PTR tv253[ebp], eax
	mov	eax, DWORD PTR __Trynode$14[ebp]
	push	eax
	mov	ecx, DWORD PTR _this$[ebp]
	call	?_Key@?$_Tree@V?$_Tmap_traits@HPAVRaven_Weapon@@U?$less@H@std@@V?$allocator@U?$pair@$$CBHPAVRaven_Weapon@@@std@@@3@$0A@@std@@@std@@IBEABHPAU?$_Tree_node@U?$pair@$$CBHPAVRaven_Weapon@@@std@@PAX@2@@Z ; std::_Tree<std::_Tmap_traits<int,Raven_Weapon *,std::less<int>,std::allocator<std::pair<int const ,Raven_Weapon *> >,0> >::_Key
	mov	DWORD PTR tv235[ebp], eax
	mov	ecx, DWORD PTR tv253[ebp]
	push	ecx
	mov	edx, DWORD PTR tv235[ebp]
	push	edx
	mov	ecx, DWORD PTR _this$[ebp]
	call	?_Getcomp@?$_Tree_comp_alloc@V?$_Tmap_traits@HPAVRaven_Weapon@@U?$less@H@std@@V?$allocator@U?$pair@$$CBHPAVRaven_Weapon@@@std@@@3@$0A@@std@@@std@@QAEAAU?$less@H@2@XZ ; std::_Tree_comp_alloc<std::_Tmap_traits<int,Raven_Weapon *,std::less<int>,std::allocator<std::pair<int const ,Raven_Weapon *> >,0> >::_Getcomp
	push	eax
	call	??$_Debug_lt_pred@AAU?$less@H@std@@ABHABH@std@@YA_NAAU?$less@H@0@ABH1@Z ; std::_Debug_lt_pred<std::less<int> &,int const &,int const &>
	add	esp, 12					; 0000000cH
	mov	BYTE PTR tv195[ebp], al
	movzx	eax, BYTE PTR tv195[ebp]
	test	eax, eax
	jne	SHORT $LN16@Insert_noh
	mov	DWORD PTR tv95[ebp], 1
	jmp	SHORT $LN17@Insert_noh
$LN16@Insert_noh:
	mov	DWORD PTR tv95[ebp], 0
$LN17@Insert_noh:
	mov	cl, BYTE PTR tv95[ebp]
	mov	BYTE PTR __Addleft$13[ebp], cl

; 1746 : 					this->_Key(_Trynode),
; 1747 : 					this->_Kfn(_Val));	// favor left end
; 1748 : 				}
; 1749 : 			else

	jmp	SHORT $LN6@Insert_noh
$LN5@Insert_noh:

; 1750 : 				{
; 1751 : 				_Addleft = _DEBUG_LT_PRED(this->_Getcomp(),

	mov	edx, DWORD PTR __Trynode$14[ebp]
	push	edx
	mov	ecx, DWORD PTR _this$[ebp]
	call	?_Key@?$_Tree@V?$_Tmap_traits@HPAVRaven_Weapon@@U?$less@H@std@@V?$allocator@U?$pair@$$CBHPAVRaven_Weapon@@@std@@@3@$0A@@std@@@std@@IBEABHPAU?$_Tree_node@U?$pair@$$CBHPAVRaven_Weapon@@@std@@PAX@2@@Z ; std::_Tree<std::_Tmap_traits<int,Raven_Weapon *,std::less<int>,std::allocator<std::pair<int const ,Raven_Weapon *> >,0> >::_Key
	mov	DWORD PTR tv152[ebp], eax
	mov	eax, DWORD PTR __Val$[ebp]
	push	eax
	mov	ecx, DWORD PTR _this$[ebp]
	call	?_Kfn@?$_Tree@V?$_Tmap_traits@HPAVRaven_Weapon@@U?$less@H@std@@V?$allocator@U?$pair@$$CBHPAVRaven_Weapon@@@std@@@3@$0A@@std@@@std@@IBEABHABU?$pair@$$CBHPAVRaven_Weapon@@@2@@Z ; std::_Tree<std::_Tmap_traits<int,Raven_Weapon *,std::less<int>,std::allocator<std::pair<int const ,Raven_Weapon *> >,0> >::_Kfn
	mov	DWORD PTR tv281[ebp], eax
	mov	ecx, DWORD PTR tv152[ebp]
	push	ecx
	mov	edx, DWORD PTR tv281[ebp]
	push	edx
	mov	ecx, DWORD PTR _this$[ebp]
	call	?_Getcomp@?$_Tree_comp_alloc@V?$_Tmap_traits@HPAVRaven_Weapon@@U?$less@H@std@@V?$allocator@U?$pair@$$CBHPAVRaven_Weapon@@@std@@@3@$0A@@std@@@std@@QAEAAU?$less@H@2@XZ ; std::_Tree_comp_alloc<std::_Tmap_traits<int,Raven_Weapon *,std::less<int>,std::allocator<std::pair<int const ,Raven_Weapon *> >,0> >::_Getcomp
	push	eax
	call	??$_Debug_lt_pred@AAU?$less@H@std@@ABHABH@std@@YA_NAAU?$less@H@0@ABH1@Z ; std::_Debug_lt_pred<std::less<int> &,int const &,int const &>
	add	esp, 12					; 0000000cH
	mov	BYTE PTR tv282[ebp], al
	mov	al, BYTE PTR tv282[ebp]
	mov	BYTE PTR __Addleft$13[ebp], al
$LN6@Insert_noh:

; 1752 : 					this->_Kfn(_Val),
; 1753 : 					this->_Key(_Trynode));	// favor right end
; 1754 : 				}
; 1755 : 
; 1756 : 			_Trynode = _Addleft ? _Trynode->_Left : _Trynode->_Right;

	movzx	ecx, BYTE PTR __Addleft$13[ebp]
	test	ecx, ecx
	je	SHORT $LN18@Insert_noh
	mov	edx, DWORD PTR __Trynode$14[ebp]
	mov	eax, DWORD PTR [edx]
	mov	DWORD PTR tv149[ebp], eax
	jmp	SHORT $LN19@Insert_noh
$LN18@Insert_noh:
	mov	ecx, DWORD PTR __Trynode$14[ebp]
	mov	edx, DWORD PTR [ecx+8]
	mov	DWORD PTR tv149[ebp], edx
$LN19@Insert_noh:
	mov	eax, DWORD PTR tv149[ebp]
	mov	DWORD PTR __Trynode$14[ebp], eax

; 1757 : 			}

	jmp	$LN2@Insert_noh
$LN3@Insert_noh:

; 1758 : 
; 1759 : #pragma warning(push)
; 1760 : #pragma warning(disable: 4127)	// conditional expression is constant
; 1761 : 		if (this->_Multi)

	xor	ecx, ecx
	je	SHORT $LN7@Insert_noh

; 1762 : 			{
; 1763 : 			return (_Pairib(_Insert_at(_Addleft, _Wherenode,

	mov	BYTE PTR $T11[ebp], 1
	mov	edx, DWORD PTR __Newnode$[ebp]
	push	edx
	mov	eax, DWORD PTR __Val$[ebp]
	push	eax
	call	??$forward@AAU?$pair@$$CBHPAVRaven_Weapon@@@std@@@std@@YAAAU?$pair@$$CBHPAVRaven_Weapon@@@0@AAU10@@Z ; std::forward<std::pair<int const ,Raven_Weapon *> &>
	add	esp, 4
	push	eax
	mov	ecx, DWORD PTR __Wherenode$15[ebp]
	push	ecx
	movzx	edx, BYTE PTR __Addleft$13[ebp]
	push	edx
	lea	eax, DWORD PTR $T10[ebp]
	push	eax
	mov	ecx, DWORD PTR _this$[ebp]
	call	??$_Insert_at@AAU?$pair@$$CBHPAVRaven_Weapon@@@std@@PAU?$_Tree_node@U?$pair@$$CBHPAVRaven_Weapon@@@std@@PAX@2@@?$_Tree@V?$_Tmap_traits@HPAVRaven_Weapon@@U?$less@H@std@@V?$allocator@U?$pair@$$CBHPAVRaven_Weapon@@@std@@@3@$0A@@std@@@std@@IAE?AV?$_Tree_iterator@V?$_Tree_val@U?$_Tree_simple_types@U?$pair@$$CBHPAVRaven_Weapon@@@std@@@std@@@std@@@1@_NPAU?$_Tree_node@U?$pair@$$CBHPAVRaven_Weapon@@@std@@PAX@1@AAU?$pair@$$CBHPAVRaven_Weapon@@@1@1@Z ; std::_Tree<std::_Tmap_traits<int,Raven_Weapon *,std::less<int>,std::allocator<std::pair<int const ,Raven_Weapon *> >,0> >::_Insert_at<std::pair<int const ,Raven_Weapon *> &,std::_Tree_node<std::pair<int const ,Raven_Weapon *>,void *> *>
	mov	DWORD PTR tv262[ebp], eax
	lea	ecx, DWORD PTR $T11[ebp]
	push	ecx
	mov	edx, DWORD PTR tv262[ebp]
	push	edx
	mov	ecx, DWORD PTR ___$ReturnUdt$[ebp]
	call	??$?0V?$_Tree_iterator@V?$_Tree_val@U?$_Tree_simple_types@U?$pair@$$CBHPAVRaven_Weapon@@@std@@@std@@@std@@@std@@_N$0A@@?$pair@V?$_Tree_iterator@V?$_Tree_val@U?$_Tree_simple_types@U?$pair@$$CBHPAVRaven_Weapon@@@std@@@std@@@std@@@std@@_N@std@@QAE@$$QAV?$_Tree_iterator@V?$_Tree_val@U?$_Tree_simple_types@U?$pair@$$CBHPAVRaven_Weapon@@@std@@@std@@@std@@@1@$$QA_N@Z ; std::pair<std::_Tree_iterator<std::_Tree_val<std::_Tree_simple_types<std::pair<int const ,Raven_Weapon *> > > >,bool>::pair<std::_Tree_iterator<std::_Tree_val<std::_Tree_simple_types<std::pair<int const ,Raven_Weapon *> > > >,bool><std::_Tree_iterator<std::_Tree_val<std::_Tree_simple_types<std::pair<int const ,Raven_Weapon *> > > >,bool,0>
	mov	eax, DWORD PTR $T2[ebp]
	or	eax, 1
	mov	DWORD PTR $T2[ebp], eax
	lea	ecx, DWORD PTR $T10[ebp]
	call	??1?$_Tree_iterator@V?$_Tree_val@U?$_Tree_simple_types@U?$pair@$$CBHPAVRaven_Weapon@@@std@@@std@@@std@@@std@@QAE@XZ
	mov	eax, DWORD PTR ___$ReturnUdt$[ebp]
	jmp	$LN15@Insert_noh

; 1764 : 				_STD forward<_Valty>(_Val), _Newnode), true));
; 1765 : 			}
; 1766 : 		else

	jmp	$LN8@Insert_noh
$LN7@Insert_noh:

; 1767 : 			{	// insert only if unique
; 1768 : 			iterator _Where = iterator(_Wherenode, _STD addressof(_My_data));

	mov	ecx, DWORD PTR __My_data$[ebp]
	push	ecx
	call	??$addressof@V?$_Tree_val@U?$_Tree_simple_types@U?$pair@$$CBHPAVRaven_Weapon@@@std@@@std@@@std@@@std@@YAPAV?$_Tree_val@U?$_Tree_simple_types@U?$pair@$$CBHPAVRaven_Weapon@@@std@@@std@@@0@AAV10@@Z ; std::addressof<std::_Tree_val<std::_Tree_simple_types<std::pair<int const ,Raven_Weapon *> > > >
	add	esp, 4
	push	eax
	mov	edx, DWORD PTR __Wherenode$15[ebp]
	push	edx
	lea	ecx, DWORD PTR __Where$12[ebp]
	call	??0?$_Tree_iterator@V?$_Tree_val@U?$_Tree_simple_types@U?$pair@$$CBHPAVRaven_Weapon@@@std@@@std@@@std@@@std@@QAE@PAU?$_Tree_node@U?$pair@$$CBHPAVRaven_Weapon@@@std@@PAX@1@PBV?$_Tree_val@U?$_Tree_simple_types@U?$pair@$$CBHPAVRaven_Weapon@@@std@@@std@@@1@@Z ; std::_Tree_iterator<std::_Tree_val<std::_Tree_simple_types<std::pair<int const ,Raven_Weapon *> > > >::_Tree_iterator<std::_Tree_val<std::_Tree_simple_types<std::pair<int const ,Raven_Weapon *> > > >
	mov	DWORD PTR tv283[ebp], eax
	mov	BYTE PTR __$EHRec$[ebp+12], 1

; 1769 : 			if (!_Addleft)

	movzx	eax, BYTE PTR __Addleft$13[ebp]
	test	eax, eax
	jne	SHORT $LN9@Insert_noh
	jmp	$LN10@Insert_noh
$LN9@Insert_noh:

; 1770 : 				{	// need to test if insert after is okay
; 1771 : 				}
; 1772 : 			else if (_Where == begin())

	lea	ecx, DWORD PTR $T8[ebp]
	push	ecx
	mov	ecx, DWORD PTR _this$[ebp]
	call	?begin@?$_Tree@V?$_Tmap_traits@HPAVRaven_Weapon@@U?$less@H@std@@V?$allocator@U?$pair@$$CBHPAVRaven_Weapon@@@std@@@3@$0A@@std@@@std@@QAE?AV?$_Tree_iterator@V?$_Tree_val@U?$_Tree_simple_types@U?$pair@$$CBHPAVRaven_Weapon@@@std@@@std@@@std@@@2@XZ ; std::_Tree<std::_Tmap_traits<int,Raven_Weapon *,std::less<int>,std::allocator<std::pair<int const ,Raven_Weapon *> >,0> >::begin
	mov	DWORD PTR tv284[ebp], eax
	mov	edx, DWORD PTR tv284[ebp]
	mov	DWORD PTR tv269[ebp], edx
	mov	BYTE PTR __$EHRec$[ebp+12], 2
	mov	eax, DWORD PTR tv269[ebp]
	push	eax
	lea	ecx, DWORD PTR __Where$12[ebp]
	call	??8?$_Tree_const_iterator@V?$_Tree_val@U?$_Tree_simple_types@U?$pair@$$CBHPAVRaven_Weapon@@@std@@@std@@@std@@@std@@QBE_NABV01@@Z ; std::_Tree_const_iterator<std::_Tree_val<std::_Tree_simple_types<std::pair<int const ,Raven_Weapon *> > > >::operator==
	mov	BYTE PTR tv285[ebp], al
	mov	cl, BYTE PTR tv285[ebp]
	mov	BYTE PTR $T9[ebp], cl
	mov	BYTE PTR __$EHRec$[ebp+12], 1
	lea	ecx, DWORD PTR $T8[ebp]
	call	??1?$_Tree_iterator@V?$_Tree_val@U?$_Tree_simple_types@U?$pair@$$CBHPAVRaven_Weapon@@@std@@@std@@@std@@@std@@QAE@XZ
	movzx	edx, BYTE PTR $T9[ebp]
	test	edx, edx
	je	SHORT $LN11@Insert_noh

; 1773 : 				{
; 1774 : 				return (_Pairib(_Insert_at(true, _Wherenode,

	mov	BYTE PTR $T7[ebp], 1
	mov	eax, DWORD PTR __Newnode$[ebp]
	push	eax
	mov	ecx, DWORD PTR __Val$[ebp]
	push	ecx
	call	??$forward@AAU?$pair@$$CBHPAVRaven_Weapon@@@std@@@std@@YAAAU?$pair@$$CBHPAVRaven_Weapon@@@0@AAU10@@Z ; std::forward<std::pair<int const ,Raven_Weapon *> &>
	add	esp, 4
	push	eax
	mov	edx, DWORD PTR __Wherenode$15[ebp]
	push	edx
	push	1
	lea	eax, DWORD PTR $T6[ebp]
	push	eax
	mov	ecx, DWORD PTR _this$[ebp]
	call	??$_Insert_at@AAU?$pair@$$CBHPAVRaven_Weapon@@@std@@PAU?$_Tree_node@U?$pair@$$CBHPAVRaven_Weapon@@@std@@PAX@2@@?$_Tree@V?$_Tmap_traits@HPAVRaven_Weapon@@U?$less@H@std@@V?$allocator@U?$pair@$$CBHPAVRaven_Weapon@@@std@@@3@$0A@@std@@@std@@IAE?AV?$_Tree_iterator@V?$_Tree_val@U?$_Tree_simple_types@U?$pair@$$CBHPAVRaven_Weapon@@@std@@@std@@@std@@@1@_NPAU?$_Tree_node@U?$pair@$$CBHPAVRaven_Weapon@@@std@@PAX@1@AAU?$pair@$$CBHPAVRaven_Weapon@@@1@1@Z ; std::_Tree<std::_Tmap_traits<int,Raven_Weapon *,std::less<int>,std::allocator<std::pair<int const ,Raven_Weapon *> >,0> >::_Insert_at<std::pair<int const ,Raven_Weapon *> &,std::_Tree_node<std::pair<int const ,Raven_Weapon *>,void *> *>
	mov	DWORD PTR tv271[ebp], eax
	lea	ecx, DWORD PTR $T7[ebp]
	push	ecx
	mov	edx, DWORD PTR tv271[ebp]
	push	edx
	mov	ecx, DWORD PTR ___$ReturnUdt$[ebp]
	call	??$?0V?$_Tree_iterator@V?$_Tree_val@U?$_Tree_simple_types@U?$pair@$$CBHPAVRaven_Weapon@@@std@@@std@@@std@@@std@@_N$0A@@?$pair@V?$_Tree_iterator@V?$_Tree_val@U?$_Tree_simple_types@U?$pair@$$CBHPAVRaven_Weapon@@@std@@@std@@@std@@@std@@_N@std@@QAE@$$QAV?$_Tree_iterator@V?$_Tree_val@U?$_Tree_simple_types@U?$pair@$$CBHPAVRaven_Weapon@@@std@@@std@@@std@@@1@$$QA_N@Z ; std::pair<std::_Tree_iterator<std::_Tree_val<std::_Tree_simple_types<std::pair<int const ,Raven_Weapon *> > > >,bool>::pair<std::_Tree_iterator<std::_Tree_val<std::_Tree_simple_types<std::pair<int const ,Raven_Weapon *> > > >,bool><std::_Tree_iterator<std::_Tree_val<std::_Tree_simple_types<std::pair<int const ,Raven_Weapon *> > > >,bool,0>
	mov	eax, DWORD PTR $T2[ebp]
	or	eax, 1
	mov	DWORD PTR $T2[ebp], eax
	lea	ecx, DWORD PTR $T6[ebp]
	call	??1?$_Tree_iterator@V?$_Tree_val@U?$_Tree_simple_types@U?$pair@$$CBHPAVRaven_Weapon@@@std@@@std@@@std@@@std@@QAE@XZ
	mov	BYTE PTR __$EHRec$[ebp+12], 0
	lea	ecx, DWORD PTR __Where$12[ebp]
	call	??1?$_Tree_iterator@V?$_Tree_val@U?$_Tree_simple_types@U?$pair@$$CBHPAVRaven_Weapon@@@std@@@std@@@std@@@std@@QAE@XZ
	mov	eax, DWORD PTR ___$ReturnUdt$[ebp]
	jmp	$LN15@Insert_noh

; 1775 : 					_STD forward<_Valty>(_Val), _Newnode), true));
; 1776 : 				}
; 1777 : 			else

	jmp	SHORT $LN10@Insert_noh
$LN11@Insert_noh:

; 1778 : 				{
; 1779 : 				--_Where;	// need to test if insert before is okay

	lea	ecx, DWORD PTR __Where$12[ebp]
	call	??F?$_Tree_iterator@V?$_Tree_val@U?$_Tree_simple_types@U?$pair@$$CBHPAVRaven_Weapon@@@std@@@std@@@std@@@std@@QAEAAV01@XZ ; std::_Tree_iterator<std::_Tree_val<std::_Tree_simple_types<std::pair<int const ,Raven_Weapon *> > > >::operator--
$LN10@Insert_noh:

; 1780 : 				}
; 1781 : 
; 1782 : 			if (_DEBUG_LT_PRED(this->_Getcomp(),

	mov	ecx, DWORD PTR __Val$[ebp]
	push	ecx
	mov	ecx, DWORD PTR _this$[ebp]
	call	?_Kfn@?$_Tree@V?$_Tmap_traits@HPAVRaven_Weapon@@U?$less@H@std@@V?$allocator@U?$pair@$$CBHPAVRaven_Weapon@@@std@@@3@$0A@@std@@@std@@IBEABHABU?$pair@$$CBHPAVRaven_Weapon@@@2@@Z ; std::_Tree<std::_Tmap_traits<int,Raven_Weapon *,std::less<int>,std::allocator<std::pair<int const ,Raven_Weapon *> >,0> >::_Kfn
	mov	DWORD PTR tv286[ebp], eax
	mov	edx, DWORD PTR __Where$12[ebp+8]
	push	edx
	mov	ecx, DWORD PTR _this$[ebp]
	call	?_Key@?$_Tree@V?$_Tmap_traits@HPAVRaven_Weapon@@U?$less@H@std@@V?$allocator@U?$pair@$$CBHPAVRaven_Weapon@@@std@@@3@$0A@@std@@@std@@IBEABHPAU?$_Tree_node@U?$pair@$$CBHPAVRaven_Weapon@@@std@@PAX@2@@Z ; std::_Tree<std::_Tmap_traits<int,Raven_Weapon *,std::less<int>,std::allocator<std::pair<int const ,Raven_Weapon *> >,0> >::_Key
	mov	DWORD PTR tv287[ebp], eax
	mov	eax, DWORD PTR tv286[ebp]
	push	eax
	mov	ecx, DWORD PTR tv287[ebp]
	push	ecx
	mov	ecx, DWORD PTR _this$[ebp]
	call	?_Getcomp@?$_Tree_comp_alloc@V?$_Tmap_traits@HPAVRaven_Weapon@@U?$less@H@std@@V?$allocator@U?$pair@$$CBHPAVRaven_Weapon@@@std@@@3@$0A@@std@@@std@@QAEAAU?$less@H@2@XZ ; std::_Tree_comp_alloc<std::_Tmap_traits<int,Raven_Weapon *,std::less<int>,std::allocator<std::pair<int const ,Raven_Weapon *> >,0> >::_Getcomp
	push	eax
	call	??$_Debug_lt_pred@AAU?$less@H@std@@ABHABH@std@@YA_NAAU?$less@H@0@ABH1@Z ; std::_Debug_lt_pred<std::less<int> &,int const &,int const &>
	add	esp, 12					; 0000000cH
	mov	BYTE PTR tv288[ebp], al
	movzx	edx, BYTE PTR tv288[ebp]
	test	edx, edx
	je	SHORT $LN13@Insert_noh

; 1783 : 				this->_Key(_Where._Ptr),
; 1784 : 				this->_Kfn(_Val)))
; 1785 : 				{
; 1786 : 				return (_Pairib(_Insert_at(_Addleft, _Wherenode,

	mov	BYTE PTR $T5[ebp], 1
	mov	eax, DWORD PTR __Newnode$[ebp]
	push	eax
	mov	ecx, DWORD PTR __Val$[ebp]
	push	ecx
	call	??$forward@AAU?$pair@$$CBHPAVRaven_Weapon@@@std@@@std@@YAAAU?$pair@$$CBHPAVRaven_Weapon@@@0@AAU10@@Z ; std::forward<std::pair<int const ,Raven_Weapon *> &>
	add	esp, 4
	push	eax
	mov	edx, DWORD PTR __Wherenode$15[ebp]
	push	edx
	movzx	eax, BYTE PTR __Addleft$13[ebp]
	push	eax
	lea	ecx, DWORD PTR $T4[ebp]
	push	ecx
	mov	ecx, DWORD PTR _this$[ebp]
	call	??$_Insert_at@AAU?$pair@$$CBHPAVRaven_Weapon@@@std@@PAU?$_Tree_node@U?$pair@$$CBHPAVRaven_Weapon@@@std@@PAX@2@@?$_Tree@V?$_Tmap_traits@HPAVRaven_Weapon@@U?$less@H@std@@V?$allocator@U?$pair@$$CBHPAVRaven_Weapon@@@std@@@3@$0A@@std@@@std@@IAE?AV?$_Tree_iterator@V?$_Tree_val@U?$_Tree_simple_types@U?$pair@$$CBHPAVRaven_Weapon@@@std@@@std@@@std@@@1@_NPAU?$_Tree_node@U?$pair@$$CBHPAVRaven_Weapon@@@std@@PAX@1@AAU?$pair@$$CBHPAVRaven_Weapon@@@1@1@Z ; std::_Tree<std::_Tmap_traits<int,Raven_Weapon *,std::less<int>,std::allocator<std::pair<int const ,Raven_Weapon *> >,0> >::_Insert_at<std::pair<int const ,Raven_Weapon *> &,std::_Tree_node<std::pair<int const ,Raven_Weapon *>,void *> *>
	mov	DWORD PTR tv275[ebp], eax
	lea	edx, DWORD PTR $T5[ebp]
	push	edx
	mov	eax, DWORD PTR tv275[ebp]
	push	eax
	mov	ecx, DWORD PTR ___$ReturnUdt$[ebp]
	call	??$?0V?$_Tree_iterator@V?$_Tree_val@U?$_Tree_simple_types@U?$pair@$$CBHPAVRaven_Weapon@@@std@@@std@@@std@@@std@@_N$0A@@?$pair@V?$_Tree_iterator@V?$_Tree_val@U?$_Tree_simple_types@U?$pair@$$CBHPAVRaven_Weapon@@@std@@@std@@@std@@@std@@_N@std@@QAE@$$QAV?$_Tree_iterator@V?$_Tree_val@U?$_Tree_simple_types@U?$pair@$$CBHPAVRaven_Weapon@@@std@@@std@@@std@@@1@$$QA_N@Z ; std::pair<std::_Tree_iterator<std::_Tree_val<std::_Tree_simple_types<std::pair<int const ,Raven_Weapon *> > > >,bool>::pair<std::_Tree_iterator<std::_Tree_val<std::_Tree_simple_types<std::pair<int const ,Raven_Weapon *> > > >,bool><std::_Tree_iterator<std::_Tree_val<std::_Tree_simple_types<std::pair<int const ,Raven_Weapon *> > > >,bool,0>
	mov	ecx, DWORD PTR $T2[ebp]
	or	ecx, 1
	mov	DWORD PTR $T2[ebp], ecx
	lea	ecx, DWORD PTR $T4[ebp]
	call	??1?$_Tree_iterator@V?$_Tree_val@U?$_Tree_simple_types@U?$pair@$$CBHPAVRaven_Weapon@@@std@@@std@@@std@@@std@@QAE@XZ
	mov	BYTE PTR __$EHRec$[ebp+12], 0
	lea	ecx, DWORD PTR __Where$12[ebp]
	call	??1?$_Tree_iterator@V?$_Tree_val@U?$_Tree_simple_types@U?$pair@$$CBHPAVRaven_Weapon@@@std@@@std@@@std@@@std@@QAE@XZ
	mov	eax, DWORD PTR ___$ReturnUdt$[ebp]
	jmp	SHORT $LN15@Insert_noh

; 1787 : 					_STD forward<_Valty>(_Val), _Newnode), true));
; 1788 : 				}
; 1789 : 			else

	jmp	SHORT $LN14@Insert_noh
$LN13@Insert_noh:

; 1790 : 				{	// duplicate, don't insert
; 1791 : 				_Destroy_if_node(_Newnode);

	mov	edx, DWORD PTR __Newnode$[ebp]
	push	edx
	mov	ecx, DWORD PTR _this$[ebp]
	call	?_Destroy_if_node@?$_Tree@V?$_Tmap_traits@HPAVRaven_Weapon@@U?$less@H@std@@V?$allocator@U?$pair@$$CBHPAVRaven_Weapon@@@std@@@3@$0A@@std@@@std@@IAEXPAU?$_Tree_node@U?$pair@$$CBHPAVRaven_Weapon@@@std@@PAX@2@@Z ; std::_Tree<std::_Tmap_traits<int,Raven_Weapon *,std::less<int>,std::allocator<std::pair<int const ,Raven_Weapon *> >,0> >::_Destroy_if_node

; 1792 : 				return (_Pairib(_Where, false));

	mov	BYTE PTR $T3[ebp], 0
	lea	eax, DWORD PTR $T3[ebp]
	push	eax
	lea	ecx, DWORD PTR __Where$12[ebp]
	push	ecx
	mov	ecx, DWORD PTR ___$ReturnUdt$[ebp]
	call	??$?0AAV?$_Tree_iterator@V?$_Tree_val@U?$_Tree_simple_types@U?$pair@$$CBHPAVRaven_Weapon@@@std@@@std@@@std@@@std@@_N$0A@@?$pair@V?$_Tree_iterator@V?$_Tree_val@U?$_Tree_simple_types@U?$pair@$$CBHPAVRaven_Weapon@@@std@@@std@@@std@@@std@@_N@std@@QAE@AAV?$_Tree_iterator@V?$_Tree_val@U?$_Tree_simple_types@U?$pair@$$CBHPAVRaven_Weapon@@@std@@@std@@@std@@@1@$$QA_N@Z ; std::pair<std::_Tree_iterator<std::_Tree_val<std::_Tree_simple_types<std::pair<int const ,Raven_Weapon *> > > >,bool>::pair<std::_Tree_iterator<std::_Tree_val<std::_Tree_simple_types<std::pair<int const ,Raven_Weapon *> > > >,bool><std::_Tree_iterator<std::_Tree_val<std::_Tree_simple_types<std::pair<int const ,Raven_Weapon *> > > > &,bool,0>
	mov	edx, DWORD PTR $T2[ebp]
	or	edx, 1
	mov	DWORD PTR $T2[ebp], edx
	mov	BYTE PTR __$EHRec$[ebp+12], 0
	lea	ecx, DWORD PTR __Where$12[ebp]
	call	??1?$_Tree_iterator@V?$_Tree_val@U?$_Tree_simple_types@U?$pair@$$CBHPAVRaven_Weapon@@@std@@@std@@@std@@@std@@QAE@XZ
	mov	eax, DWORD PTR ___$ReturnUdt$[ebp]
	jmp	SHORT $LN15@Insert_noh
$LN14@Insert_noh:

; 1793 : 				}
; 1794 : 			}

	mov	BYTE PTR __$EHRec$[ebp+12], 0
	lea	ecx, DWORD PTR __Where$12[ebp]
	call	??1?$_Tree_iterator@V?$_Tree_val@U?$_Tree_simple_types@U?$pair@$$CBHPAVRaven_Weapon@@@std@@@std@@@std@@@std@@QAE@XZ
$LN8@Insert_noh:
	jmp	SHORT $LN20@Insert_noh
__catch$??$_Insert_nohint@AAU?$pair@$$CBHPAVRaven_Weapon@@@std@@PAU?$_Tree_node@U?$pair@$$CBHPAVRaven_Weapon@@@std@@PAX@2@@?$_Tree@V?$_Tmap_traits@HPAVRaven_Weapon@@U?$less@H@std@@V?$allocator@U?$pair@$$CBHPAVRaven_Weapon@@@std@@@3@$0A@@std@@@std@@IAE?AU?$pair@V?$_Tree_iterator@V?$_Tree_val@U?$_Tree_simple_types@U?$pair@$$CBHPAVRaven_Weapon@@@std@@@std@@@std@@@std@@_N@1@_NAAU?$pair@$$CBHPAVRaven_Weapon@@@1@PAU?$_Tree_node@U?$pair@$$CBHPAVRaven_Weapon@@@std@@PAX@1@@Z$0:

; 1795 : #pragma warning(pop)
; 1796 : 		_CATCH_ALL
; 1797 : 		_Destroy_if_node(_Newnode);

	mov	eax, DWORD PTR __Newnode$[ebp]
	push	eax
	mov	ecx, DWORD PTR _this$[ebp]
	call	?_Destroy_if_node@?$_Tree@V?$_Tmap_traits@HPAVRaven_Weapon@@U?$less@H@std@@V?$allocator@U?$pair@$$CBHPAVRaven_Weapon@@@std@@@3@$0A@@std@@@std@@IAEXPAU?$_Tree_node@U?$pair@$$CBHPAVRaven_Weapon@@@std@@PAX@2@@Z ; std::_Tree<std::_Tmap_traits<int,Raven_Weapon *,std::less<int>,std::allocator<std::pair<int const ,Raven_Weapon *> >,0> >::_Destroy_if_node

; 1798 : 		_RERAISE;

	push	0
	push	0
	call	__CxxThrowException@8

; 1799 : 		_CATCH_END

	mov	eax, $LN30@Insert_noh
	ret	0
$LN20@Insert_noh:
	mov	DWORD PTR __$EHRec$[ebp+12], -1
	jmp	SHORT $LN15@Insert_noh
$LN30@Insert_noh:
	mov	DWORD PTR __$EHRec$[ebp+12], -1
$LN15@Insert_noh:

; 1800 : 		}

	push	edx
	mov	ecx, ebp
	push	eax
	lea	edx, DWORD PTR $LN34@Insert_noh
	call	@_RTC_CheckStackVars@8
	pop	eax
	pop	edx
	mov	ecx, DWORD PTR __$EHRec$[ebp+4]
	mov	DWORD PTR fs:0, ecx
	pop	ecx
	pop	edi
	pop	esi
	pop	ebx
	add	esp, 200				; 000000c8H
	cmp	ebp, esp
	call	__RTC_CheckEsp
	mov	esp, ebp
	pop	ebp
	ret	16					; 00000010H
$LN34@Insert_noh:
	DD	1
	DD	$LN33@Insert_noh
$LN33@Insert_noh:
	DD	-52					; ffffffccH
	DD	12					; 0000000cH
	DD	$LN31@Insert_noh
$LN31@Insert_noh:
	DB	95					; 0000005fH
	DB	87					; 00000057H
	DB	104					; 00000068H
	DB	101					; 00000065H
	DB	114					; 00000072H
	DB	101					; 00000065H
	DB	0
_TEXT	ENDS
;	COMDAT text$x
text$x	SEGMENT
__unwindfunclet$??$_Insert_nohint@AAU?$pair@$$CBHPAVRaven_Weapon@@@std@@PAU?$_Tree_node@U?$pair@$$CBHPAVRaven_Weapon@@@std@@PAX@2@@?$_Tree@V?$_Tmap_traits@HPAVRaven_Weapon@@U?$less@H@std@@V?$allocator@U?$pair@$$CBHPAVRaven_Weapon@@@std@@@3@$0A@@std@@@std@@IAE?AU?$pair@V?$_Tree_iterator@V?$_Tree_val@U?$_Tree_simple_types@U?$pair@$$CBHPAVRaven_Weapon@@@std@@@std@@@std@@@std@@_N@1@_NAAU?$pair@$$CBHPAVRaven_Weapon@@@1@PAU?$_Tree_node@U?$pair@$$CBHPAVRaven_Weapon@@@std@@PAX@1@@Z$4:
	lea	ecx, DWORD PTR __Where$12[ebp]
	jmp	??1?$_Tree_iterator@V?$_Tree_val@U?$_Tree_simple_types@U?$pair@$$CBHPAVRaven_Weapon@@@std@@@std@@@std@@@std@@QAE@XZ
__unwindfunclet$??$_Insert_nohint@AAU?$pair@$$CBHPAVRaven_Weapon@@@std@@PAU?$_Tree_node@U?$pair@$$CBHPAVRaven_Weapon@@@std@@PAX@2@@?$_Tree@V?$_Tmap_traits@HPAVRaven_Weapon@@U?$less@H@std@@V?$allocator@U?$pair@$$CBHPAVRaven_Weapon@@@std@@@3@$0A@@std@@@std@@IAE?AU?$pair@V?$_Tree_iterator@V?$_Tree_val@U?$_Tree_simple_types@U?$pair@$$CBHPAVRaven_Weapon@@@std@@@std@@@std@@@std@@_N@1@_NAAU?$pair@$$CBHPAVRaven_Weapon@@@1@PAU?$_Tree_node@U?$pair@$$CBHPAVRaven_Weapon@@@std@@PAX@1@@Z$5:
	lea	ecx, DWORD PTR $T8[ebp]
	jmp	??1?$_Tree_iterator@V?$_Tree_val@U?$_Tree_simple_types@U?$pair@$$CBHPAVRaven_Weapon@@@std@@@std@@@std@@@std@@QAE@XZ
__ehhandler$??$_Insert_nohint@AAU?$pair@$$CBHPAVRaven_Weapon@@@std@@PAU?$_Tree_node@U?$pair@$$CBHPAVRaven_Weapon@@@std@@PAX@2@@?$_Tree@V?$_Tmap_traits@HPAVRaven_Weapon@@U?$less@H@std@@V?$allocator@U?$pair@$$CBHPAVRaven_Weapon@@@std@@@3@$0A@@std@@@std@@IAE?AU?$pair@V?$_Tree_iterator@V?$_Tree_val@U?$_Tree_simple_types@U?$pair@$$CBHPAVRaven_Weapon@@@std@@@std@@@std@@@std@@_N@1@_NAAU?$pair@$$CBHPAVRaven_Weapon@@@1@PAU?$_Tree_node@U?$pair@$$CBHPAVRaven_Weapon@@@std@@PAX@1@@Z:
	mov	edx, DWORD PTR [esp+8]
	lea	eax, DWORD PTR [edx+12]
	mov	ecx, DWORD PTR [edx-204]
	xor	ecx, eax
	call	@__security_check_cookie@4
	mov	eax, OFFSET __ehfuncinfo$??$_Insert_nohint@AAU?$pair@$$CBHPAVRaven_Weapon@@@std@@PAU?$_Tree_node@U?$pair@$$CBHPAVRaven_Weapon@@@std@@PAX@2@@?$_Tree@V?$_Tmap_traits@HPAVRaven_Weapon@@U?$less@H@std@@V?$allocator@U?$pair@$$CBHPAVRaven_Weapon@@@std@@@3@$0A@@std@@@std@@IAE?AU?$pair@V?$_Tree_iterator@V?$_Tree_val@U?$_Tree_simple_types@U?$pair@$$CBHPAVRaven_Weapon@@@std@@@std@@@std@@@std@@_N@1@_NAAU?$pair@$$CBHPAVRaven_Weapon@@@1@PAU?$_Tree_node@U?$pair@$$CBHPAVRaven_Weapon@@@std@@PAX@1@@Z
	jmp	___CxxFrameHandler3
text$x	ENDS
??$_Insert_nohint@AAU?$pair@$$CBHPAVRaven_Weapon@@@std@@PAU?$_Tree_node@U?$pair@$$CBHPAVRaven_Weapon@@@std@@PAX@2@@?$_Tree@V?$_Tmap_traits@HPAVRaven_Weapon@@U?$less@H@std@@V?$allocator@U?$pair@$$CBHPAVRaven_Weapon@@@std@@@3@$0A@@std@@@std@@IAE?AU?$pair@V?$_Tree_iterator@V?$_Tree_val@U?$_Tree_simple_types@U?$pair@$$CBHPAVRaven_Weapon@@@std@@@std@@@std@@@std@@_N@1@_NAAU?$pair@$$CBHPAVRaven_Weapon@@@1@PAU?$_Tree_node@U?$pair@$$CBHPAVRaven_Weapon@@@std@@PAX@1@@Z ENDP ; std::_Tree<std::_Tmap_traits<int,Raven_Weapon *,std::less<int>,std::allocator<std::pair<int const ,Raven_Weapon *> >,0> >::_Insert_nohint<std::pair<int const ,Raven_Weapon *> &,std::_Tree_node<std::pair<int const ,Raven_Weapon *>,void *> *>
; Function compile flags: /Odtp /RTCsu
; File c:\program files (x86)\microsoft visual studio\2017\community\vc\tools\msvc\14.15.26726\include\xtree
;	COMDAT ??$_Insert_at@AAU?$pair@$$CBHPAVRaven_Weapon@@@std@@PAU?$_Tree_node@U?$pair@$$CBHPAVRaven_Weapon@@@std@@PAX@2@@?$_Tree@V?$_Tmap_traits@HPAVRaven_Weapon@@U?$less@H@std@@V?$allocator@U?$pair@$$CBHPAVRaven_Weapon@@@std@@@3@$0A@@std@@@std@@IAE?AV?$_Tree_iterator@V?$_Tree_val@U?$_Tree_simple_types@U?$pair@$$CBHPAVRaven_Weapon@@@std@@@std@@@std@@@1@_NPAU?$_Tree_node@U?$pair@$$CBHPAVRaven_Weapon@@@std@@PAX@1@AAU?$pair@$$CBHPAVRaven_Weapon@@@1@1@Z
_TEXT	SEGMENT
$T1 = -20						; size = 4
__Pnode$2 = -16						; size = 4
__Newnode$ = -12					; size = 4
__My_data$ = -8						; size = 4
_this$ = -4						; size = 4
___$ReturnUdt$ = 8					; size = 4
__Addleft$ = 12						; size = 1
__Wherenode$ = 16					; size = 4
__Val$ = 20						; size = 4
__Node$ = 24						; size = 4
??$_Insert_at@AAU?$pair@$$CBHPAVRaven_Weapon@@@std@@PAU?$_Tree_node@U?$pair@$$CBHPAVRaven_Weapon@@@std@@PAX@2@@?$_Tree@V?$_Tmap_traits@HPAVRaven_Weapon@@U?$less@H@std@@V?$allocator@U?$pair@$$CBHPAVRaven_Weapon@@@std@@@3@$0A@@std@@@std@@IAE?AV?$_Tree_iterator@V?$_Tree_val@U?$_Tree_simple_types@U?$pair@$$CBHPAVRaven_Weapon@@@std@@@std@@@std@@@1@_NPAU?$_Tree_node@U?$pair@$$CBHPAVRaven_Weapon@@@std@@PAX@1@AAU?$pair@$$CBHPAVRaven_Weapon@@@1@1@Z PROC ; std::_Tree<std::_Tmap_traits<int,Raven_Weapon *,std::less<int>,std::allocator<std::pair<int const ,Raven_Weapon *> >,0> >::_Insert_at<std::pair<int const ,Raven_Weapon *> &,std::_Tree_node<std::pair<int const ,Raven_Weapon *>,void *> *>, COMDAT
; _this$ = ecx

; 1805 : 		{	// add node with value next to _Wherenode, to left if _Addleft

	push	ebp
	mov	ebp, esp
	sub	esp, 20					; 00000014H
	mov	eax, -858993460				; ccccccccH
	mov	DWORD PTR [ebp-20], eax
	mov	DWORD PTR [ebp-16], eax
	mov	DWORD PTR [ebp-12], eax
	mov	DWORD PTR [ebp-8], eax
	mov	DWORD PTR [ebp-4], eax
	mov	DWORD PTR _this$[ebp], ecx
	mov	DWORD PTR $T1[ebp], 0

; 1806 : 		auto& _My_data = this->_Get_data();

	mov	ecx, DWORD PTR _this$[ebp]
	call	?_Get_data@?$_Tree_comp_alloc@V?$_Tmap_traits@HPAVRaven_Weapon@@U?$less@H@std@@V?$allocator@U?$pair@$$CBHPAVRaven_Weapon@@@std@@@3@$0A@@std@@@std@@QAEAAV?$_Tree_val@U?$_Tree_simple_types@U?$pair@$$CBHPAVRaven_Weapon@@@std@@@std@@@2@XZ ; std::_Tree_comp_alloc<std::_Tmap_traits<int,Raven_Weapon *,std::less<int>,std::allocator<std::pair<int const ,Raven_Weapon *> >,0> >::_Get_data
	mov	DWORD PTR __My_data$[ebp], eax

; 1807 : 		if (max_size() - 1 <= _My_data._Mysize)

	mov	ecx, DWORD PTR _this$[ebp]
	call	?max_size@?$_Tree@V?$_Tmap_traits@HPAVRaven_Weapon@@U?$less@H@std@@V?$allocator@U?$pair@$$CBHPAVRaven_Weapon@@@std@@@3@$0A@@std@@@std@@QBEIXZ ; std::_Tree<std::_Tmap_traits<int,Raven_Weapon *,std::less<int>,std::allocator<std::pair<int const ,Raven_Weapon *> >,0> >::max_size
	sub	eax, 1
	mov	ecx, DWORD PTR __My_data$[ebp]
	cmp	eax, DWORD PTR [ecx+8]
	ja	SHORT $LN5@Insert_at

; 1808 : 			{	// tree would get too big, fail
; 1809 : 			_Destroy_if_node(_Node);

	mov	edx, DWORD PTR __Node$[ebp]
	push	edx
	mov	ecx, DWORD PTR _this$[ebp]
	call	?_Destroy_if_node@?$_Tree@V?$_Tmap_traits@HPAVRaven_Weapon@@U?$less@H@std@@V?$allocator@U?$pair@$$CBHPAVRaven_Weapon@@@std@@@3@$0A@@std@@@std@@IAEXPAU?$_Tree_node@U?$pair@$$CBHPAVRaven_Weapon@@@std@@PAX@2@@Z ; std::_Tree<std::_Tmap_traits<int,Raven_Weapon *,std::less<int>,std::allocator<std::pair<int const ,Raven_Weapon *> >,0> >::_Destroy_if_node

; 1810 : 			_Xlength_error("map/set<T> too long");

	push	OFFSET ??_C@_0BE@JONHPENG@map?1set?$DMT?$DO?5too?5long@
	call	?_Xlength_error@std@@YAXPBD@Z		; std::_Xlength_error
$LN5@Insert_at:

; 1811 : 			}
; 1812 : 
; 1813 : 		_Nodeptr _Newnode = _Buy_if_not_node(_Node, _STD forward<_Valty>(_Val));

	mov	eax, DWORD PTR __Val$[ebp]
	push	eax
	call	??$forward@AAU?$pair@$$CBHPAVRaven_Weapon@@@std@@@std@@YAAAU?$pair@$$CBHPAVRaven_Weapon@@@0@AAU10@@Z ; std::forward<std::pair<int const ,Raven_Weapon *> &>
	add	esp, 4
	push	eax
	mov	ecx, DWORD PTR __Node$[ebp]
	push	ecx
	mov	ecx, DWORD PTR _this$[ebp]
	call	??$_Buy_if_not_node@AAU?$pair@$$CBHPAVRaven_Weapon@@@std@@@?$_Tree@V?$_Tmap_traits@HPAVRaven_Weapon@@U?$less@H@std@@V?$allocator@U?$pair@$$CBHPAVRaven_Weapon@@@std@@@3@$0A@@std@@@std@@IAEPAU?$_Tree_node@U?$pair@$$CBHPAVRaven_Weapon@@@std@@PAX@1@PAU21@AAU?$pair@$$CBHPAVRaven_Weapon@@@1@@Z ; std::_Tree<std::_Tmap_traits<int,Raven_Weapon *,std::less<int>,std::allocator<std::pair<int const ,Raven_Weapon *> >,0> >::_Buy_if_not_node<std::pair<int const ,Raven_Weapon *> &>
	mov	DWORD PTR __Newnode$[ebp], eax

; 1814 : 
; 1815 : 		++_My_data._Mysize;

	mov	edx, DWORD PTR __My_data$[ebp]
	mov	eax, DWORD PTR [edx+8]
	add	eax, 1
	mov	ecx, DWORD PTR __My_data$[ebp]
	mov	DWORD PTR [ecx+8], eax

; 1816 : 		_Newnode->_Parent = _Wherenode;

	mov	edx, DWORD PTR __Newnode$[ebp]
	mov	eax, DWORD PTR __Wherenode$[ebp]
	mov	DWORD PTR [edx+4], eax

; 1817 : 
; 1818 : 		if (_Wherenode == _My_data._Myhead)

	mov	ecx, DWORD PTR __My_data$[ebp]
	mov	edx, DWORD PTR __Wherenode$[ebp]
	cmp	edx, DWORD PTR [ecx+4]
	jne	SHORT $LN6@Insert_at

; 1819 : 			{	// first node in tree, just set head values
; 1820 : 			_My_data._Root() = _Newnode;

	mov	ecx, DWORD PTR __My_data$[ebp]
	call	?_Root@?$_Tree_val@U?$_Tree_simple_types@U?$pair@$$CBHPAVRaven_Weapon@@@std@@@std@@@std@@QBEAAPAU?$_Tree_node@U?$pair@$$CBHPAVRaven_Weapon@@@std@@PAX@2@XZ ; std::_Tree_val<std::_Tree_simple_types<std::pair<int const ,Raven_Weapon *> > >::_Root
	mov	ecx, DWORD PTR __Newnode$[ebp]
	mov	DWORD PTR [eax], ecx

; 1821 : 			_My_data._Lmost() = _Newnode;

	mov	ecx, DWORD PTR __My_data$[ebp]
	call	?_Lmost@?$_Tree_val@U?$_Tree_simple_types@U?$pair@$$CBHPAVRaven_Weapon@@@std@@@std@@@std@@QBEAAPAU?$_Tree_node@U?$pair@$$CBHPAVRaven_Weapon@@@std@@PAX@2@XZ ; std::_Tree_val<std::_Tree_simple_types<std::pair<int const ,Raven_Weapon *> > >::_Lmost
	mov	edx, DWORD PTR __Newnode$[ebp]
	mov	DWORD PTR [eax], edx

; 1822 : 			_My_data._Rmost() = _Newnode;

	mov	ecx, DWORD PTR __My_data$[ebp]
	call	?_Rmost@?$_Tree_val@U?$_Tree_simple_types@U?$pair@$$CBHPAVRaven_Weapon@@@std@@@std@@@std@@QBEAAPAU?$_Tree_node@U?$pair@$$CBHPAVRaven_Weapon@@@std@@PAX@2@XZ ; std::_Tree_val<std::_Tree_simple_types<std::pair<int const ,Raven_Weapon *> > >::_Rmost
	mov	ecx, DWORD PTR __Newnode$[ebp]
	mov	DWORD PTR [eax], ecx
	jmp	SHORT $LN7@Insert_at
$LN6@Insert_at:

; 1823 : 			}
; 1824 : 		else if (_Addleft)

	movzx	edx, BYTE PTR __Addleft$[ebp]
	test	edx, edx
	je	SHORT $LN8@Insert_at

; 1825 : 			{	// add to left of _Wherenode
; 1826 : 			_Wherenode->_Left = _Newnode;

	mov	eax, DWORD PTR __Wherenode$[ebp]
	mov	ecx, DWORD PTR __Newnode$[ebp]
	mov	DWORD PTR [eax], ecx

; 1827 : 			if (_Wherenode == _My_data._Lmost())

	mov	ecx, DWORD PTR __My_data$[ebp]
	call	?_Lmost@?$_Tree_val@U?$_Tree_simple_types@U?$pair@$$CBHPAVRaven_Weapon@@@std@@@std@@@std@@QBEAAPAU?$_Tree_node@U?$pair@$$CBHPAVRaven_Weapon@@@std@@PAX@2@XZ ; std::_Tree_val<std::_Tree_simple_types<std::pair<int const ,Raven_Weapon *> > >::_Lmost
	mov	edx, DWORD PTR __Wherenode$[ebp]
	cmp	edx, DWORD PTR [eax]
	jne	SHORT $LN10@Insert_at

; 1828 : 				{
; 1829 : 				_My_data._Lmost() = _Newnode;

	mov	ecx, DWORD PTR __My_data$[ebp]
	call	?_Lmost@?$_Tree_val@U?$_Tree_simple_types@U?$pair@$$CBHPAVRaven_Weapon@@@std@@@std@@@std@@QBEAAPAU?$_Tree_node@U?$pair@$$CBHPAVRaven_Weapon@@@std@@PAX@2@XZ ; std::_Tree_val<std::_Tree_simple_types<std::pair<int const ,Raven_Weapon *> > >::_Lmost
	mov	ecx, DWORD PTR __Newnode$[ebp]
	mov	DWORD PTR [eax], ecx
$LN10@Insert_at:

; 1830 : 				}
; 1831 : 			}
; 1832 : 		else

	jmp	SHORT $LN7@Insert_at
$LN8@Insert_at:

; 1833 : 			{	// add to right of _Wherenode
; 1834 : 			_Wherenode->_Right = _Newnode;

	mov	edx, DWORD PTR __Wherenode$[ebp]
	mov	eax, DWORD PTR __Newnode$[ebp]
	mov	DWORD PTR [edx+8], eax

; 1835 : 			if (_Wherenode == _My_data._Rmost())

	mov	ecx, DWORD PTR __My_data$[ebp]
	call	?_Rmost@?$_Tree_val@U?$_Tree_simple_types@U?$pair@$$CBHPAVRaven_Weapon@@@std@@@std@@@std@@QBEAAPAU?$_Tree_node@U?$pair@$$CBHPAVRaven_Weapon@@@std@@PAX@2@XZ ; std::_Tree_val<std::_Tree_simple_types<std::pair<int const ,Raven_Weapon *> > >::_Rmost
	mov	ecx, DWORD PTR __Wherenode$[ebp]
	cmp	ecx, DWORD PTR [eax]
	jne	SHORT $LN7@Insert_at

; 1836 : 				{
; 1837 : 				_My_data._Rmost() = _Newnode;

	mov	ecx, DWORD PTR __My_data$[ebp]
	call	?_Rmost@?$_Tree_val@U?$_Tree_simple_types@U?$pair@$$CBHPAVRaven_Weapon@@@std@@@std@@@std@@QBEAAPAU?$_Tree_node@U?$pair@$$CBHPAVRaven_Weapon@@@std@@PAX@2@XZ ; std::_Tree_val<std::_Tree_simple_types<std::pair<int const ,Raven_Weapon *> > >::_Rmost
	mov	edx, DWORD PTR __Newnode$[ebp]
	mov	DWORD PTR [eax], edx
$LN7@Insert_at:

; 1838 : 				}
; 1839 : 			}
; 1840 : 
; 1841 : 		for (_Nodeptr _Pnode = _Newnode; _Pnode->_Parent->_Color == this->_Red; )

	mov	eax, DWORD PTR __Newnode$[ebp]
	mov	DWORD PTR __Pnode$2[ebp], eax
$LN4@Insert_at:
	mov	ecx, DWORD PTR __Pnode$2[ebp]
	mov	edx, DWORD PTR [ecx+4]
	movsx	eax, BYTE PTR [edx+12]
	test	eax, eax
	jne	$LN3@Insert_at

; 1842 : 			{
; 1843 : 			if (_Pnode->_Parent == _Pnode->_Parent->_Parent->_Left)

	mov	ecx, DWORD PTR __Pnode$2[ebp]
	mov	edx, DWORD PTR [ecx+4]
	mov	eax, DWORD PTR [edx+4]
	mov	ecx, DWORD PTR __Pnode$2[ebp]
	mov	edx, DWORD PTR [ecx+4]
	cmp	edx, DWORD PTR [eax]
	jne	$LN12@Insert_at

; 1844 : 				{	// fixup red-red in left subtree
; 1845 : 				_Wherenode = _Pnode->_Parent->_Parent->_Right;

	mov	eax, DWORD PTR __Pnode$2[ebp]
	mov	ecx, DWORD PTR [eax+4]
	mov	edx, DWORD PTR [ecx+4]
	mov	eax, DWORD PTR [edx+8]
	mov	DWORD PTR __Wherenode$[ebp], eax

; 1846 : 				if (_Wherenode->_Color == this->_Red)

	mov	ecx, DWORD PTR __Wherenode$[ebp]
	movsx	edx, BYTE PTR [ecx+12]
	test	edx, edx
	jne	SHORT $LN14@Insert_at

; 1847 : 					{	// parent has two red children, blacken both
; 1848 : 					_Pnode->_Parent->_Color = this->_Black;

	mov	eax, DWORD PTR __Pnode$2[ebp]
	mov	ecx, DWORD PTR [eax+4]
	mov	BYTE PTR [ecx+12], 1

; 1849 : 					_Wherenode->_Color = this->_Black;

	mov	edx, DWORD PTR __Wherenode$[ebp]
	mov	BYTE PTR [edx+12], 1

; 1850 : 					_Pnode->_Parent->_Parent->_Color = this->_Red;

	mov	eax, DWORD PTR __Pnode$2[ebp]
	mov	ecx, DWORD PTR [eax+4]
	mov	edx, DWORD PTR [ecx+4]
	mov	BYTE PTR [edx+12], 0

; 1851 : 					_Pnode = _Pnode->_Parent->_Parent;

	mov	eax, DWORD PTR __Pnode$2[ebp]
	mov	ecx, DWORD PTR [eax+4]
	mov	edx, DWORD PTR [ecx+4]
	mov	DWORD PTR __Pnode$2[ebp], edx

; 1852 : 					}
; 1853 : 				else

	jmp	SHORT $LN15@Insert_at
$LN14@Insert_at:

; 1854 : 					{	// parent has red and black children
; 1855 : 					if (_Pnode == _Pnode->_Parent->_Right)

	mov	eax, DWORD PTR __Pnode$2[ebp]
	mov	ecx, DWORD PTR [eax+4]
	mov	edx, DWORD PTR __Pnode$2[ebp]
	cmp	edx, DWORD PTR [ecx+8]
	jne	SHORT $LN16@Insert_at

; 1856 : 						{	// rotate right child to left
; 1857 : 						_Pnode = _Pnode->_Parent;

	mov	eax, DWORD PTR __Pnode$2[ebp]
	mov	ecx, DWORD PTR [eax+4]
	mov	DWORD PTR __Pnode$2[ebp], ecx

; 1858 : 						_My_data._Lrotate(_Pnode);

	mov	edx, DWORD PTR __Pnode$2[ebp]
	push	edx
	mov	ecx, DWORD PTR __My_data$[ebp]
	call	?_Lrotate@?$_Tree_val@U?$_Tree_simple_types@U?$pair@$$CBHPAVRaven_Weapon@@@std@@@std@@@std@@QAEXPAU?$_Tree_node@U?$pair@$$CBHPAVRaven_Weapon@@@std@@PAX@2@@Z ; std::_Tree_val<std::_Tree_simple_types<std::pair<int const ,Raven_Weapon *> > >::_Lrotate
$LN16@Insert_at:

; 1859 : 						}
; 1860 : 
; 1861 : 					_Pnode->_Parent->_Color = this->_Black;	// propagate red up

	mov	eax, DWORD PTR __Pnode$2[ebp]
	mov	ecx, DWORD PTR [eax+4]
	mov	BYTE PTR [ecx+12], 1

; 1862 : 					_Pnode->_Parent->_Parent->_Color = this->_Red;

	mov	edx, DWORD PTR __Pnode$2[ebp]
	mov	eax, DWORD PTR [edx+4]
	mov	ecx, DWORD PTR [eax+4]
	mov	BYTE PTR [ecx+12], 0

; 1863 : 					_My_data._Rrotate(_Pnode->_Parent->_Parent);

	mov	edx, DWORD PTR __Pnode$2[ebp]
	mov	eax, DWORD PTR [edx+4]
	mov	ecx, DWORD PTR [eax+4]
	push	ecx
	mov	ecx, DWORD PTR __My_data$[ebp]
	call	?_Rrotate@?$_Tree_val@U?$_Tree_simple_types@U?$pair@$$CBHPAVRaven_Weapon@@@std@@@std@@@std@@QAEXPAU?$_Tree_node@U?$pair@$$CBHPAVRaven_Weapon@@@std@@PAX@2@@Z ; std::_Tree_val<std::_Tree_simple_types<std::pair<int const ,Raven_Weapon *> > >::_Rrotate
$LN15@Insert_at:

; 1864 : 					}
; 1865 : 				}
; 1866 : 			else

	jmp	$LN13@Insert_at
$LN12@Insert_at:

; 1867 : 				{	// fixup red-red in right subtree
; 1868 : 				_Wherenode = _Pnode->_Parent->_Parent->_Left;

	mov	edx, DWORD PTR __Pnode$2[ebp]
	mov	eax, DWORD PTR [edx+4]
	mov	ecx, DWORD PTR [eax+4]
	mov	edx, DWORD PTR [ecx]
	mov	DWORD PTR __Wherenode$[ebp], edx

; 1869 : 				if (_Wherenode->_Color == this->_Red)

	mov	eax, DWORD PTR __Wherenode$[ebp]
	movsx	ecx, BYTE PTR [eax+12]
	test	ecx, ecx
	jne	SHORT $LN17@Insert_at

; 1870 : 					{	// parent has two red children, blacken both
; 1871 : 					_Pnode->_Parent->_Color = this->_Black;

	mov	edx, DWORD PTR __Pnode$2[ebp]
	mov	eax, DWORD PTR [edx+4]
	mov	BYTE PTR [eax+12], 1

; 1872 : 					_Wherenode->_Color = this->_Black;

