; Listing generated by Microsoft (R) Optimizing Compiler Version 19.15.26730.0 

	TITLE	C:\Users\Utilisateur\Documents\GitHub\8IAR125-ProjetRaven\VS2015\Buckland_Chapter7 to 10_Raven\Raven_SensoryMemory.cpp
	.686P
	.XMM
	include listing.inc
	.model	flat

INCLUDELIB LIBCMTD
INCLUDELIB OLDNAMES

CONST	SEGMENT
?colors@@3QBKB DD 0ffH					; colors
	DD	0ff0000H
	DD	0ff00H
	DD	00H
	DD	0c8c8ffH
	DD	0c8c8c8H
	DD	0ffffH
	DD	0aaffH
	DD	0aa00ffH
	DD	05a85H
	DD	0ffffffH
	DD	06400H
	DD	0ffff00H
	DD	0c8c8c8H
	DD	0e6e6ffH
?piecewise_construct@std@@3Upiecewise_construct_t@1@B	ORG $+1 ; std::piecewise_construct
	ORG $+3
$SG154035 DB	'< Raven_SensoryMemory::GetLastRecordedPositionOfOpponent'
	DB	'>: Attempting to get position of unrecorded bot', 00H
CONST	ENDS
PUBLIC	?__empty_global_delete@@YAXPAX@Z		; __empty_global_delete
PUBLIC	?__empty_global_delete@@YAXPAXI@Z		; __empty_global_delete
PUBLIC	??2@YAPAXIPAX@Z					; operator new
PUBLIC	??0exception@std@@QAE@QBD@Z			; std::exception::exception
PUBLIC	??0exception@std@@QAE@ABV01@@Z			; std::exception::exception
PUBLIC	??1exception@std@@UAE@XZ			; std::exception::~exception
PUBLIC	?what@exception@std@@UBEPBDXZ			; std::exception::what
PUBLIC	??_Gexception@std@@UAEPAXI@Z			; std::exception::`scalar deleting destructor'
PUBLIC	?_Adopt@_Iterator_base0@std@@QAEXPBX@Z		; std::_Iterator_base0::_Adopt
PUBLIC	??0_Container_proxy@std@@QAE@XZ			; std::_Container_proxy::_Container_proxy
PUBLIC	??0_Container_base12@std@@QAE@XZ		; std::_Container_base12::_Container_base12
PUBLIC	?_Getpfirst@_Container_base12@std@@QBEPAPAU_Iterator_base12@2@XZ ; std::_Container_base12::_Getpfirst
PUBLIC	?_Orphan_all@_Container_base12@std@@QAEXXZ	; std::_Container_base12::_Orphan_all
PUBLIC	?_Swap_all@_Container_base12@std@@QAEXAAU12@@Z	; std::_Container_base12::_Swap_all
PUBLIC	??0_Iterator_base12@std@@QAE@XZ			; std::_Iterator_base12::_Iterator_base12
PUBLIC	??0_Iterator_base12@std@@QAE@ABU01@@Z		; std::_Iterator_base12::_Iterator_base12
PUBLIC	??4_Iterator_base12@std@@QAEAAU01@ABU01@@Z	; std::_Iterator_base12::operator=
PUBLIC	??1_Iterator_base12@std@@QAE@XZ			; std::_Iterator_base12::~_Iterator_base12
PUBLIC	?_Adopt@_Iterator_base12@std@@QAEXPBU_Container_base12@2@@Z ; std::_Iterator_base12::_Adopt
PUBLIC	?_Clrcont@_Iterator_base12@std@@QAEXXZ		; std::_Iterator_base12::_Clrcont
PUBLIC	?_Getcont@_Iterator_base12@std@@QBEPBU_Container_base12@2@XZ ; std::_Iterator_base12::_Getcont
PUBLIC	?_Getpnext@_Iterator_base12@std@@QAEPAPAU12@XZ	; std::_Iterator_base12::_Getpnext
PUBLIC	?_Orphan_me@_Iterator_base12@std@@QAEXXZ	; std::_Iterator_base12::_Orphan_me
PUBLIC	??0?$tuple@$$V@std@@QAE@XZ			; std::tuple<>::tuple<>
PUBLIC	??0?$tuple@$$V@std@@QAE@ABV01@@Z		; std::tuple<>::tuple<>
PUBLIC	?max@?$numeric_limits@H@std@@SAHXZ		; std::numeric_limits<int>::max
PUBLIC	?min@?$numeric_limits@M@std@@SAMXZ		; std::numeric_limits<float>::min
PUBLIC	?max@?$numeric_limits@M@std@@SAMXZ		; std::numeric_limits<float>::max
PUBLIC	?min@?$numeric_limits@N@std@@SANXZ		; std::numeric_limits<double>::min
PUBLIC	?max@?$numeric_limits@N@std@@SANXZ		; std::numeric_limits<double>::max
PUBLIC	?epsilon@?$numeric_limits@N@std@@SANXZ		; std::numeric_limits<double>::epsilon
PUBLIC	?_Allocate@_Default_allocate_traits@std@@SAPAXI@Z ; std::_Default_allocate_traits::_Allocate
PUBLIC	?_Adjust_manually_vector_aligned@std@@YAXAAPAXAAI@Z ; std::_Adjust_manually_vector_aligned
PUBLIC	??0runtime_error@std@@QAE@PBD@Z			; std::runtime_error::runtime_error
PUBLIC	??1runtime_error@std@@UAE@XZ			; std::runtime_error::~runtime_error
PUBLIC	??0runtime_error@std@@QAE@ABV01@@Z		; std::runtime_error::runtime_error
PUBLIC	??_Gruntime_error@std@@UAEPAXI@Z		; std::runtime_error::`scalar deleting destructor'
PUBLIC	??0id@locale@std@@QAE@I@Z			; std::locale::id::id
PUBLIC	??0Vector2D@@QAE@XZ				; Vector2D::Vector2D
PUBLIC	?Length@Vector2D@@QBENXZ			; Vector2D::Length
PUBLIC	?Dot@Vector2D@@QBENABU1@@Z			; Vector2D::Dot
PUBLIC	??G@YA?AUVector2D@@ABU0@0@Z			; operator-
PUBLIC	?Vec2DNormalize@@YA?AUVector2D@@ABU1@@Z		; Vec2DNormalize
PUBLIC	?isSecondInFOVOfFirst@@YA_NUVector2D@@00N@Z	; isSecondInFOVOfFirst
PUBLIC	??0MemoryRecord@@QAE@XZ				; MemoryRecord::MemoryRecord
PUBLIC	??0?$allocator@U?$_Tree_node@U?$pair@QAVRaven_Bot@@VMemoryRecord@@@std@@PAX@std@@@std@@QAE@XZ ; std::allocator<std::_Tree_node<std::pair<Raven_Bot * const,MemoryRecord>,void *> >::allocator<std::_Tree_node<std::pair<Raven_Bot * const,MemoryRecord>,void *> >
PUBLIC	?deallocate@?$allocator@U?$_Tree_node@U?$pair@QAVRaven_Bot@@VMemoryRecord@@@std@@PAX@std@@@std@@QAEXQAU?$_Tree_node@U?$pair@QAVRaven_Bot@@VMemoryRecord@@@std@@PAX@2@I@Z ; std::allocator<std::_Tree_node<std::pair<Raven_Bot * const,MemoryRecord>,void *> >::deallocate
PUBLIC	?allocate@?$allocator@U?$_Tree_node@U?$pair@QAVRaven_Bot@@VMemoryRecord@@@std@@PAX@std@@@std@@QAEPAU?$_Tree_node@U?$pair@QAVRaven_Bot@@VMemoryRecord@@@std@@PAX@2@I@Z ; std::allocator<std::_Tree_node<std::pair<Raven_Bot * const,MemoryRecord>,void *> >::allocate
PUBLIC	?deallocate@?$_Default_allocator_traits@V?$allocator@U?$_Tree_node@U?$pair@QAVRaven_Bot@@VMemoryRecord@@@std@@PAX@std@@@std@@@std@@SAXAAV?$allocator@U?$_Tree_node@U?$pair@QAVRaven_Bot@@VMemoryRecord@@@std@@PAX@std@@@2@QAU?$_Tree_node@U?$pair@QAVRaven_Bot@@VMemoryRecord@@@std@@PAX@2@I@Z ; std::_Default_allocator_traits<std::allocator<std::_Tree_node<std::pair<Raven_Bot * const,MemoryRecord>,void *> > >::deallocate
PUBLIC	?max_size@?$_Default_allocator_traits@V?$allocator@U?$_Tree_node@U?$pair@QAVRaven_Bot@@VMemoryRecord@@@std@@PAX@std@@@std@@@std@@SAIABV?$allocator@U?$_Tree_node@U?$pair@QAVRaven_Bot@@VMemoryRecord@@@std@@PAX@std@@@2@@Z ; std::_Default_allocator_traits<std::allocator<std::_Tree_node<std::pair<Raven_Bot * const,MemoryRecord>,void *> > >::max_size
PUBLIC	??0?$_Tree_comp_alloc@V?$_Tmap_traits@PAVRaven_Bot@@VMemoryRecord@@U?$less@PAVRaven_Bot@@@std@@V?$allocator@U?$pair@QAVRaven_Bot@@VMemoryRecord@@@std@@@4@$0A@@std@@@std@@QAE@ABU?$less@PAVRaven_Bot@@@1@@Z ; std::_Tree_comp_alloc<std::_Tmap_traits<Raven_Bot *,MemoryRecord,std::less<Raven_Bot *>,std::allocator<std::pair<Raven_Bot * const,MemoryRecord> >,0> >::_Tree_comp_alloc<std::_Tmap_traits<Raven_Bot *,MemoryRecord,std::less<Raven_Bot *>,std::allocator<std::pair<Raven_Bot * const,MemoryRecord> >,0> >
PUBLIC	?_Construct@?$_Tree_comp_alloc@V?$_Tmap_traits@PAVRaven_Bot@@VMemoryRecord@@U?$less@PAVRaven_Bot@@@std@@V?$allocator@U?$pair@QAVRaven_Bot@@VMemoryRecord@@@std@@@4@$0A@@std@@@std@@QAEXXZ ; std::_Tree_comp_alloc<std::_Tmap_traits<Raven_Bot *,MemoryRecord,std::less<Raven_Bot *>,std::allocator<std::pair<Raven_Bot * const,MemoryRecord> >,0> >::_Construct
PUBLIC	?_Alloc_proxy@?$_Tree_comp_alloc@V?$_Tmap_traits@PAVRaven_Bot@@VMemoryRecord@@U?$less@PAVRaven_Bot@@@std@@V?$allocator@U?$pair@QAVRaven_Bot@@VMemoryRecord@@@std@@@4@$0A@@std@@@std@@QAEXXZ ; std::_Tree_comp_alloc<std::_Tmap_traits<Raven_Bot *,MemoryRecord,std::less<Raven_Bot *>,std::allocator<std::pair<Raven_Bot * const,MemoryRecord> >,0> >::_Alloc_proxy
PUBLIC	?_Getpfirst@?$_Tree_comp_alloc@V?$_Tmap_traits@PAVRaven_Bot@@VMemoryRecord@@U?$less@PAVRaven_Bot@@@std@@V?$allocator@U?$pair@QAVRaven_Bot@@VMemoryRecord@@@std@@@4@$0A@@std@@@std@@QBEPAPAU_Iterator_base12@2@XZ ; std::_Tree_comp_alloc<std::_Tmap_traits<Raven_Bot *,MemoryRecord,std::less<Raven_Bot *>,std::allocator<std::pair<Raven_Bot * const,MemoryRecord> >,0> >::_Getpfirst
PUBLIC	?_Myproxy@?$_Tree_comp_alloc@V?$_Tmap_traits@PAVRaven_Bot@@VMemoryRecord@@U?$less@PAVRaven_Bot@@@std@@V?$allocator@U?$pair@QAVRaven_Bot@@VMemoryRecord@@@std@@@4@$0A@@std@@@std@@QAEAAPAU_Container_proxy@2@XZ ; std::_Tree_comp_alloc<std::_Tmap_traits<Raven_Bot *,MemoryRecord,std::less<Raven_Bot *>,std::allocator<std::pair<Raven_Bot * const,MemoryRecord> >,0> >::_Myproxy
PUBLIC	?_Buyheadnode@?$_Tree_comp_alloc@V?$_Tmap_traits@PAVRaven_Bot@@VMemoryRecord@@U?$less@PAVRaven_Bot@@@std@@V?$allocator@U?$pair@QAVRaven_Bot@@VMemoryRecord@@@std@@@4@$0A@@std@@@std@@QAEPAU?$_Tree_node@U?$pair@QAVRaven_Bot@@VMemoryRecord@@@std@@PAX@2@XZ ; std::_Tree_comp_alloc<std::_Tmap_traits<Raven_Bot *,MemoryRecord,std::less<Raven_Bot *>,std::allocator<std::pair<Raven_Bot * const,MemoryRecord> >,0> >::_Buyheadnode
PUBLIC	?_Freeheadnode@?$_Tree_comp_alloc@V?$_Tmap_traits@PAVRaven_Bot@@VMemoryRecord@@U?$less@PAVRaven_Bot@@@std@@V?$allocator@U?$pair@QAVRaven_Bot@@VMemoryRecord@@@std@@@4@$0A@@std@@@std@@QAEXPAU?$_Tree_node@U?$pair@QAVRaven_Bot@@VMemoryRecord@@@std@@PAX@2@@Z ; std::_Tree_comp_alloc<std::_Tmap_traits<Raven_Bot *,MemoryRecord,std::less<Raven_Bot *>,std::allocator<std::pair<Raven_Bot * const,MemoryRecord> >,0> >::_Freeheadnode
PUBLIC	?_Buynode0@?$_Tree_comp_alloc@V?$_Tmap_traits@PAVRaven_Bot@@VMemoryRecord@@U?$less@PAVRaven_Bot@@@std@@V?$allocator@U?$pair@QAVRaven_Bot@@VMemoryRecord@@@std@@@4@$0A@@std@@@std@@QAEPAU?$_Tree_node@U?$pair@QAVRaven_Bot@@VMemoryRecord@@@std@@PAX@2@XZ ; std::_Tree_comp_alloc<std::_Tmap_traits<Raven_Bot *,MemoryRecord,std::less<Raven_Bot *>,std::allocator<std::pair<Raven_Bot * const,MemoryRecord> >,0> >::_Buynode0
PUBLIC	?_Freenode0@?$_Tree_comp_alloc@V?$_Tmap_traits@PAVRaven_Bot@@VMemoryRecord@@U?$less@PAVRaven_Bot@@@std@@V?$allocator@U?$pair@QAVRaven_Bot@@VMemoryRecord@@@std@@@4@$0A@@std@@@std@@QAEXPAU?$_Tree_node@U?$pair@QAVRaven_Bot@@VMemoryRecord@@@std@@PAX@2@@Z ; std::_Tree_comp_alloc<std::_Tmap_traits<Raven_Bot *,MemoryRecord,std::less<Raven_Bot *>,std::allocator<std::pair<Raven_Bot * const,MemoryRecord> >,0> >::_Freenode0
PUBLIC	?_Getcomp@?$_Tree_comp_alloc@V?$_Tmap_traits@PAVRaven_Bot@@VMemoryRecord@@U?$less@PAVRaven_Bot@@@std@@V?$allocator@U?$pair@QAVRaven_Bot@@VMemoryRecord@@@std@@@4@$0A@@std@@@std@@QAEAAU?$less@PAVRaven_Bot@@@2@XZ ; std::_Tree_comp_alloc<std::_Tmap_traits<Raven_Bot *,MemoryRecord,std::less<Raven_Bot *>,std::allocator<std::pair<Raven_Bot * const,MemoryRecord> >,0> >::_Getcomp
PUBLIC	?_Getcomp@?$_Tree_comp_alloc@V?$_Tmap_traits@PAVRaven_Bot@@VMemoryRecord@@U?$less@PAVRaven_Bot@@@std@@V?$allocator@U?$pair@QAVRaven_Bot@@VMemoryRecord@@@std@@@4@$0A@@std@@@std@@QBEABU?$less@PAVRaven_Bot@@@2@XZ ; std::_Tree_comp_alloc<std::_Tmap_traits<Raven_Bot *,MemoryRecord,std::less<Raven_Bot *>,std::allocator<std::pair<Raven_Bot * const,MemoryRecord> >,0> >::_Getcomp
PUBLIC	?_Getal@?$_Tree_comp_alloc@V?$_Tmap_traits@PAVRaven_Bot@@VMemoryRecord@@U?$less@PAVRaven_Bot@@@std@@V?$allocator@U?$pair@QAVRaven_Bot@@VMemoryRecord@@@std@@@4@$0A@@std@@@std@@QAEAAV?$allocator@U?$_Tree_node@U?$pair@QAVRaven_Bot@@VMemoryRecord@@@std@@PAX@std@@@2@XZ ; std::_Tree_comp_alloc<std::_Tmap_traits<Raven_Bot *,MemoryRecord,std::less<Raven_Bot *>,std::allocator<std::pair<Raven_Bot * const,MemoryRecord> >,0> >::_Getal
PUBLIC	?_Getal@?$_Tree_comp_alloc@V?$_Tmap_traits@PAVRaven_Bot@@VMemoryRecord@@U?$less@PAVRaven_Bot@@@std@@V?$allocator@U?$pair@QAVRaven_Bot@@VMemoryRecord@@@std@@@4@$0A@@std@@@std@@QBEABV?$allocator@U?$_Tree_node@U?$pair@QAVRaven_Bot@@VMemoryRecord@@@std@@PAX@std@@@2@XZ ; std::_Tree_comp_alloc<std::_Tmap_traits<Raven_Bot *,MemoryRecord,std::less<Raven_Bot *>,std::allocator<std::pair<Raven_Bot * const,MemoryRecord> >,0> >::_Getal
PUBLIC	?_Get_data@?$_Tree_comp_alloc@V?$_Tmap_traits@PAVRaven_Bot@@VMemoryRecord@@U?$less@PAVRaven_Bot@@@std@@V?$allocator@U?$pair@QAVRaven_Bot@@VMemoryRecord@@@std@@@4@$0A@@std@@@std@@QAEAAV?$_Tree_val@U?$_Tree_simple_types@U?$pair@QAVRaven_Bot@@VMemoryRecord@@@std@@@std@@@2@XZ ; std::_Tree_comp_alloc<std::_Tmap_traits<Raven_Bot *,MemoryRecord,std::less<Raven_Bot *>,std::allocator<std::pair<Raven_Bot * const,MemoryRecord> >,0> >::_Get_data
PUBLIC	?_Get_data@?$_Tree_comp_alloc@V?$_Tmap_traits@PAVRaven_Bot@@VMemoryRecord@@U?$less@PAVRaven_Bot@@@std@@V?$allocator@U?$pair@QAVRaven_Bot@@VMemoryRecord@@@std@@@4@$0A@@std@@@std@@QBEABV?$_Tree_val@U?$_Tree_simple_types@U?$pair@QAVRaven_Bot@@VMemoryRecord@@@std@@@std@@@2@XZ ; std::_Tree_comp_alloc<std::_Tmap_traits<Raven_Bot *,MemoryRecord,std::less<Raven_Bot *>,std::allocator<std::pair<Raven_Bot * const,MemoryRecord> >,0> >::_Get_data
PUBLIC	??R?$less@PAVRaven_Bot@@@std@@QBE_NABQAVRaven_Bot@@0@Z ; std::less<Raven_Bot *>::operator()
PUBLIC	??0?$_Tree_val@U?$_Tree_simple_types@U?$pair@QAVRaven_Bot@@VMemoryRecord@@@std@@@std@@@std@@QAE@XZ ; std::_Tree_val<std::_Tree_simple_types<std::pair<Raven_Bot * const,MemoryRecord> > >::_Tree_val<std::_Tree_simple_types<std::pair<Raven_Bot * const,MemoryRecord> > >
PUBLIC	?_Max@?$_Tree_val@U?$_Tree_simple_types@U?$pair@QAVRaven_Bot@@VMemoryRecord@@@std@@@std@@@std@@SAPAU?$_Tree_node@U?$pair@QAVRaven_Bot@@VMemoryRecord@@@std@@PAX@2@PAU32@@Z ; std::_Tree_val<std::_Tree_simple_types<std::pair<Raven_Bot * const,MemoryRecord> > >::_Max
PUBLIC	?_Min@?$_Tree_val@U?$_Tree_simple_types@U?$pair@QAVRaven_Bot@@VMemoryRecord@@@std@@@std@@@std@@SAPAU?$_Tree_node@U?$pair@QAVRaven_Bot@@VMemoryRecord@@@std@@PAX@2@PAU32@@Z ; std::_Tree_val<std::_Tree_simple_types<std::pair<Raven_Bot * const,MemoryRecord> > >::_Min
PUBLIC	?_Root@?$_Tree_val@U?$_Tree_simple_types@U?$pair@QAVRaven_Bot@@VMemoryRecord@@@std@@@std@@@std@@QBEAAPAU?$_Tree_node@U?$pair@QAVRaven_Bot@@VMemoryRecord@@@std@@PAX@2@XZ ; std::_Tree_val<std::_Tree_simple_types<std::pair<Raven_Bot * const,MemoryRecord> > >::_Root
PUBLIC	?_Lmost@?$_Tree_val@U?$_Tree_simple_types@U?$pair@QAVRaven_Bot@@VMemoryRecord@@@std@@@std@@@std@@QBEAAPAU?$_Tree_node@U?$pair@QAVRaven_Bot@@VMemoryRecord@@@std@@PAX@2@XZ ; std::_Tree_val<std::_Tree_simple_types<std::pair<Raven_Bot * const,MemoryRecord> > >::_Lmost
PUBLIC	?_Rmost@?$_Tree_val@U?$_Tree_simple_types@U?$pair@QAVRaven_Bot@@VMemoryRecord@@@std@@@std@@@std@@QBEAAPAU?$_Tree_node@U?$pair@QAVRaven_Bot@@VMemoryRecord@@@std@@PAX@2@XZ ; std::_Tree_val<std::_Tree_simple_types<std::pair<Raven_Bot * const,MemoryRecord> > >::_Rmost
PUBLIC	?_Lrotate@?$_Tree_val@U?$_Tree_simple_types@U?$pair@QAVRaven_Bot@@VMemoryRecord@@@std@@@std@@@std@@QAEXPAU?$_Tree_node@U?$pair@QAVRaven_Bot@@VMemoryRecord@@@std@@PAX@2@@Z ; std::_Tree_val<std::_Tree_simple_types<std::pair<Raven_Bot * const,MemoryRecord> > >::_Lrotate
PUBLIC	?_Rrotate@?$_Tree_val@U?$_Tree_simple_types@U?$pair@QAVRaven_Bot@@VMemoryRecord@@@std@@@std@@@std@@QAEXPAU?$_Tree_node@U?$pair@QAVRaven_Bot@@VMemoryRecord@@@std@@PAX@2@@Z ; std::_Tree_val<std::_Tree_simple_types<std::pair<Raven_Bot * const,MemoryRecord> > >::_Rrotate
PUBLIC	?_Extract@?$_Tree_val@U?$_Tree_simple_types@U?$pair@QAVRaven_Bot@@VMemoryRecord@@@std@@@std@@@std@@QAEPAU?$_Tree_node@U?$pair@QAVRaven_Bot@@VMemoryRecord@@@std@@PAX@2@V?$_Tree_const_iterator@V?$_Tree_val@U?$_Tree_simple_types@U?$pair@QAVRaven_Bot@@VMemoryRecord@@@std@@@std@@@std@@@2@@Z ; std::_Tree_val<std::_Tree_simple_types<std::pair<Raven_Bot * const,MemoryRecord> > >::_Extract
PUBLIC	?_Get_first@?$_Compressed_pair@V?$allocator@U?$_Tree_node@U?$pair@QAVRaven_Bot@@VMemoryRecord@@@std@@PAX@std@@@std@@V?$_Tree_val@U?$_Tree_simple_types@U?$pair@QAVRaven_Bot@@VMemoryRecord@@@std@@@std@@@2@$00@std@@QAEAAV?$allocator@U?$_Tree_node@U?$pair@QAVRaven_Bot@@VMemoryRecord@@@std@@PAX@std@@@2@XZ ; std::_Compressed_pair<std::allocator<std::_Tree_node<std::pair<Raven_Bot * const,MemoryRecord>,void *> >,std::_Tree_val<std::_Tree_simple_types<std::pair<Raven_Bot * const,MemoryRecord> > >,1>::_Get_first
PUBLIC	?_Get_first@?$_Compressed_pair@V?$allocator@U?$_Tree_node@U?$pair@QAVRaven_Bot@@VMemoryRecord@@@std@@PAX@std@@@std@@V?$_Tree_val@U?$_Tree_simple_types@U?$pair@QAVRaven_Bot@@VMemoryRecord@@@std@@@std@@@2@$00@std@@QBEABV?$allocator@U?$_Tree_node@U?$pair@QAVRaven_Bot@@VMemoryRecord@@@std@@PAX@std@@@2@XZ ; std::_Compressed_pair<std::allocator<std::_Tree_node<std::pair<Raven_Bot * const,MemoryRecord>,void *> >,std::_Tree_val<std::_Tree_simple_types<std::pair<Raven_Bot * const,MemoryRecord> > >,1>::_Get_first
PUBLIC	?_Get_second@?$_Compressed_pair@V?$allocator@U?$_Tree_node@U?$pair@QAVRaven_Bot@@VMemoryRecord@@@std@@PAX@std@@@std@@V?$_Tree_val@U?$_Tree_simple_types@U?$pair@QAVRaven_Bot@@VMemoryRecord@@@std@@@std@@@2@$00@std@@QAEAAV?$_Tree_val@U?$_Tree_simple_types@U?$pair@QAVRaven_Bot@@VMemoryRecord@@@std@@@std@@@2@XZ ; std::_Compressed_pair<std::allocator<std::_Tree_node<std::pair<Raven_Bot * const,MemoryRecord>,void *> >,std::_Tree_val<std::_Tree_simple_types<std::pair<Raven_Bot * const,MemoryRecord> > >,1>::_Get_second
PUBLIC	?_Get_second@?$_Compressed_pair@V?$allocator@U?$_Tree_node@U?$pair@QAVRaven_Bot@@VMemoryRecord@@@std@@PAX@std@@@std@@V?$_Tree_val@U?$_Tree_simple_types@U?$pair@QAVRaven_Bot@@VMemoryRecord@@@std@@@std@@@2@$00@std@@QBEABV?$_Tree_val@U?$_Tree_simple_types@U?$pair@QAVRaven_Bot@@VMemoryRecord@@@std@@@std@@@2@XZ ; std::_Compressed_pair<std::allocator<std::_Tree_node<std::pair<Raven_Bot * const,MemoryRecord>,void *> >,std::_Tree_val<std::_Tree_simple_types<std::pair<Raven_Bot * const,MemoryRecord> > >,1>::_Get_second
PUBLIC	?_Get_first@?$_Compressed_pair@U?$less@PAVRaven_Bot@@@std@@V?$_Compressed_pair@V?$allocator@U?$_Tree_node@U?$pair@QAVRaven_Bot@@VMemoryRecord@@@std@@PAX@std@@@std@@V?$_Tree_val@U?$_Tree_simple_types@U?$pair@QAVRaven_Bot@@VMemoryRecord@@@std@@@std@@@2@$00@2@$00@std@@QAEAAU?$less@PAVRaven_Bot@@@2@XZ ; std::_Compressed_pair<std::less<Raven_Bot *>,std::_Compressed_pair<std::allocator<std::_Tree_node<std::pair<Raven_Bot * const,MemoryRecord>,void *> >,std::_Tree_val<std::_Tree_simple_types<std::pair<Raven_Bot * const,MemoryRecord> > >,1>,1>::_Get_first
PUBLIC	?_Get_first@?$_Compressed_pair@U?$less@PAVRaven_Bot@@@std@@V?$_Compressed_pair@V?$allocator@U?$_Tree_node@U?$pair@QAVRaven_Bot@@VMemoryRecord@@@std@@PAX@std@@@std@@V?$_Tree_val@U?$_Tree_simple_types@U?$pair@QAVRaven_Bot@@VMemoryRecord@@@std@@@std@@@2@$00@2@$00@std@@QBEABU?$less@PAVRaven_Bot@@@2@XZ ; std::_Compressed_pair<std::less<Raven_Bot *>,std::_Compressed_pair<std::allocator<std::_Tree_node<std::pair<Raven_Bot * const,MemoryRecord>,void *> >,std::_Tree_val<std::_Tree_simple_types<std::pair<Raven_Bot * const,MemoryRecord> > >,1>,1>::_Get_first
PUBLIC	?_Get_second@?$_Compressed_pair@U?$less@PAVRaven_Bot@@@std@@V?$_Compressed_pair@V?$allocator@U?$_Tree_node@U?$pair@QAVRaven_Bot@@VMemoryRecord@@@std@@PAX@std@@@std@@V?$_Tree_val@U?$_Tree_simple_types@U?$pair@QAVRaven_Bot@@VMemoryRecord@@@std@@@std@@@2@$00@2@$00@std@@QAEAAV?$_Compressed_pair@V?$allocator@U?$_Tree_node@U?$pair@QAVRaven_Bot@@VMemoryRecord@@@std@@PAX@std@@@std@@V?$_Tree_val@U?$_Tree_simple_types@U?$pair@QAVRaven_Bot@@VMemoryRecord@@@std@@@std@@@2@$00@2@XZ ; std::_Compressed_pair<std::less<Raven_Bot *>,std::_Compressed_pair<std::allocator<std::_Tree_node<std::pair<Raven_Bot * const,MemoryRecord>,void *> >,std::_Tree_val<std::_Tree_simple_types<std::pair<Raven_Bot * const,MemoryRecord> > >,1>,1>::_Get_second
PUBLIC	?_Get_second@?$_Compressed_pair@U?$less@PAVRaven_Bot@@@std@@V?$_Compressed_pair@V?$allocator@U?$_Tree_node@U?$pair@QAVRaven_Bot@@VMemoryRecord@@@std@@PAX@std@@@std@@V?$_Tree_val@U?$_Tree_simple_types@U?$pair@QAVRaven_Bot@@VMemoryRecord@@@std@@@std@@@2@$00@2@$00@std@@QBEABV?$_Compressed_pair@V?$allocator@U?$_Tree_node@U?$pair@QAVRaven_Bot@@VMemoryRecord@@@std@@PAX@std@@@std@@V?$_Tree_val@U?$_Tree_simple_types@U?$pair@QAVRaven_Bot@@VMemoryRecord@@@std@@@std@@@2@$00@2@XZ ; std::_Compressed_pair<std::less<Raven_Bot *>,std::_Compressed_pair<std::allocator<std::_Tree_node<std::pair<Raven_Bot * const,MemoryRecord>,void *> >,std::_Tree_val<std::_Tree_simple_types<std::pair<Raven_Bot * const,MemoryRecord> > >,1>,1>::_Get_second
PUBLIC	??0?$_Tree@V?$_Tmap_traits@PAVRaven_Bot@@VMemoryRecord@@U?$less@PAVRaven_Bot@@@std@@V?$allocator@U?$pair@QAVRaven_Bot@@VMemoryRecord@@@std@@@4@$0A@@std@@@std@@QAE@ABU?$less@PAVRaven_Bot@@@1@@Z ; std::_Tree<std::_Tmap_traits<Raven_Bot *,MemoryRecord,std::less<Raven_Bot *>,std::allocator<std::pair<Raven_Bot * const,MemoryRecord> >,0> >::_Tree<std::_Tmap_traits<Raven_Bot *,MemoryRecord,std::less<Raven_Bot *>,std::allocator<std::pair<Raven_Bot * const,MemoryRecord> >,0> >
PUBLIC	?begin@?$_Tree@V?$_Tmap_traits@PAVRaven_Bot@@VMemoryRecord@@U?$less@PAVRaven_Bot@@@std@@V?$allocator@U?$pair@QAVRaven_Bot@@VMemoryRecord@@@std@@@4@$0A@@std@@@std@@QAE?AV?$_Tree_iterator@V?$_Tree_val@U?$_Tree_simple_types@U?$pair@QAVRaven_Bot@@VMemoryRecord@@@std@@@std@@@std@@@2@XZ ; std::_Tree<std::_Tmap_traits<Raven_Bot *,MemoryRecord,std::less<Raven_Bot *>,std::allocator<std::pair<Raven_Bot * const,MemoryRecord> >,0> >::begin
PUBLIC	?begin@?$_Tree@V?$_Tmap_traits@PAVRaven_Bot@@VMemoryRecord@@U?$less@PAVRaven_Bot@@@std@@V?$allocator@U?$pair@QAVRaven_Bot@@VMemoryRecord@@@std@@@4@$0A@@std@@@std@@QBE?AV?$_Tree_const_iterator@V?$_Tree_val@U?$_Tree_simple_types@U?$pair@QAVRaven_Bot@@VMemoryRecord@@@std@@@std@@@std@@@2@XZ ; std::_Tree<std::_Tmap_traits<Raven_Bot *,MemoryRecord,std::less<Raven_Bot *>,std::allocator<std::pair<Raven_Bot * const,MemoryRecord> >,0> >::begin
PUBLIC	?end@?$_Tree@V?$_Tmap_traits@PAVRaven_Bot@@VMemoryRecord@@U?$less@PAVRaven_Bot@@@std@@V?$allocator@U?$pair@QAVRaven_Bot@@VMemoryRecord@@@std@@@4@$0A@@std@@@std@@QAE?AV?$_Tree_iterator@V?$_Tree_val@U?$_Tree_simple_types@U?$pair@QAVRaven_Bot@@VMemoryRecord@@@std@@@std@@@std@@@2@XZ ; std::_Tree<std::_Tmap_traits<Raven_Bot *,MemoryRecord,std::less<Raven_Bot *>,std::allocator<std::pair<Raven_Bot * const,MemoryRecord> >,0> >::end
PUBLIC	?end@?$_Tree@V?$_Tmap_traits@PAVRaven_Bot@@VMemoryRecord@@U?$less@PAVRaven_Bot@@@std@@V?$allocator@U?$pair@QAVRaven_Bot@@VMemoryRecord@@@std@@@4@$0A@@std@@@std@@QBE?AV?$_Tree_const_iterator@V?$_Tree_val@U?$_Tree_simple_types@U?$pair@QAVRaven_Bot@@VMemoryRecord@@@std@@@std@@@std@@@2@XZ ; std::_Tree<std::_Tmap_traits<Raven_Bot *,MemoryRecord,std::less<Raven_Bot *>,std::allocator<std::pair<Raven_Bot * const,MemoryRecord> >,0> >::end
PUBLIC	?size@?$_Tree@V?$_Tmap_traits@PAVRaven_Bot@@VMemoryRecord@@U?$less@PAVRaven_Bot@@@std@@V?$allocator@U?$pair@QAVRaven_Bot@@VMemoryRecord@@@std@@@4@$0A@@std@@@std@@QBEIXZ ; std::_Tree<std::_Tmap_traits<Raven_Bot *,MemoryRecord,std::less<Raven_Bot *>,std::allocator<std::pair<Raven_Bot * const,MemoryRecord> >,0> >::size
PUBLIC	?max_size@?$_Tree@V?$_Tmap_traits@PAVRaven_Bot@@VMemoryRecord@@U?$less@PAVRaven_Bot@@@std@@V?$allocator@U?$pair@QAVRaven_Bot@@VMemoryRecord@@@std@@@4@$0A@@std@@@std@@QBEIXZ ; std::_Tree<std::_Tmap_traits<Raven_Bot *,MemoryRecord,std::less<Raven_Bot *>,std::allocator<std::pair<Raven_Bot * const,MemoryRecord> >,0> >::max_size
PUBLIC	?erase@?$_Tree@V?$_Tmap_traits@PAVRaven_Bot@@VMemoryRecord@@U?$less@PAVRaven_Bot@@@std@@V?$allocator@U?$pair@QAVRaven_Bot@@VMemoryRecord@@@std@@@4@$0A@@std@@@std@@QAE?AV?$_Tree_iterator@V?$_Tree_val@U?$_Tree_simple_types@U?$pair@QAVRaven_Bot@@VMemoryRecord@@@std@@@std@@@std@@@2@V?$_Tree_const_iterator@V?$_Tree_val@U?$_Tree_simple_types@U?$pair@QAVRaven_Bot@@VMemoryRecord@@@std@@@std@@@std@@@2@@Z ; std::_Tree<std::_Tmap_traits<Raven_Bot *,MemoryRecord,std::less<Raven_Bot *>,std::allocator<std::pair<Raven_Bot * const,MemoryRecord> >,0> >::erase
PUBLIC	?find@?$_Tree@V?$_Tmap_traits@PAVRaven_Bot@@VMemoryRecord@@U?$less@PAVRaven_Bot@@@std@@V?$allocator@U?$pair@QAVRaven_Bot@@VMemoryRecord@@@std@@@4@$0A@@std@@@std@@QAE?AV?$_Tree_iterator@V?$_Tree_val@U?$_Tree_simple_types@U?$pair@QAVRaven_Bot@@VMemoryRecord@@@std@@@std@@@std@@@2@ABQAVRaven_Bot@@@Z ; std::_Tree<std::_Tmap_traits<Raven_Bot *,MemoryRecord,std::less<Raven_Bot *>,std::allocator<std::pair<Raven_Bot * const,MemoryRecord> >,0> >::find
PUBLIC	?find@?$_Tree@V?$_Tmap_traits@PAVRaven_Bot@@VMemoryRecord@@U?$less@PAVRaven_Bot@@@std@@V?$allocator@U?$pair@QAVRaven_Bot@@VMemoryRecord@@@std@@@4@$0A@@std@@@std@@QBE?AV?$_Tree_const_iterator@V?$_Tree_val@U?$_Tree_simple_types@U?$pair@QAVRaven_Bot@@VMemoryRecord@@@std@@@std@@@std@@@2@ABQAVRaven_Bot@@@Z ; std::_Tree<std::_Tmap_traits<Raven_Bot *,MemoryRecord,std::less<Raven_Bot *>,std::allocator<std::pair<Raven_Bot * const,MemoryRecord> >,0> >::find
PUBLIC	?lower_bound@?$_Tree@V?$_Tmap_traits@PAVRaven_Bot@@VMemoryRecord@@U?$less@PAVRaven_Bot@@@std@@V?$allocator@U?$pair@QAVRaven_Bot@@VMemoryRecord@@@std@@@4@$0A@@std@@@std@@QAE?AV?$_Tree_iterator@V?$_Tree_val@U?$_Tree_simple_types@U?$pair@QAVRaven_Bot@@VMemoryRecord@@@std@@@std@@@std@@@2@ABQAVRaven_Bot@@@Z ; std::_Tree<std::_Tmap_traits<Raven_Bot *,MemoryRecord,std::less<Raven_Bot *>,std::allocator<std::pair<Raven_Bot * const,MemoryRecord> >,0> >::lower_bound
PUBLIC	?lower_bound@?$_Tree@V?$_Tmap_traits@PAVRaven_Bot@@VMemoryRecord@@U?$less@PAVRaven_Bot@@@std@@V?$allocator@U?$pair@QAVRaven_Bot@@VMemoryRecord@@@std@@@4@$0A@@std@@@std@@QBE?AV?$_Tree_const_iterator@V?$_Tree_val@U?$_Tree_simple_types@U?$pair@QAVRaven_Bot@@VMemoryRecord@@@std@@@std@@@std@@@2@ABQAVRaven_Bot@@@Z ; std::_Tree<std::_Tmap_traits<Raven_Bot *,MemoryRecord,std::less<Raven_Bot *>,std::allocator<std::pair<Raven_Bot * const,MemoryRecord> >,0> >::lower_bound
PUBLIC	?_Destroy_if_node@?$_Tree@V?$_Tmap_traits@PAVRaven_Bot@@VMemoryRecord@@U?$less@PAVRaven_Bot@@@std@@V?$allocator@U?$pair@QAVRaven_Bot@@VMemoryRecord@@@std@@@4@$0A@@std@@@std@@IAEXPAU?$_Tree_node@U?$pair@QAVRaven_Bot@@VMemoryRecord@@@std@@PAX@2@@Z ; std::_Tree<std::_Tmap_traits<Raven_Bot *,MemoryRecord,std::less<Raven_Bot *>,std::allocator<std::pair<Raven_Bot * const,MemoryRecord> >,0> >::_Destroy_if_node
PUBLIC	?_Compare@?$_Tree@V?$_Tmap_traits@PAVRaven_Bot@@VMemoryRecord@@U?$less@PAVRaven_Bot@@@std@@V?$allocator@U?$pair@QAVRaven_Bot@@VMemoryRecord@@@std@@@4@$0A@@std@@@std@@IBE_NABQAVRaven_Bot@@0@Z ; std::_Tree<std::_Tmap_traits<Raven_Bot *,MemoryRecord,std::less<Raven_Bot *>,std::allocator<std::pair<Raven_Bot * const,MemoryRecord> >,0> >::_Compare
PUBLIC	?_Orphan_ptr@?$_Tree@V?$_Tmap_traits@PAVRaven_Bot@@VMemoryRecord@@U?$less@PAVRaven_Bot@@@std@@V?$allocator@U?$pair@QAVRaven_Bot@@VMemoryRecord@@@std@@@4@$0A@@std@@@std@@IAEXPAU?$_Tree_node@U?$pair@QAVRaven_Bot@@VMemoryRecord@@@std@@PAX@2@@Z ; std::_Tree<std::_Tmap_traits<Raven_Bot *,MemoryRecord,std::less<Raven_Bot *>,std::allocator<std::pair<Raven_Bot * const,MemoryRecord> >,0> >::_Orphan_ptr
PUBLIC	?_Kfn@?$_Tree@V?$_Tmap_traits@PAVRaven_Bot@@VMemoryRecord@@U?$less@PAVRaven_Bot@@@std@@V?$allocator@U?$pair@QAVRaven_Bot@@VMemoryRecord@@@std@@@4@$0A@@std@@@std@@IBEABQAVRaven_Bot@@ABU?$pair@QAVRaven_Bot@@VMemoryRecord@@@2@@Z ; std::_Tree<std::_Tmap_traits<Raven_Bot *,MemoryRecord,std::less<Raven_Bot *>,std::allocator<std::pair<Raven_Bot * const,MemoryRecord> >,0> >::_Kfn
PUBLIC	?_Key@?$_Tree@V?$_Tmap_traits@PAVRaven_Bot@@VMemoryRecord@@U?$less@PAVRaven_Bot@@@std@@V?$allocator@U?$pair@QAVRaven_Bot@@VMemoryRecord@@@std@@@4@$0A@@std@@@std@@IBEABQAVRaven_Bot@@PAU?$_Tree_node@U?$pair@QAVRaven_Bot@@VMemoryRecord@@@std@@PAX@2@@Z ; std::_Tree<std::_Tmap_traits<Raven_Bot *,MemoryRecord,std::less<Raven_Bot *>,std::allocator<std::pair<Raven_Bot * const,MemoryRecord> >,0> >::_Key
PUBLIC	??0?$map@PAVRaven_Bot@@VMemoryRecord@@U?$less@PAVRaven_Bot@@@std@@V?$allocator@U?$pair@QAVRaven_Bot@@VMemoryRecord@@@std@@@4@@std@@QAE@XZ ; std::map<Raven_Bot *,MemoryRecord,std::less<Raven_Bot *>,std::allocator<std::pair<Raven_Bot * const,MemoryRecord> > >::map<Raven_Bot *,MemoryRecord,std::less<Raven_Bot *>,std::allocator<std::pair<Raven_Bot * const,MemoryRecord> > >
PUBLIC	??A?$map@PAVRaven_Bot@@VMemoryRecord@@U?$less@PAVRaven_Bot@@@std@@V?$allocator@U?$pair@QAVRaven_Bot@@VMemoryRecord@@@std@@@4@@std@@QAEAAVMemoryRecord@@ABQAVRaven_Bot@@@Z ; std::map<Raven_Bot *,MemoryRecord,std::less<Raven_Bot *>,std::allocator<std::pair<Raven_Bot * const,MemoryRecord> > >::operator[]
PUBLIC	?MakeNewRecordIfNotAlreadyPresent@Raven_SensoryMemory@@AAEXPAVRaven_Bot@@@Z ; Raven_SensoryMemory::MakeNewRecordIfNotAlreadyPresent
PUBLIC	??0Raven_SensoryMemory@@QAE@PAVRaven_Bot@@N@Z	; Raven_SensoryMemory::Raven_SensoryMemory
PUBLIC	?UpdateWithSoundSource@Raven_SensoryMemory@@QAEXPAVRaven_Bot@@@Z ; Raven_SensoryMemory::UpdateWithSoundSource
PUBLIC	?RemoveBotFromMemory@Raven_SensoryMemory@@QAEXPAVRaven_Bot@@@Z ; Raven_SensoryMemory::RemoveBotFromMemory
PUBLIC	?UpdateVision@Raven_SensoryMemory@@QAEXXZ	; Raven_SensoryMemory::UpdateVision
PUBLIC	?isOpponentShootable@Raven_SensoryMemory@@QBE_NPAVRaven_Bot@@@Z ; Raven_SensoryMemory::isOpponentShootable
PUBLIC	?isOpponentWithinFOV@Raven_SensoryMemory@@QBE_NPAVRaven_Bot@@@Z ; Raven_SensoryMemory::isOpponentWithinFOV
PUBLIC	?GetLastRecordedPositionOfOpponent@Raven_SensoryMemory@@QBE?AUVector2D@@PAVRaven_Bot@@@Z ; Raven_SensoryMemory::GetLastRecordedPositionOfOpponent
PUBLIC	?GetTimeOpponentHasBeenVisible@Raven_SensoryMemory@@QBENPAVRaven_Bot@@@Z ; Raven_SensoryMemory::GetTimeOpponentHasBeenVisible
PUBLIC	?GetTimeSinceLastSensed@Raven_SensoryMemory@@QBENPAVRaven_Bot@@@Z ; Raven_SensoryMemory::GetTimeSinceLastSensed
PUBLIC	?GetTimeOpponentHasBeenOutOfView@Raven_SensoryMemory@@QBENPAVRaven_Bot@@@Z ; Raven_SensoryMemory::GetTimeOpponentHasBeenOutOfView
PUBLIC	?GetListOfRecentlySensedOpponents@Raven_SensoryMemory@@QBE?AV?$list@PAVRaven_Bot@@V?$allocator@PAVRaven_Bot@@@std@@@std@@XZ ; Raven_SensoryMemory::GetListOfRecentlySensedOpponents
PUBLIC	?RenderBoxesAroundRecentlySensed@Raven_SensoryMemory@@QBEXXZ ; Raven_SensoryMemory::RenderBoxesAroundRecentlySensed
PUBLIC	?OrangePen@Cgdi@@QAEXXZ				; Cgdi::OrangePen
PUBLIC	?Line@Cgdi@@QAEXNNNN@Z				; Cgdi::Line
PUBLIC	?Pos@BaseGameEntity@@QBE?AUVector2D@@XZ		; BaseGameEntity::Pos
PUBLIC	?BRadius@BaseGameEntity@@QBENXZ			; BaseGameEntity::BRadius
PUBLIC	?Facing@Raven_Bot@@QBE?AUVector2D@@XZ		; Raven_Bot::Facing
PUBLIC	?FieldOfView@Raven_Bot@@QBENXZ			; Raven_Bot::FieldOfView
PUBLIC	?GetWorld@Raven_Bot@@QAEQAVRaven_Game@@XZ	; Raven_Bot::GetWorld
PUBLIC	??0?$allocator@U?$_List_node@PAVRaven_Bot@@PAX@std@@@std@@QAE@XZ ; std::allocator<std::_List_node<Raven_Bot *,void *> >::allocator<std::_List_node<Raven_Bot *,void *> >
PUBLIC	?deallocate@?$allocator@U?$_List_node@PAVRaven_Bot@@PAX@std@@@std@@QAEXQAU?$_List_node@PAVRaven_Bot@@PAX@2@I@Z ; std::allocator<std::_List_node<Raven_Bot *,void *> >::deallocate
PUBLIC	?allocate@?$allocator@U?$_List_node@PAVRaven_Bot@@PAX@std@@@std@@QAEPAU?$_List_node@PAVRaven_Bot@@PAX@2@I@Z ; std::allocator<std::_List_node<Raven_Bot *,void *> >::allocate
PUBLIC	?deallocate@?$_Default_allocator_traits@V?$allocator@U?$_List_node@PAVRaven_Bot@@PAX@std@@@std@@@std@@SAXAAV?$allocator@U?$_List_node@PAVRaven_Bot@@PAX@std@@@2@QAU?$_List_node@PAVRaven_Bot@@PAX@2@I@Z ; std::_Default_allocator_traits<std::allocator<std::_List_node<Raven_Bot *,void *> > >::deallocate
PUBLIC	?max_size@?$_Default_allocator_traits@V?$allocator@U?$_List_node@PAVRaven_Bot@@PAX@std@@@std@@@std@@SAIABV?$allocator@U?$_List_node@PAVRaven_Bot@@PAX@std@@@2@@Z ; std::_Default_allocator_traits<std::allocator<std::_List_node<Raven_Bot *,void *> > >::max_size
PUBLIC	??0?$_List_alloc@U?$_List_base_types@PAVRaven_Bot@@V?$allocator@PAVRaven_Bot@@@std@@@std@@@std@@QAE@XZ ; std::_List_alloc<std::_List_base_types<Raven_Bot *,std::allocator<Raven_Bot *> > >::_List_alloc<std::_List_base_types<Raven_Bot *,std::allocator<Raven_Bot *> > >
PUBLIC	??1?$_List_alloc@U?$_List_base_types@PAVRaven_Bot@@V?$allocator@PAVRaven_Bot@@@std@@@std@@@std@@QAE@XZ ; std::_List_alloc<std::_List_base_types<Raven_Bot *,std::allocator<Raven_Bot *> > >::~_List_alloc<std::_List_base_types<Raven_Bot *,std::allocator<Raven_Bot *> > >
PUBLIC	?_Alloc_proxy@?$_List_alloc@U?$_List_base_types@PAVRaven_Bot@@V?$allocator@PAVRaven_Bot@@@std@@@std@@@std@@QAEXXZ ; std::_List_alloc<std::_List_base_types<Raven_Bot *,std::allocator<Raven_Bot *> > >::_Alloc_proxy
PUBLIC	?_Free_proxy@?$_List_alloc@U?$_List_base_types@PAVRaven_Bot@@V?$allocator@PAVRaven_Bot@@@std@@@std@@@std@@QAEXXZ ; std::_List_alloc<std::_List_base_types<Raven_Bot *,std::allocator<Raven_Bot *> > >::_Free_proxy
PUBLIC	?_Getpfirst@?$_List_alloc@U?$_List_base_types@PAVRaven_Bot@@V?$allocator@PAVRaven_Bot@@@std@@@std@@@std@@QBEPAPAU_Iterator_base12@2@XZ ; std::_List_alloc<std::_List_base_types<Raven_Bot *,std::allocator<Raven_Bot *> > >::_Getpfirst
PUBLIC	?_Myproxy@?$_List_alloc@U?$_List_base_types@PAVRaven_Bot@@V?$allocator@PAVRaven_Bot@@@std@@@std@@@std@@QAEAAPAU_Container_proxy@2@XZ ; std::_List_alloc<std::_List_base_types<Raven_Bot *,std::allocator<Raven_Bot *> > >::_Myproxy
PUBLIC	?_Buyheadnode@?$_List_alloc@U?$_List_base_types@PAVRaven_Bot@@V?$allocator@PAVRaven_Bot@@@std@@@std@@@std@@QAEPAU?$_List_node@PAVRaven_Bot@@PAX@2@XZ ; std::_List_alloc<std::_List_base_types<Raven_Bot *,std::allocator<Raven_Bot *> > >::_Buyheadnode
PUBLIC	?_Freeheadnode@?$_List_alloc@U?$_List_base_types@PAVRaven_Bot@@V?$allocator@PAVRaven_Bot@@@std@@@std@@@std@@QAEXPAU?$_List_node@PAVRaven_Bot@@PAX@2@@Z ; std::_List_alloc<std::_List_base_types<Raven_Bot *,std::allocator<Raven_Bot *> > >::_Freeheadnode
PUBLIC	?_Buynode0@?$_List_alloc@U?$_List_base_types@PAVRaven_Bot@@V?$allocator@PAVRaven_Bot@@@std@@@std@@@std@@QAEPAU?$_List_node@PAVRaven_Bot@@PAX@2@PAU32@0@Z ; std::_List_alloc<std::_List_base_types<Raven_Bot *,std::allocator<Raven_Bot *> > >::_Buynode0
PUBLIC	?_Orphan_all@?$_List_alloc@U?$_List_base_types@PAVRaven_Bot@@V?$allocator@PAVRaven_Bot@@@std@@@std@@@std@@QAEXXZ ; std::_List_alloc<std::_List_base_types<Raven_Bot *,std::allocator<Raven_Bot *> > >::_Orphan_all
PUBLIC	?_Swap_all@?$_List_alloc@U?$_List_base_types@PAVRaven_Bot@@V?$allocator@PAVRaven_Bot@@@std@@@std@@@std@@QAEXAAV12@@Z ; std::_List_alloc<std::_List_base_types<Raven_Bot *,std::allocator<Raven_Bot *> > >::_Swap_all
PUBLIC	?_Getal@?$_List_alloc@U?$_List_base_types@PAVRaven_Bot@@V?$allocator@PAVRaven_Bot@@@std@@@std@@@std@@QAEAAV?$allocator@U?$_List_node@PAVRaven_Bot@@PAX@std@@@2@XZ ; std::_List_alloc<std::_List_base_types<Raven_Bot *,std::allocator<Raven_Bot *> > >::_Getal
PUBLIC	?_Getal@?$_List_alloc@U?$_List_base_types@PAVRaven_Bot@@V?$allocator@PAVRaven_Bot@@@std@@@std@@@std@@QBEABV?$allocator@U?$_List_node@PAVRaven_Bot@@PAX@std@@@2@XZ ; std::_List_alloc<std::_List_base_types<Raven_Bot *,std::allocator<Raven_Bot *> > >::_Getal
PUBLIC	?_Get_data@?$_List_alloc@U?$_List_base_types@PAVRaven_Bot@@V?$allocator@PAVRaven_Bot@@@std@@@std@@@std@@QAEAAV?$_List_val@U?$_List_simple_types@PAVRaven_Bot@@@std@@@2@XZ ; std::_List_alloc<std::_List_base_types<Raven_Bot *,std::allocator<Raven_Bot *> > >::_Get_data
PUBLIC	?_Get_data@?$_List_alloc@U?$_List_base_types@PAVRaven_Bot@@V?$allocator@PAVRaven_Bot@@@std@@@std@@@std@@QBEABV?$_List_val@U?$_List_simple_types@PAVRaven_Bot@@@std@@@2@XZ ; std::_List_alloc<std::_List_base_types<Raven_Bot *,std::allocator<Raven_Bot *> > >::_Get_data
PUBLIC	?_Myhead@?$_List_alloc@U?$_List_base_types@PAVRaven_Bot@@V?$allocator@PAVRaven_Bot@@@std@@@std@@@std@@QAEAAPAU?$_List_node@PAVRaven_Bot@@PAX@2@XZ ; std::_List_alloc<std::_List_base_types<Raven_Bot *,std::allocator<Raven_Bot *> > >::_Myhead
PUBLIC	?_Myhead@?$_List_alloc@U?$_List_base_types@PAVRaven_Bot@@V?$allocator@PAVRaven_Bot@@@std@@@std@@@std@@QBEABQAU?$_List_node@PAVRaven_Bot@@PAX@2@XZ ; std::_List_alloc<std::_List_base_types<Raven_Bot *,std::allocator<Raven_Bot *> > >::_Myhead
PUBLIC	?_Mysize@?$_List_alloc@U?$_List_base_types@PAVRaven_Bot@@V?$allocator@PAVRaven_Bot@@@std@@@std@@@std@@QAEAAIXZ ; std::_List_alloc<std::_List_base_types<Raven_Bot *,std::allocator<Raven_Bot *> > >::_Mysize
PUBLIC	??0?$_List_val@U?$_List_simple_types@PAVRaven_Bot@@@std@@@std@@QAE@XZ ; std::_List_val<std::_List_simple_types<Raven_Bot *> >::_List_val<std::_List_simple_types<Raven_Bot *> >
PUBLIC	?_Get_first@?$_Compressed_pair@V?$allocator@U?$_List_node@PAVRaven_Bot@@PAX@std@@@std@@V?$_List_val@U?$_List_simple_types@PAVRaven_Bot@@@std@@@2@$00@std@@QAEAAV?$allocator@U?$_List_node@PAVRaven_Bot@@PAX@std@@@2@XZ ; std::_Compressed_pair<std::allocator<std::_List_node<Raven_Bot *,void *> >,std::_List_val<std::_List_simple_types<Raven_Bot *> >,1>::_Get_first
PUBLIC	?_Get_first@?$_Compressed_pair@V?$allocator@U?$_List_node@PAVRaven_Bot@@PAX@std@@@std@@V?$_List_val@U?$_List_simple_types@PAVRaven_Bot@@@std@@@2@$00@std@@QBEABV?$allocator@U?$_List_node@PAVRaven_Bot@@PAX@std@@@2@XZ ; std::_Compressed_pair<std::allocator<std::_List_node<Raven_Bot *,void *> >,std::_List_val<std::_List_simple_types<Raven_Bot *> >,1>::_Get_first
PUBLIC	?_Get_second@?$_Compressed_pair@V?$allocator@U?$_List_node@PAVRaven_Bot@@PAX@std@@@std@@V?$_List_val@U?$_List_simple_types@PAVRaven_Bot@@@std@@@2@$00@std@@QAEAAV?$_List_val@U?$_List_simple_types@PAVRaven_Bot@@@std@@@2@XZ ; std::_Compressed_pair<std::allocator<std::_List_node<Raven_Bot *,void *> >,std::_List_val<std::_List_simple_types<Raven_Bot *> >,1>::_Get_second
PUBLIC	?_Get_second@?$_Compressed_pair@V?$allocator@U?$_List_node@PAVRaven_Bot@@PAX@std@@@std@@V?$_List_val@U?$_List_simple_types@PAVRaven_Bot@@@std@@@2@$00@std@@QBEABV?$_List_val@U?$_List_simple_types@PAVRaven_Bot@@@std@@@2@XZ ; std::_Compressed_pair<std::allocator<std::_List_node<Raven_Bot *,void *> >,std::_List_val<std::_List_simple_types<Raven_Bot *> >,1>::_Get_second
PUBLIC	??0?$_List_buy@PAVRaven_Bot@@V?$allocator@PAVRaven_Bot@@@std@@@std@@QAE@XZ ; std::_List_buy<Raven_Bot *,std::allocator<Raven_Bot *> >::_List_buy<Raven_Bot *,std::allocator<Raven_Bot *> >
PUBLIC	?_Freenode@?$_List_buy@PAVRaven_Bot@@V?$allocator@PAVRaven_Bot@@@std@@@std@@QAEXPAU?$_List_node@PAVRaven_Bot@@PAX@2@@Z ; std::_List_buy<Raven_Bot *,std::allocator<Raven_Bot *> >::_Freenode
PUBLIC	??1?$_List_buy@PAVRaven_Bot@@V?$allocator@PAVRaven_Bot@@@std@@@std@@QAE@XZ ; std::_List_buy<Raven_Bot *,std::allocator<Raven_Bot *> >::~_List_buy<Raven_Bot *,std::allocator<Raven_Bot *> >
PUBLIC	??0?$list@PAVRaven_Bot@@V?$allocator@PAVRaven_Bot@@@std@@@std@@QAE@XZ ; std::list<Raven_Bot *,std::allocator<Raven_Bot *> >::list<Raven_Bot *,std::allocator<Raven_Bot *> >
PUBLIC	??0?$list@PAVRaven_Bot@@V?$allocator@PAVRaven_Bot@@@std@@@std@@QAE@$$QAV01@@Z ; std::list<Raven_Bot *,std::allocator<Raven_Bot *> >::list<Raven_Bot *,std::allocator<Raven_Bot *> >
PUBLIC	?_Assign_rv@?$list@PAVRaven_Bot@@V?$allocator@PAVRaven_Bot@@@std@@@std@@QAEX$$QAV12@U?$integral_constant@_N$00@2@@Z ; std::list<Raven_Bot *,std::allocator<Raven_Bot *> >::_Assign_rv
PUBLIC	??1?$list@PAVRaven_Bot@@V?$allocator@PAVRaven_Bot@@@std@@@std@@QAE@XZ ; std::list<Raven_Bot *,std::allocator<Raven_Bot *> >::~list<Raven_Bot *,std::allocator<Raven_Bot *> >
PUBLIC	?begin@?$list@PAVRaven_Bot@@V?$allocator@PAVRaven_Bot@@@std@@@std@@QAE?AV?$_List_iterator@V?$_List_val@U?$_List_simple_types@PAVRaven_Bot@@@std@@@std@@@2@XZ ; std::list<Raven_Bot *,std::allocator<Raven_Bot *> >::begin
PUBLIC	?begin@?$list@PAVRaven_Bot@@V?$allocator@PAVRaven_Bot@@@std@@@std@@QBE?AV?$_List_const_iterator@V?$_List_val@U?$_List_simple_types@PAVRaven_Bot@@@std@@@std@@@2@XZ ; std::list<Raven_Bot *,std::allocator<Raven_Bot *> >::begin
PUBLIC	?end@?$list@PAVRaven_Bot@@V?$allocator@PAVRaven_Bot@@@std@@@std@@QAE?AV?$_List_iterator@V?$_List_val@U?$_List_simple_types@PAVRaven_Bot@@@std@@@std@@@2@XZ ; std::list<Raven_Bot *,std::allocator<Raven_Bot *> >::end
PUBLIC	?end@?$list@PAVRaven_Bot@@V?$allocator@PAVRaven_Bot@@@std@@@std@@QBE?AV?$_List_const_iterator@V?$_List_val@U?$_List_simple_types@PAVRaven_Bot@@@std@@@std@@@2@XZ ; std::list<Raven_Bot *,std::allocator<Raven_Bot *> >::end
PUBLIC	?_Unchecked_end@?$list@PAVRaven_Bot@@V?$allocator@PAVRaven_Bot@@@std@@@std@@QAE?AV?$_List_unchecked_iterator@V?$_List_val@U?$_List_simple_types@PAVRaven_Bot@@@std@@@std@@@2@XZ ; std::list<Raven_Bot *,std::allocator<Raven_Bot *> >::_Unchecked_end
PUBLIC	?max_size@?$list@PAVRaven_Bot@@V?$allocator@PAVRaven_Bot@@@std@@@std@@QBEIXZ ; std::list<Raven_Bot *,std::allocator<Raven_Bot *> >::max_size
PUBLIC	?push_back@?$list@PAVRaven_Bot@@V?$allocator@PAVRaven_Bot@@@std@@@std@@QAEXABQAVRaven_Bot@@@Z ; std::list<Raven_Bot *,std::allocator<Raven_Bot *> >::push_back
PUBLIC	?clear@?$list@PAVRaven_Bot@@V?$allocator@PAVRaven_Bot@@@std@@@std@@QAEXXZ ; std::list<Raven_Bot *,std::allocator<Raven_Bot *> >::clear
PUBLIC	?_Tidy@?$list@PAVRaven_Bot@@V?$allocator@PAVRaven_Bot@@@std@@@std@@QAEXXZ ; std::list<Raven_Bot *,std::allocator<Raven_Bot *> >::_Tidy
PUBLIC	?_Incsize@?$list@PAVRaven_Bot@@V?$allocator@PAVRaven_Bot@@@std@@@std@@QAEXI@Z ; std::list<Raven_Bot *,std::allocator<Raven_Bot *> >::_Incsize
PUBLIC	?_Orphan_ptr@?$list@PAVRaven_Bot@@V?$allocator@PAVRaven_Bot@@@std@@@std@@QAEXPAU?$_List_node@PAVRaven_Bot@@PAX@2@@Z ; std::list<Raven_Bot *,std::allocator<Raven_Bot *> >::_Orphan_ptr
PUBLIC	?GetAllBots@Raven_Game@@QBEABV?$list@PAVRaven_Bot@@V?$allocator@PAVRaven_Bot@@@std@@@std@@XZ ; Raven_Game::GetAllBots
PUBLIC	?GetTickCount@CrudeTimer@@QAENXZ		; CrudeTimer::GetTickCount
PUBLIC	??0?$_Tree_unchecked_const_iterator@V?$_Tree_val@U?$_Tree_simple_types@U?$pair@QAVRaven_Bot@@VMemoryRecord@@@std@@@std@@@std@@U_Iterator_base12@2@@std@@QAE@XZ ; std::_Tree_unchecked_const_iterator<std::_Tree_val<std::_Tree_simple_types<std::pair<Raven_Bot * const,MemoryRecord> > >,std::_Iterator_base12>::_Tree_unchecked_const_iterator<std::_Tree_val<std::_Tree_simple_types<std::pair<Raven_Bot * const,MemoryRecord> > >,std::_Iterator_base12>
PUBLIC	??0?$_Tree_unchecked_const_iterator@V?$_Tree_val@U?$_Tree_simple_types@U?$pair@QAVRaven_Bot@@VMemoryRecord@@@std@@@std@@@std@@U_Iterator_base12@2@@std@@QAE@PAU?$_Tree_node@U?$pair@QAVRaven_Bot@@VMemoryRecord@@@std@@PAX@1@PBV?$_Tree_val@U?$_Tree_simple_types@U?$pair@QAVRaven_Bot@@VMemoryRecord@@@std@@@std@@@1@@Z ; std::_Tree_unchecked_const_iterator<std::_Tree_val<std::_Tree_simple_types<std::pair<Raven_Bot * const,MemoryRecord> > >,std::_Iterator_base12>::_Tree_unchecked_const_iterator<std::_Tree_val<std::_Tree_simple_types<std::pair<Raven_Bot * const,MemoryRecord> > >,std::_Iterator_base12>
PUBLIC	??E?$_Tree_unchecked_const_iterator@V?$_Tree_val@U?$_Tree_simple_types@U?$pair@QAVRaven_Bot@@VMemoryRecord@@@std@@@std@@@std@@U_Iterator_base12@2@@std@@QAEAAV01@XZ ; std::_Tree_unchecked_const_iterator<std::_Tree_val<std::_Tree_simple_types<std::pair<Raven_Bot * const,MemoryRecord> > >,std::_Iterator_base12>::operator++
PUBLIC	??F?$_Tree_unchecked_const_iterator@V?$_Tree_val@U?$_Tree_simple_types@U?$pair@QAVRaven_Bot@@VMemoryRecord@@@std@@@std@@@std@@U_Iterator_base12@2@@std@@QAEAAV01@XZ ; std::_Tree_unchecked_const_iterator<std::_Tree_val<std::_Tree_simple_types<std::pair<Raven_Bot * const,MemoryRecord> > >,std::_Iterator_base12>::operator--
PUBLIC	??1?$_Tree_unchecked_const_iterator@V?$_Tree_val@U?$_Tree_simple_types@U?$pair@QAVRaven_Bot@@VMemoryRecord@@@std@@@std@@@std@@U_Iterator_base12@2@@std@@QAE@XZ ; std::_Tree_unchecked_const_iterator<std::_Tree_val<std::_Tree_simple_types<std::pair<Raven_Bot * const,MemoryRecord> > >,std::_Iterator_base12>::~_Tree_unchecked_const_iterator<std::_Tree_val<std::_Tree_simple_types<std::pair<Raven_Bot * const,MemoryRecord> > >,std::_Iterator_base12>
PUBLIC	??0?$_Tree_unchecked_const_iterator@V?$_Tree_val@U?$_Tree_simple_types@U?$pair@QAVRaven_Bot@@VMemoryRecord@@@std@@@std@@@std@@U_Iterator_base12@2@@std@@QAE@ABV01@@Z ; std::_Tree_unchecked_const_iterator<std::_Tree_val<std::_Tree_simple_types<std::pair<Raven_Bot * const,MemoryRecord> > >,std::_Iterator_base12>::_Tree_unchecked_const_iterator<std::_Tree_val<std::_Tree_simple_types<std::pair<Raven_Bot * const,MemoryRecord> > >,std::_Iterator_base12>
PUBLIC	??0?$_Tree_unchecked_const_iterator@V?$_Tree_val@U?$_Tree_simple_types@U?$pair@QAVRaven_Bot@@VMemoryRecord@@@std@@@std@@@std@@U_Iterator_base12@2@@std@@QAE@$$QAV01@@Z ; std::_Tree_unchecked_const_iterator<std::_Tree_val<std::_Tree_simple_types<std::pair<Raven_Bot * const,MemoryRecord> > >,std::_Iterator_base12>::_Tree_unchecked_const_iterator<std::_Tree_val<std::_Tree_simple_types<std::pair<Raven_Bot * const,MemoryRecord> > >,std::_Iterator_base12>
PUBLIC	??4?$_Tree_unchecked_const_iterator@V?$_Tree_val@U?$_Tree_simple_types@U?$pair@QAVRaven_Bot@@VMemoryRecord@@@std@@@std@@@std@@U_Iterator_base12@2@@std@@QAEAAV01@ABV01@@Z ; std::_Tree_unchecked_const_iterator<std::_Tree_val<std::_Tree_simple_types<std::pair<Raven_Bot * const,MemoryRecord> > >,std::_Iterator_base12>::operator=
PUBLIC	??0?$_Tree_const_iterator@V?$_Tree_val@U?$_Tree_simple_types@U?$pair@QAVRaven_Bot@@VMemoryRecord@@@std@@@std@@@std@@@std@@QAE@XZ ; std::_Tree_const_iterator<std::_Tree_val<std::_Tree_simple_types<std::pair<Raven_Bot * const,MemoryRecord> > > >::_Tree_const_iterator<std::_Tree_val<std::_Tree_simple_types<std::pair<Raven_Bot * const,MemoryRecord> > > >
PUBLIC	??0?$_Tree_const_iterator@V?$_Tree_val@U?$_Tree_simple_types@U?$pair@QAVRaven_Bot@@VMemoryRecord@@@std@@@std@@@std@@@std@@QAE@PAU?$_Tree_node@U?$pair@QAVRaven_Bot@@VMemoryRecord@@@std@@PAX@1@PBV?$_Tree_val@U?$_Tree_simple_types@U?$pair@QAVRaven_Bot@@VMemoryRecord@@@std@@@std@@@1@@Z ; std::_Tree_const_iterator<std::_Tree_val<std::_Tree_simple_types<std::pair<Raven_Bot * const,MemoryRecord> > > >::_Tree_const_iterator<std::_Tree_val<std::_Tree_simple_types<std::pair<Raven_Bot * const,MemoryRecord> > > >
PUBLIC	??D?$_Tree_const_iterator@V?$_Tree_val@U?$_Tree_simple_types@U?$pair@QAVRaven_Bot@@VMemoryRecord@@@std@@@std@@@std@@@std@@QBEABU?$pair@QAVRaven_Bot@@VMemoryRecord@@@1@XZ ; std::_Tree_const_iterator<std::_Tree_val<std::_Tree_simple_types<std::pair<Raven_Bot * const,MemoryRecord> > > >::operator*
PUBLIC	??C?$_Tree_const_iterator@V?$_Tree_val@U?$_Tree_simple_types@U?$pair@QAVRaven_Bot@@VMemoryRecord@@@std@@@std@@@std@@@std@@QBEPBU?$pair@QAVRaven_Bot@@VMemoryRecord@@@1@XZ ; std::_Tree_const_iterator<std::_Tree_val<std::_Tree_simple_types<std::pair<Raven_Bot * const,MemoryRecord> > > >::operator->
PUBLIC	??E?$_Tree_const_iterator@V?$_Tree_val@U?$_Tree_simple_types@U?$pair@QAVRaven_Bot@@VMemoryRecord@@@std@@@std@@@std@@@std@@QAEAAV01@XZ ; std::_Tree_const_iterator<std::_Tree_val<std::_Tree_simple_types<std::pair<Raven_Bot * const,MemoryRecord> > > >::operator++
PUBLIC	??F?$_Tree_const_iterator@V?$_Tree_val@U?$_Tree_simple_types@U?$pair@QAVRaven_Bot@@VMemoryRecord@@@std@@@std@@@std@@@std@@QAEAAV01@XZ ; std::_Tree_const_iterator<std::_Tree_val<std::_Tree_simple_types<std::pair<Raven_Bot * const,MemoryRecord> > > >::operator--
PUBLIC	??8?$_Tree_const_iterator@V?$_Tree_val@U?$_Tree_simple_types@U?$pair@QAVRaven_Bot@@VMemoryRecord@@@std@@@std@@@std@@@std@@QBE_NABV01@@Z ; std::_Tree_const_iterator<std::_Tree_val<std::_Tree_simple_types<std::pair<Raven_Bot * const,MemoryRecord> > > >::operator==
PUBLIC	??9?$_Tree_const_iterator@V?$_Tree_val@U?$_Tree_simple_types@U?$pair@QAVRaven_Bot@@VMemoryRecord@@@std@@@std@@@std@@@std@@QBE_NABV01@@Z ; std::_Tree_const_iterator<std::_Tree_val<std::_Tree_simple_types<std::pair<Raven_Bot * const,MemoryRecord> > > >::operator!=
PUBLIC	??1?$_Tree_const_iterator@V?$_Tree_val@U?$_Tree_simple_types@U?$pair@QAVRaven_Bot@@VMemoryRecord@@@std@@@std@@@std@@@std@@QAE@XZ ; std::_Tree_const_iterator<std::_Tree_val<std::_Tree_simple_types<std::pair<Raven_Bot * const,MemoryRecord> > > >::~_Tree_const_iterator<std::_Tree_val<std::_Tree_simple_types<std::pair<Raven_Bot * const,MemoryRecord> > > >
PUBLIC	??0?$_Tree_const_iterator@V?$_Tree_val@U?$_Tree_simple_types@U?$pair@QAVRaven_Bot@@VMemoryRecord@@@std@@@std@@@std@@@std@@QAE@ABV01@@Z ; std::_Tree_const_iterator<std::_Tree_val<std::_Tree_simple_types<std::pair<Raven_Bot * const,MemoryRecord> > > >::_Tree_const_iterator<std::_Tree_val<std::_Tree_simple_types<std::pair<Raven_Bot * const,MemoryRecord> > > >
PUBLIC	??0?$_Tree_const_iterator@V?$_Tree_val@U?$_Tree_simple_types@U?$pair@QAVRaven_Bot@@VMemoryRecord@@@std@@@std@@@std@@@std@@QAE@$$QAV01@@Z ; std::_Tree_const_iterator<std::_Tree_val<std::_Tree_simple_types<std::pair<Raven_Bot * const,MemoryRecord> > > >::_Tree_const_iterator<std::_Tree_val<std::_Tree_simple_types<std::pair<Raven_Bot * const,MemoryRecord> > > >
PUBLIC	??4?$_Tree_const_iterator@V?$_Tree_val@U?$_Tree_simple_types@U?$pair@QAVRaven_Bot@@VMemoryRecord@@@std@@@std@@@std@@@std@@QAEAAV01@ABV01@@Z ; std::_Tree_const_iterator<std::_Tree_val<std::_Tree_simple_types<std::pair<Raven_Bot * const,MemoryRecord> > > >::operator=
PUBLIC	??0?$_Tree_iterator@V?$_Tree_val@U?$_Tree_simple_types@U?$pair@QAVRaven_Bot@@VMemoryRecord@@@std@@@std@@@std@@@std@@QAE@PAU?$_Tree_node@U?$pair@QAVRaven_Bot@@VMemoryRecord@@@std@@PAX@1@PBV?$_Tree_val@U?$_Tree_simple_types@U?$pair@QAVRaven_Bot@@VMemoryRecord@@@std@@@std@@@1@@Z ; std::_Tree_iterator<std::_Tree_val<std::_Tree_simple_types<std::pair<Raven_Bot * const,MemoryRecord> > > >::_Tree_iterator<std::_Tree_val<std::_Tree_simple_types<std::pair<Raven_Bot * const,MemoryRecord> > > >
PUBLIC	??D?$_Tree_iterator@V?$_Tree_val@U?$_Tree_simple_types@U?$pair@QAVRaven_Bot@@VMemoryRecord@@@std@@@std@@@std@@@std@@QBEAAU?$pair@QAVRaven_Bot@@VMemoryRecord@@@1@XZ ; std::_Tree_iterator<std::_Tree_val<std::_Tree_simple_types<std::pair<Raven_Bot * const,MemoryRecord> > > >::operator*
PUBLIC	??C?$_Tree_iterator@V?$_Tree_val@U?$_Tree_simple_types@U?$pair@QAVRaven_Bot@@VMemoryRecord@@@std@@@std@@@std@@@std@@QBEPAU?$pair@QAVRaven_Bot@@VMemoryRecord@@@1@XZ ; std::_Tree_iterator<std::_Tree_val<std::_Tree_simple_types<std::pair<Raven_Bot * const,MemoryRecord> > > >::operator->
PUBLIC	??F?$_Tree_iterator@V?$_Tree_val@U?$_Tree_simple_types@U?$pair@QAVRaven_Bot@@VMemoryRecord@@@std@@@std@@@std@@@std@@QAEAAV01@XZ ; std::_Tree_iterator<std::_Tree_val<std::_Tree_simple_types<std::pair<Raven_Bot * const,MemoryRecord> > > >::operator--
PUBLIC	??1?$_Tree_iterator@V?$_Tree_val@U?$_Tree_simple_types@U?$pair@QAVRaven_Bot@@VMemoryRecord@@@std@@@std@@@std@@@std@@QAE@XZ ; std::_Tree_iterator<std::_Tree_val<std::_Tree_simple_types<std::pair<Raven_Bot * const,MemoryRecord> > > >::~_Tree_iterator<std::_Tree_val<std::_Tree_simple_types<std::pair<Raven_Bot * const,MemoryRecord> > > >
PUBLIC	??0?$_Tree_iterator@V?$_Tree_val@U?$_Tree_simple_types@U?$pair@QAVRaven_Bot@@VMemoryRecord@@@std@@@std@@@std@@@std@@QAE@ABV01@@Z ; std::_Tree_iterator<std::_Tree_val<std::_Tree_simple_types<std::pair<Raven_Bot * const,MemoryRecord> > > >::_Tree_iterator<std::_Tree_val<std::_Tree_simple_types<std::pair<Raven_Bot * const,MemoryRecord> > > >
PUBLIC	??0?$_Tree_iterator@V?$_Tree_val@U?$_Tree_simple_types@U?$pair@QAVRaven_Bot@@VMemoryRecord@@@std@@@std@@@std@@@std@@QAE@$$QAV01@@Z ; std::_Tree_iterator<std::_Tree_val<std::_Tree_simple_types<std::pair<Raven_Bot * const,MemoryRecord> > > >::_Tree_iterator<std::_Tree_val<std::_Tree_simple_types<std::pair<Raven_Bot * const,MemoryRecord> > > >
PUBLIC	??$erase@V?$_Tree_iterator@V?$_Tree_val@U?$_Tree_simple_types@U?$pair@QAVRaven_Bot@@VMemoryRecord@@@std@@@std@@@std@@@std@@X@?$_Tree@V?$_Tmap_traits@PAVRaven_Bot@@VMemoryRecord@@U?$less@PAVRaven_Bot@@@std@@V?$allocator@U?$pair@QAVRaven_Bot@@VMemoryRecord@@@std@@@4@$0A@@std@@@std@@QAE?AV?$_Tree_iterator@V?$_Tree_val@U?$_Tree_simple_types@U?$pair@QAVRaven_Bot@@VMemoryRecord@@@std@@@std@@@std@@@1@V21@@Z ; std::_Tree<std::_Tmap_traits<Raven_Bot *,MemoryRecord,std::less<Raven_Bot *>,std::allocator<std::pair<Raven_Bot * const,MemoryRecord> >,0> >::erase<std::_Tree_iterator<std::_Tree_val<std::_Tree_simple_types<std::pair<Raven_Bot * const,MemoryRecord> > > >,void>
PUBLIC	??0?$_List_unchecked_const_iterator@V?$_List_val@U?$_List_simple_types@PAVRaven_Bot@@@std@@@std@@U_Iterator_base12@2@@std@@QAE@XZ ; std::_List_unchecked_const_iterator<std::_List_val<std::_List_simple_types<Raven_Bot *> >,std::_Iterator_base12>::_List_unchecked_const_iterator<std::_List_val<std::_List_simple_types<Raven_Bot *> >,std::_Iterator_base12>
PUBLIC	??0?$_List_unchecked_const_iterator@V?$_List_val@U?$_List_simple_types@PAVRaven_Bot@@@std@@@std@@U_Iterator_base12@2@@std@@QAE@PAU?$_List_node@PAVRaven_Bot@@PAX@1@PBV?$_List_val@U?$_List_simple_types@PAVRaven_Bot@@@std@@@1@@Z ; std::_List_unchecked_const_iterator<std::_List_val<std::_List_simple_types<Raven_Bot *> >,std::_Iterator_base12>::_List_unchecked_const_iterator<std::_List_val<std::_List_simple_types<Raven_Bot *> >,std::_Iterator_base12>
PUBLIC	??1?$_List_unchecked_const_iterator@V?$_List_val@U?$_List_simple_types@PAVRaven_Bot@@@std@@@std@@U_Iterator_base12@2@@std@@QAE@XZ ; std::_List_unchecked_const_iterator<std::_List_val<std::_List_simple_types<Raven_Bot *> >,std::_Iterator_base12>::~_List_unchecked_const_iterator<std::_List_val<std::_List_simple_types<Raven_Bot *> >,std::_Iterator_base12>
PUBLIC	??4?$_List_unchecked_const_iterator@V?$_List_val@U?$_List_simple_types@PAVRaven_Bot@@@std@@@std@@U_Iterator_base12@2@@std@@QAEAAV01@$$QAV01@@Z ; std::_List_unchecked_const_iterator<std::_List_val<std::_List_simple_types<Raven_Bot *> >,std::_Iterator_base12>::operator=
PUBLIC	??0?$_List_const_iterator@V?$_List_val@U?$_List_simple_types@PAVRaven_Bot@@@std@@@std@@@std@@QAE@XZ ; std::_List_const_iterator<std::_List_val<std::_List_simple_types<Raven_Bot *> > >::_List_const_iterator<std::_List_val<std::_List_simple_types<Raven_Bot *> > >
PUBLIC	??0?$_List_const_iterator@V?$_List_val@U?$_List_simple_types@PAVRaven_Bot@@@std@@@std@@@std@@QAE@PAU?$_List_node@PAVRaven_Bot@@PAX@1@PBV?$_List_val@U?$_List_simple_types@PAVRaven_Bot@@@std@@@1@@Z ; std::_List_const_iterator<std::_List_val<std::_List_simple_types<Raven_Bot *> > >::_List_const_iterator<std::_List_val<std::_List_simple_types<Raven_Bot *> > >
PUBLIC	??D?$_List_const_iterator@V?$_List_val@U?$_List_simple_types@PAVRaven_Bot@@@std@@@std@@@std@@QBEABQAVRaven_Bot@@XZ ; std::_List_const_iterator<std::_List_val<std::_List_simple_types<Raven_Bot *> > >::operator*
PUBLIC	??E?$_List_const_iterator@V?$_List_val@U?$_List_simple_types@PAVRaven_Bot@@@std@@@std@@@std@@QAEAAV01@XZ ; std::_List_const_iterator<std::_List_val<std::_List_simple_types<Raven_Bot *> > >::operator++
PUBLIC	??8?$_List_const_iterator@V?$_List_val@U?$_List_simple_types@PAVRaven_Bot@@@std@@@std@@@std@@QBE_NABV01@@Z ; std::_List_const_iterator<std::_List_val<std::_List_simple_types<Raven_Bot *> > >::operator==
PUBLIC	??9?$_List_const_iterator@V?$_List_val@U?$_List_simple_types@PAVRaven_Bot@@@std@@@std@@@std@@QBE_NABV01@@Z ; std::_List_const_iterator<std::_List_val<std::_List_simple_types<Raven_Bot *> > >::operator!=
PUBLIC	??1?$_List_const_iterator@V?$_List_val@U?$_List_simple_types@PAVRaven_Bot@@@std@@@std@@@std@@QAE@XZ ; std::_List_const_iterator<std::_List_val<std::_List_simple_types<Raven_Bot *> > >::~_List_const_iterator<std::_List_val<std::_List_simple_types<Raven_Bot *> > >
PUBLIC	??4?$_List_const_iterator@V?$_List_val@U?$_List_simple_types@PAVRaven_Bot@@@std@@@std@@@std@@QAEAAV01@$$QAV01@@Z ; std::_List_const_iterator<std::_List_val<std::_List_simple_types<Raven_Bot *> > >::operator=
PUBLIC	??0?$_List_iterator@V?$_List_val@U?$_List_simple_types@PAVRaven_Bot@@@std@@@std@@@std@@QAE@PAU?$_List_node@PAVRaven_Bot@@PAX@1@PBV?$_List_val@U?$_List_simple_types@PAVRaven_Bot@@@std@@@1@@Z ; std::_List_iterator<std::_List_val<std::_List_simple_types<Raven_Bot *> > >::_List_iterator<std::_List_val<std::_List_simple_types<Raven_Bot *> > >
PUBLIC	??1?$_List_iterator@V?$_List_val@U?$_List_simple_types@PAVRaven_Bot@@@std@@@std@@@std@@QAE@XZ ; std::_List_iterator<std::_List_val<std::_List_simple_types<Raven_Bot *> > >::~_List_iterator<std::_List_val<std::_List_simple_types<Raven_Bot *> > >
PUBLIC	??0?$_List_unchecked_const_iterator@V?$_List_val@U?$_List_simple_types@PAVRaven_Bot@@@std@@@std@@U_Iterator_base0@2@@std@@QAE@PAU?$_List_node@PAVRaven_Bot@@PAX@1@PBV?$_List_val@U?$_List_simple_types@PAVRaven_Bot@@@std@@@1@@Z ; std::_List_unchecked_const_iterator<std::_List_val<std::_List_simple_types<Raven_Bot *> >,std::_Iterator_base0>::_List_unchecked_const_iterator<std::_List_val<std::_List_simple_types<Raven_Bot *> >,std::_Iterator_base0>
PUBLIC	??0?$_List_unchecked_iterator@V?$_List_val@U?$_List_simple_types@PAVRaven_Bot@@@std@@@std@@@std@@QAE@PAU?$_List_node@PAVRaven_Bot@@PAX@1@PBV?$_List_val@U?$_List_simple_types@PAVRaven_Bot@@@std@@@1@@Z ; std::_List_unchecked_iterator<std::_List_val<std::_List_simple_types<Raven_Bot *> > >::_List_unchecked_iterator<std::_List_val<std::_List_simple_types<Raven_Bot *> > >
PUBLIC	??$_Insert@ABQAVRaven_Bot@@@?$list@PAVRaven_Bot@@V?$allocator@PAVRaven_Bot@@@std@@@std@@QAEXV?$_List_unchecked_const_iterator@V?$_List_val@U?$_List_simple_types@PAVRaven_Bot@@@std@@@std@@U_Iterator_base0@2@@1@ABQAVRaven_Bot@@@Z ; std::list<Raven_Bot *,std::allocator<Raven_Bot *> >::_Insert<Raven_Bot * const &>
PUBLIC	??$addressof@$$CBV?$_List_val@U?$_List_simple_types@PAVRaven_Bot@@@std@@@std@@@std@@YAPBV?$_List_val@U?$_List_simple_types@PAVRaven_Bot@@@std@@@0@ABV10@@Z ; std::addressof<std::_List_val<std::_List_simple_types<Raven_Bot *> > const >
PUBLIC	??$addressof@V?$_List_val@U?$_List_simple_types@PAVRaven_Bot@@@std@@@std@@@std@@YAPAV?$_List_val@U?$_List_simple_types@PAVRaven_Bot@@@std@@@0@AAV10@@Z ; std::addressof<std::_List_val<std::_List_simple_types<Raven_Bot *> > >
PUBLIC	??$move@AAV?$allocator@U?$_List_node@PAVRaven_Bot@@PAX@std@@@std@@@std@@YA$$QAV?$allocator@U?$_List_node@PAVRaven_Bot@@PAX@std@@@0@AAV10@@Z ; std::move<std::allocator<std::_List_node<Raven_Bot *,void *> > &>
PUBLIC	??$?0V?$allocator@U?$_List_node@PAVRaven_Bot@@PAX@std@@@std@@X@?$_List_buy@PAVRaven_Bot@@V?$allocator@PAVRaven_Bot@@@std@@@std@@QAE@$$QAV?$allocator@U?$_List_node@PAVRaven_Bot@@PAX@std@@@1@@Z ; std::_List_buy<Raven_Bot *,std::allocator<Raven_Bot *> >::_List_buy<Raven_Bot *,std::allocator<Raven_Bot *> ><std::allocator<std::_List_node<Raven_Bot *,void *> >,void>
PUBLIC	??$move@AAV?$list@PAVRaven_Bot@@V?$allocator@PAVRaven_Bot@@@std@@@std@@@std@@YA$$QAV?$list@PAVRaven_Bot@@V?$allocator@PAVRaven_Bot@@@std@@@0@AAV10@@Z ; std::move<std::list<Raven_Bot *,std::allocator<Raven_Bot *> > &>
PUBLIC	?pointer_to@?$pointer_traits@PBU?$pair@QAVRaven_Bot@@VMemoryRecord@@@std@@@std@@SAPBU?$pair@QAVRaven_Bot@@VMemoryRecord@@@2@ABU32@@Z ; std::pointer_traits<std::pair<Raven_Bot * const,MemoryRecord> const *>::pointer_to
PUBLIC	??$_Debug_lt_pred@ABU?$less@PAVRaven_Bot@@@std@@ABQAVRaven_Bot@@ABQAV3@@std@@YA_NABU?$less@PAVRaven_Bot@@@0@ABQAVRaven_Bot@@1@Z ; std::_Debug_lt_pred<std::less<Raven_Bot *> const &,Raven_Bot * const &,Raven_Bot * const &>
PUBLIC	??$_Debug_lt_pred@AAU?$less@PAVRaven_Bot@@@std@@ABQAVRaven_Bot@@ABQAV3@@std@@YA_NAAU?$less@PAVRaven_Bot@@@0@ABQAVRaven_Bot@@1@Z ; std::_Debug_lt_pred<std::less<Raven_Bot *> &,Raven_Bot * const &,Raven_Bot * const &>
PUBLIC	??$addressof@$$CBV?$_Tree_val@U?$_Tree_simple_types@U?$pair@QAVRaven_Bot@@VMemoryRecord@@@std@@@std@@@std@@@std@@YAPBV?$_Tree_val@U?$_Tree_simple_types@U?$pair@QAVRaven_Bot@@VMemoryRecord@@@std@@@std@@@0@ABV10@@Z ; std::addressof<std::_Tree_val<std::_Tree_simple_types<std::pair<Raven_Bot * const,MemoryRecord> > > const >
PUBLIC	??$addressof@V?$_Tree_val@U?$_Tree_simple_types@U?$pair@QAVRaven_Bot@@VMemoryRecord@@@std@@@std@@@std@@@std@@YAPAV?$_Tree_val@U?$_Tree_simple_types@U?$pair@QAVRaven_Bot@@VMemoryRecord@@@std@@@std@@@0@AAV10@@Z ; std::addressof<std::_Tree_val<std::_Tree_simple_types<std::pair<Raven_Bot * const,MemoryRecord> > > >
PUBLIC	??$try_emplace@$$V@?$map@PAVRaven_Bot@@VMemoryRecord@@U?$less@PAVRaven_Bot@@@std@@V?$allocator@U?$pair@QAVRaven_Bot@@VMemoryRecord@@@std@@@4@@std@@QAE?AU?$pair@V?$_Tree_iterator@V?$_Tree_val@U?$_Tree_simple_types@U?$pair@QAVRaven_Bot@@VMemoryRecord@@@std@@@std@@@std@@@std@@_N@1@ABQAVRaven_Bot@@@Z ; std::map<Raven_Bot *,MemoryRecord,std::less<Raven_Bot *>,std::allocator<std::pair<Raven_Bot * const,MemoryRecord> > >::try_emplace<>
PUBLIC	??1?$pair@V?$_Tree_iterator@V?$_Tree_val@U?$_Tree_simple_types@U?$pair@QAVRaven_Bot@@VMemoryRecord@@@std@@@std@@@std@@@std@@_N@std@@QAE@XZ ; std::pair<std::_Tree_iterator<std::_Tree_val<std::_Tree_simple_types<std::pair<Raven_Bot * const,MemoryRecord> > > >,bool>::~pair<std::_Tree_iterator<std::_Tree_val<std::_Tree_simple_types<std::pair<Raven_Bot * const,MemoryRecord> > > >,bool>
PUBLIC	??$addressof@$$CBU?$pair@QAVRaven_Bot@@VMemoryRecord@@@std@@@std@@YAPBU?$pair@QAVRaven_Bot@@VMemoryRecord@@@0@ABU10@@Z ; std::addressof<std::pair<Raven_Bot * const,MemoryRecord> const >
PUBLIC	??$_Swap_adl@PAU?$_List_node@PAVRaven_Bot@@PAX@std@@@std@@YAXAAPAU?$_List_node@PAVRaven_Bot@@PAX@0@0@Z ; std::_Swap_adl<std::_List_node<Raven_Bot *,void *> *>
PUBLIC	??$swap@PAU?$_List_node@PAVRaven_Bot@@PAX@std@@X@std@@YAXAAPAU?$_List_node@PAVRaven_Bot@@PAX@0@0@Z ; std::swap<std::_List_node<Raven_Bot *,void *> *,void>
PUBLIC	??$swap@IX@std@@YAXAAI0@Z			; std::swap<unsigned int,void>
PUBLIC	?pointer_to@?$pointer_traits@PAU?$pair@QAVRaven_Bot@@VMemoryRecord@@@std@@@std@@SAPAU?$pair@QAVRaven_Bot@@VMemoryRecord@@@2@AAU32@@Z ; std::pointer_traits<std::pair<Raven_Bot * const,MemoryRecord> *>::pointer_to
PUBLIC	??$_Lbound@PAVRaven_Bot@@@?$_Tree@V?$_Tmap_traits@PAVRaven_Bot@@VMemoryRecord@@U?$less@PAVRaven_Bot@@@std@@V?$allocator@U?$pair@QAVRaven_Bot@@VMemoryRecord@@@std@@@4@$0A@@std@@@std@@IBEPAU?$_Tree_node@U?$pair@QAVRaven_Bot@@VMemoryRecord@@@std@@PAX@1@ABQAVRaven_Bot@@@Z ; std::_Tree<std::_Tmap_traits<Raven_Bot *,MemoryRecord,std::less<Raven_Bot *>,std::allocator<std::pair<Raven_Bot * const,MemoryRecord> >,0> >::_Lbound<Raven_Bot *>
PUBLIC	??$_Allocate@$07U_Default_allocate_traits@std@@$0A@@std@@YAPAXI@Z ; std::_Allocate<8,std::_Default_allocate_traits,0>
PUBLIC	??$_Deallocate@$07$0A@@std@@YAXPAXI@Z		; std::_Deallocate<8,0>
PUBLIC	??$addressof@U?$pair@QAVRaven_Bot@@VMemoryRecord@@@std@@@std@@YAPAU?$pair@QAVRaven_Bot@@VMemoryRecord@@@0@AAU10@@Z ; std::addressof<std::pair<Raven_Bot * const,MemoryRecord> >
PUBLIC	??$_Freenode0@V?$allocator@U?$_List_node@PAVRaven_Bot@@PAX@std@@@std@@@?$_List_node@PAVRaven_Bot@@PAX@std@@SAXAAV?$allocator@U?$_List_node@PAVRaven_Bot@@PAX@std@@@1@PAU01@@Z ; std::_List_node<Raven_Bot *,void *>::_Freenode0<std::allocator<std::_List_node<Raven_Bot *,void *> > >
PUBLIC	?allocate@?$allocator@U_Container_proxy@std@@@std@@QAEPAU_Container_proxy@2@I@Z ; std::allocator<std::_Container_proxy>::allocate
PUBLIC	??$?0U?$_List_node@PAVRaven_Bot@@PAX@std@@@?$allocator@U_Container_proxy@std@@@std@@QAE@ABV?$allocator@U?$_List_node@PAVRaven_Bot@@PAX@std@@@1@@Z ; std::allocator<std::_Container_proxy>::allocator<std::_Container_proxy><std::_List_node<Raven_Bot *,void *> >
PUBLIC	?deallocate@?$_Default_allocator_traits@V?$allocator@U_Container_proxy@std@@@std@@@std@@SAXAAV?$allocator@U_Container_proxy@std@@@2@QAU_Container_proxy@2@I@Z ; std::_Default_allocator_traits<std::allocator<std::_Container_proxy> >::deallocate
PUBLIC	??$destroy@U_Container_proxy@std@@@?$_Default_allocator_traits@V?$allocator@U_Container_proxy@std@@@std@@@std@@SAXAAV?$allocator@U_Container_proxy@std@@@1@QAU_Container_proxy@1@@Z ; std::_Default_allocator_traits<std::allocator<std::_Container_proxy> >::destroy<std::_Container_proxy>
PUBLIC	??$_Deallocate_plain@V?$allocator@U_Container_proxy@std@@@std@@$0A@@std@@YAXAAV?$allocator@U_Container_proxy@std@@@0@QAU_Container_proxy@0@@Z ; std::_Deallocate_plain<std::allocator<std::_Container_proxy>,0>
PUBLIC	??$?0$$V@?$_Compressed_pair@V?$allocator@U?$_List_node@PAVRaven_Bot@@PAX@std@@@std@@V?$_List_val@U?$_List_simple_types@PAVRaven_Bot@@@std@@@2@$00@std@@QAE@U_Zero_then_variadic_args_t@1@@Z ; std::_Compressed_pair<std::allocator<std::_List_node<Raven_Bot *,void *> >,std::_List_val<std::_List_simple_types<Raven_Bot *> >,1>::_Compressed_pair<std::allocator<std::_List_node<Raven_Bot *,void *> >,std::_List_val<std::_List_simple_types<Raven_Bot *> >,1><>
PUBLIC	??$_Unfancy@U_Container_proxy@std@@@std@@YAPAU_Container_proxy@0@PAU10@@Z ; std::_Unfancy<std::_Container_proxy>
PUBLIC	??$construct@U_Container_proxy@std@@U12@@?$_Default_allocator_traits@V?$allocator@U_Container_proxy@std@@@std@@@std@@SAXAAV?$allocator@U_Container_proxy@std@@@1@QAU_Container_proxy@1@$$QAU31@@Z ; std::_Default_allocator_traits<std::allocator<std::_Container_proxy> >::construct<std::_Container_proxy,std::_Container_proxy>
PUBLIC	??$_Freenode0@V?$allocator@U?$_Tree_node@U?$pair@QAVRaven_Bot@@VMemoryRecord@@@std@@PAX@std@@@std@@@?$_Tree_node@U?$pair@QAVRaven_Bot@@VMemoryRecord@@@std@@PAX@std@@SAXAAV?$allocator@U?$_Tree_node@U?$pair@QAVRaven_Bot@@VMemoryRecord@@@std@@PAX@std@@@1@PAU01@@Z ; std::_Tree_node<std::pair<Raven_Bot * const,MemoryRecord>,void *>::_Freenode0<std::allocator<std::_Tree_node<std::pair<Raven_Bot * const,MemoryRecord>,void *> > >
PUBLIC	??$?0U?$_Tree_node@U?$pair@QAVRaven_Bot@@VMemoryRecord@@@std@@PAX@std@@@?$allocator@U_Container_proxy@std@@@std@@QAE@ABV?$allocator@U?$_Tree_node@U?$pair@QAVRaven_Bot@@VMemoryRecord@@@std@@PAX@std@@@1@@Z ; std::allocator<std::_Container_proxy>::allocator<std::_Container_proxy><std::_Tree_node<std::pair<Raven_Bot * const,MemoryRecord>,void *> >
PUBLIC	??$?0ABU?$less@PAVRaven_Bot@@@std@@U_Zero_then_variadic_args_t@1@@?$_Compressed_pair@U?$less@PAVRaven_Bot@@@std@@V?$_Compressed_pair@V?$allocator@U?$_Tree_node@U?$pair@QAVRaven_Bot@@VMemoryRecord@@@std@@PAX@std@@@std@@V?$_Tree_val@U?$_Tree_simple_types@U?$pair@QAVRaven_Bot@@VMemoryRecord@@@std@@@std@@@2@$00@2@$00@std@@QAE@U_One_then_variadic_args_t@1@ABU?$less@PAVRaven_Bot@@@1@$$QAU_Zero_then_variadic_args_t@1@@Z ; std::_Compressed_pair<std::less<Raven_Bot *>,std::_Compressed_pair<std::allocator<std::_Tree_node<std::pair<Raven_Bot * const,MemoryRecord>,void *> >,std::_Tree_val<std::_Tree_simple_types<std::pair<Raven_Bot * const,MemoryRecord> > >,1>,1>::_Compressed_pair<std::less<Raven_Bot *>,std::_Compressed_pair<std::allocator<std::_Tree_node<std::pair<Raven_Bot * const,MemoryRecord>,void *> >,std::_Tree_val<std::_Tree_simple_types<std::pair<Raven_Bot * const,MemoryRecord> > >,1>,1><std::less<Raven_Bot *> const &,std::_Zero_then_variadic_args_t>
PUBLIC	??$_Kfn@QAVRaven_Bot@@VMemoryRecord@@@?$_Tmap_traits@PAVRaven_Bot@@VMemoryRecord@@U?$less@PAVRaven_Bot@@@std@@V?$allocator@U?$pair@QAVRaven_Bot@@VMemoryRecord@@@std@@@4@$0A@@std@@SAABQAVRaven_Bot@@ABU?$pair@QAVRaven_Bot@@VMemoryRecord@@@1@@Z ; std::_Tmap_traits<Raven_Bot *,MemoryRecord,std::less<Raven_Bot *>,std::allocator<std::pair<Raven_Bot * const,MemoryRecord> >,0>::_Kfn<Raven_Bot * const,MemoryRecord>
PUBLIC	??$addressof@PAVRaven_Bot@@@std@@YAPAPAVRaven_Bot@@AAPAV1@@Z ; std::addressof<Raven_Bot *>
PUBLIC	??$destroy@PAVRaven_Bot@@@?$_Default_allocator_traits@V?$allocator@U?$_List_node@PAVRaven_Bot@@PAX@std@@@std@@@std@@SAXAAV?$allocator@U?$_List_node@PAVRaven_Bot@@PAX@std@@@1@QAPAVRaven_Bot@@@Z ; std::_Default_allocator_traits<std::allocator<std::_List_node<Raven_Bot *,void *> > >::destroy<Raven_Bot *>
PUBLIC	??$destroy@U?$pair@QAVRaven_Bot@@VMemoryRecord@@@std@@@?$_Default_allocator_traits@V?$allocator@U?$_Tree_node@U?$pair@QAVRaven_Bot@@VMemoryRecord@@@std@@PAX@std@@@std@@@std@@SAXAAV?$allocator@U?$_Tree_node@U?$pair@QAVRaven_Bot@@VMemoryRecord@@@std@@PAX@std@@@1@QAU?$pair@QAVRaven_Bot@@VMemoryRecord@@@1@@Z ; std::_Default_allocator_traits<std::allocator<std::_Tree_node<std::pair<Raven_Bot * const,MemoryRecord>,void *> > >::destroy<std::pair<Raven_Bot * const,MemoryRecord> >
PUBLIC	??$_Get_size_of_n@$07@std@@YAII@Z		; std::_Get_size_of_n<8>
PUBLIC	??$addressof@PAU?$_List_node@PAVRaven_Bot@@PAX@std@@@std@@YAPAPAU?$_List_node@PAVRaven_Bot@@PAX@0@AAPAU10@@Z ; std::addressof<std::_List_node<Raven_Bot *,void *> *>
PUBLIC	??$construct@PAU?$_List_node@PAVRaven_Bot@@PAX@std@@AAPAU12@@?$_Default_allocator_traits@V?$allocator@U?$_List_node@PAVRaven_Bot@@PAX@std@@@std@@@std@@SAXAAV?$allocator@U?$_List_node@PAVRaven_Bot@@PAX@std@@@1@QAPAU?$_List_node@PAVRaven_Bot@@PAX@1@AAPAU31@@Z ; std::_Default_allocator_traits<std::allocator<std::_List_node<Raven_Bot *,void *> > >::construct<std::_List_node<Raven_Bot *,void *> *,std::_List_node<Raven_Bot *,void *> * &>
PUBLIC	??$swap@DX@std@@YAXAAD0@Z			; std::swap<char,void>
PUBLIC	??$addressof@PAU?$_Tree_node@U?$pair@QAVRaven_Bot@@VMemoryRecord@@@std@@PAX@std@@@std@@YAPAPAU?$_Tree_node@U?$pair@QAVRaven_Bot@@VMemoryRecord@@@std@@PAX@0@AAPAU10@@Z ; std::addressof<std::_Tree_node<std::pair<Raven_Bot * const,MemoryRecord>,void *> *>
PUBLIC	??$construct@PAU?$_Tree_node@U?$pair@QAVRaven_Bot@@VMemoryRecord@@@std@@PAX@std@@AAPAU12@@?$_Default_allocator_traits@V?$allocator@U?$_Tree_node@U?$pair@QAVRaven_Bot@@VMemoryRecord@@@std@@PAX@std@@@std@@@std@@SAXAAV?$allocator@U?$_Tree_node@U?$pair@QAVRaven_Bot@@VMemoryRecord@@@std@@PAX@std@@@1@QAPAU?$_Tree_node@U?$pair@QAVRaven_Bot@@VMemoryRecord@@@std@@PAX@1@AAPAU31@@Z ; std::_Default_allocator_traits<std::allocator<std::_Tree_node<std::pair<Raven_Bot * const,MemoryRecord>,void *> > >::construct<std::_Tree_node<std::pair<Raven_Bot * const,MemoryRecord>,void *> *,std::_Tree_node<std::pair<Raven_Bot * const,MemoryRecord>,void *> * &>
PUBLIC	??$_Get_size_of_n@$0M@@std@@YAII@Z		; std::_Get_size_of_n<12>
PUBLIC	??$_Get_size_of_n@$0EI@@std@@YAII@Z		; std::_Get_size_of_n<72>
PUBLIC	??$forward@ABQAVRaven_Bot@@@std@@YAABQAVRaven_Bot@@ABQAV1@@Z ; std::forward<Raven_Bot * const &>
PUBLIC	??$_Buynode@ABQAVRaven_Bot@@@?$_List_buy@PAVRaven_Bot@@V?$allocator@PAVRaven_Bot@@@std@@@std@@QAEPAU?$_List_node@PAVRaven_Bot@@PAX@1@PAU21@0ABQAVRaven_Bot@@@Z ; std::_List_buy<Raven_Bot *,std::allocator<Raven_Bot *> >::_Buynode<Raven_Bot * const &>
PUBLIC	??$forward@V?$allocator@U?$_List_node@PAVRaven_Bot@@PAX@std@@@std@@@std@@YA$$QAV?$allocator@U?$_List_node@PAVRaven_Bot@@PAX@std@@@0@AAV10@@Z ; std::forward<std::allocator<std::_List_node<Raven_Bot *,void *> > >
PUBLIC	??$?0V?$allocator@U?$_List_node@PAVRaven_Bot@@PAX@std@@@std@@X@?$_List_alloc@U?$_List_base_types@PAVRaven_Bot@@V?$allocator@PAVRaven_Bot@@@std@@@std@@@std@@QAE@$$QAV?$allocator@U?$_List_node@PAVRaven_Bot@@PAX@std@@@1@@Z ; std::_List_alloc<std::_List_base_types<Raven_Bot *,std::allocator<Raven_Bot *> > >::_List_alloc<std::_List_base_types<Raven_Bot *,std::allocator<Raven_Bot *> > ><std::allocator<std::_List_node<Raven_Bot *,void *> >,void>
PUBLIC	??$_Try_emplace@ABQAVRaven_Bot@@$$V@?$map@PAVRaven_Bot@@VMemoryRecord@@U?$less@PAVRaven_Bot@@@std@@V?$allocator@U?$pair@QAVRaven_Bot@@VMemoryRecord@@@std@@@4@@std@@QAE?AU?$pair@V?$_Tree_iterator@V?$_Tree_val@U?$_Tree_simple_types@U?$pair@QAVRaven_Bot@@VMemoryRecord@@@std@@@std@@@std@@@std@@_N@1@ABQAVRaven_Bot@@@Z ; std::map<Raven_Bot *,MemoryRecord,std::less<Raven_Bot *>,std::allocator<std::pair<Raven_Bot * const,MemoryRecord> > >::_Try_emplace<Raven_Bot * const &>
PUBLIC	??$move@AAI@std@@YA$$QAIAAI@Z			; std::move<unsigned int &>
PUBLIC	??$_Allocate_manually_vector_aligned@U_Default_allocate_traits@std@@@std@@YAPAXI@Z ; std::_Allocate_manually_vector_aligned<std::_Default_allocate_traits>
PUBLIC	??$destroy@PAU?$_List_node@PAVRaven_Bot@@PAX@std@@@?$_Default_allocator_traits@V?$allocator@U?$_List_node@PAVRaven_Bot@@PAX@std@@@std@@@std@@SAXAAV?$allocator@U?$_List_node@PAVRaven_Bot@@PAX@std@@@1@QAPAU?$_List_node@PAVRaven_Bot@@PAX@1@@Z ; std::_Default_allocator_traits<std::allocator<std::_List_node<Raven_Bot *,void *> > >::destroy<std::_List_node<Raven_Bot *,void *> *>
PUBLIC	??$forward@U_Container_proxy@std@@@std@@YA$$QAU_Container_proxy@0@AAU10@@Z ; std::forward<std::_Container_proxy>
PUBLIC	??$destroy@PAU?$_Tree_node@U?$pair@QAVRaven_Bot@@VMemoryRecord@@@std@@PAX@std@@@?$_Default_allocator_traits@V?$allocator@U?$_Tree_node@U?$pair@QAVRaven_Bot@@VMemoryRecord@@@std@@PAX@std@@@std@@@std@@SAXAAV?$allocator@U?$_Tree_node@U?$pair@QAVRaven_Bot@@VMemoryRecord@@@std@@PAX@std@@@1@QAPAU?$_Tree_node@U?$pair@QAVRaven_Bot@@VMemoryRecord@@@std@@PAX@1@@Z ; std::_Default_allocator_traits<std::allocator<std::_Tree_node<std::pair<Raven_Bot * const,MemoryRecord>,void *> > >::destroy<std::_Tree_node<std::pair<Raven_Bot * const,MemoryRecord>,void *> *>
PUBLIC	??$forward@ABU?$less@PAVRaven_Bot@@@std@@@std@@YAABU?$less@PAVRaven_Bot@@@0@ABU10@@Z ; std::forward<std::less<Raven_Bot *> const &>
PUBLIC	??$forward@U_Zero_then_variadic_args_t@std@@@std@@YA$$QAU_Zero_then_variadic_args_t@0@AAU10@@Z ; std::forward<std::_Zero_then_variadic_args_t>
PUBLIC	??$?0$$V@?$_Compressed_pair@V?$allocator@U?$_Tree_node@U?$pair@QAVRaven_Bot@@VMemoryRecord@@@std@@PAX@std@@@std@@V?$_Tree_val@U?$_Tree_simple_types@U?$pair@QAVRaven_Bot@@VMemoryRecord@@@std@@@std@@@2@$00@std@@QAE@U_Zero_then_variadic_args_t@1@@Z ; std::_Compressed_pair<std::allocator<std::_Tree_node<std::pair<Raven_Bot * const,MemoryRecord>,void *> >,std::_Tree_val<std::_Tree_simple_types<std::pair<Raven_Bot * const,MemoryRecord> > >,1>::_Compressed_pair<std::allocator<std::_Tree_node<std::pair<Raven_Bot * const,MemoryRecord>,void *> >,std::_Tree_val<std::_Tree_simple_types<std::pair<Raven_Bot * const,MemoryRecord> > >,1><>
PUBLIC	??$forward@AAPAU?$_List_node@PAVRaven_Bot@@PAX@std@@@std@@YAAAPAU?$_List_node@PAVRaven_Bot@@PAX@0@AAPAU10@@Z ; std::forward<std::_List_node<Raven_Bot *,void *> * &>
PUBLIC	??$move@AAD@std@@YA$$QADAAD@Z			; std::move<char &>
PUBLIC	??$forward@AAPAU?$_Tree_node@U?$pair@QAVRaven_Bot@@VMemoryRecord@@@std@@PAX@std@@@std@@YAAAPAU?$_Tree_node@U?$pair@QAVRaven_Bot@@VMemoryRecord@@@std@@PAX@0@AAPAU10@@Z ; std::forward<std::_Tree_node<std::pair<Raven_Bot * const,MemoryRecord>,void *> * &>
PUBLIC	??$move@AAPAU?$_List_node@PAVRaven_Bot@@PAX@std@@@std@@YA$$QAPAU?$_List_node@PAVRaven_Bot@@PAX@0@AAPAU10@@Z ; std::move<std::_List_node<Raven_Bot *,void *> * &>
PUBLIC	??$construct@PAVRaven_Bot@@ABQAV1@@?$_Default_allocator_traits@V?$allocator@U?$_List_node@PAVRaven_Bot@@PAX@std@@@std@@@std@@SAXAAV?$allocator@U?$_List_node@PAVRaven_Bot@@PAX@std@@@1@QAPAVRaven_Bot@@ABQAV3@@Z ; std::_Default_allocator_traits<std::allocator<std::_List_node<Raven_Bot *,void *> > >::construct<Raven_Bot *,Raven_Bot * const &>
PUBLIC	??$?0V?$allocator@U?$_List_node@PAVRaven_Bot@@PAX@std@@@std@@$$V@?$_Compressed_pair@V?$allocator@U?$_List_node@PAVRaven_Bot@@PAX@std@@@std@@V?$_List_val@U?$_List_simple_types@PAVRaven_Bot@@@std@@@2@$00@std@@QAE@U_One_then_variadic_args_t@1@$$QAV?$allocator@U?$_List_node@PAVRaven_Bot@@PAX@std@@@1@@Z ; std::_Compressed_pair<std::allocator<std::_List_node<Raven_Bot *,void *> >,std::_List_val<std::_List_simple_types<Raven_Bot *> >,1>::_Compressed_pair<std::allocator<std::_List_node<Raven_Bot *,void *> >,std::_List_val<std::_List_simple_types<Raven_Bot *> >,1><std::allocator<std::_List_node<Raven_Bot *,void *> > >
PUBLIC	??$forward_as_tuple@ABQAVRaven_Bot@@@std@@YA?AV?$tuple@ABQAVRaven_Bot@@@0@ABQAVRaven_Bot@@@Z ; std::forward_as_tuple<Raven_Bot * const &>
PUBLIC	??0?$tuple@ABQAVRaven_Bot@@@std@@QAE@$$QAV01@@Z	; std::tuple<Raven_Bot * const &>::tuple<Raven_Bot * const &>
PUBLIC	??$forward_as_tuple@$$V@std@@YA?AV?$tuple@$$V@0@XZ ; std::forward_as_tuple<>
PUBLIC	??$emplace_hint@ABUpiecewise_construct_t@std@@V?$tuple@ABQAVRaven_Bot@@@2@V?$tuple@$$V@2@@?$_Tree@V?$_Tmap_traits@PAVRaven_Bot@@VMemoryRecord@@U?$less@PAVRaven_Bot@@@std@@V?$allocator@U?$pair@QAVRaven_Bot@@VMemoryRecord@@@std@@@4@$0A@@std@@@std@@QAE?AV?$_Tree_iterator@V?$_Tree_val@U?$_Tree_simple_types@U?$pair@QAVRaven_Bot@@VMemoryRecord@@@std@@@std@@@std@@@1@V?$_Tree_const_iterator@V?$_Tree_val@U?$_Tree_simple_types@U?$pair@QAVRaven_Bot@@VMemoryRecord@@@std@@@std@@@std@@@1@ABUpiecewise_construct_t@1@$$QAV?$tuple@ABQAVRaven_Bot@@@1@$$QAV?$tuple@$$V@1@@Z ; std::_Tree<std::_Tmap_traits<Raven_Bot *,MemoryRecord,std::less<Raven_Bot *>,std::allocator<std::pair<Raven_Bot * const,MemoryRecord> >,0> >::emplace_hint<std::piecewise_construct_t const &,std::tuple<Raven_Bot * const &>,std::tuple<> >
PUBLIC	??$?0V?$_Tree_iterator@V?$_Tree_val@U?$_Tree_simple_types@U?$pair@QAVRaven_Bot@@VMemoryRecord@@@std@@@std@@@std@@@std@@_N$0A@@?$pair@V?$_Tree_iterator@V?$_Tree_val@U?$_Tree_simple_types@U?$pair@QAVRaven_Bot@@VMemoryRecord@@@std@@@std@@@std@@@std@@_N@std@@QAE@$$QAV?$_Tree_iterator@V?$_Tree_val@U?$_Tree_simple_types@U?$pair@QAVRaven_Bot@@VMemoryRecord@@@std@@@std@@@std@@@1@$$QA_N@Z ; std::pair<std::_Tree_iterator<std::_Tree_val<std::_Tree_simple_types<std::pair<Raven_Bot * const,MemoryRecord> > > >,bool>::pair<std::_Tree_iterator<std::_Tree_val<std::_Tree_simple_types<std::pair<Raven_Bot * const,MemoryRecord> > > >,bool><std::_Tree_iterator<std::_Tree_val<std::_Tree_simple_types<std::pair<Raven_Bot * const,MemoryRecord> > > >,bool,0>
PUBLIC	??$?0AAV?$_Tree_iterator@V?$_Tree_val@U?$_Tree_simple_types@U?$pair@QAVRaven_Bot@@VMemoryRecord@@@std@@@std@@@std@@@std@@_N$0A@@?$pair@V?$_Tree_iterator@V?$_Tree_val@U?$_Tree_simple_types@U?$pair@QAVRaven_Bot@@VMemoryRecord@@@std@@@std@@@std@@@std@@_N@std@@QAE@AAV?$_Tree_iterator@V?$_Tree_val@U?$_Tree_simple_types@U?$pair@QAVRaven_Bot@@VMemoryRecord@@@std@@@std@@@std@@@1@$$QA_N@Z ; std::pair<std::_Tree_iterator<std::_Tree_val<std::_Tree_simple_types<std::pair<Raven_Bot * const,MemoryRecord> > > >,bool>::pair<std::_Tree_iterator<std::_Tree_val<std::_Tree_simple_types<std::pair<Raven_Bot * const,MemoryRecord> > > >,bool><std::_Tree_iterator<std::_Tree_val<std::_Tree_simple_types<std::pair<Raven_Bot * const,MemoryRecord> > > > &,bool,0>
PUBLIC	??$?0ABQAVRaven_Bot@@$0A@@?$tuple@ABQAVRaven_Bot@@@std@@QAE@ABQAVRaven_Bot@@@Z ; std::tuple<Raven_Bot * const &>::tuple<Raven_Bot * const &><Raven_Bot * const &,0>
PUBLIC	??$forward@ABUpiecewise_construct_t@std@@@std@@YAABUpiecewise_construct_t@0@ABU10@@Z ; std::forward<std::piecewise_construct_t const &>
PUBLIC	??$forward@V?$tuple@ABQAVRaven_Bot@@@std@@@std@@YA$$QAV?$tuple@ABQAVRaven_Bot@@@0@AAV10@@Z ; std::forward<std::tuple<Raven_Bot * const &> >
PUBLIC	??$forward@V?$tuple@$$V@std@@@std@@YA$$QAV?$tuple@$$V@0@AAV10@@Z ; std::forward<std::tuple<> >
PUBLIC	??$_Buynode@ABUpiecewise_construct_t@std@@V?$tuple@ABQAVRaven_Bot@@@2@V?$tuple@$$V@2@@?$_Tree_comp_alloc@V?$_Tmap_traits@PAVRaven_Bot@@VMemoryRecord@@U?$less@PAVRaven_Bot@@@std@@V?$allocator@U?$pair@QAVRaven_Bot@@VMemoryRecord@@@std@@@4@$0A@@std@@@std@@QAEPAU?$_Tree_node@U?$pair@QAVRaven_Bot@@VMemoryRecord@@@std@@PAX@1@ABUpiecewise_construct_t@1@$$QAV?$tuple@ABQAVRaven_Bot@@@1@$$QAV?$tuple@$$V@1@@Z ; std::_Tree_comp_alloc<std::_Tmap_traits<Raven_Bot *,MemoryRecord,std::less<Raven_Bot *>,std::allocator<std::pair<Raven_Bot * const,MemoryRecord> >,0> >::_Buynode<std::piecewise_construct_t const &,std::tuple<Raven_Bot * const &>,std::tuple<> >
PUBLIC	??$_Insert_hint@AAU?$pair@QAVRaven_Bot@@VMemoryRecord@@@std@@PAU?$_Tree_node@U?$pair@QAVRaven_Bot@@VMemoryRecord@@@std@@PAX@2@@?$_Tree@V?$_Tmap_traits@PAVRaven_Bot@@VMemoryRecord@@U?$less@PAVRaven_Bot@@@std@@V?$allocator@U?$pair@QAVRaven_Bot@@VMemoryRecord@@@std@@@4@$0A@@std@@@std@@IAE?AV?$_Tree_iterator@V?$_Tree_val@U?$_Tree_simple_types@U?$pair@QAVRaven_Bot@@VMemoryRecord@@@std@@@std@@@std@@@1@V?$_Tree_const_iterator@V?$_Tree_val@U?$_Tree_simple_types@U?$pair@QAVRaven_Bot@@VMemoryRecord@@@std@@@std@@@std@@@1@AAU?$pair@QAVRaven_Bot@@VMemoryRecord@@@1@PAU?$_Tree_node@U?$pair@QAVRaven_Bot@@VMemoryRecord@@@std@@PAX@1@@Z ; std::_Tree<std::_Tmap_traits<Raven_Bot *,MemoryRecord,std::less<Raven_Bot *>,std::allocator<std::pair<Raven_Bot * const,MemoryRecord> >,0> >::_Insert_hint<std::pair<Raven_Bot * const,MemoryRecord> &,std::_Tree_node<std::pair<Raven_Bot * const,MemoryRecord>,void *> *>
PUBLIC	??$forward@V?$_Tree_iterator@V?$_Tree_val@U?$_Tree_simple_types@U?$pair@QAVRaven_Bot@@VMemoryRecord@@@std@@@std@@@std@@@std@@@std@@YA$$QAV?$_Tree_iterator@V?$_Tree_val@U?$_Tree_simple_types@U?$pair@QAVRaven_Bot@@VMemoryRecord@@@std@@@std@@@std@@@0@AAV10@@Z ; std::forward<std::_Tree_iterator<std::_Tree_val<std::_Tree_simple_types<std::pair<Raven_Bot * const,MemoryRecord> > > > >
PUBLIC	??$forward@_N@std@@YA$$QA_NAA_N@Z		; std::forward<bool>
PUBLIC	??$forward@AAV?$_Tree_iterator@V?$_Tree_val@U?$_Tree_simple_types@U?$pair@QAVRaven_Bot@@VMemoryRecord@@@std@@@std@@@std@@@std@@@std@@YAAAV?$_Tree_iterator@V?$_Tree_val@U?$_Tree_simple_types@U?$pair@QAVRaven_Bot@@VMemoryRecord@@@std@@@std@@@std@@@0@AAV10@@Z ; std::forward<std::_Tree_iterator<std::_Tree_val<std::_Tree_simple_types<std::pair<Raven_Bot * const,MemoryRecord> > > > &>
PUBLIC	??$?0U_Exact_args_t@std@@ABQAVRaven_Bot@@$$V$0A@@?$tuple@ABQAVRaven_Bot@@@std@@QAE@U_Exact_args_t@1@ABQAVRaven_Bot@@@Z ; std::tuple<Raven_Bot * const &>::tuple<Raven_Bot * const &><std::_Exact_args_t,Raven_Bot * const &,0>
PUBLIC	??$construct@U?$pair@QAVRaven_Bot@@VMemoryRecord@@@std@@ABUpiecewise_construct_t@2@V?$tuple@ABQAVRaven_Bot@@@2@V?$tuple@$$V@2@@?$_Default_allocator_traits@V?$allocator@U?$_Tree_node@U?$pair@QAVRaven_Bot@@VMemoryRecord@@@std@@PAX@std@@@std@@@std@@SAXAAV?$allocator@U?$_Tree_node@U?$pair@QAVRaven_Bot@@VMemoryRecord@@@std@@PAX@std@@@1@QAU?$pair@QAVRaven_Bot@@VMemoryRecord@@@1@ABUpiecewise_construct_t@1@$$QAV?$tuple@ABQAVRaven_Bot@@@1@$$QAV?$tuple@$$V@1@@Z ; std::_Default_allocator_traits<std::allocator<std::_Tree_node<std::pair<Raven_Bot * const,MemoryRecord>,void *> > >::construct<std::pair<Raven_Bot * const,MemoryRecord>,std::piecewise_construct_t const &,std::tuple<Raven_Bot * const &>,std::tuple<> >
PUBLIC	??$forward@AAU?$pair@QAVRaven_Bot@@VMemoryRecord@@@std@@@std@@YAAAU?$pair@QAVRaven_Bot@@VMemoryRecord@@@0@AAU10@@Z ; std::forward<std::pair<Raven_Bot * const,MemoryRecord> &>
PUBLIC	??$_Insert_at@AAU?$pair@QAVRaven_Bot@@VMemoryRecord@@@std@@PAU?$_Tree_node@U?$pair@QAVRaven_Bot@@VMemoryRecord@@@std@@PAX@2@@?$_Tree@V?$_Tmap_traits@PAVRaven_Bot@@VMemoryRecord@@U?$less@PAVRaven_Bot@@@std@@V?$allocator@U?$pair@QAVRaven_Bot@@VMemoryRecord@@@std@@@4@$0A@@std@@@std@@IAE?AV?$_Tree_iterator@V?$_Tree_val@U?$_Tree_simple_types@U?$pair@QAVRaven_Bot@@VMemoryRecord@@@std@@@std@@@std@@@1@_NPAU?$_Tree_node@U?$pair@QAVRaven_Bot@@VMemoryRecord@@@std@@PAX@1@AAU?$pair@QAVRaven_Bot@@VMemoryRecord@@@1@1@Z ; std::_Tree<std::_Tmap_traits<Raven_Bot *,MemoryRecord,std::less<Raven_Bot *>,std::allocator<std::pair<Raven_Bot * const,MemoryRecord> >,0> >::_Insert_at<std::pair<Raven_Bot * const,MemoryRecord> &,std::_Tree_node<std::pair<Raven_Bot * const,MemoryRecord>,void *> *>
PUBLIC	??$_Insert_nohint@AAU?$pair@QAVRaven_Bot@@VMemoryRecord@@@std@@PAU?$_Tree_node@U?$pair@QAVRaven_Bot@@VMemoryRecord@@@std@@PAX@2@@?$_Tree@V?$_Tmap_traits@PAVRaven_Bot@@VMemoryRecord@@U?$less@PAVRaven_Bot@@@std@@V?$allocator@U?$pair@QAVRaven_Bot@@VMemoryRecord@@@std@@@4@$0A@@std@@@std@@IAE?AU?$pair@V?$_Tree_iterator@V?$_Tree_val@U?$_Tree_simple_types@U?$pair@QAVRaven_Bot@@VMemoryRecord@@@std@@@std@@@std@@@std@@_N@1@_NAAU?$pair@QAVRaven_Bot@@VMemoryRecord@@@1@PAU?$_Tree_node@U?$pair@QAVRaven_Bot@@VMemoryRecord@@@std@@PAX@1@@Z ; std::_Tree<std::_Tmap_traits<Raven_Bot *,MemoryRecord,std::less<Raven_Bot *>,std::allocator<std::pair<Raven_Bot * const,MemoryRecord> >,0> >::_Insert_nohint<std::pair<Raven_Bot * const,MemoryRecord> &,std::_Tree_node<std::pair<Raven_Bot * const,MemoryRecord>,void *> *>
PUBLIC	??$?0U_Exact_args_t@std@@$0A@@?$tuple@$$V@std@@QAE@U_Exact_args_t@1@@Z ; std::tuple<>::tuple<><std::_Exact_args_t,0>
PUBLIC	??$?0ABQAVRaven_Bot@@@?$_Tuple_val@ABQAVRaven_Bot@@@std@@QAE@ABQAVRaven_Bot@@@Z ; std::_Tuple_val<Raven_Bot * const &>::_Tuple_val<Raven_Bot * const &><Raven_Bot * const &>
PUBLIC	??$?0ABQAVRaven_Bot@@$$Z$$V@?$pair@QAVRaven_Bot@@VMemoryRecord@@@std@@QAE@Upiecewise_construct_t@1@V?$tuple@ABQAVRaven_Bot@@@1@V?$tuple@$$V@1@@Z ; std::pair<Raven_Bot * const,MemoryRecord>::pair<Raven_Bot * const,MemoryRecord><Raven_Bot * const &>
PUBLIC	??$_Buy_if_not_node@AAU?$pair@QAVRaven_Bot@@VMemoryRecord@@@std@@@?$_Tree@V?$_Tmap_traits@PAVRaven_Bot@@VMemoryRecord@@U?$less@PAVRaven_Bot@@@std@@V?$allocator@U?$pair@QAVRaven_Bot@@VMemoryRecord@@@std@@@4@$0A@@std@@@std@@IAEPAU?$_Tree_node@U?$pair@QAVRaven_Bot@@VMemoryRecord@@@std@@PAX@1@PAU21@AAU?$pair@QAVRaven_Bot@@VMemoryRecord@@@1@@Z ; std::_Tree<std::_Tmap_traits<Raven_Bot *,MemoryRecord,std::less<Raven_Bot *>,std::allocator<std::pair<Raven_Bot * const,MemoryRecord> >,0> >::_Buy_if_not_node<std::pair<Raven_Bot * const,MemoryRecord> &>
PUBLIC	??$?0V?$tuple@ABQAVRaven_Bot@@@std@@V?$tuple@$$V@1@$0A@$$Z$S@?$pair@QAVRaven_Bot@@VMemoryRecord@@@std@@QAE@AAV?$tuple@ABQAVRaven_Bot@@@1@AAV?$tuple@$$V@1@U?$integer_sequence@I$0A@@1@U?$integer_sequence@I$S@1@@Z ; std::pair<Raven_Bot * const,MemoryRecord>::pair<Raven_Bot * const,MemoryRecord><std::tuple<Raven_Bot * const &>,std::tuple<>,0>
PUBLIC	??$move@AAV?$tuple@ABQAVRaven_Bot@@@std@@@std@@YA$$QAV?$tuple@ABQAVRaven_Bot@@@0@AAV10@@Z ; std::move<std::tuple<Raven_Bot * const &> &>
PUBLIC	??$get@$0A@ABQAVRaven_Bot@@@std@@YAABQAVRaven_Bot@@$$QAV?$tuple@ABQAVRaven_Bot@@@0@@Z ; std::get<0,Raven_Bot * const &>
PUBLIC	??_7exception@std@@6B@				; std::exception::`vftable'
PUBLIC	??_C@_0BC@EOODALEL@Unknown?5exception@		; `string'
PUBLIC	??_C@_0BB@FCMFBGOM@invalid?5argument@		; `string'
PUBLIC	??_C@_02DKCKIIND@?$CFs@				; `string'
PUBLIC	??_C@_1CG@JNLFBNGN@?$AA?$CC?$AAi?$AAn?$AAv?$AAa?$AAl?$AAi?$AAd?$AA?5?$AAa?$AAr?$AAg?$AAu?$AAm?$AAe@ ; `string'
PUBLIC	??_C@_0BJ@LFDBABJJ@ITERATOR?5LIST?5CORRUPTED?$CB@ ; `string'
PUBLIC	??_C@_0GJ@DMCEMOMH@c?3?2program?5files?5?$CIx86?$CJ?2microsof@ ; `string'
PUBLIC	??_C@_1NC@HPHBFJCM@?$AAc?$AA?3?$AA?2?$AAp?$AAr?$AAo?$AAg?$AAr?$AAa?$AAm?$AA?5?$AAf?$AAi?$AAl?$AAe@ ; `string'
PUBLIC	??_C@_1EE@KLDMFDFL@?$AAs?$AAt?$AAd?$AA?3?$AA?3?$AA_?$AAI?$AAt?$AAe?$AAr?$AAa?$AAt?$AAo?$AAr?$AA_@ ; `string'
PUBLIC	??_C@_1DG@PLBPCAEM@?$AA?$CC?$AAI?$AAT?$AAE?$AAR?$AAA?$AAT?$AAO?$AAR?$AA?5?$AAL?$AAI?$AAS?$AAT?$AA?5@ ; `string'
PUBLIC	??_C@_0GJ@CAJJPMGE@c?3?2program?5files?5?$CIx86?$CJ?2microsof@ ; `string'
PUBLIC	??_C@_1NC@ICJKIMIP@?$AAc?$AA?3?$AA?2?$AAp?$AAr?$AAo?$AAg?$AAr?$AAa?$AAm?$AA?5?$AAf?$AAi?$AAl?$AAe@ ; `string'
PUBLIC	??_C@_1EK@NIFDJFDG@?$AAs?$AAt?$AAd?$AA?3?$AA?3?$AA_?$AAA?$AAd?$AAj?$AAu?$AAs?$AAt?$AA_?$AAm?$AAa@ ; `string'
PUBLIC	??_7runtime_error@std@@6B@			; std::runtime_error::`vftable'
PUBLIC	__TI2?AVruntime_error@std@@
PUBLIC	__CTA2?AVruntime_error@std@@
PUBLIC	??_R0?AVruntime_error@std@@@8			; std::runtime_error `RTTI Type Descriptor'
PUBLIC	__CT??_R0?AVruntime_error@std@@@8??0runtime_error@std@@QAE@ABV01@@Z12
PUBLIC	??_R0?AVexception@std@@@8			; std::exception `RTTI Type Descriptor'
PUBLIC	__CT??_R0?AVexception@std@@@8??0exception@std@@QAE@ABV01@@Z12
PUBLIC	??_C@_0DB@ENBCPNKO@cannot?5increment?5value?9initiali@ ; `string'
PUBLIC	??_C@_0GF@CDIONFB@c?3?2program?5files?5?$CIx86?$CJ?2microsof@ ; `string'
PUBLIC	??_C@_1MK@MDLCPFJD@?$AAc?$AA?3?$AA?2?$AAp?$AAr?$AAo?$AAg?$AAr?$AAa?$AAm?$AA?5?$AAf?$AAi?$AAl?$AAe@ ; `string'
PUBLIC	??_C@_1OE@NJHNFAGK@?$AAs?$AAt?$AAd?$AA?3?$AA?3?$AA_?$AAL?$AAi?$AAs?$AAt?$AA_?$AAc?$AAo?$AAn?$AAs@ ; `string'
PUBLIC	??_C@_1GG@JLMAGPNK@?$AA?$CC?$AAc?$AAa?$AAn?$AAn?$AAo?$AAt?$AA?5?$AAi?$AAn?$AAc?$AAr?$AAe?$AAm?$AAe@ ; `string'
PUBLIC	??_C@_0CD@PMFMCEG@cannot?5increment?5end?5list?5itera@ ; `string'
PUBLIC	??_C@_1EK@OKKCFDJN@?$AA?$CC?$AAc?$AAa?$AAn?$AAn?$AAo?$AAt?$AA?5?$AAi?$AAn?$AAc?$AAr?$AAe?$AAm?$AAe@ ; `string'
PUBLIC	??_C@_0DD@MBIHGLJE@cannot?5dereference?5value?9initia@ ; `string'
PUBLIC	??_C@_1OC@BFEHCKCD@?$AAs?$AAt?$AAd?$AA?3?$AA?3?$AA_?$AAL?$AAi?$AAs?$AAt?$AA_?$AAc?$AAo?$AAn?$AAs@ ; `string'
PUBLIC	??_C@_1GK@NKIMOCIG@?$AA?$CC?$AAc?$AAa?$AAn?$AAn?$AAo?$AAt?$AA?5?$AAd?$AAe?$AAr?$AAe?$AAf?$AAe?$AAr@ ; `string'
PUBLIC	??_C@_0CF@JCBFHMPL@cannot?5dereference?5end?5list?5ite@ ; `string'
PUBLIC	??_C@_1EO@CNEFBDCF@?$AA?$CC?$AAc?$AAa?$AAn?$AAn?$AAo?$AAt?$AA?5?$AAd?$AAe?$AAr?$AAe?$AAf?$AAe?$AAr@ ; `string'
PUBLIC	??_C@_0BP@OLDKBHLM@map?1set?5iterators?5incompatible@ ; `string'
PUBLIC	??_C@_0GG@KBILHLPB@c?3?2program?5files?5?$CIx86?$CJ?2microsof@ ; `string'
PUBLIC	??_C@_1MM@ECCNBGLC@?$AAc?$AA?3?$AA?2?$AAp?$AAr?$AAo?$AAg?$AAr?$AAa?$AAm?$AA?5?$AAf?$AAi?$AAl?$AAe@ ; `string'
PUBLIC	??_C@_1BDM@OEEPLJFA@?$AAs?$AAt?$AAd?$AA?3?$AA?3?$AA_?$AAT?$AAr?$AAe?$AAe?$AA_?$AAc?$AAo?$AAn?$AAs@ ; `string'
PUBLIC	??_C@_1EC@JLIDLCDH@?$AA?$CC?$AAm?$AAa?$AAp?$AA?1?$AAs?$AAe?$AAt?$AA?5?$AAi?$AAt?$AAe?$AAr?$AAa?$AAt@ ; `string'
PUBLIC	??_C@_0DE@DMNPKCGM@cannot?5increment?5value?9initiali@ ; `string'
PUBLIC	??_C@_1BDM@EELCFAJF@?$AAs?$AAt?$AAd?$AA?3?$AA?3?$AA_?$AAT?$AAr?$AAe?$AAe?$AA_?$AAc?$AAo?$AAn?$AAs@ ; `string'
PUBLIC	??_C@_1GM@BJMCGEGI@?$AA?$CC?$AAc?$AAa?$AAn?$AAn?$AAo?$AAt?$AA?5?$AAi?$AAn?$AAc?$AAr?$AAe?$AAm?$AAe@ ; `string'
PUBLIC	??_C@_0CG@NLEHEOHN@cannot?5increment?5end?5map?1set?5it@ ; `string'
PUBLIC	??_C@_1FA@KLFCDGNE@?$AA?$CC?$AAc?$AAa?$AAn?$AAn?$AAo?$AAt?$AA?5?$AAi?$AAn?$AAc?$AAr?$AAe?$AAm?$AAe@ ; `string'
PUBLIC	?id@?$codecvt@DDU_Mbstatet@@@std@@2V0locale@2@A	; std::codecvt<char,char,_Mbstatet>::id
PUBLIC	??_C@_0BM@BALDKKHE@list?5iterators?5incompatible@ ; `string'
PUBLIC	??_C@_1OE@HJIALJKP@?$AAs?$AAt?$AAd?$AA?3?$AA?3?$AA_?$AAL?$AAi?$AAs?$AAt?$AA_?$AAc?$AAo?$AAn?$AAs@ ; `string'
PUBLIC	??_C@_1DM@KDLJAKOP@?$AA?$CC?$AAl?$AAi?$AAs?$AAt?$AA?5?$AAi?$AAt?$AAe?$AAr?$AAa?$AAt?$AAo?$AAr?$AAs@ ; `string'
PUBLIC	??_C@_0DG@LCFNIIPB@cannot?5dereference?5value?9initia@ ; `string'
PUBLIC	??_C@_1BDK@NFAHMLDD@?$AAs?$AAt?$AAd?$AA?3?$AA?3?$AA_?$AAT?$AAr?$AAe?$AAe?$AA_?$AAc?$AAo?$AAn?$AAs@ ; `string'
PUBLIC	??_C@_1HA@ILGCNILF@?$AA?$CC?$AAc?$AAa?$AAn?$AAn?$AAo?$AAt?$AA?5?$AAd?$AAe?$AAr?$AAe?$AAf?$AAe?$AAr@ ; `string'
PUBLIC	??_C@_0CI@OKFEHCEB@cannot?5dereference?5end?5map?1set?5@ ; `string'
PUBLIC	??_C@_1FE@NKHAAGMB@?$AA?$CC?$AAc?$AAa?$AAn?$AAn?$AAo?$AAt?$AA?5?$AAd?$AAe?$AAr?$AAe?$AAf?$AAe?$AAr@ ; `string'
PUBLIC	??_C@_0CF@JILFNJOL@map?1set?5erase?5iterator?5outside?5@ ; `string'
PUBLIC	??_C@_1BJI@JEIENIGJ@?$AAs?$AAt?$AAd?$AA?3?$AA?3?$AA_?$AAT?$AAr?$AAe?$AAe?$AA?$DM?$AAc?$AAl?$AAa?$AAs@ ; `string'
PUBLIC	??_C@_1EO@CEDAEPC@?$AA?$CC?$AAm?$AAa?$AAp?$AA?1?$AAs?$AAe?$AAt?$AA?5?$AAe?$AAr?$AAa?$AAs?$AAe?$AA?5@ ; `string'
PUBLIC	??_C@_1PC@PKMDLKP@?$AAs?$AAt?$AAd?$AA?3?$AA?3?$AA_?$AAT?$AAr?$AAe?$AAe?$AA_?$AAv?$AAa?$AAl?$AA?$DM@ ; `string'
PUBLIC	??_C@_0BD@FEEMDEPI@invalid?5comparator@		; `string'
PUBLIC	??_C@_1CI@JONCLBEJ@?$AAs?$AAt?$AAd?$AA?3?$AA?3?$AA_?$AAD?$AAe?$AAb?$AAu?$AAg?$AA_?$AAl?$AAt?$AA_@ ; `string'
PUBLIC	??_C@_1CK@NDNHPKPI@?$AA?$CC?$AAi?$AAn?$AAv?$AAa?$AAl?$AAi?$AAd?$AA?5?$AAc?$AAo?$AAm?$AAp?$AAa?$AAr@ ; `string'
PUBLIC	?id@?$num_get@DV?$istreambuf_iterator@DU?$char_traits@D@std@@@std@@@std@@2V0locale@2@A ; std::num_get<char,std::istreambuf_iterator<char,std::char_traits<char> > >::id
PUBLIC	?id@?$numpunct@D@std@@2V0locale@2@A		; std::numpunct<char>::id
PUBLIC	??_C@_0BB@MOGOBHAF@list?$DMT?$DO?5too?5long@	; `string'
PUBLIC	??_C@_1EO@GFNCMDLA@?$AAs?$AAt?$AAd?$AA?3?$AA?3?$AA_?$AAA?$AAl?$AAl?$AAo?$AAc?$AAa?$AAt?$AAe?$AA_@ ; `string'
PUBLIC	??_C@_0CG@MOLIBF@map?1set?5insert?5iterator?5outside@ ; `string'
PUBLIC	??_C@_1BKG@FHGKCPAM@?$AAs?$AAt?$AAd?$AA?3?$AA?3?$AA_?$AAT?$AAr?$AAe?$AAe?$AA?$DM?$AAc?$AAl?$AAa?$AAs@ ; `string'
PUBLIC	??_C@_1FA@HNFOKDLB@?$AA?$CC?$AAm?$AAa?$AAp?$AA?1?$AAs?$AAe?$AAt?$AA?5?$AAi?$AAn?$AAs?$AAe?$AAr?$AAt@ ; `string'
PUBLIC	??_C@_0DE@JECMPNID@cannot?5decrement?5value?9initiali@ ; `string'
PUBLIC	??_C@_1BDM@LHIAOMFE@?$AAs?$AAt?$AAd?$AA?3?$AA?3?$AA_?$AAT?$AAr?$AAe?$AAe?$AA_?$AAc?$AAo?$AAn?$AAs@ ; `string'
PUBLIC	??_C@_1GM@ECOECPCJ@?$AA?$CC?$AAc?$AAa?$AAn?$AAn?$AAo?$AAt?$AA?5?$AAd?$AAe?$AAc?$AAr?$AAe?$AAm?$AAe@ ; `string'
PUBLIC	??_C@_0CI@FJCIBNID@cannot?5decrement?5begin?5map?1set?5@ ; `string'
PUBLIC	??_C@_1FE@HAEBNAIH@?$AA?$CC?$AAc?$AAa?$AAn?$AAn?$AAo?$AAt?$AA?5?$AAd?$AAe?$AAc?$AAr?$AAe?$AAm?$AAe@ ; `string'
PUBLIC	??_C@_0BE@JONHPENG@map?1set?$DMT?$DO?5too?5long@ ; `string'
PUBLIC	??_R4exception@std@@6B@				; std::exception::`RTTI Complete Object Locator'
PUBLIC	??_R3exception@std@@8				; std::exception::`RTTI Class Hierarchy Descriptor'
PUBLIC	??_R2exception@std@@8				; std::exception::`RTTI Base Class Array'
PUBLIC	??_R1A@?0A@EA@exception@std@@8			; std::exception::`RTTI Base Class Descriptor at (0,-1,0,64)'
PUBLIC	??_R4runtime_error@std@@6B@			; std::runtime_error::`RTTI Complete Object Locator'
PUBLIC	??_R3runtime_error@std@@8			; std::runtime_error::`RTTI Class Hierarchy Descriptor'
PUBLIC	??_R2runtime_error@std@@8			; std::runtime_error::`RTTI Base Class Array'
PUBLIC	??_R1A@?0A@EA@runtime_error@std@@8		; std::runtime_error::`RTTI Base Class Descriptor at (0,-1,0,64)'
PUBLIC	__real@0010000000000000
PUBLIC	__real@00800000
PUBLIC	__real@3cb0000000000000
PUBLIC	__real@3f50624dd2f1a9fc
PUBLIC	__real@4000000000000000
PUBLIC	__real@7f7fffff
PUBLIC	__real@7fefffffffffffff
PUBLIC	__real@c08f380000000000
PUBLIC	__xmm@41f00000000000000000000000000000
EXTRN	??2@YAPAXI@Z:PROC				; operator new
EXTRN	??3@YAXPAXI@Z:PROC				; operator delete
EXTRN	__invalid_parameter:PROC
EXTRN	__CrtDbgReport:PROC
EXTRN	??0_Lockit@std@@QAE@H@Z:PROC			; std::_Lockit::_Lockit
EXTRN	??1_Lockit@std@@QAE@XZ:PROC			; std::_Lockit::~_Lockit
EXTRN	_cos:PROC
EXTRN	_sqrt:PROC
EXTRN	___std_exception_copy:PROC
EXTRN	___std_exception_destroy:PROC
EXTRN	??_Eexception@std@@UAEPAXI@Z:PROC		; std::exception::`vector deleting destructor'
EXTRN	?_Xlength_error@std@@YAXPBD@Z:PROC		; std::_Xlength_error
EXTRN	??_Eruntime_error@std@@UAEPAXI@Z:PROC		; std::runtime_error::`vector deleting destructor'
EXTRN	__imp__LineTo@12:PROC
EXTRN	__imp__SelectObject@8:PROC
EXTRN	__imp__MoveToEx@16:PROC
EXTRN	__imp__timeGetTime@0:PROC
EXTRN	?Instance@Cgdi@@SAPAV1@XZ:PROC			; Cgdi::Instance
EXTRN	?isLOSOkay@Raven_Game@@QBE_NUVector2D@@0@Z:PROC	; Raven_Game::isLOSOkay
EXTRN	?Instance@CrudeTimer@@SAPAV1@XZ:PROC		; CrudeTimer::Instance
EXTRN	@_RTC_CheckStackVars@8:PROC
EXTRN	@__security_check_cookie@4:PROC
EXTRN	__CxxThrowException@8:PROC
EXTRN	__RTC_CheckEsp:PROC
EXTRN	__RTC_InitBase:PROC
EXTRN	__RTC_Shutdown:PROC
EXTRN	___CxxFrameHandler3:PROC
EXTRN	??_7type_info@@6B@:QWORD			; type_info::`vftable'
EXTRN	___security_cookie:DWORD
EXTRN	__fltused:DWORD
_BSS	SEGMENT
?MaxInt@@3HB DD	01H DUP (?)				; MaxInt
	ALIGN	8

?MaxDouble@@3NB DQ 01H DUP (?)				; MaxDouble
?MinDouble@@3NB DQ 01H DUP (?)				; MinDouble
?MaxFloat@@3MB DD 01H DUP (?)				; MaxFloat
?MinFloat@@3MB DD 01H DUP (?)				; MinFloat
_BSS	ENDS
;	COMDAT ?id@?$codecvt@DDU_Mbstatet@@@std@@2V0locale@2@A
_BSS	SEGMENT
?id@?$codecvt@DDU_Mbstatet@@@std@@2V0locale@2@A DD 01H DUP (?) ; std::codecvt<char,char,_Mbstatet>::id
_BSS	ENDS
;	COMDAT ?id@?$num_get@DV?$istreambuf_iterator@DU?$char_traits@D@std@@@std@@@std@@2V0locale@2@A
_BSS	SEGMENT
?id@?$num_get@DV?$istreambuf_iterator@DU?$char_traits@D@std@@@std@@@std@@2V0locale@2@A DD 01H DUP (?) ; std::num_get<char,std::istreambuf_iterator<char,std::char_traits<char> > >::id
_BSS	ENDS
;	COMDAT ?id@?$numpunct@D@std@@2V0locale@2@A
_BSS	SEGMENT
?id@?$numpunct@D@std@@2V0locale@2@A DD 01H DUP (?)	; std::numpunct<char>::id
_BSS	ENDS
CRT$XCU	SEGMENT
?MaxInt$initializer$@@3P6AXXZA DD FLAT:??__EMaxInt@@YAXXZ ; MaxInt$initializer$
CRT$XCU	ENDS
;	COMDAT __xmm@41f00000000000000000000000000000
CONST	SEGMENT
__xmm@41f00000000000000000000000000000 DB 00H, 00H, 00H, 00H, 00H, 00H, 00H
	DB	00H, 00H, 00H, 00H, 00H, 00H, 00H, 0f0H, 'A'
CONST	ENDS
;	COMDAT __real@c08f380000000000
CONST	SEGMENT
__real@c08f380000000000 DQ 0c08f380000000000r	; -999
CONST	ENDS
;	COMDAT __real@7fefffffffffffff
CONST	SEGMENT
__real@7fefffffffffffff DQ 07fefffffffffffffr	; 1.79769e+308
CONST	ENDS
;	COMDAT __real@7f7fffff
CONST	SEGMENT
__real@7f7fffff DD 07f7fffffr			; 3.40282e+38
CONST	ENDS
;	COMDAT __real@4000000000000000
CONST	SEGMENT
__real@4000000000000000 DQ 04000000000000000r	; 2
CONST	ENDS
;	COMDAT __real@3f50624dd2f1a9fc
CONST	SEGMENT
__real@3f50624dd2f1a9fc DQ 03f50624dd2f1a9fcr	; 0.001
CONST	ENDS
;	COMDAT __real@3cb0000000000000
CONST	SEGMENT
__real@3cb0000000000000 DQ 03cb0000000000000r	; 2.22045e-16
CONST	ENDS
;	COMDAT __real@00800000
CONST	SEGMENT
__real@00800000 DD 000800000r			; 1.17549e-38
CONST	ENDS
;	COMDAT __real@0010000000000000
CONST	SEGMENT
__real@0010000000000000 DQ 00010000000000000r	; 2.22507e-308
CONST	ENDS
;	COMDAT rtc$TMZ
rtc$TMZ	SEGMENT
__RTC_Shutdown.rtc$TMZ DD FLAT:__RTC_Shutdown
rtc$TMZ	ENDS
;	COMDAT rtc$IMZ
rtc$IMZ	SEGMENT
__RTC_InitBase.rtc$IMZ DD FLAT:__RTC_InitBase
rtc$IMZ	ENDS
;	COMDAT ??_R1A@?0A@EA@runtime_error@std@@8
rdata$r	SEGMENT
??_R1A@?0A@EA@runtime_error@std@@8 DD FLAT:??_R0?AVruntime_error@std@@@8 ; std::runtime_error::`RTTI Base Class Descriptor at (0,-1,0,64)'
	DD	01H
	DD	00H
	DD	0ffffffffH
	DD	00H
	DD	040H
	DD	FLAT:??_R3runtime_error@std@@8
rdata$r	ENDS
;	COMDAT ??_R2runtime_error@std@@8
rdata$r	SEGMENT
??_R2runtime_error@std@@8 DD FLAT:??_R1A@?0A@EA@runtime_error@std@@8 ; std::runtime_error::`RTTI Base Class Array'
	DD	FLAT:??_R1A@?0A@EA@exception@std@@8
rdata$r	ENDS
;	COMDAT ??_R3runtime_error@std@@8
rdata$r	SEGMENT
??_R3runtime_error@std@@8 DD 00H			; std::runtime_error::`RTTI Class Hierarchy Descriptor'
	DD	00H
	DD	02H
	DD	FLAT:??_R2runtime_error@std@@8
rdata$r	ENDS
;	COMDAT ??_R4runtime_error@std@@6B@
rdata$r	SEGMENT
??_R4runtime_error@std@@6B@ DD 00H			; std::runtime_error::`RTTI Complete Object Locator'
	DD	00H
	DD	00H
	DD	FLAT:??_R0?AVruntime_error@std@@@8
	DD	FLAT:??_R3runtime_error@std@@8
rdata$r	ENDS
;	COMDAT ??_R1A@?0A@EA@exception@std@@8
rdata$r	SEGMENT
??_R1A@?0A@EA@exception@std@@8 DD FLAT:??_R0?AVexception@std@@@8 ; std::exception::`RTTI Base Class Descriptor at (0,-1,0,64)'
	DD	00H
	DD	00H
	DD	0ffffffffH
	DD	00H
	DD	040H
	DD	FLAT:??_R3exception@std@@8
rdata$r	ENDS
;	COMDAT ??_R2exception@std@@8
rdata$r	SEGMENT
??_R2exception@std@@8 DD FLAT:??_R1A@?0A@EA@exception@std@@8 ; std::exception::`RTTI Base Class Array'
rdata$r	ENDS
;	COMDAT ??_R3exception@std@@8
rdata$r	SEGMENT
??_R3exception@std@@8 DD 00H				; std::exception::`RTTI Class Hierarchy Descriptor'
	DD	00H
	DD	01H
	DD	FLAT:??_R2exception@std@@8
rdata$r	ENDS
;	COMDAT ??_R4exception@std@@6B@
rdata$r	SEGMENT
??_R4exception@std@@6B@ DD 00H				; std::exception::`RTTI Complete Object Locator'
	DD	00H
	DD	00H
	DD	FLAT:??_R0?AVexception@std@@@8
	DD	FLAT:??_R3exception@std@@8
rdata$r	ENDS
;	COMDAT ??_C@_0BE@JONHPENG@map?1set?$DMT?$DO?5too?5long@
CONST	SEGMENT
??_C@_0BE@JONHPENG@map?1set?$DMT?$DO?5too?5long@ DB 'map/set<T> too long', 00H ; `string'
CONST	ENDS
;	COMDAT ??_C@_1FE@HAEBNAIH@?$AA?$CC?$AAc?$AAa?$AAn?$AAn?$AAo?$AAt?$AA?5?$AAd?$AAe?$AAc?$AAr?$AAe?$AAm?$AAe@
CONST	SEGMENT
??_C@_1FE@HAEBNAIH@?$AA?$CC?$AAc?$AAa?$AAn?$AAn?$AAo?$AAt?$AA?5?$AAd?$AAe?$AAc?$AAr?$AAe?$AAm?$AAe@ DB '"'
	DB	00H, 'c', 00H, 'a', 00H, 'n', 00H, 'n', 00H, 'o', 00H, 't', 00H
	DB	' ', 00H, 'd', 00H, 'e', 00H, 'c', 00H, 'r', 00H, 'e', 00H, 'm'
	DB	00H, 'e', 00H, 'n', 00H, 't', 00H, ' ', 00H, 'b', 00H, 'e', 00H
	DB	'g', 00H, 'i', 00H, 'n', 00H, ' ', 00H, 'm', 00H, 'a', 00H, 'p'
	DB	00H, '/', 00H, 's', 00H, 'e', 00H, 't', 00H, ' ', 00H, 'i', 00H
	DB	't', 00H, 'e', 00H, 'r', 00H, 'a', 00H, 't', 00H, 'o', 00H, 'r'
	DB	00H, '"', 00H, 00H, 00H			; `string'
CONST	ENDS
;	COMDAT ??_C@_0CI@FJCIBNID@cannot?5decrement?5begin?5map?1set?5@
CONST	SEGMENT
??_C@_0CI@FJCIBNID@cannot?5decrement?5begin?5map?1set?5@ DB 'cannot decre'
	DB	'ment begin map/set iterator', 00H		; `string'
CONST	ENDS
;	COMDAT ??_C@_1GM@ECOECPCJ@?$AA?$CC?$AAc?$AAa?$AAn?$AAn?$AAo?$AAt?$AA?5?$AAd?$AAe?$AAc?$AAr?$AAe?$AAm?$AAe@
CONST	SEGMENT
??_C@_1GM@ECOECPCJ@?$AA?$CC?$AAc?$AAa?$AAn?$AAn?$AAo?$AAt?$AA?5?$AAd?$AAe?$AAc?$AAr?$AAe?$AAm?$AAe@ DB '"'
	DB	00H, 'c', 00H, 'a', 00H, 'n', 00H, 'n', 00H, 'o', 00H, 't', 00H
	DB	' ', 00H, 'd', 00H, 'e', 00H, 'c', 00H, 'r', 00H, 'e', 00H, 'm'
	DB	00H, 'e', 00H, 'n', 00H, 't', 00H, ' ', 00H, 'v', 00H, 'a', 00H
	DB	'l', 00H, 'u', 00H, 'e', 00H, '-', 00H, 'i', 00H, 'n', 00H, 'i'
	DB	00H, 't', 00H, 'i', 00H, 'a', 00H, 'l', 00H, 'i', 00H, 'z', 00H
	DB	'e', 00H, 'd', 00H, ' ', 00H, 'm', 00H, 'a', 00H, 'p', 00H, '/'
	DB	00H, 's', 00H, 'e', 00H, 't', 00H, ' ', 00H, 'i', 00H, 't', 00H
	DB	'e', 00H, 'r', 00H, 'a', 00H, 't', 00H, 'o', 00H, 'r', 00H, '"'
	DB	00H, 00H, 00H				; `string'
CONST	ENDS
;	COMDAT ??_C@_1BDM@LHIAOMFE@?$AAs?$AAt?$AAd?$AA?3?$AA?3?$AA_?$AAT?$AAr?$AAe?$AAe?$AA_?$AAc?$AAo?$AAn?$AAs@
CONST	SEGMENT
??_C@_1BDM@LHIAOMFE@?$AAs?$AAt?$AAd?$AA?3?$AA?3?$AA_?$AAT?$AAr?$AAe?$AAe?$AA_?$AAc?$AAo?$AAn?$AAs@ DB 's'
	DB	00H, 't', 00H, 'd', 00H, ':', 00H, ':', 00H, '_', 00H, 'T', 00H
	DB	'r', 00H, 'e', 00H, 'e', 00H, '_', 00H, 'c', 00H, 'o', 00H, 'n'
	DB	00H, 's', 00H, 't', 00H, '_', 00H, 'i', 00H, 't', 00H, 'e', 00H
	DB	'r', 00H, 'a', 00H, 't', 00H, 'o', 00H, 'r', 00H, '<', 00H, 'c'
	DB	00H, 'l', 00H, 'a', 00H, 's', 00H, 's', 00H, ' ', 00H, 's', 00H
	DB	't', 00H, 'd', 00H, ':', 00H, ':', 00H, '_', 00H, 'T', 00H, 'r'
	DB	00H, 'e', 00H, 'e', 00H, '_', 00H, 'v', 00H, 'a', 00H, 'l', 00H
	DB	'<', 00H, 's', 00H, 't', 00H, 'r', 00H, 'u', 00H, 'c', 00H, 't'
	DB	00H, ' ', 00H, 's', 00H, 't', 00H, 'd', 00H, ':', 00H, ':', 00H
	DB	'_', 00H, 'T', 00H, 'r', 00H, 'e', 00H, 'e', 00H, '_', 00H, 's'
	DB	00H, 'i', 00H, 'm', 00H, 'p', 00H, 'l', 00H, 'e', 00H, '_', 00H
	DB	't', 00H, 'y', 00H, 'p', 00H, 'e', 00H, 's', 00H, '<', 00H, 's'
	DB	00H, 't', 00H, 'r', 00H, 'u', 00H, 'c', 00H, 't', 00H, ' ', 00H
	DB	's', 00H, 't', 00H, 'd', 00H, ':', 00H, ':', 00H, 'p', 00H, 'a'
	DB	00H, 'i', 00H, 'r', 00H, '<', 00H, 'c', 00H, 'l', 00H, 'a', 00H
	DB	's', 00H, 's', 00H, ' ', 00H, 'R', 00H, 'a', 00H, 'v', 00H, 'e'
	DB	00H, 'n', 00H, '_', 00H, 'B', 00H, 'o', 00H, 't', 00H, ' ', 00H
	DB	'*', 00H, ' ', 00H, 'c', 00H, 'o', 00H, 'n', 00H, 's', 00H, 't'
	DB	00H, ',', 00H, 'c', 00H, 'l', 00H, 'a', 00H, 's', 00H, 's', 00H
	DB	' ', 00H, 'M', 00H, 'e', 00H, 'm', 00H, 'o', 00H, 'r', 00H, 'y'
	DB	00H, 'R', 00H, 'e', 00H, 'c', 00H, 'o', 00H, 'r', 00H, 'd', 00H
	DB	'>', 00H, ' ', 00H, '>', 00H, ' ', 00H, '>', 00H, ' ', 00H, '>'
	DB	00H, ':', 00H, ':', 00H, 'o', 00H, 'p', 00H, 'e', 00H, 'r', 00H
	DB	'a', 00H, 't', 00H, 'o', 00H, 'r', 00H, ' ', 00H, '-', 00H, '-'
	DB	00H, 00H, 00H				; `string'
CONST	ENDS
;	COMDAT ??_C@_0DE@JECMPNID@cannot?5decrement?5value?9initiali@
CONST	SEGMENT
??_C@_0DE@JECMPNID@cannot?5decrement?5value?9initiali@ DB 'cannot decreme'
	DB	'nt value-initialized map/set iterator', 00H	; `string'
CONST	ENDS
;	COMDAT ??_C@_1FA@HNFOKDLB@?$AA?$CC?$AAm?$AAa?$AAp?$AA?1?$AAs?$AAe?$AAt?$AA?5?$AAi?$AAn?$AAs?$AAe?$AAr?$AAt@
CONST	SEGMENT
??_C@_1FA@HNFOKDLB@?$AA?$CC?$AAm?$AAa?$AAp?$AA?1?$AAs?$AAe?$AAt?$AA?5?$AAi?$AAn?$AAs?$AAe?$AAr?$AAt@ DB '"'
	DB	00H, 'm', 00H, 'a', 00H, 'p', 00H, '/', 00H, 's', 00H, 'e', 00H
	DB	't', 00H, ' ', 00H, 'i', 00H, 'n', 00H, 's', 00H, 'e', 00H, 'r'
	DB	00H, 't', 00H, ' ', 00H, 'i', 00H, 't', 00H, 'e', 00H, 'r', 00H
	DB	'a', 00H, 't', 00H, 'o', 00H, 'r', 00H, ' ', 00H, 'o', 00H, 'u'
	DB	00H, 't', 00H, 's', 00H, 'i', 00H, 'd', 00H, 'e', 00H, ' ', 00H
	DB	'r', 00H, 'a', 00H, 'n', 00H, 'g', 00H, 'e', 00H, '"', 00H, 00H
	DB	00H						; `string'
CONST	ENDS
;	COMDAT ??_C@_1BKG@FHGKCPAM@?$AAs?$AAt?$AAd?$AA?3?$AA?3?$AA_?$AAT?$AAr?$AAe?$AAe?$AA?$DM?$AAc?$AAl?$AAa?$AAs@
CONST	SEGMENT
??_C@_1BKG@FHGKCPAM@?$AAs?$AAt?$AAd?$AA?3?$AA?3?$AA_?$AAT?$AAr?$AAe?$AAe?$AA?$DM?$AAc?$AAl?$AAa?$AAs@ DB 's'
	DB	00H, 't', 00H, 'd', 00H, ':', 00H, ':', 00H, '_', 00H, 'T', 00H
	DB	'r', 00H, 'e', 00H, 'e', 00H, '<', 00H, 'c', 00H, 'l', 00H, 'a'
	DB	00H, 's', 00H, 's', 00H, ' ', 00H, 's', 00H, 't', 00H, 'd', 00H
	DB	':', 00H, ':', 00H, '_', 00H, 'T', 00H, 'm', 00H, 'a', 00H, 'p'
	DB	00H, '_', 00H, 't', 00H, 'r', 00H, 'a', 00H, 'i', 00H, 't', 00H
	DB	's', 00H, '<', 00H, 'c', 00H, 'l', 00H, 'a', 00H, 's', 00H, 's'
	DB	00H, ' ', 00H, 'R', 00H, 'a', 00H, 'v', 00H, 'e', 00H, 'n', 00H
	DB	'_', 00H, 'B', 00H, 'o', 00H, 't', 00H, ' ', 00H, '*', 00H, ','
	DB	00H, 'c', 00H, 'l', 00H, 'a', 00H, 's', 00H, 's', 00H, ' ', 00H
	DB	'M', 00H, 'e', 00H, 'm', 00H, 'o', 00H, 'r', 00H, 'y', 00H, 'R'
	DB	00H, 'e', 00H, 'c', 00H, 'o', 00H, 'r', 00H, 'd', 00H, ',', 00H
	DB	's', 00H, 't', 00H, 'r', 00H, 'u', 00H, 'c', 00H, 't', 00H, ' '
	DB	00H, 's', 00H, 't', 00H, 'd', 00H, ':', 00H, ':', 00H, 'l', 00H
	DB	'e', 00H, 's', 00H, 's', 00H, '<', 00H, 'c', 00H, 'l', 00H, 'a'
	DB	00H, 's', 00H, 's', 00H, ' ', 00H, 'R', 00H, 'a', 00H, 'v', 00H
	DB	'e', 00H, 'n', 00H, '_', 00H, 'B', 00H, 'o', 00H, 't', 00H, ' '
	DB	00H, '*', 00H, '>', 00H, ',', 00H, 'c', 00H, 'l', 00H, 'a', 00H
	DB	's', 00H, 's', 00H, ' ', 00H, 's', 00H, 't', 00H, 'd', 00H, ':'
	DB	00H, ':', 00H, 'a', 00H, 'l', 00H, 'l', 00H, 'o', 00H, 'c', 00H
	DB	'a', 00H, 't', 00H, 'o', 00H, 'r', 00H, '<', 00H, 's', 00H, 't'
	DB	00H, 'r', 00H, 'u', 00H, 'c', 00H, 't', 00H, ' ', 00H, 's', 00H
	DB	't', 00H, 'd', 00H, ':', 00H, ':', 00H, 'p', 00H, 'a', 00H, 'i'
	DB	00H, 'r', 00H, '<', 00H, 'c', 00H, 'l', 00H, 'a', 00H, 's', 00H
	DB	's', 00H, ' ', 00H, 'R', 00H, 'a', 00H, 'v', 00H, 'e', 00H, 'n'
	DB	00H, '_', 00H, 'B', 00H, 'o', 00H, 't', 00H, ' ', 00H, '*', 00H
	DB	' ', 00H, 'c', 00H, 'o', 00H, 'n', 00H, 's', 00H, 't', 00H, ','
	DB	00H, 'c', 00H, 'l', 00H, 'a', 00H, 's', 00H, 's', 00H, ' ', 00H
	DB	'M', 00H, 'e', 00H, 'm', 00H, 'o', 00H, 'r', 00H, 'y', 00H, 'R'
	DB	00H, 'e', 00H, 'c', 00H, 'o', 00H, 'r', 00H, 'd', 00H, '>', 00H
	DB	' ', 00H, '>', 00H, ',', 00H, '0', 00H, '>', 00H, ' ', 00H, '>'
	DB	00H, ':', 00H, ':', 00H, '_', 00H, 'I', 00H, 'n', 00H, 's', 00H
	DB	'e', 00H, 'r', 00H, 't', 00H, '_', 00H, 'h', 00H, 'i', 00H, 'n'
	DB	00H, 't', 00H, 00H, 00H			; `string'
CONST	ENDS
;	COMDAT ??_C@_0CG@MOLIBF@map?1set?5insert?5iterator?5outside@
CONST	SEGMENT
??_C@_0CG@MOLIBF@map?1set?5insert?5iterator?5outside@ DB 'map/set insert '
	DB	'iterator outside range', 00H		; `string'
CONST	ENDS
;	COMDAT ??_C@_1EO@GFNCMDLA@?$AAs?$AAt?$AAd?$AA?3?$AA?3?$AA_?$AAA?$AAl?$AAl?$AAo?$AAc?$AAa?$AAt?$AAe?$AA_@
CONST	SEGMENT
??_C@_1EO@GFNCMDLA@?$AAs?$AAt?$AAd?$AA?3?$AA?3?$AA_?$AAA?$AAl?$AAl?$AAo?$AAc?$AAa?$AAt?$AAe?$AA_@ DB 's'
	DB	00H, 't', 00H, 'd', 00H, ':', 00H, ':', 00H, '_', 00H, 'A', 00H
	DB	'l', 00H, 'l', 00H, 'o', 00H, 'c', 00H, 'a', 00H, 't', 00H, 'e'
	DB	00H, '_', 00H, 'm', 00H, 'a', 00H, 'n', 00H, 'u', 00H, 'a', 00H
	DB	'l', 00H, 'l', 00H, 'y', 00H, '_', 00H, 'v', 00H, 'e', 00H, 'c'
	DB	00H, 't', 00H, 'o', 00H, 'r', 00H, '_', 00H, 'a', 00H, 'l', 00H
	DB	'i', 00H, 'g', 00H, 'n', 00H, 'e', 00H, 'd', 00H, 00H, 00H ; `string'
CONST	ENDS
;	COMDAT ??_C@_0BB@MOGOBHAF@list?$DMT?$DO?5too?5long@
CONST	SEGMENT
??_C@_0BB@MOGOBHAF@list?$DMT?$DO?5too?5long@ DB 'list<T> too long', 00H ; `string'
CONST	ENDS
;	COMDAT ??_C@_1CK@NDNHPKPI@?$AA?$CC?$AAi?$AAn?$AAv?$AAa?$AAl?$AAi?$AAd?$AA?5?$AAc?$AAo?$AAm?$AAp?$AAa?$AAr@
CONST	SEGMENT
??_C@_1CK@NDNHPKPI@?$AA?$CC?$AAi?$AAn?$AAv?$AAa?$AAl?$AAi?$AAd?$AA?5?$AAc?$AAo?$AAm?$AAp?$AAa?$AAr@ DB '"'
	DB	00H, 'i', 00H, 'n', 00H, 'v', 00H, 'a', 00H, 'l', 00H, 'i', 00H
	DB	'd', 00H, ' ', 00H, 'c', 00H, 'o', 00H, 'm', 00H, 'p', 00H, 'a'
	DB	00H, 'r', 00H, 'a', 00H, 't', 00H, 'o', 00H, 'r', 00H, '"', 00H
	DB	00H, 00H					; `string'
CONST	ENDS
;	COMDAT ??_C@_1CI@JONCLBEJ@?$AAs?$AAt?$AAd?$AA?3?$AA?3?$AA_?$AAD?$AAe?$AAb?$AAu?$AAg?$AA_?$AAl?$AAt?$AA_@
CONST	SEGMENT
??_C@_1CI@JONCLBEJ@?$AAs?$AAt?$AAd?$AA?3?$AA?3?$AA_?$AAD?$AAe?$AAb?$AAu?$AAg?$AA_?$AAl?$AAt?$AA_@ DB 's'
	DB	00H, 't', 00H, 'd', 00H, ':', 00H, ':', 00H, '_', 00H, 'D', 00H
	DB	'e', 00H, 'b', 00H, 'u', 00H, 'g', 00H, '_', 00H, 'l', 00H, 't'
	DB	00H, '_', 00H, 'p', 00H, 'r', 00H, 'e', 00H, 'd', 00H, 00H, 00H ; `string'
CONST	ENDS
;	COMDAT ??_C@_0BD@FEEMDEPI@invalid?5comparator@
CONST	SEGMENT
??_C@_0BD@FEEMDEPI@invalid?5comparator@ DB 'invalid comparator', 00H ; `string'
CONST	ENDS
;	COMDAT ??_C@_1PC@PKMDLKP@?$AAs?$AAt?$AAd?$AA?3?$AA?3?$AA_?$AAT?$AAr?$AAe?$AAe?$AA_?$AAv?$AAa?$AAl?$AA?$DM@
CONST	SEGMENT
??_C@_1PC@PKMDLKP@?$AAs?$AAt?$AAd?$AA?3?$AA?3?$AA_?$AAT?$AAr?$AAe?$AAe?$AA_?$AAv?$AAa?$AAl?$AA?$DM@ DB 's'
	DB	00H, 't', 00H, 'd', 00H, ':', 00H, ':', 00H, '_', 00H, 'T', 00H
	DB	'r', 00H, 'e', 00H, 'e', 00H, '_', 00H, 'v', 00H, 'a', 00H, 'l'
	DB	00H, '<', 00H, 's', 00H, 't', 00H, 'r', 00H, 'u', 00H, 'c', 00H
	DB	't', 00H, ' ', 00H, 's', 00H, 't', 00H, 'd', 00H, ':', 00H, ':'
	DB	00H, '_', 00H, 'T', 00H, 'r', 00H, 'e', 00H, 'e', 00H, '_', 00H
	DB	's', 00H, 'i', 00H, 'm', 00H, 'p', 00H, 'l', 00H, 'e', 00H, '_'
	DB	00H, 't', 00H, 'y', 00H, 'p', 00H, 'e', 00H, 's', 00H, '<', 00H
	DB	's', 00H, 't', 00H, 'r', 00H, 'u', 00H, 'c', 00H, 't', 00H, ' '
	DB	00H, 's', 00H, 't', 00H, 'd', 00H, ':', 00H, ':', 00H, 'p', 00H
	DB	'a', 00H, 'i', 00H, 'r', 00H, '<', 00H, 'c', 00H, 'l', 00H, 'a'
	DB	00H, 's', 00H, 's', 00H, ' ', 00H, 'R', 00H, 'a', 00H, 'v', 00H
	DB	'e', 00H, 'n', 00H, '_', 00H, 'B', 00H, 'o', 00H, 't', 00H, ' '
	DB	00H, '*', 00H, ' ', 00H, 'c', 00H, 'o', 00H, 'n', 00H, 's', 00H
	DB	't', 00H, ',', 00H, 'c', 00H, 'l', 00H, 'a', 00H, 's', 00H, 's'
	DB	00H, ' ', 00H, 'M', 00H, 'e', 00H, 'm', 00H, 'o', 00H, 'r', 00H
	DB	'y', 00H, 'R', 00H, 'e', 00H, 'c', 00H, 'o', 00H, 'r', 00H, 'd'
	DB	00H, '>', 00H, ' ', 00H, '>', 00H, ' ', 00H, '>', 00H, ':', 00H
	DB	':', 00H, '_', 00H, 'E', 00H, 'x', 00H, 't', 00H, 'r', 00H, 'a'
	DB	00H, 'c', 00H, 't', 00H, 00H, 00H		; `string'
CONST	ENDS
;	COMDAT ??_C@_1EO@CEDAEPC@?$AA?$CC?$AAm?$AAa?$AAp?$AA?1?$AAs?$AAe?$AAt?$AA?5?$AAe?$AAr?$AAa?$AAs?$AAe?$AA?5@
CONST	SEGMENT
??_C@_1EO@CEDAEPC@?$AA?$CC?$AAm?$AAa?$AAp?$AA?1?$AAs?$AAe?$AAt?$AA?5?$AAe?$AAr?$AAa?$AAs?$AAe?$AA?5@ DB '"'
	DB	00H, 'm', 00H, 'a', 00H, 'p', 00H, '/', 00H, 's', 00H, 'e', 00H
	DB	't', 00H, ' ', 00H, 'e', 00H, 'r', 00H, 'a', 00H, 's', 00H, 'e'
	DB	00H, ' ', 00H, 'i', 00H, 't', 00H, 'e', 00H, 'r', 00H, 'a', 00H
	DB	't', 00H, 'o', 00H, 'r', 00H, ' ', 00H, 'o', 00H, 'u', 00H, 't'
	DB	00H, 's', 00H, 'i', 00H, 'd', 00H, 'e', 00H, ' ', 00H, 'r', 00H
	DB	'a', 00H, 'n', 00H, 'g', 00H, 'e', 00H, '"', 00H, 00H, 00H ; `string'
CONST	ENDS
;	COMDAT ??_C@_1BJI@JEIENIGJ@?$AAs?$AAt?$AAd?$AA?3?$AA?3?$AA_?$AAT?$AAr?$AAe?$AAe?$AA?$DM?$AAc?$AAl?$AAa?$AAs@
CONST	SEGMENT
??_C@_1BJI@JEIENIGJ@?$AAs?$AAt?$AAd?$AA?3?$AA?3?$AA_?$AAT?$AAr?$AAe?$AAe?$AA?$DM?$AAc?$AAl?$AAa?$AAs@ DB 's'
	DB	00H, 't', 00H, 'd', 00H, ':', 00H, ':', 00H, '_', 00H, 'T', 00H
	DB	'r', 00H, 'e', 00H, 'e', 00H, '<', 00H, 'c', 00H, 'l', 00H, 'a'
	DB	00H, 's', 00H, 's', 00H, ' ', 00H, 's', 00H, 't', 00H, 'd', 00H
	DB	':', 00H, ':', 00H, '_', 00H, 'T', 00H, 'm', 00H, 'a', 00H, 'p'
	DB	00H, '_', 00H, 't', 00H, 'r', 00H, 'a', 00H, 'i', 00H, 't', 00H
	DB	's', 00H, '<', 00H, 'c', 00H, 'l', 00H, 'a', 00H, 's', 00H, 's'
	DB	00H, ' ', 00H, 'R', 00H, 'a', 00H, 'v', 00H, 'e', 00H, 'n', 00H
	DB	'_', 00H, 'B', 00H, 'o', 00H, 't', 00H, ' ', 00H, '*', 00H, ','
	DB	00H, 'c', 00H, 'l', 00H, 'a', 00H, 's', 00H, 's', 00H, ' ', 00H
	DB	'M', 00H, 'e', 00H, 'm', 00H, 'o', 00H, 'r', 00H, 'y', 00H, 'R'
	DB	00H, 'e', 00H, 'c', 00H, 'o', 00H, 'r', 00H, 'd', 00H, ',', 00H
	DB	's', 00H, 't', 00H, 'r', 00H, 'u', 00H, 'c', 00H, 't', 00H, ' '
	DB	00H, 's', 00H, 't', 00H, 'd', 00H, ':', 00H, ':', 00H, 'l', 00H
	DB	'e', 00H, 's', 00H, 's', 00H, '<', 00H, 'c', 00H, 'l', 00H, 'a'
	DB	00H, 's', 00H, 's', 00H, ' ', 00H, 'R', 00H, 'a', 00H, 'v', 00H
	DB	'e', 00H, 'n', 00H, '_', 00H, 'B', 00H, 'o', 00H, 't', 00H, ' '
	DB	00H, '*', 00H, '>', 00H, ',', 00H, 'c', 00H, 'l', 00H, 'a', 00H
	DB	's', 00H, 's', 00H, ' ', 00H, 's', 00H, 't', 00H, 'd', 00H, ':'
	DB	00H, ':', 00H, 'a', 00H, 'l', 00H, 'l', 00H, 'o', 00H, 'c', 00H
	DB	'a', 00H, 't', 00H, 'o', 00H, 'r', 00H, '<', 00H, 's', 00H, 't'
	DB	00H, 'r', 00H, 'u', 00H, 'c', 00H, 't', 00H, ' ', 00H, 's', 00H
	DB	't', 00H, 'd', 00H, ':', 00H, ':', 00H, 'p', 00H, 'a', 00H, 'i'
	DB	00H, 'r', 00H, '<', 00H, 'c', 00H, 'l', 00H, 'a', 00H, 's', 00H
	DB	's', 00H, ' ', 00H, 'R', 00H, 'a', 00H, 'v', 00H, 'e', 00H, 'n'
	DB	00H, '_', 00H, 'B', 00H, 'o', 00H, 't', 00H, ' ', 00H, '*', 00H
	DB	' ', 00H, 'c', 00H, 'o', 00H, 'n', 00H, 's', 00H, 't', 00H, ','
	DB	00H, 'c', 00H, 'l', 00H, 'a', 00H, 's', 00H, 's', 00H, ' ', 00H
	DB	'M', 00H, 'e', 00H, 'm', 00H, 'o', 00H, 'r', 00H, 'y', 00H, 'R'
	DB	00H, 'e', 00H, 'c', 00H, 'o', 00H, 'r', 00H, 'd', 00H, '>', 00H
	DB	' ', 00H, '>', 00H, ',', 00H, '0', 00H, '>', 00H, ' ', 00H, '>'
	DB	00H, ':', 00H, ':', 00H, 'e', 00H, 'r', 00H, 'a', 00H, 's', 00H
	DB	'e', 00H, 00H, 00H				; `string'
CONST	ENDS
;	COMDAT ??_C@_0CF@JILFNJOL@map?1set?5erase?5iterator?5outside?5@
CONST	SEGMENT
??_C@_0CF@JILFNJOL@map?1set?5erase?5iterator?5outside?5@ DB 'map/set eras'
	DB	'e iterator outside range', 00H		; `string'
CONST	ENDS
;	COMDAT ??_C@_1FE@NKHAAGMB@?$AA?$CC?$AAc?$AAa?$AAn?$AAn?$AAo?$AAt?$AA?5?$AAd?$AAe?$AAr?$AAe?$AAf?$AAe?$AAr@
CONST	SEGMENT
??_C@_1FE@NKHAAGMB@?$AA?$CC?$AAc?$AAa?$AAn?$AAn?$AAo?$AAt?$AA?5?$AAd?$AAe?$AAr?$AAe?$AAf?$AAe?$AAr@ DB '"'
	DB	00H, 'c', 00H, 'a', 00H, 'n', 00H, 'n', 00H, 'o', 00H, 't', 00H
	DB	' ', 00H, 'd', 00H, 'e', 00H, 'r', 00H, 'e', 00H, 'f', 00H, 'e'
	DB	00H, 'r', 00H, 'e', 00H, 'n', 00H, 'c', 00H, 'e', 00H, ' ', 00H
	DB	'e', 00H, 'n', 00H, 'd', 00H, ' ', 00H, 'm', 00H, 'a', 00H, 'p'
	DB	00H, '/', 00H, 's', 00H, 'e', 00H, 't', 00H, ' ', 00H, 'i', 00H
	DB	't', 00H, 'e', 00H, 'r', 00H, 'a', 00H, 't', 00H, 'o', 00H, 'r'
	DB	00H, '"', 00H, 00H, 00H			; `string'
CONST	ENDS
;	COMDAT ??_C@_0CI@OKFEHCEB@cannot?5dereference?5end?5map?1set?5@
CONST	SEGMENT
??_C@_0CI@OKFEHCEB@cannot?5dereference?5end?5map?1set?5@ DB 'cannot deref'
	DB	'erence end map/set iterator', 00H		; `string'
CONST	ENDS
;	COMDAT ??_C@_1HA@ILGCNILF@?$AA?$CC?$AAc?$AAa?$AAn?$AAn?$AAo?$AAt?$AA?5?$AAd?$AAe?$AAr?$AAe?$AAf?$AAe?$AAr@
CONST	SEGMENT
??_C@_1HA@ILGCNILF@?$AA?$CC?$AAc?$AAa?$AAn?$AAn?$AAo?$AAt?$AA?5?$AAd?$AAe?$AAr?$AAe?$AAf?$AAe?$AAr@ DB '"'
	DB	00H, 'c', 00H, 'a', 00H, 'n', 00H, 'n', 00H, 'o', 00H, 't', 00H
	DB	' ', 00H, 'd', 00H, 'e', 00H, 'r', 00H, 'e', 00H, 'f', 00H, 'e'
	DB	00H, 'r', 00H, 'e', 00H, 'n', 00H, 'c', 00H, 'e', 00H, ' ', 00H
	DB	'v', 00H, 'a', 00H, 'l', 00H, 'u', 00H, 'e', 00H, '-', 00H, 'i'
	DB	00H, 'n', 00H, 'i', 00H, 't', 00H, 'i', 00H, 'a', 00H, 'l', 00H
	DB	'i', 00H, 'z', 00H, 'e', 00H, 'd', 00H, ' ', 00H, 'm', 00H, 'a'
	DB	00H, 'p', 00H, '/', 00H, 's', 00H, 'e', 00H, 't', 00H, ' ', 00H
	DB	'i', 00H, 't', 00H, 'e', 00H, 'r', 00H, 'a', 00H, 't', 00H, 'o'
	DB	00H, 'r', 00H, '"', 00H, 00H, 00H		; `string'
CONST	ENDS
;	COMDAT ??_C@_1BDK@NFAHMLDD@?$AAs?$AAt?$AAd?$AA?3?$AA?3?$AA_?$AAT?$AAr?$AAe?$AAe?$AA_?$AAc?$AAo?$AAn?$AAs@
CONST	SEGMENT
??_C@_1BDK@NFAHMLDD@?$AAs?$AAt?$AAd?$AA?3?$AA?3?$AA_?$AAT?$AAr?$AAe?$AAe?$AA_?$AAc?$AAo?$AAn?$AAs@ DB 's'
	DB	00H, 't', 00H, 'd', 00H, ':', 00H, ':', 00H, '_', 00H, 'T', 00H
	DB	'r', 00H, 'e', 00H, 'e', 00H, '_', 00H, 'c', 00H, 'o', 00H, 'n'
	DB	00H, 's', 00H, 't', 00H, '_', 00H, 'i', 00H, 't', 00H, 'e', 00H
	DB	'r', 00H, 'a', 00H, 't', 00H, 'o', 00H, 'r', 00H, '<', 00H, 'c'
	DB	00H, 'l', 00H, 'a', 00H, 's', 00H, 's', 00H, ' ', 00H, 's', 00H
	DB	't', 00H, 'd', 00H, ':', 00H, ':', 00H, '_', 00H, 'T', 00H, 'r'
	DB	00H, 'e', 00H, 'e', 00H, '_', 00H, 'v', 00H, 'a', 00H, 'l', 00H
	DB	'<', 00H, 's', 00H, 't', 00H, 'r', 00H, 'u', 00H, 'c', 00H, 't'
	DB	00H, ' ', 00H, 's', 00H, 't', 00H, 'd', 00H, ':', 00H, ':', 00H
	DB	'_', 00H, 'T', 00H, 'r', 00H, 'e', 00H, 'e', 00H, '_', 00H, 's'
	DB	00H, 'i', 00H, 'm', 00H, 'p', 00H, 'l', 00H, 'e', 00H, '_', 00H
	DB	't', 00H, 'y', 00H, 'p', 00H, 'e', 00H, 's', 00H, '<', 00H, 's'
	DB	00H, 't', 00H, 'r', 00H, 'u', 00H, 'c', 00H, 't', 00H, ' ', 00H
	DB	's', 00H, 't', 00H, 'd', 00H, ':', 00H, ':', 00H, 'p', 00H, 'a'
	DB	00H, 'i', 00H, 'r', 00H, '<', 00H, 'c', 00H, 'l', 00H, 'a', 00H
	DB	's', 00H, 's', 00H, ' ', 00H, 'R', 00H, 'a', 00H, 'v', 00H, 'e'
	DB	00H, 'n', 00H, '_', 00H, 'B', 00H, 'o', 00H, 't', 00H, ' ', 00H
	DB	'*', 00H, ' ', 00H, 'c', 00H, 'o', 00H, 'n', 00H, 's', 00H, 't'
	DB	00H, ',', 00H, 'c', 00H, 'l', 00H, 'a', 00H, 's', 00H, 's', 00H
	DB	' ', 00H, 'M', 00H, 'e', 00H, 'm', 00H, 'o', 00H, 'r', 00H, 'y'
	DB	00H, 'R', 00H, 'e', 00H, 'c', 00H, 'o', 00H, 'r', 00H, 'd', 00H
	DB	'>', 00H, ' ', 00H, '>', 00H, ' ', 00H, '>', 00H, ' ', 00H, '>'
	DB	00H, ':', 00H, ':', 00H, 'o', 00H, 'p', 00H, 'e', 00H, 'r', 00H
	DB	'a', 00H, 't', 00H, 'o', 00H, 'r', 00H, ' ', 00H, '*', 00H, 00H
	DB	00H						; `string'
CONST	ENDS
;	COMDAT ??_C@_0DG@LCFNIIPB@cannot?5dereference?5value?9initia@
CONST	SEGMENT
??_C@_0DG@LCFNIIPB@cannot?5dereference?5value?9initia@ DB 'cannot derefer'
	DB	'ence value-initialized map/set iterator', 00H ; `string'
CONST	ENDS
;	COMDAT ??_C@_1DM@KDLJAKOP@?$AA?$CC?$AAl?$AAi?$AAs?$AAt?$AA?5?$AAi?$AAt?$AAe?$AAr?$AAa?$AAt?$AAo?$AAr?$AAs@
CONST	SEGMENT
??_C@_1DM@KDLJAKOP@?$AA?$CC?$AAl?$AAi?$AAs?$AAt?$AA?5?$AAi?$AAt?$AAe?$AAr?$AAa?$AAt?$AAo?$AAr?$AAs@ DB '"'
	DB	00H, 'l', 00H, 'i', 00H, 's', 00H, 't', 00H, ' ', 00H, 'i', 00H
	DB	't', 00H, 'e', 00H, 'r', 00H, 'a', 00H, 't', 00H, 'o', 00H, 'r'
	DB	00H, 's', 00H, ' ', 00H, 'i', 00H, 'n', 00H, 'c', 00H, 'o', 00H
	DB	'm', 00H, 'p', 00H, 'a', 00H, 't', 00H, 'i', 00H, 'b', 00H, 'l'
	DB	00H, 'e', 00H, '"', 00H, 00H, 00H		; `string'
CONST	ENDS
;	COMDAT ??_C@_1OE@HJIALJKP@?$AAs?$AAt?$AAd?$AA?3?$AA?3?$AA_?$AAL?$AAi?$AAs?$AAt?$AA_?$AAc?$AAo?$AAn?$AAs@
CONST	SEGMENT
??_C@_1OE@HJIALJKP@?$AAs?$AAt?$AAd?$AA?3?$AA?3?$AA_?$AAL?$AAi?$AAs?$AAt?$AA_?$AAc?$AAo?$AAn?$AAs@ DB 's'
	DB	00H, 't', 00H, 'd', 00H, ':', 00H, ':', 00H, '_', 00H, 'L', 00H
	DB	'i', 00H, 's', 00H, 't', 00H, '_', 00H, 'c', 00H, 'o', 00H, 'n'
	DB	00H, 's', 00H, 't', 00H, '_', 00H, 'i', 00H, 't', 00H, 'e', 00H
	DB	'r', 00H, 'a', 00H, 't', 00H, 'o', 00H, 'r', 00H, '<', 00H, 'c'
	DB	00H, 'l', 00H, 'a', 00H, 's', 00H, 's', 00H, ' ', 00H, 's', 00H
	DB	't', 00H, 'd', 00H, ':', 00H, ':', 00H, '_', 00H, 'L', 00H, 'i'
	DB	00H, 's', 00H, 't', 00H, '_', 00H, 'v', 00H, 'a', 00H, 'l', 00H
	DB	'<', 00H, 's', 00H, 't', 00H, 'r', 00H, 'u', 00H, 'c', 00H, 't'
	DB	00H, ' ', 00H, 's', 00H, 't', 00H, 'd', 00H, ':', 00H, ':', 00H
	DB	'_', 00H, 'L', 00H, 'i', 00H, 's', 00H, 't', 00H, '_', 00H, 's'
	DB	00H, 'i', 00H, 'm', 00H, 'p', 00H, 'l', 00H, 'e', 00H, '_', 00H
	DB	't', 00H, 'y', 00H, 'p', 00H, 'e', 00H, 's', 00H, '<', 00H, 'c'
	DB	00H, 'l', 00H, 'a', 00H, 's', 00H, 's', 00H, ' ', 00H, 'R', 00H
	DB	'a', 00H, 'v', 00H, 'e', 00H, 'n', 00H, '_', 00H, 'B', 00H, 'o'
	DB	00H, 't', 00H, ' ', 00H, '*', 00H, '>', 00H, ' ', 00H, '>', 00H
	DB	' ', 00H, '>', 00H, ':', 00H, ':', 00H, 'o', 00H, 'p', 00H, 'e'
	DB	00H, 'r', 00H, 'a', 00H, 't', 00H, 'o', 00H, 'r', 00H, ' ', 00H
	DB	'=', 00H, '=', 00H, 00H, 00H			; `string'
CONST	ENDS
;	COMDAT ??_C@_0BM@BALDKKHE@list?5iterators?5incompatible@
CONST	SEGMENT
??_C@_0BM@BALDKKHE@list?5iterators?5incompatible@ DB 'list iterators inco'
	DB	'mpatible', 00H				; `string'
CONST	ENDS
;	COMDAT ??_C@_1FA@KLFCDGNE@?$AA?$CC?$AAc?$AAa?$AAn?$AAn?$AAo?$AAt?$AA?5?$AAi?$AAn?$AAc?$AAr?$AAe?$AAm?$AAe@
CONST	SEGMENT
??_C@_1FA@KLFCDGNE@?$AA?$CC?$AAc?$AAa?$AAn?$AAn?$AAo?$AAt?$AA?5?$AAi?$AAn?$AAc?$AAr?$AAe?$AAm?$AAe@ DB '"'
	DB	00H, 'c', 00H, 'a', 00H, 'n', 00H, 'n', 00H, 'o', 00H, 't', 00H
	DB	' ', 00H, 'i', 00H, 'n', 00H, 'c', 00H, 'r', 00H, 'e', 00H, 'm'
	DB	00H, 'e', 00H, 'n', 00H, 't', 00H, ' ', 00H, 'e', 00H, 'n', 00H
	DB	'd', 00H, ' ', 00H, 'm', 00H, 'a', 00H, 'p', 00H, '/', 00H, 's'
	DB	00H, 'e', 00H, 't', 00H, ' ', 00H, 'i', 00H, 't', 00H, 'e', 00H
	DB	'r', 00H, 'a', 00H, 't', 00H, 'o', 00H, 'r', 00H, '"', 00H, 00H
	DB	00H						; `string'
CONST	ENDS
;	COMDAT ??_C@_0CG@NLEHEOHN@cannot?5increment?5end?5map?1set?5it@
CONST	SEGMENT
??_C@_0CG@NLEHEOHN@cannot?5increment?5end?5map?1set?5it@ DB 'cannot incre'
	DB	'ment end map/set iterator', 00H		; `string'
CONST	ENDS
;	COMDAT ??_C@_1GM@BJMCGEGI@?$AA?$CC?$AAc?$AAa?$AAn?$AAn?$AAo?$AAt?$AA?5?$AAi?$AAn?$AAc?$AAr?$AAe?$AAm?$AAe@
CONST	SEGMENT
??_C@_1GM@BJMCGEGI@?$AA?$CC?$AAc?$AAa?$AAn?$AAn?$AAo?$AAt?$AA?5?$AAi?$AAn?$AAc?$AAr?$AAe?$AAm?$AAe@ DB '"'
	DB	00H, 'c', 00H, 'a', 00H, 'n', 00H, 'n', 00H, 'o', 00H, 't', 00H
	DB	' ', 00H, 'i', 00H, 'n', 00H, 'c', 00H, 'r', 00H, 'e', 00H, 'm'
	DB	00H, 'e', 00H, 'n', 00H, 't', 00H, ' ', 00H, 'v', 00H, 'a', 00H
	DB	'l', 00H, 'u', 00H, 'e', 00H, '-', 00H, 'i', 00H, 'n', 00H, 'i'
	DB	00H, 't', 00H, 'i', 00H, 'a', 00H, 'l', 00H, 'i', 00H, 'z', 00H
	DB	'e', 00H, 'd', 00H, ' ', 00H, 'm', 00H, 'a', 00H, 'p', 00H, '/'
	DB	00H, 's', 00H, 'e', 00H, 't', 00H, ' ', 00H, 'i', 00H, 't', 00H
	DB	'e', 00H, 'r', 00H, 'a', 00H, 't', 00H, 'o', 00H, 'r', 00H, '"'
	DB	00H, 00H, 00H				; `string'
CONST	ENDS
;	COMDAT ??_C@_1BDM@EELCFAJF@?$AAs?$AAt?$AAd?$AA?3?$AA?3?$AA_?$AAT?$AAr?$AAe?$AAe?$AA_?$AAc?$AAo?$AAn?$AAs@
CONST	SEGMENT
??_C@_1BDM@EELCFAJF@?$AAs?$AAt?$AAd?$AA?3?$AA?3?$AA_?$AAT?$AAr?$AAe?$AAe?$AA_?$AAc?$AAo?$AAn?$AAs@ DB 's'
	DB	00H, 't', 00H, 'd', 00H, ':', 00H, ':', 00H, '_', 00H, 'T', 00H
	DB	'r', 00H, 'e', 00H, 'e', 00H, '_', 00H, 'c', 00H, 'o', 00H, 'n'
	DB	00H, 's', 00H, 't', 00H, '_', 00H, 'i', 00H, 't', 00H, 'e', 00H
	DB	'r', 00H, 'a', 00H, 't', 00H, 'o', 00H, 'r', 00H, '<', 00H, 'c'
	DB	00H, 'l', 00H, 'a', 00H, 's', 00H, 's', 00H, ' ', 00H, 's', 00H
	DB	't', 00H, 'd', 00H, ':', 00H, ':', 00H, '_', 00H, 'T', 00H, 'r'
	DB	00H, 'e', 00H, 'e', 00H, '_', 00H, 'v', 00H, 'a', 00H, 'l', 00H
	DB	'<', 00H, 's', 00H, 't', 00H, 'r', 00H, 'u', 00H, 'c', 00H, 't'
	DB	00H, ' ', 00H, 's', 00H, 't', 00H, 'd', 00H, ':', 00H, ':', 00H
	DB	'_', 00H, 'T', 00H, 'r', 00H, 'e', 00H, 'e', 00H, '_', 00H, 's'
	DB	00H, 'i', 00H, 'm', 00H, 'p', 00H, 'l', 00H, 'e', 00H, '_', 00H
	DB	't', 00H, 'y', 00H, 'p', 00H, 'e', 00H, 's', 00H, '<', 00H, 's'
	DB	00H, 't', 00H, 'r', 00H, 'u', 00H, 'c', 00H, 't', 00H, ' ', 00H
	DB	's', 00H, 't', 00H, 'd', 00H, ':', 00H, ':', 00H, 'p', 00H, 'a'
	DB	00H, 'i', 00H, 'r', 00H, '<', 00H, 'c', 00H, 'l', 00H, 'a', 00H
	DB	's', 00H, 's', 00H, ' ', 00H, 'R', 00H, 'a', 00H, 'v', 00H, 'e'
	DB	00H, 'n', 00H, '_', 00H, 'B', 00H, 'o', 00H, 't', 00H, ' ', 00H
	DB	'*', 00H, ' ', 00H, 'c', 00H, 'o', 00H, 'n', 00H, 's', 00H, 't'
	DB	00H, ',', 00H, 'c', 00H, 'l', 00H, 'a', 00H, 's', 00H, 's', 00H
	DB	' ', 00H, 'M', 00H, 'e', 00H, 'm', 00H, 'o', 00H, 'r', 00H, 'y'
	DB	00H, 'R', 00H, 'e', 00H, 'c', 00H, 'o', 00H, 'r', 00H, 'd', 00H
	DB	'>', 00H, ' ', 00H, '>', 00H, ' ', 00H, '>', 00H, ' ', 00H, '>'
	DB	00H, ':', 00H, ':', 00H, 'o', 00H, 'p', 00H, 'e', 00H, 'r', 00H
	DB	'a', 00H, 't', 00H, 'o', 00H, 'r', 00H, ' ', 00H, '+', 00H, '+'
	DB	00H, 00H, 00H				; `string'
CONST	ENDS
;	COMDAT ??_C@_0DE@DMNPKCGM@cannot?5increment?5value?9initiali@
CONST	SEGMENT
??_C@_0DE@DMNPKCGM@cannot?5increment?5value?9initiali@ DB 'cannot increme'
	DB	'nt value-initialized map/set iterator', 00H	; `string'
CONST	ENDS
;	COMDAT ??_C@_1EC@JLIDLCDH@?$AA?$CC?$AAm?$AAa?$AAp?$AA?1?$AAs?$AAe?$AAt?$AA?5?$AAi?$AAt?$AAe?$AAr?$AAa?$AAt@
CONST	SEGMENT
??_C@_1EC@JLIDLCDH@?$AA?$CC?$AAm?$AAa?$AAp?$AA?1?$AAs?$AAe?$AAt?$AA?5?$AAi?$AAt?$AAe?$AAr?$AAa?$AAt@ DB '"'
	DB	00H, 'm', 00H, 'a', 00H, 'p', 00H, '/', 00H, 's', 00H, 'e', 00H
	DB	't', 00H, ' ', 00H, 'i', 00H, 't', 00H, 'e', 00H, 'r', 00H, 'a'
	DB	00H, 't', 00H, 'o', 00H, 'r', 00H, 's', 00H, ' ', 00H, 'i', 00H
	DB	'n', 00H, 'c', 00H, 'o', 00H, 'm', 00H, 'p', 00H, 'a', 00H, 't'
	DB	00H, 'i', 00H, 'b', 00H, 'l', 00H, 'e', 00H, '"', 00H, 00H, 00H ; `string'
CONST	ENDS
;	COMDAT ??_C@_1BDM@OEEPLJFA@?$AAs?$AAt?$AAd?$AA?3?$AA?3?$AA_?$AAT?$AAr?$AAe?$AAe?$AA_?$AAc?$AAo?$AAn?$AAs@
CONST	SEGMENT
??_C@_1BDM@OEEPLJFA@?$AAs?$AAt?$AAd?$AA?3?$AA?3?$AA_?$AAT?$AAr?$AAe?$AAe?$AA_?$AAc?$AAo?$AAn?$AAs@ DB 's'
	DB	00H, 't', 00H, 'd', 00H, ':', 00H, ':', 00H, '_', 00H, 'T', 00H
	DB	'r', 00H, 'e', 00H, 'e', 00H, '_', 00H, 'c', 00H, 'o', 00H, 'n'
	DB	00H, 's', 00H, 't', 00H, '_', 00H, 'i', 00H, 't', 00H, 'e', 00H
	DB	'r', 00H, 'a', 00H, 't', 00H, 'o', 00H, 'r', 00H, '<', 00H, 'c'
	DB	00H, 'l', 00H, 'a', 00H, 's', 00H, 's', 00H, ' ', 00H, 's', 00H
	DB	't', 00H, 'd', 00H, ':', 00H, ':', 00H, '_', 00H, 'T', 00H, 'r'
	DB	00H, 'e', 00H, 'e', 00H, '_', 00H, 'v', 00H, 'a', 00H, 'l', 00H
	DB	'<', 00H, 's', 00H, 't', 00H, 'r', 00H, 'u', 00H, 'c', 00H, 't'
	DB	00H, ' ', 00H, 's', 00H, 't', 00H, 'd', 00H, ':', 00H, ':', 00H
	DB	'_', 00H, 'T', 00H, 'r', 00H, 'e', 00H, 'e', 00H, '_', 00H, 's'
	DB	00H, 'i', 00H, 'm', 00H, 'p', 00H, 'l', 00H, 'e', 00H, '_', 00H
	DB	't', 00H, 'y', 00H, 'p', 00H, 'e', 00H, 's', 00H, '<', 00H, 's'
	DB	00H, 't', 00H, 'r', 00H, 'u', 00H, 'c', 00H, 't', 00H, ' ', 00H
	DB	's', 00H, 't', 00H, 'd', 00H, ':', 00H, ':', 00H, 'p', 00H, 'a'
	DB	00H, 'i', 00H, 'r', 00H, '<', 00H, 'c', 00H, 'l', 00H, 'a', 00H
	DB	's', 00H, 's', 00H, ' ', 00H, 'R', 00H, 'a', 00H, 'v', 00H, 'e'
	DB	00H, 'n', 00H, '_', 00H, 'B', 00H, 'o', 00H, 't', 00H, ' ', 00H
	DB	'*', 00H, ' ', 00H, 'c', 00H, 'o', 00H, 'n', 00H, 's', 00H, 't'
	DB	00H, ',', 00H, 'c', 00H, 'l', 00H, 'a', 00H, 's', 00H, 's', 00H
	DB	' ', 00H, 'M', 00H, 'e', 00H, 'm', 00H, 'o', 00H, 'r', 00H, 'y'
	DB	00H, 'R', 00H, 'e', 00H, 'c', 00H, 'o', 00H, 'r', 00H, 'd', 00H
	DB	'>', 00H, ' ', 00H, '>', 00H, ' ', 00H, '>', 00H, ' ', 00H, '>'
	DB	00H, ':', 00H, ':', 00H, 'o', 00H, 'p', 00H, 'e', 00H, 'r', 00H
	DB	'a', 00H, 't', 00H, 'o', 00H, 'r', 00H, ' ', 00H, '=', 00H, '='
	DB	00H, 00H, 00H				; `string'
CONST	ENDS
;	COMDAT ??_C@_1MM@ECCNBGLC@?$AAc?$AA?3?$AA?2?$AAp?$AAr?$AAo?$AAg?$AAr?$AAa?$AAm?$AA?5?$AAf?$AAi?$AAl?$AAe@
CONST	SEGMENT
??_C@_1MM@ECCNBGLC@?$AAc?$AA?3?$AA?2?$AAp?$AAr?$AAo?$AAg?$AAr?$AAa?$AAm?$AA?5?$AAf?$AAi?$AAl?$AAe@ DB 'c'
	DB	00H, ':', 00H, '\', 00H, 'p', 00H, 'r', 00H, 'o', 00H, 'g', 00H
	DB	'r', 00H, 'a', 00H, 'm', 00H, ' ', 00H, 'f', 00H, 'i', 00H, 'l'
	DB	00H, 'e', 00H, 's', 00H, ' ', 00H, '(', 00H, 'x', 00H, '8', 00H
	DB	'6', 00H, ')', 00H, '\', 00H, 'm', 00H, 'i', 00H, 'c', 00H, 'r'
	DB	00H, 'o', 00H, 's', 00H, 'o', 00H, 'f', 00H, 't', 00H, ' ', 00H
	DB	'v', 00H, 'i', 00H, 's', 00H, 'u', 00H, 'a', 00H, 'l', 00H, ' '
	DB	00H, 's', 00H, 't', 00H, 'u', 00H, 'd', 00H, 'i', 00H, 'o', 00H
	DB	'\', 00H, '2', 00H, '0', 00H, '1', 00H, '7', 00H, '\', 00H, 'c'
	DB	00H, 'o', 00H, 'm', 00H, 'm', 00H, 'u', 00H, 'n', 00H, 'i', 00H
	DB	't', 00H, 'y', 00H, '\', 00H, 'v', 00H, 'c', 00H, '\', 00H, 't'
	DB	00H, 'o', 00H, 'o', 00H, 'l', 00H, 's', 00H, '\', 00H, 'm', 00H
	DB	's', 00H, 'v', 00H, 'c', 00H, '\', 00H, '1', 00H, '4', 00H, '.'
	DB	00H, '1', 00H, '5', 00H, '.', 00H, '2', 00H, '6', 00H, '7', 00H
	DB	'2', 00H, '6', 00H, '\', 00H, 'i', 00H, 'n', 00H, 'c', 00H, 'l'
	DB	00H, 'u', 00H, 'd', 00H, 'e', 00H, '\', 00H, 'x', 00H, 't', 00H
	DB	'r', 00H, 'e', 00H, 'e', 00H, 00H, 00H	; `string'
CONST	ENDS
;	COMDAT ??_C@_0GG@KBILHLPB@c?3?2program?5files?5?$CIx86?$CJ?2microsof@
CONST	SEGMENT
??_C@_0GG@KBILHLPB@c?3?2program?5files?5?$CIx86?$CJ?2microsof@ DB 'c:\pro'
	DB	'gram files (x86)\microsoft visual studio\2017\community\vc\to'
	DB	'ols\msvc\14.15.26726\include\xtree', 00H	; `string'
CONST	ENDS
;	COMDAT ??_C@_0BP@OLDKBHLM@map?1set?5iterators?5incompatible@
CONST	SEGMENT
??_C@_0BP@OLDKBHLM@map?1set?5iterators?5incompatible@ DB 'map/set iterato'
	DB	'rs incompatible', 00H			; `string'
CONST	ENDS
;	COMDAT ??_C@_1EO@CNEFBDCF@?$AA?$CC?$AAc?$AAa?$AAn?$AAn?$AAo?$AAt?$AA?5?$AAd?$AAe?$AAr?$AAe?$AAf?$AAe?$AAr@
CONST	SEGMENT
??_C@_1EO@CNEFBDCF@?$AA?$CC?$AAc?$AAa?$AAn?$AAn?$AAo?$AAt?$AA?5?$AAd?$AAe?$AAr?$AAe?$AAf?$AAe?$AAr@ DB '"'
	DB	00H, 'c', 00H, 'a', 00H, 'n', 00H, 'n', 00H, 'o', 00H, 't', 00H
	DB	' ', 00H, 'd', 00H, 'e', 00H, 'r', 00H, 'e', 00H, 'f', 00H, 'e'
	DB	00H, 'r', 00H, 'e', 00H, 'n', 00H, 'c', 00H, 'e', 00H, ' ', 00H
	DB	'e', 00H, 'n', 00H, 'd', 00H, ' ', 00H, 'l', 00H, 'i', 00H, 's'
	DB	00H, 't', 00H, ' ', 00H, 'i', 00H, 't', 00H, 'e', 00H, 'r', 00H
	DB	'a', 00H, 't', 00H, 'o', 00H, 'r', 00H, '"', 00H, 00H, 00H ; `string'
CONST	ENDS
;	COMDAT ??_C@_0CF@JCBFHMPL@cannot?5dereference?5end?5list?5ite@
CONST	SEGMENT
??_C@_0CF@JCBFHMPL@cannot?5dereference?5end?5list?5ite@ DB 'cannot derefe'
	DB	'rence end list iterator', 00H		; `string'
CONST	ENDS
;	COMDAT ??_C@_1GK@NKIMOCIG@?$AA?$CC?$AAc?$AAa?$AAn?$AAn?$AAo?$AAt?$AA?5?$AAd?$AAe?$AAr?$AAe?$AAf?$AAe?$AAr@
CONST	SEGMENT
??_C@_1GK@NKIMOCIG@?$AA?$CC?$AAc?$AAa?$AAn?$AAn?$AAo?$AAt?$AA?5?$AAd?$AAe?$AAr?$AAe?$AAf?$AAe?$AAr@ DB '"'
	DB	00H, 'c', 00H, 'a', 00H, 'n', 00H, 'n', 00H, 'o', 00H, 't', 00H
	DB	' ', 00H, 'd', 00H, 'e', 00H, 'r', 00H, 'e', 00H, 'f', 00H, 'e'
	DB	00H, 'r', 00H, 'e', 00H, 'n', 00H, 'c', 00H, 'e', 00H, ' ', 00H
	DB	'v', 00H, 'a', 00H, 'l', 00H, 'u', 00H, 'e', 00H, '-', 00H, 'i'
	DB	00H, 'n', 00H, 'i', 00H, 't', 00H, 'i', 00H, 'a', 00H, 'l', 00H
	DB	'i', 00H, 'z', 00H, 'e', 00H, 'd', 00H, ' ', 00H, 'l', 00H, 'i'
	DB	00H, 's', 00H, 't', 00H, ' ', 00H, 'i', 00H, 't', 00H, 'e', 00H
	DB	'r', 00H, 'a', 00H, 't', 00H, 'o', 00H, 'r', 00H, '"', 00H, 00H
	DB	00H						; `string'
CONST	ENDS
;	COMDAT ??_C@_1OC@BFEHCKCD@?$AAs?$AAt?$AAd?$AA?3?$AA?3?$AA_?$AAL?$AAi?$AAs?$AAt?$AA_?$AAc?$AAo?$AAn?$AAs@
CONST	SEGMENT
??_C@_1OC@BFEHCKCD@?$AAs?$AAt?$AAd?$AA?3?$AA?3?$AA_?$AAL?$AAi?$AAs?$AAt?$AA_?$AAc?$AAo?$AAn?$AAs@ DB 's'
	DB	00H, 't', 00H, 'd', 00H, ':', 00H, ':', 00H, '_', 00H, 'L', 00H
	DB	'i', 00H, 's', 00H, 't', 00H, '_', 00H, 'c', 00H, 'o', 00H, 'n'
	DB	00H, 's', 00H, 't', 00H, '_', 00H, 'i', 00H, 't', 00H, 'e', 00H
	DB	'r', 00H, 'a', 00H, 't', 00H, 'o', 00H, 'r', 00H, '<', 00H, 'c'
	DB	00H, 'l', 00H, 'a', 00H, 's', 00H, 's', 00H, ' ', 00H, 's', 00H
	DB	't', 00H, 'd', 00H, ':', 00H, ':', 00H, '_', 00H, 'L', 00H, 'i'
	DB	00H, 's', 00H, 't', 00H, '_', 00H, 'v', 00H, 'a', 00H, 'l', 00H
	DB	'<', 00H, 's', 00H, 't', 00H, 'r', 00H, 'u', 00H, 'c', 00H, 't'
	DB	00H, ' ', 00H, 's', 00H, 't', 00H, 'd', 00H, ':', 00H, ':', 00H
	DB	'_', 00H, 'L', 00H, 'i', 00H, 's', 00H, 't', 00H, '_', 00H, 's'
	DB	00H, 'i', 00H, 'm', 00H, 'p', 00H, 'l', 00H, 'e', 00H, '_', 00H
	DB	't', 00H, 'y', 00H, 'p', 00H, 'e', 00H, 's', 00H, '<', 00H, 'c'
	DB	00H, 'l', 00H, 'a', 00H, 's', 00H, 's', 00H, ' ', 00H, 'R', 00H
	DB	'a', 00H, 'v', 00H, 'e', 00H, 'n', 00H, '_', 00H, 'B', 00H, 'o'
	DB	00H, 't', 00H, ' ', 00H, '*', 00H, '>', 00H, ' ', 00H, '>', 00H
	DB	' ', 00H, '>', 00H, ':', 00H, ':', 00H, 'o', 00H, 'p', 00H, 'e'
	DB	00H, 'r', 00H, 'a', 00H, 't', 00H, 'o', 00H, 'r', 00H, ' ', 00H
	DB	'*', 00H, 00H, 00H				; `string'
CONST	ENDS
;	COMDAT ??_C@_0DD@MBIHGLJE@cannot?5dereference?5value?9initia@
CONST	SEGMENT
??_C@_0DD@MBIHGLJE@cannot?5dereference?5value?9initia@ DB 'cannot derefer'
	DB	'ence value-initialized list iterator', 00H	; `string'
CONST	ENDS
;	COMDAT ??_C@_1EK@OKKCFDJN@?$AA?$CC?$AAc?$AAa?$AAn?$AAn?$AAo?$AAt?$AA?5?$AAi?$AAn?$AAc?$AAr?$AAe?$AAm?$AAe@
CONST	SEGMENT
??_C@_1EK@OKKCFDJN@?$AA?$CC?$AAc?$AAa?$AAn?$AAn?$AAo?$AAt?$AA?5?$AAi?$AAn?$AAc?$AAr?$AAe?$AAm?$AAe@ DB '"'
	DB	00H, 'c', 00H, 'a', 00H, 'n', 00H, 'n', 00H, 'o', 00H, 't', 00H
	DB	' ', 00H, 'i', 00H, 'n', 00H, 'c', 00H, 'r', 00H, 'e', 00H, 'm'
	DB	00H, 'e', 00H, 'n', 00H, 't', 00H, ' ', 00H, 'e', 00H, 'n', 00H
	DB	'd', 00H, ' ', 00H, 'l', 00H, 'i', 00H, 's', 00H, 't', 00H, ' '
	DB	00H, 'i', 00H, 't', 00H, 'e', 00H, 'r', 00H, 'a', 00H, 't', 00H
	DB	'o', 00H, 'r', 00H, '"', 00H, 00H, 00H	; `string'
CONST	ENDS
;	COMDAT ??_C@_0CD@PMFMCEG@cannot?5increment?5end?5list?5itera@
CONST	SEGMENT
??_C@_0CD@PMFMCEG@cannot?5increment?5end?5list?5itera@ DB 'cannot increme'
	DB	'nt end list iterator', 00H			; `string'
CONST	ENDS
;	COMDAT ??_C@_1GG@JLMAGPNK@?$AA?$CC?$AAc?$AAa?$AAn?$AAn?$AAo?$AAt?$AA?5?$AAi?$AAn?$AAc?$AAr?$AAe?$AAm?$AAe@
CONST	SEGMENT
??_C@_1GG@JLMAGPNK@?$AA?$CC?$AAc?$AAa?$AAn?$AAn?$AAo?$AAt?$AA?5?$AAi?$AAn?$AAc?$AAr?$AAe?$AAm?$AAe@ DB '"'
	DB	00H, 'c', 00H, 'a', 00H, 'n', 00H, 'n', 00H, 'o', 00H, 't', 00H
	DB	' ', 00H, 'i', 00H, 'n', 00H, 'c', 00H, 'r', 00H, 'e', 00H, 'm'
	DB	00H, 'e', 00H, 'n', 00H, 't', 00H, ' ', 00H, 'v', 00H, 'a', 00H
	DB	'l', 00H, 'u', 00H, 'e', 00H, '-', 00H, 'i', 00H, 'n', 00H, 'i'
	DB	00H, 't', 00H, 'i', 00H, 'a', 00H, 'l', 00H, 'i', 00H, 'z', 00H
	DB	'e', 00H, 'd', 00H, ' ', 00H, 'l', 00H, 'i', 00H, 's', 00H, 't'
	DB	00H, ' ', 00H, 'i', 00H, 't', 00H, 'e', 00H, 'r', 00H, 'a', 00H
	DB	't', 00H, 'o', 00H, 'r', 00H, '"', 00H, 00H, 00H ; `string'
CONST	ENDS
;	COMDAT ??_C@_1OE@NJHNFAGK@?$AAs?$AAt?$AAd?$AA?3?$AA?3?$AA_?$AAL?$AAi?$AAs?$AAt?$AA_?$AAc?$AAo?$AAn?$AAs@
CONST	SEGMENT
??_C@_1OE@NJHNFAGK@?$AAs?$AAt?$AAd?$AA?3?$AA?3?$AA_?$AAL?$AAi?$AAs?$AAt?$AA_?$AAc?$AAo?$AAn?$AAs@ DB 's'
	DB	00H, 't', 00H, 'd', 00H, ':', 00H, ':', 00H, '_', 00H, 'L', 00H
	DB	'i', 00H, 's', 00H, 't', 00H, '_', 00H, 'c', 00H, 'o', 00H, 'n'
	DB	00H, 's', 00H, 't', 00H, '_', 00H, 'i', 00H, 't', 00H, 'e', 00H
	DB	'r', 00H, 'a', 00H, 't', 00H, 'o', 00H, 'r', 00H, '<', 00H, 'c'
	DB	00H, 'l', 00H, 'a', 00H, 's', 00H, 's', 00H, ' ', 00H, 's', 00H
	DB	't', 00H, 'd', 00H, ':', 00H, ':', 00H, '_', 00H, 'L', 00H, 'i'
	DB	00H, 's', 00H, 't', 00H, '_', 00H, 'v', 00H, 'a', 00H, 'l', 00H
	DB	'<', 00H, 's', 00H, 't', 00H, 'r', 00H, 'u', 00H, 'c', 00H, 't'
	DB	00H, ' ', 00H, 's', 00H, 't', 00H, 'd', 00H, ':', 00H, ':', 00H
	DB	'_', 00H, 'L', 00H, 'i', 00H, 's', 00H, 't', 00H, '_', 00H, 's'
	DB	00H, 'i', 00H, 'm', 00H, 'p', 00H, 'l', 00H, 'e', 00H, '_', 00H
	DB	't', 00H, 'y', 00H, 'p', 00H, 'e', 00H, 's', 00H, '<', 00H, 'c'
	DB	00H, 'l', 00H, 'a', 00H, 's', 00H, 's', 00H, ' ', 00H, 'R', 00H
	DB	'a', 00H, 'v', 00H, 'e', 00H, 'n', 00H, '_', 00H, 'B', 00H, 'o'
	DB	00H, 't', 00H, ' ', 00H, '*', 00H, '>', 00H, ' ', 00H, '>', 00H
	DB	' ', 00H, '>', 00H, ':', 00H, ':', 00H, 'o', 00H, 'p', 00H, 'e'
	DB	00H, 'r', 00H, 'a', 00H, 't', 00H, 'o', 00H, 'r', 00H, ' ', 00H
	DB	'+', 00H, '+', 00H, 00H, 00H			; `string'
CONST	ENDS
;	COMDAT ??_C@_1MK@MDLCPFJD@?$AAc?$AA?3?$AA?2?$AAp?$AAr?$AAo?$AAg?$AAr?$AAa?$AAm?$AA?5?$AAf?$AAi?$AAl?$AAe@
CONST	SEGMENT
??_C@_1MK@MDLCPFJD@?$AAc?$AA?3?$AA?2?$AAp?$AAr?$AAo?$AAg?$AAr?$AAa?$AAm?$AA?5?$AAf?$AAi?$AAl?$AAe@ DB 'c'
	DB	00H, ':', 00H, '\', 00H, 'p', 00H, 'r', 00H, 'o', 00H, 'g', 00H
	DB	'r', 00H, 'a', 00H, 'm', 00H, ' ', 00H, 'f', 00H, 'i', 00H, 'l'
	DB	00H, 'e', 00H, 's', 00H, ' ', 00H, '(', 00H, 'x', 00H, '8', 00H
	DB	'6', 00H, ')', 00H, '\', 00H, 'm', 00H, 'i', 00H, 'c', 00H, 'r'
	DB	00H, 'o', 00H, 's', 00H, 'o', 00H, 'f', 00H, 't', 00H, ' ', 00H
	DB	'v', 00H, 'i', 00H, 's', 00H, 'u', 00H, 'a', 00H, 'l', 00H, ' '
	DB	00H, 's', 00H, 't', 00H, 'u', 00H, 'd', 00H, 'i', 00H, 'o', 00H
	DB	'\', 00H, '2', 00H, '0', 00H, '1', 00H, '7', 00H, '\', 00H, 'c'
	DB	00H, 'o', 00H, 'm', 00H, 'm', 00H, 'u', 00H, 'n', 00H, 'i', 00H
	DB	't', 00H, 'y', 00H, '\', 00H, 'v', 00H, 'c', 00H, '\', 00H, 't'
	DB	00H, 'o', 00H, 'o', 00H, 'l', 00H, 's', 00H, '\', 00H, 'm', 00H
	DB	's', 00H, 'v', 00H, 'c', 00H, '\', 00H, '1', 00H, '4', 00H, '.'
	DB	00H, '1', 00H, '5', 00H, '.', 00H, '2', 00H, '6', 00H, '7', 00H
	DB	'2', 00H, '6', 00H, '\', 00H, 'i', 00H, 'n', 00H, 'c', 00H, 'l'
	DB	00H, 'u', 00H, 'd', 00H, 'e', 00H, '\', 00H, 'l', 00H, 'i', 00H
	DB	's', 00H, 't', 00H, 00H, 00H			; `string'
CONST	ENDS
;	COMDAT ??_C@_0GF@CDIONFB@c?3?2program?5files?5?$CIx86?$CJ?2microsof@
CONST	SEGMENT
??_C@_0GF@CDIONFB@c?3?2program?5files?5?$CIx86?$CJ?2microsof@ DB 'c:\prog'
	DB	'ram files (x86)\microsoft visual studio\2017\community\vc\too'
	DB	'ls\msvc\14.15.26726\include\list', 00H	; `string'
CONST	ENDS
;	COMDAT ??_C@_0DB@ENBCPNKO@cannot?5increment?5value?9initiali@
CONST	SEGMENT
??_C@_0DB@ENBCPNKO@cannot?5increment?5value?9initiali@ DB 'cannot increme'
	DB	'nt value-initialized list iterator', 00H	; `string'
CONST	ENDS
;	COMDAT __CT??_R0?AVexception@std@@@8??0exception@std@@QAE@ABV01@@Z12
xdata$x	SEGMENT
__CT??_R0?AVexception@std@@@8??0exception@std@@QAE@ABV01@@Z12 DD 00H
	DD	FLAT:??_R0?AVexception@std@@@8
	DD	00H
	DD	0ffffffffH
	ORG $+4
	DD	0cH
	DD	FLAT:??0exception@std@@QAE@ABV01@@Z
xdata$x	ENDS
;	COMDAT ??_R0?AVexception@std@@@8
data$r	SEGMENT
??_R0?AVexception@std@@@8 DD FLAT:??_7type_info@@6B@	; std::exception `RTTI Type Descriptor'
	DD	00H
	DB	'.?AVexception@std@@', 00H
data$r	ENDS
;	COMDAT __CT??_R0?AVruntime_error@std@@@8??0runtime_error@std@@QAE@ABV01@@Z12
xdata$x	SEGMENT
__CT??_R0?AVruntime_error@std@@@8??0runtime_error@std@@QAE@ABV01@@Z12 DD 00H
	DD	FLAT:??_R0?AVruntime_error@std@@@8
	DD	00H
	DD	0ffffffffH
	ORG $+4
	DD	0cH
	DD	FLAT:??0runtime_error@std@@QAE@ABV01@@Z
xdata$x	ENDS
;	COMDAT ??_R0?AVruntime_error@std@@@8
data$r	SEGMENT
??_R0?AVruntime_error@std@@@8 DD FLAT:??_7type_info@@6B@ ; std::runtime_error `RTTI Type Descriptor'
	DD	00H
	DB	'.?AVruntime_error@std@@', 00H
data$r	ENDS
;	COMDAT __CTA2?AVruntime_error@std@@
xdata$x	SEGMENT
__CTA2?AVruntime_error@std@@ DD 02H
	DD	FLAT:__CT??_R0?AVruntime_error@std@@@8??0runtime_error@std@@QAE@ABV01@@Z12
	DD	FLAT:__CT??_R0?AVexception@std@@@8??0exception@std@@QAE@ABV01@@Z12
xdata$x	ENDS
;	COMDAT __TI2?AVruntime_error@std@@
xdata$x	SEGMENT
__TI2?AVruntime_error@std@@ DD 00H
	DD	FLAT:??1runtime_error@std@@UAE@XZ
	DD	00H
	DD	FLAT:__CTA2?AVruntime_error@std@@
xdata$x	ENDS
;	COMDAT ??_7runtime_error@std@@6B@
CONST	SEGMENT
??_7runtime_error@std@@6B@ DD FLAT:??_R4runtime_error@std@@6B@ ; std::runtime_error::`vftable'
	DD	FLAT:??_Eruntime_error@std@@UAEPAXI@Z
	DD	FLAT:?what@exception@std@@UBEPBDXZ
CONST	ENDS
;	COMDAT ??_C@_1EK@NIFDJFDG@?$AAs?$AAt?$AAd?$AA?3?$AA?3?$AA_?$AAA?$AAd?$AAj?$AAu?$AAs?$AAt?$AA_?$AAm?$AAa@
CONST	SEGMENT
??_C@_1EK@NIFDJFDG@?$AAs?$AAt?$AAd?$AA?3?$AA?3?$AA_?$AAA?$AAd?$AAj?$AAu?$AAs?$AAt?$AA_?$AAm?$AAa@ DB 's'
	DB	00H, 't', 00H, 'd', 00H, ':', 00H, ':', 00H, '_', 00H, 'A', 00H
	DB	'd', 00H, 'j', 00H, 'u', 00H, 's', 00H, 't', 00H, '_', 00H, 'm'
	DB	00H, 'a', 00H, 'n', 00H, 'u', 00H, 'a', 00H, 'l', 00H, 'l', 00H
	DB	'y', 00H, '_', 00H, 'v', 00H, 'e', 00H, 'c', 00H, 't', 00H, 'o'
	DB	00H, 'r', 00H, '_', 00H, 'a', 00H, 'l', 00H, 'i', 00H, 'g', 00H
	DB	'n', 00H, 'e', 00H, 'd', 00H, 00H, 00H	; `string'
CONST	ENDS
;	COMDAT ??_C@_1NC@ICJKIMIP@?$AAc?$AA?3?$AA?2?$AAp?$AAr?$AAo?$AAg?$AAr?$AAa?$AAm?$AA?5?$AAf?$AAi?$AAl?$AAe@
CONST	SEGMENT
??_C@_1NC@ICJKIMIP@?$AAc?$AA?3?$AA?2?$AAp?$AAr?$AAo?$AAg?$AAr?$AAa?$AAm?$AA?5?$AAf?$AAi?$AAl?$AAe@ DB 'c'
	DB	00H, ':', 00H, '\', 00H, 'p', 00H, 'r', 00H, 'o', 00H, 'g', 00H
	DB	'r', 00H, 'a', 00H, 'm', 00H, ' ', 00H, 'f', 00H, 'i', 00H, 'l'
	DB	00H, 'e', 00H, 's', 00H, ' ', 00H, '(', 00H, 'x', 00H, '8', 00H
	DB	'6', 00H, ')', 00H, '\', 00H, 'm', 00H, 'i', 00H, 'c', 00H, 'r'
	DB	00H, 'o', 00H, 's', 00H, 'o', 00H, 'f', 00H, 't', 00H, ' ', 00H
	DB	'v', 00H, 'i', 00H, 's', 00H, 'u', 00H, 'a', 00H, 'l', 00H, ' '
	DB	00H, 's', 00H, 't', 00H, 'u', 00H, 'd', 00H, 'i', 00H, 'o', 00H
	DB	'\', 00H, '2', 00H, '0', 00H, '1', 00H, '7', 00H, '\', 00H, 'c'
	DB	00H, 'o', 00H, 'm', 00H, 'm', 00H, 'u', 00H, 'n', 00H, 'i', 00H
	DB	't', 00H, 'y', 00H, '\', 00H, 'v', 00H, 'c', 00H, '\', 00H, 't'
	DB	00H, 'o', 00H, 'o', 00H, 'l', 00H, 's', 00H, '\', 00H, 'm', 00H
	DB	's', 00H, 'v', 00H, 'c', 00H, '\', 00H, '1', 00H, '4', 00H, '.'
	DB	00H, '1', 00H, '5', 00H, '.', 00H, '2', 00H, '6', 00H, '7', 00H
	DB	'2', 00H, '6', 00H, '\', 00H, 'i', 00H, 'n', 00H, 'c', 00H, 'l'
	DB	00H, 'u', 00H, 'd', 00H, 'e', 00H, '\', 00H, 'x', 00H, 'm', 00H
	DB	'e', 00H, 'm', 00H, 'o', 00H, 'r', 00H, 'y', 00H, '0', 00H, 00H
	DB	00H						; `string'
CONST	ENDS
;	COMDAT ??_C@_0GJ@CAJJPMGE@c?3?2program?5files?5?$CIx86?$CJ?2microsof@
CONST	SEGMENT
??_C@_0GJ@CAJJPMGE@c?3?2program?5files?5?$CIx86?$CJ?2microsof@ DB 'c:\pro'
	DB	'gram files (x86)\microsoft visual studio\2017\community\vc\to'
	DB	'ols\msvc\14.15.26726\include\xmemory0', 00H	; `string'
CONST	ENDS
;	COMDAT ??_C@_1DG@PLBPCAEM@?$AA?$CC?$AAI?$AAT?$AAE?$AAR?$AAA?$AAT?$AAO?$AAR?$AA?5?$AAL?$AAI?$AAS?$AAT?$AA?5@
CONST	SEGMENT
??_C@_1DG@PLBPCAEM@?$AA?$CC?$AAI?$AAT?$AAE?$AAR?$AAA?$AAT?$AAO?$AAR?$AA?5?$AAL?$AAI?$AAS?$AAT?$AA?5@ DB '"'
	DB	00H, 'I', 00H, 'T', 00H, 'E', 00H, 'R', 00H, 'A', 00H, 'T', 00H
	DB	'O', 00H, 'R', 00H, ' ', 00H, 'L', 00H, 'I', 00H, 'S', 00H, 'T'
	DB	00H, ' ', 00H, 'C', 00H, 'O', 00H, 'R', 00H, 'R', 00H, 'U', 00H
	DB	'P', 00H, 'T', 00H, 'E', 00H, 'D', 00H, '!', 00H, '"', 00H, 00H
	DB	00H						; `string'
CONST	ENDS
;	COMDAT ??_C@_1EE@KLDMFDFL@?$AAs?$AAt?$AAd?$AA?3?$AA?3?$AA_?$AAI?$AAt?$AAe?$AAr?$AAa?$AAt?$AAo?$AAr?$AA_@
CONST	SEGMENT
??_C@_1EE@KLDMFDFL@?$AAs?$AAt?$AAd?$AA?3?$AA?3?$AA_?$AAI?$AAt?$AAe?$AAr?$AAa?$AAt?$AAo?$AAr?$AA_@ DB 's'
	DB	00H, 't', 00H, 'd', 00H, ':', 00H, ':', 00H, '_', 00H, 'I', 00H
	DB	't', 00H, 'e', 00H, 'r', 00H, 'a', 00H, 't', 00H, 'o', 00H, 'r'
	DB	00H, '_', 00H, 'b', 00H, 'a', 00H, 's', 00H, 'e', 00H, '1', 00H
	DB	'2', 00H, ':', 00H, ':', 00H, '_', 00H, 'O', 00H, 'r', 00H, 'p'
	DB	00H, 'h', 00H, 'a', 00H, 'n', 00H, '_', 00H, 'm', 00H, 'e', 00H
	DB	00H, 00H					; `string'
CONST	ENDS
;	COMDAT ??_C@_1NC@HPHBFJCM@?$AAc?$AA?3?$AA?2?$AAp?$AAr?$AAo?$AAg?$AAr?$AAa?$AAm?$AA?5?$AAf?$AAi?$AAl?$AAe@
CONST	SEGMENT
??_C@_1NC@HPHBFJCM@?$AAc?$AA?3?$AA?2?$AAp?$AAr?$AAo?$AAg?$AAr?$AAa?$AAm?$AA?5?$AAf?$AAi?$AAl?$AAe@ DB 'c'
	DB	00H, ':', 00H, '\', 00H, 'p', 00H, 'r', 00H, 'o', 00H, 'g', 00H
	DB	'r', 00H, 'a', 00H, 'm', 00H, ' ', 00H, 'f', 00H, 'i', 00H, 'l'
	DB	00H, 'e', 00H, 's', 00H, ' ', 00H, '(', 00H, 'x', 00H, '8', 00H
	DB	'6', 00H, ')', 00H, '\', 00H, 'm', 00H, 'i', 00H, 'c', 00H, 'r'
	DB	00H, 'o', 00H, 's', 00H, 'o', 00H, 'f', 00H, 't', 00H, ' ', 00H
	DB	'v', 00H, 'i', 00H, 's', 00H, 'u', 00H, 'a', 00H, 'l', 00H, ' '
	DB	00H, 's', 00H, 't', 00H, 'u', 00H, 'd', 00H, 'i', 00H, 'o', 00H
	DB	'\', 00H, '2', 00H, '0', 00H, '1', 00H, '7', 00H, '\', 00H, 'c'
	DB	00H, 'o', 00H, 'm', 00H, 'm', 00H, 'u', 00H, 'n', 00H, 'i', 00H
	DB	't', 00H, 'y', 00H, '\', 00H, 'v', 00H, 'c', 00H, '\', 00H, 't'
	DB	00H, 'o', 00H, 'o', 00H, 'l', 00H, 's', 00H, '\', 00H, 'm', 00H
	DB	's', 00H, 'v', 00H, 'c', 00H, '\', 00H, '1', 00H, '4', 00H, '.'
	DB	00H, '1', 00H, '5', 00H, '.', 00H, '2', 00H, '6', 00H, '7', 00H
	DB	'2', 00H, '6', 00H, '\', 00H, 'i', 00H, 'n', 00H, 'c', 00H, 'l'
	DB	00H, 'u', 00H, 'd', 00H, 'e', 00H, '\', 00H, 'x', 00H, 'u', 00H
	DB	't', 00H, 'i', 00H, 'l', 00H, 'i', 00H, 't', 00H, 'y', 00H, 00H
	DB	00H						; `string'
CONST	ENDS
;	COMDAT ??_C@_0GJ@DMCEMOMH@c?3?2program?5files?5?$CIx86?$CJ?2microsof@
CONST	SEGMENT
??_C@_0GJ@DMCEMOMH@c?3?2program?5files?5?$CIx86?$CJ?2microsof@ DB 'c:\pro'
	DB	'gram files (x86)\microsoft visual studio\2017\community\vc\to'
	DB	'ols\msvc\14.15.26726\include\xutility', 00H	; `string'
CONST	ENDS
;	COMDAT ??_C@_0BJ@LFDBABJJ@ITERATOR?5LIST?5CORRUPTED?$CB@
CONST	SEGMENT
??_C@_0BJ@LFDBABJJ@ITERATOR?5LIST?5CORRUPTED?$CB@ DB 'ITERATOR LIST CORRU'
	DB	'PTED!', 00H					; `string'
CONST	ENDS
;	COMDAT ??_C@_1CG@JNLFBNGN@?$AA?$CC?$AAi?$AAn?$AAv?$AAa?$AAl?$AAi?$AAd?$AA?5?$AAa?$AAr?$AAg?$AAu?$AAm?$AAe@
CONST	SEGMENT
??_C@_1CG@JNLFBNGN@?$AA?$CC?$AAi?$AAn?$AAv?$AAa?$AAl?$AAi?$AAd?$AA?5?$AAa?$AAr?$AAg?$AAu?$AAm?$AAe@ DB '"'
	DB	00H, 'i', 00H, 'n', 00H, 'v', 00H, 'a', 00H, 'l', 00H, 'i', 00H
	DB	'd', 00H, ' ', 00H, 'a', 00H, 'r', 00H, 'g', 00H, 'u', 00H, 'm'
	DB	00H, 'e', 00H, 'n', 00H, 't', 00H, '"', 00H, 00H, 00H ; `string'
CONST	ENDS
;	COMDAT ??_C@_02DKCKIIND@?$CFs@
CONST	SEGMENT
??_C@_02DKCKIIND@?$CFs@ DB '%s', 00H			; `string'
CONST	ENDS
;	COMDAT ??_C@_0BB@FCMFBGOM@invalid?5argument@
CONST	SEGMENT
??_C@_0BB@FCMFBGOM@invalid?5argument@ DB 'invalid argument', 00H ; `string'
CONST	ENDS
;	COMDAT ??_C@_0BC@EOODALEL@Unknown?5exception@
CONST	SEGMENT
??_C@_0BC@EOODALEL@Unknown?5exception@ DB 'Unknown exception', 00H ; `string'
CONST	ENDS
;	COMDAT ??_7exception@std@@6B@
CONST	SEGMENT
??_7exception@std@@6B@ DD FLAT:??_R4exception@std@@6B@	; std::exception::`vftable'
	DD	FLAT:??_Eexception@std@@UAEPAXI@Z
	DD	FLAT:?what@exception@std@@UBEPBDXZ
CONST	ENDS
;	COMDAT xdata$x
xdata$x	SEGMENT
__catchsym$??$_Insert_nohint@AAU?$pair@QAVRaven_Bot@@VMemoryRecord@@@std@@PAU?$_Tree_node@U?$pair@QAVRaven_Bot@@VMemoryRecord@@@std@@PAX@2@@?$_Tree@V?$_Tmap_traits@PAVRaven_Bot@@VMemoryRecord@@U?$less@PAVRaven_Bot@@@std@@V?$allocator@U?$pair@QAVRaven_Bot@@VMemoryRecord@@@std@@@4@$0A@@std@@@std@@IAE?AU?$pair@V?$_Tree_iterator@V?$_Tree_val@U?$_Tree_simple_types@U?$pair@QAVRaven_Bot@@VMemoryRecord@@@std@@@std@@@std@@@std@@_N@1@_NAAU?$pair@QAVRaven_Bot@@VMemoryRecord@@@1@PAU?$_Tree_node@U?$pair@QAVRaven_Bot@@VMemoryRecord@@@std@@PAX@1@@Z$8 DD 040H
	DD	00H
	DD	00H
	DD	FLAT:__catch$??$_Insert_nohint@AAU?$pair@QAVRaven_Bot@@VMemoryRecord@@@std@@PAU?$_Tree_node@U?$pair@QAVRaven_Bot@@VMemoryRecord@@@std@@PAX@2@@?$_Tree@V?$_Tmap_traits@PAVRaven_Bot@@VMemoryRecord@@U?$less@PAVRaven_Bot@@@std@@V?$allocator@U?$pair@QAVRaven_Bot@@VMemoryRecord@@@std@@@4@$0A@@std@@@std@@IAE?AU?$pair@V?$_Tree_iterator@V?$_Tree_val@U?$_Tree_simple_types@U?$pair@QAVRaven_Bot@@VMemoryRecord@@@std@@@std@@@std@@@std@@_N@1@_NAAU?$pair@QAVRaven_Bot@@VMemoryRecord@@@1@PAU?$_Tree_node@U?$pair@QAVRaven_Bot@@VMemoryRecord@@@std@@PAX@1@@Z$0
__tryblocktable$??$_Insert_nohint@AAU?$pair@QAVRaven_Bot@@VMemoryRecord@@@std@@PAU?$_Tree_node@U?$pair@QAVRaven_Bot@@VMemoryRecord@@@std@@PAX@2@@?$_Tree@V?$_Tmap_traits@PAVRaven_Bot@@VMemoryRecord@@U?$less@PAVRaven_Bot@@@std@@V?$allocator@U?$pair@QAVRaven_Bot@@VMemoryRecord@@@std@@@4@$0A@@std@@@std@@IAE?AU?$pair@V?$_Tree_iterator@V?$_Tree_val@U?$_Tree_simple_types@U?$pair@QAVRaven_Bot@@VMemoryRecord@@@std@@@std@@@std@@@std@@_N@1@_NAAU?$pair@QAVRaven_Bot@@VMemoryRecord@@@1@PAU?$_Tree_node@U?$pair@QAVRaven_Bot@@VMemoryRecord@@@std@@PAX@1@@Z DD 00H
	DD	02H
	DD	03H
	DD	01H
	DD	FLAT:__catchsym$??$_Insert_nohint@AAU?$pair@QAVRaven_Bot@@VMemoryRecord@@@std@@PAU?$_Tree_node@U?$pair@QAVRaven_Bot@@VMemoryRecord@@@std@@PAX@2@@?$_Tree@V?$_Tmap_traits@PAVRaven_Bot@@VMemoryRecord@@U?$less@PAVRaven_Bot@@@std@@V?$allocator@U?$pair@QAVRaven_Bot@@VMemoryRecord@@@std@@@4@$0A@@std@@@std@@IAE?AU?$pair@V?$_Tree_iterator@V?$_Tree_val@U?$_Tree_simple_types@U?$pair@QAVRaven_Bot@@VMemoryRecord@@@std@@@std@@@std@@@std@@_N@1@_NAAU?$pair@QAVRaven_Bot@@VMemoryRecord@@@1@PAU?$_Tree_node@U?$pair@QAVRaven_Bot@@VMemoryRecord@@@std@@PAX@1@@Z$8
__unwindtable$??$_Insert_nohint@AAU?$pair@QAVRaven_Bot@@VMemoryRecord@@@std@@PAU?$_Tree_node@U?$pair@QAVRaven_Bot@@VMemoryRecord@@@std@@PAX@2@@?$_Tree@V?$_Tmap_traits@PAVRaven_Bot@@VMemoryRecord@@U?$less@PAVRaven_Bot@@@std@@V?$allocator@U?$pair@QAVRaven_Bot@@VMemoryRecord@@@std@@@4@$0A@@std@@@std@@IAE?AU?$pair@V?$_Tree_iterator@V?$_Tree_val@U?$_Tree_simple_types@U?$pair@QAVRaven_Bot@@VMemoryRecord@@@std@@@std@@@std@@@std@@_N@1@_NAAU?$pair@QAVRaven_Bot@@VMemoryRecord@@@1@PAU?$_Tree_node@U?$pair@QAVRaven_Bot@@VMemoryRecord@@@std@@PAX@1@@Z DD 0ffffffffH
	DD	00H
	DD	00H
	DD	FLAT:__unwindfunclet$??$_Insert_nohint@AAU?$pair@QAVRaven_Bot@@VMemoryRecord@@@std@@PAU?$_Tree_node@U?$pair@QAVRaven_Bot@@VMemoryRecord@@@std@@PAX@2@@?$_Tree@V?$_Tmap_traits@PAVRaven_Bot@@VMemoryRecord@@U?$less@PAVRaven_Bot@@@std@@V?$allocator@U?$pair@QAVRaven_Bot@@VMemoryRecord@@@std@@@4@$0A@@std@@@std@@IAE?AU?$pair@V?$_Tree_iterator@V?$_Tree_val@U?$_Tree_simple_types@U?$pair@QAVRaven_Bot@@VMemoryRecord@@@std@@@std@@@std@@@std@@_N@1@_NAAU?$pair@QAVRaven_Bot@@VMemoryRecord@@@1@PAU?$_Tree_node@U?$pair@QAVRaven_Bot@@VMemoryRecord@@@std@@PAX@1@@Z$4
	DD	01H
	DD	FLAT:__unwindfunclet$??$_Insert_nohint@AAU?$pair@QAVRaven_Bot@@VMemoryRecord@@@std@@PAU?$_Tree_node@U?$pair@QAVRaven_Bot@@VMemoryRecord@@@std@@PAX@2@@?$_Tree@V?$_Tmap_traits@PAVRaven_Bot@@VMemoryRecord@@U?$less@PAVRaven_Bot@@@std@@V?$allocator@U?$pair@QAVRaven_Bot@@VMemoryRecord@@@std@@@4@$0A@@std@@@std@@IAE?AU?$pair@V?$_Tree_iterator@V?$_Tree_val@U?$_Tree_simple_types@U?$pair@QAVRaven_Bot@@VMemoryRecord@@@std@@@std@@@std@@@std@@_N@1@_NAAU?$pair@QAVRaven_Bot@@VMemoryRecord@@@1@PAU?$_Tree_node@U?$pair@QAVRaven_Bot@@VMemoryRecord@@@std@@PAX@1@@Z$5
	DD	0ffffffffH
	DD	00H
__ehfuncinfo$??$_Insert_nohint@AAU?$pair@QAVRaven_Bot@@VMemoryRecord@@@std@@PAU?$_Tree_node@U?$pair@QAVRaven_Bot@@VMemoryRecord@@@std@@PAX@2@@?$_Tree@V?$_Tmap_traits@PAVRaven_Bot@@VMemoryRecord@@U?$less@PAVRaven_Bot@@@std@@V?$allocator@U?$pair@QAVRaven_Bot@@VMemoryRecord@@@std@@@4@$0A@@std@@@std@@IAE?AU?$pair@V?$_Tree_iterator@V?$_Tree_val@U?$_Tree_simple_types@U?$pair@QAVRaven_Bot@@VMemoryRecord@@@std@@@std@@@std@@@std@@_N@1@_NAAU?$pair@QAVRaven_Bot@@VMemoryRecord@@@1@PAU?$_Tree_node@U?$pair@QAVRaven_Bot@@VMemoryRecord@@@std@@PAX@1@@Z DD 019930522H
	DD	04H
	DD	FLAT:__unwindtable$??$_Insert_nohint@AAU?$pair@QAVRaven_Bot@@VMemoryRecord@@@std@@PAU?$_Tree_node@U?$pair@QAVRaven_Bot@@VMemoryRecord@@@std@@PAX@2@@?$_Tree@V?$_Tmap_traits@PAVRaven_Bot@@VMemoryRecord@@U?$less@PAVRaven_Bot@@@std@@V?$allocator@U?$pair@QAVRaven_Bot@@VMemoryRecord@@@std@@@4@$0A@@std@@@std@@IAE?AU?$pair@V?$_Tree_iterator@V?$_Tree_val@U?$_Tree_simple_types@U?$pair@QAVRaven_Bot@@VMemoryRecord@@@std@@@std@@@std@@@std@@_N@1@_NAAU?$pair@QAVRaven_Bot@@VMemoryRecord@@@1@PAU?$_Tree_node@U?$pair@QAVRaven_Bot@@VMemoryRecord@@@std@@PAX@1@@Z
	DD	01H
	DD	FLAT:__tryblocktable$??$_Insert_nohint@AAU?$pair@QAVRaven_Bot@@VMemoryRecord@@@std@@PAU?$_Tree_node@U?$pair@QAVRaven_Bot@@VMemoryRecord@@@std@@PAX@2@@?$_Tree@V?$_Tmap_traits@PAVRaven_Bot@@VMemoryRecord@@U?$less@PAVRaven_Bot@@@std@@V?$allocator@U?$pair@QAVRaven_Bot@@VMemoryRecord@@@std@@@4@$0A@@std@@@std@@IAE?AU?$pair@V?$_Tree_iterator@V?$_Tree_val@U?$_Tree_simple_types@U?$pair@QAVRaven_Bot@@VMemoryRecord@@@std@@@std@@@std@@@std@@_N@1@_NAAU?$pair@QAVRaven_Bot@@VMemoryRecord@@@1@PAU?$_Tree_node@U?$pair@QAVRaven_Bot@@VMemoryRecord@@@std@@PAX@1@@Z
	DD	2 DUP(00H)
	DD	00H
	DD	01H
xdata$x	ENDS
;	COMDAT xdata$x
xdata$x	SEGMENT
__catchsym$??$_Insert_hint@AAU?$pair@QAVRaven_Bot@@VMemoryRecord@@@std@@PAU?$_Tree_node@U?$pair@QAVRaven_Bot@@VMemoryRecord@@@std@@PAX@2@@?$_Tree@V?$_Tmap_traits@PAVRaven_Bot@@VMemoryRecord@@U?$less@PAVRaven_Bot@@@std@@V?$allocator@U?$pair@QAVRaven_Bot@@VMemoryRecord@@@std@@@4@$0A@@std@@@std@@IAE?AV?$_Tree_iterator@V?$_Tree_val@U?$_Tree_simple_types@U?$pair@QAVRaven_Bot@@VMemoryRecord@@@std@@@std@@@std@@@1@V?$_Tree_const_iterator@V?$_Tree_val@U?$_Tree_simple_types@U?$pair@QAVRaven_Bot@@VMemoryRecord@@@std@@@std@@@std@@@1@AAU?$pair@QAVRaven_Bot@@VMemoryRecord@@@1@PAU?$_Tree_node@U?$pair@QAVRaven_Bot@@VMemoryRecord@@@std@@PAX@1@@Z$12 DD 040H
	DD	00H
	DD	00H
	DD	FLAT:__catch$??$_Insert_hint@AAU?$pair@QAVRaven_Bot@@VMemoryRecord@@@std@@PAU?$_Tree_node@U?$pair@QAVRaven_Bot@@VMemoryRecord@@@std@@PAX@2@@?$_Tree@V?$_Tmap_traits@PAVRaven_Bot@@VMemoryRecord@@U?$less@PAVRaven_Bot@@@std@@V?$allocator@U?$pair@QAVRaven_Bot@@VMemoryRecord@@@std@@@4@$0A@@std@@@std@@IAE?AV?$_Tree_iterator@V?$_Tree_val@U?$_Tree_simple_types@U?$pair@QAVRaven_Bot@@VMemoryRecord@@@std@@@std@@@std@@@1@V?$_Tree_const_iterator@V?$_Tree_val@U?$_Tree_simple_types@U?$pair@QAVRaven_Bot@@VMemoryRecord@@@std@@@std@@@std@@@1@AAU?$pair@QAVRaven_Bot@@VMemoryRecord@@@1@PAU?$_Tree_node@U?$pair@QAVRaven_Bot@@VMemoryRecord@@@std@@PAX@1@@Z$0
__tryblocktable$??$_Insert_hint@AAU?$pair@QAVRaven_Bot@@VMemoryRecord@@@std@@PAU?$_Tree_node@U?$pair@QAVRaven_Bot@@VMemoryRecord@@@std@@PAX@2@@?$_Tree@V?$_Tmap_traits@PAVRaven_Bot@@VMemoryRecord@@U?$less@PAVRaven_Bot@@@std@@V?$allocator@U?$pair@QAVRaven_Bot@@VMemoryRecord@@@std@@@4@$0A@@std@@@std@@IAE?AV?$_Tree_iterator@V?$_Tree_val@U?$_Tree_simple_types@U?$pair@QAVRaven_Bot@@VMemoryRecord@@@std@@@std@@@std@@@1@V?$_Tree_const_iterator@V?$_Tree_val@U?$_Tree_simple_types@U?$pair@QAVRaven_Bot@@VMemoryRecord@@@std@@@std@@@std@@@1@AAU?$pair@QAVRaven_Bot@@VMemoryRecord@@@1@PAU?$_Tree_node@U?$pair@QAVRaven_Bot@@VMemoryRecord@@@std@@PAX@1@@Z DD 02H
	DD	08H
	DD	09H
	DD	01H
	DD	FLAT:__catchsym$??$_Insert_hint@AAU?$pair@QAVRaven_Bot@@VMemoryRecord@@@std@@PAU?$_Tree_node@U?$pair@QAVRaven_Bot@@VMemoryRecord@@@std@@PAX@2@@?$_Tree@V?$_Tmap_traits@PAVRaven_Bot@@VMemoryRecord@@U?$less@PAVRaven_Bot@@@std@@V?$allocator@U?$pair@QAVRaven_Bot@@VMemoryRecord@@@std@@@4@$0A@@std@@@std@@IAE?AV?$_Tree_iterator@V?$_Tree_val@U?$_Tree_simple_types@U?$pair@QAVRaven_Bot@@VMemoryRecord@@@std@@@std@@@std@@@1@V?$_Tree_const_iterator@V?$_Tree_val@U?$_Tree_simple_types@U?$pair@QAVRaven_Bot@@VMemoryRecord@@@std@@@std@@@std@@@1@AAU?$pair@QAVRaven_Bot@@VMemoryRecord@@@1@PAU?$_Tree_node@U?$pair@QAVRaven_Bot@@VMemoryRecord@@@std@@PAX@1@@Z$12
__ehfuncinfo$??$_Insert_hint@AAU?$pair@QAVRaven_Bot@@VMemoryRecord@@@std@@PAU?$_Tree_node@U?$pair@QAVRaven_Bot@@VMemoryRecord@@@std@@PAX@2@@?$_Tree@V?$_Tmap_traits@PAVRaven_Bot@@VMemoryRecord@@U?$less@PAVRaven_Bot@@@std@@V?$allocator@U?$pair@QAVRaven_Bot@@VMemoryRecord@@@std@@@4@$0A@@std@@@std@@IAE?AV?$_Tree_iterator@V?$_Tree_val@U?$_Tree_simple_types@U?$pair@QAVRaven_Bot@@VMemoryRecord@@@std@@@std@@@std@@@1@V?$_Tree_const_iterator@V?$_Tree_val@U?$_Tree_simple_types@U?$pair@QAVRaven_Bot@@VMemoryRecord@@@std@@@std@@@std@@@1@AAU?$pair@QAVRaven_Bot@@VMemoryRecord@@@1@PAU?$_Tree_node@U?$pair@QAVRaven_Bot@@VMemoryRecord@@@std@@PAX@1@@Z DD 019930522H
	DD	0aH
	DD	FLAT:__unwindtable$??$_Insert_hint@AAU?$pair@QAVRaven_Bot@@VMemoryRecord@@@std@@PAU?$_Tree_node@U?$pair@QAVRaven_Bot@@VMemoryRecord@@@std@@PAX@2@@?$_Tree@V?$_Tmap_traits@PAVRaven_Bot@@VMemoryRecord@@U?$less@PAVRaven_Bot@@@std@@V?$allocator@U?$pair@QAVRaven_Bot@@VMemoryRecord@@@std@@@4@$0A@@std@@@std@@IAE?AV?$_Tree_iterator@V?$_Tree_val@U?$_Tree_simple_types@U?$pair@QAVRaven_Bot@@VMemoryRecord@@@std@@@std@@@std@@@1@V?$_Tree_const_iterator@V?$_Tree_val@U?$_Tree_simple_types@U?$pair@QAVRaven_Bot@@VMemoryRecord@@@std@@@std@@@std@@@1@AAU?$pair@QAVRaven_Bot@@VMemoryRecord@@@1@PAU?$_Tree_node@U?$pair@QAVRaven_Bot@@VMemoryRecord@@@std@@PAX@1@@Z
	DD	01H
	DD	FLAT:__tryblocktable$??$_Insert_hint@AAU?$pair@QAVRaven_Bot@@VMemoryRecord@@@std@@PAU?$_Tree_node@U?$pair@QAVRaven_Bot@@VMemoryRecord@@@std@@PAX@2@@?$_Tree@V?$_Tmap_traits@PAVRaven_Bot@@VMemoryRecord@@U?$less@PAVRaven_Bot@@@std@@V?$allocator@U?$pair@QAVRaven_Bot@@VMemoryRecord@@@std@@@4@$0A@@std@@@std@@IAE?AV?$_Tree_iterator@V?$_Tree_val@U?$_Tree_simple_types@U?$pair@QAVRaven_Bot@@VMemoryRecord@@@std@@@std@@@std@@@1@V?$_Tree_const_iterator@V?$_Tree_val@U?$_Tree_simple_types@U?$pair@QAVRaven_Bot@@VMemoryRecord@@@std@@@std@@@std@@@1@AAU?$pair@QAVRaven_Bot@@VMemoryRecord@@@1@PAU?$_Tree_node@U?$pair@QAVRaven_Bot@@VMemoryRecord@@@std@@PAX@1@@Z
	DD	2 DUP(00H)
	DD	00H
	DD	01H
__unwindtable$??$_Insert_hint@AAU?$pair@QAVRaven_Bot@@VMemoryRecord@@@std@@PAU?$_Tree_node@U?$pair@QAVRaven_Bot@@VMemoryRecord@@@std@@PAX@2@@?$_Tree@V?$_Tmap_traits@PAVRaven_Bot@@VMemoryRecord@@U?$less@PAVRaven_Bot@@@std@@V?$allocator@U?$pair@QAVRaven_Bot@@VMemoryRecord@@@std@@@4@$0A@@std@@@std@@IAE?AV?$_Tree_iterator@V?$_Tree_val@U?$_Tree_simple_types@U?$pair@QAVRaven_Bot@@VMemoryRecord@@@std@@@std@@@std@@@1@V?$_Tree_const_iterator@V?$_Tree_val@U?$_Tree_simple_types@U?$pair@QAVRaven_Bot@@VMemoryRecord@@@std@@@std@@@std@@@1@AAU?$pair@QAVRaven_Bot@@VMemoryRecord@@@1@PAU?$_Tree_node@U?$pair@QAVRaven_Bot@@VMemoryRecord@@@std@@PAX@1@@Z DD 0ffffffffH
	DD	FLAT:__unwindfunclet$??$_Insert_hint@AAU?$pair@QAVRaven_Bot@@VMemoryRecord@@@std@@PAU?$_Tree_node@U?$pair@QAVRaven_Bot@@VMemoryRecord@@@std@@PAX@2@@?$_Tree@V?$_Tmap_traits@PAVRaven_Bot@@VMemoryRecord@@U?$less@PAVRaven_Bot@@@std@@V?$allocator@U?$pair@QAVRaven_Bot@@VMemoryRecord@@@std@@@4@$0A@@std@@@std@@IAE?AV?$_Tree_iterator@V?$_Tree_val@U?$_Tree_simple_types@U?$pair@QAVRaven_Bot@@VMemoryRecord@@@std@@@std@@@std@@@1@V?$_Tree_const_iterator@V?$_Tree_val@U?$_Tree_simple_types@U?$pair@QAVRaven_Bot@@VMemoryRecord@@@std@@@std@@@std@@@1@AAU?$pair@QAVRaven_Bot@@VMemoryRecord@@@1@PAU?$_Tree_node@U?$pair@QAVRaven_Bot@@VMemoryRecord@@@std@@PAX@1@@Z$2
	DD	00H
	DD	FLAT:__unwindfunclet$??$_Insert_hint@AAU?$pair@QAVRaven_Bot@@VMemoryRecord@@@std@@PAU?$_Tree_node@U?$pair@QAVRaven_Bot@@VMemoryRecord@@@std@@PAX@2@@?$_Tree@V?$_Tmap_traits@PAVRaven_Bot@@VMemoryRecord@@U?$less@PAVRaven_Bot@@@std@@V?$allocator@U?$pair@QAVRaven_Bot@@VMemoryRecord@@@std@@@4@$0A@@std@@@std@@IAE?AV?$_Tree_iterator@V?$_Tree_val@U?$_Tree_simple_types@U?$pair@QAVRaven_Bot@@VMemoryRecord@@@std@@@std@@@std@@@1@V?$_Tree_const_iterator@V?$_Tree_val@U?$_Tree_simple_types@U?$pair@QAVRaven_Bot@@VMemoryRecord@@@std@@@std@@@std@@@1@AAU?$pair@QAVRaven_Bot@@VMemoryRecord@@@1@PAU?$_Tree_node@U?$pair@QAVRaven_Bot@@VMemoryRecord@@@std@@PAX@1@@Z$3
	DD	01H
	DD	00H
	DD	02H
	DD	FLAT:__unwindfunclet$??$_Insert_hint@AAU?$pair@QAVRaven_Bot@@VMemoryRecord@@@std@@PAU?$_Tree_node@U?$pair@QAVRaven_Bot@@VMemoryRecord@@@std@@PAX@2@@?$_Tree@V?$_Tmap_traits@PAVRaven_Bot@@VMemoryRecord@@U?$less@PAVRaven_Bot@@@std@@V?$allocator@U?$pair@QAVRaven_Bot@@VMemoryRecord@@@std@@@4@$0A@@std@@@std@@IAE?AV?$_Tree_iterator@V?$_Tree_val@U?$_Tree_simple_types@U?$pair@QAVRaven_Bot@@VMemoryRecord@@@std@@@std@@@std@@@1@V?$_Tree_const_iterator@V?$_Tree_val@U?$_Tree_simple_types@U?$pair@QAVRaven_Bot@@VMemoryRecord@@@std@@@std@@@std@@@1@AAU?$pair@QAVRaven_Bot@@VMemoryRecord@@@1@PAU?$_Tree_node@U?$pair@QAVRaven_Bot@@VMemoryRecord@@@std@@PAX@1@@Z$5
	DD	02H
	DD	FLAT:__unwindfunclet$??$_Insert_hint@AAU?$pair@QAVRaven_Bot@@VMemoryRecord@@@std@@PAU?$_Tree_node@U?$pair@QAVRaven_Bot@@VMemoryRecord@@@std@@PAX@2@@?$_Tree@V?$_Tmap_traits@PAVRaven_Bot@@VMemoryRecord@@U?$less@PAVRaven_Bot@@@std@@V?$allocator@U?$pair@QAVRaven_Bot@@VMemoryRecord@@@std@@@4@$0A@@std@@@std@@IAE?AV?$_Tree_iterator@V?$_Tree_val@U?$_Tree_simple_types@U?$pair@QAVRaven_Bot@@VMemoryRecord@@@std@@@std@@@std@@@1@V?$_Tree_const_iterator@V?$_Tree_val@U?$_Tree_simple_types@U?$pair@QAVRaven_Bot@@VMemoryRecord@@@std@@@std@@@std@@@1@AAU?$pair@QAVRaven_Bot@@VMemoryRecord@@@1@PAU?$_Tree_node@U?$pair@QAVRaven_Bot@@VMemoryRecord@@@std@@PAX@1@@Z$6
	DD	02H
	DD	FLAT:__unwindfunclet$??$_Insert_hint@AAU?$pair@QAVRaven_Bot@@VMemoryRecord@@@std@@PAU?$_Tree_node@U?$pair@QAVRaven_Bot@@VMemoryRecord@@@std@@PAX@2@@?$_Tree@V?$_Tmap_traits@PAVRaven_Bot@@VMemoryRecord@@U?$less@PAVRaven_Bot@@@std@@V?$allocator@U?$pair@QAVRaven_Bot@@VMemoryRecord@@@std@@@4@$0A@@std@@@std@@IAE?AV?$_Tree_iterator@V?$_Tree_val@U?$_Tree_simple_types@U?$pair@QAVRaven_Bot@@VMemoryRecord@@@std@@@std@@@std@@@1@V?$_Tree_const_iterator@V?$_Tree_val@U?$_Tree_simple_types@U?$pair@QAVRaven_Bot@@VMemoryRecord@@@std@@@std@@@std@@@1@AAU?$pair@QAVRaven_Bot@@VMemoryRecord@@@1@PAU?$_Tree_node@U?$pair@QAVRaven_Bot@@VMemoryRecord@@@std@@PAX@1@@Z$7
	DD	02H
	DD	FLAT:__unwindfunclet$??$_Insert_hint@AAU?$pair@QAVRaven_Bot@@VMemoryRecord@@@std@@PAU?$_Tree_node@U?$pair@QAVRaven_Bot@@VMemoryRecord@@@std@@PAX@2@@?$_Tree@V?$_Tmap_traits@PAVRaven_Bot@@VMemoryRecord@@U?$less@PAVRaven_Bot@@@std@@V?$allocator@U?$pair@QAVRaven_Bot@@VMemoryRecord@@@std@@@4@$0A@@std@@@std@@IAE?AV?$_Tree_iterator@V?$_Tree_val@U?$_Tree_simple_types@U?$pair@QAVRaven_Bot@@VMemoryRecord@@@std@@@std@@@std@@@1@V?$_Tree_const_iterator@V?$_Tree_val@U?$_Tree_simple_types@U?$pair@QAVRaven_Bot@@VMemoryRecord@@@std@@@std@@@std@@@1@AAU?$pair@QAVRaven_Bot@@VMemoryRecord@@@1@PAU?$_Tree_node@U?$pair@QAVRaven_Bot@@VMemoryRecord@@@std@@PAX@1@@Z$8
	DD	02H
	DD	FLAT:__unwindfunclet$??$_Insert_hint@AAU?$pair@QAVRaven_Bot@@VMemoryRecord@@@std@@PAU?$_Tree_node@U?$pair@QAVRaven_Bot@@VMemoryRecord@@@std@@PAX@2@@?$_Tree@V?$_Tmap_traits@PAVRaven_Bot@@VMemoryRecord@@U?$less@PAVRaven_Bot@@@std@@V?$allocator@U?$pair@QAVRaven_Bot@@VMemoryRecord@@@std@@@4@$0A@@std@@@std@@IAE?AV?$_Tree_iterator@V?$_Tree_val@U?$_Tree_simple_types@U?$pair@QAVRaven_Bot@@VMemoryRecord@@@std@@@std@@@std@@@1@V?$_Tree_const_iterator@V?$_Tree_val@U?$_Tree_simple_types@U?$pair@QAVRaven_Bot@@VMemoryRecord@@@std@@@std@@@std@@@1@AAU?$pair@QAVRaven_Bot@@VMemoryRecord@@@1@PAU?$_Tree_node@U?$pair@QAVRaven_Bot@@VMemoryRecord@@@std@@PAX@1@@Z$9
	DD	02H
	DD	FLAT:__unwindfunclet$??$_Insert_hint@AAU?$pair@QAVRaven_Bot@@VMemoryRecord@@@std@@PAU?$_Tree_node@U?$pair@QAVRaven_Bot@@VMemoryRecord@@@std@@PAX@2@@?$_Tree@V?$_Tmap_traits@PAVRaven_Bot@@VMemoryRecord@@U?$less@PAVRaven_Bot@@@std@@V?$allocator@U?$pair@QAVRaven_Bot@@VMemoryRecord@@@std@@@4@$0A@@std@@@std@@IAE?AV?$_Tree_iterator@V?$_Tree_val@U?$_Tree_simple_types@U?$pair@QAVRaven_Bot@@VMemoryRecord@@@std@@@std@@@std@@@1@V?$_Tree_const_iterator@V?$_Tree_val@U?$_Tree_simple_types@U?$pair@QAVRaven_Bot@@VMemoryRecord@@@std@@@std@@@std@@@1@AAU?$pair@QAVRaven_Bot@@VMemoryRecord@@@1@PAU?$_Tree_node@U?$pair@QAVRaven_Bot@@VMemoryRecord@@@std@@PAX@1@@Z$10
	DD	01H
	DD	00H
xdata$x	ENDS
;	COMDAT xdata$x
xdata$x	SEGMENT
__catchsym$??$_Buynode@ABUpiecewise_construct_t@std@@V?$tuple@ABQAVRaven_Bot@@@2@V?$tuple@$$V@2@@?$_Tree_comp_alloc@V?$_Tmap_traits@PAVRaven_Bot@@VMemoryRecord@@U?$less@PAVRaven_Bot@@@std@@V?$allocator@U?$pair@QAVRaven_Bot@@VMemoryRecord@@@std@@@4@$0A@@std@@@std@@QAEPAU?$_Tree_node@U?$pair@QAVRaven_Bot@@VMemoryRecord@@@std@@PAX@1@ABUpiecewise_construct_t@1@$$QAV?$tuple@ABQAVRaven_Bot@@@1@$$QAV?$tuple@$$V@1@@Z$2 DD 040H
	DD	00H
	DD	00H
	DD	FLAT:__catch$??$_Buynode@ABUpiecewise_construct_t@std@@V?$tuple@ABQAVRaven_Bot@@@2@V?$tuple@$$V@2@@?$_Tree_comp_alloc@V?$_Tmap_traits@PAVRaven_Bot@@VMemoryRecord@@U?$less@PAVRaven_Bot@@@std@@V?$allocator@U?$pair@QAVRaven_Bot@@VMemoryRecord@@@std@@@4@$0A@@std@@@std@@QAEPAU?$_Tree_node@U?$pair@QAVRaven_Bot@@VMemoryRecord@@@std@@PAX@1@ABUpiecewise_construct_t@1@$$QAV?$tuple@ABQAVRaven_Bot@@@1@$$QAV?$tuple@$$V@1@@Z$0
__unwindtable$??$_Buynode@ABUpiecewise_construct_t@std@@V?$tuple@ABQAVRaven_Bot@@@2@V?$tuple@$$V@2@@?$_Tree_comp_alloc@V?$_Tmap_traits@PAVRaven_Bot@@VMemoryRecord@@U?$less@PAVRaven_Bot@@@std@@V?$allocator@U?$pair@QAVRaven_Bot@@VMemoryRecord@@@std@@@4@$0A@@std@@@std@@QAEPAU?$_Tree_node@U?$pair@QAVRaven_Bot@@VMemoryRecord@@@std@@PAX@1@ABUpiecewise_construct_t@1@$$QAV?$tuple@ABQAVRaven_Bot@@@1@$$QAV?$tuple@$$V@1@@Z DD 0ffffffffH
	DD	00H
	DD	0ffffffffH
	DD	00H
__tryblocktable$??$_Buynode@ABUpiecewise_construct_t@std@@V?$tuple@ABQAVRaven_Bot@@@2@V?$tuple@$$V@2@@?$_Tree_comp_alloc@V?$_Tmap_traits@PAVRaven_Bot@@VMemoryRecord@@U?$less@PAVRaven_Bot@@@std@@V?$allocator@U?$pair@QAVRaven_Bot@@VMemoryRecord@@@std@@@4@$0A@@std@@@std@@QAEPAU?$_Tree_node@U?$pair@QAVRaven_Bot@@VMemoryRecord@@@std@@PAX@1@ABUpiecewise_construct_t@1@$$QAV?$tuple@ABQAVRaven_Bot@@@1@$$QAV?$tuple@$$V@1@@Z DD 00H
	DD	00H
	DD	01H
	DD	01H
	DD	FLAT:__catchsym$??$_Buynode@ABUpiecewise_construct_t@std@@V?$tuple@ABQAVRaven_Bot@@@2@V?$tuple@$$V@2@@?$_Tree_comp_alloc@V?$_Tmap_traits@PAVRaven_Bot@@VMemoryRecord@@U?$less@PAVRaven_Bot@@@std@@V?$allocator@U?$pair@QAVRaven_Bot@@VMemoryRecord@@@std@@@4@$0A@@std@@@std@@QAEPAU?$_Tree_node@U?$pair@QAVRaven_Bot@@VMemoryRecord@@@std@@PAX@1@ABUpiecewise_construct_t@1@$$QAV?$tuple@ABQAVRaven_Bot@@@1@$$QAV?$tuple@$$V@1@@Z$2
__ehfuncinfo$??$_Buynode@ABUpiecewise_construct_t@std@@V?$tuple@ABQAVRaven_Bot@@@2@V?$tuple@$$V@2@@?$_Tree_comp_alloc@V?$_Tmap_traits@PAVRaven_Bot@@VMemoryRecord@@U?$less@PAVRaven_Bot@@@std@@V?$allocator@U?$pair@QAVRaven_Bot@@VMemoryRecord@@@std@@@4@$0A@@std@@@std@@QAEPAU?$_Tree_node@U?$pair@QAVRaven_Bot@@VMemoryRecord@@@std@@PAX@1@ABUpiecewise_construct_t@1@$$QAV?$tuple@ABQAVRaven_Bot@@@1@$$QAV?$tuple@$$V@1@@Z DD 019930522H
	DD	02H
	DD	FLAT:__unwindtable$??$_Buynode@ABUpiecewise_construct_t@std@@V?$tuple@ABQAVRaven_Bot@@@2@V?$tuple@$$V@2@@?$_Tree_comp_alloc@V?$_Tmap_traits@PAVRaven_Bot@@VMemoryRecord@@U?$less@PAVRaven_Bot@@@std@@V?$allocator@U?$pair@QAVRaven_Bot@@VMemoryRecord@@@std@@@4@$0A@@std@@@std@@QAEPAU?$_Tree_node@U?$pair@QAVRaven_Bot@@VMemoryRecord@@@std@@PAX@1@ABUpiecewise_construct_t@1@$$QAV?$tuple@ABQAVRaven_Bot@@@1@$$QAV?$tuple@$$V@1@@Z
	DD	01H
	DD	FLAT:__tryblocktable$??$_Buynode@ABUpiecewise_construct_t@std@@V?$tuple@ABQAVRaven_Bot@@@2@V?$tuple@$$V@2@@?$_Tree_comp_alloc@V?$_Tmap_traits@PAVRaven_Bot@@VMemoryRecord@@U?$less@PAVRaven_Bot@@@std@@V?$allocator@U?$pair@QAVRaven_Bot@@VMemoryRecord@@@std@@@4@$0A@@std@@@std@@QAEPAU?$_Tree_node@U?$pair@QAVRaven_Bot@@VMemoryRecord@@@std@@PAX@1@ABUpiecewise_construct_t@1@$$QAV?$tuple@ABQAVRaven_Bot@@@1@$$QAV?$tuple@$$V@1@@Z
	DD	2 DUP(00H)
	DD	00H
	DD	01H
xdata$x	ENDS
;	COMDAT xdata$x
xdata$x	SEGMENT
__ehfuncinfo$??$?0ABQAVRaven_Bot@@$0A@@?$tuple@ABQAVRaven_Bot@@@std@@QAE@ABQAVRaven_Bot@@@Z DD 019930522H
	DD	00H
	DD	00H
	DD	2 DUP(00H)
	DD	2 DUP(00H)
	DD	00H
	DD	05H
xdata$x	ENDS
;	COMDAT xdata$x
xdata$x	SEGMENT
__unwindtable$??$emplace_hint@ABUpiecewise_construct_t@std@@V?$tuple@ABQAVRaven_Bot@@@2@V?$tuple@$$V@2@@?$_Tree@V?$_Tmap_traits@PAVRaven_Bot@@VMemoryRecord@@U?$less@PAVRaven_Bot@@@std@@V?$allocator@U?$pair@QAVRaven_Bot@@VMemoryRecord@@@std@@@4@$0A@@std@@@std@@QAE?AV?$_Tree_iterator@V?$_Tree_val@U?$_Tree_simple_types@U?$pair@QAVRaven_Bot@@VMemoryRecord@@@std@@@std@@@std@@@1@V?$_Tree_const_iterator@V?$_Tree_val@U?$_Tree_simple_types@U?$pair@QAVRaven_Bot@@VMemoryRecord@@@std@@@std@@@std@@@1@ABUpiecewise_construct_t@1@$$QAV?$tuple@ABQAVRaven_Bot@@@1@$$QAV?$tuple@$$V@1@@Z DD 0ffffffffH
	DD	FLAT:__unwindfunclet$??$emplace_hint@ABUpiecewise_construct_t@std@@V?$tuple@ABQAVRaven_Bot@@@2@V?$tuple@$$V@2@@?$_Tree@V?$_Tmap_traits@PAVRaven_Bot@@VMemoryRecord@@U?$less@PAVRaven_Bot@@@std@@V?$allocator@U?$pair@QAVRaven_Bot@@VMemoryRecord@@@std@@@4@$0A@@std@@@std@@QAE?AV?$_Tree_iterator@V?$_Tree_val@U?$_Tree_simple_types@U?$pair@QAVRaven_Bot@@VMemoryRecord@@@std@@@std@@@std@@@1@V?$_Tree_const_iterator@V?$_Tree_val@U?$_Tree_simple_types@U?$pair@QAVRaven_Bot@@VMemoryRecord@@@std@@@std@@@std@@@1@ABUpiecewise_construct_t@1@$$QAV?$tuple@ABQAVRaven_Bot@@@1@$$QAV?$tuple@$$V@1@@Z$0
__ehfuncinfo$??$emplace_hint@ABUpiecewise_construct_t@std@@V?$tuple@ABQAVRaven_Bot@@@2@V?$tuple@$$V@2@@?$_Tree@V?$_Tmap_traits@PAVRaven_Bot@@VMemoryRecord@@U?$less@PAVRaven_Bot@@@std@@V?$allocator@U?$pair@QAVRaven_Bot@@VMemoryRecord@@@std@@@4@$0A@@std@@@std@@QAE?AV?$_Tree_iterator@V?$_Tree_val@U?$_Tree_simple_types@U?$pair@QAVRaven_Bot@@VMemoryRecord@@@std@@@std@@@std@@@1@V?$_Tree_const_iterator@V?$_Tree_val@U?$_Tree_simple_types@U?$pair@QAVRaven_Bot@@VMemoryRecord@@@std@@@std@@@std@@@1@ABUpiecewise_construct_t@1@$$QAV?$tuple@ABQAVRaven_Bot@@@1@$$QAV?$tuple@$$V@1@@Z DD 019930522H
	DD	01H
	DD	FLAT:__unwindtable$??$emplace_hint@ABUpiecewise_construct_t@std@@V?$tuple@ABQAVRaven_Bot@@@2@V?$tuple@$$V@2@@?$_Tree@V?$_Tmap_traits@PAVRaven_Bot@@VMemoryRecord@@U?$less@PAVRaven_Bot@@@std@@V?$allocator@U?$pair@QAVRaven_Bot@@VMemoryRecord@@@std@@@4@$0A@@std@@@std@@QAE?AV?$_Tree_iterator@V?$_Tree_val@U?$_Tree_simple_types@U?$pair@QAVRaven_Bot@@VMemoryRecord@@@std@@@std@@@std@@@1@V?$_Tree_const_iterator@V?$_Tree_val@U?$_Tree_simple_types@U?$pair@QAVRaven_Bot@@VMemoryRecord@@@std@@@std@@@std@@@1@ABUpiecewise_construct_t@1@$$QAV?$tuple@ABQAVRaven_Bot@@@1@$$QAV?$tuple@$$V@1@@Z
	DD	2 DUP(00H)
	DD	2 DUP(00H)
	DD	00H
	DD	01H
xdata$x	ENDS
;	COMDAT xdata$x
xdata$x	SEGMENT
__unwindtable$??$_Try_emplace@ABQAVRaven_Bot@@$$V@?$map@PAVRaven_Bot@@VMemoryRecord@@U?$less@PAVRaven_Bot@@@std@@V?$allocator@U?$pair@QAVRaven_Bot@@VMemoryRecord@@@std@@@4@@std@@QAE?AU?$pair@V?$_Tree_iterator@V?$_Tree_val@U?$_Tree_simple_types@U?$pair@QAVRaven_Bot@@VMemoryRecord@@@std@@@std@@@std@@@std@@_N@1@ABQAVRaven_Bot@@@Z DD 0ffffffffH
	DD	FLAT:__unwindfunclet$??$_Try_emplace@ABQAVRaven_Bot@@$$V@?$map@PAVRaven_Bot@@VMemoryRecord@@U?$less@PAVRaven_Bot@@@std@@V?$allocator@U?$pair@QAVRaven_Bot@@VMemoryRecord@@@std@@@4@@std@@QAE?AU?$pair@V?$_Tree_iterator@V?$_Tree_val@U?$_Tree_simple_types@U?$pair@QAVRaven_Bot@@VMemoryRecord@@@std@@@std@@@std@@@std@@_N@1@ABQAVRaven_Bot@@@Z$0
	DD	00H
	DD	FLAT:__unwindfunclet$??$_Try_emplace@ABQAVRaven_Bot@@$$V@?$map@PAVRaven_Bot@@VMemoryRecord@@U?$less@PAVRaven_Bot@@@std@@V?$allocator@U?$pair@QAVRaven_Bot@@VMemoryRecord@@@std@@@4@@std@@QAE?AU?$pair@V?$_Tree_iterator@V?$_Tree_val@U?$_Tree_simple_types@U?$pair@QAVRaven_Bot@@VMemoryRecord@@@std@@@std@@@std@@@std@@_N@1@ABQAVRaven_Bot@@@Z$1
__ehfuncinfo$??$_Try_emplace@ABQAVRaven_Bot@@$$V@?$map@PAVRaven_Bot@@VMemoryRecord@@U?$less@PAVRaven_Bot@@@std@@V?$allocator@U?$pair@QAVRaven_Bot@@VMemoryRecord@@@std@@@4@@std@@QAE?AU?$pair@V?$_Tree_iterator@V?$_Tree_val@U?$_Tree_simple_types@U?$pair@QAVRaven_Bot@@VMemoryRecord@@@std@@@std@@@std@@@std@@_N@1@ABQAVRaven_Bot@@@Z DD 019930522H
	DD	02H
	DD	FLAT:__unwindtable$??$_Try_emplace@ABQAVRaven_Bot@@$$V@?$map@PAVRaven_Bot@@VMemoryRecord@@U?$less@PAVRaven_Bot@@@std@@V?$allocator@U?$pair@QAVRaven_Bot@@VMemoryRecord@@@std@@@4@@std@@QAE?AU?$pair@V?$_Tree_iterator@V?$_Tree_val@U?$_Tree_simple_types@U?$pair@QAVRaven_Bot@@VMemoryRecord@@@std@@@std@@@std@@@std@@_N@1@ABQAVRaven_Bot@@@Z
	DD	2 DUP(00H)
	DD	2 DUP(00H)
	DD	00H
	DD	01H
xdata$x	ENDS
;	COMDAT xdata$x
xdata$x	SEGMENT
__catchsym$??$?0V?$allocator@U?$_List_node@PAVRaven_Bot@@PAX@std@@@std@@X@?$_List_alloc@U?$_List_base_types@PAVRaven_Bot@@V?$allocator@PAVRaven_Bot@@@std@@@std@@@std@@QAE@$$QAV?$allocator@U?$_List_node@PAVRaven_Bot@@PAX@std@@@1@@Z$2 DD 040H
	DD	00H
	DD	00H
	DD	FLAT:__catch$??$?0V?$allocator@U?$_List_node@PAVRaven_Bot@@PAX@std@@@std@@X@?$_List_alloc@U?$_List_base_types@PAVRaven_Bot@@V?$allocator@PAVRaven_Bot@@@std@@@std@@@std@@QAE@$$QAV?$allocator@U?$_List_node@PAVRaven_Bot@@PAX@std@@@1@@Z$0
__unwindtable$??$?0V?$allocator@U?$_List_node@PAVRaven_Bot@@PAX@std@@@std@@X@?$_List_alloc@U?$_List_base_types@PAVRaven_Bot@@V?$allocator@PAVRaven_Bot@@@std@@@std@@@std@@QAE@$$QAV?$allocator@U?$_List_node@PAVRaven_Bot@@PAX@std@@@1@@Z DD 0ffffffffH
	DD	00H
	DD	0ffffffffH
	DD	00H
__tryblocktable$??$?0V?$allocator@U?$_List_node@PAVRaven_Bot@@PAX@std@@@std@@X@?$_List_alloc@U?$_List_base_types@PAVRaven_Bot@@V?$allocator@PAVRaven_Bot@@@std@@@std@@@std@@QAE@$$QAV?$allocator@U?$_List_node@PAVRaven_Bot@@PAX@std@@@1@@Z DD 00H
	DD	00H
	DD	01H
	DD	01H
	DD	FLAT:__catchsym$??$?0V?$allocator@U?$_List_node@PAVRaven_Bot@@PAX@std@@@std@@X@?$_List_alloc@U?$_List_base_types@PAVRaven_Bot@@V?$allocator@PAVRaven_Bot@@@std@@@std@@@std@@QAE@$$QAV?$allocator@U?$_List_node@PAVRaven_Bot@@PAX@std@@@1@@Z$2
__ehfuncinfo$??$?0V?$allocator@U?$_List_node@PAVRaven_Bot@@PAX@std@@@std@@X@?$_List_alloc@U?$_List_base_types@PAVRaven_Bot@@V?$allocator@PAVRaven_Bot@@@std@@@std@@@std@@QAE@$$QAV?$allocator@U?$_List_node@PAVRaven_Bot@@PAX@std@@@1@@Z DD 019930522H
	DD	02H
	DD	FLAT:__unwindtable$??$?0V?$allocator@U?$_List_node@PAVRaven_Bot@@PAX@std@@@std@@X@?$_List_alloc@U?$_List_base_types@PAVRaven_Bot@@V?$allocator@PAVRaven_Bot@@@std@@@std@@@std@@QAE@$$QAV?$allocator@U?$_List_node@PAVRaven_Bot@@PAX@std@@@1@@Z
	DD	01H
	DD	FLAT:__tryblocktable$??$?0V?$allocator@U?$_List_node@PAVRaven_Bot@@PAX@std@@@std@@X@?$_List_alloc@U?$_List_base_types@PAVRaven_Bot@@V?$allocator@PAVRaven_Bot@@@std@@@std@@@std@@QAE@$$QAV?$allocator@U?$_List_node@PAVRaven_Bot@@PAX@std@@@1@@Z
	DD	2 DUP(00H)
	DD	00H
	DD	01H
xdata$x	ENDS
;	COMDAT xdata$x
xdata$x	SEGMENT
__catchsym$??$_Buynode@ABQAVRaven_Bot@@@?$_List_buy@PAVRaven_Bot@@V?$allocator@PAVRaven_Bot@@@std@@@std@@QAEPAU?$_List_node@PAVRaven_Bot@@PAX@1@PAU21@0ABQAVRaven_Bot@@@Z$2 DD 040H
	DD	00H
	DD	00H
	DD	FLAT:__catch$??$_Buynode@ABQAVRaven_Bot@@@?$_List_buy@PAVRaven_Bot@@V?$allocator@PAVRaven_Bot@@@std@@@std@@QAEPAU?$_List_node@PAVRaven_Bot@@PAX@1@PAU21@0ABQAVRaven_Bot@@@Z$0
__unwindtable$??$_Buynode@ABQAVRaven_Bot@@@?$_List_buy@PAVRaven_Bot@@V?$allocator@PAVRaven_Bot@@@std@@@std@@QAEPAU?$_List_node@PAVRaven_Bot@@PAX@1@PAU21@0ABQAVRaven_Bot@@@Z DD 0ffffffffH
	DD	00H
	DD	0ffffffffH
	DD	00H
__tryblocktable$??$_Buynode@ABQAVRaven_Bot@@@?$_List_buy@PAVRaven_Bot@@V?$allocator@PAVRaven_Bot@@@std@@@std@@QAEPAU?$_List_node@PAVRaven_Bot@@PAX@1@PAU21@0ABQAVRaven_Bot@@@Z DD 00H
	DD	00H
	DD	01H
	DD	01H
	DD	FLAT:__catchsym$??$_Buynode@ABQAVRaven_Bot@@@?$_List_buy@PAVRaven_Bot@@V?$allocator@PAVRaven_Bot@@@std@@@std@@QAEPAU?$_List_node@PAVRaven_Bot@@PAX@1@PAU21@0ABQAVRaven_Bot@@@Z$2
__ehfuncinfo$??$_Buynode@ABQAVRaven_Bot@@@?$_List_buy@PAVRaven_Bot@@V?$allocator@PAVRaven_Bot@@@std@@@std@@QAEPAU?$_List_node@PAVRaven_Bot@@PAX@1@PAU21@0ABQAVRaven_Bot@@@Z DD 019930522H
	DD	02H
	DD	FLAT:__unwindtable$??$_Buynode@ABQAVRaven_Bot@@@?$_List_buy@PAVRaven_Bot@@V?$allocator@PAVRaven_Bot@@@std@@@std@@QAEPAU?$_List_node@PAVRaven_Bot@@PAX@1@PAU21@0ABQAVRaven_Bot@@@Z
	DD	01H
	DD	FLAT:__tryblocktable$??$_Buynode@ABQAVRaven_Bot@@@?$_List_buy@PAVRaven_Bot@@V?$allocator@PAVRaven_Bot@@@std@@@std@@QAEPAU?$_List_node@PAVRaven_Bot@@PAX@1@PAU21@0ABQAVRaven_Bot@@@Z
	DD	2 DUP(00H)
	DD	00H
	DD	01H
xdata$x	ENDS
;	COMDAT xdata$x
xdata$x	SEGMENT
__ehfuncinfo$??$_Freenode0@V?$allocator@U?$_Tree_node@U?$pair@QAVRaven_Bot@@VMemoryRecord@@@std@@PAX@std@@@std@@@?$_Tree_node@U?$pair@QAVRaven_Bot@@VMemoryRecord@@@std@@PAX@std@@SAXAAV?$allocator@U?$_Tree_node@U?$pair@QAVRaven_Bot@@VMemoryRecord@@@std@@PAX@std@@@1@PAU01@@Z DD 019930522H
	DD	00H
	DD	00H
	DD	2 DUP(00H)
	DD	2 DUP(00H)
	DD	00H
	DD	05H
xdata$x	ENDS
;	COMDAT xdata$x
xdata$x	SEGMENT
__ehfuncinfo$??$_Freenode0@V?$allocator@U?$_List_node@PAVRaven_Bot@@PAX@std@@@std@@@?$_List_node@PAVRaven_Bot@@PAX@std@@SAXAAV?$allocator@U?$_List_node@PAVRaven_Bot@@PAX@std@@@1@PAU01@@Z DD 019930522H
	DD	00H
	DD	00H
	DD	2 DUP(00H)
	DD	2 DUP(00H)
	DD	00H
	DD	05H
xdata$x	ENDS
;	COMDAT xdata$x
xdata$x	SEGMENT
__unwindtable$??$erase@V?$_Tree_iterator@V?$_Tree_val@U?$_Tree_simple_types@U?$pair@QAVRaven_Bot@@VMemoryRecord@@@std@@@std@@@std@@@std@@X@?$_Tree@V?$_Tmap_traits@PAVRaven_Bot@@VMemoryRecord@@U?$less@PAVRaven_Bot@@@std@@V?$allocator@U?$pair@QAVRaven_Bot@@VMemoryRecord@@@std@@@4@$0A@@std@@@std@@QAE?AV?$_Tree_iterator@V?$_Tree_val@U?$_Tree_simple_types@U?$pair@QAVRaven_Bot@@VMemoryRecord@@@std@@@std@@@std@@@1@V21@@Z DD 0ffffffffH
	DD	FLAT:__unwindfunclet$??$erase@V?$_Tree_iterator@V?$_Tree_val@U?$_Tree_simple_types@U?$pair@QAVRaven_Bot@@VMemoryRecord@@@std@@@std@@@std@@@std@@X@?$_Tree@V?$_Tmap_traits@PAVRaven_Bot@@VMemoryRecord@@U?$less@PAVRaven_Bot@@@std@@V?$allocator@U?$pair@QAVRaven_Bot@@VMemoryRecord@@@std@@@4@$0A@@std@@@std@@QAE?AV?$_Tree_iterator@V?$_Tree_val@U?$_Tree_simple_types@U?$pair@QAVRaven_Bot@@VMemoryRecord@@@std@@@std@@@std@@@1@V21@@Z$0
__ehfuncinfo$??$erase@V?$_Tree_iterator@V?$_Tree_val@U?$_Tree_simple_types@U?$pair@QAVRaven_Bot@@VMemoryRecord@@@std@@@std@@@std@@@std@@X@?$_Tree@V?$_Tmap_traits@PAVRaven_Bot@@VMemoryRecord@@U?$less@PAVRaven_Bot@@@std@@V?$allocator@U?$pair@QAVRaven_Bot@@VMemoryRecord@@@std@@@4@$0A@@std@@@std@@QAE?AV?$_Tree_iterator@V?$_Tree_val@U?$_Tree_simple_types@U?$pair@QAVRaven_Bot@@VMemoryRecord@@@std@@@std@@@std@@@1@V21@@Z DD 019930522H
	DD	01H
	DD	FLAT:__unwindtable$??$erase@V?$_Tree_iterator@V?$_Tree_val@U?$_Tree_simple_types@U?$pair@QAVRaven_Bot@@VMemoryRecord@@@std@@@std@@@std@@@std@@X@?$_Tree@V?$_Tmap_traits@PAVRaven_Bot@@VMemoryRecord@@U?$less@PAVRaven_Bot@@@std@@V?$allocator@U?$pair@QAVRaven_Bot@@VMemoryRecord@@@std@@@4@$0A@@std@@@std@@QAE?AV?$_Tree_iterator@V?$_Tree_val@U?$_Tree_simple_types@U?$pair@QAVRaven_Bot@@VMemoryRecord@@@std@@@std@@@std@@@1@V21@@Z
	DD	2 DUP(00H)
	DD	2 DUP(00H)
	DD	00H
	DD	01H
xdata$x	ENDS
;	COMDAT xdata$x
xdata$x	SEGMENT
__unwindtable$?_Orphan_ptr@?$list@PAVRaven_Bot@@V?$allocator@PAVRaven_Bot@@@std@@@std@@QAEXPAU?$_List_node@PAVRaven_Bot@@PAX@2@@Z DD 0ffffffffH
	DD	FLAT:__unwindfunclet$?_Orphan_ptr@?$list@PAVRaven_Bot@@V?$allocator@PAVRaven_Bot@@@std@@@std@@QAEXPAU?$_List_node@PAVRaven_Bot@@PAX@2@@Z$0
__ehfuncinfo$?_Orphan_ptr@?$list@PAVRaven_Bot@@V?$allocator@PAVRaven_Bot@@@std@@@std@@QAEXPAU?$_List_node@PAVRaven_Bot@@PAX@2@@Z DD 019930522H
	DD	01H
	DD	FLAT:__unwindtable$?_Orphan_ptr@?$list@PAVRaven_Bot@@V?$allocator@PAVRaven_Bot@@@std@@@std@@QAEXPAU?$_List_node@PAVRaven_Bot@@PAX@2@@Z
	DD	2 DUP(00H)
	DD	2 DUP(00H)
	DD	00H
	DD	01H
xdata$x	ENDS
;	COMDAT xdata$x
xdata$x	SEGMENT
__ehfuncinfo$?clear@?$list@PAVRaven_Bot@@V?$allocator@PAVRaven_Bot@@@std@@@std@@QAEXXZ DD 019930522H
	DD	00H
	DD	00H
	DD	2 DUP(00H)
	DD	2 DUP(00H)
	DD	00H
	DD	05H
xdata$x	ENDS
;	COMDAT xdata$x
xdata$x	SEGMENT
__ehfuncinfo$?end@?$list@PAVRaven_Bot@@V?$allocator@PAVRaven_Bot@@@std@@@std@@QBE?AV?$_List_const_iterator@V?$_List_val@U?$_List_simple_types@PAVRaven_Bot@@@std@@@std@@@2@XZ DD 019930522H
	DD	00H
	DD	00H
	DD	2 DUP(00H)
	DD	2 DUP(00H)
	DD	00H
	DD	05H
xdata$x	ENDS
;	COMDAT xdata$x
xdata$x	SEGMENT
__ehfuncinfo$?end@?$list@PAVRaven_Bot@@V?$allocator@PAVRaven_Bot@@@std@@@std@@QAE?AV?$_List_iterator@V?$_List_val@U?$_List_simple_types@PAVRaven_Bot@@@std@@@std@@@2@XZ DD 019930522H
	DD	00H
	DD	00H
	DD	2 DUP(00H)
	DD	2 DUP(00H)
	DD	00H
	DD	05H
xdata$x	ENDS
;	COMDAT xdata$x
xdata$x	SEGMENT
__ehfuncinfo$?begin@?$list@PAVRaven_Bot@@V?$allocator@PAVRaven_Bot@@@std@@@std@@QBE?AV?$_List_const_iterator@V?$_List_val@U?$_List_simple_types@PAVRaven_Bot@@@std@@@std@@@2@XZ DD 019930522H
	DD	00H
	DD	00H
	DD	2 DUP(00H)
	DD	2 DUP(00H)
	DD	00H
	DD	05H
xdata$x	ENDS
;	COMDAT xdata$x
xdata$x	SEGMENT
__ehfuncinfo$?begin@?$list@PAVRaven_Bot@@V?$allocator@PAVRaven_Bot@@@std@@@std@@QAE?AV?$_List_iterator@V?$_List_val@U?$_List_simple_types@PAVRaven_Bot@@@std@@@std@@@2@XZ DD 019930522H
	DD	00H
	DD	00H
	DD	2 DUP(00H)
	DD	2 DUP(00H)
	DD	00H
	DD	05H
xdata$x	ENDS
;	COMDAT xdata$x
xdata$x	SEGMENT
__ehfuncinfo$??1?$list@PAVRaven_Bot@@V?$allocator@PAVRaven_Bot@@@std@@@std@@QAE@XZ DD 019930522H
	DD	00H
	DD	00H
	DD	2 DUP(00H)
	DD	2 DUP(00H)
	DD	00H
	DD	05H
xdata$x	ENDS
;	COMDAT xdata$x
xdata$x	SEGMENT
__ehfuncinfo$?_Assign_rv@?$list@PAVRaven_Bot@@V?$allocator@PAVRaven_Bot@@@std@@@std@@QAEX$$QAV12@U?$integral_constant@_N$00@2@@Z DD 019930522H
	DD	00H
	DD	00H
	DD	2 DUP(00H)
	DD	2 DUP(00H)
	DD	00H
	DD	05H
xdata$x	ENDS
;	COMDAT xdata$x
xdata$x	SEGMENT
__catchsym$?_Buynode0@?$_List_alloc@U?$_List_base_types@PAVRaven_Bot@@V?$allocator@PAVRaven_Bot@@@std@@@std@@@std@@QAEPAU?$_List_node@PAVRaven_Bot@@PAX@2@PAU32@0@Z$2 DD 040H
	DD	00H
	DD	00H
	DD	FLAT:__catch$?_Buynode0@?$_List_alloc@U?$_List_base_types@PAVRaven_Bot@@V?$allocator@PAVRaven_Bot@@@std@@@std@@@std@@QAEPAU?$_List_node@PAVRaven_Bot@@PAX@2@PAU32@0@Z$0
__unwindtable$?_Buynode0@?$_List_alloc@U?$_List_base_types@PAVRaven_Bot@@V?$allocator@PAVRaven_Bot@@@std@@@std@@@std@@QAEPAU?$_List_node@PAVRaven_Bot@@PAX@2@PAU32@0@Z DD 0ffffffffH
	DD	00H
	DD	0ffffffffH
	DD	00H
__tryblocktable$?_Buynode0@?$_List_alloc@U?$_List_base_types@PAVRaven_Bot@@V?$allocator@PAVRaven_Bot@@@std@@@std@@@std@@QAEPAU?$_List_node@PAVRaven_Bot@@PAX@2@PAU32@0@Z DD 00H
	DD	00H
	DD	01H
	DD	01H
	DD	FLAT:__catchsym$?_Buynode0@?$_List_alloc@U?$_List_base_types@PAVRaven_Bot@@V?$allocator@PAVRaven_Bot@@@std@@@std@@@std@@QAEPAU?$_List_node@PAVRaven_Bot@@PAX@2@PAU32@0@Z$2
__ehfuncinfo$?_Buynode0@?$_List_alloc@U?$_List_base_types@PAVRaven_Bot@@V?$allocator@PAVRaven_Bot@@@std@@@std@@@std@@QAEPAU?$_List_node@PAVRaven_Bot@@PAX@2@PAU32@0@Z DD 019930522H
	DD	02H
	DD	FLAT:__unwindtable$?_Buynode0@?$_List_alloc@U?$_List_base_types@PAVRaven_Bot@@V?$allocator@PAVRaven_Bot@@@std@@@std@@@std@@QAEPAU?$_List_node@PAVRaven_Bot@@PAX@2@PAU32@0@Z
	DD	01H
	DD	FLAT:__tryblocktable$?_Buynode0@?$_List_alloc@U?$_List_base_types@PAVRaven_Bot@@V?$allocator@PAVRaven_Bot@@@std@@@std@@@std@@QAEPAU?$_List_node@PAVRaven_Bot@@PAX@2@PAU32@0@Z
	DD	2 DUP(00H)
	DD	00H
	DD	01H
xdata$x	ENDS
;	COMDAT xdata$x
xdata$x	SEGMENT
__ehfuncinfo$??1?$_List_alloc@U?$_List_base_types@PAVRaven_Bot@@V?$allocator@PAVRaven_Bot@@@std@@@std@@@std@@QAE@XZ DD 019930522H
	DD	00H
	DD	00H
	DD	2 DUP(00H)
	DD	2 DUP(00H)
	DD	00H
	DD	05H
xdata$x	ENDS
;	COMDAT xdata$x
xdata$x	SEGMENT
__catchsym$??0?$_List_alloc@U?$_List_base_types@PAVRaven_Bot@@V?$allocator@PAVRaven_Bot@@@std@@@std@@@std@@QAE@XZ$2 DD 040H
	DD	00H
	DD	00H
	DD	FLAT:__catch$??0?$_List_alloc@U?$_List_base_types@PAVRaven_Bot@@V?$allocator@PAVRaven_Bot@@@std@@@std@@@std@@QAE@XZ$0
__unwindtable$??0?$_List_alloc@U?$_List_base_types@PAVRaven_Bot@@V?$allocator@PAVRaven_Bot@@@std@@@std@@@std@@QAE@XZ DD 0ffffffffH
	DD	00H
	DD	0ffffffffH
	DD	00H
__tryblocktable$??0?$_List_alloc@U?$_List_base_types@PAVRaven_Bot@@V?$allocator@PAVRaven_Bot@@@std@@@std@@@std@@QAE@XZ DD 00H
	DD	00H
	DD	01H
	DD	01H
	DD	FLAT:__catchsym$??0?$_List_alloc@U?$_List_base_types@PAVRaven_Bot@@V?$allocator@PAVRaven_Bot@@@std@@@std@@@std@@QAE@XZ$2
__ehfuncinfo$??0?$_List_alloc@U?$_List_base_types@PAVRaven_Bot@@V?$allocator@PAVRaven_Bot@@@std@@@std@@@std@@QAE@XZ DD 019930522H
	DD	02H
	DD	FLAT:__unwindtable$??0?$_List_alloc@U?$_List_base_types@PAVRaven_Bot@@V?$allocator@PAVRaven_Bot@@@std@@@std@@@std@@QAE@XZ
	DD	01H
	DD	FLAT:__tryblocktable$??0?$_List_alloc@U?$_List_base_types@PAVRaven_Bot@@V?$allocator@PAVRaven_Bot@@@std@@@std@@@std@@QAE@XZ
	DD	2 DUP(00H)
	DD	00H
	DD	01H
xdata$x	ENDS
xdata$x	SEGMENT
__unwindtable$?GetTimeOpponentHasBeenOutOfView@Raven_SensoryMemory@@QBENPAVRaven_Bot@@@Z DD 0ffffffffH
	DD	FLAT:__unwindfunclet$?GetTimeOpponentHasBeenOutOfView@Raven_SensoryMemory@@QBENPAVRaven_Bot@@@Z$0
	DD	00H
	DD	FLAT:__unwindfunclet$?GetTimeOpponentHasBeenOutOfView@Raven_SensoryMemory@@QBENPAVRaven_Bot@@@Z$1
__unwindtable$?GetTimeSinceLastSensed@Raven_SensoryMemory@@QBENPAVRaven_Bot@@@Z DD 0ffffffffH
	DD	FLAT:__unwindfunclet$?GetTimeSinceLastSensed@Raven_SensoryMemory@@QBENPAVRaven_Bot@@@Z$0
	DD	00H
	DD	FLAT:__unwindfunclet$?GetTimeSinceLastSensed@Raven_SensoryMemory@@QBENPAVRaven_Bot@@@Z$1
__unwindtable$?GetTimeOpponentHasBeenVisible@Raven_SensoryMemory@@QBENPAVRaven_Bot@@@Z DD 0ffffffffH
	DD	FLAT:__unwindfunclet$?GetTimeOpponentHasBeenVisible@Raven_SensoryMemory@@QBENPAVRaven_Bot@@@Z$0
	DD	00H
	DD	FLAT:__unwindfunclet$?GetTimeOpponentHasBeenVisible@Raven_SensoryMemory@@QBENPAVRaven_Bot@@@Z$1
__unwindtable$?GetLastRecordedPositionOfOpponent@Raven_SensoryMemory@@QBE?AUVector2D@@PAVRaven_Bot@@@Z DD 0ffffffffH
	DD	FLAT:__unwindfunclet$?GetLastRecordedPositionOfOpponent@Raven_SensoryMemory@@QBE?AUVector2D@@PAVRaven_Bot@@@Z$0
	DD	00H
	DD	FLAT:__unwindfunclet$?GetLastRecordedPositionOfOpponent@Raven_SensoryMemory@@QBE?AUVector2D@@PAVRaven_Bot@@@Z$1
__unwindtable$?isOpponentWithinFOV@Raven_SensoryMemory@@QBE_NPAVRaven_Bot@@@Z DD 0ffffffffH
	DD	FLAT:__unwindfunclet$?isOpponentWithinFOV@Raven_SensoryMemory@@QBE_NPAVRaven_Bot@@@Z$0
	DD	00H
	DD	FLAT:__unwindfunclet$?isOpponentWithinFOV@Raven_SensoryMemory@@QBE_NPAVRaven_Bot@@@Z$1
__unwindtable$?isOpponentShootable@Raven_SensoryMemory@@QBE_NPAVRaven_Bot@@@Z DD 0ffffffffH
	DD	FLAT:__unwindfunclet$?isOpponentShootable@Raven_SensoryMemory@@QBE_NPAVRaven_Bot@@@Z$0
	DD	00H
	DD	FLAT:__unwindfunclet$?isOpponentShootable@Raven_SensoryMemory@@QBE_NPAVRaven_Bot@@@Z$1
__unwindtable$?UpdateVision@Raven_SensoryMemory@@QAEXXZ DD 0ffffffffH
	DD	FLAT:__unwindfunclet$?UpdateVision@Raven_SensoryMemory@@QAEXXZ$0
	DD	00H
	DD	FLAT:__unwindfunclet$?UpdateVision@Raven_SensoryMemory@@QAEXXZ$2
__unwindtable$?RemoveBotFromMemory@Raven_SensoryMemory@@QAEXPAVRaven_Bot@@@Z DD 0ffffffffH
	DD	FLAT:__unwindfunclet$?RemoveBotFromMemory@Raven_SensoryMemory@@QAEXPAVRaven_Bot@@@Z$0
	DD	00H
	DD	FLAT:__unwindfunclet$?RemoveBotFromMemory@Raven_SensoryMemory@@QAEXPAVRaven_Bot@@@Z$1
__unwindtable$?MakeNewRecordIfNotAlreadyPresent@Raven_SensoryMemory@@AAEXPAVRaven_Bot@@@Z DD 0ffffffffH
	DD	FLAT:__unwindfunclet$?MakeNewRecordIfNotAlreadyPresent@Raven_SensoryMemory@@AAEXPAVRaven_Bot@@@Z$0
	DD	00H
	DD	FLAT:__unwindfunclet$?MakeNewRecordIfNotAlreadyPresent@Raven_SensoryMemory@@AAEXPAVRaven_Bot@@@Z$1
__unwindtable$?RenderBoxesAroundRecentlySensed@Raven_SensoryMemory@@QBEXXZ DD 0ffffffffH
	DD	FLAT:__unwindfunclet$?RenderBoxesAroundRecentlySensed@Raven_SensoryMemory@@QBEXXZ$0
	DD	00H
	DD	FLAT:__unwindfunclet$?RenderBoxesAroundRecentlySensed@Raven_SensoryMemory@@QBEXXZ$1
	DD	01H
	DD	FLAT:__unwindfunclet$?RenderBoxesAroundRecentlySensed@Raven_SensoryMemory@@QBEXXZ$3
__unwindtable$?GetListOfRecentlySensedOpponents@Raven_SensoryMemory@@QBE?AV?$list@PAVRaven_Bot@@V?$allocator@PAVRaven_Bot@@@std@@@std@@XZ DD 0ffffffffH
	DD	FLAT:__unwindfunclet$?GetListOfRecentlySensedOpponents@Raven_SensoryMemory@@QBE?AV?$list@PAVRaven_Bot@@V?$allocator@PAVRaven_Bot@@@std@@@std@@XZ$0
	DD	00H
	DD	FLAT:__unwindfunclet$?GetListOfRecentlySensedOpponents@Raven_SensoryMemory@@QBE?AV?$list@PAVRaven_Bot@@V?$allocator@PAVRaven_Bot@@@std@@@std@@XZ$1
	DD	01H
	DD	FLAT:__unwindfunclet$?GetListOfRecentlySensedOpponents@Raven_SensoryMemory@@QBE?AV?$list@PAVRaven_Bot@@V?$allocator@PAVRaven_Bot@@@std@@@std@@XZ$2
__ehfuncinfo$?RenderBoxesAroundRecentlySensed@Raven_SensoryMemory@@QBEXXZ DD 019930522H
	DD	03H
	DD	FLAT:__unwindtable$?RenderBoxesAroundRecentlySensed@Raven_SensoryMemory@@QBEXXZ
	DD	2 DUP(00H)
	DD	2 DUP(00H)
	DD	00H
	DD	01H
__ehfuncinfo$?GetListOfRecentlySensedOpponents@Raven_SensoryMemory@@QBE?AV?$list@PAVRaven_Bot@@V?$allocator@PAVRaven_Bot@@@std@@@std@@XZ DD 019930522H
	DD	03H
	DD	FLAT:__unwindtable$?GetListOfRecentlySensedOpponents@Raven_SensoryMemory@@QBE?AV?$list@PAVRaven_Bot@@V?$allocator@PAVRaven_Bot@@@std@@@std@@XZ
	DD	2 DUP(00H)
	DD	2 DUP(00H)
	DD	00H
	DD	01H
__ehfuncinfo$?GetTimeOpponentHasBeenOutOfView@Raven_SensoryMemory@@QBENPAVRaven_Bot@@@Z DD 019930522H
	DD	02H
	DD	FLAT:__unwindtable$?GetTimeOpponentHasBeenOutOfView@Raven_SensoryMemory@@QBENPAVRaven_Bot@@@Z
	DD	2 DUP(00H)
	DD	2 DUP(00H)
	DD	00H
	DD	01H
__ehfuncinfo$?GetTimeSinceLastSensed@Raven_SensoryMemory@@QBENPAVRaven_Bot@@@Z DD 019930522H
	DD	02H
	DD	FLAT:__unwindtable$?GetTimeSinceLastSensed@Raven_SensoryMemory@@QBENPAVRaven_Bot@@@Z
	DD	2 DUP(00H)
	DD	2 DUP(00H)
	DD	00H
	DD	01H
__ehfuncinfo$?GetTimeOpponentHasBeenVisible@Raven_SensoryMemory@@QBENPAVRaven_Bot@@@Z DD 019930522H
	DD	02H
	DD	FLAT:__unwindtable$?GetTimeOpponentHasBeenVisible@Raven_SensoryMemory@@QBENPAVRaven_Bot@@@Z
	DD	2 DUP(00H)
	DD	2 DUP(00H)
	DD	00H
	DD	01H
__ehfuncinfo$?GetLastRecordedPositionOfOpponent@Raven_SensoryMemory@@QBE?AUVector2D@@PAVRaven_Bot@@@Z DD 019930522H
	DD	02H
	DD	FLAT:__unwindtable$?GetLastRecordedPositionOfOpponent@Raven_SensoryMemory@@QBE?AUVector2D@@PAVRaven_Bot@@@Z
	DD	2 DUP(00H)
	DD	2 DUP(00H)
	DD	00H
	DD	01H
__ehfuncinfo$?isOpponentWithinFOV@Raven_SensoryMemory@@QBE_NPAVRaven_Bot@@@Z DD 019930522H
	DD	02H
	DD	FLAT:__unwindtable$?isOpponentWithinFOV@Raven_SensoryMemory@@QBE_NPAVRaven_Bot@@@Z
	DD	2 DUP(00H)
	DD	2 DUP(00H)
	DD	00H
	DD	01H
__ehfuncinfo$?isOpponentShootable@Raven_SensoryMemory@@QBE_NPAVRaven_Bot@@@Z DD 019930522H
	DD	02H
	DD	FLAT:__unwindtable$?isOpponentShootable@Raven_SensoryMemory@@QBE_NPAVRaven_Bot@@@Z
	DD	2 DUP(00H)
	DD	2 DUP(00H)
	DD	00H
	DD	01H
__ehfuncinfo$?UpdateVision@Raven_SensoryMemory@@QAEXXZ DD 019930522H
	DD	02H
	DD	FLAT:__unwindtable$?UpdateVision@Raven_SensoryMemory@@QAEXXZ
	DD	2 DUP(00H)
	DD	2 DUP(00H)
	DD	00H
	DD	01H
__ehfuncinfo$?RemoveBotFromMemory@Raven_SensoryMemory@@QAEXPAVRaven_Bot@@@Z DD 019930522H
	DD	02H
	DD	FLAT:__unwindtable$?RemoveBotFromMemory@Raven_SensoryMemory@@QAEXPAVRaven_Bot@@@Z
	DD	2 DUP(00H)
	DD	2 DUP(00H)
	DD	00H
	DD	01H
__ehfuncinfo$?MakeNewRecordIfNotAlreadyPresent@Raven_SensoryMemory@@AAEXPAVRaven_Bot@@@Z DD 019930522H
	DD	02H
	DD	FLAT:__unwindtable$?MakeNewRecordIfNotAlreadyPresent@Raven_SensoryMemory@@AAEXPAVRaven_Bot@@@Z
	DD	2 DUP(00H)
	DD	2 DUP(00H)
	DD	00H
	DD	01H
xdata$x	ENDS
;	COMDAT xdata$x
xdata$x	SEGMENT
__unwindtable$??A?$map@PAVRaven_Bot@@VMemoryRecord@@U?$less@PAVRaven_Bot@@@std@@V?$allocator@U?$pair@QAVRaven_Bot@@VMemoryRecord@@@std@@@4@@std@@QAEAAVMemoryRecord@@ABQAVRaven_Bot@@@Z DD 0ffffffffH
	DD	FLAT:__unwindfunclet$??A?$map@PAVRaven_Bot@@VMemoryRecord@@U?$less@PAVRaven_Bot@@@std@@V?$allocator@U?$pair@QAVRaven_Bot@@VMemoryRecord@@@std@@@4@@std@@QAEAAVMemoryRecord@@ABQAVRaven_Bot@@@Z$0
__ehfuncinfo$??A?$map@PAVRaven_Bot@@VMemoryRecord@@U?$less@PAVRaven_Bot@@@std@@V?$allocator@U?$pair@QAVRaven_Bot@@VMemoryRecord@@@std@@@4@@std@@QAEAAVMemoryRecord@@ABQAVRaven_Bot@@@Z DD 019930522H
	DD	01H
	DD	FLAT:__unwindtable$??A?$map@PAVRaven_Bot@@VMemoryRecord@@U?$less@PAVRaven_Bot@@@std@@V?$allocator@U?$pair@QAVRaven_Bot@@VMemoryRecord@@@std@@@4@@std@@QAEAAVMemoryRecord@@ABQAVRaven_Bot@@@Z
	DD	2 DUP(00H)
	DD	2 DUP(00H)
	DD	00H
	DD	01H
xdata$x	ENDS
;	COMDAT xdata$x
xdata$x	SEGMENT
__unwindtable$?_Orphan_ptr@?$_Tree@V?$_Tmap_traits@PAVRaven_Bot@@VMemoryRecord@@U?$less@PAVRaven_Bot@@@std@@V?$allocator@U?$pair@QAVRaven_Bot@@VMemoryRecord@@@std@@@4@$0A@@std@@@std@@IAEXPAU?$_Tree_node@U?$pair@QAVRaven_Bot@@VMemoryRecord@@@std@@PAX@2@@Z DD 0ffffffffH
	DD	FLAT:__unwindfunclet$?_Orphan_ptr@?$_Tree@V?$_Tmap_traits@PAVRaven_Bot@@VMemoryRecord@@U?$less@PAVRaven_Bot@@@std@@V?$allocator@U?$pair@QAVRaven_Bot@@VMemoryRecord@@@std@@@4@$0A@@std@@@std@@IAEXPAU?$_Tree_node@U?$pair@QAVRaven_Bot@@VMemoryRecord@@@std@@PAX@2@@Z$0
__ehfuncinfo$?_Orphan_ptr@?$_Tree@V?$_Tmap_traits@PAVRaven_Bot@@VMemoryRecord@@U?$less@PAVRaven_Bot@@@std@@V?$allocator@U?$pair@QAVRaven_Bot@@VMemoryRecord@@@std@@@4@$0A@@std@@@std@@IAEXPAU?$_Tree_node@U?$pair@QAVRaven_Bot@@VMemoryRecord@@@std@@PAX@2@@Z DD 019930522H
	DD	01H
	DD	FLAT:__unwindtable$?_Orphan_ptr@?$_Tree@V?$_Tmap_traits@PAVRaven_Bot@@VMemoryRecord@@U?$less@PAVRaven_Bot@@@std@@V?$allocator@U?$pair@QAVRaven_Bot@@VMemoryRecord@@@std@@@4@$0A@@std@@@std@@IAEXPAU?$_Tree_node@U?$pair@QAVRaven_Bot@@VMemoryRecord@@@std@@PAX@2@@Z
	DD	2 DUP(00H)
	DD	2 DUP(00H)
	DD	00H
	DD	01H
xdata$x	ENDS
;	COMDAT xdata$x
xdata$x	SEGMENT
__unwindtable$?find@?$_Tree@V?$_Tmap_traits@PAVRaven_Bot@@VMemoryRecord@@U?$less@PAVRaven_Bot@@@std@@V?$allocator@U?$pair@QAVRaven_Bot@@VMemoryRecord@@@std@@@4@$0A@@std@@@std@@QBE?AV?$_Tree_const_iterator@V?$_Tree_val@U?$_Tree_simple_types@U?$pair@QAVRaven_Bot@@VMemoryRecord@@@std@@@std@@@std@@@2@ABQAVRaven_Bot@@@Z DD 0ffffffffH
	DD	FLAT:__unwindfunclet$?find@?$_Tree@V?$_Tmap_traits@PAVRaven_Bot@@VMemoryRecord@@U?$less@PAVRaven_Bot@@@std@@V?$allocator@U?$pair@QAVRaven_Bot@@VMemoryRecord@@@std@@@4@$0A@@std@@@std@@QBE?AV?$_Tree_const_iterator@V?$_Tree_val@U?$_Tree_simple_types@U?$pair@QAVRaven_Bot@@VMemoryRecord@@@std@@@std@@@std@@@2@ABQAVRaven_Bot@@@Z$0
	DD	00H
	DD	FLAT:__unwindfunclet$?find@?$_Tree@V?$_Tmap_traits@PAVRaven_Bot@@VMemoryRecord@@U?$less@PAVRaven_Bot@@@std@@V?$allocator@U?$pair@QAVRaven_Bot@@VMemoryRecord@@@std@@@4@$0A@@std@@@std@@QBE?AV?$_Tree_const_iterator@V?$_Tree_val@U?$_Tree_simple_types@U?$pair@QAVRaven_Bot@@VMemoryRecord@@@std@@@std@@@std@@@2@ABQAVRaven_Bot@@@Z$1
__ehfuncinfo$?find@?$_Tree@V?$_Tmap_traits@PAVRaven_Bot@@VMemoryRecord@@U?$less@PAVRaven_Bot@@@std@@V?$allocator@U?$pair@QAVRaven_Bot@@VMemoryRecord@@@std@@@4@$0A@@std@@@std@@QBE?AV?$_Tree_const_iterator@V?$_Tree_val@U?$_Tree_simple_types@U?$pair@QAVRaven_Bot@@VMemoryRecord@@@std@@@std@@@std@@@2@ABQAVRaven_Bot@@@Z DD 019930522H
	DD	02H
	DD	FLAT:__unwindtable$?find@?$_Tree@V?$_Tmap_traits@PAVRaven_Bot@@VMemoryRecord@@U?$less@PAVRaven_Bot@@@std@@V?$allocator@U?$pair@QAVRaven_Bot@@VMemoryRecord@@@std@@@4@$0A@@std@@@std@@QBE?AV?$_Tree_const_iterator@V?$_Tree_val@U?$_Tree_simple_types@U?$pair@QAVRaven_Bot@@VMemoryRecord@@@std@@@std@@@std@@@2@ABQAVRaven_Bot@@@Z
	DD	2 DUP(00H)
	DD	2 DUP(00H)
	DD	00H
	DD	01H
xdata$x	ENDS
;	COMDAT xdata$x
xdata$x	SEGMENT
__unwindtable$?find@?$_Tree@V?$_Tmap_traits@PAVRaven_Bot@@VMemoryRecord@@U?$less@PAVRaven_Bot@@@std@@V?$allocator@U?$pair@QAVRaven_Bot@@VMemoryRecord@@@std@@@4@$0A@@std@@@std@@QAE?AV?$_Tree_iterator@V?$_Tree_val@U?$_Tree_simple_types@U?$pair@QAVRaven_Bot@@VMemoryRecord@@@std@@@std@@@std@@@2@ABQAVRaven_Bot@@@Z DD 0ffffffffH
	DD	FLAT:__unwindfunclet$?find@?$_Tree@V?$_Tmap_traits@PAVRaven_Bot@@VMemoryRecord@@U?$less@PAVRaven_Bot@@@std@@V?$allocator@U?$pair@QAVRaven_Bot@@VMemoryRecord@@@std@@@4@$0A@@std@@@std@@QAE?AV?$_Tree_iterator@V?$_Tree_val@U?$_Tree_simple_types@U?$pair@QAVRaven_Bot@@VMemoryRecord@@@std@@@std@@@std@@@2@ABQAVRaven_Bot@@@Z$0
	DD	00H
	DD	FLAT:__unwindfunclet$?find@?$_Tree@V?$_Tmap_traits@PAVRaven_Bot@@VMemoryRecord@@U?$less@PAVRaven_Bot@@@std@@V?$allocator@U?$pair@QAVRaven_Bot@@VMemoryRecord@@@std@@@4@$0A@@std@@@std@@QAE?AV?$_Tree_iterator@V?$_Tree_val@U?$_Tree_simple_types@U?$pair@QAVRaven_Bot@@VMemoryRecord@@@std@@@std@@@std@@@2@ABQAVRaven_Bot@@@Z$1
__ehfuncinfo$?find@?$_Tree@V?$_Tmap_traits@PAVRaven_Bot@@VMemoryRecord@@U?$less@PAVRaven_Bot@@@std@@V?$allocator@U?$pair@QAVRaven_Bot@@VMemoryRecord@@@std@@@4@$0A@@std@@@std@@QAE?AV?$_Tree_iterator@V?$_Tree_val@U?$_Tree_simple_types@U?$pair@QAVRaven_Bot@@VMemoryRecord@@@std@@@std@@@std@@@2@ABQAVRaven_Bot@@@Z DD 019930522H
	DD	02H
	DD	FLAT:__unwindtable$?find@?$_Tree@V?$_Tmap_traits@PAVRaven_Bot@@VMemoryRecord@@U?$less@PAVRaven_Bot@@@std@@V?$allocator@U?$pair@QAVRaven_Bot@@VMemoryRecord@@@std@@@4@$0A@@std@@@std@@QAE?AV?$_Tree_iterator@V?$_Tree_val@U?$_Tree_simple_types@U?$pair@QAVRaven_Bot@@VMemoryRecord@@@std@@@std@@@std@@@2@ABQAVRaven_Bot@@@Z
	DD	2 DUP(00H)
	DD	2 DUP(00H)
	DD	00H
	DD	01H
xdata$x	ENDS
;	COMDAT xdata$x
xdata$x	SEGMENT
__unwindtable$?erase@?$_Tree@V?$_Tmap_traits@PAVRaven_Bot@@VMemoryRecord@@U?$less@PAVRaven_Bot@@@std@@V?$allocator@U?$pair@QAVRaven_Bot@@VMemoryRecord@@@std@@@4@$0A@@std@@@std@@QAE?AV?$_Tree_iterator@V?$_Tree_val@U?$_Tree_simple_types@U?$pair@QAVRaven_Bot@@VMemoryRecord@@@std@@@std@@@std@@@2@V?$_Tree_const_iterator@V?$_Tree_val@U?$_Tree_simple_types@U?$pair@QAVRaven_Bot@@VMemoryRecord@@@std@@@std@@@std@@@2@@Z DD 0ffffffffH
	DD	FLAT:__unwindfunclet$?erase@?$_Tree@V?$_Tmap_traits@PAVRaven_Bot@@VMemoryRecord@@U?$less@PAVRaven_Bot@@@std@@V?$allocator@U?$pair@QAVRaven_Bot@@VMemoryRecord@@@std@@@4@$0A@@std@@@std@@QAE?AV?$_Tree_iterator@V?$_Tree_val@U?$_Tree_simple_types@U?$pair@QAVRaven_Bot@@VMemoryRecord@@@std@@@std@@@std@@@2@V?$_Tree_const_iterator@V?$_Tree_val@U?$_Tree_simple_types@U?$pair@QAVRaven_Bot@@VMemoryRecord@@@std@@@std@@@std@@@2@@Z$0
	DD	00H
	DD	FLAT:__unwindfunclet$?erase@?$_Tree@V?$_Tmap_traits@PAVRaven_Bot@@VMemoryRecord@@U?$less@PAVRaven_Bot@@@std@@V?$allocator@U?$pair@QAVRaven_Bot@@VMemoryRecord@@@std@@@4@$0A@@std@@@std@@QAE?AV?$_Tree_iterator@V?$_Tree_val@U?$_Tree_simple_types@U?$pair@QAVRaven_Bot@@VMemoryRecord@@@std@@@std@@@std@@@2@V?$_Tree_const_iterator@V?$_Tree_val@U?$_Tree_simple_types@U?$pair@QAVRaven_Bot@@VMemoryRecord@@@std@@@std@@@std@@@2@@Z$1
__ehfuncinfo$?erase@?$_Tree@V?$_Tmap_traits@PAVRaven_Bot@@VMemoryRecord@@U?$less@PAVRaven_Bot@@@std@@V?$allocator@U?$pair@QAVRaven_Bot@@VMemoryRecord@@@std@@@4@$0A@@std@@@std@@QAE?AV?$_Tree_iterator@V?$_Tree_val@U?$_Tree_simple_types@U?$pair@QAVRaven_Bot@@VMemoryRecord@@@std@@@std@@@std@@@2@V?$_Tree_const_iterator@V?$_Tree_val@U?$_Tree_simple_types@U?$pair@QAVRaven_Bot@@VMemoryRecord@@@std@@@std@@@std@@@2@@Z DD 019930522H
	DD	02H
	DD	FLAT:__unwindtable$?erase@?$_Tree@V?$_Tmap_traits@PAVRaven_Bot@@VMemoryRecord@@U?$less@PAVRaven_Bot@@@std@@V?$allocator@U?$pair@QAVRaven_Bot@@VMemoryRecord@@@std@@@4@$0A@@std@@@std@@QAE?AV?$_Tree_iterator@V?$_Tree_val@U?$_Tree_simple_types@U?$pair@QAVRaven_Bot@@VMemoryRecord@@@std@@@std@@@std@@@2@V?$_Tree_const_iterator@V?$_Tree_val@U?$_Tree_simple_types@U?$pair@QAVRaven_Bot@@VMemoryRecord@@@std@@@std@@@std@@@2@@Z
	DD	2 DUP(00H)
	DD	2 DUP(00H)
	DD	00H
	DD	01H
xdata$x	ENDS
;	COMDAT xdata$x
xdata$x	SEGMENT
__ehfuncinfo$?end@?$_Tree@V?$_Tmap_traits@PAVRaven_Bot@@VMemoryRecord@@U?$less@PAVRaven_Bot@@@std@@V?$allocator@U?$pair@QAVRaven_Bot@@VMemoryRecord@@@std@@@4@$0A@@std@@@std@@QBE?AV?$_Tree_const_iterator@V?$_Tree_val@U?$_Tree_simple_types@U?$pair@QAVRaven_Bot@@VMemoryRecord@@@std@@@std@@@std@@@2@XZ DD 019930522H
	DD	00H
	DD	00H
	DD	2 DUP(00H)
	DD	2 DUP(00H)
	DD	00H
	DD	05H
xdata$x	ENDS
;	COMDAT xdata$x
xdata$x	SEGMENT
__ehfuncinfo$?end@?$_Tree@V?$_Tmap_traits@PAVRaven_Bot@@VMemoryRecord@@U?$less@PAVRaven_Bot@@@std@@V?$allocator@U?$pair@QAVRaven_Bot@@VMemoryRecord@@@std@@@4@$0A@@std@@@std@@QAE?AV?$_Tree_iterator@V?$_Tree_val@U?$_Tree_simple_types@U?$pair@QAVRaven_Bot@@VMemoryRecord@@@std@@@std@@@std@@@2@XZ DD 019930522H
	DD	00H
	DD	00H
	DD	2 DUP(00H)
	DD	2 DUP(00H)
	DD	00H
	DD	05H
xdata$x	ENDS
;	COMDAT xdata$x
xdata$x	SEGMENT
__ehfuncinfo$?begin@?$_Tree@V?$_Tmap_traits@PAVRaven_Bot@@VMemoryRecord@@U?$less@PAVRaven_Bot@@@std@@V?$allocator@U?$pair@QAVRaven_Bot@@VMemoryRecord@@@std@@@4@$0A@@std@@@std@@QBE?AV?$_Tree_const_iterator@V?$_Tree_val@U?$_Tree_simple_types@U?$pair@QAVRaven_Bot@@VMemoryRecord@@@std@@@std@@@std@@@2@XZ DD 019930522H
	DD	00H
	DD	00H
	DD	2 DUP(00H)
	DD	2 DUP(00H)
	DD	00H
	DD	05H
xdata$x	ENDS
;	COMDAT xdata$x
xdata$x	SEGMENT
__ehfuncinfo$?begin@?$_Tree@V?$_Tmap_traits@PAVRaven_Bot@@VMemoryRecord@@U?$less@PAVRaven_Bot@@@std@@V?$allocator@U?$pair@QAVRaven_Bot@@VMemoryRecord@@@std@@@4@$0A@@std@@@std@@QAE?AV?$_Tree_iterator@V?$_Tree_val@U?$_Tree_simple_types@U?$pair@QAVRaven_Bot@@VMemoryRecord@@@std@@@std@@@std@@@2@XZ DD 019930522H
	DD	00H
	DD	00H
	DD	2 DUP(00H)
	DD	2 DUP(00H)
	DD	00H
	DD	05H
xdata$x	ENDS
;	COMDAT xdata$x
xdata$x	SEGMENT
__unwindtable$?_Extract@?$_Tree_val@U?$_Tree_simple_types@U?$pair@QAVRaven_Bot@@VMemoryRecord@@@std@@@std@@@std@@QAEPAU?$_Tree_node@U?$pair@QAVRaven_Bot@@VMemoryRecord@@@std@@PAX@2@V?$_Tree_const_iterator@V?$_Tree_val@U?$_Tree_simple_types@U?$pair@QAVRaven_Bot@@VMemoryRecord@@@std@@@std@@@std@@@2@@Z DD 0ffffffffH
	DD	FLAT:__unwindfunclet$?_Extract@?$_Tree_val@U?$_Tree_simple_types@U?$pair@QAVRaven_Bot@@VMemoryRecord@@@std@@@std@@@std@@QAEPAU?$_Tree_node@U?$pair@QAVRaven_Bot@@VMemoryRecord@@@std@@PAX@2@V?$_Tree_const_iterator@V?$_Tree_val@U?$_Tree_simple_types@U?$pair@QAVRaven_Bot@@VMemoryRecord@@@std@@@std@@@std@@@2@@Z$0
__ehfuncinfo$?_Extract@?$_Tree_val@U?$_Tree_simple_types@U?$pair@QAVRaven_Bot@@VMemoryRecord@@@std@@@std@@@std@@QAEPAU?$_Tree_node@U?$pair@QAVRaven_Bot@@VMemoryRecord@@@std@@PAX@2@V?$_Tree_const_iterator@V?$_Tree_val@U?$_Tree_simple_types@U?$pair@QAVRaven_Bot@@VMemoryRecord@@@std@@@std@@@std@@@2@@Z DD 019930522H
	DD	01H
	DD	FLAT:__unwindtable$?_Extract@?$_Tree_val@U?$_Tree_simple_types@U?$pair@QAVRaven_Bot@@VMemoryRecord@@@std@@@std@@@std@@QAEPAU?$_Tree_node@U?$pair@QAVRaven_Bot@@VMemoryRecord@@@std@@PAX@2@V?$_Tree_const_iterator@V?$_Tree_val@U?$_Tree_simple_types@U?$pair@QAVRaven_Bot@@VMemoryRecord@@@std@@@std@@@std@@@2@@Z
	DD	2 DUP(00H)
	DD	2 DUP(00H)
	DD	00H
	DD	01H
xdata$x	ENDS
;	COMDAT xdata$x
xdata$x	SEGMENT
__catchsym$?_Buynode0@?$_Tree_comp_alloc@V?$_Tmap_traits@PAVRaven_Bot@@VMemoryRecord@@U?$less@PAVRaven_Bot@@@std@@V?$allocator@U?$pair@QAVRaven_Bot@@VMemoryRecord@@@std@@@4@$0A@@std@@@std@@QAEPAU?$_Tree_node@U?$pair@QAVRaven_Bot@@VMemoryRecord@@@std@@PAX@2@XZ$2 DD 040H
	DD	00H
	DD	00H
	DD	FLAT:__catch$?_Buynode0@?$_Tree_comp_alloc@V?$_Tmap_traits@PAVRaven_Bot@@VMemoryRecord@@U?$less@PAVRaven_Bot@@@std@@V?$allocator@U?$pair@QAVRaven_Bot@@VMemoryRecord@@@std@@@4@$0A@@std@@@std@@QAEPAU?$_Tree_node@U?$pair@QAVRaven_Bot@@VMemoryRecord@@@std@@PAX@2@XZ$0
__unwindtable$?_Buynode0@?$_Tree_comp_alloc@V?$_Tmap_traits@PAVRaven_Bot@@VMemoryRecord@@U?$less@PAVRaven_Bot@@@std@@V?$allocator@U?$pair@QAVRaven_Bot@@VMemoryRecord@@@std@@@4@$0A@@std@@@std@@QAEPAU?$_Tree_node@U?$pair@QAVRaven_Bot@@VMemoryRecord@@@std@@PAX@2@XZ DD 0ffffffffH
	DD	00H
	DD	0ffffffffH
	DD	00H
__tryblocktable$?_Buynode0@?$_Tree_comp_alloc@V?$_Tmap_traits@PAVRaven_Bot@@VMemoryRecord@@U?$less@PAVRaven_Bot@@@std@@V?$allocator@U?$pair@QAVRaven_Bot@@VMemoryRecord@@@std@@@4@$0A@@std@@@std@@QAEPAU?$_Tree_node@U?$pair@QAVRaven_Bot@@VMemoryRecord@@@std@@PAX@2@XZ DD 00H
	DD	00H
	DD	01H
	DD	01H
	DD	FLAT:__catchsym$?_Buynode0@?$_Tree_comp_alloc@V?$_Tmap_traits@PAVRaven_Bot@@VMemoryRecord@@U?$less@PAVRaven_Bot@@@std@@V?$allocator@U?$pair@QAVRaven_Bot@@VMemoryRecord@@@std@@@4@$0A@@std@@@std@@QAEPAU?$_Tree_node@U?$pair@QAVRaven_Bot@@VMemoryRecord@@@std@@PAX@2@XZ$2
__ehfuncinfo$?_Buynode0@?$_Tree_comp_alloc@V?$_Tmap_traits@PAVRaven_Bot@@VMemoryRecord@@U?$less@PAVRaven_Bot@@@std@@V?$allocator@U?$pair@QAVRaven_Bot@@VMemoryRecord@@@std@@@4@$0A@@std@@@std@@QAEPAU?$_Tree_node@U?$pair@QAVRaven_Bot@@VMemoryRecord@@@std@@PAX@2@XZ DD 019930522H
	DD	02H
	DD	FLAT:__unwindtable$?_Buynode0@?$_Tree_comp_alloc@V?$_Tmap_traits@PAVRaven_Bot@@VMemoryRecord@@U?$less@PAVRaven_Bot@@@std@@V?$allocator@U?$pair@QAVRaven_Bot@@VMemoryRecord@@@std@@@4@$0A@@std@@@std@@QAEPAU?$_Tree_node@U?$pair@QAVRaven_Bot@@VMemoryRecord@@@std@@PAX@2@XZ
	DD	01H
	DD	FLAT:__tryblocktable$?_Buynode0@?$_Tree_comp_alloc@V?$_Tmap_traits@PAVRaven_Bot@@VMemoryRecord@@U?$less@PAVRaven_Bot@@@std@@V?$allocator@U?$pair@QAVRaven_Bot@@VMemoryRecord@@@std@@@4@$0A@@std@@@std@@QAEPAU?$_Tree_node@U?$pair@QAVRaven_Bot@@VMemoryRecord@@@std@@PAX@2@XZ
	DD	2 DUP(00H)
	DD	00H
	DD	01H
xdata$x	ENDS
;	COMDAT xdata$x
xdata$x	SEGMENT
__catchsym$?_Buyheadnode@?$_Tree_comp_alloc@V?$_Tmap_traits@PAVRaven_Bot@@VMemoryRecord@@U?$less@PAVRaven_Bot@@@std@@V?$allocator@U?$pair@QAVRaven_Bot@@VMemoryRecord@@@std@@@4@$0A@@std@@@std@@QAEPAU?$_Tree_node@U?$pair@QAVRaven_Bot@@VMemoryRecord@@@std@@PAX@2@XZ$2 DD 040H
	DD	00H
	DD	00H
	DD	FLAT:__catch$?_Buyheadnode@?$_Tree_comp_alloc@V?$_Tmap_traits@PAVRaven_Bot@@VMemoryRecord@@U?$less@PAVRaven_Bot@@@std@@V?$allocator@U?$pair@QAVRaven_Bot@@VMemoryRecord@@@std@@@4@$0A@@std@@@std@@QAEPAU?$_Tree_node@U?$pair@QAVRaven_Bot@@VMemoryRecord@@@std@@PAX@2@XZ$0
__unwindtable$?_Buyheadnode@?$_Tree_comp_alloc@V?$_Tmap_traits@PAVRaven_Bot@@VMemoryRecord@@U?$less@PAVRaven_Bot@@@std@@V?$allocator@U?$pair@QAVRaven_Bot@@VMemoryRecord@@@std@@@4@$0A@@std@@@std@@QAEPAU?$_Tree_node@U?$pair@QAVRaven_Bot@@VMemoryRecord@@@std@@PAX@2@XZ DD 0ffffffffH
	DD	00H
	DD	0ffffffffH
	DD	00H
__tryblocktable$?_Buyheadnode@?$_Tree_comp_alloc@V?$_Tmap_traits@PAVRaven_Bot@@VMemoryRecord@@U?$less@PAVRaven_Bot@@@std@@V?$allocator@U?$pair@QAVRaven_Bot@@VMemoryRecord@@@std@@@4@$0A@@std@@@std@@QAEPAU?$_Tree_node@U?$pair@QAVRaven_Bot@@VMemoryRecord@@@std@@PAX@2@XZ DD 00H
	DD	00H
	DD	01H
	DD	01H
	DD	FLAT:__catchsym$?_Buyheadnode@?$_Tree_comp_alloc@V?$_Tmap_traits@PAVRaven_Bot@@VMemoryRecord@@U?$less@PAVRaven_Bot@@@std@@V?$allocator@U?$pair@QAVRaven_Bot@@VMemoryRecord@@@std@@@4@$0A@@std@@@std@@QAEPAU?$_Tree_node@U?$pair@QAVRaven_Bot@@VMemoryRecord@@@std@@PAX@2@XZ$2
__ehfuncinfo$?_Buyheadnode@?$_Tree_comp_alloc@V?$_Tmap_traits@PAVRaven_Bot@@VMemoryRecord@@U?$less@PAVRaven_Bot@@@std@@V?$allocator@U?$pair@QAVRaven_Bot@@VMemoryRecord@@@std@@@4@$0A@@std@@@std@@QAEPAU?$_Tree_node@U?$pair@QAVRaven_Bot@@VMemoryRecord@@@std@@PAX@2@XZ DD 019930522H
	DD	02H
	DD	FLAT:__unwindtable$?_Buyheadnode@?$_Tree_comp_alloc@V?$_Tmap_traits@PAVRaven_Bot@@VMemoryRecord@@U?$less@PAVRaven_Bot@@@std@@V?$allocator@U?$pair@QAVRaven_Bot@@VMemoryRecord@@@std@@@4@$0A@@std@@@std@@QAEPAU?$_Tree_node@U?$pair@QAVRaven_Bot@@VMemoryRecord@@@std@@PAX@2@XZ
	DD	01H
	DD	FLAT:__tryblocktable$?_Buyheadnode@?$_Tree_comp_alloc@V?$_Tmap_traits@PAVRaven_Bot@@VMemoryRecord@@U?$less@PAVRaven_Bot@@@std@@V?$allocator@U?$pair@QAVRaven_Bot@@VMemoryRecord@@@std@@@4@$0A@@std@@@std@@QAEPAU?$_Tree_node@U?$pair@QAVRaven_Bot@@VMemoryRecord@@@std@@PAX@2@XZ
	DD	2 DUP(00H)
	DD	00H
	DD	01H
xdata$x	ENDS
;	COMDAT xdata$x
xdata$x	SEGMENT
__catchsym$?_Construct@?$_Tree_comp_alloc@V?$_Tmap_traits@PAVRaven_Bot@@VMemoryRecord@@U?$less@PAVRaven_Bot@@@std@@V?$allocator@U?$pair@QAVRaven_Bot@@VMemoryRecord@@@std@@@4@$0A@@std@@@std@@QAEXXZ$2 DD 040H
	DD	00H
	DD	00H
	DD	FLAT:__catch$?_Construct@?$_Tree_comp_alloc@V?$_Tmap_traits@PAVRaven_Bot@@VMemoryRecord@@U?$less@PAVRaven_Bot@@@std@@V?$allocator@U?$pair@QAVRaven_Bot@@VMemoryRecord@@@std@@@4@$0A@@std@@@std@@QAEXXZ$0
__unwindtable$?_Construct@?$_Tree_comp_alloc@V?$_Tmap_traits@PAVRaven_Bot@@VMemoryRecord@@U?$less@PAVRaven_Bot@@@std@@V?$allocator@U?$pair@QAVRaven_Bot@@VMemoryRecord@@@std@@@4@$0A@@std@@@std@@QAEXXZ DD 0ffffffffH
	DD	00H
	DD	0ffffffffH
	DD	00H
__tryblocktable$?_Construct@?$_Tree_comp_alloc@V?$_Tmap_traits@PAVRaven_Bot@@VMemoryRecord@@U?$less@PAVRaven_Bot@@@std@@V?$allocator@U?$pair@QAVRaven_Bot@@VMemoryRecord@@@std@@@4@$0A@@std@@@std@@QAEXXZ DD 00H
	DD	00H
	DD	01H
	DD	01H
	DD	FLAT:__catchsym$?_Construct@?$_Tree_comp_alloc@V?$_Tmap_traits@PAVRaven_Bot@@VMemoryRecord@@U?$less@PAVRaven_Bot@@@std@@V?$allocator@U?$pair@QAVRaven_Bot@@VMemoryRecord@@@std@@@4@$0A@@std@@@std@@QAEXXZ$2
__ehfuncinfo$?_Construct@?$_Tree_comp_alloc@V?$_Tmap_traits@PAVRaven_Bot@@VMemoryRecord@@U?$less@PAVRaven_Bot@@@std@@V?$allocator@U?$pair@QAVRaven_Bot@@VMemoryRecord@@@std@@@4@$0A@@std@@@std@@QAEXXZ DD 019930522H
	DD	02H
	DD	FLAT:__unwindtable$?_Construct@?$_Tree_comp_alloc@V?$_Tmap_traits@PAVRaven_Bot@@VMemoryRecord@@U?$less@PAVRaven_Bot@@@std@@V?$allocator@U?$pair@QAVRaven_Bot@@VMemoryRecord@@@std@@@4@$0A@@std@@@std@@QAEXXZ
	DD	01H
	DD	FLAT:__tryblocktable$?_Construct@?$_Tree_comp_alloc@V?$_Tmap_traits@PAVRaven_Bot@@VMemoryRecord@@U?$less@PAVRaven_Bot@@@std@@V?$allocator@U?$pair@QAVRaven_Bot@@VMemoryRecord@@@std@@@4@$0A@@std@@@std@@QAEXXZ
	DD	2 DUP(00H)
	DD	00H
	DD	01H
xdata$x	ENDS
;	COMDAT xdata$x
xdata$x	SEGMENT
__ehfuncinfo$?_Adopt@_Iterator_base12@std@@QAEXPBU_Container_base12@2@@Z DD 019930522H
	DD	00H
	DD	00H
	DD	2 DUP(00H)
	DD	2 DUP(00H)
	DD	00H
	DD	05H
xdata$x	ENDS
;	COMDAT xdata$x
xdata$x	SEGMENT
__ehfuncinfo$??1_Iterator_base12@std@@QAE@XZ DD 019930522H
	DD	00H
	DD	00H
	DD	2 DUP(00H)
	DD	2 DUP(00H)
	DD	00H
	DD	05H
xdata$x	ENDS
;	COMDAT xdata$x
xdata$x	SEGMENT
__ehfuncinfo$??4_Iterator_base12@std@@QAEAAU01@ABU01@@Z DD 019930522H
	DD	00H
	DD	00H
	DD	2 DUP(00H)
	DD	2 DUP(00H)
	DD	00H
	DD	05H
xdata$x	ENDS
;	COMDAT xdata$x
xdata$x	SEGMENT
__ehfuncinfo$?_Swap_all@_Container_base12@std@@QAEXAAU12@@Z DD 019930522H
	DD	00H
	DD	00H
	DD	2 DUP(00H)
	DD	2 DUP(00H)
	DD	00H
	DD	05H
xdata$x	ENDS
;	COMDAT xdata$x
xdata$x	SEGMENT
__ehfuncinfo$?_Orphan_all@_Container_base12@std@@QAEXXZ DD 019930522H
	DD	00H
	DD	00H
	DD	2 DUP(00H)
	DD	2 DUP(00H)
	DD	00H
	DD	05H
xdata$x	ENDS
CRT$XCU	SEGMENT
?MaxDouble$initializer$@@3P6AXXZA DD FLAT:??__EMaxDouble@@YAXXZ ; MaxDouble$initializer$
CRT$XCU	ENDS
CRT$XCU	SEGMENT
?MinDouble$initializer$@@3P6AXXZA DD FLAT:??__EMinDouble@@YAXXZ ; MinDouble$initializer$
CRT$XCU	ENDS
CRT$XCU	SEGMENT
?MaxFloat$initializer$@@3P6AXXZA DD FLAT:??__EMaxFloat@@YAXXZ ; MaxFloat$initializer$
CRT$XCU	ENDS
CRT$XCU	SEGMENT
?MinFloat$initializer$@@3P6AXXZA DD FLAT:??__EMinFloat@@YAXXZ ; MinFloat$initializer$
CRT$XCU	ENDS
;	COMDAT CRT$XCU
CRT$XCU	SEGMENT
??id$initializer$@?$codecvt@DDU_Mbstatet@@@std@@2P6AXXZA@@3P6AXXZA DD FLAT:??__E?id@?$codecvt@DDU_Mbstatet@@@std@@2V0locale@2@A@@YAXXZ ; ??id$initializer$@?$codecvt@DDU_Mbstatet@@@std@@2P6AXXZA@@3P6AXXZA
CRT$XCU	ENDS
;	COMDAT CRT$XCU
CRT$XCU	SEGMENT
??id$initializer$@?$num_get@DV?$istreambuf_iterator@DU?$char_traits@D@std@@@std@@@std@@2P6AXXZA@@3P6AXXZA DD FLAT:??__E?id@?$num_get@DV?$istreambuf_iterator@DU?$char_traits@D@std@@@std@@@std@@2V0locale@2@A@@YAXXZ ; ??id$initializer$@?$num_get@DV?$istreambuf_iterator@DU?$char_traits@D@std@@@std@@@std@@2P6AXXZA@@3P6AXXZA
CRT$XCU	ENDS
;	COMDAT CRT$XCU
CRT$XCU	SEGMENT
??id$initializer$@?$numpunct@D@std@@2P6AXXZA@@3P6AXXZA DD FLAT:??__E?id@?$numpunct@D@std@@2V0locale@2@A@@YAXXZ ; ??id$initializer$@?$numpunct@D@std@@2P6AXXZA@@3P6AXXZA
CRT$XCU	ENDS
; Function compile flags: /Odtp /RTCsu
; File c:\program files (x86)\microsoft visual studio\2017\community\vc\tools\msvc\14.15.26726\include\tuple
;	COMDAT ??$get@$0A@ABQAVRaven_Bot@@@std@@YAABQAVRaven_Bot@@$$QAV?$tuple@ABQAVRaven_Bot@@@0@@Z
_TEXT	SEGMENT
__Tuple$ = 8						; size = 4
??$get@$0A@ABQAVRaven_Bot@@@std@@YAABQAVRaven_Bot@@$$QAV?$tuple@ABQAVRaven_Bot@@@0@@Z PROC ; std::get<0,Raven_Bot * const &>, COMDAT

; 978  : 	{	// get rvalue reference to _Index element of tuple

	push	ebp
	mov	ebp, esp

; 979  : 	typedef typename tuple_element<_Index, tuple<_Types...>>::_Ttype _Ttype;
; 980  : 	typedef tuple_element_t<_Index, tuple<_Types...>>&& _RRtype;
; 981  : 	return (_STD forward<_RRtype>(((_Ttype&)_Tuple)._Myfirst._Val));

	mov	eax, DWORD PTR __Tuple$[ebp]
	mov	ecx, DWORD PTR [eax]
	push	ecx
	call	??$forward@ABQAVRaven_Bot@@@std@@YAABQAVRaven_Bot@@ABQAV1@@Z ; std::forward<Raven_Bot * const &>
	add	esp, 4

; 982  : 	}

	cmp	ebp, esp
	call	__RTC_CheckEsp
	pop	ebp
	ret	0
??$get@$0A@ABQAVRaven_Bot@@@std@@YAABQAVRaven_Bot@@$$QAV?$tuple@ABQAVRaven_Bot@@@0@@Z ENDP ; std::get<0,Raven_Bot * const &>
_TEXT	ENDS
; Function compile flags: /Odtp /RTCsu
; File c:\program files (x86)\microsoft visual studio\2017\community\vc\tools\msvc\14.15.26726\include\type_traits
;	COMDAT ??$move@AAV?$tuple@ABQAVRaven_Bot@@@std@@@std@@YA$$QAV?$tuple@ABQAVRaven_Bot@@@0@AAV10@@Z
_TEXT	SEGMENT
__Arg$ = 8						; size = 4
??$move@AAV?$tuple@ABQAVRaven_Bot@@@std@@@std@@YA$$QAV?$tuple@ABQAVRaven_Bot@@@0@AAV10@@Z PROC ; std::move<std::tuple<Raven_Bot * const &> &>, COMDAT

; 1588 : 	{	// forward _Arg as movable

	push	ebp
	mov	ebp, esp

; 1589 : 	return (static_cast<remove_reference_t<_Ty>&&>(_Arg));

	mov	eax, DWORD PTR __Arg$[ebp]

; 1590 : 	}

	pop	ebp
	ret	0
??$move@AAV?$tuple@ABQAVRaven_Bot@@@std@@@std@@YA$$QAV?$tuple@ABQAVRaven_Bot@@@0@AAV10@@Z ENDP ; std::move<std::tuple<Raven_Bot * const &> &>
_TEXT	ENDS
; Function compile flags: /Odtp /RTCsu
; File c:\program files (x86)\microsoft visual studio\2017\community\vc\tools\msvc\14.15.26726\include\tuple
;	COMDAT ??$?0V?$tuple@ABQAVRaven_Bot@@@std@@V?$tuple@$$V@1@$0A@$$Z$S@?$pair@QAVRaven_Bot@@VMemoryRecord@@@std@@QAE@AAV?$tuple@ABQAVRaven_Bot@@@1@AAV?$tuple@$$V@1@U?$integer_sequence@I$0A@@1@U?$integer_sequence@I$S@1@@Z
_TEXT	SEGMENT
_this$ = -4						; size = 4
__Val1$ = 8						; size = 4
__Val2$ = 12						; size = 4
___formal$ = 16						; size = 1
___formal$ = 20						; size = 1
??$?0V?$tuple@ABQAVRaven_Bot@@@std@@V?$tuple@$$V@1@$0A@$$Z$S@?$pair@QAVRaven_Bot@@VMemoryRecord@@@std@@QAE@AAV?$tuple@ABQAVRaven_Bot@@@1@AAV?$tuple@$$V@1@U?$integer_sequence@I$0A@@1@U?$integer_sequence@I$S@1@@Z PROC ; std::pair<Raven_Bot * const,MemoryRecord>::pair<Raven_Bot * const,MemoryRecord><std::tuple<Raven_Bot * const &>,std::tuple<>,0>, COMDAT
; _this$ = ecx

; 1306 : 		{	// construct from pair of tuples

	push	ebp
	mov	ebp, esp
	push	ecx
	mov	DWORD PTR [ebp-4], -858993460		; ccccccccH
	mov	DWORD PTR _this$[ebp], ecx

; 1304 : 		: first(_STD get<_Indexes1>(_STD move(_Val1))...),

	mov	eax, DWORD PTR __Val1$[ebp]
	push	eax
	call	??$move@AAV?$tuple@ABQAVRaven_Bot@@@std@@@std@@YA$$QAV?$tuple@ABQAVRaven_Bot@@@0@AAV10@@Z ; std::move<std::tuple<Raven_Bot * const &> &>
	add	esp, 4
	push	eax
	call	??$get@$0A@ABQAVRaven_Bot@@@std@@YAABQAVRaven_Bot@@$$QAV?$tuple@ABQAVRaven_Bot@@@0@@Z ; std::get<0,Raven_Bot * const &>
	add	esp, 4
	mov	ecx, DWORD PTR _this$[ebp]
	mov	edx, DWORD PTR [eax]
	mov	DWORD PTR [ecx], edx

; 1305 : 			second(_STD get<_Indexes2>(_STD move(_Val2))...)

	mov	ecx, DWORD PTR _this$[ebp]
	add	ecx, 8
	call	??0MemoryRecord@@QAE@XZ			; MemoryRecord::MemoryRecord

; 1307 : 		}

	mov	eax, DWORD PTR _this$[ebp]
	add	esp, 4
	cmp	ebp, esp
	call	__RTC_CheckEsp
	mov	esp, ebp
	pop	ebp
	ret	16					; 00000010H
??$?0V?$tuple@ABQAVRaven_Bot@@@std@@V?$tuple@$$V@1@$0A@$$Z$S@?$pair@QAVRaven_Bot@@VMemoryRecord@@@std@@QAE@AAV?$tuple@ABQAVRaven_Bot@@@1@AAV?$tuple@$$V@1@U?$integer_sequence@I$0A@@1@U?$integer_sequence@I$S@1@@Z ENDP ; std::pair<Raven_Bot * const,MemoryRecord>::pair<Raven_Bot * const,MemoryRecord><std::tuple<Raven_Bot * const &>,std::tuple<>,0>
_TEXT	ENDS
; Function compile flags: /Odtp /RTCsu
; File c:\program files (x86)\microsoft visual studio\2017\community\vc\tools\msvc\14.15.26726\include\xtree
;	COMDAT ??$_Buy_if_not_node@AAU?$pair@QAVRaven_Bot@@VMemoryRecord@@@std@@@?$_Tree@V?$_Tmap_traits@PAVRaven_Bot@@VMemoryRecord@@U?$less@PAVRaven_Bot@@@std@@V?$allocator@U?$pair@QAVRaven_Bot@@VMemoryRecord@@@std@@@4@$0A@@std@@@std@@IAEPAU?$_Tree_node@U?$pair@QAVRaven_Bot@@VMemoryRecord@@@std@@PAX@1@PAU21@AAU?$pair@QAVRaven_Bot@@VMemoryRecord@@@1@@Z
_TEXT	SEGMENT
_this$ = -4						; size = 4
__Node$ = 8						; size = 4
___formal$ = 12						; size = 4
??$_Buy_if_not_node@AAU?$pair@QAVRaven_Bot@@VMemoryRecord@@@std@@@?$_Tree@V?$_Tmap_traits@PAVRaven_Bot@@VMemoryRecord@@U?$less@PAVRaven_Bot@@@std@@V?$allocator@U?$pair@QAVRaven_Bot@@VMemoryRecord@@@std@@@4@$0A@@std@@@std@@IAEPAU?$_Tree_node@U?$pair@QAVRaven_Bot@@VMemoryRecord@@@std@@PAX@1@PAU21@AAU?$pair@QAVRaven_Bot@@VMemoryRecord@@@1@@Z PROC ; std::_Tree<std::_Tmap_traits<Raven_Bot *,MemoryRecord,std::less<Raven_Bot *>,std::allocator<std::pair<Raven_Bot * const,MemoryRecord> >,0> >::_Buy_if_not_node<std::pair<Raven_Bot * const,MemoryRecord> &>, COMDAT
; _this$ = ecx

; 1574 : 		{	// node exists, just return it

	push	ebp
	mov	ebp, esp
	push	ecx
	mov	DWORD PTR [ebp-4], -858993460		; ccccccccH
	mov	DWORD PTR _this$[ebp], ecx

; 1575 : 		return (_Node);

	mov	eax, DWORD PTR __Node$[ebp]

; 1576 : 		}

	mov	esp, ebp
	pop	ebp
	ret	8
??$_Buy_if_not_node@AAU?$pair@QAVRaven_Bot@@VMemoryRecord@@@std@@@?$_Tree@V?$_Tmap_traits@PAVRaven_Bot@@VMemoryRecord@@U?$less@PAVRaven_Bot@@@std@@V?$allocator@U?$pair@QAVRaven_Bot@@VMemoryRecord@@@std@@@4@$0A@@std@@@std@@IAEPAU?$_Tree_node@U?$pair@QAVRaven_Bot@@VMemoryRecord@@@std@@PAX@1@PAU21@AAU?$pair@QAVRaven_Bot@@VMemoryRecord@@@1@@Z ENDP ; std::_Tree<std::_Tmap_traits<Raven_Bot *,MemoryRecord,std::less<Raven_Bot *>,std::allocator<std::pair<Raven_Bot * const,MemoryRecord> >,0> >::_Buy_if_not_node<std::pair<Raven_Bot * const,MemoryRecord> &>
_TEXT	ENDS
; Function compile flags: /Odtp /RTCsu
; File c:\program files (x86)\microsoft visual studio\2017\community\vc\tools\msvc\14.15.26726\include\tuple
;	COMDAT ??$?0ABQAVRaven_Bot@@$$Z$$V@?$pair@QAVRaven_Bot@@VMemoryRecord@@@std@@QAE@Upiecewise_construct_t@1@V?$tuple@ABQAVRaven_Bot@@@1@V?$tuple@$$V@1@@Z
_TEXT	SEGMENT
$T1 = -6						; size = 1
$T2 = -5						; size = 1
_this$ = -4						; size = 4
___formal$ = 8						; size = 1
__Val1$ = 12						; size = 4
__Val2$ = 16						; size = 1
??$?0ABQAVRaven_Bot@@$$Z$$V@?$pair@QAVRaven_Bot@@VMemoryRecord@@@std@@QAE@Upiecewise_construct_t@1@V?$tuple@ABQAVRaven_Bot@@@1@V?$tuple@$$V@1@@Z PROC ; std::pair<Raven_Bot * const,MemoryRecord>::pair<Raven_Bot * const,MemoryRecord><Raven_Bot * const &>, COMDAT
; _this$ = ecx

; 1321 : 		{	// construct from pair of tuples

	push	ebp
	mov	ebp, esp
	sub	esp, 8
	mov	DWORD PTR [ebp-8], -858993460		; ccccccccH
	mov	DWORD PTR [ebp-4], -858993460		; ccccccccH
	mov	DWORD PTR _this$[ebp], ecx

; 1318 : 		: pair(_Val1, _Val2,

	movzx	eax, BYTE PTR $T2[ebp]
	push	eax
	movzx	ecx, BYTE PTR $T1[ebp]
	push	ecx
	lea	edx, DWORD PTR __Val2$[ebp]
	push	edx
	lea	eax, DWORD PTR __Val1$[ebp]
	push	eax
	mov	ecx, DWORD PTR _this$[ebp]
	call	??$?0V?$tuple@ABQAVRaven_Bot@@@std@@V?$tuple@$$V@1@$0A@$$Z$S@?$pair@QAVRaven_Bot@@VMemoryRecord@@@std@@QAE@AAV?$tuple@ABQAVRaven_Bot@@@1@AAV?$tuple@$$V@1@U?$integer_sequence@I$0A@@1@U?$integer_sequence@I$S@1@@Z ; std::pair<Raven_Bot * const,MemoryRecord>::pair<Raven_Bot * const,MemoryRecord><std::tuple<Raven_Bot * const &>,std::tuple<>,0>

; 1322 : 		}

	mov	eax, DWORD PTR _this$[ebp]
	add	esp, 8
	cmp	ebp, esp
	call	__RTC_CheckEsp
	mov	esp, ebp
	pop	ebp
	ret	12					; 0000000cH
??$?0ABQAVRaven_Bot@@$$Z$$V@?$pair@QAVRaven_Bot@@VMemoryRecord@@@std@@QAE@Upiecewise_construct_t@1@V?$tuple@ABQAVRaven_Bot@@@1@V?$tuple@$$V@1@@Z ENDP ; std::pair<Raven_Bot * const,MemoryRecord>::pair<Raven_Bot * const,MemoryRecord><Raven_Bot * const &>
_TEXT	ENDS
; Function compile flags: /Odtp /RTCsu
; File c:\program files (x86)\microsoft visual studio\2017\community\vc\tools\msvc\14.15.26726\include\tuple
;	COMDAT ??$?0ABQAVRaven_Bot@@@?$_Tuple_val@ABQAVRaven_Bot@@@std@@QAE@ABQAVRaven_Bot@@@Z
_TEXT	SEGMENT
_this$ = -4						; size = 4
__Arg$ = 8						; size = 4
??$?0ABQAVRaven_Bot@@@?$_Tuple_val@ABQAVRaven_Bot@@@std@@QAE@ABQAVRaven_Bot@@@Z PROC ; std::_Tuple_val<Raven_Bot * const &>::_Tuple_val<Raven_Bot * const &><Raven_Bot * const &>, COMDAT
; _this$ = ecx

; 237  : 		{	// construct with argument

	push	ebp
	mov	ebp, esp
	push	ecx
	mov	DWORD PTR [ebp-4], -858993460		; ccccccccH
	mov	DWORD PTR _this$[ebp], ecx

; 236  : 		: _Val(_STD forward<_Other>(_Arg))

	mov	eax, DWORD PTR __Arg$[ebp]
	push	eax
	call	??$forward@ABQAVRaven_Bot@@@std@@YAABQAVRaven_Bot@@ABQAV1@@Z ; std::forward<Raven_Bot * const &>
	add	esp, 4
	mov	ecx, DWORD PTR _this$[ebp]
	mov	DWORD PTR [ecx], eax

; 238  : 		}

	mov	eax, DWORD PTR _this$[ebp]
	add	esp, 4
	cmp	ebp, esp
	call	__RTC_CheckEsp
	mov	esp, ebp
	pop	ebp
	ret	4
??$?0ABQAVRaven_Bot@@@?$_Tuple_val@ABQAVRaven_Bot@@@std@@QAE@ABQAVRaven_Bot@@@Z ENDP ; std::_Tuple_val<Raven_Bot * const &>::_Tuple_val<Raven_Bot * const &><Raven_Bot * const &>
_TEXT	ENDS
; Function compile flags: /Odtp /RTCsu
; File c:\program files (x86)\microsoft visual studio\2017\community\vc\tools\msvc\14.15.26726\include\tuple
;	COMDAT ??$?0U_Exact_args_t@std@@$0A@@?$tuple@$$V@std@@QAE@U_Exact_args_t@1@@Z
_TEXT	SEGMENT
_this$ = -4						; size = 4
___formal$ = 8						; size = 1
??$?0U_Exact_args_t@std@@$0A@@?$tuple@$$V@std@@QAE@U_Exact_args_t@1@@Z PROC ; std::tuple<>::tuple<><std::_Exact_args_t,0>, COMDAT
; _this$ = ecx

; 318  : 		{	// construct from one arg per element

	push	ebp
	mov	ebp, esp
	push	ecx
	mov	DWORD PTR [ebp-4], -858993460		; ccccccccH
	mov	DWORD PTR _this$[ebp], ecx

; 319  : 		}

	mov	eax, DWORD PTR _this$[ebp]
	mov	esp, ebp
	pop	ebp
	ret	4
??$?0U_Exact_args_t@std@@$0A@@?$tuple@$$V@std@@QAE@U_Exact_args_t@1@@Z ENDP ; std::tuple<>::tuple<><std::_Exact_args_t,0>
_TEXT	ENDS
; Function compile flags: /Odtp /RTCsu
; File c:\program files (x86)\microsoft visual studio\2017\community\vc\tools\msvc\14.15.26726\include\xtree
;	COMDAT ??$_Insert_nohint@AAU?$pair@QAVRaven_Bot@@VMemoryRecord@@@std@@PAU?$_Tree_node@U?$pair@QAVRaven_Bot@@VMemoryRecord@@@std@@PAX@2@@?$_Tree@V?$_Tmap_traits@PAVRaven_Bot@@VMemoryRecord@@U?$less@PAVRaven_Bot@@@std@@V?$allocator@U?$pair@QAVRaven_Bot@@VMemoryRecord@@@std@@@4@$0A@@std@@@std@@IAE?AU?$pair@V?$_Tree_iterator@V?$_Tree_val@U?$_Tree_simple_types@U?$pair@QAVRaven_Bot@@VMemoryRecord@@@std@@@std@@@std@@@std@@_N@1@_NAAU?$pair@QAVRaven_Bot@@VMemoryRecord@@@1@PAU?$_Tree_node@U?$pair@QAVRaven_Bot@@VMemoryRecord@@@std@@PAX@1@@Z
_TEXT	SEGMENT
tv275 = -200						; size = 4
tv288 = -193						; size = 1
tv287 = -192						; size = 4
tv286 = -188						; size = 4
tv271 = -184						; size = 4
tv285 = -177						; size = 1
tv269 = -176						; size = 4
tv284 = -172						; size = 4
tv283 = -168						; size = 4
tv262 = -164						; size = 4
tv149 = -160						; size = 4
tv282 = -153						; size = 1
tv281 = -152						; size = 4
tv152 = -148						; size = 4
tv95 = -144						; size = 4
tv195 = -137						; size = 1
tv235 = -136						; size = 4
tv253 = -132						; size = 4
$T2 = -128						; size = 4
$T3 = -121						; size = 1
$T4 = -120						; size = 12
$T5 = -105						; size = 1
$T6 = -104						; size = 12
$T7 = -89						; size = 1
$T8 = -88						; size = 12
$T9 = -73						; size = 1
$T10 = -72						; size = 12
$T11 = -57						; size = 1
__Where$12 = -52					; size = 12
__Addleft$13 = -33					; size = 1
__Trynode$14 = -32					; size = 4
__Wherenode$15 = -28					; size = 4
__My_data$ = -24					; size = 4
_this$ = -20						; size = 4
__$EHRec$ = -16						; size = 16
___$ReturnUdt$ = 8					; size = 4
__Leftish$ = 12						; size = 1
__Val$ = 16						; size = 4
__Newnode$ = 20						; size = 4
??$_Insert_nohint@AAU?$pair@QAVRaven_Bot@@VMemoryRecord@@@std@@PAU?$_Tree_node@U?$pair@QAVRaven_Bot@@VMemoryRecord@@@std@@PAX@2@@?$_Tree@V?$_Tmap_traits@PAVRaven_Bot@@VMemoryRecord@@U?$less@PAVRaven_Bot@@@std@@V?$allocator@U?$pair@QAVRaven_Bot@@VMemoryRecord@@@std@@@4@$0A@@std@@@std@@IAE?AU?$pair@V?$_Tree_iterator@V?$_Tree_val@U?$_Tree_simple_types@U?$pair@QAVRaven_Bot@@VMemoryRecord@@@std@@@std@@@std@@@std@@_N@1@_NAAU?$pair@QAVRaven_Bot@@VMemoryRecord@@@1@PAU?$_Tree_node@U?$pair@QAVRaven_Bot@@VMemoryRecord@@@std@@PAX@1@@Z PROC ; std::_Tree<std::_Tmap_traits<Raven_Bot *,MemoryRecord,std::less<Raven_Bot *>,std::allocator<std::pair<Raven_Bot * const,MemoryRecord> >,0> >::_Insert_nohint<std::pair<Raven_Bot * const,MemoryRecord> &,std::_Tree_node<std::pair<Raven_Bot * const,MemoryRecord>,void *> *>, COMDAT
; _this$ = ecx

; 1733 : 		{	// try to insert node, on left if _Leftish

	push	ebp
	mov	ebp, esp
	push	-1
	push	__ehhandler$??$_Insert_nohint@AAU?$pair@QAVRaven_Bot@@VMemoryRecord@@@std@@PAU?$_Tree_node@U?$pair@QAVRaven_Bot@@VMemoryRecord@@@std@@PAX@2@@?$_Tree@V?$_Tmap_traits@PAVRaven_Bot@@VMemoryRecord@@U?$less@PAVRaven_Bot@@@std@@V?$allocator@U?$pair@QAVRaven_Bot@@VMemoryRecord@@@std@@@4@$0A@@std@@@std@@IAE?AU?$pair@V?$_Tree_iterator@V?$_Tree_val@U?$_Tree_simple_types@U?$pair@QAVRaven_Bot@@VMemoryRecord@@@std@@@std@@@std@@@std@@_N@1@_NAAU?$pair@QAVRaven_Bot@@VMemoryRecord@@@1@PAU?$_Tree_node@U?$pair@QAVRaven_Bot@@VMemoryRecord@@@std@@PAX@1@@Z
	mov	eax, DWORD PTR fs:0
	push	eax
	push	ecx
	sub	esp, 184				; 000000b8H
	push	ebx
	push	esi
	push	edi
	push	ecx
	lea	edi, DWORD PTR [ebp-200]
	mov	ecx, 46					; 0000002eH
	mov	eax, -858993460				; ccccccccH
	rep stosd
	pop	ecx
	mov	eax, DWORD PTR ___security_cookie
	xor	eax, ebp
	push	eax
	lea	eax, DWORD PTR __$EHRec$[ebp+4]
	mov	DWORD PTR fs:0, eax
	mov	DWORD PTR __$EHRec$[ebp], esp
	mov	DWORD PTR _this$[ebp], ecx
	mov	DWORD PTR $T2[ebp], 0

; 1734 : 		auto& _My_data = this->_Get_data();

	mov	ecx, DWORD PTR _this$[ebp]
	call	?_Get_data@?$_Tree_comp_alloc@V?$_Tmap_traits@PAVRaven_Bot@@VMemoryRecord@@U?$less@PAVRaven_Bot@@@std@@V?$allocator@U?$pair@QAVRaven_Bot@@VMemoryRecord@@@std@@@4@$0A@@std@@@std@@QAEAAV?$_Tree_val@U?$_Tree_simple_types@U?$pair@QAVRaven_Bot@@VMemoryRecord@@@std@@@std@@@2@XZ ; std::_Tree_comp_alloc<std::_Tmap_traits<Raven_Bot *,MemoryRecord,std::less<Raven_Bot *>,std::allocator<std::pair<Raven_Bot * const,MemoryRecord> >,0> >::_Get_data
	mov	DWORD PTR __My_data$[ebp], eax

; 1735 : 		_TRY_BEGIN

	mov	DWORD PTR __$EHRec$[ebp+12], 0

; 1736 : 		_Nodeptr _Wherenode = _My_data._Myhead;

	mov	eax, DWORD PTR __My_data$[ebp]
	mov	ecx, DWORD PTR [eax+4]
	mov	DWORD PTR __Wherenode$15[ebp], ecx

; 1737 : 		_Nodeptr _Trynode = _Wherenode->_Parent;

	mov	edx, DWORD PTR __Wherenode$15[ebp]
	mov	eax, DWORD PTR [edx+4]
	mov	DWORD PTR __Trynode$14[ebp], eax

; 1738 : 		bool _Addleft = true;	// add to left of head if tree empty

	mov	BYTE PTR __Addleft$13[ebp], 1
$LN2@Insert_noh:

; 1739 : 
; 1740 : 		while (!_Trynode->_Isnil)

	mov	ecx, DWORD PTR __Trynode$14[ebp]
	movsx	edx, BYTE PTR [ecx+13]
	test	edx, edx
	jne	$LN3@Insert_noh

; 1741 : 			{	// look for leaf to insert before (_Addleft) or after
; 1742 : 			_Wherenode = _Trynode;

	mov	eax, DWORD PTR __Trynode$14[ebp]
	mov	DWORD PTR __Wherenode$15[ebp], eax

; 1743 : 			if (_Leftish)

	movzx	ecx, BYTE PTR __Leftish$[ebp]
	test	ecx, ecx
	je	SHORT $LN5@Insert_noh

; 1744 : 				{
; 1745 : 				_Addleft = !_DEBUG_LT_PRED(this->_Getcomp(),

	mov	edx, DWORD PTR __Val$[ebp]
	push	edx
	mov	ecx, DWORD PTR _this$[ebp]
	call	?_Kfn@?$_Tree@V?$_Tmap_traits@PAVRaven_Bot@@VMemoryRecord@@U?$less@PAVRaven_Bot@@@std@@V?$allocator@U?$pair@QAVRaven_Bot@@VMemoryRecord@@@std@@@4@$0A@@std@@@std@@IBEABQAVRaven_Bot@@ABU?$pair@QAVRaven_Bot@@VMemoryRecord@@@2@@Z ; std::_Tree<std::_Tmap_traits<Raven_Bot *,MemoryRecord,std::less<Raven_Bot *>,std::allocator<std::pair<Raven_Bot * const,MemoryRecord> >,0> >::_Kfn
	mov	DWORD PTR tv253[ebp], eax
	mov	eax, DWORD PTR __Trynode$14[ebp]
	push	eax
	mov	ecx, DWORD PTR _this$[ebp]
	call	?_Key@?$_Tree@V?$_Tmap_traits@PAVRaven_Bot@@VMemoryRecord@@U?$less@PAVRaven_Bot@@@std@@V?$allocator@U?$pair@QAVRaven_Bot@@VMemoryRecord@@@std@@@4@$0A@@std@@@std@@IBEABQAVRaven_Bot@@PAU?$_Tree_node@U?$pair@QAVRaven_Bot@@VMemoryRecord@@@std@@PAX@2@@Z ; std::_Tree<std::_Tmap_traits<Raven_Bot *,MemoryRecord,std::less<Raven_Bot *>,std::allocator<std::pair<Raven_Bot * const,MemoryRecord> >,0> >::_Key
	mov	DWORD PTR tv235[ebp], eax
	mov	ecx, DWORD PTR tv253[ebp]
	push	ecx
	mov	edx, DWORD PTR tv235[ebp]
	push	edx
	mov	ecx, DWORD PTR _this$[ebp]
	call	?_Getcomp@?$_Tree_comp_alloc@V?$_Tmap_traits@PAVRaven_Bot@@VMemoryRecord@@U?$less@PAVRaven_Bot@@@std@@V?$allocator@U?$pair@QAVRaven_Bot@@VMemoryRecord@@@std@@@4@$0A@@std@@@std@@QAEAAU?$less@PAVRaven_Bot@@@2@XZ ; std::_Tree_comp_alloc<std::_Tmap_traits<Raven_Bot *,MemoryRecord,std::less<Raven_Bot *>,std::allocator<std::pair<Raven_Bot * const,MemoryRecord> >,0> >::_Getcomp
	push	eax
	call	??$_Debug_lt_pred@AAU?$less@PAVRaven_Bot@@@std@@ABQAVRaven_Bot@@ABQAV3@@std@@YA_NAAU?$less@PAVRaven_Bot@@@0@ABQAVRaven_Bot@@1@Z ; std::_Debug_lt_pred<std::less<Raven_Bot *> &,Raven_Bot * const &,Raven_Bot * const &>
	add	esp, 12					; 0000000cH
	mov	BYTE PTR tv195[ebp], al
	movzx	eax, BYTE PTR tv195[ebp]
	test	eax, eax
	jne	SHORT $LN16@Insert_noh
	mov	DWORD PTR tv95[ebp], 1
	jmp	SHORT $LN17@Insert_noh
$LN16@Insert_noh:
	mov	DWORD PTR tv95[ebp], 0
$LN17@Insert_noh:
	mov	cl, BYTE PTR tv95[ebp]
	mov	BYTE PTR __Addleft$13[ebp], cl

; 1746 : 					this->_Key(_Trynode),
; 1747 : 					this->_Kfn(_Val));	// favor left end
; 1748 : 				}
; 1749 : 			else

	jmp	SHORT $LN6@Insert_noh
$LN5@Insert_noh:

; 1750 : 				{
; 1751 : 				_Addleft = _DEBUG_LT_PRED(this->_Getcomp(),

	mov	edx, DWORD PTR __Trynode$14[ebp]
	push	edx
	mov	ecx, DWORD PTR _this$[ebp]
	call	?_Key@?$_Tree@V?$_Tmap_traits@PAVRaven_Bot@@VMemoryRecord@@U?$less@PAVRaven_Bot@@@std@@V?$allocator@U?$pair@QAVRaven_Bot@@VMemoryRecord@@@std@@@4@$0A@@std@@@std@@IBEABQAVRaven_Bot@@PAU?$_Tree_node@U?$pair@QAVRaven_Bot@@VMemoryRecord@@@std@@PAX@2@@Z ; std::_Tree<std::_Tmap_traits<Raven_Bot *,MemoryRecord,std::less<Raven_Bot *>,std::allocator<std::pair<Raven_Bot * const,MemoryRecord> >,0> >::_Key
	mov	DWORD PTR tv152[ebp], eax
	mov	eax, DWORD PTR __Val$[ebp]
	push	eax
	mov	ecx, DWORD PTR _this$[ebp]
	call	?_Kfn@?$_Tree@V?$_Tmap_traits@PAVRaven_Bot@@VMemoryRecord@@U?$less@PAVRaven_Bot@@@std@@V?$allocator@U?$pair@QAVRaven_Bot@@VMemoryRecord@@@std@@@4@$0A@@std@@@std@@IBEABQAVRaven_Bot@@ABU?$pair@QAVRaven_Bot@@VMemoryRecord@@@2@@Z ; std::_Tree<std::_Tmap_traits<Raven_Bot *,MemoryRecord,std::less<Raven_Bot *>,std::allocator<std::pair<Raven_Bot * const,MemoryRecord> >,0> >::_Kfn
	mov	DWORD PTR tv281[ebp], eax
	mov	ecx, DWORD PTR tv152[ebp]
	push	ecx
	mov	edx, DWORD PTR tv281[ebp]
	push	edx
	mov	ecx, DWORD PTR _this$[ebp]
	call	?_Getcomp@?$_Tree_comp_alloc@V?$_Tmap_traits@PAVRaven_Bot@@VMemoryRecord@@U?$less@PAVRaven_Bot@@@std@@V?$allocator@U?$pair@QAVRaven_Bot@@VMemoryRecord@@@std@@@4@$0A@@std@@@std@@QAEAAU?$less@PAVRaven_Bot@@@2@XZ ; std::_Tree_comp_alloc<std::_Tmap_traits<Raven_Bot *,MemoryRecord,std::less<Raven_Bot *>,std::allocator<std::pair<Raven_Bot * const,MemoryRecord> >,0> >::_Getcomp
	push	eax
	call	??$_Debug_lt_pred@AAU?$less@PAVRaven_Bot@@@std@@ABQAVRaven_Bot@@ABQAV3@@std@@YA_NAAU?$less@PAVRaven_Bot@@@0@ABQAVRaven_Bot@@1@Z ; std::_Debug_lt_pred<std::less<Raven_Bot *> &,Raven_Bot * const &,Raven_Bot * const &>
	add	esp, 12					; 0000000cH
	mov	BYTE PTR tv282[ebp], al
	mov	al, BYTE PTR tv282[ebp]
	mov	BYTE PTR __Addleft$13[ebp], al
$LN6@Insert_noh:

; 1752 : 					this->_Kfn(_Val),
; 1753 : 					this->_Key(_Trynode));	// favor right end
; 1754 : 				}
; 1755 : 
; 1756 : 			_Trynode = _Addleft ? _Trynode->_Left : _Trynode->_Right;

	movzx	ecx, BYTE PTR __Addleft$13[ebp]
	test	ecx, ecx
	je	SHORT $LN18@Insert_noh
	mov	edx, DWORD PTR __Trynode$14[ebp]
	mov	eax, DWORD PTR [edx]
	mov	DWORD PTR tv149[ebp], eax
	jmp	SHORT $LN19@Insert_noh
$LN18@Insert_noh:
	mov	ecx, DWORD PTR __Trynode$14[ebp]
	mov	edx, DWORD PTR [ecx+8]
	mov	DWORD PTR tv149[ebp], edx
$LN19@Insert_noh:
	mov	eax, DWORD PTR tv149[ebp]
	mov	DWORD PTR __Trynode$14[ebp], eax

; 1757 : 			}

	jmp	$LN2@Insert_noh
$LN3@Insert_noh:

; 1758 : 
; 1759 : #pragma warning(push)
; 1760 : #pragma warning(disable: 4127)	// conditional expression is constant
; 1761 : 		if (this->_Multi)

	xor	ecx, ecx
	je	SHORT $LN7@Insert_noh

; 1762 : 			{
; 1763 : 			return (_Pairib(_Insert_at(_Addleft, _Wherenode,

	mov	BYTE PTR $T11[ebp], 1
	mov	edx, DWORD PTR __Newnode$[ebp]
	push	edx
	mov	eax, DWORD PTR __Val$[ebp]
	push	eax
	call	??$forward@AAU?$pair@QAVRaven_Bot@@VMemoryRecord@@@std@@@std@@YAAAU?$pair@QAVRaven_Bot@@VMemoryRecord@@@0@AAU10@@Z ; std::forward<std::pair<Raven_Bot * const,MemoryRecord> &>
	add	esp, 4
	push	eax
	mov	ecx, DWORD PTR __Wherenode$15[ebp]
	push	ecx
	movzx	edx, BYTE PTR __Addleft$13[ebp]
	push	edx
	lea	eax, DWORD PTR $T10[ebp]
	push	eax
	mov	ecx, DWORD PTR _this$[ebp]
	call	??$_Insert_at@AAU?$pair@QAVRaven_Bot@@VMemoryRecord@@@std@@PAU?$_Tree_node@U?$pair@QAVRaven_Bot@@VMemoryRecord@@@std@@PAX@2@@?$_Tree@V?$_Tmap_traits@PAVRaven_Bot@@VMemoryRecord@@U?$less@PAVRaven_Bot@@@std@@V?$allocator@U?$pair@QAVRaven_Bot@@VMemoryRecord@@@std@@@4@$0A@@std@@@std@@IAE?AV?$_Tree_iterator@V?$_Tree_val@U?$_Tree_simple_types@U?$pair@QAVRaven_Bot@@VMemoryRecord@@@std@@@std@@@std@@@1@_NPAU?$_Tree_node@U?$pair@QAVRaven_Bot@@VMemoryRecord@@@std@@PAX@1@AAU?$pair@QAVRaven_Bot@@VMemoryRecord@@@1@1@Z ; std::_Tree<std::_Tmap_traits<Raven_Bot *,MemoryRecord,std::less<Raven_Bot *>,std::allocator<std::pair<Raven_Bot * const,MemoryRecord> >,0> >::_Insert_at<std::pair<Raven_Bot * const,MemoryRecord> &,std::_Tree_node<std::pair<Raven_Bot * const,MemoryRecord>,void *> *>
	mov	DWORD PTR tv262[ebp], eax
	lea	ecx, DWORD PTR $T11[ebp]
	push	ecx
	mov	edx, DWORD PTR tv262[ebp]
	push	edx
	mov	ecx, DWORD PTR ___$ReturnUdt$[ebp]
	call	??$?0V?$_Tree_iterator@V?$_Tree_val@U?$_Tree_simple_types@U?$pair@QAVRaven_Bot@@VMemoryRecord@@@std@@@std@@@std@@@std@@_N$0A@@?$pair@V?$_Tree_iterator@V?$_Tree_val@U?$_Tree_simple_types@U?$pair@QAVRaven_Bot@@VMemoryRecord@@@std@@@std@@@std@@@std@@_N@std@@QAE@$$QAV?$_Tree_iterator@V?$_Tree_val@U?$_Tree_simple_types@U?$pair@QAVRaven_Bot@@VMemoryRecord@@@std@@@std@@@std@@@1@$$QA_N@Z ; std::pair<std::_Tree_iterator<std::_Tree_val<std::_Tree_simple_types<std::pair<Raven_Bot * const,MemoryRecord> > > >,bool>::pair<std::_Tree_iterator<std::_Tree_val<std::_Tree_simple_types<std::pair<Raven_Bot * const,MemoryRecord> > > >,bool><std::_Tree_iterator<std::_Tree_val<std::_Tree_simple_types<std::pair<Raven_Bot * const,MemoryRecord> > > >,bool,0>
	mov	eax, DWORD PTR $T2[ebp]
	or	eax, 1
	mov	DWORD PTR $T2[ebp], eax
	lea	ecx, DWORD PTR $T10[ebp]
	call	??1?$_Tree_iterator@V?$_Tree_val@U?$_Tree_simple_types@U?$pair@QAVRaven_Bot@@VMemoryRecord@@@std@@@std@@@std@@@std@@QAE@XZ
	mov	eax, DWORD PTR ___$ReturnUdt$[ebp]
	jmp	$LN15@Insert_noh

; 1764 : 				_STD forward<_Valty>(_Val), _Newnode), true));
; 1765 : 			}
; 1766 : 		else

	jmp	$LN8@Insert_noh
$LN7@Insert_noh:

; 1767 : 			{	// insert only if unique
; 1768 : 			iterator _Where = iterator(_Wherenode, _STD addressof(_My_data));

	mov	ecx, DWORD PTR __My_data$[ebp]
	push	ecx
	call	??$addressof@V?$_Tree_val@U?$_Tree_simple_types@U?$pair@QAVRaven_Bot@@VMemoryRecord@@@std@@@std@@@std@@@std@@YAPAV?$_Tree_val@U?$_Tree_simple_types@U?$pair@QAVRaven_Bot@@VMemoryRecord@@@std@@@std@@@0@AAV10@@Z ; std::addressof<std::_Tree_val<std::_Tree_simple_types<std::pair<Raven_Bot * const,MemoryRecord> > > >
	add	esp, 4
	push	eax
	mov	edx, DWORD PTR __Wherenode$15[ebp]
	push	edx
	lea	ecx, DWORD PTR __Where$12[ebp]
	call	??0?$_Tree_iterator@V?$_Tree_val@U?$_Tree_simple_types@U?$pair@QAVRaven_Bot@@VMemoryRecord@@@std@@@std@@@std@@@std@@QAE@PAU?$_Tree_node@U?$pair@QAVRaven_Bot@@VMemoryRecord@@@std@@PAX@1@PBV?$_Tree_val@U?$_Tree_simple_types@U?$pair@QAVRaven_Bot@@VMemoryRecord@@@std@@@std@@@1@@Z ; std::_Tree_iterator<std::_Tree_val<std::_Tree_simple_types<std::pair<Raven_Bot * const,MemoryRecord> > > >::_Tree_iterator<std::_Tree_val<std::_Tree_simple_types<std::pair<Raven_Bot * const,MemoryRecord> > > >
	mov	DWORD PTR tv283[ebp], eax
	mov	BYTE PTR __$EHRec$[ebp+12], 1

; 1769 : 			if (!_Addleft)

	movzx	eax, BYTE PTR __Addleft$13[ebp]
	test	eax, eax
	jne	SHORT $LN9@Insert_noh
	jmp	$LN10@Insert_noh
$LN9@Insert_noh:

; 1770 : 				{	// need to test if insert after is okay
; 1771 : 				}
; 1772 : 			else if (_Where == begin())

	lea	ecx, DWORD PTR $T8[ebp]
	push	ecx
	mov	ecx, DWORD PTR _this$[ebp]
	call	?begin@?$_Tree@V?$_Tmap_traits@PAVRaven_Bot@@VMemoryRecord@@U?$less@PAVRaven_Bot@@@std@@V?$allocator@U?$pair@QAVRaven_Bot@@VMemoryRecord@@@std@@@4@$0A@@std@@@std@@QAE?AV?$_Tree_iterator@V?$_Tree_val@U?$_Tree_simple_types@U?$pair@QAVRaven_Bot@@VMemoryRecord@@@std@@@std@@@std@@@2@XZ ; std::_Tree<std::_Tmap_traits<Raven_Bot *,MemoryRecord,std::less<Raven_Bot *>,std::allocator<std::pair<Raven_Bot * const,MemoryRecord> >,0> >::begin
	mov	DWORD PTR tv284[ebp], eax
	mov	edx, DWORD PTR tv284[ebp]
	mov	DWORD PTR tv269[ebp], edx
	mov	BYTE PTR __$EHRec$[ebp+12], 2
	mov	eax, DWORD PTR tv269[ebp]
	push	eax
	lea	ecx, DWORD PTR __Where$12[ebp]
	call	??8?$_Tree_const_iterator@V?$_Tree_val@U?$_Tree_simple_types@U?$pair@QAVRaven_Bot@@VMemoryRecord@@@std@@@std@@@std@@@std@@QBE_NABV01@@Z ; std::_Tree_const_iterator<std::_Tree_val<std::_Tree_simple_types<std::pair<Raven_Bot * const,MemoryRecord> > > >::operator==
	mov	BYTE PTR tv285[ebp], al
	mov	cl, BYTE PTR tv285[ebp]
	mov	BYTE PTR $T9[ebp], cl
	mov	BYTE PTR __$EHRec$[ebp+12], 1
	lea	ecx, DWORD PTR $T8[ebp]
	call	??1?$_Tree_iterator@V?$_Tree_val@U?$_Tree_simple_types@U?$pair@QAVRaven_Bot@@VMemoryRecord@@@std@@@std@@@std@@@std@@QAE@XZ
	movzx	edx, BYTE PTR $T9[ebp]
	test	edx, edx
	je	SHORT $LN11@Insert_noh

; 1773 : 				{
; 1774 : 				return (_Pairib(_Insert_at(true, _Wherenode,

	mov	BYTE PTR $T7[ebp], 1
	mov	eax, DWORD PTR __Newnode$[ebp]
	push	eax
	mov	ecx, DWORD PTR __Val$[ebp]
	push	ecx
	call	??$forward@AAU?$pair@QAVRaven_Bot@@VMemoryRecord@@@std@@@std@@YAAAU?$pair@QAVRaven_Bot@@VMemoryRecord@@@0@AAU10@@Z ; std::forward<std::pair<Raven_Bot * const,MemoryRecord> &>
	add	esp, 4
	push	eax
	mov	edx, DWORD PTR __Wherenode$15[ebp]
	push	edx
	push	1
	lea	eax, DWORD PTR $T6[ebp]
	push	eax
	mov	ecx, DWORD PTR _this$[ebp]
	call	??$_Insert_at@AAU?$pair@QAVRaven_Bot@@VMemoryRecord@@@std@@PAU?$_Tree_node@U?$pair@QAVRaven_Bot@@VMemoryRecord@@@std@@PAX@2@@?$_Tree@V?$_Tmap_traits@PAVRaven_Bot@@VMemoryRecord@@U?$less@PAVRaven_Bot@@@std@@V?$allocator@U?$pair@QAVRaven_Bot@@VMemoryRecord@@@std@@@4@$0A@@std@@@std@@IAE?AV?$_Tree_iterator@V?$_Tree_val@U?$_Tree_simple_types@U?$pair@QAVRaven_Bot@@VMemoryRecord@@@std@@@std@@@std@@@1@_NPAU?$_Tree_node@U?$pair@QAVRaven_Bot@@VMemoryRecord@@@std@@PAX@1@AAU?$pair@QAVRaven_Bot@@VMemoryRecord@@@1@1@Z ; std::_Tree<std::_Tmap_traits<Raven_Bot *,MemoryRecord,std::less<Raven_Bot *>,std::allocator<std::pair<Raven_Bot * const,MemoryRecord> >,0> >::_Insert_at<std::pair<Raven_Bot * const,MemoryRecord> &,std::_Tree_node<std::pair<Raven_Bot * const,MemoryRecord>,void *> *>
	mov	DWORD PTR tv271[ebp], eax
	lea	ecx, DWORD PTR $T7[ebp]
	push	ecx
	mov	edx, DWORD PTR tv271[ebp]
	push	edx
	mov	ecx, DWORD PTR ___$ReturnUdt$[ebp]
	call	??$?0V?$_Tree_iterator@V?$_Tree_val@U?$_Tree_simple_types@U?$pair@QAVRaven_Bot@@VMemoryRecord@@@std@@@std@@@std@@@std@@_N$0A@@?$pair@V?$_Tree_iterator@V?$_Tree_val@U?$_Tree_simple_types@U?$pair@QAVRaven_Bot@@VMemoryRecord@@@std@@@std@@@std@@@std@@_N@std@@QAE@$$QAV?$_Tree_iterator@V?$_Tree_val@U?$_Tree_simple_types@U?$pair@QAVRaven_Bot@@VMemoryRecord@@@std@@@std@@@std@@@1@$$QA_N@Z ; std::pair<std::_Tree_iterator<std::_Tree_val<std::_Tree_simple_types<std::pair<Raven_Bot * const,MemoryRecord> > > >,bool>::pair<std::_Tree_iterator<std::_Tree_val<std::_Tree_simple_types<std::pair<Raven_Bot * const,MemoryRecord> > > >,bool><std::_Tree_iterator<std::_Tree_val<std::_Tree_simple_types<std::pair<Raven_Bot * const,MemoryRecord> > > >,bool,0>
	mov	eax, DWORD PTR $T2[ebp]
	or	eax, 1
	mov	DWORD PTR $T2[ebp], eax
	lea	ecx, DWORD PTR $T6[ebp]
	call	??1?$_Tree_iterator@V?$_Tree_val@U?$_Tree_simple_types@U?$pair@QAVRaven_Bot@@VMemoryRecord@@@std@@@std@@@std@@@std@@QAE@XZ
	mov	BYTE PTR __$EHRec$[ebp+12], 0
	lea	ecx, DWORD PTR __Where$12[ebp]
	call	??1?$_Tree_iterator@V?$_Tree_val@U?$_Tree_simple_types@U?$pair@QAVRaven_Bot@@VMemoryRecord@@@std@@@std@@@std@@@std@@QAE@XZ
	mov	eax, DWORD PTR ___$ReturnUdt$[ebp]
	jmp	$LN15@Insert_noh

; 1775 : 					_STD forward<_Valty>(_Val), _Newnode), true));
; 1776 : 				}
; 1777 : 			else

	jmp	SHORT $LN10@Insert_noh
$LN11@Insert_noh:

; 1778 : 				{
; 1779 : 				--_Where;	// need to test if insert before is okay

	lea	ecx, DWORD PTR __Where$12[ebp]
	call	??F?$_Tree_iterator@V?$_Tree_val@U?$_Tree_simple_types@U?$pair@QAVRaven_Bot@@VMemoryRecord@@@std@@@std@@@std@@@std@@QAEAAV01@XZ ; std::_Tree_iterator<std::_Tree_val<std::_Tree_simple_types<std::pair<Raven_Bot * const,MemoryRecord> > > >::operator--
$LN10@Insert_noh:

; 1780 : 				}
; 1781 : 
; 1782 : 			if (_DEBUG_LT_PRED(this->_Getcomp(),

	mov	ecx, DWORD PTR __Val$[ebp]
	push	ecx
	mov	ecx, DWORD PTR _this$[ebp]
	call	?_Kfn@?$_Tree@V?$_Tmap_traits@PAVRaven_Bot@@VMemoryRecord@@U?$less@PAVRaven_Bot@@@std@@V?$allocator@U?$pair@QAVRaven_Bot@@VMemoryRecord@@@std@@@4@$0A@@std@@@std@@IBEABQAVRaven_Bot@@ABU?$pair@QAVRaven_Bot@@VMemoryRecord@@@2@@Z ; std::_Tree<std::_Tmap_traits<Raven_Bot *,MemoryRecord,std::less<Raven_Bot *>,std::allocator<std::pair<Raven_Bot * const,MemoryRecord> >,0> >::_Kfn
	mov	DWORD PTR tv286[ebp], eax
	mov	edx, DWORD PTR __Where$12[ebp+8]
	push	edx
	mov	ecx, DWORD PTR _this$[ebp]
	call	?_Key@?$_Tree@V?$_Tmap_traits@PAVRaven_Bot@@VMemoryRecord@@U?$less@PAVRaven_Bot@@@std@@V?$allocator@U?$pair@QAVRaven_Bot@@VMemoryRecord@@@std@@@4@$0A@@std@@@std@@IBEABQAVRaven_Bot@@PAU?$_Tree_node@U?$pair@QAVRaven_Bot@@VMemoryRecord@@@std@@PAX@2@@Z ; std::_Tree<std::_Tmap_traits<Raven_Bot *,MemoryRecord,std::less<Raven_Bot *>,std::allocator<std::pair<Raven_Bot * const,MemoryRecord> >,0> >::_Key
	mov	DWORD PTR tv287[ebp], eax
	mov	eax, DWORD PTR tv286[ebp]
	push	eax
	mov	ecx, DWORD PTR tv287[ebp]
	push	ecx
	mov	ecx, DWORD PTR _this$[ebp]
	call	?_Getcomp@?$_Tree_comp_alloc@V?$_Tmap_traits@PAVRaven_Bot@@VMemoryRecord@@U?$less@PAVRaven_Bot@@@std@@V?$allocator@U?$pair@QAVRaven_Bot@@VMemoryRecord@@@std@@@4@$0A@@std@@@std@@QAEAAU?$less@PAVRaven_Bot@@@2@XZ ; std::_Tree_comp_alloc<std::_Tmap_traits<Raven_Bot *,MemoryRecord,std::less<Raven_Bot *>,std::allocator<std::pair<Raven_Bot * const,MemoryRecord> >,0> >::_Getcomp
	push	eax
	call	??$_Debug_lt_pred@AAU?$less@PAVRaven_Bot@@@std@@ABQAVRaven_Bot@@ABQAV3@@std@@YA_NAAU?$less@PAVRaven_Bot@@@0@ABQAVRaven_Bot@@1@Z ; std::_Debug_lt_pred<std::less<Raven_Bot *> &,Raven_Bot * const &,Raven_Bot * const &>
	add	esp, 12					; 0000000cH
	mov	BYTE PTR tv288[ebp], al
	movzx	edx, BYTE PTR tv288[ebp]
	test	edx, edx
	je	SHORT $LN13@Insert_noh

; 1783 : 				this->_Key(_Where._Ptr),
; 1784 : 				this->_Kfn(_Val)))
; 1785 : 				{
; 1786 : 				return (_Pairib(_Insert_at(_Addleft, _Wherenode,

	mov	BYTE PTR $T5[ebp], 1
	mov	eax, DWORD PTR __Newnode$[ebp]
	push	eax
	mov	ecx, DWORD PTR __Val$[ebp]
	push	ecx
	call	??$forward@AAU?$pair@QAVRaven_Bot@@VMemoryRecord@@@std@@@std@@YAAAU?$pair@QAVRaven_Bot@@VMemoryRecord@@@0@AAU10@@Z ; std::forward<std::pair<Raven_Bot * const,MemoryRecord> &>
	add	esp, 4
	push	eax
	mov	edx, DWORD PTR __Wherenode$15[ebp]
	push	edx
	movzx	eax, BYTE PTR __Addleft$13[ebp]
	push	eax
	lea	ecx, DWORD PTR $T4[ebp]
	push	ecx
	mov	ecx, DWORD PTR _this$[ebp]
	call	??$_Insert_at@AAU?$pair@QAVRaven_Bot@@VMemoryRecord@@@std@@PAU?$_Tree_node@U?$pair@QAVRaven_Bot@@VMemoryRecord@@@std@@PAX@2@@?$_Tree@V?$_Tmap_traits@PAVRaven_Bot@@VMemoryRecord@@U?$less@PAVRaven_Bot@@@std@@V?$allocator@U?$pair@QAVRaven_Bot@@VMemoryRecord@@@std@@@4@$0A@@std@@@std@@IAE?AV?$_Tree_iterator@V?$_Tree_val@U?$_Tree_simple_types@U?$pair@QAVRaven_Bot@@VMemoryRecord@@@std@@@std@@@std@@@1@_NPAU?$_Tree_node@U?$pair@QAVRaven_Bot@@VMemoryRecord@@@std@@PAX@1@AAU?$pair@QAVRaven_Bot@@VMemoryRecord@@@1@1@Z ; std::_Tree<std::_Tmap_traits<Raven_Bot *,MemoryRecord,std::less<Raven_Bot *>,std::allocator<std::pair<Raven_Bot * const,MemoryRecord> >,0> >::_Insert_at<std::pair<Raven_Bot * const,MemoryRecord> &,std::_Tree_node<std::pair<Raven_Bot * const,MemoryRecord>,void *> *>
	mov	DWORD PTR tv275[ebp], eax
	lea	edx, DWORD PTR $T5[ebp]
	push	edx
	mov	eax, DWORD PTR tv275[ebp]
	push	eax
	mov	ecx, DWORD PTR ___$ReturnUdt$[ebp]
	call	??$?0V?$_Tree_iterator@V?$_Tree_val@U?$_Tree_simple_types@U?$pair@QAVRaven_Bot@@VMemoryRecord@@@std@@@std@@@std@@@std@@_N$0A@@?$pair@V?$_Tree_iterator@V?$_Tree_val@U?$_Tree_simple_types@U?$pair@QAVRaven_Bot@@VMemoryRecord@@@std@@@std@@@std@@@std@@_N@std@@QAE@$$QAV?$_Tree_iterator@V?$_Tree_val@U?$_Tree_simple_types@U?$pair@QAVRaven_Bot@@VMemoryRecord@@@std@@@std@@@std@@@1@$$QA_N@Z ; std::pair<std::_Tree_iterator<std::_Tree_val<std::_Tree_simple_types<std::pair<Raven_Bot * const,MemoryRecord> > > >,bool>::pair<std::_Tree_iterator<std::_Tree_val<std::_Tree_simple_types<std::pair<Raven_Bot * const,MemoryRecord> > > >,bool><std::_Tree_iterator<std::_Tree_val<std::_Tree_simple_types<std::pair<Raven_Bot * const,MemoryRecord> > > >,bool,0>
	mov	ecx, DWORD PTR $T2[ebp]
	or	ecx, 1
	mov	DWORD PTR $T2[ebp], ecx
	lea	ecx, DWORD PTR $T4[ebp]
	call	??1?$_Tree_iterator@V?$_Tree_val@U?$_Tree_simple_types@U?$pair@QAVRaven_Bot@@VMemoryRecord@@@std@@@std@@@std@@@std@@QAE@XZ
	mov	BYTE PTR __$EHRec$[ebp+12], 0
	lea	ecx, DWORD PTR __Where$12[ebp]
	call	??1?$_Tree_iterator@V?$_Tree_val@U?$_Tree_simple_types@U?$pair@QAVRaven_Bot@@VMemoryRecord@@@std@@@std@@@std@@@std@@QAE@XZ
	mov	eax, DWORD PTR ___$ReturnUdt$[ebp]
	jmp	SHORT $LN15@Insert_noh

; 1787 : 					_STD forward<_Valty>(_Val), _Newnode), true));
; 1788 : 				}
; 1789 : 			else

	jmp	SHORT $LN14@Insert_noh
$LN13@Insert_noh:

; 1790 : 				{	// duplicate, don't insert
; 1791 : 				_Destroy_if_node(_Newnode);

	mov	edx, DWORD PTR __Newnode$[ebp]
	push	edx
	mov	ecx, DWORD PTR _this$[ebp]
	call	?_Destroy_if_node@?$_Tree@V?$_Tmap_traits@PAVRaven_Bot@@VMemoryRecord@@U?$less@PAVRaven_Bot@@@std@@V?$allocator@U?$pair@QAVRaven_Bot@@VMemoryRecord@@@std@@@4@$0A@@std@@@std@@IAEXPAU?$_Tree_node@U?$pair@QAVRaven_Bot@@VMemoryRecord@@@std@@PAX@2@@Z ; std::_Tree<std::_Tmap_traits<Raven_Bot *,MemoryRecord,std::less<Raven_Bot *>,std::allocator<std::pair<Raven_Bot * const,MemoryRecord> >,0> >::_Destroy_if_node

; 1792 : 				return (_Pairib(_Where, false));

	mov	BYTE PTR $T3[ebp], 0
	lea	eax, DWORD PTR $T3[ebp]
	push	eax
	lea	ecx, DWORD PTR __Where$12[ebp]
	push	ecx
	mov	ecx, DWORD PTR ___$ReturnUdt$[ebp]
	call	??$?0AAV?$_Tree_iterator@V?$_Tree_val@U?$_Tree_simple_types@U?$pair@QAVRaven_Bot@@VMemoryRecord@@@std@@@std@@@std@@@std@@_N$0A@@?$pair@V?$_Tree_iterator@V?$_Tree_val@U?$_Tree_simple_types@U?$pair@QAVRaven_Bot@@VMemoryRecord@@@std@@@std@@@std@@@std@@_N@std@@QAE@AAV?$_Tree_iterator@V?$_Tree_val@U?$_Tree_simple_types@U?$pair@QAVRaven_Bot@@VMemoryRecord@@@std@@@std@@@std@@@1@$$QA_N@Z ; std::pair<std::_Tree_iterator<std::_Tree_val<std::_Tree_simple_types<std::pair<Raven_Bot * const,MemoryRecord> > > >,bool>::pair<std::_Tree_iterator<std::_Tree_val<std::_Tree_simple_types<std::pair<Raven_Bot * const,MemoryRecord> > > >,bool><std::_Tree_iterator<std::_Tree_val<std::_Tree_simple_types<std::pair<Raven_Bot * const,MemoryRecord> > > > &,bool,0>
	mov	edx, DWORD PTR $T2[ebp]
	or	edx, 1
	mov	DWORD PTR $T2[ebp], edx
	mov	BYTE PTR __$EHRec$[ebp+12], 0
	lea	ecx, DWORD PTR __Where$12[ebp]
	call	??1?$_Tree_iterator@V?$_Tree_val@U?$_Tree_simple_types@U?$pair@QAVRaven_Bot@@VMemoryRecord@@@std@@@std@@@std@@@std@@QAE@XZ
	mov	eax, DWORD PTR ___$ReturnUdt$[ebp]
	jmp	SHORT $LN15@Insert_noh
$LN14@Insert_noh:

; 1793 : 				}
; 1794 : 			}

	mov	BYTE PTR __$EHRec$[ebp+12], 0
	lea	ecx, DWORD PTR __Where$12[ebp]
	call	??1?$_Tree_iterator@V?$_Tree_val@U?$_Tree_simple_types@U?$pair@QAVRaven_Bot@@VMemoryRecord@@@std@@@std@@@std@@@std@@QAE@XZ
$LN8@Insert_noh:
	jmp	SHORT $LN20@Insert_noh
__catch$??$_Insert_nohint@AAU?$pair@QAVRaven_Bot@@VMemoryRecord@@@std@@PAU?$_Tree_node@U?$pair@QAVRaven_Bot@@VMemoryRecord@@@std@@PAX@2@@?$_Tree@V?$_Tmap_traits@PAVRaven_Bot@@VMemoryRecord@@U?$less@PAVRaven_Bot@@@std@@V?$allocator@U?$pair@QAVRaven_Bot@@VMemoryRecord@@@std@@@4@$0A@@std@@@std@@IAE?AU?$pair@V?$_Tree_iterator@V?$_Tree_val@U?$_Tree_simple_types@U?$pair@QAVRaven_Bot@@VMemoryRecord@@@std@@@std@@@std@@@std@@_N@1@_NAAU?$pair@QAVRaven_Bot@@VMemoryRecord@@@1@PAU?$_Tree_node@U?$pair@QAVRaven_Bot@@VMemoryRecord@@@std@@PAX@1@@Z$0:

; 1795 : #pragma warning(pop)
; 1796 : 		_CATCH_ALL
; 1797 : 		_Destroy_if_node(_Newnode);

	mov	eax, DWORD PTR __Newnode$[ebp]
	push	eax
	mov	ecx, DWORD PTR _this$[ebp]
	call	?_Destroy_if_node@?$_Tree@V?$_Tmap_traits@PAVRaven_Bot@@VMemoryRecord@@U?$less@PAVRaven_Bot@@@std@@V?$allocator@U?$pair@QAVRaven_Bot@@VMemoryRecord@@@std@@@4@$0A@@std@@@std@@IAEXPAU?$_Tree_node@U?$pair@QAVRaven_Bot@@VMemoryRecord@@@std@@PAX@2@@Z ; std::_Tree<std::_Tmap_traits<Raven_Bot *,MemoryRecord,std::less<Raven_Bot *>,std::allocator<std::pair<Raven_Bot * const,MemoryRecord> >,0> >::_Destroy_if_node

; 1798 : 		_RERAISE;

	push	0
	push	0
	call	__CxxThrowException@8

; 1799 : 		_CATCH_END

	mov	eax, $LN30@Insert_noh
	ret	0
$LN20@Insert_noh:
	mov	DWORD PTR __$EHRec$[ebp+12], -1
	jmp	SHORT $LN15@Insert_noh
$LN30@Insert_noh:
	mov	DWORD PTR __$EHRec$[ebp+12], -1
$LN15@Insert_noh:

; 1800 : 		}

	push	edx
	mov	ecx, ebp
	push	eax
	lea	edx, DWORD PTR $LN34@Insert_noh
	call	@_RTC_CheckStackVars@8
	pop	eax
	pop	edx
	mov	ecx, DWORD PTR __$EHRec$[ebp+4]
	mov	DWORD PTR fs:0, ecx
	pop	ecx
	pop	edi
	pop	esi
	pop	ebx
	add	esp, 200				; 000000c8H
	cmp	ebp, esp
	call	__RTC_CheckEsp
	mov	esp, ebp
	pop	ebp
	ret	16					; 00000010H
$LN34@Insert_noh:
	DD	1
	DD	$LN33@Insert_noh
$LN33@Insert_noh:
	DD	-52					; ffffffccH
	DD	12					; 0000000cH
	DD	$LN31@Insert_noh
$LN31@Insert_noh:
	DB	95					; 0000005fH
	DB	87					; 00000057H
	DB	104					; 00000068H
	DB	101					; 00000065H
	DB	114					; 00000072H
	DB	101					; 00000065H
	DB	0
_TEXT	ENDS
;	COMDAT text$x
text$x	SEGMENT
__unwindfunclet$??$_Insert_nohint@AAU?$pair@QAVRaven_Bot@@VMemoryRecord@@@std@@PAU?$_Tree_node@U?$pair@QAVRaven_Bot@@VMemoryRecord@@@std@@PAX@2@@?$_Tree@V?$_Tmap_traits@PAVRaven_Bot@@VMemoryRecord@@U?$less@PAVRaven_Bot@@@std@@V?$allocator@U?$pair@QAVRaven_Bot@@VMemoryRecord@@@std@@@4@$0A@@std@@@std@@IAE?AU?$pair@V?$_Tree_iterator@V?$_Tree_val@U?$_Tree_simple_types@U?$pair@QAVRaven_Bot@@VMemoryRecord@@@std@@@std@@@std@@@std@@_N@1@_NAAU?$pair@QAVRaven_Bot@@VMemoryRecord@@@1@PAU?$_Tree_node@U?$pair@QAVRaven_Bot@@VMemoryRecord@@@std@@PAX@1@@Z$4:
	lea	ecx, DWORD PTR __Where$12[ebp]
	jmp	??1?$_Tree_iterator@V?$_Tree_val@U?$_Tree_simple_types@U?$pair@QAVRaven_Bot@@VMemoryRecord@@@std@@@std@@@std@@@std@@QAE@XZ
__unwindfunclet$??$_Insert_nohint@AAU?$pair@QAVRaven_Bot@@VMemoryRecord@@@std@@PAU?$_Tree_node@U?$pair@QAVRaven_Bot@@VMemoryRecord@@@std@@PAX@2@@?$_Tree@V?$_Tmap_traits@PAVRaven_Bot@@VMemoryRecord@@U?$less@PAVRaven_Bot@@@std@@V?$allocator@U?$pair@QAVRaven_Bot@@VMemoryRecord@@@std@@@4@$0A@@std@@@std@@IAE?AU?$pair@V?$_Tree_iterator@V?$_Tree_val@U?$_Tree_simple_types@U?$pair@QAVRaven_Bot@@VMemoryRecord@@@std@@@std@@@std@@@std@@_N@1@_NAAU?$pair@QAVRaven_Bot@@VMemoryRecord@@@1@PAU?$_Tree_node@U?$pair@QAVRaven_Bot@@VMemoryRecord@@@std@@PAX@1@@Z$5:
	lea	ecx, DWORD PTR $T8[ebp]
	jmp	??1?$_Tree_iterator@V?$_Tree_val@U?$_Tree_simple_types@U?$pair@QAVRaven_Bot@@VMemoryRecord@@@std@@@std@@@std@@@std@@QAE@XZ
__ehhandler$??$_Insert_nohint@AAU?$pair@QAVRaven_Bot@@VMemoryRecord@@@std@@PAU?$_Tree_node@U?$pair@QAVRaven_Bot@@VMemoryRecord@@@std@@PAX@2@@?$_Tree@V?$_Tmap_traits@PAVRaven_Bot@@VMemoryRecord@@U?$less@PAVRaven_Bot@@@std@@V?$allocator@U?$pair@QAVRaven_Bot@@VMemoryRecord@@@std@@@4@$0A@@std@@@std@@IAE?AU?$pair@V?$_Tree_iterator@V?$_Tree_val@U?$_Tree_simple_types@U?$pair@QAVRaven_Bot@@VMemoryRecord@@@std@@@std@@@std@@@std@@_N@1@_NAAU?$pair@QAVRaven_Bot@@VMemoryRecord@@@1@PAU?$_Tree_node@U?$pair@QAVRaven_Bot@@VMemoryRecord@@@std@@PAX@1@@Z:
	mov	edx, DWORD PTR [esp+8]
	lea	eax, DWORD PTR [edx+12]
	mov	ecx, DWORD PTR [edx-204]
	xor	ecx, eax
	call	@__security_check_cookie@4
	mov	eax, OFFSET __ehfuncinfo$??$_Insert_nohint@AAU?$pair@QAVRaven_Bot@@VMemoryRecord@@@std@@PAU?$_Tree_node@U?$pair@QAVRaven_Bot@@VMemoryRecord@@@std@@PAX@2@@?$_Tree@V?$_Tmap_traits@PAVRaven_Bot@@VMemoryRecord@@U?$less@PAVRaven_Bot@@@std@@V?$allocator@U?$pair@QAVRaven_Bot@@VMemoryRecord@@@std@@@4@$0A@@std@@@std@@IAE?AU?$pair@V?$_Tree_iterator@V?$_Tree_val@U?$_Tree_simple_types@U?$pair@QAVRaven_Bot@@VMemoryRecord@@@std@@@std@@@std@@@std@@_N@1@_NAAU?$pair@QAVRaven_Bot@@VMemoryRecord@@@1@PAU?$_Tree_node@U?$pair@QAVRaven_Bot@@VMemoryRecord@@@std@@PAX@1@@Z
	jmp	___CxxFrameHandler3
text$x	ENDS
??$_Insert_nohint@AAU?$pair@QAVRaven_Bot@@VMemoryRecord@@@std@@PAU?$_Tree_node@U?$pair@QAVRaven_Bot@@VMemoryRecord@@@std@@PAX@2@@?$_Tree@V?$_Tmap_traits@PAVRaven_Bot@@VMemoryRecord@@U?$less@PAVRaven_Bot@@@std@@V?$allocator@U?$pair@QAVRaven_Bot@@VMemoryRecord@@@std@@@4@$0A@@std@@@std@@IAE?AU?$pair@V?$_Tree_iterator@V?$_Tree_val@U?$_Tree_simple_types@U?$pair@QAVRaven_Bot@@VMemoryRecord@@@std@@@std@@@std@@@std@@_N@1@_NAAU?$pair@QAVRaven_Bot@@VMemoryRecord@@@1@PAU?$_Tree_node@U?$pair@QAVRaven_Bot@@VMemoryRecord@@@std@@PAX@1@@Z ENDP ; std::_Tree<std::_Tmap_traits<Raven_Bot *,MemoryRecord,std::less<Raven_Bot *>,std::allocator<std::pair<Raven_Bot * const,MemoryRecord> >,0> >::_Insert_nohint<std::pair<Raven_Bot * const,MemoryRecord> &,std::_Tree_node<std::pair<Raven_Bot * const,MemoryRecord>,void *> *>
; Function compile flags: /Odtp /RTCsu
; File c:\program files (x86)\microsoft visual studio\2017\community\vc\tools\msvc\14.15.26726\include\xtree
;	COMDAT ??$_Insert_at@AAU?$pair@QAVRaven_Bot@@VMemoryRecord@@@std@@PAU?$_Tree_node@U?$pair@QAVRaven_Bot@@VMemoryRecord@@@std@@PAX@2@@?$_Tree@V?$_Tmap_traits@PAVRaven_Bot@@VMemoryRecord@@U?$less@PAVRaven_Bot@@@std@@V?$allocator@U?$pair@QAVRaven_Bot@@VMemoryRecord@@@std@@@4@$0A@@std@@@std@@IAE?AV?$_Tree_iterator@V?$_Tree_val@U?$_Tree_simple_types@U?$pair@QAVRaven_Bot@@VMemoryRecord@@@std@@@std@@@std@@@1@_NPAU?$_Tree_node@U?$pair@QAVRaven_Bot@@VMemoryRecord@@@std@@PAX@1@AAU?$pair@QAVRaven_Bot@@VMemoryRecord@@@1@1@Z
_TEXT	SEGMENT
$T1 = -20						; size = 4
__Pnode$2 = -16						; size = 4
__Newnode$ = -12					; size = 4
__My_data$ = -8						; size = 4
_this$ = -4						; size = 4
___$ReturnUdt$ = 8					; size = 4
__Addleft$ = 12						; size = 1
__Wherenode$ = 16					; size = 4
__Val$ = 20						; size = 4
__Node$ = 24						; size = 4
??$_Insert_at@AAU?$pair@QAVRaven_Bot@@VMemoryRecord@@@std@@PAU?$_Tree_node@U?$pair@QAVRaven_Bot@@VMemoryRecord@@@std@@PAX@2@@?$_Tree@V?$_Tmap_traits@PAVRaven_Bot@@VMemoryRecord@@U?$less@PAVRaven_Bot@@@std@@V?$allocator@U?$pair@QAVRaven_Bot@@VMemoryRecord@@@std@@@4@$0A@@std@@@std@@IAE?AV?$_Tree_iterator@V?$_Tree_val@U?$_Tree_simple_types@U?$pair@QAVRaven_Bot@@VMemoryRecord@@@std@@@std@@@std@@@1@_NPAU?$_Tree_node@U?$pair@QAVRaven_Bot@@VMemoryRecord@@@std@@PAX@1@AAU?$pair@QAVRaven_Bot@@VMemoryRecord@@@1@1@Z PROC ; std::_Tree<std::_Tmap_traits<Raven_Bot *,MemoryRecord,std::less<Raven_Bot *>,std::allocator<std::pair<Raven_Bot * const,MemoryRecord> >,0> >::_Insert_at<std::pair<Raven_Bot * const,MemoryRecord> &,std::_Tree_node<std::pair<Raven_Bot * const,MemoryRecord>,void *> *>, COMDAT
; _this$ = ecx

; 1805 : 		{	// add node with value next to _Wherenode, to left if _Addleft

	push	ebp
	mov	ebp, esp
	sub	esp, 20					; 00000014H
	mov	eax, -858993460				; ccccccccH
	mov	DWORD PTR [ebp-20], eax
	mov	DWORD PTR [ebp-16], eax
	mov	DWORD PTR [ebp-12], eax
	mov	DWORD PTR [ebp-8], eax
	mov	DWORD PTR [ebp-4], eax
	mov	DWORD PTR _this$[ebp], ecx
	mov	DWORD PTR $T1[ebp], 0

; 1806 : 		auto& _My_data = this->_Get_data();

	mov	ecx, DWORD PTR _this$[ebp]
	call	?_Get_data@?$_Tree_comp_alloc@V?$_Tmap_traits@PAVRaven_Bot@@VMemoryRecord@@U?$less@PAVRaven_Bot@@@std@@V?$allocator@U?$pair@QAVRaven_Bot@@VMemoryRecord@@@std@@@4@$0A@@std@@@std@@QAEAAV?$_Tree_val@U?$_Tree_simple_types@U?$pair@QAVRaven_Bot@@VMemoryRecord@@@std@@@std@@@2@XZ ; std::_Tree_comp_alloc<std::_Tmap_traits<Raven_Bot *,MemoryRecord,std::less<Raven_Bot *>,std::allocator<std::pair<Raven_Bot * const,MemoryRecord> >,0> >::_Get_data
	mov	DWORD PTR __My_data$[ebp], eax

; 1807 : 		if (max_size() - 1 <= _My_data._Mysize)

	mov	ecx, DWORD PTR _this$[ebp]
	call	?max_size@?$_Tree@V?$_Tmap_traits@PAVRaven_Bot@@VMemoryRecord@@U?$less@PAVRaven_Bot@@@std@@V?$allocator@U?$pair@QAVRaven_Bot@@VMemoryRecord@@@std@@@4@$0A@@std@@@std@@QBEIXZ ; std::_Tree<std::_Tmap_traits<Raven_Bot *,MemoryRecord,std::less<Raven_Bot *>,std::allocator<std::pair<Raven_Bot * const,MemoryRecord> >,0> >::max_size
	sub	eax, 1
	mov	ecx, DWORD PTR __My_data$[ebp]
	cmp	eax, DWORD PTR [ecx+8]
	ja	SHORT $LN5@Insert_at

; 1808 : 			{	// tree would get too big, fail
; 1809 : 			_Destroy_if_node(_Node);

	mov	edx, DWORD PTR __Node$[ebp]
	push	edx
	mov	ecx, DWORD PTR _this$[ebp]
	call	?_Destroy_if_node@?$_Tree@V?$_Tmap_traits@PAVRaven_Bot@@VMemoryRecord@@U?$less@PAVRaven_Bot@@@std@@V?$allocator@U?$pair@QAVRaven_Bot@@VMemoryRecord@@@std@@@4@$0A@@std@@@std@@IAEXPAU?$_Tree_node@U?$pair@QAVRaven_Bot@@VMemoryRecord@@@std@@PAX@2@@Z ; std::_Tree<std::_Tmap_traits<Raven_Bot *,MemoryRecord,std::less<Raven_Bot *>,std::allocator<std::pair<Raven_Bot * const,MemoryRecord> >,0> >::_Destroy_if_node

; 1810 : 			_Xlength_error("map/set<T> too long");

	push	OFFSET ??_C@_0BE@JONHPENG@map?1set?$DMT?$DO?5too?5long@
	call	?_Xlength_error@std@@YAXPBD@Z		; std::_Xlength_error
$LN5@Insert_at:

; 1811 : 			}
; 1812 : 
; 1813 : 		_Nodeptr _Newnode = _Buy_if_not_node(_Node, _STD forward<_Valty>(_Val));

	mov	eax, DWORD PTR __Val$[ebp]
	push	eax
	call	??$forward@AAU?$pair@QAVRaven_Bot@@VMemoryRecord@@@std@@@std@@YAAAU?$pair@QAVRaven_Bot@@VMemoryRecord@@@0@AAU10@@Z ; std::forward<std::pair<Raven_Bot * const,MemoryRecord> &>
	add	esp, 4
	push	eax
	mov	ecx, DWORD PTR __Node$[ebp]
	push	ecx
	mov	ecx, DWORD PTR _this$[ebp]
	call	??$_Buy_if_not_node@AAU?$pair@QAVRaven_Bot@@VMemoryRecord@@@std@@@?$_Tree@V?$_Tmap_traits@PAVRaven_Bot@@VMemoryRecord@@U?$less@PAVRaven_Bot@@@std@@V?$allocator@U?$pair@QAVRaven_Bot@@VMemoryRecord@@@std@@@4@$0A@@std@@@std@@IAEPAU?$_Tree_node@U?$pair@QAVRaven_Bot@@VMemoryRecord@@@std@@PAX@1@PAU21@AAU?$pair@QAVRaven_Bot@@VMemoryRecord@@@1@@Z ; std::_Tree<std::_Tmap_traits<Raven_Bot *,MemoryRecord,std::less<Raven_Bot *>,std::allocator<std::pair<Raven_Bot * const,MemoryRecord> >,0> >::_Buy_if_not_node<std::pair<Raven_Bot * const,MemoryRecord> &>
	mov	DWORD PTR __Newnode$[ebp], eax

; 1814 : 
; 1815 : 		++_My_data._Mysize;

	mov	edx, DWORD PTR __My_data$[ebp]
	mov	eax, DWORD PTR [edx+8]
	add	eax, 1
	mov	ecx, DWORD PTR __My_data$[ebp]
