; Listing generated by Microsoft (R) Optimizing Compiler Version 19.15.26730.0 

	TITLE	C:\Users\Utilisateur\Documents\GitHub\8IAR125-ProjetRaven\VS2015\Buckland_Chapter7 to 10_Raven\navigation\Raven_PathPlanner.cpp
	.686P
	.XMM
	include listing.inc
	.model	flat

INCLUDELIB LIBCMTD
INCLUDELIB OLDNAMES

CONST	SEGMENT
$SG189050 DB	'<SparseGraph::GetNode>: invalid index', 00H
?piecewise_construct@std@@3Upiecewise_construct_t@1@B	ORG $+1 ; std::piecewise_construct
	ORG $+1
$SG189051 DB	'c', 00H, ':', 00H, '\', 00H, 'u', 00H, 's', 00H, 'e', 00H
	DB	'r', 00H, 's', 00H, '\', 00H, 'u', 00H, 't', 00H, 'i', 00H, 'l'
	DB	00H, 'i', 00H, 's', 00H, 'a', 00H, 't', 00H, 'e', 00H, 'u', 00H
	DB	'r', 00H, '\', 00H, 'd', 00H, 'o', 00H, 'c', 00H, 'u', 00H, 'm'
	DB	00H, 'e', 00H, 'n', 00H, 't', 00H, 's', 00H, '\', 00H, 'g', 00H
	DB	'i', 00H, 't', 00H, 'h', 00H, 'u', 00H, 'b', 00H, '\', 00H, '8'
	DB	00H, 'i', 00H, 'a', 00H, 'r', 00H, '1', 00H, '2', 00H, '5', 00H
	DB	'-', 00H, 'p', 00H, 'r', 00H, 'o', 00H, 'j', 00H, 'e', 00H, 't'
	DB	00H, 'r', 00H, 'a', 00H, 'v', 00H, 'e', 00H, 'n', 00H, '\', 00H
	DB	'v', 00H, 's', 00H, '2', 00H, '0', 00H, '1', 00H, '5', 00H, '\'
	DB	00H, 'c', 00H, 'o', 00H, 'm', 00H, 'm', 00H, 'o', 00H, 'n', 00H
	DB	'\', 00H, 'g', 00H, 'r', 00H, 'a', 00H, 'p', 00H, 'h', 00H, '\'
	DB	00H, 's', 00H, 'p', 00H, 'a', 00H, 'r', 00H, 's', 00H, 'e', 00H
	DB	'g', 00H, 'r', 00H, 'a', 00H, 'p', 00H, 'h', 00H, '.', 00H, 'h'
	DB	00H, 00H, 00H
$SG189052 DB	'(', 00H, 'i', 00H, 'd', 00H, 'x', 00H, ' ', 00H, '<', 00H
	DB	' ', 00H, '(', 00H, 'i', 00H, 'n', 00H, 't', 00H, ')', 00H, 'm'
	DB	00H, '_', 00H, 'N', 00H, 'o', 00H, 'd', 00H, 'e', 00H, 's', 00H
	DB	'.', 00H, 's', 00H, 'i', 00H, 'z', 00H, 'e', 00H, '(', 00H, ')'
	DB	00H, ')', 00H, ' ', 00H, '&', 00H, '&', 00H, ' ', 00H, '(', 00H
	DB	'i', 00H, 'd', 00H, 'x', 00H, ' ', 00H, '>', 00H, '=', 00H, '0'
	DB	00H, ')', 00H, ' ', 00H, '&', 00H, '&', 00H, ' ', 00H, '"', 00H
	DB	'<', 00H, 'S', 00H, 'p', 00H, 'a', 00H, 'r', 00H, 's', 00H, 'e'
	DB	00H, 'G', 00H, 'r', 00H, 'a', 00H, 'p', 00H, 'h', 00H, ':', 00H
	DB	':', 00H, 'G', 00H, 'e', 00H, 't', 00H, 'N', 00H, 'o', 00H, 'd'
	DB	00H, 'e', 00H, '>', 00H, ':', 00H, ' ', 00H, 'i', 00H, 'n', 00H
	DB	'v', 00H, 'a', 00H, 'l', 00H, 'i', 00H, 'd', 00H, ' ', 00H, 'i'
	DB	00H, 'n', 00H, 'd', 00H, 'e', 00H, 'x', 00H, '"', 00H, 00H, 00H
?colors@@3QBKB DD 0ffH					; colors
	DD	0ff0000H
	DD	0ff00H
	DD	00H
	DD	0c8c8ffH
	DD	0c8c8c8H
	DD	0ffffH
	DD	0aaffH
	DD	0aa00ffH
	DD	05a85H
	DD	0ffffffH
	DD	06400H
	DD	0ffff00H
	DD	0c8c8c8H
	DD	0e6e6ffH
$SG175593 DB	'<Raven_PathPlanner::GetPathAsNodes>: no current search', 00H
	ORG $+5
$SG175594 DB	'c', 00H, ':', 00H, '\', 00H, 'u', 00H, 's', 00H, 'e', 00H
	DB	'r', 00H, 's', 00H, '\', 00H, 'u', 00H, 't', 00H, 'i', 00H, 'l'
	DB	00H, 'i', 00H, 's', 00H, 'a', 00H, 't', 00H, 'e', 00H, 'u', 00H
	DB	'r', 00H, '\', 00H, 'd', 00H, 'o', 00H, 'c', 00H, 'u', 00H, 'm'
	DB	00H, 'e', 00H, 'n', 00H, 't', 00H, 's', 00H, '\', 00H, 'g', 00H
	DB	'i', 00H, 't', 00H, 'h', 00H, 'u', 00H, 'b', 00H, '\', 00H, '8'
	DB	00H, 'i', 00H, 'a', 00H, 'r', 00H, '1', 00H, '2', 00H, '5', 00H
	DB	'-', 00H, 'p', 00H, 'r', 00H, 'o', 00H, 'j', 00H, 'e', 00H, 't'
	DB	00H, 'r', 00H, 'a', 00H, 'v', 00H, 'e', 00H, 'n', 00H, '\', 00H
	DB	'v', 00H, 's', 00H, '2', 00H, '0', 00H, '1', 00H, '5', 00H, '\'
	DB	00H, 'b', 00H, 'u', 00H, 'c', 00H, 'k', 00H, 'l', 00H, 'a', 00H
	DB	'n', 00H, 'd', 00H, '_', 00H, 'c', 00H, 'h', 00H, 'a', 00H, 'p'
	DB	00H, 't', 00H, 'e', 00H, 'r', 00H, '7', 00H, ' ', 00H, 't', 00H
	DB	'o', 00H, ' ', 00H, '1', 00H, '0', 00H, '_', 00H, 'r', 00H, 'a'
	DB	00H, 'v', 00H, 'e', 00H, 'n', 00H, '\', 00H, 'n', 00H, 'a', 00H
	DB	'v', 00H, 'i', 00H, 'g', 00H, 'a', 00H, 't', 00H, 'i', 00H, 'o'
	DB	00H, 'n', 00H, '\', 00H, 'r', 00H, 'a', 00H, 'v', 00H, 'e', 00H
	DB	'n', 00H, '_', 00H, 'p', 00H, 'a', 00H, 't', 00H, 'h', 00H, 'p'
	DB	00H, 'l', 00H, 'a', 00H, 'n', 00H, 'n', 00H, 'e', 00H, 'r', 00H
	DB	'.', 00H, 'c', 00H, 'p', 00H, 'p', 00H, 00H, 00H
$SG175595 DB	'm', 00H, '_', 00H, 'p', 00H, 'C', 00H, 'u', 00H, 'r', 00H
	DB	'r', 00H, 'e', 00H, 'n', 00H, 't', 00H, 'S', 00H, 'e', 00H, 'a'
	DB	00H, 'r', 00H, 'c', 00H, 'h', 00H, ' ', 00H, '&', 00H, '&', 00H
	DB	' ', 00H, '"', 00H, '<', 00H, 'R', 00H, 'a', 00H, 'v', 00H, 'e'
	DB	00H, 'n', 00H, '_', 00H, 'P', 00H, 'a', 00H, 't', 00H, 'h', 00H
	DB	'P', 00H, 'l', 00H, 'a', 00H, 'n', 00H, 'n', 00H, 'e', 00H, 'r'
	DB	00H, ':', 00H, ':', 00H, 'G', 00H, 'e', 00H, 't', 00H, 'P', 00H
	DB	'a', 00H, 't', 00H, 'h', 00H, 'A', 00H, 's', 00H, 'N', 00H, 'o'
	DB	00H, 'd', 00H, 'e', 00H, 's', 00H, '>', 00H, ':', 00H, ' ', 00H
	DB	'n', 00H, 'o', 00H, ' ', 00H, 'c', 00H, 'u', 00H, 'r', 00H, 'r'
	DB	00H, 'e', 00H, 'n', 00H, 't', 00H, ' ', 00H, 's', 00H, 'e', 00H
	DB	'a', 00H, 'r', 00H, 'c', 00H, 'h', 00H, '"', 00H, 00H, 00H
	ORG $+2
$SG176563 DB	'<Raven_PathPlanner::CycleOnce>: No search object instant'
	DB	'iated', 00H
	ORG $+6
$SG176564 DB	'c', 00H, ':', 00H, '\', 00H, 'u', 00H, 's', 00H, 'e', 00H
	DB	'r', 00H, 's', 00H, '\', 00H, 'u', 00H, 't', 00H, 'i', 00H, 'l'
	DB	00H, 'i', 00H, 's', 00H, 'a', 00H, 't', 00H, 'e', 00H, 'u', 00H
	DB	'r', 00H, '\', 00H, 'd', 00H, 'o', 00H, 'c', 00H, 'u', 00H, 'm'
	DB	00H, 'e', 00H, 'n', 00H, 't', 00H, 's', 00H, '\', 00H, 'g', 00H
	DB	'i', 00H, 't', 00H, 'h', 00H, 'u', 00H, 'b', 00H, '\', 00H, '8'
	DB	00H, 'i', 00H, 'a', 00H, 'r', 00H, '1', 00H, '2', 00H, '5', 00H
	DB	'-', 00H, 'p', 00H, 'r', 00H, 'o', 00H, 'j', 00H, 'e', 00H, 't'
	DB	00H, 'r', 00H, 'a', 00H, 'v', 00H, 'e', 00H, 'n', 00H, '\', 00H
	DB	'v', 00H, 's', 00H, '2', 00H, '0', 00H, '1', 00H, '5', 00H, '\'
	DB	00H, 'b', 00H, 'u', 00H, 'c', 00H, 'k', 00H, 'l', 00H, 'a', 00H
	DB	'n', 00H, 'd', 00H, '_', 00H, 'c', 00H, 'h', 00H, 'a', 00H, 'p'
	DB	00H, 't', 00H, 'e', 00H, 'r', 00H, '7', 00H, ' ', 00H, 't', 00H
	DB	'o', 00H, ' ', 00H, '1', 00H, '0', 00H, '_', 00H, 'r', 00H, 'a'
	DB	00H, 'v', 00H, 'e', 00H, 'n', 00H, '\', 00H, 'n', 00H, 'a', 00H
	DB	'v', 00H, 'i', 00H, 'g', 00H, 'a', 00H, 't', 00H, 'i', 00H, 'o'
	DB	00H, 'n', 00H, '\', 00H, 'r', 00H, 'a', 00H, 'v', 00H, 'e', 00H
	DB	'n', 00H, '_', 00H, 'p', 00H, 'a', 00H, 't', 00H, 'h', 00H, 'p'
	DB	00H, 'l', 00H, 'a', 00H, 'n', 00H, 'n', 00H, 'e', 00H, 'r', 00H
	DB	'.', 00H, 'c', 00H, 'p', 00H, 'p', 00H, 00H, 00H
$SG176565 DB	'm', 00H, '_', 00H, 'p', 00H, 'C', 00H, 'u', 00H, 'r', 00H
	DB	'r', 00H, 'e', 00H, 'n', 00H, 't', 00H, 'S', 00H, 'e', 00H, 'a'
	DB	00H, 'r', 00H, 'c', 00H, 'h', 00H, ' ', 00H, '&', 00H, '&', 00H
	DB	' ', 00H, '"', 00H, '<', 00H, 'R', 00H, 'a', 00H, 'v', 00H, 'e'
	DB	00H, 'n', 00H, '_', 00H, 'P', 00H, 'a', 00H, 't', 00H, 'h', 00H
	DB	'P', 00H, 'l', 00H, 'a', 00H, 'n', 00H, 'n', 00H, 'e', 00H, 'r'
	DB	00H, ':', 00H, ':', 00H, 'C', 00H, 'y', 00H, 'c', 00H, 'l', 00H
	DB	'e', 00H, 'O', 00H, 'n', 00H, 'c', 00H, 'e', 00H, '>', 00H, ':'
	DB	00H, ' ', 00H, 'N', 00H, 'o', 00H, ' ', 00H, 's', 00H, 'e', 00H
	DB	'a', 00H, 'r', 00H, 'c', 00H, 'h', 00H, ' ', 00H, 'o', 00H, 'b'
	DB	00H, 'j', 00H, 'e', 00H, 'c', 00H, 't', 00H, ' ', 00H, 'i', 00H
	DB	'n', 00H, 's', 00H, 't', 00H, 'a', 00H, 'n', 00H, 't', 00H, 'i'
	DB	00H, 'a', 00H, 't', 00H, 'e', 00H, 'd', 00H, '"', 00H, 00H, 00H
CONST	ENDS
PUBLIC	?__empty_global_delete@@YAXPAX@Z		; __empty_global_delete
PUBLIC	?__empty_global_delete@@YAXPAXI@Z		; __empty_global_delete
PUBLIC	??2@YAPAXIPAX@Z					; operator new
PUBLIC	?max@?$numeric_limits@H@std@@SAHXZ		; std::numeric_limits<int>::max
PUBLIC	?min@?$numeric_limits@M@std@@SAMXZ		; std::numeric_limits<float>::min
PUBLIC	?max@?$numeric_limits@M@std@@SAMXZ		; std::numeric_limits<float>::max
PUBLIC	?min@?$numeric_limits@N@std@@SANXZ		; std::numeric_limits<double>::min
PUBLIC	?max@?$numeric_limits@N@std@@SANXZ		; std::numeric_limits<double>::max
PUBLIC	?_Adopt@_Iterator_base0@std@@QAEXPBX@Z		; std::_Iterator_base0::_Adopt
PUBLIC	??0_Container_proxy@std@@QAE@XZ			; std::_Container_proxy::_Container_proxy
PUBLIC	??0_Container_base12@std@@QAE@XZ		; std::_Container_base12::_Container_base12
PUBLIC	?_Getpfirst@_Container_base12@std@@QBEPAPAU_Iterator_base12@2@XZ ; std::_Container_base12::_Getpfirst
PUBLIC	?_Orphan_all@_Container_base12@std@@QAEXXZ	; std::_Container_base12::_Orphan_all
PUBLIC	?_Swap_all@_Container_base12@std@@QAEXAAU12@@Z	; std::_Container_base12::_Swap_all
PUBLIC	??0_Iterator_base12@std@@QAE@XZ			; std::_Iterator_base12::_Iterator_base12
PUBLIC	??0_Iterator_base12@std@@QAE@ABU01@@Z		; std::_Iterator_base12::_Iterator_base12
PUBLIC	??4_Iterator_base12@std@@QAEAAU01@ABU01@@Z	; std::_Iterator_base12::operator=
PUBLIC	??1_Iterator_base12@std@@QAE@XZ			; std::_Iterator_base12::~_Iterator_base12
PUBLIC	?_Adopt@_Iterator_base12@std@@QAEXPBU_Container_base12@2@@Z ; std::_Iterator_base12::_Adopt
PUBLIC	?_Clrcont@_Iterator_base12@std@@QAEXXZ		; std::_Iterator_base12::_Clrcont
PUBLIC	?_Getcont@_Iterator_base12@std@@QBEPBU_Container_base12@2@XZ ; std::_Iterator_base12::_Getcont
PUBLIC	?_Getpnext@_Iterator_base12@std@@QAEPAPAU12@XZ	; std::_Iterator_base12::_Getpnext
PUBLIC	?_Orphan_me@_Iterator_base12@std@@QAEXXZ	; std::_Iterator_base12::_Orphan_me
PUBLIC	?_Allocate@_Default_allocate_traits@std@@SAPAXI@Z ; std::_Default_allocate_traits::_Allocate
PUBLIC	?_Adjust_manually_vector_aligned@std@@YAXAAPAXAAI@Z ; std::_Adjust_manually_vector_aligned
PUBLIC	??0id@locale@std@@QAE@I@Z			; std::locale::id::id
PUBLIC	?isEqual@@YA_NNN@Z				; isEqual
PUBLIC	??0?$allocator@N@std@@QAE@XZ			; std::allocator<double>::allocator<double>
PUBLIC	?deallocate@?$allocator@N@std@@QAEXQANI@Z	; std::allocator<double>::deallocate
PUBLIC	?allocate@?$allocator@N@std@@QAEPANI@Z		; std::allocator<double>::allocate
PUBLIC	?max_size@?$_Default_allocator_traits@V?$allocator@N@std@@@std@@SAIABV?$allocator@N@2@@Z ; std::_Default_allocator_traits<std::allocator<double> >::max_size
PUBLIC	??1?$_Vector_alloc@U?$_Vec_base_types@NV?$allocator@N@std@@@std@@@std@@QAE@XZ ; std::_Vector_alloc<std::_Vec_base_types<double,std::allocator<double> > >::~_Vector_alloc<std::_Vec_base_types<double,std::allocator<double> > >
PUBLIC	?_Alloc_proxy@?$_Vector_alloc@U?$_Vec_base_types@NV?$allocator@N@std@@@std@@@std@@QAEXXZ ; std::_Vector_alloc<std::_Vec_base_types<double,std::allocator<double> > >::_Alloc_proxy
PUBLIC	?_Free_proxy@?$_Vector_alloc@U?$_Vec_base_types@NV?$allocator@N@std@@@std@@@std@@QAEXXZ ; std::_Vector_alloc<std::_Vec_base_types<double,std::allocator<double> > >::_Free_proxy
PUBLIC	?_Myproxy@?$_Vector_alloc@U?$_Vec_base_types@NV?$allocator@N@std@@@std@@@std@@QAEAAPAU_Container_proxy@2@XZ ; std::_Vector_alloc<std::_Vec_base_types<double,std::allocator<double> > >::_Myproxy
PUBLIC	?_Orphan_all@?$_Vector_alloc@U?$_Vec_base_types@NV?$allocator@N@std@@@std@@@std@@QAEXXZ ; std::_Vector_alloc<std::_Vec_base_types<double,std::allocator<double> > >::_Orphan_all
PUBLIC	?_Getal@?$_Vector_alloc@U?$_Vec_base_types@NV?$allocator@N@std@@@std@@@std@@QAEAAV?$allocator@N@2@XZ ; std::_Vector_alloc<std::_Vec_base_types<double,std::allocator<double> > >::_Getal
PUBLIC	?_Getal@?$_Vector_alloc@U?$_Vec_base_types@NV?$allocator@N@std@@@std@@@std@@QBEABV?$allocator@N@2@XZ ; std::_Vector_alloc<std::_Vec_base_types<double,std::allocator<double> > >::_Getal
PUBLIC	?_Get_data@?$_Vector_alloc@U?$_Vec_base_types@NV?$allocator@N@std@@@std@@@std@@QAEAAV?$_Vector_val@U?$_Simple_types@N@std@@@2@XZ ; std::_Vector_alloc<std::_Vec_base_types<double,std::allocator<double> > >::_Get_data
PUBLIC	?_Get_data@?$_Vector_alloc@U?$_Vec_base_types@NV?$allocator@N@std@@@std@@@std@@QBEABV?$_Vector_val@U?$_Simple_types@N@std@@@2@XZ ; std::_Vector_alloc<std::_Vec_base_types<double,std::allocator<double> > >::_Get_data
PUBLIC	?_Myfirst@?$_Vector_alloc@U?$_Vec_base_types@NV?$allocator@N@std@@@std@@@std@@QAEAAPANXZ ; std::_Vector_alloc<std::_Vec_base_types<double,std::allocator<double> > >::_Myfirst
PUBLIC	?_Myfirst@?$_Vector_alloc@U?$_Vec_base_types@NV?$allocator@N@std@@@std@@@std@@QBEABQANXZ ; std::_Vector_alloc<std::_Vec_base_types<double,std::allocator<double> > >::_Myfirst
PUBLIC	?_Mylast@?$_Vector_alloc@U?$_Vec_base_types@NV?$allocator@N@std@@@std@@@std@@QAEAAPANXZ ; std::_Vector_alloc<std::_Vec_base_types<double,std::allocator<double> > >::_Mylast
PUBLIC	?_Mylast@?$_Vector_alloc@U?$_Vec_base_types@NV?$allocator@N@std@@@std@@@std@@QBEABQANXZ ; std::_Vector_alloc<std::_Vec_base_types<double,std::allocator<double> > >::_Mylast
PUBLIC	?_Myend@?$_Vector_alloc@U?$_Vec_base_types@NV?$allocator@N@std@@@std@@@std@@QAEAAPANXZ ; std::_Vector_alloc<std::_Vec_base_types<double,std::allocator<double> > >::_Myend
PUBLIC	?_Myend@?$_Vector_alloc@U?$_Vec_base_types@NV?$allocator@N@std@@@std@@@std@@QBEABQANXZ ; std::_Vector_alloc<std::_Vec_base_types<double,std::allocator<double> > >::_Myend
PUBLIC	??0?$_Vector_val@U?$_Simple_types@N@std@@@std@@QAE@XZ ; std::_Vector_val<std::_Simple_types<double> >::_Vector_val<std::_Simple_types<double> >
PUBLIC	?_Get_first@?$_Compressed_pair@V?$allocator@N@std@@V?$_Vector_val@U?$_Simple_types@N@std@@@2@$00@std@@QAEAAV?$allocator@N@2@XZ ; std::_Compressed_pair<std::allocator<double>,std::_Vector_val<std::_Simple_types<double> >,1>::_Get_first
PUBLIC	?_Get_first@?$_Compressed_pair@V?$allocator@N@std@@V?$_Vector_val@U?$_Simple_types@N@std@@@2@$00@std@@QBEABV?$allocator@N@2@XZ ; std::_Compressed_pair<std::allocator<double>,std::_Vector_val<std::_Simple_types<double> >,1>::_Get_first
PUBLIC	?_Get_second@?$_Compressed_pair@V?$allocator@N@std@@V?$_Vector_val@U?$_Simple_types@N@std@@@2@$00@std@@QAEAAV?$_Vector_val@U?$_Simple_types@N@std@@@2@XZ ; std::_Compressed_pair<std::allocator<double>,std::_Vector_val<std::_Simple_types<double> >,1>::_Get_second
PUBLIC	?_Get_second@?$_Compressed_pair@V?$allocator@N@std@@V?$_Vector_val@U?$_Simple_types@N@std@@@2@$00@std@@QBEABV?$_Vector_val@U?$_Simple_types@N@std@@@2@XZ ; std::_Compressed_pair<std::allocator<double>,std::_Vector_val<std::_Simple_types<double> >,1>::_Get_second
PUBLIC	??0?$vector@NV?$allocator@N@std@@@std@@QAE@IABNABV?$allocator@N@1@@Z ; std::vector<double,std::allocator<double> >::vector<double,std::allocator<double> >
PUBLIC	??1?$vector@NV?$allocator@N@std@@@std@@QAE@XZ	; std::vector<double,std::allocator<double> >::~vector<double,std::allocator<double> >
PUBLIC	?size@?$vector@NV?$allocator@N@std@@@std@@QBEIXZ ; std::vector<double,std::allocator<double> >::size
PUBLIC	?max_size@?$vector@NV?$allocator@N@std@@@std@@QBEIXZ ; std::vector<double,std::allocator<double> >::max_size
PUBLIC	?capacity@?$vector@NV?$allocator@N@std@@@std@@QBEIXZ ; std::vector<double,std::allocator<double> >::capacity
PUBLIC	??A?$vector@NV?$allocator@N@std@@@std@@QAEAANI@Z ; std::vector<double,std::allocator<double> >::operator[]
PUBLIC	??A?$vector@NV?$allocator@N@std@@@std@@QBEABNI@Z ; std::vector<double,std::allocator<double> >::operator[]
PUBLIC	?_Ufill@?$vector@NV?$allocator@N@std@@@std@@AAEPANPANIABN@Z ; std::vector<double,std::allocator<double> >::_Ufill
PUBLIC	?_Destroy@?$vector@NV?$allocator@N@std@@@std@@AAEXPAN0@Z ; std::vector<double,std::allocator<double> >::_Destroy
PUBLIC	?_Buy@?$vector@NV?$allocator@N@std@@@std@@AAE_NI@Z ; std::vector<double,std::allocator<double> >::_Buy
PUBLIC	?_Tidy@?$vector@NV?$allocator@N@std@@@std@@AAEXXZ ; std::vector<double,std::allocator<double> >::_Tidy
PUBLIC	?_Xlength@?$vector@NV?$allocator@N@std@@@std@@CAXXZ ; std::vector<double,std::allocator<double> >::_Xlength
PUBLIC	??0Vector2D@@QAE@XZ				; Vector2D::Vector2D
PUBLIC	??0Vector2D@@QAE@NN@Z				; Vector2D::Vector2D
PUBLIC	??G@YA?AUVector2D@@ABU0@0@Z			; operator-
PUBLIC	??H@YA?AUVector2D@@ABU0@0@Z			; operator+
PUBLIC	??K@YA?AUVector2D@@ABU0@N@Z			; operator/
PUBLIC	?Vec2DDistance@@YANABUVector2D@@0@Z		; Vec2DDistance
PUBLIC	?Vec2DDistanceSq@@YANABUVector2D@@0@Z		; Vec2DDistanceSq
PUBLIC	??0?$allocator@H@std@@QAE@XZ			; std::allocator<int>::allocator<int>
PUBLIC	?deallocate@?$allocator@H@std@@QAEXQAHI@Z	; std::allocator<int>::deallocate
PUBLIC	?allocate@?$allocator@H@std@@QAEPAHI@Z		; std::allocator<int>::allocate
PUBLIC	?max_size@?$_Default_allocator_traits@V?$allocator@H@std@@@std@@SAIABV?$allocator@H@2@@Z ; std::_Default_allocator_traits<std::allocator<int> >::max_size
PUBLIC	??0?$_Vector_alloc@U?$_Vec_base_types@HV?$allocator@H@std@@@std@@@std@@QAE@XZ ; std::_Vector_alloc<std::_Vec_base_types<int,std::allocator<int> > >::_Vector_alloc<std::_Vec_base_types<int,std::allocator<int> > >
PUBLIC	??1?$_Vector_alloc@U?$_Vec_base_types@HV?$allocator@H@std@@@std@@@std@@QAE@XZ ; std::_Vector_alloc<std::_Vec_base_types<int,std::allocator<int> > >::~_Vector_alloc<std::_Vec_base_types<int,std::allocator<int> > >
PUBLIC	?_Alloc_proxy@?$_Vector_alloc@U?$_Vec_base_types@HV?$allocator@H@std@@@std@@@std@@QAEXXZ ; std::_Vector_alloc<std::_Vec_base_types<int,std::allocator<int> > >::_Alloc_proxy
PUBLIC	?_Free_proxy@?$_Vector_alloc@U?$_Vec_base_types@HV?$allocator@H@std@@@std@@@std@@QAEXXZ ; std::_Vector_alloc<std::_Vec_base_types<int,std::allocator<int> > >::_Free_proxy
PUBLIC	?_Myproxy@?$_Vector_alloc@U?$_Vec_base_types@HV?$allocator@H@std@@@std@@@std@@QAEAAPAU_Container_proxy@2@XZ ; std::_Vector_alloc<std::_Vec_base_types<int,std::allocator<int> > >::_Myproxy
PUBLIC	?_Orphan_all@?$_Vector_alloc@U?$_Vec_base_types@HV?$allocator@H@std@@@std@@@std@@QAEXXZ ; std::_Vector_alloc<std::_Vec_base_types<int,std::allocator<int> > >::_Orphan_all
PUBLIC	?_Getal@?$_Vector_alloc@U?$_Vec_base_types@HV?$allocator@H@std@@@std@@@std@@QAEAAV?$allocator@H@2@XZ ; std::_Vector_alloc<std::_Vec_base_types<int,std::allocator<int> > >::_Getal
PUBLIC	?_Getal@?$_Vector_alloc@U?$_Vec_base_types@HV?$allocator@H@std@@@std@@@std@@QBEABV?$allocator@H@2@XZ ; std::_Vector_alloc<std::_Vec_base_types<int,std::allocator<int> > >::_Getal
PUBLIC	?_Get_data@?$_Vector_alloc@U?$_Vec_base_types@HV?$allocator@H@std@@@std@@@std@@QAEAAV?$_Vector_val@U?$_Simple_types@H@std@@@2@XZ ; std::_Vector_alloc<std::_Vec_base_types<int,std::allocator<int> > >::_Get_data
PUBLIC	?_Get_data@?$_Vector_alloc@U?$_Vec_base_types@HV?$allocator@H@std@@@std@@@std@@QBEABV?$_Vector_val@U?$_Simple_types@H@std@@@2@XZ ; std::_Vector_alloc<std::_Vec_base_types<int,std::allocator<int> > >::_Get_data
PUBLIC	?_Myfirst@?$_Vector_alloc@U?$_Vec_base_types@HV?$allocator@H@std@@@std@@@std@@QAEAAPAHXZ ; std::_Vector_alloc<std::_Vec_base_types<int,std::allocator<int> > >::_Myfirst
PUBLIC	?_Myfirst@?$_Vector_alloc@U?$_Vec_base_types@HV?$allocator@H@std@@@std@@@std@@QBEABQAHXZ ; std::_Vector_alloc<std::_Vec_base_types<int,std::allocator<int> > >::_Myfirst
PUBLIC	?_Mylast@?$_Vector_alloc@U?$_Vec_base_types@HV?$allocator@H@std@@@std@@@std@@QAEAAPAHXZ ; std::_Vector_alloc<std::_Vec_base_types<int,std::allocator<int> > >::_Mylast
PUBLIC	?_Mylast@?$_Vector_alloc@U?$_Vec_base_types@HV?$allocator@H@std@@@std@@@std@@QBEABQAHXZ ; std::_Vector_alloc<std::_Vec_base_types<int,std::allocator<int> > >::_Mylast
PUBLIC	?_Myend@?$_Vector_alloc@U?$_Vec_base_types@HV?$allocator@H@std@@@std@@@std@@QAEAAPAHXZ ; std::_Vector_alloc<std::_Vec_base_types<int,std::allocator<int> > >::_Myend
PUBLIC	?_Myend@?$_Vector_alloc@U?$_Vec_base_types@HV?$allocator@H@std@@@std@@@std@@QBEABQAHXZ ; std::_Vector_alloc<std::_Vec_base_types<int,std::allocator<int> > >::_Myend
PUBLIC	??0?$_Vector_val@U?$_Simple_types@H@std@@@std@@QAE@XZ ; std::_Vector_val<std::_Simple_types<int> >::_Vector_val<std::_Simple_types<int> >
PUBLIC	?_Get_first@?$_Compressed_pair@V?$allocator@H@std@@V?$_Vector_val@U?$_Simple_types@H@std@@@2@$00@std@@QAEAAV?$allocator@H@2@XZ ; std::_Compressed_pair<std::allocator<int>,std::_Vector_val<std::_Simple_types<int> >,1>::_Get_first
PUBLIC	?_Get_first@?$_Compressed_pair@V?$allocator@H@std@@V?$_Vector_val@U?$_Simple_types@H@std@@@2@$00@std@@QBEABV?$allocator@H@2@XZ ; std::_Compressed_pair<std::allocator<int>,std::_Vector_val<std::_Simple_types<int> >,1>::_Get_first
PUBLIC	?_Get_second@?$_Compressed_pair@V?$allocator@H@std@@V?$_Vector_val@U?$_Simple_types@H@std@@@2@$00@std@@QAEAAV?$_Vector_val@U?$_Simple_types@H@std@@@2@XZ ; std::_Compressed_pair<std::allocator<int>,std::_Vector_val<std::_Simple_types<int> >,1>::_Get_second
PUBLIC	?_Get_second@?$_Compressed_pair@V?$allocator@H@std@@V?$_Vector_val@U?$_Simple_types@H@std@@@2@$00@std@@QBEABV?$_Vector_val@U?$_Simple_types@H@std@@@2@XZ ; std::_Compressed_pair<std::allocator<int>,std::_Vector_val<std::_Simple_types<int> >,1>::_Get_second
PUBLIC	??0?$vector@HV?$allocator@H@std@@@std@@QAE@XZ	; std::vector<int,std::allocator<int> >::vector<int,std::allocator<int> >
PUBLIC	??1?$vector@HV?$allocator@H@std@@@std@@QAE@XZ	; std::vector<int,std::allocator<int> >::~vector<int,std::allocator<int> >
PUBLIC	?assign@?$vector@HV?$allocator@H@std@@@std@@QAEXIABH@Z ; std::vector<int,std::allocator<int> >::assign
PUBLIC	?size@?$vector@HV?$allocator@H@std@@@std@@QBEIXZ ; std::vector<int,std::allocator<int> >::size
PUBLIC	?max_size@?$vector@HV?$allocator@H@std@@@std@@QBEIXZ ; std::vector<int,std::allocator<int> >::max_size
PUBLIC	?capacity@?$vector@HV?$allocator@H@std@@@std@@QBEIXZ ; std::vector<int,std::allocator<int> >::capacity
PUBLIC	??A?$vector@HV?$allocator@H@std@@@std@@QAEAAHI@Z ; std::vector<int,std::allocator<int> >::operator[]
PUBLIC	?_Ufill@?$vector@HV?$allocator@H@std@@@std@@AAEPAHPAHIABH@Z ; std::vector<int,std::allocator<int> >::_Ufill
PUBLIC	?_Destroy@?$vector@HV?$allocator@H@std@@@std@@AAEXPAH0@Z ; std::vector<int,std::allocator<int> >::_Destroy
PUBLIC	?_Calculate_growth@?$vector@HV?$allocator@H@std@@@std@@ABEII@Z ; std::vector<int,std::allocator<int> >::_Calculate_growth
PUBLIC	?_Buy@?$vector@HV?$allocator@H@std@@@std@@AAE_NI@Z ; std::vector<int,std::allocator<int> >::_Buy
PUBLIC	?_Tidy@?$vector@HV?$allocator@H@std@@@std@@AAEXXZ ; std::vector<int,std::allocator<int> >::_Tidy
PUBLIC	?_Xlength@?$vector@HV?$allocator@H@std@@@std@@CAXXZ ; std::vector<int,std::allocator<int> >::_Xlength
PUBLIC	??0PathEdge@@QAE@UVector2D@@0HH@Z		; PathEdge::PathEdge
PUBLIC	?Destination@PathEdge@@QBE?AUVector2D@@XZ	; PathEdge::Destination
PUBLIC	?SetDestination@PathEdge@@QAEXUVector2D@@@Z	; PathEdge::SetDestination
PUBLIC	?Source@PathEdge@@QBE?AUVector2D@@XZ		; PathEdge::Source
PUBLIC	?Behavior@PathEdge@@QBEHXZ			; PathEdge::Behavior
PUBLIC	?Pos@BaseGameEntity@@QBE?AUVector2D@@XZ		; BaseGameEntity::Pos
PUBLIC	?ID@BaseGameEntity@@QBEHXZ			; BaseGameEntity::ID
PUBLIC	?EntityType@BaseGameEntity@@QBEHXZ		; BaseGameEntity::EntityType
PUBLIC	??0InvertedAABBox2D@@QAE@UVector2D@@0@Z		; InvertedAABBox2D::InvertedAABBox2D
PUBLIC	?isOverlappedWith@InvertedAABBox2D@@QBE_NABV1@@Z ; InvertedAABBox2D::isOverlappedWith
PUBLIC	?Top@InvertedAABBox2D@@QBENXZ			; InvertedAABBox2D::Top
PUBLIC	?Left@InvertedAABBox2D@@QBENXZ			; InvertedAABBox2D::Left
PUBLIC	?Bottom@InvertedAABBox2D@@QBENXZ		; InvertedAABBox2D::Bottom
PUBLIC	?Right@InvertedAABBox2D@@QBENXZ			; InvertedAABBox2D::Right
PUBLIC	?GetWorld@Raven_Bot@@QAEQAVRaven_Game@@XZ	; Raven_Bot::GetWorld
PUBLIC	?From@GraphEdge@@QBEHXZ				; GraphEdge::From
PUBLIC	?To@GraphEdge@@QBEHXZ				; GraphEdge::To
PUBLIC	?Cost@GraphEdge@@QBENXZ				; GraphEdge::Cost
PUBLIC	?Flags@NavGraphEdge@@QBEHXZ			; NavGraphEdge::Flags
PUBLIC	?IDofIntersectingEntity@NavGraphEdge@@QBEHXZ	; NavGraphEdge::IDofIntersectingEntity
PUBLIC	?Index@GraphNode@@QBEHXZ			; GraphNode::Index
PUBLIC	?_Get_data@?$_Vector_alloc@U?$_Vec_base_types@V?$NavGraphNode@PAV?$Trigger@VRaven_Bot@@@@@@V?$allocator@V?$NavGraphNode@PAV?$Trigger@VRaven_Bot@@@@@@@std@@@std@@@std@@QBEABV?$_Vector_val@U?$_Simple_types@V?$NavGraphNode@PAV?$Trigger@VRaven_Bot@@@@@@@std@@@2@XZ ; std::_Vector_alloc<std::_Vec_base_types<NavGraphNode<Trigger<Raven_Bot> *>,std::allocator<NavGraphNode<Trigger<Raven_Bot> *> > > >::_Get_data
PUBLIC	?_Myfirst@?$_Vector_alloc@U?$_Vec_base_types@V?$NavGraphNode@PAV?$Trigger@VRaven_Bot@@@@@@V?$allocator@V?$NavGraphNode@PAV?$Trigger@VRaven_Bot@@@@@@@std@@@std@@@std@@QBEABQAV?$NavGraphNode@PAV?$Trigger@VRaven_Bot@@@@@@XZ ; std::_Vector_alloc<std::_Vec_base_types<NavGraphNode<Trigger<Raven_Bot> *>,std::allocator<NavGraphNode<Trigger<Raven_Bot> *> > > >::_Myfirst
PUBLIC	?_Mylast@?$_Vector_alloc@U?$_Vec_base_types@V?$NavGraphNode@PAV?$Trigger@VRaven_Bot@@@@@@V?$allocator@V?$NavGraphNode@PAV?$Trigger@VRaven_Bot@@@@@@@std@@@std@@@std@@QBEABQAV?$NavGraphNode@PAV?$Trigger@VRaven_Bot@@@@@@XZ ; std::_Vector_alloc<std::_Vec_base_types<NavGraphNode<Trigger<Raven_Bot> *>,std::allocator<NavGraphNode<Trigger<Raven_Bot> *> > > >::_Mylast
PUBLIC	?_Get_second@?$_Compressed_pair@V?$allocator@V?$NavGraphNode@PAV?$Trigger@VRaven_Bot@@@@@@@std@@V?$_Vector_val@U?$_Simple_types@V?$NavGraphNode@PAV?$Trigger@VRaven_Bot@@@@@@@std@@@2@$00@std@@QBEABV?$_Vector_val@U?$_Simple_types@V?$NavGraphNode@PAV?$Trigger@VRaven_Bot@@@@@@@std@@@2@XZ ; std::_Compressed_pair<std::allocator<NavGraphNode<Trigger<Raven_Bot> *> >,std::_Vector_val<std::_Simple_types<NavGraphNode<Trigger<Raven_Bot> *> > >,1>::_Get_second
PUBLIC	?size@?$vector@V?$NavGraphNode@PAV?$Trigger@VRaven_Bot@@@@@@V?$allocator@V?$NavGraphNode@PAV?$Trigger@VRaven_Bot@@@@@@@std@@@std@@QBEIXZ ; std::vector<NavGraphNode<Trigger<Raven_Bot> *>,std::allocator<NavGraphNode<Trigger<Raven_Bot> *> > >::size
PUBLIC	??A?$vector@V?$NavGraphNode@PAV?$Trigger@VRaven_Bot@@@@@@V?$allocator@V?$NavGraphNode@PAV?$Trigger@VRaven_Bot@@@@@@@std@@@std@@QBEABV?$NavGraphNode@PAV?$Trigger@VRaven_Bot@@@@@@I@Z ; std::vector<NavGraphNode<Trigger<Raven_Bot> *>,std::allocator<NavGraphNode<Trigger<Raven_Bot> *> > >::operator[]
PUBLIC	?_Get_data@?$_Vector_alloc@U?$_Vec_base_types@V?$list@VNavGraphEdge@@V?$allocator@VNavGraphEdge@@@std@@@std@@V?$allocator@V?$list@VNavGraphEdge@@V?$allocator@VNavGraphEdge@@@std@@@std@@@2@@std@@@std@@QBEABV?$_Vector_val@U?$_Simple_types@V?$list@VNavGraphEdge@@V?$allocator@VNavGraphEdge@@@std@@@std@@@std@@@2@XZ ; std::_Vector_alloc<std::_Vec_base_types<std::list<NavGraphEdge,std::allocator<NavGraphEdge> >,std::allocator<std::list<NavGraphEdge,std::allocator<NavGraphEdge> > > > >::_Get_data
PUBLIC	?_Myfirst@?$_Vector_alloc@U?$_Vec_base_types@V?$list@VNavGraphEdge@@V?$allocator@VNavGraphEdge@@@std@@@std@@V?$allocator@V?$list@VNavGraphEdge@@V?$allocator@VNavGraphEdge@@@std@@@std@@@2@@std@@@std@@QBEABQAV?$list@VNavGraphEdge@@V?$allocator@VNavGraphEdge@@@std@@@2@XZ ; std::_Vector_alloc<std::_Vec_base_types<std::list<NavGraphEdge,std::allocator<NavGraphEdge> >,std::allocator<std::list<NavGraphEdge,std::allocator<NavGraphEdge> > > > >::_Myfirst
PUBLIC	?_Mylast@?$_Vector_alloc@U?$_Vec_base_types@V?$list@VNavGraphEdge@@V?$allocator@VNavGraphEdge@@@std@@@std@@V?$allocator@V?$list@VNavGraphEdge@@V?$allocator@VNavGraphEdge@@@std@@@std@@@2@@std@@@std@@QBEABQAV?$list@VNavGraphEdge@@V?$allocator@VNavGraphEdge@@@std@@@2@XZ ; std::_Vector_alloc<std::_Vec_base_types<std::list<NavGraphEdge,std::allocator<NavGraphEdge> >,std::allocator<std::list<NavGraphEdge,std::allocator<NavGraphEdge> > > > >::_Mylast
PUBLIC	?_Get_second@?$_Compressed_pair@V?$allocator@V?$list@VNavGraphEdge@@V?$allocator@VNavGraphEdge@@@std@@@std@@@std@@V?$_Vector_val@U?$_Simple_types@V?$list@VNavGraphEdge@@V?$allocator@VNavGraphEdge@@@std@@@std@@@std@@@2@$00@std@@QBEABV?$_Vector_val@U?$_Simple_types@V?$list@VNavGraphEdge@@V?$allocator@VNavGraphEdge@@@std@@@std@@@std@@@2@XZ ; std::_Compressed_pair<std::allocator<std::list<NavGraphEdge,std::allocator<NavGraphEdge> > >,std::_Vector_val<std::_Simple_types<std::list<NavGraphEdge,std::allocator<NavGraphEdge> > > >,1>::_Get_second
PUBLIC	?size@?$vector@V?$list@VNavGraphEdge@@V?$allocator@VNavGraphEdge@@@std@@@std@@V?$allocator@V?$list@VNavGraphEdge@@V?$allocator@VNavGraphEdge@@@std@@@std@@@2@@std@@QBEIXZ ; std::vector<std::list<NavGraphEdge,std::allocator<NavGraphEdge> >,std::allocator<std::list<NavGraphEdge,std::allocator<NavGraphEdge> > > >::size
PUBLIC	??A?$vector@V?$list@VNavGraphEdge@@V?$allocator@VNavGraphEdge@@@std@@@std@@V?$allocator@V?$list@VNavGraphEdge@@V?$allocator@VNavGraphEdge@@@std@@@std@@@2@@std@@QBEABV?$list@VNavGraphEdge@@V?$allocator@VNavGraphEdge@@@std@@@1@I@Z ; std::vector<std::list<NavGraphEdge,std::allocator<NavGraphEdge> >,std::allocator<std::list<NavGraphEdge,std::allocator<NavGraphEdge> > > >::operator[]
PUBLIC	?GetNode@?$SparseGraph@V?$NavGraphNode@PAV?$Trigger@VRaven_Bot@@@@@@VNavGraphEdge@@@@QBEABV?$NavGraphNode@PAV?$Trigger@VRaven_Bot@@@@@@H@Z ; SparseGraph<NavGraphNode<Trigger<Raven_Bot> *>,NavGraphEdge>::GetNode
PUBLIC	?NumNodes@?$SparseGraph@V?$NavGraphNode@PAV?$Trigger@VRaven_Bot@@@@@@VNavGraphEdge@@@@QBEHXZ ; SparseGraph<NavGraphNode<Trigger<Raven_Bot> *>,NavGraphEdge>::NumNodes
PUBLIC	?_Get_data@?$_List_alloc@U?$_List_base_types@PAV?$Trigger@VRaven_Bot@@@@V?$allocator@PAV?$Trigger@VRaven_Bot@@@@@std@@@std@@@std@@QBEABV?$_List_val@U?$_List_simple_types@PAV?$Trigger@VRaven_Bot@@@@@std@@@2@XZ ; std::_List_alloc<std::_List_base_types<Trigger<Raven_Bot> *,std::allocator<Trigger<Raven_Bot> *> > >::_Get_data
PUBLIC	?_Myhead@?$_List_alloc@U?$_List_base_types@PAV?$Trigger@VRaven_Bot@@@@V?$allocator@PAV?$Trigger@VRaven_Bot@@@@@std@@@std@@@std@@QBEABQAU?$_List_node@PAV?$Trigger@VRaven_Bot@@@@PAX@2@XZ ; std::_List_alloc<std::_List_base_types<Trigger<Raven_Bot> *,std::allocator<Trigger<Raven_Bot> *> > >::_Myhead
PUBLIC	?_Get_second@?$_Compressed_pair@V?$allocator@U?$_List_node@PAV?$Trigger@VRaven_Bot@@@@PAX@std@@@std@@V?$_List_val@U?$_List_simple_types@PAV?$Trigger@VRaven_Bot@@@@@std@@@2@$00@std@@QBEABV?$_List_val@U?$_List_simple_types@PAV?$Trigger@VRaven_Bot@@@@@std@@@2@XZ ; std::_Compressed_pair<std::allocator<std::_List_node<Trigger<Raven_Bot> *,void *> >,std::_List_val<std::_List_simple_types<Trigger<Raven_Bot> *> >,1>::_Get_second
PUBLIC	?begin@?$list@PAV?$Trigger@VRaven_Bot@@@@V?$allocator@PAV?$Trigger@VRaven_Bot@@@@@std@@@std@@QBE?AV?$_List_const_iterator@V?$_List_val@U?$_List_simple_types@PAV?$Trigger@VRaven_Bot@@@@@std@@@std@@@2@XZ ; std::list<Trigger<Raven_Bot> *,std::allocator<Trigger<Raven_Bot> *> >::begin
PUBLIC	?end@?$list@PAV?$Trigger@VRaven_Bot@@@@V?$allocator@PAV?$Trigger@VRaven_Bot@@@@@std@@@std@@QBE?AV?$_List_const_iterator@V?$_List_val@U?$_List_simple_types@PAV?$Trigger@VRaven_Bot@@@@@std@@@std@@@2@XZ ; std::list<Trigger<Raven_Bot> *,std::allocator<Trigger<Raven_Bot> *> >::end
PUBLIC	?GetTriggers@?$TriggerSystem@V?$Trigger@VRaven_Bot@@@@@@QBEABV?$list@PAV?$Trigger@VRaven_Bot@@@@V?$allocator@PAV?$Trigger@VRaven_Bot@@@@@std@@@std@@XZ ; TriggerSystem<Trigger<Raven_Bot> >::GetTriggers
PUBLIC	?GetTriggers@Raven_Map@@QBEABV?$list@PAV?$Trigger@VRaven_Bot@@@@V?$allocator@PAV?$Trigger@VRaven_Bot@@@@@std@@@std@@XZ ; Raven_Map::GetTriggers
PUBLIC	?GetNavGraph@Raven_Map@@QBEAAV?$SparseGraph@V?$NavGraphNode@PAV?$Trigger@VRaven_Bot@@@@@@VNavGraphEdge@@@@XZ ; Raven_Map::GetNavGraph
PUBLIC	?GetCellSpace@Raven_Map@@QBEQAV?$CellSpacePartition@PAV?$NavGraphNode@PAV?$Trigger@VRaven_Bot@@@@@@@@XZ ; Raven_Map::GetCellSpace
PUBLIC	?GetCellSpaceNeighborhoodRange@Raven_Map@@QBENXZ ; Raven_Map::GetCellSpaceNeighborhoodRange
PUBLIC	?GetClosestNodeToPosition@Raven_PathPlanner@@ABEHUVector2D@@@Z ; Raven_PathPlanner::GetClosestNodeToPosition
PUBLIC	?SmoothPathEdgesQuick@Raven_PathPlanner@@AAEXAAV?$list@VPathEdge@@V?$allocator@VPathEdge@@@std@@@std@@@Z ; Raven_PathPlanner::SmoothPathEdgesQuick
PUBLIC	?SmoothPathEdgesPrecise@Raven_PathPlanner@@AAEXAAV?$list@VPathEdge@@V?$allocator@VPathEdge@@@std@@@std@@@Z ; Raven_PathPlanner::SmoothPathEdgesPrecise
PUBLIC	?GetReadyForNewSearch@Raven_PathPlanner@@AAEXXZ	; Raven_PathPlanner::GetReadyForNewSearch
PUBLIC	??1Raven_PathPlanner@@QAE@XZ			; Raven_PathPlanner::~Raven_PathPlanner
PUBLIC	??0Raven_PathPlanner@@QAE@PAVRaven_Bot@@@Z	; Raven_PathPlanner::Raven_PathPlanner
PUBLIC	?RequestPathToItem@Raven_PathPlanner@@QAE_NI@Z	; Raven_PathPlanner::RequestPathToItem
PUBLIC	?RequestPathToPosition@Raven_PathPlanner@@QAE_NUVector2D@@@Z ; Raven_PathPlanner::RequestPathToPosition
PUBLIC	?GetPath@Raven_PathPlanner@@QAE?AV?$list@VPathEdge@@V?$allocator@VPathEdge@@@std@@@std@@XZ ; Raven_PathPlanner::GetPath
PUBLIC	?GetCostToNode@Raven_PathPlanner@@QBENI@Z	; Raven_PathPlanner::GetCostToNode
PUBLIC	?GetCostToClosestItem@Raven_PathPlanner@@QBENI@Z ; Raven_PathPlanner::GetCostToClosestItem
PUBLIC	?CycleOnce@Raven_PathPlanner@@QBEHXZ		; Raven_PathPlanner::CycleOnce
PUBLIC	?GetNodePosition@Raven_PathPlanner@@QBE?AUVector2D@@H@Z ; Raven_PathPlanner::GetNodePosition
PUBLIC	?GetMap@Raven_Game@@QAEQAVRaven_Map@@XZ		; Raven_Game::GetMap
PUBLIC	?GetPathManager@Raven_Game@@QAEQAV?$PathManager@VRaven_PathPlanner@@@@XZ ; Raven_Game::GetPathManager
PUBLIC	?deallocate@?$allocator@U?$_List_node@PAVRaven_PathPlanner@@PAX@std@@@std@@QAEXQAU?$_List_node@PAVRaven_PathPlanner@@PAX@2@I@Z ; std::allocator<std::_List_node<Raven_PathPlanner *,void *> >::deallocate
PUBLIC	?allocate@?$allocator@U?$_List_node@PAVRaven_PathPlanner@@PAX@std@@@std@@QAEPAU?$_List_node@PAVRaven_PathPlanner@@PAX@2@I@Z ; std::allocator<std::_List_node<Raven_PathPlanner *,void *> >::allocate
PUBLIC	?deallocate@?$_Default_allocator_traits@V?$allocator@U?$_List_node@PAVRaven_PathPlanner@@PAX@std@@@std@@@std@@SAXAAV?$allocator@U?$_List_node@PAVRaven_PathPlanner@@PAX@std@@@2@QAU?$_List_node@PAVRaven_PathPlanner@@PAX@2@I@Z ; std::_Default_allocator_traits<std::allocator<std::_List_node<Raven_PathPlanner *,void *> > >::deallocate
PUBLIC	?max_size@?$_Default_allocator_traits@V?$allocator@U?$_List_node@PAVRaven_PathPlanner@@PAX@std@@@std@@@std@@SAIABV?$allocator@U?$_List_node@PAVRaven_PathPlanner@@PAX@std@@@2@@Z ; std::_Default_allocator_traits<std::allocator<std::_List_node<Raven_PathPlanner *,void *> > >::max_size
PUBLIC	?_Getpfirst@?$_List_alloc@U?$_List_base_types@PAVRaven_PathPlanner@@V?$allocator@PAVRaven_PathPlanner@@@std@@@std@@@std@@QBEPAPAU_Iterator_base12@2@XZ ; std::_List_alloc<std::_List_base_types<Raven_PathPlanner *,std::allocator<Raven_PathPlanner *> > >::_Getpfirst
PUBLIC	?_Buynode0@?$_List_alloc@U?$_List_base_types@PAVRaven_PathPlanner@@V?$allocator@PAVRaven_PathPlanner@@@std@@@std@@@std@@QAEPAU?$_List_node@PAVRaven_PathPlanner@@PAX@2@PAU32@0@Z ; std::_List_alloc<std::_List_base_types<Raven_PathPlanner *,std::allocator<Raven_PathPlanner *> > >::_Buynode0
PUBLIC	?_Getal@?$_List_alloc@U?$_List_base_types@PAVRaven_PathPlanner@@V?$allocator@PAVRaven_PathPlanner@@@std@@@std@@@std@@QAEAAV?$allocator@U?$_List_node@PAVRaven_PathPlanner@@PAX@std@@@2@XZ ; std::_List_alloc<std::_List_base_types<Raven_PathPlanner *,std::allocator<Raven_PathPlanner *> > >::_Getal
PUBLIC	?_Getal@?$_List_alloc@U?$_List_base_types@PAVRaven_PathPlanner@@V?$allocator@PAVRaven_PathPlanner@@@std@@@std@@@std@@QBEABV?$allocator@U?$_List_node@PAVRaven_PathPlanner@@PAX@std@@@2@XZ ; std::_List_alloc<std::_List_base_types<Raven_PathPlanner *,std::allocator<Raven_PathPlanner *> > >::_Getal
PUBLIC	?_Get_data@?$_List_alloc@U?$_List_base_types@PAVRaven_PathPlanner@@V?$allocator@PAVRaven_PathPlanner@@@std@@@std@@@std@@QAEAAV?$_List_val@U?$_List_simple_types@PAVRaven_PathPlanner@@@std@@@2@XZ ; std::_List_alloc<std::_List_base_types<Raven_PathPlanner *,std::allocator<Raven_PathPlanner *> > >::_Get_data
PUBLIC	?_Get_data@?$_List_alloc@U?$_List_base_types@PAVRaven_PathPlanner@@V?$allocator@PAVRaven_PathPlanner@@@std@@@std@@@std@@QBEABV?$_List_val@U?$_List_simple_types@PAVRaven_PathPlanner@@@std@@@2@XZ ; std::_List_alloc<std::_List_base_types<Raven_PathPlanner *,std::allocator<Raven_PathPlanner *> > >::_Get_data
PUBLIC	?_Myhead@?$_List_alloc@U?$_List_base_types@PAVRaven_PathPlanner@@V?$allocator@PAVRaven_PathPlanner@@@std@@@std@@@std@@QAEAAPAU?$_List_node@PAVRaven_PathPlanner@@PAX@2@XZ ; std::_List_alloc<std::_List_base_types<Raven_PathPlanner *,std::allocator<Raven_PathPlanner *> > >::_Myhead
PUBLIC	?_Mysize@?$_List_alloc@U?$_List_base_types@PAVRaven_PathPlanner@@V?$allocator@PAVRaven_PathPlanner@@@std@@@std@@@std@@QAEAAIXZ ; std::_List_alloc<std::_List_base_types<Raven_PathPlanner *,std::allocator<Raven_PathPlanner *> > >::_Mysize
PUBLIC	?_Get_first@?$_Compressed_pair@V?$allocator@U?$_List_node@PAVRaven_PathPlanner@@PAX@std@@@std@@V?$_List_val@U?$_List_simple_types@PAVRaven_PathPlanner@@@std@@@2@$00@std@@QAEAAV?$allocator@U?$_List_node@PAVRaven_PathPlanner@@PAX@std@@@2@XZ ; std::_Compressed_pair<std::allocator<std::_List_node<Raven_PathPlanner *,void *> >,std::_List_val<std::_List_simple_types<Raven_PathPlanner *> >,1>::_Get_first
PUBLIC	?_Get_first@?$_Compressed_pair@V?$allocator@U?$_List_node@PAVRaven_PathPlanner@@PAX@std@@@std@@V?$_List_val@U?$_List_simple_types@PAVRaven_PathPlanner@@@std@@@2@$00@std@@QBEABV?$allocator@U?$_List_node@PAVRaven_PathPlanner@@PAX@std@@@2@XZ ; std::_Compressed_pair<std::allocator<std::_List_node<Raven_PathPlanner *,void *> >,std::_List_val<std::_List_simple_types<Raven_PathPlanner *> >,1>::_Get_first
PUBLIC	?_Get_second@?$_Compressed_pair@V?$allocator@U?$_List_node@PAVRaven_PathPlanner@@PAX@std@@@std@@V?$_List_val@U?$_List_simple_types@PAVRaven_PathPlanner@@@std@@@2@$00@std@@QAEAAV?$_List_val@U?$_List_simple_types@PAVRaven_PathPlanner@@@std@@@2@XZ ; std::_Compressed_pair<std::allocator<std::_List_node<Raven_PathPlanner *,void *> >,std::_List_val<std::_List_simple_types<Raven_PathPlanner *> >,1>::_Get_second
PUBLIC	?_Get_second@?$_Compressed_pair@V?$allocator@U?$_List_node@PAVRaven_PathPlanner@@PAX@std@@@std@@V?$_List_val@U?$_List_simple_types@PAVRaven_PathPlanner@@@std@@@2@$00@std@@QBEABV?$_List_val@U?$_List_simple_types@PAVRaven_PathPlanner@@@std@@@2@XZ ; std::_Compressed_pair<std::allocator<std::_List_node<Raven_PathPlanner *,void *> >,std::_List_val<std::_List_simple_types<Raven_PathPlanner *> >,1>::_Get_second
PUBLIC	?_Freenode@?$_List_buy@PAVRaven_PathPlanner@@V?$allocator@PAVRaven_PathPlanner@@@std@@@std@@QAEXPAU?$_List_node@PAVRaven_PathPlanner@@PAX@2@@Z ; std::_List_buy<Raven_PathPlanner *,std::allocator<Raven_PathPlanner *> >::_Freenode
PUBLIC	?begin@?$list@PAVRaven_PathPlanner@@V?$allocator@PAVRaven_PathPlanner@@@std@@@std@@QAE?AV?$_List_iterator@V?$_List_val@U?$_List_simple_types@PAVRaven_PathPlanner@@@std@@@std@@@2@XZ ; std::list<Raven_PathPlanner *,std::allocator<Raven_PathPlanner *> >::begin
PUBLIC	?end@?$list@PAVRaven_PathPlanner@@V?$allocator@PAVRaven_PathPlanner@@@std@@@std@@QAE?AV?$_List_iterator@V?$_List_val@U?$_List_simple_types@PAVRaven_PathPlanner@@@std@@@std@@@2@XZ ; std::list<Raven_PathPlanner *,std::allocator<Raven_PathPlanner *> >::end
PUBLIC	?_Unchecked_end@?$list@PAVRaven_PathPlanner@@V?$allocator@PAVRaven_PathPlanner@@@std@@@std@@QAE?AV?$_List_unchecked_iterator@V?$_List_val@U?$_List_simple_types@PAVRaven_PathPlanner@@@std@@@std@@@2@XZ ; std::list<Raven_PathPlanner *,std::allocator<Raven_PathPlanner *> >::_Unchecked_end
PUBLIC	?_Make_iter@?$list@PAVRaven_PathPlanner@@V?$allocator@PAVRaven_PathPlanner@@@std@@@std@@QBE?AV?$_List_iterator@V?$_List_val@U?$_List_simple_types@PAVRaven_PathPlanner@@@std@@@std@@@2@V?$_List_const_iterator@V?$_List_val@U?$_List_simple_types@PAVRaven_PathPlanner@@@std@@@std@@@2@@Z ; std::list<Raven_PathPlanner *,std::allocator<Raven_PathPlanner *> >::_Make_iter
PUBLIC	?max_size@?$list@PAVRaven_PathPlanner@@V?$allocator@PAVRaven_PathPlanner@@@std@@@std@@QBEIXZ ; std::list<Raven_PathPlanner *,std::allocator<Raven_PathPlanner *> >::max_size
PUBLIC	?push_back@?$list@PAVRaven_PathPlanner@@V?$allocator@PAVRaven_PathPlanner@@@std@@@std@@QAEXABQAVRaven_PathPlanner@@@Z ; std::list<Raven_PathPlanner *,std::allocator<Raven_PathPlanner *> >::push_back
PUBLIC	?_Unlinknode@?$list@PAVRaven_PathPlanner@@V?$allocator@PAVRaven_PathPlanner@@@std@@@std@@QAEPAU?$_List_node@PAVRaven_PathPlanner@@PAX@2@V?$_List_const_iterator@V?$_List_val@U?$_List_simple_types@PAVRaven_PathPlanner@@@std@@@std@@@2@@Z ; std::list<Raven_PathPlanner *,std::allocator<Raven_PathPlanner *> >::_Unlinknode
PUBLIC	?erase@?$list@PAVRaven_PathPlanner@@V?$allocator@PAVRaven_PathPlanner@@@std@@@std@@QAE?AV?$_List_iterator@V?$_List_val@U?$_List_simple_types@PAVRaven_PathPlanner@@@std@@@std@@@2@V?$_List_const_iterator@V?$_List_val@U?$_List_simple_types@PAVRaven_PathPlanner@@@std@@@std@@@2@@Z ; std::list<Raven_PathPlanner *,std::allocator<Raven_PathPlanner *> >::erase
PUBLIC	?remove@?$list@PAVRaven_PathPlanner@@V?$allocator@PAVRaven_PathPlanner@@@std@@@std@@QAEXABQAVRaven_PathPlanner@@@Z ; std::list<Raven_PathPlanner *,std::allocator<Raven_PathPlanner *> >::remove
PUBLIC	?_Incsize@?$list@PAVRaven_PathPlanner@@V?$allocator@PAVRaven_PathPlanner@@@std@@@std@@QAEXI@Z ; std::list<Raven_PathPlanner *,std::allocator<Raven_PathPlanner *> >::_Incsize
PUBLIC	?_Orphan_ptr@?$list@PAVRaven_PathPlanner@@V?$allocator@PAVRaven_PathPlanner@@@std@@@std@@QAEXPAU?$_List_node@PAVRaven_PathPlanner@@PAX@2@@Z ; std::list<Raven_PathPlanner *,std::allocator<Raven_PathPlanner *> >::_Orphan_ptr
PUBLIC	?Register@?$PathManager@VRaven_PathPlanner@@@@QAEXPAVRaven_PathPlanner@@@Z ; PathManager<Raven_PathPlanner>::Register
PUBLIC	?UnRegister@?$PathManager@VRaven_PathPlanner@@@@QAEXPAVRaven_PathPlanner@@@Z ; PathManager<Raven_PathPlanner>::UnRegister
PUBLIC	??0?$Graph_SearchTimeSliced@VNavGraphEdge@@@@QAE@W4SearchType@0@@Z ; Graph_SearchTimeSliced<NavGraphEdge>::Graph_SearchTimeSliced<NavGraphEdge>
PUBLIC	??1?$Graph_SearchTimeSliced@VNavGraphEdge@@@@UAE@XZ ; Graph_SearchTimeSliced<NavGraphEdge>::~Graph_SearchTimeSliced<NavGraphEdge>
PUBLIC	?GetType@?$Graph_SearchTimeSliced@VNavGraphEdge@@@@QBE?AW4SearchType@1@XZ ; Graph_SearchTimeSliced<NavGraphEdge>::GetType
PUBLIC	??_G?$Graph_SearchTimeSliced@VNavGraphEdge@@@@UAEPAXI@Z ; Graph_SearchTimeSliced<NavGraphEdge>::`scalar deleting destructor'
PUBLIC	?Pos@?$NavGraphNode@PAV?$Trigger@VRaven_Bot@@@@@@QBE?AUVector2D@@XZ ; NavGraphNode<Trigger<Raven_Bot> *>::Pos
PUBLIC	?ExtraInfo@?$NavGraphNode@PAV?$Trigger@VRaven_Bot@@@@@@QBEPAV?$Trigger@VRaven_Bot@@@@XZ ; NavGraphNode<Trigger<Raven_Bot> *>::ExtraInfo
PUBLIC	??0?$_List_unchecked_const_iterator@V?$_List_val@U?$_List_simple_types@PAV?$Trigger@VRaven_Bot@@@@@std@@@std@@U_Iterator_base12@2@@std@@QAE@XZ ; std::_List_unchecked_const_iterator<std::_List_val<std::_List_simple_types<Trigger<Raven_Bot> *> >,std::_Iterator_base12>::_List_unchecked_const_iterator<std::_List_val<std::_List_simple_types<Trigger<Raven_Bot> *> >,std::_Iterator_base12>
PUBLIC	??0?$_List_unchecked_const_iterator@V?$_List_val@U?$_List_simple_types@PAV?$Trigger@VRaven_Bot@@@@@std@@@std@@U_Iterator_base12@2@@std@@QAE@PAU?$_List_node@PAV?$Trigger@VRaven_Bot@@@@PAX@1@PBV?$_List_val@U?$_List_simple_types@PAV?$Trigger@VRaven_Bot@@@@@std@@@1@@Z ; std::_List_unchecked_const_iterator<std::_List_val<std::_List_simple_types<Trigger<Raven_Bot> *> >,std::_Iterator_base12>::_List_unchecked_const_iterator<std::_List_val<std::_List_simple_types<Trigger<Raven_Bot> *> >,std::_Iterator_base12>
PUBLIC	??1?$_List_unchecked_const_iterator@V?$_List_val@U?$_List_simple_types@PAV?$Trigger@VRaven_Bot@@@@@std@@@std@@U_Iterator_base12@2@@std@@QAE@XZ ; std::_List_unchecked_const_iterator<std::_List_val<std::_List_simple_types<Trigger<Raven_Bot> *> >,std::_Iterator_base12>::~_List_unchecked_const_iterator<std::_List_val<std::_List_simple_types<Trigger<Raven_Bot> *> >,std::_Iterator_base12>
PUBLIC	??4?$_List_unchecked_const_iterator@V?$_List_val@U?$_List_simple_types@PAV?$Trigger@VRaven_Bot@@@@@std@@@std@@U_Iterator_base12@2@@std@@QAEAAV01@$$QAV01@@Z ; std::_List_unchecked_const_iterator<std::_List_val<std::_List_simple_types<Trigger<Raven_Bot> *> >,std::_Iterator_base12>::operator=
PUBLIC	??0?$_List_const_iterator@V?$_List_val@U?$_List_simple_types@PAV?$Trigger@VRaven_Bot@@@@@std@@@std@@@std@@QAE@XZ ; std::_List_const_iterator<std::_List_val<std::_List_simple_types<Trigger<Raven_Bot> *> > >::_List_const_iterator<std::_List_val<std::_List_simple_types<Trigger<Raven_Bot> *> > >
PUBLIC	??0?$_List_const_iterator@V?$_List_val@U?$_List_simple_types@PAV?$Trigger@VRaven_Bot@@@@@std@@@std@@@std@@QAE@PAU?$_List_node@PAV?$Trigger@VRaven_Bot@@@@PAX@1@PBV?$_List_val@U?$_List_simple_types@PAV?$Trigger@VRaven_Bot@@@@@std@@@1@@Z ; std::_List_const_iterator<std::_List_val<std::_List_simple_types<Trigger<Raven_Bot> *> > >::_List_const_iterator<std::_List_val<std::_List_simple_types<Trigger<Raven_Bot> *> > >
PUBLIC	??D?$_List_const_iterator@V?$_List_val@U?$_List_simple_types@PAV?$Trigger@VRaven_Bot@@@@@std@@@std@@@std@@QBEABQAV?$Trigger@VRaven_Bot@@@@XZ ; std::_List_const_iterator<std::_List_val<std::_List_simple_types<Trigger<Raven_Bot> *> > >::operator*
PUBLIC	??E?$_List_const_iterator@V?$_List_val@U?$_List_simple_types@PAV?$Trigger@VRaven_Bot@@@@@std@@@std@@@std@@QAEAAV01@XZ ; std::_List_const_iterator<std::_List_val<std::_List_simple_types<Trigger<Raven_Bot> *> > >::operator++
PUBLIC	??8?$_List_const_iterator@V?$_List_val@U?$_List_simple_types@PAV?$Trigger@VRaven_Bot@@@@@std@@@std@@@std@@QBE_NABV01@@Z ; std::_List_const_iterator<std::_List_val<std::_List_simple_types<Trigger<Raven_Bot> *> > >::operator==
PUBLIC	??9?$_List_const_iterator@V?$_List_val@U?$_List_simple_types@PAV?$Trigger@VRaven_Bot@@@@@std@@@std@@@std@@QBE_NABV01@@Z ; std::_List_const_iterator<std::_List_val<std::_List_simple_types<Trigger<Raven_Bot> *> > >::operator!=
PUBLIC	??1?$_List_const_iterator@V?$_List_val@U?$_List_simple_types@PAV?$Trigger@VRaven_Bot@@@@@std@@@std@@@std@@QAE@XZ ; std::_List_const_iterator<std::_List_val<std::_List_simple_types<Trigger<Raven_Bot> *> > >::~_List_const_iterator<std::_List_val<std::_List_simple_types<Trigger<Raven_Bot> *> > >
PUBLIC	??4?$_List_const_iterator@V?$_List_val@U?$_List_simple_types@PAV?$Trigger@VRaven_Bot@@@@@std@@@std@@@std@@QAEAAV01@$$QAV01@@Z ; std::_List_const_iterator<std::_List_val<std::_List_simple_types<Trigger<Raven_Bot> *> > >::operator=
PUBLIC	?GraphNodeIndex@?$Trigger@VRaven_Bot@@@@QBEHXZ	; Trigger<Raven_Bot>::GraphNodeIndex
PUBLIC	?isActive@?$Trigger@VRaven_Bot@@@@QAE_NXZ	; Trigger<Raven_Bot>::isActive
PUBLIC	??0?$allocator@U?$_List_node@VPathEdge@@PAX@std@@@std@@QAE@XZ ; std::allocator<std::_List_node<PathEdge,void *> >::allocator<std::_List_node<PathEdge,void *> >
PUBLIC	?deallocate@?$allocator@U?$_List_node@VPathEdge@@PAX@std@@@std@@QAEXQAU?$_List_node@VPathEdge@@PAX@2@I@Z ; std::allocator<std::_List_node<PathEdge,void *> >::deallocate
PUBLIC	?allocate@?$allocator@U?$_List_node@VPathEdge@@PAX@std@@@std@@QAEPAU?$_List_node@VPathEdge@@PAX@2@I@Z ; std::allocator<std::_List_node<PathEdge,void *> >::allocate
PUBLIC	?deallocate@?$_Default_allocator_traits@V?$allocator@U?$_List_node@VPathEdge@@PAX@std@@@std@@@std@@SAXAAV?$allocator@U?$_List_node@VPathEdge@@PAX@std@@@2@QAU?$_List_node@VPathEdge@@PAX@2@I@Z ; std::_Default_allocator_traits<std::allocator<std::_List_node<PathEdge,void *> > >::deallocate
PUBLIC	?max_size@?$_Default_allocator_traits@V?$allocator@U?$_List_node@VPathEdge@@PAX@std@@@std@@@std@@SAIABV?$allocator@U?$_List_node@VPathEdge@@PAX@std@@@2@@Z ; std::_Default_allocator_traits<std::allocator<std::_List_node<PathEdge,void *> > >::max_size
PUBLIC	??0?$_List_alloc@U?$_List_base_types@VPathEdge@@V?$allocator@VPathEdge@@@std@@@std@@@std@@QAE@XZ ; std::_List_alloc<std::_List_base_types<PathEdge,std::allocator<PathEdge> > >::_List_alloc<std::_List_base_types<PathEdge,std::allocator<PathEdge> > >
PUBLIC	??1?$_List_alloc@U?$_List_base_types@VPathEdge@@V?$allocator@VPathEdge@@@std@@@std@@@std@@QAE@XZ ; std::_List_alloc<std::_List_base_types<PathEdge,std::allocator<PathEdge> > >::~_List_alloc<std::_List_base_types<PathEdge,std::allocator<PathEdge> > >
PUBLIC	?_Alloc_proxy@?$_List_alloc@U?$_List_base_types@VPathEdge@@V?$allocator@VPathEdge@@@std@@@std@@@std@@QAEXXZ ; std::_List_alloc<std::_List_base_types<PathEdge,std::allocator<PathEdge> > >::_Alloc_proxy
PUBLIC	?_Free_proxy@?$_List_alloc@U?$_List_base_types@VPathEdge@@V?$allocator@VPathEdge@@@std@@@std@@@std@@QAEXXZ ; std::_List_alloc<std::_List_base_types<PathEdge,std::allocator<PathEdge> > >::_Free_proxy
PUBLIC	?_Getpfirst@?$_List_alloc@U?$_List_base_types@VPathEdge@@V?$allocator@VPathEdge@@@std@@@std@@@std@@QBEPAPAU_Iterator_base12@2@XZ ; std::_List_alloc<std::_List_base_types<PathEdge,std::allocator<PathEdge> > >::_Getpfirst
PUBLIC	?_Myproxy@?$_List_alloc@U?$_List_base_types@VPathEdge@@V?$allocator@VPathEdge@@@std@@@std@@@std@@QAEAAPAU_Container_proxy@2@XZ ; std::_List_alloc<std::_List_base_types<PathEdge,std::allocator<PathEdge> > >::_Myproxy
PUBLIC	?_Buyheadnode@?$_List_alloc@U?$_List_base_types@VPathEdge@@V?$allocator@VPathEdge@@@std@@@std@@@std@@QAEPAU?$_List_node@VPathEdge@@PAX@2@XZ ; std::_List_alloc<std::_List_base_types<PathEdge,std::allocator<PathEdge> > >::_Buyheadnode
PUBLIC	?_Freeheadnode@?$_List_alloc@U?$_List_base_types@VPathEdge@@V?$allocator@VPathEdge@@@std@@@std@@@std@@QAEXPAU?$_List_node@VPathEdge@@PAX@2@@Z ; std::_List_alloc<std::_List_base_types<PathEdge,std::allocator<PathEdge> > >::_Freeheadnode
PUBLIC	?_Buynode0@?$_List_alloc@U?$_List_base_types@VPathEdge@@V?$allocator@VPathEdge@@@std@@@std@@@std@@QAEPAU?$_List_node@VPathEdge@@PAX@2@PAU32@0@Z ; std::_List_alloc<std::_List_base_types<PathEdge,std::allocator<PathEdge> > >::_Buynode0
PUBLIC	?_Orphan_all@?$_List_alloc@U?$_List_base_types@VPathEdge@@V?$allocator@VPathEdge@@@std@@@std@@@std@@QAEXXZ ; std::_List_alloc<std::_List_base_types<PathEdge,std::allocator<PathEdge> > >::_Orphan_all
PUBLIC	?_Swap_all@?$_List_alloc@U?$_List_base_types@VPathEdge@@V?$allocator@VPathEdge@@@std@@@std@@@std@@QAEXAAV12@@Z ; std::_List_alloc<std::_List_base_types<PathEdge,std::allocator<PathEdge> > >::_Swap_all
PUBLIC	?_Getal@?$_List_alloc@U?$_List_base_types@VPathEdge@@V?$allocator@VPathEdge@@@std@@@std@@@std@@QAEAAV?$allocator@U?$_List_node@VPathEdge@@PAX@std@@@2@XZ ; std::_List_alloc<std::_List_base_types<PathEdge,std::allocator<PathEdge> > >::_Getal
PUBLIC	?_Getal@?$_List_alloc@U?$_List_base_types@VPathEdge@@V?$allocator@VPathEdge@@@std@@@std@@@std@@QBEABV?$allocator@U?$_List_node@VPathEdge@@PAX@std@@@2@XZ ; std::_List_alloc<std::_List_base_types<PathEdge,std::allocator<PathEdge> > >::_Getal
PUBLIC	?_Get_data@?$_List_alloc@U?$_List_base_types@VPathEdge@@V?$allocator@VPathEdge@@@std@@@std@@@std@@QAEAAV?$_List_val@U?$_List_simple_types@VPathEdge@@@std@@@2@XZ ; std::_List_alloc<std::_List_base_types<PathEdge,std::allocator<PathEdge> > >::_Get_data
PUBLIC	?_Get_data@?$_List_alloc@U?$_List_base_types@VPathEdge@@V?$allocator@VPathEdge@@@std@@@std@@@std@@QBEABV?$_List_val@U?$_List_simple_types@VPathEdge@@@std@@@2@XZ ; std::_List_alloc<std::_List_base_types<PathEdge,std::allocator<PathEdge> > >::_Get_data
PUBLIC	?_Myhead@?$_List_alloc@U?$_List_base_types@VPathEdge@@V?$allocator@VPathEdge@@@std@@@std@@@std@@QAEAAPAU?$_List_node@VPathEdge@@PAX@2@XZ ; std::_List_alloc<std::_List_base_types<PathEdge,std::allocator<PathEdge> > >::_Myhead
PUBLIC	?_Mysize@?$_List_alloc@U?$_List_base_types@VPathEdge@@V?$allocator@VPathEdge@@@std@@@std@@@std@@QAEAAIXZ ; std::_List_alloc<std::_List_base_types<PathEdge,std::allocator<PathEdge> > >::_Mysize
PUBLIC	??0?$_List_val@U?$_List_simple_types@VPathEdge@@@std@@@std@@QAE@XZ ; std::_List_val<std::_List_simple_types<PathEdge> >::_List_val<std::_List_simple_types<PathEdge> >
PUBLIC	?_Get_first@?$_Compressed_pair@V?$allocator@U?$_List_node@VPathEdge@@PAX@std@@@std@@V?$_List_val@U?$_List_simple_types@VPathEdge@@@std@@@2@$00@std@@QAEAAV?$allocator@U?$_List_node@VPathEdge@@PAX@std@@@2@XZ ; std::_Compressed_pair<std::allocator<std::_List_node<PathEdge,void *> >,std::_List_val<std::_List_simple_types<PathEdge> >,1>::_Get_first
PUBLIC	?_Get_first@?$_Compressed_pair@V?$allocator@U?$_List_node@VPathEdge@@PAX@std@@@std@@V?$_List_val@U?$_List_simple_types@VPathEdge@@@std@@@2@$00@std@@QBEABV?$allocator@U?$_List_node@VPathEdge@@PAX@std@@@2@XZ ; std::_Compressed_pair<std::allocator<std::_List_node<PathEdge,void *> >,std::_List_val<std::_List_simple_types<PathEdge> >,1>::_Get_first
PUBLIC	?_Get_second@?$_Compressed_pair@V?$allocator@U?$_List_node@VPathEdge@@PAX@std@@@std@@V?$_List_val@U?$_List_simple_types@VPathEdge@@@std@@@2@$00@std@@QAEAAV?$_List_val@U?$_List_simple_types@VPathEdge@@@std@@@2@XZ ; std::_Compressed_pair<std::allocator<std::_List_node<PathEdge,void *> >,std::_List_val<std::_List_simple_types<PathEdge> >,1>::_Get_second
PUBLIC	?_Get_second@?$_Compressed_pair@V?$allocator@U?$_List_node@VPathEdge@@PAX@std@@@std@@V?$_List_val@U?$_List_simple_types@VPathEdge@@@std@@@2@$00@std@@QBEABV?$_List_val@U?$_List_simple_types@VPathEdge@@@std@@@2@XZ ; std::_Compressed_pair<std::allocator<std::_List_node<PathEdge,void *> >,std::_List_val<std::_List_simple_types<PathEdge> >,1>::_Get_second
PUBLIC	??0?$_List_buy@VPathEdge@@V?$allocator@VPathEdge@@@std@@@std@@QAE@XZ ; std::_List_buy<PathEdge,std::allocator<PathEdge> >::_List_buy<PathEdge,std::allocator<PathEdge> >
PUBLIC	?_Freenode@?$_List_buy@VPathEdge@@V?$allocator@VPathEdge@@@std@@@std@@QAEXPAU?$_List_node@VPathEdge@@PAX@2@@Z ; std::_List_buy<PathEdge,std::allocator<PathEdge> >::_Freenode
PUBLIC	??1?$_List_buy@VPathEdge@@V?$allocator@VPathEdge@@@std@@@std@@QAE@XZ ; std::_List_buy<PathEdge,std::allocator<PathEdge> >::~_List_buy<PathEdge,std::allocator<PathEdge> >
PUBLIC	??0?$list@VPathEdge@@V?$allocator@VPathEdge@@@std@@@std@@QAE@XZ ; std::list<PathEdge,std::allocator<PathEdge> >::list<PathEdge,std::allocator<PathEdge> >
PUBLIC	??0?$list@VPathEdge@@V?$allocator@VPathEdge@@@std@@@std@@QAE@$$QAV01@@Z ; std::list<PathEdge,std::allocator<PathEdge> >::list<PathEdge,std::allocator<PathEdge> >
PUBLIC	?_Assign_rv@?$list@VPathEdge@@V?$allocator@VPathEdge@@@std@@@std@@QAEX$$QAV12@U?$integral_constant@_N$00@2@@Z ; std::list<PathEdge,std::allocator<PathEdge> >::_Assign_rv
PUBLIC	?push_front@?$list@VPathEdge@@V?$allocator@VPathEdge@@@std@@@std@@QAEX$$QAVPathEdge@@@Z ; std::list<PathEdge,std::allocator<PathEdge> >::push_front
PUBLIC	?push_back@?$list@VPathEdge@@V?$allocator@VPathEdge@@@std@@@std@@QAEX$$QAVPathEdge@@@Z ; std::list<PathEdge,std::allocator<PathEdge> >::push_back
PUBLIC	??1?$list@VPathEdge@@V?$allocator@VPathEdge@@@std@@@std@@QAE@XZ ; std::list<PathEdge,std::allocator<PathEdge> >::~list<PathEdge,std::allocator<PathEdge> >
PUBLIC	?begin@?$list@VPathEdge@@V?$allocator@VPathEdge@@@std@@@std@@QAE?AV?$_List_iterator@V?$_List_val@U?$_List_simple_types@VPathEdge@@@std@@@std@@@2@XZ ; std::list<PathEdge,std::allocator<PathEdge> >::begin
PUBLIC	?end@?$list@VPathEdge@@V?$allocator@VPathEdge@@@std@@@std@@QAE?AV?$_List_iterator@V?$_List_val@U?$_List_simple_types@VPathEdge@@@std@@@std@@@2@XZ ; std::list<PathEdge,std::allocator<PathEdge> >::end
PUBLIC	?_Unchecked_begin@?$list@VPathEdge@@V?$allocator@VPathEdge@@@std@@@std@@QAE?AV?$_List_unchecked_iterator@V?$_List_val@U?$_List_simple_types@VPathEdge@@@std@@@std@@@2@XZ ; std::list<PathEdge,std::allocator<PathEdge> >::_Unchecked_begin
PUBLIC	?_Unchecked_end@?$list@VPathEdge@@V?$allocator@VPathEdge@@@std@@@std@@QAE?AV?$_List_unchecked_iterator@V?$_List_val@U?$_List_simple_types@VPathEdge@@@std@@@std@@@2@XZ ; std::list<PathEdge,std::allocator<PathEdge> >::_Unchecked_end
PUBLIC	?_Make_iter@?$list@VPathEdge@@V?$allocator@VPathEdge@@@std@@@std@@QBE?AV?$_List_iterator@V?$_List_val@U?$_List_simple_types@VPathEdge@@@std@@@std@@@2@V?$_List_const_iterator@V?$_List_val@U?$_List_simple_types@VPathEdge@@@std@@@std@@@2@@Z ; std::list<PathEdge,std::allocator<PathEdge> >::_Make_iter
PUBLIC	?max_size@?$list@VPathEdge@@V?$allocator@VPathEdge@@@std@@@std@@QBEIXZ ; std::list<PathEdge,std::allocator<PathEdge> >::max_size
PUBLIC	?back@?$list@VPathEdge@@V?$allocator@VPathEdge@@@std@@@std@@QAEAAVPathEdge@@XZ ; std::list<PathEdge,std::allocator<PathEdge> >::back
PUBLIC	?_Unlinknode@?$list@VPathEdge@@V?$allocator@VPathEdge@@@std@@@std@@QAEPAU?$_List_node@VPathEdge@@PAX@2@V?$_List_const_iterator@V?$_List_val@U?$_List_simple_types@VPathEdge@@@std@@@std@@@2@@Z ; std::list<PathEdge,std::allocator<PathEdge> >::_Unlinknode
PUBLIC	?erase@?$list@VPathEdge@@V?$allocator@VPathEdge@@@std@@@std@@QAE?AV?$_List_iterator@V?$_List_val@U?$_List_simple_types@VPathEdge@@@std@@@std@@@2@V?$_List_const_iterator@V?$_List_val@U?$_List_simple_types@VPathEdge@@@std@@@std@@@2@@Z ; std::list<PathEdge,std::allocator<PathEdge> >::erase
PUBLIC	?erase@?$list@VPathEdge@@V?$allocator@VPathEdge@@@std@@@std@@QAE?AV?$_List_iterator@V?$_List_val@U?$_List_simple_types@VPathEdge@@@std@@@std@@@2@V?$_List_const_iterator@V?$_List_val@U?$_List_simple_types@VPathEdge@@@std@@@std@@@2@0@Z ; std::list<PathEdge,std::allocator<PathEdge> >::erase
PUBLIC	?clear@?$list@VPathEdge@@V?$allocator@VPathEdge@@@std@@@std@@QAEXXZ ; std::list<PathEdge,std::allocator<PathEdge> >::clear
PUBLIC	?_Tidy@?$list@VPathEdge@@V?$allocator@VPathEdge@@@std@@@std@@QAEXXZ ; std::list<PathEdge,std::allocator<PathEdge> >::_Tidy
PUBLIC	?_Incsize@?$list@VPathEdge@@V?$allocator@VPathEdge@@@std@@@std@@QAEXI@Z ; std::list<PathEdge,std::allocator<PathEdge> >::_Incsize
PUBLIC	?_Orphan_ptr@?$list@VPathEdge@@V?$allocator@VPathEdge@@@std@@@std@@QAEXPAU?$_List_node@VPathEdge@@PAX@2@@Z ; std::list<PathEdge,std::allocator<PathEdge> >::_Orphan_ptr
PUBLIC	??0?$_List_unchecked_const_iterator@V?$_List_val@U?$_List_simple_types@VPathEdge@@@std@@@std@@U_Iterator_base12@2@@std@@QAE@XZ ; std::_List_unchecked_const_iterator<std::_List_val<std::_List_simple_types<PathEdge> >,std::_Iterator_base12>::_List_unchecked_const_iterator<std::_List_val<std::_List_simple_types<PathEdge> >,std::_Iterator_base12>
PUBLIC	??0?$_List_unchecked_const_iterator@V?$_List_val@U?$_List_simple_types@VPathEdge@@@std@@@std@@U_Iterator_base12@2@@std@@QAE@PAU?$_List_node@VPathEdge@@PAX@1@PBV?$_List_val@U?$_List_simple_types@VPathEdge@@@std@@@1@@Z ; std::_List_unchecked_const_iterator<std::_List_val<std::_List_simple_types<PathEdge> >,std::_Iterator_base12>::_List_unchecked_const_iterator<std::_List_val<std::_List_simple_types<PathEdge> >,std::_Iterator_base12>
PUBLIC	??1?$_List_unchecked_const_iterator@V?$_List_val@U?$_List_simple_types@VPathEdge@@@std@@@std@@U_Iterator_base12@2@@std@@QAE@XZ ; std::_List_unchecked_const_iterator<std::_List_val<std::_List_simple_types<PathEdge> >,std::_Iterator_base12>::~_List_unchecked_const_iterator<std::_List_val<std::_List_simple_types<PathEdge> >,std::_Iterator_base12>
PUBLIC	??0?$_List_unchecked_const_iterator@V?$_List_val@U?$_List_simple_types@VPathEdge@@@std@@@std@@U_Iterator_base12@2@@std@@QAE@ABV01@@Z ; std::_List_unchecked_const_iterator<std::_List_val<std::_List_simple_types<PathEdge> >,std::_Iterator_base12>::_List_unchecked_const_iterator<std::_List_val<std::_List_simple_types<PathEdge> >,std::_Iterator_base12>
PUBLIC	??0?$_List_unchecked_const_iterator@V?$_List_val@U?$_List_simple_types@VPathEdge@@@std@@@std@@U_Iterator_base12@2@@std@@QAE@$$QAV01@@Z ; std::_List_unchecked_const_iterator<std::_List_val<std::_List_simple_types<PathEdge> >,std::_Iterator_base12>::_List_unchecked_const_iterator<std::_List_val<std::_List_simple_types<PathEdge> >,std::_Iterator_base12>
PUBLIC	??4?$_List_unchecked_const_iterator@V?$_List_val@U?$_List_simple_types@VPathEdge@@@std@@@std@@U_Iterator_base12@2@@std@@QAEAAV01@ABV01@@Z ; std::_List_unchecked_const_iterator<std::_List_val<std::_List_simple_types<PathEdge> >,std::_Iterator_base12>::operator=
PUBLIC	??4?$_List_unchecked_const_iterator@V?$_List_val@U?$_List_simple_types@VPathEdge@@@std@@@std@@U_Iterator_base12@2@@std@@QAEAAV01@$$QAV01@@Z ; std::_List_unchecked_const_iterator<std::_List_val<std::_List_simple_types<PathEdge> >,std::_Iterator_base12>::operator=
PUBLIC	??0?$_List_const_iterator@V?$_List_val@U?$_List_simple_types@VPathEdge@@@std@@@std@@@std@@QAE@XZ ; std::_List_const_iterator<std::_List_val<std::_List_simple_types<PathEdge> > >::_List_const_iterator<std::_List_val<std::_List_simple_types<PathEdge> > >
PUBLIC	??0?$_List_const_iterator@V?$_List_val@U?$_List_simple_types@VPathEdge@@@std@@@std@@@std@@QAE@PAU?$_List_node@VPathEdge@@PAX@1@PBV?$_List_val@U?$_List_simple_types@VPathEdge@@@std@@@1@@Z ; std::_List_const_iterator<std::_List_val<std::_List_simple_types<PathEdge> > >::_List_const_iterator<std::_List_val<std::_List_simple_types<PathEdge> > >
PUBLIC	??D?$_List_const_iterator@V?$_List_val@U?$_List_simple_types@VPathEdge@@@std@@@std@@@std@@QBEABVPathEdge@@XZ ; std::_List_const_iterator<std::_List_val<std::_List_simple_types<PathEdge> > >::operator*
PUBLIC	??E?$_List_const_iterator@V?$_List_val@U?$_List_simple_types@VPathEdge@@@std@@@std@@@std@@QAEAAV01@XZ ; std::_List_const_iterator<std::_List_val<std::_List_simple_types<PathEdge> > >::operator++
PUBLIC	??E?$_List_const_iterator@V?$_List_val@U?$_List_simple_types@VPathEdge@@@std@@@std@@@std@@QAE?AV01@H@Z ; std::_List_const_iterator<std::_List_val<std::_List_simple_types<PathEdge> > >::operator++
PUBLIC	??F?$_List_const_iterator@V?$_List_val@U?$_List_simple_types@VPathEdge@@@std@@@std@@@std@@QAEAAV01@XZ ; std::_List_const_iterator<std::_List_val<std::_List_simple_types<PathEdge> > >::operator--
PUBLIC	??8?$_List_const_iterator@V?$_List_val@U?$_List_simple_types@VPathEdge@@@std@@@std@@@std@@QBE_NABV01@@Z ; std::_List_const_iterator<std::_List_val<std::_List_simple_types<PathEdge> > >::operator==
PUBLIC	??9?$_List_const_iterator@V?$_List_val@U?$_List_simple_types@VPathEdge@@@std@@@std@@@std@@QBE_NABV01@@Z ; std::_List_const_iterator<std::_List_val<std::_List_simple_types<PathEdge> > >::operator!=
PUBLIC	??1?$_List_const_iterator@V?$_List_val@U?$_List_simple_types@VPathEdge@@@std@@@std@@@std@@QAE@XZ ; std::_List_const_iterator<std::_List_val<std::_List_simple_types<PathEdge> > >::~_List_const_iterator<std::_List_val<std::_List_simple_types<PathEdge> > >
PUBLIC	??0?$_List_const_iterator@V?$_List_val@U?$_List_simple_types@VPathEdge@@@std@@@std@@@std@@QAE@ABV01@@Z ; std::_List_const_iterator<std::_List_val<std::_List_simple_types<PathEdge> > >::_List_const_iterator<std::_List_val<std::_List_simple_types<PathEdge> > >
PUBLIC	??0?$_List_const_iterator@V?$_List_val@U?$_List_simple_types@VPathEdge@@@std@@@std@@@std@@QAE@$$QAV01@@Z ; std::_List_const_iterator<std::_List_val<std::_List_simple_types<PathEdge> > >::_List_const_iterator<std::_List_val<std::_List_simple_types<PathEdge> > >
PUBLIC	??4?$_List_const_iterator@V?$_List_val@U?$_List_simple_types@VPathEdge@@@std@@@std@@@std@@QAEAAV01@ABV01@@Z ; std::_List_const_iterator<std::_List_val<std::_List_simple_types<PathEdge> > >::operator=
PUBLIC	??4?$_List_const_iterator@V?$_List_val@U?$_List_simple_types@VPathEdge@@@std@@@std@@@std@@QAEAAV01@$$QAV01@@Z ; std::_List_const_iterator<std::_List_val<std::_List_simple_types<PathEdge> > >::operator=
PUBLIC	??0?$_List_iterator@V?$_List_val@U?$_List_simple_types@VPathEdge@@@std@@@std@@@std@@QAE@XZ ; std::_List_iterator<std::_List_val<std::_List_simple_types<PathEdge> > >::_List_iterator<std::_List_val<std::_List_simple_types<PathEdge> > >
PUBLIC	??0?$_List_iterator@V?$_List_val@U?$_List_simple_types@VPathEdge@@@std@@@std@@@std@@QAE@PAU?$_List_node@VPathEdge@@PAX@1@PBV?$_List_val@U?$_List_simple_types@VPathEdge@@@std@@@1@@Z ; std::_List_iterator<std::_List_val<std::_List_simple_types<PathEdge> > >::_List_iterator<std::_List_val<std::_List_simple_types<PathEdge> > >
PUBLIC	??D?$_List_iterator@V?$_List_val@U?$_List_simple_types@VPathEdge@@@std@@@std@@@std@@QBEAAVPathEdge@@XZ ; std::_List_iterator<std::_List_val<std::_List_simple_types<PathEdge> > >::operator*
PUBLIC	??C?$_List_iterator@V?$_List_val@U?$_List_simple_types@VPathEdge@@@std@@@std@@@std@@QBEPAVPathEdge@@XZ ; std::_List_iterator<std::_List_val<std::_List_simple_types<PathEdge> > >::operator->
PUBLIC	??E?$_List_iterator@V?$_List_val@U?$_List_simple_types@VPathEdge@@@std@@@std@@@std@@QAEAAV01@XZ ; std::_List_iterator<std::_List_val<std::_List_simple_types<PathEdge> > >::operator++
PUBLIC	??F?$_List_iterator@V?$_List_val@U?$_List_simple_types@VPathEdge@@@std@@@std@@@std@@QAEAAV01@XZ ; std::_List_iterator<std::_List_val<std::_List_simple_types<PathEdge> > >::operator--
PUBLIC	??1?$_List_iterator@V?$_List_val@U?$_List_simple_types@VPathEdge@@@std@@@std@@@std@@QAE@XZ ; std::_List_iterator<std::_List_val<std::_List_simple_types<PathEdge> > >::~_List_iterator<std::_List_val<std::_List_simple_types<PathEdge> > >
PUBLIC	??4?$_List_iterator@V?$_List_val@U?$_List_simple_types@VPathEdge@@@std@@@std@@@std@@QAEAAV01@ABV01@@Z ; std::_List_iterator<std::_List_val<std::_List_simple_types<PathEdge> > >::operator=
PUBLIC	??4?$_List_iterator@V?$_List_val@U?$_List_simple_types@VPathEdge@@@std@@@std@@@std@@QAEAAV01@$$QAV01@@Z ; std::_List_iterator<std::_List_val<std::_List_simple_types<PathEdge> > >::operator=
PUBLIC	??0?$allocator@U?$_List_node@HPAX@std@@@std@@QAE@XZ ; std::allocator<std::_List_node<int,void *> >::allocator<std::_List_node<int,void *> >
PUBLIC	?deallocate@?$allocator@U?$_List_node@HPAX@std@@@std@@QAEXQAU?$_List_node@HPAX@2@I@Z ; std::allocator<std::_List_node<int,void *> >::deallocate
PUBLIC	?allocate@?$allocator@U?$_List_node@HPAX@std@@@std@@QAEPAU?$_List_node@HPAX@2@I@Z ; std::allocator<std::_List_node<int,void *> >::allocate
PUBLIC	?deallocate@?$_Default_allocator_traits@V?$allocator@U?$_List_node@HPAX@std@@@std@@@std@@SAXAAV?$allocator@U?$_List_node@HPAX@std@@@2@QAU?$_List_node@HPAX@2@I@Z ; std::_Default_allocator_traits<std::allocator<std::_List_node<int,void *> > >::deallocate
PUBLIC	?max_size@?$_Default_allocator_traits@V?$allocator@U?$_List_node@HPAX@std@@@std@@@std@@SAIABV?$allocator@U?$_List_node@HPAX@std@@@2@@Z ; std::_Default_allocator_traits<std::allocator<std::_List_node<int,void *> > >::max_size
PUBLIC	??0?$_List_alloc@U?$_List_base_types@HV?$allocator@H@std@@@std@@@std@@QAE@XZ ; std::_List_alloc<std::_List_base_types<int,std::allocator<int> > >::_List_alloc<std::_List_base_types<int,std::allocator<int> > >
PUBLIC	??1?$_List_alloc@U?$_List_base_types@HV?$allocator@H@std@@@std@@@std@@QAE@XZ ; std::_List_alloc<std::_List_base_types<int,std::allocator<int> > >::~_List_alloc<std::_List_base_types<int,std::allocator<int> > >
PUBLIC	?_Alloc_proxy@?$_List_alloc@U?$_List_base_types@HV?$allocator@H@std@@@std@@@std@@QAEXXZ ; std::_List_alloc<std::_List_base_types<int,std::allocator<int> > >::_Alloc_proxy
PUBLIC	?_Free_proxy@?$_List_alloc@U?$_List_base_types@HV?$allocator@H@std@@@std@@@std@@QAEXXZ ; std::_List_alloc<std::_List_base_types<int,std::allocator<int> > >::_Free_proxy
PUBLIC	?_Getpfirst@?$_List_alloc@U?$_List_base_types@HV?$allocator@H@std@@@std@@@std@@QBEPAPAU_Iterator_base12@2@XZ ; std::_List_alloc<std::_List_base_types<int,std::allocator<int> > >::_Getpfirst
PUBLIC	?_Myproxy@?$_List_alloc@U?$_List_base_types@HV?$allocator@H@std@@@std@@@std@@QAEAAPAU_Container_proxy@2@XZ ; std::_List_alloc<std::_List_base_types<int,std::allocator<int> > >::_Myproxy
PUBLIC	?_Buyheadnode@?$_List_alloc@U?$_List_base_types@HV?$allocator@H@std@@@std@@@std@@QAEPAU?$_List_node@HPAX@2@XZ ; std::_List_alloc<std::_List_base_types<int,std::allocator<int> > >::_Buyheadnode
PUBLIC	?_Freeheadnode@?$_List_alloc@U?$_List_base_types@HV?$allocator@H@std@@@std@@@std@@QAEXPAU?$_List_node@HPAX@2@@Z ; std::_List_alloc<std::_List_base_types<int,std::allocator<int> > >::_Freeheadnode
PUBLIC	?_Buynode0@?$_List_alloc@U?$_List_base_types@HV?$allocator@H@std@@@std@@@std@@QAEPAU?$_List_node@HPAX@2@PAU32@0@Z ; std::_List_alloc<std::_List_base_types<int,std::allocator<int> > >::_Buynode0
PUBLIC	?_Orphan_all@?$_List_alloc@U?$_List_base_types@HV?$allocator@H@std@@@std@@@std@@QAEXXZ ; std::_List_alloc<std::_List_base_types<int,std::allocator<int> > >::_Orphan_all
PUBLIC	?_Swap_all@?$_List_alloc@U?$_List_base_types@HV?$allocator@H@std@@@std@@@std@@QAEXAAV12@@Z ; std::_List_alloc<std::_List_base_types<int,std::allocator<int> > >::_Swap_all
PUBLIC	?_Getal@?$_List_alloc@U?$_List_base_types@HV?$allocator@H@std@@@std@@@std@@QAEAAV?$allocator@U?$_List_node@HPAX@std@@@2@XZ ; std::_List_alloc<std::_List_base_types<int,std::allocator<int> > >::_Getal
PUBLIC	?_Getal@?$_List_alloc@U?$_List_base_types@HV?$allocator@H@std@@@std@@@std@@QBEABV?$allocator@U?$_List_node@HPAX@std@@@2@XZ ; std::_List_alloc<std::_List_base_types<int,std::allocator<int> > >::_Getal
PUBLIC	?_Get_data@?$_List_alloc@U?$_List_base_types@HV?$allocator@H@std@@@std@@@std@@QAEAAV?$_List_val@U?$_List_simple_types@H@std@@@2@XZ ; std::_List_alloc<std::_List_base_types<int,std::allocator<int> > >::_Get_data
PUBLIC	?_Get_data@?$_List_alloc@U?$_List_base_types@HV?$allocator@H@std@@@std@@@std@@QBEABV?$_List_val@U?$_List_simple_types@H@std@@@2@XZ ; std::_List_alloc<std::_List_base_types<int,std::allocator<int> > >::_Get_data
PUBLIC	?_Myhead@?$_List_alloc@U?$_List_base_types@HV?$allocator@H@std@@@std@@@std@@QAEAAPAU?$_List_node@HPAX@2@XZ ; std::_List_alloc<std::_List_base_types<int,std::allocator<int> > >::_Myhead
PUBLIC	?_Mysize@?$_List_alloc@U?$_List_base_types@HV?$allocator@H@std@@@std@@@std@@QAEAAIXZ ; std::_List_alloc<std::_List_base_types<int,std::allocator<int> > >::_Mysize
PUBLIC	??0?$_List_val@U?$_List_simple_types@H@std@@@std@@QAE@XZ ; std::_List_val<std::_List_simple_types<int> >::_List_val<std::_List_simple_types<int> >
PUBLIC	?_Get_first@?$_Compressed_pair@V?$allocator@U?$_List_node@HPAX@std@@@std@@V?$_List_val@U?$_List_simple_types@H@std@@@2@$00@std@@QAEAAV?$allocator@U?$_List_node@HPAX@std@@@2@XZ ; std::_Compressed_pair<std::allocator<std::_List_node<int,void *> >,std::_List_val<std::_List_simple_types<int> >,1>::_Get_first
PUBLIC	?_Get_first@?$_Compressed_pair@V?$allocator@U?$_List_node@HPAX@std@@@std@@V?$_List_val@U?$_List_simple_types@H@std@@@2@$00@std@@QBEABV?$allocator@U?$_List_node@HPAX@std@@@2@XZ ; std::_Compressed_pair<std::allocator<std::_List_node<int,void *> >,std::_List_val<std::_List_simple_types<int> >,1>::_Get_first
PUBLIC	?_Get_second@?$_Compressed_pair@V?$allocator@U?$_List_node@HPAX@std@@@std@@V?$_List_val@U?$_List_simple_types@H@std@@@2@$00@std@@QAEAAV?$_List_val@U?$_List_simple_types@H@std@@@2@XZ ; std::_Compressed_pair<std::allocator<std::_List_node<int,void *> >,std::_List_val<std::_List_simple_types<int> >,1>::_Get_second
PUBLIC	?_Get_second@?$_Compressed_pair@V?$allocator@U?$_List_node@HPAX@std@@@std@@V?$_List_val@U?$_List_simple_types@H@std@@@2@$00@std@@QBEABV?$_List_val@U?$_List_simple_types@H@std@@@2@XZ ; std::_Compressed_pair<std::allocator<std::_List_node<int,void *> >,std::_List_val<std::_List_simple_types<int> >,1>::_Get_second
PUBLIC	??0?$_List_buy@HV?$allocator@H@std@@@std@@QAE@XZ ; std::_List_buy<int,std::allocator<int> >::_List_buy<int,std::allocator<int> >
PUBLIC	?_Freenode@?$_List_buy@HV?$allocator@H@std@@@std@@QAEXPAU?$_List_node@HPAX@2@@Z ; std::_List_buy<int,std::allocator<int> >::_Freenode
PUBLIC	??1?$_List_buy@HV?$allocator@H@std@@@std@@QAE@XZ ; std::_List_buy<int,std::allocator<int> >::~_List_buy<int,std::allocator<int> >
PUBLIC	??0?$list@HV?$allocator@H@std@@@std@@QAE@XZ	; std::list<int,std::allocator<int> >::list<int,std::allocator<int> >
PUBLIC	??0?$list@HV?$allocator@H@std@@@std@@QAE@$$QAV01@@Z ; std::list<int,std::allocator<int> >::list<int,std::allocator<int> >
PUBLIC	?_Assign_rv@?$list@HV?$allocator@H@std@@@std@@QAEX$$QAV12@U?$integral_constant@_N$00@2@@Z ; std::list<int,std::allocator<int> >::_Assign_rv
PUBLIC	??1?$list@HV?$allocator@H@std@@@std@@QAE@XZ	; std::list<int,std::allocator<int> >::~list<int,std::allocator<int> >
PUBLIC	?end@?$list@HV?$allocator@H@std@@@std@@QAE?AV?$_List_iterator@V?$_List_val@U?$_List_simple_types@H@std@@@std@@@2@XZ ; std::list<int,std::allocator<int> >::end
PUBLIC	?_Unchecked_begin@?$list@HV?$allocator@H@std@@@std@@QAE?AV?$_List_unchecked_iterator@V?$_List_val@U?$_List_simple_types@H@std@@@std@@@2@XZ ; std::list<int,std::allocator<int> >::_Unchecked_begin
PUBLIC	?_Unchecked_end@?$list@HV?$allocator@H@std@@@std@@QAE?AV?$_List_unchecked_iterator@V?$_List_val@U?$_List_simple_types@H@std@@@std@@@2@XZ ; std::list<int,std::allocator<int> >::_Unchecked_end
PUBLIC	?max_size@?$list@HV?$allocator@H@std@@@std@@QBEIXZ ; std::list<int,std::allocator<int> >::max_size
PUBLIC	?back@?$list@HV?$allocator@H@std@@@std@@QAEAAHXZ ; std::list<int,std::allocator<int> >::back
PUBLIC	?push_front@?$list@HV?$allocator@H@std@@@std@@QAEXABH@Z ; std::list<int,std::allocator<int> >::push_front
PUBLIC	?push_back@?$list@HV?$allocator@H@std@@@std@@QAEXABH@Z ; std::list<int,std::allocator<int> >::push_back
PUBLIC	?clear@?$list@HV?$allocator@H@std@@@std@@QAEXXZ	; std::list<int,std::allocator<int> >::clear
PUBLIC	?_Tidy@?$list@HV?$allocator@H@std@@@std@@QAEXXZ	; std::list<int,std::allocator<int> >::_Tidy
PUBLIC	?_Incsize@?$list@HV?$allocator@H@std@@@std@@QAEXI@Z ; std::list<int,std::allocator<int> >::_Incsize
PUBLIC	?_Orphan_ptr@?$list@HV?$allocator@H@std@@@std@@QAEXPAU?$_List_node@HPAX@2@@Z ; std::list<int,std::allocator<int> >::_Orphan_ptr
PUBLIC	?_Get_data@?$_Vector_alloc@U?$_Vec_base_types@U?$Cell@PAV?$NavGraphNode@PAV?$Trigger@VRaven_Bot@@@@@@@@V?$allocator@U?$Cell@PAV?$NavGraphNode@PAV?$Trigger@VRaven_Bot@@@@@@@@@std@@@std@@@std@@QAEAAV?$_Vector_val@U?$_Simple_types@U?$Cell@PAV?$NavGraphNode@PAV?$Trigger@VRaven_Bot@@@@@@@@@std@@@2@XZ ; std::_Vector_alloc<std::_Vec_base_types<Cell<NavGraphNode<Trigger<Raven_Bot> *> *>,std::allocator<Cell<NavGraphNode<Trigger<Raven_Bot> *> *> > > >::_Get_data
PUBLIC	?_Myfirst@?$_Vector_alloc@U?$_Vec_base_types@U?$Cell@PAV?$NavGraphNode@PAV?$Trigger@VRaven_Bot@@@@@@@@V?$allocator@U?$Cell@PAV?$NavGraphNode@PAV?$Trigger@VRaven_Bot@@@@@@@@@std@@@std@@@std@@QAEAAPAU?$Cell@PAV?$NavGraphNode@PAV?$Trigger@VRaven_Bot@@@@@@@@XZ ; std::_Vector_alloc<std::_Vec_base_types<Cell<NavGraphNode<Trigger<Raven_Bot> *> *>,std::allocator<Cell<NavGraphNode<Trigger<Raven_Bot> *> *> > > >::_Myfirst
PUBLIC	?_Mylast@?$_Vector_alloc@U?$_Vec_base_types@U?$Cell@PAV?$NavGraphNode@PAV?$Trigger@VRaven_Bot@@@@@@@@V?$allocator@U?$Cell@PAV?$NavGraphNode@PAV?$Trigger@VRaven_Bot@@@@@@@@@std@@@std@@@std@@QAEAAPAU?$Cell@PAV?$NavGraphNode@PAV?$Trigger@VRaven_Bot@@@@@@@@XZ ; std::_Vector_alloc<std::_Vec_base_types<Cell<NavGraphNode<Trigger<Raven_Bot> *> *>,std::allocator<Cell<NavGraphNode<Trigger<Raven_Bot> *> *> > > >::_Mylast
PUBLIC	?_Get_second@?$_Compressed_pair@V?$allocator@U?$Cell@PAV?$NavGraphNode@PAV?$Trigger@VRaven_Bot@@@@@@@@@std@@V?$_Vector_val@U?$_Simple_types@U?$Cell@PAV?$NavGraphNode@PAV?$Trigger@VRaven_Bot@@@@@@@@@std@@@2@$00@std@@QAEAAV?$_Vector_val@U?$_Simple_types@U?$Cell@PAV?$NavGraphNode@PAV?$Trigger@VRaven_Bot@@@@@@@@@std@@@2@XZ ; std::_Compressed_pair<std::allocator<Cell<NavGraphNode<Trigger<Raven_Bot> *> *> >,std::_Vector_val<std::_Simple_types<Cell<NavGraphNode<Trigger<Raven_Bot> *> *> > >,1>::_Get_second
PUBLIC	?begin@?$vector@U?$Cell@PAV?$NavGraphNode@PAV?$Trigger@VRaven_Bot@@@@@@@@V?$allocator@U?$Cell@PAV?$NavGraphNode@PAV?$Trigger@VRaven_Bot@@@@@@@@@std@@@std@@QAE?AV?$_Vector_iterator@V?$_Vector_val@U?$_Simple_types@U?$Cell@PAV?$NavGraphNode@PAV?$Trigger@VRaven_Bot@@@@@@@@@std@@@std@@@2@XZ ; std::vector<Cell<NavGraphNode<Trigger<Raven_Bot> *> *>,std::allocator<Cell<NavGraphNode<Trigger<Raven_Bot> *> *> > >::begin
PUBLIC	?end@?$vector@U?$Cell@PAV?$NavGraphNode@PAV?$Trigger@VRaven_Bot@@@@@@@@V?$allocator@U?$Cell@PAV?$NavGraphNode@PAV?$Trigger@VRaven_Bot@@@@@@@@@std@@@std@@QAE?AV?$_Vector_iterator@V?$_Vector_val@U?$_Simple_types@U?$Cell@PAV?$NavGraphNode@PAV?$Trigger@VRaven_Bot@@@@@@@@@std@@@std@@@2@XZ ; std::vector<Cell<NavGraphNode<Trigger<Raven_Bot> *> *>,std::allocator<Cell<NavGraphNode<Trigger<Raven_Bot> *> *> > >::end
PUBLIC	?_Get_data@?$_Vector_alloc@U?$_Vec_base_types@PAV?$NavGraphNode@PAV?$Trigger@VRaven_Bot@@@@@@V?$allocator@PAV?$NavGraphNode@PAV?$Trigger@VRaven_Bot@@@@@@@std@@@std@@@std@@QAEAAV?$_Vector_val@U?$_Simple_types@PAV?$NavGraphNode@PAV?$Trigger@VRaven_Bot@@@@@@@std@@@2@XZ ; std::_Vector_alloc<std::_Vec_base_types<NavGraphNode<Trigger<Raven_Bot> *> *,std::allocator<NavGraphNode<Trigger<Raven_Bot> *> *> > >::_Get_data
PUBLIC	?_Myfirst@?$_Vector_alloc@U?$_Vec_base_types@PAV?$NavGraphNode@PAV?$Trigger@VRaven_Bot@@@@@@V?$allocator@PAV?$NavGraphNode@PAV?$Trigger@VRaven_Bot@@@@@@@std@@@std@@@std@@QAEAAPAPAV?$NavGraphNode@PAV?$Trigger@VRaven_Bot@@@@@@XZ ; std::_Vector_alloc<std::_Vec_base_types<NavGraphNode<Trigger<Raven_Bot> *> *,std::allocator<NavGraphNode<Trigger<Raven_Bot> *> *> > >::_Myfirst
PUBLIC	?_Mylast@?$_Vector_alloc@U?$_Vec_base_types@PAV?$NavGraphNode@PAV?$Trigger@VRaven_Bot@@@@@@V?$allocator@PAV?$NavGraphNode@PAV?$Trigger@VRaven_Bot@@@@@@@std@@@std@@@std@@QAEAAPAPAV?$NavGraphNode@PAV?$Trigger@VRaven_Bot@@@@@@XZ ; std::_Vector_alloc<std::_Vec_base_types<NavGraphNode<Trigger<Raven_Bot> *> *,std::allocator<NavGraphNode<Trigger<Raven_Bot> *> *> > >::_Mylast
PUBLIC	?_Get_second@?$_Compressed_pair@V?$allocator@PAV?$NavGraphNode@PAV?$Trigger@VRaven_Bot@@@@@@@std@@V?$_Vector_val@U?$_Simple_types@PAV?$NavGraphNode@PAV?$Trigger@VRaven_Bot@@@@@@@std@@@2@$00@std@@QAEAAV?$_Vector_val@U?$_Simple_types@PAV?$NavGraphNode@PAV?$Trigger@VRaven_Bot@@@@@@@std@@@2@XZ ; std::_Compressed_pair<std::allocator<NavGraphNode<Trigger<Raven_Bot> *> *>,std::_Vector_val<std::_Simple_types<NavGraphNode<Trigger<Raven_Bot> *> *> >,1>::_Get_second
PUBLIC	?begin@?$vector@PAV?$NavGraphNode@PAV?$Trigger@VRaven_Bot@@@@@@V?$allocator@PAV?$NavGraphNode@PAV?$Trigger@VRaven_Bot@@@@@@@std@@@std@@QAE?AV?$_Vector_iterator@V?$_Vector_val@U?$_Simple_types@PAV?$NavGraphNode@PAV?$Trigger@VRaven_Bot@@@@@@@std@@@std@@@2@XZ ; std::vector<NavGraphNode<Trigger<Raven_Bot> *> *,std::allocator<NavGraphNode<Trigger<Raven_Bot> *> *> >::begin
PUBLIC	?end@?$vector@PAV?$NavGraphNode@PAV?$Trigger@VRaven_Bot@@@@@@V?$allocator@PAV?$NavGraphNode@PAV?$Trigger@VRaven_Bot@@@@@@@std@@@std@@QAE?AV?$_Vector_iterator@V?$_Vector_val@U?$_Simple_types@PAV?$NavGraphNode@PAV?$Trigger@VRaven_Bot@@@@@@@std@@@std@@@2@XZ ; std::vector<NavGraphNode<Trigger<Raven_Bot> *> *,std::allocator<NavGraphNode<Trigger<Raven_Bot> *> *> >::end
PUBLIC	??0?$_Vector_const_iterator@V?$_Vector_val@U?$_Simple_types@PAV?$NavGraphNode@PAV?$Trigger@VRaven_Bot@@@@@@@std@@@std@@@std@@QAE@PAPAV?$NavGraphNode@PAV?$Trigger@VRaven_Bot@@@@@@PBU_Container_base12@1@@Z ; std::_Vector_const_iterator<std::_Vector_val<std::_Simple_types<NavGraphNode<Trigger<Raven_Bot> *> *> > >::_Vector_const_iterator<std::_Vector_val<std::_Simple_types<NavGraphNode<Trigger<Raven_Bot> *> *> > >
PUBLIC	??D?$_Vector_const_iterator@V?$_Vector_val@U?$_Simple_types@PAV?$NavGraphNode@PAV?$Trigger@VRaven_Bot@@@@@@@std@@@std@@@std@@QBEABQAV?$NavGraphNode@PAV?$Trigger@VRaven_Bot@@@@@@XZ ; std::_Vector_const_iterator<std::_Vector_val<std::_Simple_types<NavGraphNode<Trigger<Raven_Bot> *> *> > >::operator*
PUBLIC	??E?$_Vector_const_iterator@V?$_Vector_val@U?$_Simple_types@PAV?$NavGraphNode@PAV?$Trigger@VRaven_Bot@@@@@@@std@@@std@@@std@@QAEAAV01@XZ ; std::_Vector_const_iterator<std::_Vector_val<std::_Simple_types<NavGraphNode<Trigger<Raven_Bot> *> *> > >::operator++
PUBLIC	??8?$_Vector_const_iterator@V?$_Vector_val@U?$_Simple_types@PAV?$NavGraphNode@PAV?$Trigger@VRaven_Bot@@@@@@@std@@@std@@@std@@QBE_NABV01@@Z ; std::_Vector_const_iterator<std::_Vector_val<std::_Simple_types<NavGraphNode<Trigger<Raven_Bot> *> *> > >::operator==
PUBLIC	?_Compat@?$_Vector_const_iterator@V?$_Vector_val@U?$_Simple_types@PAV?$NavGraphNode@PAV?$Trigger@VRaven_Bot@@@@@@@std@@@std@@@std@@QBEXABV12@@Z ; std::_Vector_const_iterator<std::_Vector_val<std::_Simple_types<NavGraphNode<Trigger<Raven_Bot> *> *> > >::_Compat
PUBLIC	??1?$_Vector_const_iterator@V?$_Vector_val@U?$_Simple_types@PAV?$NavGraphNode@PAV?$Trigger@VRaven_Bot@@@@@@@std@@@std@@@std@@QAE@XZ ; std::_Vector_const_iterator<std::_Vector_val<std::_Simple_types<NavGraphNode<Trigger<Raven_Bot> *> *> > >::~_Vector_const_iterator<std::_Vector_val<std::_Simple_types<NavGraphNode<Trigger<Raven_Bot> *> *> > >
PUBLIC	??0?$_Vector_const_iterator@V?$_Vector_val@U?$_Simple_types@PAV?$NavGraphNode@PAV?$Trigger@VRaven_Bot@@@@@@@std@@@std@@@std@@QAE@ABV01@@Z ; std::_Vector_const_iterator<std::_Vector_val<std::_Simple_types<NavGraphNode<Trigger<Raven_Bot> *> *> > >::_Vector_const_iterator<std::_Vector_val<std::_Simple_types<NavGraphNode<Trigger<Raven_Bot> *> *> > >
PUBLIC	??0?$_Vector_const_iterator@V?$_Vector_val@U?$_Simple_types@PAV?$NavGraphNode@PAV?$Trigger@VRaven_Bot@@@@@@@std@@@std@@@std@@QAE@$$QAV01@@Z ; std::_Vector_const_iterator<std::_Vector_val<std::_Simple_types<NavGraphNode<Trigger<Raven_Bot> *> *> > >::_Vector_const_iterator<std::_Vector_val<std::_Simple_types<NavGraphNode<Trigger<Raven_Bot> *> *> > >
PUBLIC	??4?$_Vector_const_iterator@V?$_Vector_val@U?$_Simple_types@PAV?$NavGraphNode@PAV?$Trigger@VRaven_Bot@@@@@@@std@@@std@@@std@@QAEAAV01@$$QAV01@@Z ; std::_Vector_const_iterator<std::_Vector_val<std::_Simple_types<NavGraphNode<Trigger<Raven_Bot> *> *> > >::operator=
PUBLIC	??0?$_Vector_iterator@V?$_Vector_val@U?$_Simple_types@PAV?$NavGraphNode@PAV?$Trigger@VRaven_Bot@@@@@@@std@@@std@@@std@@QAE@PAPAV?$NavGraphNode@PAV?$Trigger@VRaven_Bot@@@@@@PBU_Container_base12@1@@Z ; std::_Vector_iterator<std::_Vector_val<std::_Simple_types<NavGraphNode<Trigger<Raven_Bot> *> *> > >::_Vector_iterator<std::_Vector_val<std::_Simple_types<NavGraphNode<Trigger<Raven_Bot> *> *> > >
PUBLIC	??D?$_Vector_iterator@V?$_Vector_val@U?$_Simple_types@PAV?$NavGraphNode@PAV?$Trigger@VRaven_Bot@@@@@@@std@@@std@@@std@@QBEAAPAV?$NavGraphNode@PAV?$Trigger@VRaven_Bot@@@@@@XZ ; std::_Vector_iterator<std::_Vector_val<std::_Simple_types<NavGraphNode<Trigger<Raven_Bot> *> *> > >::operator*
PUBLIC	??E?$_Vector_iterator@V?$_Vector_val@U?$_Simple_types@PAV?$NavGraphNode@PAV?$Trigger@VRaven_Bot@@@@@@@std@@@std@@@std@@QAEAAV01@XZ ; std::_Vector_iterator<std::_Vector_val<std::_Simple_types<NavGraphNode<Trigger<Raven_Bot> *> *> > >::operator++
PUBLIC	??E?$_Vector_iterator@V?$_Vector_val@U?$_Simple_types@PAV?$NavGraphNode@PAV?$Trigger@VRaven_Bot@@@@@@@std@@@std@@@std@@QAE?AV01@H@Z ; std::_Vector_iterator<std::_Vector_val<std::_Simple_types<NavGraphNode<Trigger<Raven_Bot> *> *> > >::operator++
PUBLIC	??1?$_Vector_iterator@V?$_Vector_val@U?$_Simple_types@PAV?$NavGraphNode@PAV?$Trigger@VRaven_Bot@@@@@@@std@@@std@@@std@@QAE@XZ ; std::_Vector_iterator<std::_Vector_val<std::_Simple_types<NavGraphNode<Trigger<Raven_Bot> *> *> > >::~_Vector_iterator<std::_Vector_val<std::_Simple_types<NavGraphNode<Trigger<Raven_Bot> *> *> > >
PUBLIC	??0?$_Vector_iterator@V?$_Vector_val@U?$_Simple_types@PAV?$NavGraphNode@PAV?$Trigger@VRaven_Bot@@@@@@@std@@@std@@@std@@QAE@ABV01@@Z ; std::_Vector_iterator<std::_Vector_val<std::_Simple_types<NavGraphNode<Trigger<Raven_Bot> *> *> > >::_Vector_iterator<std::_Vector_val<std::_Simple_types<NavGraphNode<Trigger<Raven_Bot> *> *> > >
PUBLIC	??0?$_Vector_iterator@V?$_Vector_val@U?$_Simple_types@PAV?$NavGraphNode@PAV?$Trigger@VRaven_Bot@@@@@@@std@@@std@@@std@@QAE@$$QAV01@@Z ; std::_Vector_iterator<std::_Vector_val<std::_Simple_types<NavGraphNode<Trigger<Raven_Bot> *> *> > >::_Vector_iterator<std::_Vector_val<std::_Simple_types<NavGraphNode<Trigger<Raven_Bot> *> *> > >
PUBLIC	??4?$_Vector_iterator@V?$_Vector_val@U?$_Simple_types@PAV?$NavGraphNode@PAV?$Trigger@VRaven_Bot@@@@@@@std@@@std@@@std@@QAEAAV01@$$QAV01@@Z ; std::_Vector_iterator<std::_Vector_val<std::_Simple_types<NavGraphNode<Trigger<Raven_Bot> *> *> > >::operator=
PUBLIC	?CalculateNeighbors@?$CellSpacePartition@PAV?$NavGraphNode@PAV?$Trigger@VRaven_Bot@@@@@@@@QAEXUVector2D@@N@Z ; CellSpacePartition<NavGraphNode<Trigger<Raven_Bot> *> *>::CalculateNeighbors
PUBLIC	?begin@?$CellSpacePartition@PAV?$NavGraphNode@PAV?$Trigger@VRaven_Bot@@@@@@@@QAEAAPAV?$NavGraphNode@PAV?$Trigger@VRaven_Bot@@@@@@XZ ; CellSpacePartition<NavGraphNode<Trigger<Raven_Bot> *> *>::begin
PUBLIC	?next@?$CellSpacePartition@PAV?$NavGraphNode@PAV?$Trigger@VRaven_Bot@@@@@@@@QAEAAPAV?$NavGraphNode@PAV?$Trigger@VRaven_Bot@@@@@@XZ ; CellSpacePartition<NavGraphNode<Trigger<Raven_Bot> *> *>::next
PUBLIC	?end@?$CellSpacePartition@PAV?$NavGraphNode@PAV?$Trigger@VRaven_Bot@@@@@@@@QAE_NXZ ; CellSpacePartition<NavGraphNode<Trigger<Raven_Bot> *> *>::end
PUBLIC	??0?$allocator@PBVNavGraphEdge@@@std@@QAE@XZ	; std::allocator<NavGraphEdge const *>::allocator<NavGraphEdge const *>
PUBLIC	?deallocate@?$allocator@PBVNavGraphEdge@@@std@@QAEXQAPBVNavGraphEdge@@I@Z ; std::allocator<NavGraphEdge const *>::deallocate
PUBLIC	?allocate@?$allocator@PBVNavGraphEdge@@@std@@QAEPAPBVNavGraphEdge@@I@Z ; std::allocator<NavGraphEdge const *>::allocate
PUBLIC	?max_size@?$_Default_allocator_traits@V?$allocator@PBVNavGraphEdge@@@std@@@std@@SAIABV?$allocator@PBVNavGraphEdge@@@2@@Z ; std::_Default_allocator_traits<std::allocator<NavGraphEdge const *> >::max_size
PUBLIC	?select_on_container_copy_construction@?$_Default_allocator_traits@V?$allocator@PBVNavGraphEdge@@@std@@@std@@SA?AV?$allocator@PBVNavGraphEdge@@@2@ABV32@@Z ; std::_Default_allocator_traits<std::allocator<NavGraphEdge const *> >::select_on_container_copy_construction
PUBLIC	??1?$_Vector_alloc@U?$_Vec_base_types@PBVNavGraphEdge@@V?$allocator@PBVNavGraphEdge@@@std@@@std@@@std@@QAE@XZ ; std::_Vector_alloc<std::_Vec_base_types<NavGraphEdge const *,std::allocator<NavGraphEdge const *> > >::~_Vector_alloc<std::_Vec_base_types<NavGraphEdge const *,std::allocator<NavGraphEdge const *> > >
PUBLIC	?_Alloc_proxy@?$_Vector_alloc@U?$_Vec_base_types@PBVNavGraphEdge@@V?$allocator@PBVNavGraphEdge@@@std@@@std@@@std@@QAEXXZ ; std::_Vector_alloc<std::_Vec_base_types<NavGraphEdge const *,std::allocator<NavGraphEdge const *> > >::_Alloc_proxy
PUBLIC	?_Free_proxy@?$_Vector_alloc@U?$_Vec_base_types@PBVNavGraphEdge@@V?$allocator@PBVNavGraphEdge@@@std@@@std@@@std@@QAEXXZ ; std::_Vector_alloc<std::_Vec_base_types<NavGraphEdge const *,std::allocator<NavGraphEdge const *> > >::_Free_proxy
PUBLIC	?_Myproxy@?$_Vector_alloc@U?$_Vec_base_types@PBVNavGraphEdge@@V?$allocator@PBVNavGraphEdge@@@std@@@std@@@std@@QAEAAPAU_Container_proxy@2@XZ ; std::_Vector_alloc<std::_Vec_base_types<NavGraphEdge const *,std::allocator<NavGraphEdge const *> > >::_Myproxy
PUBLIC	?_Orphan_all@?$_Vector_alloc@U?$_Vec_base_types@PBVNavGraphEdge@@V?$allocator@PBVNavGraphEdge@@@std@@@std@@@std@@QAEXXZ ; std::_Vector_alloc<std::_Vec_base_types<NavGraphEdge const *,std::allocator<NavGraphEdge const *> > >::_Orphan_all
PUBLIC	?_Getal@?$_Vector_alloc@U?$_Vec_base_types@PBVNavGraphEdge@@V?$allocator@PBVNavGraphEdge@@@std@@@std@@@std@@QAEAAV?$allocator@PBVNavGraphEdge@@@2@XZ ; std::_Vector_alloc<std::_Vec_base_types<NavGraphEdge const *,std::allocator<NavGraphEdge const *> > >::_Getal
PUBLIC	?_Getal@?$_Vector_alloc@U?$_Vec_base_types@PBVNavGraphEdge@@V?$allocator@PBVNavGraphEdge@@@std@@@std@@@std@@QBEABV?$allocator@PBVNavGraphEdge@@@2@XZ ; std::_Vector_alloc<std::_Vec_base_types<NavGraphEdge const *,std::allocator<NavGraphEdge const *> > >::_Getal
PUBLIC	?_Get_data@?$_Vector_alloc@U?$_Vec_base_types@PBVNavGraphEdge@@V?$allocator@PBVNavGraphEdge@@@std@@@std@@@std@@QAEAAV?$_Vector_val@U?$_Simple_types@PBVNavGraphEdge@@@std@@@2@XZ ; std::_Vector_alloc<std::_Vec_base_types<NavGraphEdge const *,std::allocator<NavGraphEdge const *> > >::_Get_data
PUBLIC	?_Get_data@?$_Vector_alloc@U?$_Vec_base_types@PBVNavGraphEdge@@V?$allocator@PBVNavGraphEdge@@@std@@@std@@@std@@QBEABV?$_Vector_val@U?$_Simple_types@PBVNavGraphEdge@@@std@@@2@XZ ; std::_Vector_alloc<std::_Vec_base_types<NavGraphEdge const *,std::allocator<NavGraphEdge const *> > >::_Get_data
PUBLIC	?_Myfirst@?$_Vector_alloc@U?$_Vec_base_types@PBVNavGraphEdge@@V?$allocator@PBVNavGraphEdge@@@std@@@std@@@std@@QAEAAPAPBVNavGraphEdge@@XZ ; std::_Vector_alloc<std::_Vec_base_types<NavGraphEdge const *,std::allocator<NavGraphEdge const *> > >::_Myfirst
PUBLIC	?_Myfirst@?$_Vector_alloc@U?$_Vec_base_types@PBVNavGraphEdge@@V?$allocator@PBVNavGraphEdge@@@std@@@std@@@std@@QBEABQAPBVNavGraphEdge@@XZ ; std::_Vector_alloc<std::_Vec_base_types<NavGraphEdge const *,std::allocator<NavGraphEdge const *> > >::_Myfirst
PUBLIC	?_Mylast@?$_Vector_alloc@U?$_Vec_base_types@PBVNavGraphEdge@@V?$allocator@PBVNavGraphEdge@@@std@@@std@@@std@@QAEAAPAPBVNavGraphEdge@@XZ ; std::_Vector_alloc<std::_Vec_base_types<NavGraphEdge const *,std::allocator<NavGraphEdge const *> > >::_Mylast
PUBLIC	?_Mylast@?$_Vector_alloc@U?$_Vec_base_types@PBVNavGraphEdge@@V?$allocator@PBVNavGraphEdge@@@std@@@std@@@std@@QBEABQAPBVNavGraphEdge@@XZ ; std::_Vector_alloc<std::_Vec_base_types<NavGraphEdge const *,std::allocator<NavGraphEdge const *> > >::_Mylast
PUBLIC	?_Myend@?$_Vector_alloc@U?$_Vec_base_types@PBVNavGraphEdge@@V?$allocator@PBVNavGraphEdge@@@std@@@std@@@std@@QAEAAPAPBVNavGraphEdge@@XZ ; std::_Vector_alloc<std::_Vec_base_types<NavGraphEdge const *,std::allocator<NavGraphEdge const *> > >::_Myend
PUBLIC	?_Myend@?$_Vector_alloc@U?$_Vec_base_types@PBVNavGraphEdge@@V?$allocator@PBVNavGraphEdge@@@std@@@std@@@std@@QBEABQAPBVNavGraphEdge@@XZ ; std::_Vector_alloc<std::_Vec_base_types<NavGraphEdge const *,std::allocator<NavGraphEdge const *> > >::_Myend
PUBLIC	??0?$_Vector_val@U?$_Simple_types@PBVNavGraphEdge@@@std@@@std@@QAE@XZ ; std::_Vector_val<std::_Simple_types<NavGraphEdge const *> >::_Vector_val<std::_Simple_types<NavGraphEdge const *> >
PUBLIC	?_Get_first@?$_Compressed_pair@V?$allocator@PBVNavGraphEdge@@@std@@V?$_Vector_val@U?$_Simple_types@PBVNavGraphEdge@@@std@@@2@$00@std@@QAEAAV?$allocator@PBVNavGraphEdge@@@2@XZ ; std::_Compressed_pair<std::allocator<NavGraphEdge const *>,std::_Vector_val<std::_Simple_types<NavGraphEdge const *> >,1>::_Get_first
PUBLIC	?_Get_first@?$_Compressed_pair@V?$allocator@PBVNavGraphEdge@@@std@@V?$_Vector_val@U?$_Simple_types@PBVNavGraphEdge@@@std@@@2@$00@std@@QBEABV?$allocator@PBVNavGraphEdge@@@2@XZ ; std::_Compressed_pair<std::allocator<NavGraphEdge const *>,std::_Vector_val<std::_Simple_types<NavGraphEdge const *> >,1>::_Get_first
PUBLIC	?_Get_second@?$_Compressed_pair@V?$allocator@PBVNavGraphEdge@@@std@@V?$_Vector_val@U?$_Simple_types@PBVNavGraphEdge@@@std@@@2@$00@std@@QAEAAV?$_Vector_val@U?$_Simple_types@PBVNavGraphEdge@@@std@@@2@XZ ; std::_Compressed_pair<std::allocator<NavGraphEdge const *>,std::_Vector_val<std::_Simple_types<NavGraphEdge const *> >,1>::_Get_second
PUBLIC	?_Get_second@?$_Compressed_pair@V?$allocator@PBVNavGraphEdge@@@std@@V?$_Vector_val@U?$_Simple_types@PBVNavGraphEdge@@@std@@@2@$00@std@@QBEABV?$_Vector_val@U?$_Simple_types@PBVNavGraphEdge@@@std@@@2@XZ ; std::_Compressed_pair<std::allocator<NavGraphEdge const *>,std::_Vector_val<std::_Simple_types<NavGraphEdge const *> >,1>::_Get_second
PUBLIC	??0?$vector@PBVNavGraphEdge@@V?$allocator@PBVNavGraphEdge@@@std@@@std@@QAE@IABV?$allocator@PBVNavGraphEdge@@@1@@Z ; std::vector<NavGraphEdge const *,std::allocator<NavGraphEdge const *> >::vector<NavGraphEdge const *,std::allocator<NavGraphEdge const *> >
PUBLIC	??0?$vector@PBVNavGraphEdge@@V?$allocator@PBVNavGraphEdge@@@std@@@std@@QAE@ABV01@@Z ; std::vector<NavGraphEdge const *,std::allocator<NavGraphEdge const *> >::vector<NavGraphEdge const *,std::allocator<NavGraphEdge const *> >
PUBLIC	??1?$vector@PBVNavGraphEdge@@V?$allocator@PBVNavGraphEdge@@@std@@@std@@QAE@XZ ; std::vector<NavGraphEdge const *,std::allocator<NavGraphEdge const *> >::~vector<NavGraphEdge const *,std::allocator<NavGraphEdge const *> >
PUBLIC	?size@?$vector@PBVNavGraphEdge@@V?$allocator@PBVNavGraphEdge@@@std@@@std@@QBEIXZ ; std::vector<NavGraphEdge const *,std::allocator<NavGraphEdge const *> >::size
PUBLIC	?max_size@?$vector@PBVNavGraphEdge@@V?$allocator@PBVNavGraphEdge@@@std@@@std@@QBEIXZ ; std::vector<NavGraphEdge const *,std::allocator<NavGraphEdge const *> >::max_size
PUBLIC	?capacity@?$vector@PBVNavGraphEdge@@V?$allocator@PBVNavGraphEdge@@@std@@@std@@QBEIXZ ; std::vector<NavGraphEdge const *,std::allocator<NavGraphEdge const *> >::capacity
PUBLIC	??A?$vector@PBVNavGraphEdge@@V?$allocator@PBVNavGraphEdge@@@std@@@std@@QAEAAPBVNavGraphEdge@@I@Z ; std::vector<NavGraphEdge const *,std::allocator<NavGraphEdge const *> >::operator[]
PUBLIC	??A?$vector@PBVNavGraphEdge@@V?$allocator@PBVNavGraphEdge@@@std@@@std@@QBEABQBVNavGraphEdge@@I@Z ; std::vector<NavGraphEdge const *,std::allocator<NavGraphEdge const *> >::operator[]
PUBLIC	?_Udefault@?$vector@PBVNavGraphEdge@@V?$allocator@PBVNavGraphEdge@@@std@@@std@@AAEPAPBVNavGraphEdge@@PAPBV3@I@Z ; std::vector<NavGraphEdge const *,std::allocator<NavGraphEdge const *> >::_Udefault
PUBLIC	?_Destroy@?$vector@PBVNavGraphEdge@@V?$allocator@PBVNavGraphEdge@@@std@@@std@@AAEXPAPBVNavGraphEdge@@0@Z ; std::vector<NavGraphEdge const *,std::allocator<NavGraphEdge const *> >::_Destroy
PUBLIC	?_Buy@?$vector@PBVNavGraphEdge@@V?$allocator@PBVNavGraphEdge@@@std@@@std@@AAE_NI@Z ; std::vector<NavGraphEdge const *,std::allocator<NavGraphEdge const *> >::_Buy
PUBLIC	?_Tidy@?$vector@PBVNavGraphEdge@@V?$allocator@PBVNavGraphEdge@@@std@@@std@@AAEXXZ ; std::vector<NavGraphEdge const *,std::allocator<NavGraphEdge const *> >::_Tidy
PUBLIC	?_Xlength@?$vector@PBVNavGraphEdge@@V?$allocator@PBVNavGraphEdge@@@std@@@std@@CAXXZ ; std::vector<NavGraphEdge const *,std::allocator<NavGraphEdge const *> >::_Xlength
PUBLIC	??0?$Graph_SearchAStar_TS@V?$SparseGraph@V?$NavGraphNode@PAV?$Trigger@VRaven_Bot@@@@@@VNavGraphEdge@@@@VHeuristic_Euclid@@@@QAE@ABV?$SparseGraph@V?$NavGraphNode@PAV?$Trigger@VRaven_Bot@@@@@@VNavGraphEdge@@@@HH@Z ; Graph_SearchAStar_TS<SparseGraph<NavGraphNode<Trigger<Raven_Bot> *>,NavGraphEdge>,Heuristic_Euclid>::Graph_SearchAStar_TS<SparseGraph<NavGraphNode<Trigger<Raven_Bot> *>,NavGraphEdge>,Heuristic_Euclid>
PUBLIC	??1?$Graph_SearchAStar_TS@V?$SparseGraph@V?$NavGraphNode@PAV?$Trigger@VRaven_Bot@@@@@@VNavGraphEdge@@@@VHeuristic_Euclid@@@@UAE@XZ ; Graph_SearchAStar_TS<SparseGraph<NavGraphNode<Trigger<Raven_Bot> *>,NavGraphEdge>,Heuristic_Euclid>::~Graph_SearchAStar_TS<SparseGraph<NavGraphNode<Trigger<Raven_Bot> *>,NavGraphEdge>,Heuristic_Euclid>
PUBLIC	?CycleOnce@?$Graph_SearchAStar_TS@V?$SparseGraph@V?$NavGraphNode@PAV?$Trigger@VRaven_Bot@@@@@@VNavGraphEdge@@@@VHeuristic_Euclid@@@@UAEHXZ ; Graph_SearchAStar_TS<SparseGraph<NavGraphNode<Trigger<Raven_Bot> *>,NavGraphEdge>,Heuristic_Euclid>::CycleOnce
PUBLIC	?GetSPT@?$Graph_SearchAStar_TS@V?$SparseGraph@V?$NavGraphNode@PAV?$Trigger@VRaven_Bot@@@@@@VNavGraphEdge@@@@VHeuristic_Euclid@@@@UBE?AV?$vector@PBVNavGraphEdge@@V?$allocator@PBVNavGraphEdge@@@std@@@std@@XZ ; Graph_SearchAStar_TS<SparseGraph<NavGraphNode<Trigger<Raven_Bot> *>,NavGraphEdge>,Heuristic_Euclid>::GetSPT
PUBLIC	?GetPathToTarget@?$Graph_SearchAStar_TS@V?$SparseGraph@V?$NavGraphNode@PAV?$Trigger@VRaven_Bot@@@@@@VNavGraphEdge@@@@VHeuristic_Euclid@@@@UBE?AV?$list@HV?$allocator@H@std@@@std@@XZ ; Graph_SearchAStar_TS<SparseGraph<NavGraphNode<Trigger<Raven_Bot> *>,NavGraphEdge>,Heuristic_Euclid>::GetPathToTarget
PUBLIC	?GetPathAsPathEdges@?$Graph_SearchAStar_TS@V?$SparseGraph@V?$NavGraphNode@PAV?$Trigger@VRaven_Bot@@@@@@VNavGraphEdge@@@@VHeuristic_Euclid@@@@UBE?AV?$list@VPathEdge@@V?$allocator@VPathEdge@@@std@@@std@@XZ ; Graph_SearchAStar_TS<SparseGraph<NavGraphNode<Trigger<Raven_Bot> *>,NavGraphEdge>,Heuristic_Euclid>::GetPathAsPathEdges
PUBLIC	?GetCostToTarget@?$Graph_SearchAStar_TS@V?$SparseGraph@V?$NavGraphNode@PAV?$Trigger@VRaven_Bot@@@@@@VNavGraphEdge@@@@VHeuristic_Euclid@@@@UBENXZ ; Graph_SearchAStar_TS<SparseGraph<NavGraphNode<Trigger<Raven_Bot> *>,NavGraphEdge>,Heuristic_Euclid>::GetCostToTarget
PUBLIC	??_G?$Graph_SearchAStar_TS@V?$SparseGraph@V?$NavGraphNode@PAV?$Trigger@VRaven_Bot@@@@@@VNavGraphEdge@@@@VHeuristic_Euclid@@@@UAEPAXI@Z ; Graph_SearchAStar_TS<SparseGraph<NavGraphNode<Trigger<Raven_Bot> *>,NavGraphEdge>,Heuristic_Euclid>::`scalar deleting destructor'
PUBLIC	??0?$Graph_SearchDijkstras_TS@V?$SparseGraph@V?$NavGraphNode@PAV?$Trigger@VRaven_Bot@@@@@@VNavGraphEdge@@@@V?$FindActiveTrigger@V?$Trigger@VRaven_Bot@@@@@@@@QAE@ABV?$SparseGraph@V?$NavGraphNode@PAV?$Trigger@VRaven_Bot@@@@@@VNavGraphEdge@@@@HH@Z ; Graph_SearchDijkstras_TS<SparseGraph<NavGraphNode<Trigger<Raven_Bot> *>,NavGraphEdge>,FindActiveTrigger<Trigger<Raven_Bot> > >::Graph_SearchDijkstras_TS<SparseGraph<NavGraphNode<Trigger<Raven_Bot> *>,NavGraphEdge>,FindActiveTrigger<Trigger<Raven_Bot> > >
PUBLIC	??1?$Graph_SearchDijkstras_TS@V?$SparseGraph@V?$NavGraphNode@PAV?$Trigger@VRaven_Bot@@@@@@VNavGraphEdge@@@@V?$FindActiveTrigger@V?$Trigger@VRaven_Bot@@@@@@@@UAE@XZ ; Graph_SearchDijkstras_TS<SparseGraph<NavGraphNode<Trigger<Raven_Bot> *>,NavGraphEdge>,FindActiveTrigger<Trigger<Raven_Bot> > >::~Graph_SearchDijkstras_TS<SparseGraph<NavGraphNode<Trigger<Raven_Bot> *>,NavGraphEdge>,FindActiveTrigger<Trigger<Raven_Bot> > >
PUBLIC	?CycleOnce@?$Graph_SearchDijkstras_TS@V?$SparseGraph@V?$NavGraphNode@PAV?$Trigger@VRaven_Bot@@@@@@VNavGraphEdge@@@@V?$FindActiveTrigger@V?$Trigger@VRaven_Bot@@@@@@@@UAEHXZ ; Graph_SearchDijkstras_TS<SparseGraph<NavGraphNode<Trigger<Raven_Bot> *>,NavGraphEdge>,FindActiveTrigger<Trigger<Raven_Bot> > >::CycleOnce
PUBLIC	?GetSPT@?$Graph_SearchDijkstras_TS@V?$SparseGraph@V?$NavGraphNode@PAV?$Trigger@VRaven_Bot@@@@@@VNavGraphEdge@@@@V?$FindActiveTrigger@V?$Trigger@VRaven_Bot@@@@@@@@UBE?AV?$vector@PBVNavGraphEdge@@V?$allocator@PBVNavGraphEdge@@@std@@@std@@XZ ; Graph_SearchDijkstras_TS<SparseGraph<NavGraphNode<Trigger<Raven_Bot> *>,NavGraphEdge>,FindActiveTrigger<Trigger<Raven_Bot> > >::GetSPT
PUBLIC	?GetPathToTarget@?$Graph_SearchDijkstras_TS@V?$SparseGraph@V?$NavGraphNode@PAV?$Trigger@VRaven_Bot@@@@@@VNavGraphEdge@@@@V?$FindActiveTrigger@V?$Trigger@VRaven_Bot@@@@@@@@UBE?AV?$list@HV?$allocator@H@std@@@std@@XZ ; Graph_SearchDijkstras_TS<SparseGraph<NavGraphNode<Trigger<Raven_Bot> *>,NavGraphEdge>,FindActiveTrigger<Trigger<Raven_Bot> > >::GetPathToTarget
PUBLIC	?GetPathAsPathEdges@?$Graph_SearchDijkstras_TS@V?$SparseGraph@V?$NavGraphNode@PAV?$Trigger@VRaven_Bot@@@@@@VNavGraphEdge@@@@V?$FindActiveTrigger@V?$Trigger@VRaven_Bot@@@@@@@@UBE?AV?$list@VPathEdge@@V?$allocator@VPathEdge@@@std@@@std@@XZ ; Graph_SearchDijkstras_TS<SparseGraph<NavGraphNode<Trigger<Raven_Bot> *>,NavGraphEdge>,FindActiveTrigger<Trigger<Raven_Bot> > >::GetPathAsPathEdges
PUBLIC	?GetCostToTarget@?$Graph_SearchDijkstras_TS@V?$SparseGraph@V?$NavGraphNode@PAV?$Trigger@VRaven_Bot@@@@@@VNavGraphEdge@@@@V?$FindActiveTrigger@V?$Trigger@VRaven_Bot@@@@@@@@UBENXZ ; Graph_SearchDijkstras_TS<SparseGraph<NavGraphNode<Trigger<Raven_Bot> *>,NavGraphEdge>,FindActiveTrigger<Trigger<Raven_Bot> > >::GetCostToTarget
PUBLIC	??_G?$Graph_SearchDijkstras_TS@V?$SparseGraph@V?$NavGraphNode@PAV?$Trigger@VRaven_Bot@@@@@@VNavGraphEdge@@@@V?$FindActiveTrigger@V?$Trigger@VRaven_Bot@@@@@@@@UAEPAXI@Z ; Graph_SearchDijkstras_TS<SparseGraph<NavGraphNode<Trigger<Raven_Bot> *>,NavGraphEdge>,FindActiveTrigger<Trigger<Raven_Bot> > >::`scalar deleting destructor'
PUBLIC	?Swap@?$IndexedPriorityQLow@N@@AAEXHH@Z		; IndexedPriorityQLow<double>::Swap
PUBLIC	?ReorderUpwards@?$IndexedPriorityQLow@N@@AAEXH@Z ; IndexedPriorityQLow<double>::ReorderUpwards
PUBLIC	?ReorderDownwards@?$IndexedPriorityQLow@N@@AAEXHH@Z ; IndexedPriorityQLow<double>::ReorderDownwards
PUBLIC	??0?$IndexedPriorityQLow@N@@QAE@AAV?$vector@NV?$allocator@N@std@@@std@@H@Z ; IndexedPriorityQLow<double>::IndexedPriorityQLow<double>
PUBLIC	?empty@?$IndexedPriorityQLow@N@@QBE_NXZ		; IndexedPriorityQLow<double>::empty
PUBLIC	?insert@?$IndexedPriorityQLow@N@@QAEXH@Z	; IndexedPriorityQLow<double>::insert
PUBLIC	?Pop@?$IndexedPriorityQLow@N@@QAEHXZ		; IndexedPriorityQLow<double>::Pop
PUBLIC	?ChangePriority@?$IndexedPriorityQLow@N@@QAEXH@Z ; IndexedPriorityQLow<double>::ChangePriority
PUBLIC	??1?$IndexedPriorityQLow@N@@QAE@XZ		; IndexedPriorityQLow<double>::~IndexedPriorityQLow<double>
PUBLIC	??_G?$IndexedPriorityQLow@N@@QAEPAXI@Z		; IndexedPriorityQLow<double>::`scalar deleting destructor'
PUBLIC	?pointer_to@?$pointer_traits@PAVPathEdge@@@std@@SAPAVPathEdge@@AAV3@@Z ; std::pointer_traits<PathEdge *>::pointer_to
PUBLIC	??$addressof@$$CBV?$_List_val@U?$_List_simple_types@PAV?$Trigger@VRaven_Bot@@@@@std@@@std@@@std@@YAPBV?$_List_val@U?$_List_simple_types@PAV?$Trigger@VRaven_Bot@@@@@std@@@0@ABV10@@Z ; std::addressof<std::_List_val<std::_List_simple_types<Trigger<Raven_Bot> *> > const >
PUBLIC	??0?$_List_unchecked_const_iterator@V?$_List_val@U?$_List_simple_types@VPathEdge@@@std@@@std@@U_Iterator_base0@2@@std@@QAE@PAU?$_List_node@VPathEdge@@PAX@1@PBV?$_List_val@U?$_List_simple_types@VPathEdge@@@std@@@1@@Z ; std::_List_unchecked_const_iterator<std::_List_val<std::_List_simple_types<PathEdge> >,std::_Iterator_base0>::_List_unchecked_const_iterator<std::_List_val<std::_List_simple_types<PathEdge> >,std::_Iterator_base0>
PUBLIC	??$addressof@V?$_List_val@U?$_List_simple_types@VPathEdge@@@std@@@std@@@std@@YAPAV?$_List_val@U?$_List_simple_types@VPathEdge@@@std@@@0@AAV10@@Z ; std::addressof<std::_List_val<std::_List_simple_types<PathEdge> > >
PUBLIC	??0?$_List_unchecked_iterator@V?$_List_val@U?$_List_simple_types@VPathEdge@@@std@@@std@@@std@@QAE@PAU?$_List_node@VPathEdge@@PAX@1@PBV?$_List_val@U?$_List_simple_types@VPathEdge@@@std@@@1@@Z ; std::_List_unchecked_iterator<std::_List_val<std::_List_simple_types<PathEdge> > >::_List_unchecked_iterator<std::_List_val<std::_List_simple_types<PathEdge> > >
PUBLIC	??$move@AAVPathEdge@@@std@@YA$$QAVPathEdge@@AAV1@@Z ; std::move<PathEdge &>
PUBLIC	??$_Insert@VPathEdge@@@?$list@VPathEdge@@V?$allocator@VPathEdge@@@std@@@std@@QAEXV?$_List_unchecked_const_iterator@V?$_List_val@U?$_List_simple_types@VPathEdge@@@std@@@std@@U_Iterator_base0@2@@1@$$QAVPathEdge@@@Z ; std::list<PathEdge,std::allocator<PathEdge> >::_Insert<PathEdge>
PUBLIC	??$move@AAV?$allocator@U?$_List_node@VPathEdge@@PAX@std@@@std@@@std@@YA$$QAV?$allocator@U?$_List_node@VPathEdge@@PAX@std@@@0@AAV10@@Z ; std::move<std::allocator<std::_List_node<PathEdge,void *> > &>
PUBLIC	??$?0V?$allocator@U?$_List_node@VPathEdge@@PAX@std@@@std@@X@?$_List_buy@VPathEdge@@V?$allocator@VPathEdge@@@std@@@std@@QAE@$$QAV?$allocator@U?$_List_node@VPathEdge@@PAX@std@@@1@@Z ; std::_List_buy<PathEdge,std::allocator<PathEdge> >::_List_buy<PathEdge,std::allocator<PathEdge> ><std::allocator<std::_List_node<PathEdge,void *> >,void>
PUBLIC	??$move@AAV?$list@VPathEdge@@V?$allocator@VPathEdge@@@std@@@std@@@std@@YA$$QAV?$list@VPathEdge@@V?$allocator@VPathEdge@@@std@@@0@AAV10@@Z ; std::move<std::list<PathEdge,std::allocator<PathEdge> > &>
PUBLIC	??0?$_List_unchecked_const_iterator@V?$_List_val@U?$_List_simple_types@H@std@@@std@@U_Iterator_base12@2@@std@@QAE@PAU?$_List_node@HPAX@1@PBV?$_List_val@U?$_List_simple_types@H@std@@@1@@Z ; std::_List_unchecked_const_iterator<std::_List_val<std::_List_simple_types<int> >,std::_Iterator_base12>::_List_unchecked_const_iterator<std::_List_val<std::_List_simple_types<int> >,std::_Iterator_base12>
PUBLIC	??1?$_List_unchecked_const_iterator@V?$_List_val@U?$_List_simple_types@H@std@@@std@@U_Iterator_base12@2@@std@@QAE@XZ ; std::_List_unchecked_const_iterator<std::_List_val<std::_List_simple_types<int> >,std::_Iterator_base12>::~_List_unchecked_const_iterator<std::_List_val<std::_List_simple_types<int> >,std::_Iterator_base12>
PUBLIC	??0?$_List_const_iterator@V?$_List_val@U?$_List_simple_types@H@std@@@std@@@std@@QAE@PAU?$_List_node@HPAX@1@PBV?$_List_val@U?$_List_simple_types@H@std@@@1@@Z ; std::_List_const_iterator<std::_List_val<std::_List_simple_types<int> > >::_List_const_iterator<std::_List_val<std::_List_simple_types<int> > >
PUBLIC	??D?$_List_const_iterator@V?$_List_val@U?$_List_simple_types@H@std@@@std@@@std@@QBEABHXZ ; std::_List_const_iterator<std::_List_val<std::_List_simple_types<int> > >::operator*
PUBLIC	??F?$_List_const_iterator@V?$_List_val@U?$_List_simple_types@H@std@@@std@@@std@@QAEAAV01@XZ ; std::_List_const_iterator<std::_List_val<std::_List_simple_types<int> > >::operator--
PUBLIC	??1?$_List_const_iterator@V?$_List_val@U?$_List_simple_types@H@std@@@std@@@std@@QAE@XZ ; std::_List_const_iterator<std::_List_val<std::_List_simple_types<int> > >::~_List_const_iterator<std::_List_val<std::_List_simple_types<int> > >
PUBLIC	??0?$_List_iterator@V?$_List_val@U?$_List_simple_types@H@std@@@std@@@std@@QAE@PAU?$_List_node@HPAX@1@PBV?$_List_val@U?$_List_simple_types@H@std@@@1@@Z ; std::_List_iterator<std::_List_val<std::_List_simple_types<int> > >::_List_iterator<std::_List_val<std::_List_simple_types<int> > >
PUBLIC	??D?$_List_iterator@V?$_List_val@U?$_List_simple_types@H@std@@@std@@@std@@QBEAAHXZ ; std::_List_iterator<std::_List_val<std::_List_simple_types<int> > >::operator*
PUBLIC	??F?$_List_iterator@V?$_List_val@U?$_List_simple_types@H@std@@@std@@@std@@QAEAAV01@XZ ; std::_List_iterator<std::_List_val<std::_List_simple_types<int> > >::operator--
PUBLIC	??1?$_List_iterator@V?$_List_val@U?$_List_simple_types@H@std@@@std@@@std@@QAE@XZ ; std::_List_iterator<std::_List_val<std::_List_simple_types<int> > >::~_List_iterator<std::_List_val<std::_List_simple_types<int> > >
PUBLIC	??$_Min_value@I@std@@YAABIABI0@Z		; std::_Min_value<unsigned int>
PUBLIC	??$addressof@VPathEdge@@@std@@YAPAVPathEdge@@AAV1@@Z ; std::addressof<PathEdge>
PUBLIC	??$addressof@V?$_Vector_val@U?$_Simple_types@PAV?$NavGraphNode@PAV?$Trigger@VRaven_Bot@@@@@@@std@@@std@@@std@@YAPAV?$_Vector_val@U?$_Simple_types@PAV?$NavGraphNode@PAV?$Trigger@VRaven_Bot@@@@@@@std@@@0@AAV10@@Z ; std::addressof<std::_Vector_val<std::_Simple_types<NavGraphNode<Trigger<Raven_Bot> *> *> > >
PUBLIC	??$destroy@VPathEdge@@@?$_Default_allocator_traits@V?$allocator@U?$_List_node@VPathEdge@@PAX@std@@@std@@@std@@SAXAAV?$allocator@U?$_List_node@VPathEdge@@PAX@std@@@1@QAVPathEdge@@@Z ; std::_Default_allocator_traits<std::allocator<std::_List_node<PathEdge,void *> > >::destroy<PathEdge>
PUBLIC	??$_Freenode0@V?$allocator@U?$_List_node@VPathEdge@@PAX@std@@@std@@@?$_List_node@VPathEdge@@PAX@std@@SAXAAV?$allocator@U?$_List_node@VPathEdge@@PAX@std@@@1@PAU01@@Z ; std::_List_node<PathEdge,void *>::_Freenode0<std::allocator<std::_List_node<PathEdge,void *> > >
PUBLIC	??$?0V?$allocator@PBVNavGraphEdge@@@std@@X@?$_Vector_alloc@U?$_Vec_base_types@PBVNavGraphEdge@@V?$allocator@PBVNavGraphEdge@@@std@@@std@@@std@@QAE@$$QAV?$allocator@PBVNavGraphEdge@@@1@@Z ; std::_Vector_alloc<std::_Vec_base_types<NavGraphEdge const *,std::allocator<NavGraphEdge const *> > >::_Vector_alloc<std::_Vec_base_types<NavGraphEdge const *,std::allocator<NavGraphEdge const *> > ><std::allocator<NavGraphEdge const *>,void>
PUBLIC	??$_Ucopy@PAPBVNavGraphEdge@@@?$vector@PBVNavGraphEdge@@V?$allocator@PBVNavGraphEdge@@@std@@@std@@AAEPAPBVNavGraphEdge@@PAPBV2@00@Z ; std::vector<NavGraphEdge const *,std::allocator<NavGraphEdge const *> >::_Ucopy<NavGraphEdge const * *>
PUBLIC	??$?0ABV?$allocator@PBVNavGraphEdge@@@std@@X@?$_Vector_alloc@U?$_Vec_base_types@PBVNavGraphEdge@@V?$allocator@PBVNavGraphEdge@@@std@@@std@@@std@@QAE@ABV?$allocator@PBVNavGraphEdge@@@1@@Z ; std::_Vector_alloc<std::_Vec_base_types<NavGraphEdge const *,std::allocator<NavGraphEdge const *> > >::_Vector_alloc<std::_Vec_base_types<NavGraphEdge const *,std::allocator<NavGraphEdge const *> > ><std::allocator<NavGraphEdge const *> const &,void>
PUBLIC	??$addressof@$$CBV?$_List_val@U?$_List_simple_types@VPathEdge@@@std@@@std@@@std@@YAPBV?$_List_val@U?$_List_simple_types@VPathEdge@@@std@@@0@ABV10@@Z ; std::addressof<std::_List_val<std::_List_simple_types<PathEdge> > const >
PUBLIC	??$_Swap_adl@PAU?$_List_node@VPathEdge@@PAX@std@@@std@@YAXAAPAU?$_List_node@VPathEdge@@PAX@0@0@Z ; std::_Swap_adl<std::_List_node<PathEdge,void *> *>
PUBLIC	??$swap@PAU?$_List_node@VPathEdge@@PAX@std@@X@std@@YAXAAPAU?$_List_node@VPathEdge@@PAX@0@0@Z ; std::swap<std::_List_node<PathEdge,void *> *,void>
PUBLIC	??$swap@IX@std@@YAXAAI0@Z			; std::swap<unsigned int,void>
PUBLIC	??$addressof@V?$_List_val@U?$_List_simple_types@H@std@@@std@@@std@@YAPAV?$_List_val@U?$_List_simple_types@H@std@@@0@AAV10@@Z ; std::addressof<std::_List_val<std::_List_simple_types<int> > >
PUBLIC	??$?0ABV?$allocator@N@std@@X@?$_Vector_alloc@U?$_Vec_base_types@NV?$allocator@N@std@@@std@@@std@@QAE@ABV?$allocator@N@1@@Z ; std::_Vector_alloc<std::_Vec_base_types<double,std::allocator<double> > >::_Vector_alloc<std::_Vec_base_types<double,std::allocator<double> > ><std::allocator<double> const &,void>
PUBLIC	??$_Allocate@$07U_Default_allocate_traits@std@@$0A@@std@@YAPAXI@Z ; std::_Allocate<8,std::_Default_allocate_traits,0>
PUBLIC	??$_Deallocate@$07$0A@@std@@YAXPAXI@Z		; std::_Deallocate<8,0>
PUBLIC	??$_Freenode0@V?$allocator@U?$_List_node@HPAX@std@@@std@@@?$_List_node@HPAX@std@@SAXAAV?$allocator@U?$_List_node@HPAX@std@@@1@PAU01@@Z ; std::_List_node<int,void *>::_Freenode0<std::allocator<std::_List_node<int,void *> > >
PUBLIC	?allocate@?$allocator@U_Container_proxy@std@@@std@@QAEPAU_Container_proxy@2@I@Z ; std::allocator<std::_Container_proxy>::allocate
PUBLIC	??$?0U?$_List_node@HPAX@std@@@?$allocator@U_Container_proxy@std@@@std@@QAE@ABV?$allocator@U?$_List_node@HPAX@std@@@1@@Z ; std::allocator<std::_Container_proxy>::allocator<std::_Container_proxy><std::_List_node<int,void *> >
PUBLIC	?deallocate@?$_Default_allocator_traits@V?$allocator@U_Container_proxy@std@@@std@@@std@@SAXAAV?$allocator@U_Container_proxy@std@@@2@QAU_Container_proxy@2@I@Z ; std::_Default_allocator_traits<std::allocator<std::_Container_proxy> >::deallocate
PUBLIC	??$destroy@U_Container_proxy@std@@@?$_Default_allocator_traits@V?$allocator@U_Container_proxy@std@@@std@@@std@@SAXAAV?$allocator@U_Container_proxy@std@@@1@QAU_Container_proxy@1@@Z ; std::_Default_allocator_traits<std::allocator<std::_Container_proxy> >::destroy<std::_Container_proxy>
PUBLIC	??$_Deallocate_plain@V?$allocator@U_Container_proxy@std@@@std@@$0A@@std@@YAXAAV?$allocator@U_Container_proxy@std@@@0@QAU_Container_proxy@0@@Z ; std::_Deallocate_plain<std::allocator<std::_Container_proxy>,0>
PUBLIC	??$?0U?$_List_node@VPathEdge@@PAX@std@@@?$allocator@U_Container_proxy@std@@@std@@QAE@ABV?$allocator@U?$_List_node@VPathEdge@@PAX@std@@@1@@Z ; std::allocator<std::_Container_proxy>::allocator<std::_Container_proxy><std::_List_node<PathEdge,void *> >
PUBLIC	??$_Uninitialized_value_construct_n@PAPBVNavGraphEdge@@IV?$allocator@PBVNavGraphEdge@@@std@@@std@@YAPAPBVNavGraphEdge@@PAPBV1@IAAV?$allocator@PBVNavGraphEdge@@@0@@Z ; std::_Uninitialized_value_construct_n<NavGraphEdge const * *,unsigned int,std::allocator<NavGraphEdge const *> >
PUBLIC	??$_Unfancy@U_Container_proxy@std@@@std@@YAPAU_Container_proxy@0@PAU10@@Z ; std::_Unfancy<std::_Container_proxy>
PUBLIC	??$construct@U_Container_proxy@std@@U12@@?$_Default_allocator_traits@V?$allocator@U_Container_proxy@std@@@std@@@std@@SAXAAV?$allocator@U_Container_proxy@std@@@1@QAU_Container_proxy@1@$$QAU31@@Z ; std::_Default_allocator_traits<std::allocator<std::_Container_proxy> >::construct<std::_Container_proxy,std::_Container_proxy>
PUBLIC	??$_Fill_unchecked@PAHH@std@@YAXPAH0ABH@Z	; std::_Fill_unchecked<int *,int>
PUBLIC	??$_Uninitialized_fill_n@PANIV?$allocator@N@std@@@std@@YAPANQANIABNAAV?$allocator@N@0@@Z ; std::_Uninitialized_fill_n<double *,unsigned int,std::allocator<double> >
PUBLIC	??$?0PBVNavGraphEdge@@@?$allocator@U_Container_proxy@std@@@std@@QAE@ABV?$allocator@PBVNavGraphEdge@@@1@@Z ; std::allocator<std::_Container_proxy>::allocator<std::_Container_proxy><NavGraphEdge const *>
PUBLIC	??$addressof@H@std@@YAPAHAAH@Z			; std::addressof<int>
PUBLIC	??$destroy@H@?$_Default_allocator_traits@V?$allocator@U?$_List_node@HPAX@std@@@std@@@std@@SAXAAV?$allocator@U?$_List_node@HPAX@std@@@1@QAH@Z ; std::_Default_allocator_traits<std::allocator<std::_List_node<int,void *> > >::destroy<int>
PUBLIC	??$_Destroy_range@V?$allocator@PBVNavGraphEdge@@@std@@@std@@YAXPAPBVNavGraphEdge@@0AAV?$allocator@PBVNavGraphEdge@@@0@@Z ; std::_Destroy_range<std::allocator<NavGraphEdge const *> >
PUBLIC	??$_Get_size_of_n@$03@std@@YAII@Z		; std::_Get_size_of_n<4>
PUBLIC	??$?0H@?$allocator@U_Container_proxy@std@@@std@@QAE@ABV?$allocator@H@1@@Z ; std::allocator<std::_Container_proxy>::allocator<std::_Container_proxy><int>
PUBLIC	??$?0$$V@?$_Compressed_pair@V?$allocator@H@std@@V?$_Vector_val@U?$_Simple_types@H@std@@@2@$00@std@@QAE@U_Zero_then_variadic_args_t@1@@Z ; std::_Compressed_pair<std::allocator<int>,std::_Vector_val<std::_Simple_types<int> >,1>::_Compressed_pair<std::allocator<int>,std::_Vector_val<std::_Simple_types<int> >,1><>
PUBLIC	??$_Destroy_range@V?$allocator@H@std@@@std@@YAXPAH0AAV?$allocator@H@0@@Z ; std::_Destroy_range<std::allocator<int> >
PUBLIC	??$_Uninitialized_fill_n@PAHIV?$allocator@H@std@@@std@@YAPAHQAHIABHAAV?$allocator@H@0@@Z ; std::_Uninitialized_fill_n<int *,unsigned int,std::allocator<int> >
PUBLIC	??$?0N@?$allocator@U_Container_proxy@std@@@std@@QAE@ABV?$allocator@N@1@@Z ; std::allocator<std::_Container_proxy>::allocator<std::_Container_proxy><double>
PUBLIC	??$_Destroy_range@V?$allocator@N@std@@@std@@YAXPAN0AAV?$allocator@N@0@@Z ; std::_Destroy_range<std::allocator<double> >
PUBLIC	??$_Get_size_of_n@$07@std@@YAII@Z		; std::_Get_size_of_n<8>
PUBLIC	??$addressof@V?$_Vector_val@U?$_Simple_types@H@std@@@std@@@std@@YAPAV?$_Vector_val@U?$_Simple_types@H@std@@@0@AAV10@@Z ; std::addressof<std::_Vector_val<std::_Simple_types<int> > >
PUBLIC	??$_Get_size_of_n@$0DA@@std@@YAII@Z		; std::_Get_size_of_n<48>
PUBLIC	??0?$_Vector_const_iterator@V?$_Vector_val@U?$_Simple_types@U?$Cell@PAV?$NavGraphNode@PAV?$Trigger@VRaven_Bot@@@@@@@@@std@@@std@@@std@@QAE@XZ ; std::_Vector_const_iterator<std::_Vector_val<std::_Simple_types<Cell<NavGraphNode<Trigger<Raven_Bot> *> *> > > >::_Vector_const_iterator<std::_Vector_val<std::_Simple_types<Cell<NavGraphNode<Trigger<Raven_Bot> *> *> > > >
PUBLIC	??0?$_Vector_const_iterator@V?$_Vector_val@U?$_Simple_types@U?$Cell@PAV?$NavGraphNode@PAV?$Trigger@VRaven_Bot@@@@@@@@@std@@@std@@@std@@QAE@PAU?$Cell@PAV?$NavGraphNode@PAV?$Trigger@VRaven_Bot@@@@@@@@PBU_Container_base12@1@@Z ; std::_Vector_const_iterator<std::_Vector_val<std::_Simple_types<Cell<NavGraphNode<Trigger<Raven_Bot> *> *> > > >::_Vector_const_iterator<std::_Vector_val<std::_Simple_types<Cell<NavGraphNode<Trigger<Raven_Bot> *> *> > > >
PUBLIC	??C?$_Vector_const_iterator@V?$_Vector_val@U?$_Simple_types@U?$Cell@PAV?$NavGraphNode@PAV?$Trigger@VRaven_Bot@@@@@@@@@std@@@std@@@std@@QBEPBU?$Cell@PAV?$NavGraphNode@PAV?$Trigger@VRaven_Bot@@@@@@@@XZ ; std::_Vector_const_iterator<std::_Vector_val<std::_Simple_types<Cell<NavGraphNode<Trigger<Raven_Bot> *> *> > > >::operator->
PUBLIC	??E?$_Vector_const_iterator@V?$_Vector_val@U?$_Simple_types@U?$Cell@PAV?$NavGraphNode@PAV?$Trigger@VRaven_Bot@@@@@@@@@std@@@std@@@std@@QAEAAV01@XZ ; std::_Vector_const_iterator<std::_Vector_val<std::_Simple_types<Cell<NavGraphNode<Trigger<Raven_Bot> *> *> > > >::operator++
PUBLIC	??8?$_Vector_const_iterator@V?$_Vector_val@U?$_Simple_types@U?$Cell@PAV?$NavGraphNode@PAV?$Trigger@VRaven_Bot@@@@@@@@@std@@@std@@@std@@QBE_NABV01@@Z ; std::_Vector_const_iterator<std::_Vector_val<std::_Simple_types<Cell<NavGraphNode<Trigger<Raven_Bot> *> *> > > >::operator==
PUBLIC	??9?$_Vector_const_iterator@V?$_Vector_val@U?$_Simple_types@U?$Cell@PAV?$NavGraphNode@PAV?$Trigger@VRaven_Bot@@@@@@@@@std@@@std@@@std@@QBE_NABV01@@Z ; std::_Vector_const_iterator<std::_Vector_val<std::_Simple_types<Cell<NavGraphNode<Trigger<Raven_Bot> *> *> > > >::operator!=
PUBLIC	?_Compat@?$_Vector_const_iterator@V?$_Vector_val@U?$_Simple_types@U?$Cell@PAV?$NavGraphNode@PAV?$Trigger@VRaven_Bot@@@@@@@@@std@@@std@@@std@@QBEXABV12@@Z ; std::_Vector_const_iterator<std::_Vector_val<std::_Simple_types<Cell<NavGraphNode<Trigger<Raven_Bot> *> *> > > >::_Compat
PUBLIC	??1?$_Vector_const_iterator@V?$_Vector_val@U?$_Simple_types@U?$Cell@PAV?$NavGraphNode@PAV?$Trigger@VRaven_Bot@@@@@@@@@std@@@std@@@std@@QAE@XZ ; std::_Vector_const_iterator<std::_Vector_val<std::_Simple_types<Cell<NavGraphNode<Trigger<Raven_Bot> *> *> > > >::~_Vector_const_iterator<std::_Vector_val<std::_Simple_types<Cell<NavGraphNode<Trigger<Raven_Bot> *> *> > > >
PUBLIC	??4?$_Vector_const_iterator@V?$_Vector_val@U?$_Simple_types@U?$Cell@PAV?$NavGraphNode@PAV?$Trigger@VRaven_Bot@@@@@@@@@std@@@std@@@std@@QAEAAV01@$$QAV01@@Z ; std::_Vector_const_iterator<std::_Vector_val<std::_Simple_types<Cell<NavGraphNode<Trigger<Raven_Bot> *> *> > > >::operator=
PUBLIC	??0?$_Vector_iterator@V?$_Vector_val@U?$_Simple_types@U?$Cell@PAV?$NavGraphNode@PAV?$Trigger@VRaven_Bot@@@@@@@@@std@@@std@@@std@@QAE@XZ ; std::_Vector_iterator<std::_Vector_val<std::_Simple_types<Cell<NavGraphNode<Trigger<Raven_Bot> *> *> > > >::_Vector_iterator<std::_Vector_val<std::_Simple_types<Cell<NavGraphNode<Trigger<Raven_Bot> *> *> > > >
PUBLIC	??0?$_Vector_iterator@V?$_Vector_val@U?$_Simple_types@U?$Cell@PAV?$NavGraphNode@PAV?$Trigger@VRaven_Bot@@@@@@@@@std@@@std@@@std@@QAE@PAU?$Cell@PAV?$NavGraphNode@PAV?$Trigger@VRaven_Bot@@@@@@@@PBU_Container_base12@1@@Z ; std::_Vector_iterator<std::_Vector_val<std::_Simple_types<Cell<NavGraphNode<Trigger<Raven_Bot> *> *> > > >::_Vector_iterator<std::_Vector_val<std::_Simple_types<Cell<NavGraphNode<Trigger<Raven_Bot> *> *> > > >
PUBLIC	??C?$_Vector_iterator@V?$_Vector_val@U?$_Simple_types@U?$Cell@PAV?$NavGraphNode@PAV?$Trigger@VRaven_Bot@@@@@@@@@std@@@std@@@std@@QBEPAU?$Cell@PAV?$NavGraphNode@PAV?$Trigger@VRaven_Bot@@@@@@@@XZ ; std::_Vector_iterator<std::_Vector_val<std::_Simple_types<Cell<NavGraphNode<Trigger<Raven_Bot> *> *> > > >::operator->
PUBLIC	??E?$_Vector_iterator@V?$_Vector_val@U?$_Simple_types@U?$Cell@PAV?$NavGraphNode@PAV?$Trigger@VRaven_Bot@@@@@@@@@std@@@std@@@std@@QAEAAV01@XZ ; std::_Vector_iterator<std::_Vector_val<std::_Simple_types<Cell<NavGraphNode<Trigger<Raven_Bot> *> *> > > >::operator++
PUBLIC	??1?$_Vector_iterator@V?$_Vector_val@U?$_Simple_types@U?$Cell@PAV?$NavGraphNode@PAV?$Trigger@VRaven_Bot@@@@@@@@@std@@@std@@@std@@QAE@XZ ; std::_Vector_iterator<std::_Vector_val<std::_Simple_types<Cell<NavGraphNode<Trigger<Raven_Bot> *> *> > > >::~_Vector_iterator<std::_Vector_val<std::_Simple_types<Cell<NavGraphNode<Trigger<Raven_Bot> *> *> > > >
PUBLIC	??4?$_Vector_iterator@V?$_Vector_val@U?$_Simple_types@U?$Cell@PAV?$NavGraphNode@PAV?$Trigger@VRaven_Bot@@@@@@@@@std@@@std@@@std@@QAEAAV01@$$QAV01@@Z ; std::_Vector_iterator<std::_Vector_val<std::_Simple_types<Cell<NavGraphNode<Trigger<Raven_Bot> *> *> > > >::operator=
PUBLIC	?_Get_data@?$_List_alloc@U?$_List_base_types@PAV?$NavGraphNode@PAV?$Trigger@VRaven_Bot@@@@@@V?$allocator@PAV?$NavGraphNode@PAV?$Trigger@VRaven_Bot@@@@@@@std@@@std@@@std@@QAEAAV?$_List_val@U?$_List_simple_types@PAV?$NavGraphNode@PAV?$Trigger@VRaven_Bot@@@@@@@std@@@2@XZ ; std::_List_alloc<std::_List_base_types<NavGraphNode<Trigger<Raven_Bot> *> *,std::allocator<NavGraphNode<Trigger<Raven_Bot> *> *> > >::_Get_data
PUBLIC	?_Get_data@?$_List_alloc@U?$_List_base_types@PAV?$NavGraphNode@PAV?$Trigger@VRaven_Bot@@@@@@V?$allocator@PAV?$NavGraphNode@PAV?$Trigger@VRaven_Bot@@@@@@@std@@@std@@@std@@QBEABV?$_List_val@U?$_List_simple_types@PAV?$NavGraphNode@PAV?$Trigger@VRaven_Bot@@@@@@@std@@@2@XZ ; std::_List_alloc<std::_List_base_types<NavGraphNode<Trigger<Raven_Bot> *> *,std::allocator<NavGraphNode<Trigger<Raven_Bot> *> *> > >::_Get_data
PUBLIC	?_Myhead@?$_List_alloc@U?$_List_base_types@PAV?$NavGraphNode@PAV?$Trigger@VRaven_Bot@@@@@@V?$allocator@PAV?$NavGraphNode@PAV?$Trigger@VRaven_Bot@@@@@@@std@@@std@@@std@@QAEAAPAU?$_List_node@PAV?$NavGraphNode@PAV?$Trigger@VRaven_Bot@@@@@@PAX@2@XZ ; std::_List_alloc<std::_List_base_types<NavGraphNode<Trigger<Raven_Bot> *> *,std::allocator<NavGraphNode<Trigger<Raven_Bot> *> *> > >::_Myhead
PUBLIC	?_Mysize@?$_List_alloc@U?$_List_base_types@PAV?$NavGraphNode@PAV?$Trigger@VRaven_Bot@@@@@@V?$allocator@PAV?$NavGraphNode@PAV?$Trigger@VRaven_Bot@@@@@@@std@@@std@@@std@@QBEABIXZ ; std::_List_alloc<std::_List_base_types<NavGraphNode<Trigger<Raven_Bot> *> *,std::allocator<NavGraphNode<Trigger<Raven_Bot> *> *> > >::_Mysize
PUBLIC	?_Get_second@?$_Compressed_pair@V?$allocator@U?$_List_node@PAV?$NavGraphNode@PAV?$Trigger@VRaven_Bot@@@@@@PAX@std@@@std@@V?$_List_val@U?$_List_simple_types@PAV?$NavGraphNode@PAV?$Trigger@VRaven_Bot@@@@@@@std@@@2@$00@std@@QAEAAV?$_List_val@U?$_List_simple_types@PAV?$NavGraphNode@PAV?$Trigger@VRaven_Bot@@@@@@@std@@@2@XZ ; std::_Compressed_pair<std::allocator<std::_List_node<NavGraphNode<Trigger<Raven_Bot> *> *,void *> >,std::_List_val<std::_List_simple_types<NavGraphNode<Trigger<Raven_Bot> *> *> >,1>::_Get_second
PUBLIC	?_Get_second@?$_Compressed_pair@V?$allocator@U?$_List_node@PAV?$NavGraphNode@PAV?$Trigger@VRaven_Bot@@@@@@PAX@std@@@std@@V?$_List_val@U?$_List_simple_types@PAV?$NavGraphNode@PAV?$Trigger@VRaven_Bot@@@@@@@std@@@2@$00@std@@QBEABV?$_List_val@U?$_List_simple_types@PAV?$NavGraphNode@PAV?$Trigger@VRaven_Bot@@@@@@@std@@@2@XZ ; std::_Compressed_pair<std::allocator<std::_List_node<NavGraphNode<Trigger<Raven_Bot> *> *,void *> >,std::_List_val<std::_List_simple_types<NavGraphNode<Trigger<Raven_Bot> *> *> >,1>::_Get_second
PUBLIC	?begin@?$list@PAV?$NavGraphNode@PAV?$Trigger@VRaven_Bot@@@@@@V?$allocator@PAV?$NavGraphNode@PAV?$Trigger@VRaven_Bot@@@@@@@std@@@std@@QAE?AV?$_List_iterator@V?$_List_val@U?$_List_simple_types@PAV?$NavGraphNode@PAV?$Trigger@VRaven_Bot@@@@@@@std@@@std@@@2@XZ ; std::list<NavGraphNode<Trigger<Raven_Bot> *> *,std::allocator<NavGraphNode<Trigger<Raven_Bot> *> *> >::begin
PUBLIC	?end@?$list@PAV?$NavGraphNode@PAV?$Trigger@VRaven_Bot@@@@@@V?$allocator@PAV?$NavGraphNode@PAV?$Trigger@VRaven_Bot@@@@@@@std@@@std@@QAE?AV?$_List_iterator@V?$_List_val@U?$_List_simple_types@PAV?$NavGraphNode@PAV?$Trigger@VRaven_Bot@@@@@@@std@@@std@@@2@XZ ; std::list<NavGraphNode<Trigger<Raven_Bot> *> *,std::allocator<NavGraphNode<Trigger<Raven_Bot> *> *> >::end
PUBLIC	?empty@?$list@PAV?$NavGraphNode@PAV?$Trigger@VRaven_Bot@@@@@@V?$allocator@PAV?$NavGraphNode@PAV?$Trigger@VRaven_Bot@@@@@@@std@@@std@@QBE_NXZ ; std::list<NavGraphNode<Trigger<Raven_Bot> *> *,std::allocator<NavGraphNode<Trigger<Raven_Bot> *> *> >::empty
PUBLIC	??0?$_List_unchecked_const_iterator@V?$_List_val@U?$_List_simple_types@PAV?$NavGraphNode@PAV?$Trigger@VRaven_Bot@@@@@@@std@@@std@@U_Iterator_base12@2@@std@@QAE@PAU?$_List_node@PAV?$NavGraphNode@PAV?$Trigger@VRaven_Bot@@@@@@PAX@1@PBV?$_List_val@U?$_List_simple_types@PAV?$NavGraphNode@PAV?$Trigger@VRaven_Bot@@@@@@@std@@@1@@Z ; std::_List_unchecked_const_iterator<std::_List_val<std::_List_simple_types<NavGraphNode<Trigger<Raven_Bot> *> *> >,std::_Iterator_base12>::_List_unchecked_const_iterator<std::_List_val<std::_List_simple_types<NavGraphNode<Trigger<Raven_Bot> *> *> >,std::_Iterator_base12>
PUBLIC	??1?$_List_unchecked_const_iterator@V?$_List_val@U?$_List_simple_types@PAV?$NavGraphNode@PAV?$Trigger@VRaven_Bot@@@@@@@std@@@std@@U_Iterator_base12@2@@std@@QAE@XZ ; std::_List_unchecked_const_iterator<std::_List_val<std::_List_simple_types<NavGraphNode<Trigger<Raven_Bot> *> *> >,std::_Iterator_base12>::~_List_unchecked_const_iterator<std::_List_val<std::_List_simple_types<NavGraphNode<Trigger<Raven_Bot> *> *> >,std::_Iterator_base12>
PUBLIC	??0?$_List_const_iterator@V?$_List_val@U?$_List_simple_types@PAV?$NavGraphNode@PAV?$Trigger@VRaven_Bot@@@@@@@std@@@std@@@std@@QAE@PAU?$_List_node@PAV?$NavGraphNode@PAV?$Trigger@VRaven_Bot@@@@@@PAX@1@PBV?$_List_val@U?$_List_simple_types@PAV?$NavGraphNode@PAV?$Trigger@VRaven_Bot@@@@@@@std@@@1@@Z ; std::_List_const_iterator<std::_List_val<std::_List_simple_types<NavGraphNode<Trigger<Raven_Bot> *> *> > >::_List_const_iterator<std::_List_val<std::_List_simple_types<NavGraphNode<Trigger<Raven_Bot> *> *> > >
PUBLIC	??D?$_List_const_iterator@V?$_List_val@U?$_List_simple_types@PAV?$NavGraphNode@PAV?$Trigger@VRaven_Bot@@@@@@@std@@@std@@@std@@QBEABQAV?$NavGraphNode@PAV?$Trigger@VRaven_Bot@@@@@@XZ ; std::_List_const_iterator<std::_List_val<std::_List_simple_types<NavGraphNode<Trigger<Raven_Bot> *> *> > >::operator*
PUBLIC	??E?$_List_const_iterator@V?$_List_val@U?$_List_simple_types@PAV?$NavGraphNode@PAV?$Trigger@VRaven_Bot@@@@@@@std@@@std@@@std@@QAEAAV01@XZ ; std::_List_const_iterator<std::_List_val<std::_List_simple_types<NavGraphNode<Trigger<Raven_Bot> *> *> > >::operator++
PUBLIC	??8?$_List_const_iterator@V?$_List_val@U?$_List_simple_types@PAV?$NavGraphNode@PAV?$Trigger@VRaven_Bot@@@@@@@std@@@std@@@std@@QBE_NABV01@@Z ; std::_List_const_iterator<std::_List_val<std::_List_simple_types<NavGraphNode<Trigger<Raven_Bot> *> *> > >::operator==
PUBLIC	??9?$_List_const_iterator@V?$_List_val@U?$_List_simple_types@PAV?$NavGraphNode@PAV?$Trigger@VRaven_Bot@@@@@@@std@@@std@@@std@@QBE_NABV01@@Z ; std::_List_const_iterator<std::_List_val<std::_List_simple_types<NavGraphNode<Trigger<Raven_Bot> *> *> > >::operator!=
PUBLIC	??1?$_List_const_iterator@V?$_List_val@U?$_List_simple_types@PAV?$NavGraphNode@PAV?$Trigger@VRaven_Bot@@@@@@@std@@@std@@@std@@QAE@XZ ; std::_List_const_iterator<std::_List_val<std::_List_simple_types<NavGraphNode<Trigger<Raven_Bot> *> *> > >::~_List_const_iterator<std::_List_val<std::_List_simple_types<NavGraphNode<Trigger<Raven_Bot> *> *> > >
PUBLIC	??0?$_List_iterator@V?$_List_val@U?$_List_simple_types@PAV?$NavGraphNode@PAV?$Trigger@VRaven_Bot@@@@@@@std@@@std@@@std@@QAE@PAU?$_List_node@PAV?$NavGraphNode@PAV?$Trigger@VRaven_Bot@@@@@@PAX@1@PBV?$_List_val@U?$_List_simple_types@PAV?$NavGraphNode@PAV?$Trigger@VRaven_Bot@@@@@@@std@@@1@@Z ; std::_List_iterator<std::_List_val<std::_List_simple_types<NavGraphNode<Trigger<Raven_Bot> *> *> > >::_List_iterator<std::_List_val<std::_List_simple_types<NavGraphNode<Trigger<Raven_Bot> *> *> > >
PUBLIC	??D?$_List_iterator@V?$_List_val@U?$_List_simple_types@PAV?$NavGraphNode@PAV?$Trigger@VRaven_Bot@@@@@@@std@@@std@@@std@@QBEAAPAV?$NavGraphNode@PAV?$Trigger@VRaven_Bot@@@@@@XZ ; std::_List_iterator<std::_List_val<std::_List_simple_types<NavGraphNode<Trigger<Raven_Bot> *> *> > >::operator*
PUBLIC	??E?$_List_iterator@V?$_List_val@U?$_List_simple_types@PAV?$NavGraphNode@PAV?$Trigger@VRaven_Bot@@@@@@@std@@@std@@@std@@QAEAAV01@XZ ; std::_List_iterator<std::_List_val<std::_List_simple_types<NavGraphNode<Trigger<Raven_Bot> *> *> > >::operator++
PUBLIC	??1?$_List_iterator@V?$_List_val@U?$_List_simple_types@PAV?$NavGraphNode@PAV?$Trigger@VRaven_Bot@@@@@@@std@@@std@@@std@@QAE@XZ ; std::_List_iterator<std::_List_val<std::_List_simple_types<NavGraphNode<Trigger<Raven_Bot> *> *> > >::~_List_iterator<std::_List_val<std::_List_simple_types<NavGraphNode<Trigger<Raven_Bot> *> *> > >
PUBLIC	??0?$_List_unchecked_const_iterator@V?$_List_val@U?$_List_simple_types@PAVRaven_PathPlanner@@@std@@@std@@U_Iterator_base12@2@@std@@QAE@PAU?$_List_node@PAVRaven_PathPlanner@@PAX@1@PBV?$_List_val@U?$_List_simple_types@PAVRaven_PathPlanner@@@std@@@1@@Z ; std::_List_unchecked_const_iterator<std::_List_val<std::_List_simple_types<Raven_PathPlanner *> >,std::_Iterator_base12>::_List_unchecked_const_iterator<std::_List_val<std::_List_simple_types<Raven_PathPlanner *> >,std::_Iterator_base12>
PUBLIC	??1?$_List_unchecked_const_iterator@V?$_List_val@U?$_List_simple_types@PAVRaven_PathPlanner@@@std@@@std@@U_Iterator_base12@2@@std@@QAE@XZ ; std::_List_unchecked_const_iterator<std::_List_val<std::_List_simple_types<Raven_PathPlanner *> >,std::_Iterator_base12>::~_List_unchecked_const_iterator<std::_List_val<std::_List_simple_types<Raven_PathPlanner *> >,std::_Iterator_base12>
PUBLIC	??0?$_List_unchecked_const_iterator@V?$_List_val@U?$_List_simple_types@PAVRaven_PathPlanner@@@std@@@std@@U_Iterator_base12@2@@std@@QAE@ABV01@@Z ; std::_List_unchecked_const_iterator<std::_List_val<std::_List_simple_types<Raven_PathPlanner *> >,std::_Iterator_base12>::_List_unchecked_const_iterator<std::_List_val<std::_List_simple_types<Raven_PathPlanner *> >,std::_Iterator_base12>
PUBLIC	??0?$_List_unchecked_const_iterator@V?$_List_val@U?$_List_simple_types@PAVRaven_PathPlanner@@@std@@@std@@U_Iterator_base12@2@@std@@QAE@$$QAV01@@Z ; std::_List_unchecked_const_iterator<std::_List_val<std::_List_simple_types<Raven_PathPlanner *> >,std::_Iterator_base12>::_List_unchecked_const_iterator<std::_List_val<std::_List_simple_types<Raven_PathPlanner *> >,std::_Iterator_base12>
PUBLIC	??4?$_List_unchecked_const_iterator@V?$_List_val@U?$_List_simple_types@PAVRaven_PathPlanner@@@std@@@std@@U_Iterator_base12@2@@std@@QAEAAV01@$$QAV01@@Z ; std::_List_unchecked_const_iterator<std::_List_val<std::_List_simple_types<Raven_PathPlanner *> >,std::_Iterator_base12>::operator=
PUBLIC	??0?$_List_const_iterator@V?$_List_val@U?$_List_simple_types@PAVRaven_PathPlanner@@@std@@@std@@@std@@QAE@PAU?$_List_node@PAVRaven_PathPlanner@@PAX@1@PBV?$_List_val@U?$_List_simple_types@PAVRaven_PathPlanner@@@std@@@1@@Z ; std::_List_const_iterator<std::_List_val<std::_List_simple_types<Raven_PathPlanner *> > >::_List_const_iterator<std::_List_val<std::_List_simple_types<Raven_PathPlanner *> > >
PUBLIC	??D?$_List_const_iterator@V?$_List_val@U?$_List_simple_types@PAVRaven_PathPlanner@@@std@@@std@@@std@@QBEABQAVRaven_PathPlanner@@XZ ; std::_List_const_iterator<std::_List_val<std::_List_simple_types<Raven_PathPlanner *> > >::operator*
PUBLIC	??E?$_List_const_iterator@V?$_List_val@U?$_List_simple_types@PAVRaven_PathPlanner@@@std@@@std@@@std@@QAEAAV01@XZ ; std::_List_const_iterator<std::_List_val<std::_List_simple_types<Raven_PathPlanner *> > >::operator++
PUBLIC	??E?$_List_const_iterator@V?$_List_val@U?$_List_simple_types@PAVRaven_PathPlanner@@@std@@@std@@@std@@QAE?AV01@H@Z ; std::_List_const_iterator<std::_List_val<std::_List_simple_types<Raven_PathPlanner *> > >::operator++
PUBLIC	??8?$_List_const_iterator@V?$_List_val@U?$_List_simple_types@PAVRaven_PathPlanner@@@std@@@std@@@std@@QBE_NABV01@@Z ; std::_List_const_iterator<std::_List_val<std::_List_simple_types<Raven_PathPlanner *> > >::operator==
PUBLIC	??9?$_List_const_iterator@V?$_List_val@U?$_List_simple_types@PAVRaven_PathPlanner@@@std@@@std@@@std@@QBE_NABV01@@Z ; std::_List_const_iterator<std::_List_val<std::_List_simple_types<Raven_PathPlanner *> > >::operator!=
PUBLIC	?_Verify_range@std@@YAXABV?$_List_const_iterator@V?$_List_val@U?$_List_simple_types@PAVRaven_PathPlanner@@@std@@@std@@@1@0@Z ; std::_Verify_range
PUBLIC	?_Seek_to@?$_List_const_iterator@V?$_List_val@U?$_List_simple_types@PAVRaven_PathPlanner@@@std@@@std@@@std@@QAEXV?$_List_unchecked_const_iterator@V?$_List_val@U?$_List_simple_types@PAVRaven_PathPlanner@@@std@@@std@@U_Iterator_base0@2@@2@@Z ; std::_List_const_iterator<std::_List_val<std::_List_simple_types<Raven_PathPlanner *> > >::_Seek_to
PUBLIC	??1?$_List_const_iterator@V?$_List_val@U?$_List_simple_types@PAVRaven_PathPlanner@@@std@@@std@@@std@@QAE@XZ ; std::_List_const_iterator<std::_List_val<std::_List_simple_types<Raven_PathPlanner *> > >::~_List_const_iterator<std::_List_val<std::_List_simple_types<Raven_PathPlanner *> > >
PUBLIC	??0?$_List_const_iterator@V?$_List_val@U?$_List_simple_types@PAVRaven_PathPlanner@@@std@@@std@@@std@@QAE@ABV01@@Z ; std::_List_const_iterator<std::_List_val<std::_List_simple_types<Raven_PathPlanner *> > >::_List_const_iterator<std::_List_val<std::_List_simple_types<Raven_PathPlanner *> > >
PUBLIC	??0?$_List_const_iterator@V?$_List_val@U?$_List_simple_types@PAVRaven_PathPlanner@@@std@@@std@@@std@@QAE@$$QAV01@@Z ; std::_List_const_iterator<std::_List_val<std::_List_simple_types<Raven_PathPlanner *> > >::_List_const_iterator<std::_List_val<std::_List_simple_types<Raven_PathPlanner *> > >
PUBLIC	??4?$_List_const_iterator@V?$_List_val@U?$_List_simple_types@PAVRaven_PathPlanner@@@std@@@std@@@std@@QAEAAV01@$$QAV01@@Z ; std::_List_const_iterator<std::_List_val<std::_List_simple_types<Raven_PathPlanner *> > >::operator=
PUBLIC	??0?$_List_iterator@V?$_List_val@U?$_List_simple_types@PAVRaven_PathPlanner@@@std@@@std@@@std@@QAE@PAU?$_List_node@PAVRaven_PathPlanner@@PAX@1@PBV?$_List_val@U?$_List_simple_types@PAVRaven_PathPlanner@@@std@@@1@@Z ; std::_List_iterator<std::_List_val<std::_List_simple_types<Raven_PathPlanner *> > >::_List_iterator<std::_List_val<std::_List_simple_types<Raven_PathPlanner *> > >
PUBLIC	??D?$_List_iterator@V?$_List_val@U?$_List_simple_types@PAVRaven_PathPlanner@@@std@@@std@@@std@@QBEAAPAVRaven_PathPlanner@@XZ ; std::_List_iterator<std::_List_val<std::_List_simple_types<Raven_PathPlanner *> > >::operator*
PUBLIC	??E?$_List_iterator@V?$_List_val@U?$_List_simple_types@PAVRaven_PathPlanner@@@std@@@std@@@std@@QAEAAV01@XZ ; std::_List_iterator<std::_List_val<std::_List_simple_types<Raven_PathPlanner *> > >::operator++
PUBLIC	??E?$_List_iterator@V?$_List_val@U?$_List_simple_types@PAVRaven_PathPlanner@@@std@@@std@@@std@@QAE?AV01@H@Z ; std::_List_iterator<std::_List_val<std::_List_simple_types<Raven_PathPlanner *> > >::operator++
PUBLIC	?_Unwrapped@?$_List_iterator@V?$_List_val@U?$_List_simple_types@PAVRaven_PathPlanner@@@std@@@std@@@std@@QBE?AV?$_List_unchecked_iterator@V?$_List_val@U?$_List_simple_types@PAVRaven_PathPlanner@@@std@@@std@@@2@XZ ; std::_List_iterator<std::_List_val<std::_List_simple_types<Raven_PathPlanner *> > >::_Unwrapped
PUBLIC	??1?$_List_iterator@V?$_List_val@U?$_List_simple_types@PAVRaven_PathPlanner@@@std@@@std@@@std@@QAE@XZ ; std::_List_iterator<std::_List_val<std::_List_simple_types<Raven_PathPlanner *> > >::~_List_iterator<std::_List_val<std::_List_simple_types<Raven_PathPlanner *> > >
PUBLIC	??0?$_List_iterator@V?$_List_val@U?$_List_simple_types@PAVRaven_PathPlanner@@@std@@@std@@@std@@QAE@ABV01@@Z ; std::_List_iterator<std::_List_val<std::_List_simple_types<Raven_PathPlanner *> > >::_List_iterator<std::_List_val<std::_List_simple_types<Raven_PathPlanner *> > >
PUBLIC	??0?$_List_iterator@V?$_List_val@U?$_List_simple_types@PAVRaven_PathPlanner@@@std@@@std@@@std@@QAE@$$QAV01@@Z ; std::_List_iterator<std::_List_val<std::_List_simple_types<Raven_PathPlanner *> > >::_List_iterator<std::_List_val<std::_List_simple_types<Raven_PathPlanner *> > >
PUBLIC	??4?$_List_iterator@V?$_List_val@U?$_List_simple_types@PAVRaven_PathPlanner@@@std@@@std@@@std@@QAEAAV01@$$QAV01@@Z ; std::_List_iterator<std::_List_val<std::_List_simple_types<Raven_PathPlanner *> > >::operator=
PUBLIC	??$find@V?$_List_iterator@V?$_List_val@U?$_List_simple_types@PAVRaven_PathPlanner@@@std@@@std@@@std@@PAVRaven_PathPlanner@@@std@@YA?AV?$_List_iterator@V?$_List_val@U?$_List_simple_types@PAVRaven_PathPlanner@@@std@@@std@@@0@V10@V10@ABQAVRaven_PathPlanner@@@Z ; std::find<std::_List_iterator<std::_List_val<std::_List_simple_types<Raven_PathPlanner *> > >,Raven_PathPlanner *>
PUBLIC	?_Get_data@?$_List_alloc@U?$_List_base_types@VNavGraphEdge@@V?$allocator@VNavGraphEdge@@@std@@@std@@@std@@QBEABV?$_List_val@U?$_List_simple_types@VNavGraphEdge@@@std@@@2@XZ ; std::_List_alloc<std::_List_base_types<NavGraphEdge,std::allocator<NavGraphEdge> > >::_Get_data
PUBLIC	?_Myhead@?$_List_alloc@U?$_List_base_types@VNavGraphEdge@@V?$allocator@VNavGraphEdge@@@std@@@std@@@std@@QBEABQAU?$_List_node@VNavGraphEdge@@PAX@2@XZ ; std::_List_alloc<std::_List_base_types<NavGraphEdge,std::allocator<NavGraphEdge> > >::_Myhead
PUBLIC	?_Get_second@?$_Compressed_pair@V?$allocator@U?$_List_node@VNavGraphEdge@@PAX@std@@@std@@V?$_List_val@U?$_List_simple_types@VNavGraphEdge@@@std@@@2@$00@std@@QBEABV?$_List_val@U?$_List_simple_types@VNavGraphEdge@@@std@@@2@XZ ; std::_Compressed_pair<std::allocator<std::_List_node<NavGraphEdge,void *> >,std::_List_val<std::_List_simple_types<NavGraphEdge> >,1>::_Get_second
PUBLIC	?begin@?$list@VNavGraphEdge@@V?$allocator@VNavGraphEdge@@@std@@@std@@QBE?AV?$_List_const_iterator@V?$_List_val@U?$_List_simple_types@VNavGraphEdge@@@std@@@std@@@2@XZ ; std::list<NavGraphEdge,std::allocator<NavGraphEdge> >::begin
PUBLIC	?end@?$list@VNavGraphEdge@@V?$allocator@VNavGraphEdge@@@std@@@std@@QBE?AV?$_List_const_iterator@V?$_List_val@U?$_List_simple_types@VNavGraphEdge@@@std@@@std@@@2@XZ ; std::list<NavGraphEdge,std::allocator<NavGraphEdge> >::end
PUBLIC	??0?$_List_unchecked_const_iterator@V?$_List_val@U?$_List_simple_types@VNavGraphEdge@@@std@@@std@@U_Iterator_base12@2@@std@@QAE@XZ ; std::_List_unchecked_const_iterator<std::_List_val<std::_List_simple_types<NavGraphEdge> >,std::_Iterator_base12>::_List_unchecked_const_iterator<std::_List_val<std::_List_simple_types<NavGraphEdge> >,std::_Iterator_base12>
PUBLIC	??0?$_List_unchecked_const_iterator@V?$_List_val@U?$_List_simple_types@VNavGraphEdge@@@std@@@std@@U_Iterator_base12@2@@std@@QAE@PAU?$_List_node@VNavGraphEdge@@PAX@1@PBV?$_List_val@U?$_List_simple_types@VNavGraphEdge@@@std@@@1@@Z ; std::_List_unchecked_const_iterator<std::_List_val<std::_List_simple_types<NavGraphEdge> >,std::_Iterator_base12>::_List_unchecked_const_iterator<std::_List_val<std::_List_simple_types<NavGraphEdge> >,std::_Iterator_base12>
PUBLIC	??1?$_List_unchecked_const_iterator@V?$_List_val@U?$_List_simple_types@VNavGraphEdge@@@std@@@std@@U_Iterator_base12@2@@std@@QAE@XZ ; std::_List_unchecked_const_iterator<std::_List_val<std::_List_simple_types<NavGraphEdge> >,std::_Iterator_base12>::~_List_unchecked_const_iterator<std::_List_val<std::_List_simple_types<NavGraphEdge> >,std::_Iterator_base12>
PUBLIC	??4?$_List_unchecked_const_iterator@V?$_List_val@U?$_List_simple_types@VNavGraphEdge@@@std@@@std@@U_Iterator_base12@2@@std@@QAEAAV01@$$QAV01@@Z ; std::_List_unchecked_const_iterator<std::_List_val<std::_List_simple_types<NavGraphEdge> >,std::_Iterator_base12>::operator=
PUBLIC	??0?$_List_const_iterator@V?$_List_val@U?$_List_simple_types@VNavGraphEdge@@@std@@@std@@@std@@QAE@XZ ; std::_List_const_iterator<std::_List_val<std::_List_simple_types<NavGraphEdge> > >::_List_const_iterator<std::_List_val<std::_List_simple_types<NavGraphEdge> > >
PUBLIC	??0?$_List_const_iterator@V?$_List_val@U?$_List_simple_types@VNavGraphEdge@@@std@@@std@@@std@@QAE@PAU?$_List_node@VNavGraphEdge@@PAX@1@PBV?$_List_val@U?$_List_simple_types@VNavGraphEdge@@@std@@@1@@Z ; std::_List_const_iterator<std::_List_val<std::_List_simple_types<NavGraphEdge> > >::_List_const_iterator<std::_List_val<std::_List_simple_types<NavGraphEdge> > >
PUBLIC	??D?$_List_const_iterator@V?$_List_val@U?$_List_simple_types@VNavGraphEdge@@@std@@@std@@@std@@QBEABVNavGraphEdge@@XZ ; std::_List_const_iterator<std::_List_val<std::_List_simple_types<NavGraphEdge> > >::operator*
PUBLIC	??E?$_List_const_iterator@V?$_List_val@U?$_List_simple_types@VNavGraphEdge@@@std@@@std@@@std@@QAEAAV01@XZ ; std::_List_const_iterator<std::_List_val<std::_List_simple_types<NavGraphEdge> > >::operator++
PUBLIC	??8?$_List_const_iterator@V?$_List_val@U?$_List_simple_types@VNavGraphEdge@@@std@@@std@@@std@@QBE_NABV01@@Z ; std::_List_const_iterator<std::_List_val<std::_List_simple_types<NavGraphEdge> > >::operator==
PUBLIC	??1?$_List_const_iterator@V?$_List_val@U?$_List_simple_types@VNavGraphEdge@@@std@@@std@@@std@@QAE@XZ ; std::_List_const_iterator<std::_List_val<std::_List_simple_types<NavGraphEdge> > >::~_List_const_iterator<std::_List_val<std::_List_simple_types<NavGraphEdge> > >
PUBLIC	??4?$_List_const_iterator@V?$_List_val@U?$_List_simple_types@VNavGraphEdge@@@std@@@std@@@std@@QAEAAV01@$$QAV01@@Z ; std::_List_const_iterator<std::_List_val<std::_List_simple_types<NavGraphEdge> > >::operator=
PUBLIC	??0ConstEdgeIterator@?$SparseGraph@V?$NavGraphNode@PAV?$Trigger@VRaven_Bot@@@@@@VNavGraphEdge@@@@QAE@ABV1@H@Z ; SparseGraph<NavGraphNode<Trigger<Raven_Bot> *>,NavGraphEdge>::ConstEdgeIterator::ConstEdgeIterator
PUBLIC	?begin@ConstEdgeIterator@?$SparseGraph@V?$NavGraphNode@PAV?$Trigger@VRaven_Bot@@@@@@VNavGraphEdge@@@@QAEPBVNavGraphEdge@@XZ ; SparseGraph<NavGraphNode<Trigger<Raven_Bot> *>,NavGraphEdge>::ConstEdgeIterator::begin
PUBLIC	?next@ConstEdgeIterator@?$SparseGraph@V?$NavGraphNode@PAV?$Trigger@VRaven_Bot@@@@@@VNavGraphEdge@@@@QAEPBVNavGraphEdge@@XZ ; SparseGraph<NavGraphNode<Trigger<Raven_Bot> *>,NavGraphEdge>::ConstEdgeIterator::next
PUBLIC	?end@ConstEdgeIterator@?$SparseGraph@V?$NavGraphNode@PAV?$Trigger@VRaven_Bot@@@@@@VNavGraphEdge@@@@QAE_NXZ ; SparseGraph<NavGraphNode<Trigger<Raven_Bot> *>,NavGraphEdge>::ConstEdgeIterator::end
PUBLIC	??1ConstEdgeIterator@?$SparseGraph@V?$NavGraphNode@PAV?$Trigger@VRaven_Bot@@@@@@VNavGraphEdge@@@@QAE@XZ ; SparseGraph<NavGraphNode<Trigger<Raven_Bot> *>,NavGraphEdge>::ConstEdgeIterator::~ConstEdgeIterator
PUBLIC	??$Calculate@V?$SparseGraph@V?$NavGraphNode@PAV?$Trigger@VRaven_Bot@@@@@@VNavGraphEdge@@@@@Heuristic_Euclid@@SANABV?$SparseGraph@V?$NavGraphNode@PAV?$Trigger@VRaven_Bot@@@@@@VNavGraphEdge@@@@HH@Z ; Heuristic_Euclid::Calculate<SparseGraph<NavGraphNode<Trigger<Raven_Bot> *>,NavGraphEdge> >
PUBLIC	??$isSatisfied@V?$SparseGraph@V?$NavGraphNode@PAV?$Trigger@VRaven_Bot@@@@@@VNavGraphEdge@@@@@?$FindActiveTrigger@V?$Trigger@VRaven_Bot@@@@@@SA_NABV?$SparseGraph@V?$NavGraphNode@PAV?$Trigger@VRaven_Bot@@@@@@VNavGraphEdge@@@@HH@Z ; FindActiveTrigger<Trigger<Raven_Bot> >::isSatisfied<SparseGraph<NavGraphNode<Trigger<Raven_Bot> *>,NavGraphEdge> >
PUBLIC	??$forward@VPathEdge@@@std@@YA$$QAVPathEdge@@AAV1@@Z ; std::forward<PathEdge>
PUBLIC	??$_Buynode@VPathEdge@@@?$_List_buy@VPathEdge@@V?$allocator@VPathEdge@@@std@@@std@@QAEPAU?$_List_node@VPathEdge@@PAX@1@PAU21@0$$QAVPathEdge@@@Z ; std::_List_buy<PathEdge,std::allocator<PathEdge> >::_Buynode<PathEdge>
PUBLIC	??$forward@V?$allocator@U?$_List_node@VPathEdge@@PAX@std@@@std@@@std@@YA$$QAV?$allocator@U?$_List_node@VPathEdge@@PAX@std@@@0@AAV10@@Z ; std::forward<std::allocator<std::_List_node<PathEdge,void *> > >
PUBLIC	??$?0V?$allocator@U?$_List_node@VPathEdge@@PAX@std@@@std@@X@?$_List_alloc@U?$_List_base_types@VPathEdge@@V?$allocator@VPathEdge@@@std@@@std@@@std@@QAE@$$QAV?$allocator@U?$_List_node@VPathEdge@@PAX@std@@@1@@Z ; std::_List_alloc<std::_List_base_types<PathEdge,std::allocator<PathEdge> > >::_List_alloc<std::_List_base_types<PathEdge,std::allocator<PathEdge> > ><std::allocator<std::_List_node<PathEdge,void *> >,void>
PUBLIC	??$addressof@PAU?$_List_node@VPathEdge@@PAX@std@@@std@@YAPAPAU?$_List_node@VPathEdge@@PAX@0@AAPAU10@@Z ; std::addressof<std::_List_node<PathEdge,void *> *>
PUBLIC	??$destroy@PAU?$_List_node@VPathEdge@@PAX@std@@@?$_Default_allocator_traits@V?$allocator@U?$_List_node@VPathEdge@@PAX@std@@@std@@@std@@SAXAAV?$allocator@U?$_List_node@VPathEdge@@PAX@std@@@1@QAPAU?$_List_node@VPathEdge@@PAX@1@@Z ; std::_Default_allocator_traits<std::allocator<std::_List_node<PathEdge,void *> > >::destroy<std::_List_node<PathEdge,void *> *>
PUBLIC	??$forward@V?$allocator@PBVNavGraphEdge@@@std@@@std@@YA$$QAV?$allocator@PBVNavGraphEdge@@@0@AAV10@@Z ; std::forward<std::allocator<NavGraphEdge const *> >
PUBLIC	??$?0V?$allocator@PBVNavGraphEdge@@@std@@$$V@?$_Compressed_pair@V?$allocator@PBVNavGraphEdge@@@std@@V?$_Vector_val@U?$_Simple_types@PBVNavGraphEdge@@@std@@@2@$00@std@@QAE@U_One_then_variadic_args_t@1@$$QAV?$allocator@PBVNavGraphEdge@@@1@@Z ; std::_Compressed_pair<std::allocator<NavGraphEdge const *>,std::_Vector_val<std::_Simple_types<NavGraphEdge const *> >,1>::_Compressed_pair<std::allocator<NavGraphEdge const *>,std::_Vector_val<std::_Simple_types<NavGraphEdge const *> >,1><std::allocator<NavGraphEdge const *> >
PUBLIC	??$_Uninitialized_copy@PAPBVNavGraphEdge@@PAPBV1@V?$allocator@PBVNavGraphEdge@@@std@@@std@@YAPAPBVNavGraphEdge@@QAPBV1@0PAPBV1@AAV?$allocator@PBVNavGraphEdge@@@0@@Z ; std::_Uninitialized_copy<NavGraphEdge const * *,NavGraphEdge const * *,std::allocator<NavGraphEdge const *> >
PUBLIC	??$forward@ABV?$allocator@PBVNavGraphEdge@@@std@@@std@@YAABV?$allocator@PBVNavGraphEdge@@@0@ABV10@@Z ; std::forward<std::allocator<NavGraphEdge const *> const &>
PUBLIC	??$?0ABV?$allocator@PBVNavGraphEdge@@@std@@$$V@?$_Compressed_pair@V?$allocator@PBVNavGraphEdge@@@std@@V?$_Vector_val@U?$_Simple_types@PBVNavGraphEdge@@@std@@@2@$00@std@@QAE@U_One_then_variadic_args_t@1@ABV?$allocator@PBVNavGraphEdge@@@1@@Z ; std::_Compressed_pair<std::allocator<NavGraphEdge const *>,std::_Vector_val<std::_Simple_types<NavGraphEdge const *> >,1>::_Compressed_pair<std::allocator<NavGraphEdge const *>,std::_Vector_val<std::_Simple_types<NavGraphEdge const *> >,1><std::allocator<NavGraphEdge const *> const &>
PUBLIC	??$move@AAI@std@@YA$$QAIAAI@Z			; std::move<unsigned int &>
PUBLIC	??$forward@ABV?$allocator@N@std@@@std@@YAABV?$allocator@N@0@ABV10@@Z ; std::forward<std::allocator<double> const &>
PUBLIC	??$?0ABV?$allocator@N@std@@$$V@?$_Compressed_pair@V?$allocator@N@std@@V?$_Vector_val@U?$_Simple_types@N@std@@@2@$00@std@@QAE@U_One_then_variadic_args_t@1@ABV?$allocator@N@1@@Z ; std::_Compressed_pair<std::allocator<double>,std::_Vector_val<std::_Simple_types<double> >,1>::_Compressed_pair<std::allocator<double>,std::_Vector_val<std::_Simple_types<double> >,1><std::allocator<double> const &>
PUBLIC	??$_Allocate_manually_vector_aligned@U_Default_allocate_traits@std@@@std@@YAPAXI@Z ; std::_Allocate_manually_vector_aligned<std::_Default_allocate_traits>
PUBLIC	??$addressof@PAU?$_List_node@HPAX@std@@@std@@YAPAPAU?$_List_node@HPAX@0@AAPAU10@@Z ; std::addressof<std::_List_node<int,void *> *>
PUBLIC	??$destroy@PAU?$_List_node@HPAX@std@@@?$_Default_allocator_traits@V?$allocator@U?$_List_node@HPAX@std@@@std@@@std@@SAXAAV?$allocator@U?$_List_node@HPAX@std@@@1@QAPAU?$_List_node@HPAX@1@@Z ; std::_Default_allocator_traits<std::allocator<std::_List_node<int,void *> > >::destroy<std::_List_node<int,void *> *>
PUBLIC	??$_Uninitialized_value_construct_n1@PAPBVNavGraphEdge@@IV?$allocator@PBVNavGraphEdge@@@std@@@std@@YAPAPBVNavGraphEdge@@PAPBV1@IAAV?$allocator@PBVNavGraphEdge@@@0@U?$integral_constant@_N$00@0@@Z ; std::_Uninitialized_value_construct_n1<NavGraphEdge const * *,unsigned int,std::allocator<NavGraphEdge const *> >
PUBLIC	??$forward@U_Container_proxy@std@@@std@@YA$$QAU_Container_proxy@0@AAU10@@Z ; std::forward<std::_Container_proxy>
PUBLIC	??$_Fill_memset_is_safe@PAHH@std@@YA?AU?$integral_constant@_N$0A@@0@ABQAHABH@Z ; std::_Fill_memset_is_safe<int *,int>
PUBLIC	??$_Fill_unchecked1@PAHH@std@@YAXPAH0ABHU?$integral_constant@_N$0A@@0@@Z ; std::_Fill_unchecked1<int *,int>
PUBLIC	??$_Unfancy@N@std@@YAPANPAN@Z			; std::_Unfancy<double>
PUBLIC	??$_Uninit_alloc_fill_n1@PANIV?$allocator@N@std@@@std@@YAPANQANIABNAAV?$allocator@N@0@U?$integral_constant@_N$0A@@0@@Z ; std::_Uninit_alloc_fill_n1<double *,unsigned int,std::allocator<double> >
PUBLIC	??$_Destroy_range1@V?$allocator@PBVNavGraphEdge@@@std@@@std@@YAXPAPBVNavGraphEdge@@0AAV?$allocator@PBVNavGraphEdge@@@0@U?$integral_constant@_N$00@0@@Z ; std::_Destroy_range1<std::allocator<NavGraphEdge const *> >
PUBLIC	??$_Destroy_range1@V?$allocator@H@std@@@std@@YAXPAH0AAV?$allocator@H@0@U?$integral_constant@_N$00@0@@Z ; std::_Destroy_range1<std::allocator<int> >
PUBLIC	??$_Unfancy@H@std@@YAPAHPAH@Z			; std::_Unfancy<int>
PUBLIC	??$_Uninit_alloc_fill_n1@PAHIV?$allocator@H@std@@@std@@YAPAHQAHIABHAAV?$allocator@H@0@U?$integral_constant@_N$0A@@0@@Z ; std::_Uninit_alloc_fill_n1<int *,unsigned int,std::allocator<int> >
PUBLIC	??$_Destroy_range1@V?$allocator@N@std@@@std@@YAXPAN0AAV?$allocator@N@0@U?$integral_constant@_N$00@0@@Z ; std::_Destroy_range1<std::allocator<double> >
PUBLIC	??$addressof@V?$_List_val@U?$_List_simple_types@PAV?$NavGraphNode@PAV?$Trigger@VRaven_Bot@@@@@@@std@@@std@@@std@@YAPAV?$_List_val@U?$_List_simple_types@PAV?$NavGraphNode@PAV?$Trigger@VRaven_Bot@@@@@@@std@@@0@AAV10@@Z ; std::addressof<std::_List_val<std::_List_simple_types<NavGraphNode<Trigger<Raven_Bot> *> *> > >
PUBLIC	??$addressof@V?$_Vector_val@U?$_Simple_types@PBVNavGraphEdge@@@std@@@std@@@std@@YAPAV?$_Vector_val@U?$_Simple_types@PBVNavGraphEdge@@@std@@@0@AAV10@@Z ; std::addressof<std::_Vector_val<std::_Simple_types<NavGraphEdge const *> > >
PUBLIC	??$_Const_cast@$$CBU?$Cell@PAV?$NavGraphNode@PAV?$Trigger@VRaven_Bot@@@@@@@@@std@@YA@PBU?$Cell@PAV?$NavGraphNode@PAV?$Trigger@VRaven_Bot@@@@@@@@@Z ; std::_Const_cast<Cell<NavGraphNode<Trigger<Raven_Bot> *> *> const >
PUBLIC	??$addressof@V?$_Vector_val@U?$_Simple_types@U?$Cell@PAV?$NavGraphNode@PAV?$Trigger@VRaven_Bot@@@@@@@@@std@@@std@@@std@@YAPAV?$_Vector_val@U?$_Simple_types@U?$Cell@PAV?$NavGraphNode@PAV?$Trigger@VRaven_Bot@@@@@@@@@std@@@0@AAV10@@Z ; std::addressof<std::_Vector_val<std::_Simple_types<Cell<NavGraphNode<Trigger<Raven_Bot> *> *> > > >
PUBLIC	??$addressof@PAVRaven_PathPlanner@@@std@@YAPAPAVRaven_PathPlanner@@AAPAV1@@Z ; std::addressof<Raven_PathPlanner *>
PUBLIC	??$addressof@QAVRaven_PathPlanner@@@std@@YAPBQAVRaven_PathPlanner@@ABQAV1@@Z ; std::addressof<Raven_PathPlanner * const>
PUBLIC	??0?$_List_unchecked_const_iterator@V?$_List_val@U?$_List_simple_types@PAVRaven_PathPlanner@@@std@@@std@@U_Iterator_base0@2@@std@@QAE@PAU?$_List_node@PAVRaven_PathPlanner@@PAX@1@PBV?$_List_val@U?$_List_simple_types@PAVRaven_PathPlanner@@@std@@@1@@Z ; std::_List_unchecked_const_iterator<std::_List_val<std::_List_simple_types<Raven_PathPlanner *> >,std::_Iterator_base0>::_List_unchecked_const_iterator<std::_List_val<std::_List_simple_types<Raven_PathPlanner *> >,std::_Iterator_base0>
PUBLIC	??D?$_List_unchecked_const_iterator@V?$_List_val@U?$_List_simple_types@PAVRaven_PathPlanner@@@std@@@std@@U_Iterator_base0@2@@std@@QBEABQAVRaven_PathPlanner@@XZ ; std::_List_unchecked_const_iterator<std::_List_val<std::_List_simple_types<Raven_PathPlanner *> >,std::_Iterator_base0>::operator*
PUBLIC	??E?$_List_unchecked_const_iterator@V?$_List_val@U?$_List_simple_types@PAVRaven_PathPlanner@@@std@@@std@@U_Iterator_base0@2@@std@@QAEAAV01@XZ ; std::_List_unchecked_const_iterator<std::_List_val<std::_List_simple_types<Raven_PathPlanner *> >,std::_Iterator_base0>::operator++
PUBLIC	??8?$_List_unchecked_const_iterator@V?$_List_val@U?$_List_simple_types@PAVRaven_PathPlanner@@@std@@@std@@U_Iterator_base0@2@@std@@QBE_NABV01@@Z ; std::_List_unchecked_const_iterator<std::_List_val<std::_List_simple_types<Raven_PathPlanner *> >,std::_Iterator_base0>::operator==
PUBLIC	??9?$_List_unchecked_const_iterator@V?$_List_val@U?$_List_simple_types@PAVRaven_PathPlanner@@@std@@@std@@U_Iterator_base0@2@@std@@QBE_NABV01@@Z ; std::_List_unchecked_const_iterator<std::_List_val<std::_List_simple_types<Raven_PathPlanner *> >,std::_Iterator_base0>::operator!=
PUBLIC	??0?$_List_unchecked_iterator@V?$_List_val@U?$_List_simple_types@PAVRaven_PathPlanner@@@std@@@std@@@std@@QAE@PAU?$_List_node@PAVRaven_PathPlanner@@PAX@1@PBV?$_List_val@U?$_List_simple_types@PAVRaven_PathPlanner@@@std@@@1@@Z ; std::_List_unchecked_iterator<std::_List_val<std::_List_simple_types<Raven_PathPlanner *> > >::_List_unchecked_iterator<std::_List_val<std::_List_simple_types<Raven_PathPlanner *> > >
PUBLIC	??D?$_List_unchecked_iterator@V?$_List_val@U?$_List_simple_types@PAVRaven_PathPlanner@@@std@@@std@@@std@@QBEAAPAVRaven_PathPlanner@@XZ ; std::_List_unchecked_iterator<std::_List_val<std::_List_simple_types<Raven_PathPlanner *> > >::operator*
PUBLIC	??E?$_List_unchecked_iterator@V?$_List_val@U?$_List_simple_types@PAVRaven_PathPlanner@@@std@@@std@@@std@@QAEAAV01@XZ ; std::_List_unchecked_iterator<std::_List_val<std::_List_simple_types<Raven_PathPlanner *> > >::operator++
PUBLIC	??$_Insert@ABQAVRaven_PathPlanner@@@?$list@PAVRaven_PathPlanner@@V?$allocator@PAVRaven_PathPlanner@@@std@@@std@@QAEXV?$_List_unchecked_const_iterator@V?$_List_val@U?$_List_simple_types@PAVRaven_PathPlanner@@@std@@@std@@U_Iterator_base0@2@@1@ABQAVRaven_PathPlanner@@@Z ; std::list<Raven_PathPlanner *,std::allocator<Raven_PathPlanner *> >::_Insert<Raven_PathPlanner * const &>
PUBLIC	??$addressof@V?$_List_val@U?$_List_simple_types@PAVRaven_PathPlanner@@@std@@@std@@@std@@YAPAV?$_List_val@U?$_List_simple_types@PAVRaven_PathPlanner@@@std@@@0@AAV10@@Z ; std::addressof<std::_List_val<std::_List_simple_types<Raven_PathPlanner *> > >
PUBLIC	??0?$_List_unchecked_const_iterator@V?$_List_val@U?$_List_simple_types@H@std@@@std@@U_Iterator_base0@2@@std@@QAE@PAU?$_List_node@HPAX@1@PBV?$_List_val@U?$_List_simple_types@H@std@@@1@@Z ; std::_List_unchecked_const_iterator<std::_List_val<std::_List_simple_types<int> >,std::_Iterator_base0>::_List_unchecked_const_iterator<std::_List_val<std::_List_simple_types<int> >,std::_Iterator_base0>
PUBLIC	??0?$_List_unchecked_iterator@V?$_List_val@U?$_List_simple_types@H@std@@@std@@@std@@QAE@PAU?$_List_node@HPAX@1@PBV?$_List_val@U?$_List_simple_types@H@std@@@1@@Z ; std::_List_unchecked_iterator<std::_List_val<std::_List_simple_types<int> > >::_List_unchecked_iterator<std::_List_val<std::_List_simple_types<int> > >
PUBLIC	??$_Insert@ABH@?$list@HV?$allocator@H@std@@@std@@QAEXV?$_List_unchecked_const_iterator@V?$_List_val@U?$_List_simple_types@H@std@@@std@@U_Iterator_base0@2@@1@ABH@Z ; std::list<int,std::allocator<int> >::_Insert<int const &>
PUBLIC	??$move@AAV?$allocator@U?$_List_node@HPAX@std@@@std@@@std@@YA$$QAV?$allocator@U?$_List_node@HPAX@std@@@0@AAV10@@Z ; std::move<std::allocator<std::_List_node<int,void *> > &>
PUBLIC	??$?0V?$allocator@U?$_List_node@HPAX@std@@@std@@X@?$_List_buy@HV?$allocator@H@std@@@std@@QAE@$$QAV?$allocator@U?$_List_node@HPAX@std@@@1@@Z ; std::_List_buy<int,std::allocator<int> >::_List_buy<int,std::allocator<int> ><std::allocator<std::_List_node<int,void *> >,void>
PUBLIC	??$move@AAV?$list@HV?$allocator@H@std@@@std@@@std@@YA$$QAV?$list@HV?$allocator@H@std@@@0@AAV10@@Z ; std::move<std::list<int,std::allocator<int> > &>
PUBLIC	??$addressof@V?$_Vector_val@U?$_Simple_types@N@std@@@std@@@std@@YAPAV?$_Vector_val@U?$_Simple_types@N@std@@@0@AAV10@@Z ; std::addressof<std::_Vector_val<std::_Simple_types<double> > >
PUBLIC	??$addressof@$$CBV?$_List_val@U?$_List_simple_types@VNavGraphEdge@@@std@@@std@@@std@@YAPBV?$_List_val@U?$_List_simple_types@VNavGraphEdge@@@std@@@0@ABV10@@Z ; std::addressof<std::_List_val<std::_List_simple_types<NavGraphEdge> > const >
PUBLIC	??$_Swap_adl@PAU?$_List_node@HPAX@std@@@std@@YAXAAPAU?$_List_node@HPAX@0@0@Z ; std::_Swap_adl<std::_List_node<int,void *> *>
PUBLIC	??$swap@PAU?$_List_node@HPAX@std@@X@std@@YAXAAPAU?$_List_node@HPAX@0@0@Z ; std::swap<std::_List_node<int,void *> *,void>
PUBLIC	??$?0$$V@?$_Compressed_pair@V?$allocator@U?$_List_node@HPAX@std@@@std@@V?$_List_val@U?$_List_simple_types@H@std@@@2@$00@std@@QAE@U_Zero_then_variadic_args_t@1@@Z ; std::_Compressed_pair<std::allocator<std::_List_node<int,void *> >,std::_List_val<std::_List_simple_types<int> >,1>::_Compressed_pair<std::allocator<std::_List_node<int,void *> >,std::_List_val<std::_List_simple_types<int> >,1><>
PUBLIC	??$?0$$V@?$_Compressed_pair@V?$allocator@U?$_List_node@VPathEdge@@PAX@std@@@std@@V?$_List_val@U?$_List_simple_types@VPathEdge@@@std@@@2@$00@std@@QAE@U_Zero_then_variadic_args_t@1@@Z ; std::_Compressed_pair<std::allocator<std::_List_node<PathEdge,void *> >,std::_List_val<std::_List_simple_types<PathEdge> >,1>::_Compressed_pair<std::allocator<std::_List_node<PathEdge,void *> >,std::_List_val<std::_List_simple_types<PathEdge> >,1><>
PUBLIC	??$destroy@PAVRaven_PathPlanner@@@?$_Default_allocator_traits@V?$allocator@U?$_List_node@PAVRaven_PathPlanner@@PAX@std@@@std@@@std@@SAXAAV?$allocator@U?$_List_node@PAVRaven_PathPlanner@@PAX@std@@@1@QAPAVRaven_PathPlanner@@@Z ; std::_Default_allocator_traits<std::allocator<std::_List_node<Raven_PathPlanner *,void *> > >::destroy<Raven_PathPlanner *>
PUBLIC	??$_Freenode0@V?$allocator@U?$_List_node@PAVRaven_PathPlanner@@PAX@std@@@std@@@?$_List_node@PAVRaven_PathPlanner@@PAX@std@@SAXAAV?$allocator@U?$_List_node@PAVRaven_PathPlanner@@PAX@std@@@1@PAU01@@Z ; std::_List_node<Raven_PathPlanner *,void *>::_Freenode0<std::allocator<std::_List_node<Raven_PathPlanner *,void *> > >
PUBLIC	??$addressof@$$CBV?$_List_val@U?$_List_simple_types@PAVRaven_PathPlanner@@@std@@@std@@@std@@YAPBV?$_List_val@U?$_List_simple_types@PAVRaven_PathPlanner@@@std@@@0@ABV10@@Z ; std::addressof<std::_List_val<std::_List_simple_types<Raven_PathPlanner *> > const >
PUBLIC	??$construct@PAU?$_List_node@HPAX@std@@AAPAU12@@?$_Default_allocator_traits@V?$allocator@U?$_List_node@HPAX@std@@@std@@@std@@SAXAAV?$allocator@U?$_List_node@HPAX@std@@@1@QAPAU?$_List_node@HPAX@1@AAPAU31@@Z ; std::_Default_allocator_traits<std::allocator<std::_List_node<int,void *> > >::construct<std::_List_node<int,void *> *,std::_List_node<int,void *> * &>
PUBLIC	??$construct@PAU?$_List_node@VPathEdge@@PAX@std@@AAPAU12@@?$_Default_allocator_traits@V?$allocator@U?$_List_node@VPathEdge@@PAX@std@@@std@@@std@@SAXAAV?$allocator@U?$_List_node@VPathEdge@@PAX@std@@@1@QAPAU?$_List_node@VPathEdge@@PAX@1@AAPAU31@@Z ; std::_Default_allocator_traits<std::allocator<std::_List_node<PathEdge,void *> > >::construct<std::_List_node<PathEdge,void *> *,std::_List_node<PathEdge,void *> * &>
PUBLIC	??$_Get_size_of_n@$0M@@std@@YAII@Z		; std::_Get_size_of_n<12>
PUBLIC	??$move@AAPAU?$_List_node@VPathEdge@@PAX@std@@@std@@YA$$QAPAU?$_List_node@VPathEdge@@PAX@0@AAPAU10@@Z ; std::move<std::_List_node<PathEdge,void *> * &>
PUBLIC	??$_Adl_verify_range@V?$_List_iterator@V?$_List_val@U?$_List_simple_types@PAVRaven_PathPlanner@@@std@@@std@@@std@@V12@@std@@YAXABV?$_List_iterator@V?$_List_val@U?$_List_simple_types@PAVRaven_PathPlanner@@@std@@@std@@@0@0@Z ; std::_Adl_verify_range<std::_List_iterator<std::_List_val<std::_List_simple_types<Raven_PathPlanner *> > >,std::_List_iterator<std::_List_val<std::_List_simple_types<Raven_PathPlanner *> > > >
PUBLIC	??$_Get_unwrapped@V?$_List_iterator@V?$_List_val@U?$_List_simple_types@PAVRaven_PathPlanner@@@std@@@std@@@std@@$0A@@std@@YA@ABV?$_List_iterator@V?$_List_val@U?$_List_simple_types@PAVRaven_PathPlanner@@@std@@@std@@@0@@Z ; std::_Get_unwrapped<std::_List_iterator<std::_List_val<std::_List_simple_types<Raven_PathPlanner *> > >,0>
PUBLIC	??$_Find_unchecked@V?$_List_unchecked_iterator@V?$_List_val@U?$_List_simple_types@PAVRaven_PathPlanner@@@std@@@std@@@std@@PAVRaven_PathPlanner@@@std@@YA?AV?$_List_unchecked_iterator@V?$_List_val@U?$_List_simple_types@PAVRaven_PathPlanner@@@std@@@std@@@0@V10@0ABQAVRaven_PathPlanner@@@Z ; std::_Find_unchecked<std::_List_unchecked_iterator<std::_List_val<std::_List_simple_types<Raven_PathPlanner *> > >,Raven_PathPlanner *>
PUBLIC	??$_Seek_wrapped@V?$_List_iterator@V?$_List_val@U?$_List_simple_types@PAVRaven_PathPlanner@@@std@@@std@@@std@@V?$_List_unchecked_iterator@V?$_List_val@U?$_List_simple_types@PAVRaven_PathPlanner@@@std@@@std@@@2@$0A@@std@@YAXAAV?$_List_iterator@V?$_List_val@U?$_List_simple_types@PAVRaven_PathPlanner@@@std@@@std@@@0@ABV?$_List_unchecked_iterator@V?$_List_val@U?$_List_simple_types@PAVRaven_PathPlanner@@@std@@@std@@@0@@Z ; std::_Seek_wrapped<std::_List_iterator<std::_List_val<std::_List_simple_types<Raven_PathPlanner *> > >,std::_List_unchecked_iterator<std::_List_val<std::_List_simple_types<Raven_PathPlanner *> > >,0>
PUBLIC	??$construct@VPathEdge@@V1@@?$_Default_allocator_traits@V?$allocator@U?$_List_node@VPathEdge@@PAX@std@@@std@@@std@@SAXAAV?$allocator@U?$_List_node@VPathEdge@@PAX@std@@@1@QAVPathEdge@@$$QAV3@@Z ; std::_Default_allocator_traits<std::allocator<std::_List_node<PathEdge,void *> > >::construct<PathEdge,PathEdge>
PUBLIC	??$?0V?$allocator@U?$_List_node@VPathEdge@@PAX@std@@@std@@$$V@?$_Compressed_pair@V?$allocator@U?$_List_node@VPathEdge@@PAX@std@@@std@@V?$_List_val@U?$_List_simple_types@VPathEdge@@@std@@@2@$00@std@@QAE@U_One_then_variadic_args_t@1@$$QAV?$allocator@U?$_List_node@VPathEdge@@PAX@std@@@1@@Z ; std::_Compressed_pair<std::allocator<std::_List_node<PathEdge,void *> >,std::_List_val<std::_List_simple_types<PathEdge> >,1>::_Compressed_pair<std::allocator<std::_List_node<PathEdge,void *> >,std::_List_val<std::_List_simple_types<PathEdge> >,1><std::allocator<std::_List_node<PathEdge,void *> > >
PUBLIC	??$_Get_unwrapped@PBVNavGraphEdge@@@std@@YAPAPBVNavGraphEdge@@QAPBV1@@Z ; std::_Get_unwrapped<NavGraphEdge const *>
PUBLIC	??$_Idl_distance@PAPBVNavGraphEdge@@PAPBV1@@std@@YA@ABQAPBVNavGraphEdge@@0@Z ; std::_Idl_distance<NavGraphEdge const * *,NavGraphEdge const * *>
PUBLIC	??$_Idl_distance1@PAPBVNavGraphEdge@@PAPBV1@@std@@YAHABQAPBVNavGraphEdge@@0Urandom_access_iterator_tag@0@@Z ; std::_Idl_distance1<NavGraphEdge const * *,NavGraphEdge const * *>
PUBLIC	??$_Get_unwrapped_n@PBVNavGraphEdge@@H$0A@@std@@YAPAPBVNavGraphEdge@@QAPBV1@H@Z ; std::_Get_unwrapped_n<NavGraphEdge const *,int,0>
PUBLIC	??$_Ptr_copy_cat@PBVNavGraphEdge@@PBV1@@std@@YA?AU_Really_trivial_ptr_iterator_tag@0@ABQAPBVNavGraphEdge@@0@Z ; std::_Ptr_copy_cat<NavGraphEdge const *,NavGraphEdge const *>
PUBLIC	??$_Uninitialized_copy_al_unchecked@PBVNavGraphEdge@@PBV1@V?$allocator@PBVNavGraphEdge@@@std@@@std@@YAPAPBVNavGraphEdge@@QAPBV1@00AAV?$allocator@PBVNavGraphEdge@@@0@U_Really_trivial_ptr_iterator_tag@0@U?$integral_constant@_N$00@0@@Z ; std::_Uninitialized_copy_al_unchecked<NavGraphEdge const *,NavGraphEdge const *,std::allocator<NavGraphEdge const *> >
PUBLIC	??$_Seek_wrapped@PBVNavGraphEdge@@@std@@YAXAAPAPBVNavGraphEdge@@QAPBV1@@Z ; std::_Seek_wrapped<NavGraphEdge const *>
PUBLIC	??$_Zero_range@PAPBVNavGraphEdge@@@std@@YAPAPBVNavGraphEdge@@QAPBV1@0@Z ; std::_Zero_range<NavGraphEdge const * *>
PUBLIC	??0?$_Uninitialized_backout_al@PANV?$allocator@N@std@@@std@@QAE@PANAAV?$allocator@N@1@@Z ; std::_Uninitialized_backout_al<double *,std::allocator<double> >::_Uninitialized_backout_al<double *,std::allocator<double> >
PUBLIC	??1?$_Uninitialized_backout_al@PANV?$allocator@N@std@@@std@@QAE@XZ ; std::_Uninitialized_backout_al<double *,std::allocator<double> >::~_Uninitialized_backout_al<double *,std::allocator<double> >
PUBLIC	?_Release@?$_Uninitialized_backout_al@PANV?$allocator@N@std@@@std@@QAEPANXZ ; std::_Uninitialized_backout_al<double *,std::allocator<double> >::_Release
PUBLIC	??$_Emplace_back@ABN@?$_Uninitialized_backout_al@PANV?$allocator@N@std@@@std@@QAEXABN@Z ; std::_Uninitialized_backout_al<double *,std::allocator<double> >::_Emplace_back<double const &>
PUBLIC	??0?$_Uninitialized_backout_al@PAHV?$allocator@H@std@@@std@@QAE@PAHAAV?$allocator@H@1@@Z ; std::_Uninitialized_backout_al<int *,std::allocator<int> >::_Uninitialized_backout_al<int *,std::allocator<int> >
PUBLIC	??1?$_Uninitialized_backout_al@PAHV?$allocator@H@std@@@std@@QAE@XZ ; std::_Uninitialized_backout_al<int *,std::allocator<int> >::~_Uninitialized_backout_al<int *,std::allocator<int> >
PUBLIC	?_Release@?$_Uninitialized_backout_al@PAHV?$allocator@H@std@@@std@@QAEPAHXZ ; std::_Uninitialized_backout_al<int *,std::allocator<int> >::_Release
PUBLIC	??$_Emplace_back@ABH@?$_Uninitialized_backout_al@PAHV?$allocator@H@std@@@std@@QAEXABH@Z ; std::_Uninitialized_backout_al<int *,std::allocator<int> >::_Emplace_back<int const &>
PUBLIC	??$forward@ABQAVRaven_PathPlanner@@@std@@YAABQAVRaven_PathPlanner@@ABQAV1@@Z ; std::forward<Raven_PathPlanner * const &>
PUBLIC	??$_Buynode@ABQAVRaven_PathPlanner@@@?$_List_buy@PAVRaven_PathPlanner@@V?$allocator@PAVRaven_PathPlanner@@@std@@@std@@QAEPAU?$_List_node@PAVRaven_PathPlanner@@PAX@1@PAU21@0ABQAVRaven_PathPlanner@@@Z ; std::_List_buy<Raven_PathPlanner *,std::allocator<Raven_PathPlanner *> >::_Buynode<Raven_PathPlanner * const &>
PUBLIC	??$forward@ABH@std@@YAABHABH@Z			; std::forward<int const &>
PUBLIC	??$_Buynode@ABH@?$_List_buy@HV?$allocator@H@std@@@std@@QAEPAU?$_List_node@HPAX@1@PAU21@0ABH@Z ; std::_List_buy<int,std::allocator<int> >::_Buynode<int const &>
PUBLIC	??$forward@V?$allocator@U?$_List_node@HPAX@std@@@std@@@std@@YA$$QAV?$allocator@U?$_List_node@HPAX@std@@@0@AAV10@@Z ; std::forward<std::allocator<std::_List_node<int,void *> > >
PUBLIC	??$?0V?$allocator@U?$_List_node@HPAX@std@@@std@@X@?$_List_alloc@U?$_List_base_types@HV?$allocator@H@std@@@std@@@std@@QAE@$$QAV?$allocator@U?$_List_node@HPAX@std@@@1@@Z ; std::_List_alloc<std::_List_base_types<int,std::allocator<int> > >::_List_alloc<std::_List_base_types<int,std::allocator<int> > ><std::allocator<std::_List_node<int,void *> >,void>
PUBLIC	??$addressof@PAU?$_List_node@PAVRaven_PathPlanner@@PAX@std@@@std@@YAPAPAU?$_List_node@PAVRaven_PathPlanner@@PAX@0@AAPAU10@@Z ; std::addressof<std::_List_node<Raven_PathPlanner *,void *> *>
PUBLIC	??$destroy@PAU?$_List_node@PAVRaven_PathPlanner@@PAX@std@@@?$_Default_allocator_traits@V?$allocator@U?$_List_node@PAVRaven_PathPlanner@@PAX@std@@@std@@@std@@SAXAAV?$allocator@U?$_List_node@PAVRaven_PathPlanner@@PAX@std@@@1@QAPAU?$_List_node@PAVRaven_PathPlanner@@PAX@1@@Z ; std::_Default_allocator_traits<std::allocator<std::_List_node<Raven_PathPlanner *,void *> > >::destroy<std::_List_node<Raven_PathPlanner *,void *> *>
PUBLIC	??$forward@AAPAU?$_List_node@HPAX@std@@@std@@YAAAPAU?$_List_node@HPAX@0@AAPAU10@@Z ; std::forward<std::_List_node<int,void *> * &>
PUBLIC	??$forward@AAPAU?$_List_node@VPathEdge@@PAX@std@@@std@@YAAAPAU?$_List_node@VPathEdge@@PAX@0@AAPAU10@@Z ; std::forward<std::_List_node<PathEdge,void *> * &>
PUBLIC	??$move@AAPAU?$_List_node@HPAX@std@@@std@@YA$$QAPAU?$_List_node@HPAX@0@AAPAU10@@Z ; std::move<std::_List_node<int,void *> * &>
PUBLIC	??$_Adl_verify_range1@V?$_List_iterator@V?$_List_val@U?$_List_simple_types@PAVRaven_PathPlanner@@@std@@@std@@@std@@V12@@std@@YAXABV?$_List_iterator@V?$_List_val@U?$_List_simple_types@PAVRaven_PathPlanner@@@std@@@std@@@0@0U?$integral_constant@_N$00@0@@Z ; std::_Adl_verify_range1<std::_List_iterator<std::_List_val<std::_List_simple_types<Raven_PathPlanner *> > >,std::_List_iterator<std::_List_val<std::_List_simple_types<Raven_PathPlanner *> > > >
PUBLIC	??$_Find_unchecked1@V?$_List_unchecked_iterator@V?$_List_val@U?$_List_simple_types@PAVRaven_PathPlanner@@@std@@@std@@@std@@PAVRaven_PathPlanner@@@std@@YA?AV?$_List_unchecked_iterator@V?$_List_val@U?$_List_simple_types@PAVRaven_PathPlanner@@@std@@@std@@@0@V10@V10@ABQAVRaven_PathPlanner@@U?$integral_constant@_N$0A@@0@@Z ; std::_Find_unchecked1<std::_List_unchecked_iterator<std::_List_val<std::_List_simple_types<Raven_PathPlanner *> > >,Raven_PathPlanner *>
PUBLIC	??$_Copy_memmove@PAPBVNavGraphEdge@@PAPBV1@@std@@YAPAPBVNavGraphEdge@@PAPBV1@00@Z ; std::_Copy_memmove<NavGraphEdge const * *,NavGraphEdge const * *>
PUBLIC	??$forward@ABN@std@@YAABNABN@Z			; std::forward<double const &>
PUBLIC	??$construct@NABN@?$_Default_allocator_traits@V?$allocator@N@std@@@std@@SAXAAV?$allocator@N@1@QANABN@Z ; std::_Default_allocator_traits<std::allocator<double> >::construct<double,double const &>
PUBLIC	??$construct@HABH@?$_Default_allocator_traits@V?$allocator@H@std@@@std@@SAXAAV?$allocator@H@1@QAHABH@Z ; std::_Default_allocator_traits<std::allocator<int> >::construct<int,int const &>
PUBLIC	??$construct@PAVRaven_PathPlanner@@ABQAV1@@?$_Default_allocator_traits@V?$allocator@U?$_List_node@PAVRaven_PathPlanner@@PAX@std@@@std@@@std@@SAXAAV?$allocator@U?$_List_node@PAVRaven_PathPlanner@@PAX@std@@@1@QAPAVRaven_PathPlanner@@ABQAV3@@Z ; std::_Default_allocator_traits<std::allocator<std::_List_node<Raven_PathPlanner *,void *> > >::construct<Raven_PathPlanner *,Raven_PathPlanner * const &>
PUBLIC	??$construct@HABH@?$_Default_allocator_traits@V?$allocator@U?$_List_node@HPAX@std@@@std@@@std@@SAXAAV?$allocator@U?$_List_node@HPAX@std@@@1@QAHABH@Z ; std::_Default_allocator_traits<std::allocator<std::_List_node<int,void *> > >::construct<int,int const &>
PUBLIC	??$?0V?$allocator@U?$_List_node@HPAX@std@@@std@@$$V@?$_Compressed_pair@V?$allocator@U?$_List_node@HPAX@std@@@std@@V?$_List_val@U?$_List_simple_types@H@std@@@2@$00@std@@QAE@U_One_then_variadic_args_t@1@$$QAV?$allocator@U?$_List_node@HPAX@std@@@1@@Z ; std::_Compressed_pair<std::allocator<std::_List_node<int,void *> >,std::_List_val<std::_List_simple_types<int> >,1>::_Compressed_pair<std::allocator<std::_List_node<int,void *> >,std::_List_val<std::_List_simple_types<int> >,1><std::allocator<std::_List_node<int,void *> > >
PUBLIC	??$construct@PAU?$_List_node@PAVRaven_PathPlanner@@PAX@std@@AAPAU12@@?$_Default_allocator_traits@V?$allocator@U?$_List_node@PAVRaven_PathPlanner@@PAX@std@@@std@@@std@@SAXAAV?$allocator@U?$_List_node@PAVRaven_PathPlanner@@PAX@std@@@1@QAPAU?$_List_node@PAVRaven_PathPlanner@@PAX@1@AAPAU31@@Z ; std::_Default_allocator_traits<std::allocator<std::_List_node<Raven_PathPlanner *,void *> > >::construct<std::_List_node<Raven_PathPlanner *,void *> *,std::_List_node<Raven_PathPlanner *,void *> * &>
PUBLIC	??$forward@AAPAU?$_List_node@PAVRaven_PathPlanner@@PAX@std@@@std@@YAAAPAU?$_List_node@PAVRaven_PathPlanner@@PAX@0@AAPAU10@@Z ; std::forward<std::_List_node<Raven_PathPlanner *,void *> * &>
PUBLIC	??_C@_0BB@FCMFBGOM@invalid?5argument@		; `string'
PUBLIC	??_C@_02DKCKIIND@?$CFs@				; `string'
PUBLIC	??_C@_1CG@JNLFBNGN@?$AA?$CC?$AAi?$AAn?$AAv?$AAa?$AAl?$AAi?$AAd?$AA?5?$AAa?$AAr?$AAg?$AAu?$AAm?$AAe@ ; `string'
PUBLIC	??_C@_0BJ@LFDBABJJ@ITERATOR?5LIST?5CORRUPTED?$CB@ ; `string'
PUBLIC	??_C@_0GJ@DMCEMOMH@c?3?2program?5files?5?$CIx86?$CJ?2microsof@ ; `string'
PUBLIC	??_C@_1NC@HPHBFJCM@?$AAc?$AA?3?$AA?2?$AAp?$AAr?$AAo?$AAg?$AAr?$AAa?$AAm?$AA?5?$AAf?$AAi?$AAl?$AAe@ ; `string'
PUBLIC	??_C@_1EE@KLDMFDFL@?$AAs?$AAt?$AAd?$AA?3?$AA?3?$AA_?$AAI?$AAt?$AAe?$AAr?$AAa?$AAt?$AAo?$AAr?$AA_@ ; `string'
PUBLIC	??_C@_1DG@PLBPCAEM@?$AA?$CC?$AAI?$AAT?$AAE?$AAR?$AAA?$AAT?$AAO?$AAR?$AA?5?$AAL?$AAI?$AAS?$AAT?$AA?5@ ; `string'
PUBLIC	??_C@_0GJ@CAJJPMGE@c?3?2program?5files?5?$CIx86?$CJ?2microsof@ ; `string'
PUBLIC	??_C@_1NC@ICJKIMIP@?$AAc?$AA?3?$AA?2?$AAp?$AAr?$AAo?$AAg?$AAr?$AAa?$AAm?$AA?5?$AAf?$AAi?$AAl?$AAe@ ; `string'
PUBLIC	??_C@_1EK@NIFDJFDG@?$AAs?$AAt?$AAd?$AA?3?$AA?3?$AA_?$AAA?$AAd?$AAj?$AAu?$AAs?$AAt?$AA_?$AAm?$AAa@ ; `string'
PUBLIC	??_7?$Graph_SearchTimeSliced@VNavGraphEdge@@@@6B@ ; Graph_SearchTimeSliced<NavGraphEdge>::`vftable'
PUBLIC	??_7?$Graph_SearchAStar_TS@V?$SparseGraph@V?$NavGraphNode@PAV?$Trigger@VRaven_Bot@@@@@@VNavGraphEdge@@@@VHeuristic_Euclid@@@@6B@ ; Graph_SearchAStar_TS<SparseGraph<NavGraphNode<Trigger<Raven_Bot> *>,NavGraphEdge>,Heuristic_Euclid>::`vftable'
PUBLIC	??_7?$Graph_SearchDijkstras_TS@V?$SparseGraph@V?$NavGraphNode@PAV?$Trigger@VRaven_Bot@@@@@@VNavGraphEdge@@@@V?$FindActiveTrigger@V?$Trigger@VRaven_Bot@@@@@@@@6B@ ; Graph_SearchDijkstras_TS<SparseGraph<NavGraphNode<Trigger<Raven_Bot> *>,NavGraphEdge>,FindActiveTrigger<Trigger<Raven_Bot> > >::`vftable'
PUBLIC	??_C@_0DB@ENBCPNKO@cannot?5increment?5value?9initiali@ ; `string'
PUBLIC	??_C@_0GF@CDIONFB@c?3?2program?5files?5?$CIx86?$CJ?2microsof@ ; `string'
PUBLIC	??_C@_1MK@MDLCPFJD@?$AAc?$AA?3?$AA?2?$AAp?$AAr?$AAo?$AAg?$AAr?$AAa?$AAm?$AA?5?$AAf?$AAi?$AAl?$AAe@ ; `string'
PUBLIC	??_C@_1BAC@HKHBFIDI@?$AAs?$AAt?$AAd?$AA?3?$AA?3?$AA_?$AAL?$AAi?$AAs?$AAt?$AA_?$AAc?$AAo?$AAn?$AAs@ ; `string'
PUBLIC	??_C@_1GG@JLMAGPNK@?$AA?$CC?$AAc?$AAa?$AAn?$AAn?$AAo?$AAt?$AA?5?$AAi?$AAn?$AAc?$AAr?$AAe?$AAm?$AAe@ ; `string'
PUBLIC	??_C@_0CD@PMFMCEG@cannot?5increment?5end?5list?5itera@ ; `string'
PUBLIC	??_C@_1EK@OKKCFDJN@?$AA?$CC?$AAc?$AAa?$AAn?$AAn?$AAo?$AAt?$AA?5?$AAi?$AAn?$AAc?$AAr?$AAe?$AAm?$AAe@ ; `string'
PUBLIC	??_C@_0DD@MBIHGLJE@cannot?5dereference?5value?9initia@ ; `string'
PUBLIC	??_C@_1BAA@MNPJGKFJ@?$AAs?$AAt?$AAd?$AA?3?$AA?3?$AA_?$AAL?$AAi?$AAs?$AAt?$AA_?$AAc?$AAo?$AAn?$AAs@ ; `string'
PUBLIC	??_C@_1GK@NKIMOCIG@?$AA?$CC?$AAc?$AAa?$AAn?$AAn?$AAo?$AAt?$AA?5?$AAd?$AAe?$AAr?$AAe?$AAf?$AAe?$AAr@ ; `string'
PUBLIC	??_C@_0CF@JCBFHMPL@cannot?5dereference?5end?5list?5ite@ ; `string'
PUBLIC	??_C@_1EO@CNEFBDCF@?$AA?$CC?$AAc?$AAa?$AAn?$AAn?$AAo?$AAt?$AA?5?$AAd?$AAe?$AAr?$AAe?$AAf?$AAe?$AAr@ ; `string'
PUBLIC	??_C@_0BO@PFKOHNJC@vector?5subscript?5out?5of?5range@ ; `string'
PUBLIC	??_C@_0GH@PHBFPDPI@c?3?2program?5files?5?$CIx86?$CJ?2microsof@ ; `string'
PUBLIC	??_C@_1MO@GGNBFPEH@?$AAc?$AA?3?$AA?2?$AAp?$AAr?$AAo?$AAg?$AAr?$AAa?$AAm?$AA?5?$AAf?$AAi?$AAl?$AAe@ ; `string'
PUBLIC	??_C@_1EA@LEKOKFNB@?$AA?$CC?$AAv?$AAe?$AAc?$AAt?$AAo?$AAr?$AA?5?$AAs?$AAu?$AAb?$AAs?$AAc?$AAr?$AAi@ ; `string'
PUBLIC	??_C@_1HO@GLEAPAMD@?$AAs?$AAt?$AAd?$AA?3?$AA?3?$AAv?$AAe?$AAc?$AAt?$AAo?$AAr?$AA?$DM?$AAd?$AAo?$AAu@ ; `string'
PUBLIC	?id@?$codecvt@DDU_Mbstatet@@@std@@2V0locale@2@A	; std::codecvt<char,char,_Mbstatet>::id
PUBLIC	?id@?$num_put@DV?$ostreambuf_iterator@DU?$char_traits@D@std@@@std@@@std@@2V0locale@2@A ; std::num_put<char,std::ostreambuf_iterator<char,std::char_traits<char> > >::id
PUBLIC	??_C@_0BM@BALDKKHE@list?5iterators?5incompatible@ ; `string'
PUBLIC	??_C@_1NO@HMALCLJG@?$AAs?$AAt?$AAd?$AA?3?$AA?3?$AA_?$AAL?$AAi?$AAs?$AAt?$AA_?$AAc?$AAo?$AAn?$AAs@ ; `string'
PUBLIC	??_C@_1DM@KDLJAKOP@?$AA?$CC?$AAl?$AAi?$AAs?$AAt?$AA?5?$AAi?$AAt?$AAe?$AAr?$AAa?$AAt?$AAo?$AAr?$AAs@ ; `string'
PUBLIC	??_C@_0DB@MCPEHPCC@cannot?5decrement?5value?9initiali@ ; `string'
PUBLIC	??_C@_1NO@CPMEHOJC@?$AAs?$AAt?$AAd?$AA?3?$AA?3?$AA_?$AAL?$AAi?$AAs?$AAt?$AA_?$AAc?$AAo?$AAn?$AAs@ ; `string'
PUBLIC	??_C@_1GG@FLDKPFOH@?$AA?$CC?$AAc?$AAa?$AAn?$AAn?$AAo?$AAt?$AA?5?$AAd?$AAe?$AAc?$AAr?$AAe?$AAm?$AAe@ ; `string'
PUBLIC	??_C@_0CF@BAAFPBMN@cannot?5decrement?5begin?5list?5ite@ ; `string'
PUBLIC	??_C@_1EO@PPPLIDNC@?$AA?$CC?$AAc?$AAa?$AAn?$AAn?$AAo?$AAt?$AA?5?$AAd?$AAe?$AAc?$AAr?$AAe?$AAm?$AAe@ ; `string'
PUBLIC	??_C@_1NO@NMPGMCFD@?$AAs?$AAt?$AAd?$AA?3?$AA?3?$AA_?$AAL?$AAi?$AAs?$AAt?$AA_?$AAc?$AAo?$AAn?$AAs@ ; `string'
PUBLIC	??_C@_1BAC@NKIMLBPN@?$AAs?$AAt?$AAd?$AA?3?$AA?3?$AA_?$AAL?$AAi?$AAs?$AAt?$AA_?$AAc?$AAo?$AAn?$AAs@ ; `string'
PUBLIC	?id@?$numpunct@D@std@@2V0locale@2@A		; std::numpunct<char>::id
PUBLIC	??_C@_1LK@BLFBEIJO@?$AAc?$AA?3?$AA?2?$AAu?$AAs?$AAe?$AAr?$AAs?$AA?2?$AAu?$AAt?$AAi?$AAl?$AAi?$AAs@ ; `string'
PUBLIC	??_C@_1DA@HEIDPBNG@?$AAm?$AA_?$AAi?$AAS?$AAi?$AAz?$AAe?$AA?$CL?$AA1?$AA?5?$AA?$DM?$AA?$DN?$AA?5?$AAm?$AA_@ ; `string'
PUBLIC	??_C@_0CC@KEJJOMBH@list?5erase?5iterator?5outside?5ran@ ; `string'
PUBLIC	??_C@_1JK@HEAEGEKC@?$AAs?$AAt?$AAd?$AA?3?$AA?3?$AAl?$AAi?$AAs?$AAt?$AA?$DM?$AAc?$AAl?$AAa?$AAs?$AAs@ ; `string'
PUBLIC	??_C@_1EI@FHIDKIBN@?$AA?$CC?$AAl?$AAi?$AAs?$AAt?$AA?5?$AAe?$AAr?$AAa?$AAs?$AAe?$AA?5?$AAi?$AAt?$AAe@ ; `string'
PUBLIC	??_C@_0BO@CAOBBIOC@vector?5iterators?5incompatible@ ; `string'
PUBLIC	??_C@_1BCE@OCGHGJBH@?$AAs?$AAt?$AAd?$AA?3?$AA?3?$AA_?$AAV?$AAe?$AAc?$AAt?$AAo?$AAr?$AA_?$AAc?$AAo@ ; `string'
PUBLIC	??_C@_1EA@DJDGNIII@?$AA?$CC?$AAv?$AAe?$AAc?$AAt?$AAo?$AAr?$AA?5?$AAi?$AAt?$AAe?$AAr?$AAa?$AAt?$AAo@ ; `string'
PUBLIC	??_C@_0DC@KEKNBAEB@can?8t?5increment?5value?9initializ@ ; `string'
PUBLIC	??_C@_1BCM@PPJHGIFH@?$AAs?$AAt?$AAd?$AA?3?$AA?3?$AA_?$AAV?$AAe?$AAc?$AAt?$AAo?$AAr?$AA_?$AAc?$AAo@ ; `string'
PUBLIC	??_C@_1GI@EDCILPL@?$AA?$CC?$AAc?$AAa?$AAn?$AA?8?$AAt?$AA?5?$AAi?$AAn?$AAc?$AAr?$AAe?$AAm?$AAe?$AAn@ ; `string'
PUBLIC	??_C@_0CJ@OAAAAGPM@can?8t?5increment?5vector?5iterator@ ; `string'
PUBLIC	??_C@_1FG@LDPPKMGP@?$AA?$CC?$AAc?$AAa?$AAn?$AA?8?$AAt?$AA?5?$AAi?$AAn?$AAc?$AAr?$AAe?$AAm?$AAe?$AAn@ ; `string'
PUBLIC	??_C@_0DE@CHADHGFF@can?8t?5dereference?5value?9initial@ ; `string'
PUBLIC	??_C@_1BCK@BOMLPPEO@?$AAs?$AAt?$AAd?$AA?3?$AA?3?$AA_?$AAV?$AAe?$AAc?$AAt?$AAo?$AAr?$AA_?$AAc?$AAo@ ; `string'
PUBLIC	??_C@_1GM@FNBFNBEL@?$AA?$CC?$AAc?$AAa?$AAn?$AA?8?$AAt?$AA?5?$AAd?$AAe?$AAr?$AAe?$AAf?$AAe?$AAr?$AAe@ ; `string'
PUBLIC	??_C@_0CP@MDHADBHN@can?8t?5dereference?5out?5of?5range?5@ ; `string'
PUBLIC	??_C@_1GC@JDCKOLAC@?$AA?$CC?$AAc?$AAa?$AAn?$AA?8?$AAt?$AA?5?$AAd?$AAe?$AAr?$AAe?$AAf?$AAe?$AAr?$AAe@ ; `string'
PUBLIC	??_C@_1MI@DMDPBFHG@?$AAs?$AAt?$AAd?$AA?3?$AA?3?$AA_?$AAL?$AAi?$AAs?$AAt?$AA_?$AAc?$AAo?$AAn?$AAs@ ; `string'
PUBLIC	??_C@_1MG@EPLOJHHC@?$AAs?$AAt?$AAd?$AA?3?$AA?3?$AA_?$AAL?$AAi?$AAs?$AAt?$AA_?$AAc?$AAo?$AAn?$AAs@ ; `string'
PUBLIC	??_C@_1NM@GONFAHHJ@?$AAs?$AAt?$AAd?$AA?3?$AA?3?$AA_?$AAL?$AAi?$AAs?$AAt?$AA_?$AAc?$AAo?$AAn?$AAs@ ; `string'
PUBLIC	?id@?$collate@D@std@@2V0locale@2@A		; std::collate<char>::id
PUBLIC	??_C@_0BD@OLBABOEK@vector?$DMT?$DO?5too?5long@	; `string'
PUBLIC	??_C@_1HC@HBCEAHKD@?$AAs?$AAt?$AAd?$AA?3?$AA?3?$AAv?$AAe?$AAc?$AAt?$AAo?$AAr?$AA?$DM?$AAi?$AAn?$AAt@ ; `string'
PUBLIC	?id@?$num_get@DV?$istreambuf_iterator@DU?$char_traits@D@std@@@std@@@std@@2V0locale@2@A ; std::num_get<char,std::istreambuf_iterator<char,std::char_traits<char> > >::id
PUBLIC	??_C@_1MO@IGMNEFGG@?$AAs?$AAt?$AAd?$AA?3?$AA?3?$AAv?$AAe?$AAc?$AAt?$AAo?$AAr?$AA?$DM?$AAc?$AAl?$AAa@ ; `string'
PUBLIC	??_C@_1PE@KDKMFEPD@?$AAs?$AAt?$AAd?$AA?3?$AA?3?$AA_?$AAL?$AAi?$AAs?$AAt?$AA_?$AAc?$AAo?$AAn?$AAs@ ; `string'
PUBLIC	??_C@_1BDI@JCBOAGAM@?$AAs?$AAt?$AAd?$AA?3?$AA?3?$AAv?$AAe?$AAc?$AAt?$AAo?$AAr?$AA?$DM?$AAc?$AAl?$AAa@ ; `string'
PUBLIC	??_C@_0BB@MOGOBHAF@list?$DMT?$DO?5too?5long@	; `string'
PUBLIC	??_C@_1OG@CKJILIHG@?$AAs?$AAt?$AAd?$AA?3?$AA?3?$AA_?$AAL?$AAi?$AAs?$AAt?$AA_?$AAc?$AAo?$AAn?$AAs@ ; `string'
PUBLIC	??_C@_1OG@IKGFFBLD@?$AAs?$AAt?$AAd?$AA?3?$AA?3?$AA_?$AAL?$AAi?$AAs?$AAt?$AA_?$AAc?$AAo?$AAn?$AAs@ ; `string'
PUBLIC	??_C@_1OE@FGJDIBAM@?$AAs?$AAt?$AAd?$AA?3?$AA?3?$AA_?$AAL?$AAi?$AAs?$AAt?$AA_?$AAc?$AAo?$AAn?$AAs@ ; `string'
PUBLIC	??_C@_1BCO@KODNABBE@?$AAs?$AAt?$AAd?$AA?3?$AA?3?$AA_?$AAL?$AAi?$AAs?$AAt?$AA_?$AAc?$AAo?$AAn?$AAs@ ; `string'
PUBLIC	??_C@_1BCO@OMAOINB@?$AAs?$AAt?$AAd?$AA?3?$AA?3?$AA_?$AAL?$AAi?$AAs?$AAt?$AA_?$AAc?$AAo?$AAn?$AAs@ ; `string'
PUBLIC	??_C@_1BCM@KPIKOJFJ@?$AAs?$AAt?$AAd?$AA?3?$AA?3?$AA_?$AAL?$AAi?$AAs?$AAt?$AA_?$AAc?$AAo?$AAn?$AAs@ ; `string'
PUBLIC	??_C@_1BEI@LMFHBODB@?$AAs?$AAt?$AAd?$AA?3?$AA?3?$AA_?$AAV?$AAe?$AAc?$AAt?$AAo?$AAr?$AA_?$AAc?$AAo@ ; `string'
PUBLIC	??_C@_1BEI@NMJFKIB@?$AAs?$AAt?$AAd?$AA?3?$AA?3?$AA_?$AAV?$AAe?$AAc?$AAt?$AAo?$AAr?$AA_?$AAc?$AAo@ ; `string'
PUBLIC	??_C@_1BJM@IJPNJFA@?$AAs?$AAt?$AAd?$AA?3?$AA?3?$AAv?$AAe?$AAc?$AAt?$AAo?$AAr?$AA?$DM?$AAc?$AAl?$AAa@ ; `string'
PUBLIC	??_C@_1BEA@ECIHAALN@?$AAs?$AAt?$AAd?$AA?3?$AA?3?$AA_?$AAV?$AAe?$AAc?$AAt?$AAo?$AAr?$AA_?$AAc?$AAo@ ; `string'
PUBLIC	??_C@_1PE@DFBLNDG@?$AAs?$AAt?$AAd?$AA?3?$AA?3?$AA_?$AAL?$AAi?$AAs?$AAt?$AA_?$AAc?$AAo?$AAn?$AAs@ ; `string'
PUBLIC	??_C@_1PC@CJNLBPAC@?$AAs?$AAt?$AAd?$AA?3?$AA?3?$AA_?$AAL?$AAi?$AAs?$AAt?$AA_?$AAc?$AAo?$AAn?$AAs@ ; `string'
PUBLIC	??_C@_1MG@NPHJLMEN@?$AAs?$AAt?$AAd?$AA?3?$AA?3?$AAl?$AAi?$AAs?$AAt?$AA?$DM?$AAc?$AAl?$AAa?$AAs?$AAs@ ; `string'
PUBLIC	??_C@_1EO@GFNCMDLA@?$AAs?$AAt?$AAd?$AA?3?$AA?3?$AA_?$AAA?$AAl?$AAl?$AAo?$AAc?$AAa?$AAt?$AAe?$AA_@ ; `string'
PUBLIC	??_C@_1CG@LJCPDKEJ@?$AAs?$AAt?$AAd?$AA?3?$AA?3?$AA_?$AAV?$AAe?$AAr?$AAi?$AAf?$AAy?$AA_?$AAr?$AAa@ ; `string'
PUBLIC	??_C@_0DG@GAGDEJEE@list?5iterators?5in?5range?5are?5fro@ ; `string'
PUBLIC	??_C@_1HA@KAMKPLHN@?$AA?$CC?$AAl?$AAi?$AAs?$AAt?$AA?5?$AAi?$AAt?$AAe?$AAr?$AAa?$AAt?$AAo?$AAr?$AAs@ ; `string'
PUBLIC	??_R4?$Graph_SearchTimeSliced@VNavGraphEdge@@@@6B@ ; Graph_SearchTimeSliced<NavGraphEdge>::`RTTI Complete Object Locator'
PUBLIC	??_R0?AV?$Graph_SearchTimeSliced@VNavGraphEdge@@@@@8 ; Graph_SearchTimeSliced<NavGraphEdge> `RTTI Type Descriptor'
PUBLIC	??_R3?$Graph_SearchTimeSliced@VNavGraphEdge@@@@8 ; Graph_SearchTimeSliced<NavGraphEdge>::`RTTI Class Hierarchy Descriptor'
PUBLIC	??_R2?$Graph_SearchTimeSliced@VNavGraphEdge@@@@8 ; Graph_SearchTimeSliced<NavGraphEdge>::`RTTI Base Class Array'
PUBLIC	??_R1A@?0A@EA@?$Graph_SearchTimeSliced@VNavGraphEdge@@@@8 ; Graph_SearchTimeSliced<NavGraphEdge>::`RTTI Base Class Descriptor at (0,-1,0,64)'
PUBLIC	??_R4?$Graph_SearchAStar_TS@V?$SparseGraph@V?$NavGraphNode@PAV?$Trigger@VRaven_Bot@@@@@@VNavGraphEdge@@@@VHeuristic_Euclid@@@@6B@ ; Graph_SearchAStar_TS<SparseGraph<NavGraphNode<Trigger<Raven_Bot> *>,NavGraphEdge>,Heuristic_Euclid>::`RTTI Complete Object Locator'
PUBLIC	??_R0?AV?$Graph_SearchAStar_TS@V?$SparseGraph@V?$NavGraphNode@PAV?$Trigger@VRaven_Bot@@@@@@VNavGraphEdge@@@@VHeuristic_Euclid@@@@@8 ; Graph_SearchAStar_TS<SparseGraph<NavGraphNode<Trigger<Raven_Bot> *>,NavGraphEdge>,Heuristic_Euclid> `RTTI Type Descriptor'
PUBLIC	??_R3?$Graph_SearchAStar_TS@V?$SparseGraph@V?$NavGraphNode@PAV?$Trigger@VRaven_Bot@@@@@@VNavGraphEdge@@@@VHeuristic_Euclid@@@@8 ; Graph_SearchAStar_TS<SparseGraph<NavGraphNode<Trigger<Raven_Bot> *>,NavGraphEdge>,Heuristic_Euclid>::`RTTI Class Hierarchy Descriptor'
PUBLIC	??_R2?$Graph_SearchAStar_TS@V?$SparseGraph@V?$NavGraphNode@PAV?$Trigger@VRaven_Bot@@@@@@VNavGraphEdge@@@@VHeuristic_Euclid@@@@8 ; Graph_SearchAStar_TS<SparseGraph<NavGraphNode<Trigger<Raven_Bot> *>,NavGraphEdge>,Heuristic_Euclid>::`RTTI Base Class Array'
PUBLIC	??_R1A@?0A@EA@?$Graph_SearchAStar_TS@V?$SparseGraph@V?$NavGraphNode@PAV?$Trigger@VRaven_Bot@@@@@@VNavGraphEdge@@@@VHeuristic_Euclid@@@@8 ; Graph_SearchAStar_TS<SparseGraph<NavGraphNode<Trigger<Raven_Bot> *>,NavGraphEdge>,Heuristic_Euclid>::`RTTI Base Class Descriptor at (0,-1,0,64)'
PUBLIC	??_R4?$Graph_SearchDijkstras_TS@V?$SparseGraph@V?$NavGraphNode@PAV?$Trigger@VRaven_Bot@@@@@@VNavGraphEdge@@@@V?$FindActiveTrigger@V?$Trigger@VRaven_Bot@@@@@@@@6B@ ; Graph_SearchDijkstras_TS<SparseGraph<NavGraphNode<Trigger<Raven_Bot> *>,NavGraphEdge>,FindActiveTrigger<Trigger<Raven_Bot> > >::`RTTI Complete Object Locator'
PUBLIC	??_R0?AV?$Graph_SearchDijkstras_TS@V?$SparseGraph@V?$NavGraphNode@PAV?$Trigger@VRaven_Bot@@@@@@VNavGraphEdge@@@@V?$FindActiveTrigger@V?$Trigger@VRaven_Bot@@@@@@@@@8 ; Graph_SearchDijkstras_TS<SparseGraph<NavGraphNode<Trigger<Raven_Bot> *>,NavGraphEdge>,FindActiveTrigger<Trigger<Raven_Bot> > > `RTTI Type Descriptor'
PUBLIC	??_R3?$Graph_SearchDijkstras_TS@V?$SparseGraph@V?$NavGraphNode@PAV?$Trigger@VRaven_Bot@@@@@@VNavGraphEdge@@@@V?$FindActiveTrigger@V?$Trigger@VRaven_Bot@@@@@@@@8 ; Graph_SearchDijkstras_TS<SparseGraph<NavGraphNode<Trigger<Raven_Bot> *>,NavGraphEdge>,FindActiveTrigger<Trigger<Raven_Bot> > >::`RTTI Class Hierarchy Descriptor'
PUBLIC	??_R2?$Graph_SearchDijkstras_TS@V?$SparseGraph@V?$NavGraphNode@PAV?$Trigger@VRaven_Bot@@@@@@VNavGraphEdge@@@@V?$FindActiveTrigger@V?$Trigger@VRaven_Bot@@@@@@@@8 ; Graph_SearchDijkstras_TS<SparseGraph<NavGraphNode<Trigger<Raven_Bot> *>,NavGraphEdge>,FindActiveTrigger<Trigger<Raven_Bot> > >::`RTTI Base Class Array'
PUBLIC	??_R1A@?0A@EA@?$Graph_SearchDijkstras_TS@V?$SparseGraph@V?$NavGraphNode@PAV?$Trigger@VRaven_Bot@@@@@@VNavGraphEdge@@@@V?$FindActiveTrigger@V?$Trigger@VRaven_Bot@@@@@@@@8 ; Graph_SearchDijkstras_TS<SparseGraph<NavGraphNode<Trigger<Raven_Bot> *>,NavGraphEdge>,FindActiveTrigger<Trigger<Raven_Bot> > >::`RTTI Base Class Descriptor at (0,-1,0,64)'
PUBLIC	__real@0010000000000000
PUBLIC	__real@00800000
PUBLIC	__real@3d719799812dea11
PUBLIC	__real@4000000000000000
PUBLIC	__real@7f7fffff
PUBLIC	__real@7fefffffffffffff
PUBLIC	__real@bff0000000000000
EXTRN	__purecall:PROC
EXTRN	??2@YAPAXI@Z:PROC				; operator new
EXTRN	??3@YAXPAXI@Z:PROC				; operator delete
EXTRN	__invalid_parameter:PROC
EXTRN	__CrtDbgReport:PROC
EXTRN	??0_Lockit@std@@QAE@H@Z:PROC			; std::_Lockit::_Lockit
EXTRN	??1_Lockit@std@@QAE@XZ:PROC			; std::_Lockit::~_Lockit
EXTRN	_fabs:PROC
EXTRN	_sqrt:PROC
EXTRN	_memmove:PROC
EXTRN	_memset:PROC
EXTRN	?_Xlength_error@std@@YAXPBD@Z:PROC		; std::_Xlength_error
EXTRN	__wassert:PROC
EXTRN	?canWalkTo@Raven_Bot@@QBE_NUVector2D@@@Z:PROC	; Raven_Bot::canWalkTo
EXTRN	?canWalkBetween@Raven_Bot@@QBE_NUVector2D@@0@Z:PROC ; Raven_Bot::canWalkBetween
EXTRN	?CalculateCostToTravelBetweenNodes@Raven_Map@@QBENHH@Z:PROC ; Raven_Map::CalculateCostToTravelBetweenNodes
EXTRN	?Instance@Raven_UserOptions@@SAPAV1@XZ:PROC	; Raven_UserOptions::Instance
EXTRN	?Instance@MessageDispatcher@@SAPAV1@XZ:PROC	; MessageDispatcher::Instance
EXTRN	?DispatchMsg@MessageDispatcher@@QAEXNHHHPAX@Z:PROC ; MessageDispatcher::DispatchMsg
EXTRN	??_E?$Graph_SearchTimeSliced@VNavGraphEdge@@@@UAEPAXI@Z:PROC ; Graph_SearchTimeSliced<NavGraphEdge>::`vector deleting destructor'
EXTRN	??_E?$Graph_SearchAStar_TS@V?$SparseGraph@V?$NavGraphNode@PAV?$Trigger@VRaven_Bot@@@@@@VNavGraphEdge@@@@VHeuristic_Euclid@@@@UAEPAXI@Z:PROC ; Graph_SearchAStar_TS<SparseGraph<NavGraphNode<Trigger<Raven_Bot> *>,NavGraphEdge>,Heuristic_Euclid>::`vector deleting destructor'
EXTRN	??_E?$Graph_SearchDijkstras_TS@V?$SparseGraph@V?$NavGraphNode@PAV?$Trigger@VRaven_Bot@@@@@@VNavGraphEdge@@@@V?$FindActiveTrigger@V?$Trigger@VRaven_Bot@@@@@@@@UAEPAXI@Z:PROC ; Graph_SearchDijkstras_TS<SparseGraph<NavGraphNode<Trigger<Raven_Bot> *>,NavGraphEdge>,FindActiveTrigger<Trigger<Raven_Bot> > >::`vector deleting destructor'
EXTRN	@_RTC_CheckStackVars@8:PROC
EXTRN	@__security_check_cookie@4:PROC
EXTRN	__CxxThrowException@8:PROC
EXTRN	__RTC_CheckEsp:PROC
EXTRN	__RTC_InitBase:PROC
EXTRN	__RTC_Shutdown:PROC
EXTRN	___CxxFrameHandler3:PROC
EXTRN	??_7type_info@@6B@:QWORD			; type_info::`vftable'
EXTRN	___security_cookie:DWORD
EXTRN	__fltused:DWORD
_BSS	SEGMENT
?MaxInt@@3HB DD	01H DUP (?)				; MaxInt
	ALIGN	8

?MaxDouble@@3NB DQ 01H DUP (?)				; MaxDouble
?MinDouble@@3NB DQ 01H DUP (?)				; MinDouble
?MaxFloat@@3MB DD 01H DUP (?)				; MaxFloat
?MinFloat@@3MB DD 01H DUP (?)				; MinFloat
_BSS	ENDS
;	COMDAT ?id@?$codecvt@DDU_Mbstatet@@@std@@2V0locale@2@A
_BSS	SEGMENT
?id@?$codecvt@DDU_Mbstatet@@@std@@2V0locale@2@A DD 01H DUP (?) ; std::codecvt<char,char,_Mbstatet>::id
_BSS	ENDS
;	COMDAT ?id@?$num_put@DV?$ostreambuf_iterator@DU?$char_traits@D@std@@@std@@@std@@2V0locale@2@A
_BSS	SEGMENT
?id@?$num_put@DV?$ostreambuf_iterator@DU?$char_traits@D@std@@@std@@@std@@2V0locale@2@A DD 01H DUP (?) ; std::num_put<char,std::ostreambuf_iterator<char,std::char_traits<char> > >::id
_BSS	ENDS
;	COMDAT ?id@?$numpunct@D@std@@2V0locale@2@A
_BSS	SEGMENT
?id@?$numpunct@D@std@@2V0locale@2@A DD 01H DUP (?)	; std::numpunct<char>::id
_BSS	ENDS
;	COMDAT ?id@?$collate@D@std@@2V0locale@2@A
_BSS	SEGMENT
?id@?$collate@D@std@@2V0locale@2@A DD 01H DUP (?)	; std::collate<char>::id
_BSS	ENDS
;	COMDAT ?id@?$num_get@DV?$istreambuf_iterator@DU?$char_traits@D@std@@@std@@@std@@2V0locale@2@A
_BSS	SEGMENT
?id@?$num_get@DV?$istreambuf_iterator@DU?$char_traits@D@std@@@std@@@std@@2V0locale@2@A DD 01H DUP (?) ; std::num_get<char,std::istreambuf_iterator<char,std::char_traits<char> > >::id
_BSS	ENDS
CRT$XCU	SEGMENT
?MaxInt$initializer$@@3P6AXXZA DD FLAT:??__EMaxInt@@YAXXZ ; MaxInt$initializer$
CRT$XCU	ENDS
;	COMDAT __real@bff0000000000000
CONST	SEGMENT
__real@bff0000000000000 DQ 0bff0000000000000r	; -1
CONST	ENDS
;	COMDAT __real@7fefffffffffffff
CONST	SEGMENT
__real@7fefffffffffffff DQ 07fefffffffffffffr	; 1.79769e+308
CONST	ENDS
;	COMDAT __real@7f7fffff
CONST	SEGMENT
__real@7f7fffff DD 07f7fffffr			; 3.40282e+38
CONST	ENDS
;	COMDAT __real@4000000000000000
CONST	SEGMENT
__real@4000000000000000 DQ 04000000000000000r	; 2
CONST	ENDS
;	COMDAT __real@3d719799812dea11
CONST	SEGMENT
__real@3d719799812dea11 DQ 03d719799812dea11r	; 1e-12
CONST	ENDS
;	COMDAT __real@00800000
CONST	SEGMENT
__real@00800000 DD 000800000r			; 1.17549e-38
CONST	ENDS
;	COMDAT __real@0010000000000000
CONST	SEGMENT
__real@0010000000000000 DQ 00010000000000000r	; 2.22507e-308
CONST	ENDS
;	COMDAT rtc$TMZ
rtc$TMZ	SEGMENT
__RTC_Shutdown.rtc$TMZ DD FLAT:__RTC_Shutdown
rtc$TMZ	ENDS
;	COMDAT rtc$IMZ
rtc$IMZ	SEGMENT
__RTC_InitBase.rtc$IMZ DD FLAT:__RTC_InitBase
rtc$IMZ	ENDS
;	COMDAT ??_R1A@?0A@EA@?$Graph_SearchDijkstras_TS@V?$SparseGraph@V?$NavGraphNode@PAV?$Trigger@VRaven_Bot@@@@@@VNavGraphEdge@@@@V?$FindActiveTrigger@V?$Trigger@VRaven_Bot@@@@@@@@8
rdata$r	SEGMENT
??_R1A@?0A@EA@?$Graph_SearchDijkstras_TS@V?$SparseGraph@V?$NavGraphNode@PAV?$Trigger@VRaven_Bot@@@@@@VNavGraphEdge@@@@V?$FindActiveTrigger@V?$Trigger@VRaven_Bot@@@@@@@@8 DD FLAT:??_R0?AV?$Graph_SearchDijkstras_TS@V?$SparseGraph@V?$NavGraphNode@PAV?$Trigger@VRaven_Bot@@@@@@VNavGraphEdge@@@@V?$FindActiveTrigger@V?$Trigger@VRaven_Bot@@@@@@@@@8 ; Graph_SearchDijkstras_TS<SparseGraph<NavGraphNode<Trigger<Raven_Bot> *>,NavGraphEdge>,FindActiveTrigger<Trigger<Raven_Bot> > >::`RTTI Base Class Descriptor at (0,-1,0,64)'
	DD	01H
	DD	00H
	DD	0ffffffffH
	DD	00H
	DD	040H
	DD	FLAT:??_R3?$Graph_SearchDijkstras_TS@V?$SparseGraph@V?$NavGraphNode@PAV?$Trigger@VRaven_Bot@@@@@@VNavGraphEdge@@@@V?$FindActiveTrigger@V?$Trigger@VRaven_Bot@@@@@@@@8
rdata$r	ENDS
;	COMDAT ??_R2?$Graph_SearchDijkstras_TS@V?$SparseGraph@V?$NavGraphNode@PAV?$Trigger@VRaven_Bot@@@@@@VNavGraphEdge@@@@V?$FindActiveTrigger@V?$Trigger@VRaven_Bot@@@@@@@@8
rdata$r	SEGMENT
??_R2?$Graph_SearchDijkstras_TS@V?$SparseGraph@V?$NavGraphNode@PAV?$Trigger@VRaven_Bot@@@@@@VNavGraphEdge@@@@V?$FindActiveTrigger@V?$Trigger@VRaven_Bot@@@@@@@@8 DD FLAT:??_R1A@?0A@EA@?$Graph_SearchDijkstras_TS@V?$SparseGraph@V?$NavGraphNode@PAV?$Trigger@VRaven_Bot@@@@@@VNavGraphEdge@@@@V?$FindActiveTrigger@V?$Trigger@VRaven_Bot@@@@@@@@8 ; Graph_SearchDijkstras_TS<SparseGraph<NavGraphNode<Trigger<Raven_Bot> *>,NavGraphEdge>,FindActiveTrigger<Trigger<Raven_Bot> > >::`RTTI Base Class Array'
	DD	FLAT:??_R1A@?0A@EA@?$Graph_SearchTimeSliced@VNavGraphEdge@@@@8
rdata$r	ENDS
;	COMDAT ??_R3?$Graph_SearchDijkstras_TS@V?$SparseGraph@V?$NavGraphNode@PAV?$Trigger@VRaven_Bot@@@@@@VNavGraphEdge@@@@V?$FindActiveTrigger@V?$Trigger@VRaven_Bot@@@@@@@@8
rdata$r	SEGMENT
??_R3?$Graph_SearchDijkstras_TS@V?$SparseGraph@V?$NavGraphNode@PAV?$Trigger@VRaven_Bot@@@@@@VNavGraphEdge@@@@V?$FindActiveTrigger@V?$Trigger@VRaven_Bot@@@@@@@@8 DD 00H ; Graph_SearchDijkstras_TS<SparseGraph<NavGraphNode<Trigger<Raven_Bot> *>,NavGraphEdge>,FindActiveTrigger<Trigger<Raven_Bot> > >::`RTTI Class Hierarchy Descriptor'
	DD	00H
	DD	02H
	DD	FLAT:??_R2?$Graph_SearchDijkstras_TS@V?$SparseGraph@V?$NavGraphNode@PAV?$Trigger@VRaven_Bot@@@@@@VNavGraphEdge@@@@V?$FindActiveTrigger@V?$Trigger@VRaven_Bot@@@@@@@@8
rdata$r	ENDS
;	COMDAT ??_R0?AV?$Graph_SearchDijkstras_TS@V?$SparseGraph@V?$NavGraphNode@PAV?$Trigger@VRaven_Bot@@@@@@VNavGraphEdge@@@@V?$FindActiveTrigger@V?$Trigger@VRaven_Bot@@@@@@@@@8
data$r	SEGMENT
??_R0?AV?$Graph_SearchDijkstras_TS@V?$SparseGraph@V?$NavGraphNode@PAV?$Trigger@VRaven_Bot@@@@@@VNavGraphEdge@@@@V?$FindActiveTrigger@V?$Trigger@VRaven_Bot@@@@@@@@@8 DD FLAT:??_7type_info@@6B@ ; Graph_SearchDijkstras_TS<SparseGraph<NavGraphNode<Trigger<Raven_Bot> *>,NavGraphEdge>,FindActiveTrigger<Trigger<Raven_Bot> > > `RTTI Type Descriptor'
	DD	00H
	DB	'.?AV?$Graph_SearchDijkstras_TS@V?$SparseGraph@V?$NavGrap'
	DB	'hNode@PAV?$Trigger@VRaven_Bot@@@@@@VNavGraphEdge@@@@V?$FindAc'
	DB	'tiveTrigger@V?$Trigger@VRaven_Bot@@@@@@@@', 00H
data$r	ENDS
;	COMDAT ??_R4?$Graph_SearchDijkstras_TS@V?$SparseGraph@V?$NavGraphNode@PAV?$Trigger@VRaven_Bot@@@@@@VNavGraphEdge@@@@V?$FindActiveTrigger@V?$Trigger@VRaven_Bot@@@@@@@@6B@
rdata$r	SEGMENT
??_R4?$Graph_SearchDijkstras_TS@V?$SparseGraph@V?$NavGraphNode@PAV?$Trigger@VRaven_Bot@@@@@@VNavGraphEdge@@@@V?$FindActiveTrigger@V?$Trigger@VRaven_Bot@@@@@@@@6B@ DD 00H ; Graph_SearchDijkstras_TS<SparseGraph<NavGraphNode<Trigger<Raven_Bot> *>,NavGraphEdge>,FindActiveTrigger<Trigger<Raven_Bot> > >::`RTTI Complete Object Locator'
	DD	00H
	DD	00H
	DD	FLAT:??_R0?AV?$Graph_SearchDijkstras_TS@V?$SparseGraph@V?$NavGraphNode@PAV?$Trigger@VRaven_Bot@@@@@@VNavGraphEdge@@@@V?$FindActiveTrigger@V?$Trigger@VRaven_Bot@@@@@@@@@8
	DD	FLAT:??_R3?$Graph_SearchDijkstras_TS@V?$SparseGraph@V?$NavGraphNode@PAV?$Trigger@VRaven_Bot@@@@@@VNavGraphEdge@@@@V?$FindActiveTrigger@V?$Trigger@VRaven_Bot@@@@@@@@8
rdata$r	ENDS
;	COMDAT ??_R1A@?0A@EA@?$Graph_SearchAStar_TS@V?$SparseGraph@V?$NavGraphNode@PAV?$Trigger@VRaven_Bot@@@@@@VNavGraphEdge@@@@VHeuristic_Euclid@@@@8
rdata$r	SEGMENT
??_R1A@?0A@EA@?$Graph_SearchAStar_TS@V?$SparseGraph@V?$NavGraphNode@PAV?$Trigger@VRaven_Bot@@@@@@VNavGraphEdge@@@@VHeuristic_Euclid@@@@8 DD FLAT:??_R0?AV?$Graph_SearchAStar_TS@V?$SparseGraph@V?$NavGraphNode@PAV?$Trigger@VRaven_Bot@@@@@@VNavGraphEdge@@@@VHeuristic_Euclid@@@@@8 ; Graph_SearchAStar_TS<SparseGraph<NavGraphNode<Trigger<Raven_Bot> *>,NavGraphEdge>,Heuristic_Euclid>::`RTTI Base Class Descriptor at (0,-1,0,64)'
	DD	01H
	DD	00H
	DD	0ffffffffH
	DD	00H
	DD	040H
	DD	FLAT:??_R3?$Graph_SearchAStar_TS@V?$SparseGraph@V?$NavGraphNode@PAV?$Trigger@VRaven_Bot@@@@@@VNavGraphEdge@@@@VHeuristic_Euclid@@@@8
rdata$r	ENDS
;	COMDAT ??_R2?$Graph_SearchAStar_TS@V?$SparseGraph@V?$NavGraphNode@PAV?$Trigger@VRaven_Bot@@@@@@VNavGraphEdge@@@@VHeuristic_Euclid@@@@8
rdata$r	SEGMENT
??_R2?$Graph_SearchAStar_TS@V?$SparseGraph@V?$NavGraphNode@PAV?$Trigger@VRaven_Bot@@@@@@VNavGraphEdge@@@@VHeuristic_Euclid@@@@8 DD FLAT:??_R1A@?0A@EA@?$Graph_SearchAStar_TS@V?$SparseGraph@V?$NavGraphNode@PAV?$Trigger@VRaven_Bot@@@@@@VNavGraphEdge@@@@VHeuristic_Euclid@@@@8 ; Graph_SearchAStar_TS<SparseGraph<NavGraphNode<Trigger<Raven_Bot> *>,NavGraphEdge>,Heuristic_Euclid>::`RTTI Base Class Array'
	DD	FLAT:??_R1A@?0A@EA@?$Graph_SearchTimeSliced@VNavGraphEdge@@@@8
rdata$r	ENDS
;	COMDAT ??_R3?$Graph_SearchAStar_TS@V?$SparseGraph@V?$NavGraphNode@PAV?$Trigger@VRaven_Bot@@@@@@VNavGraphEdge@@@@VHeuristic_Euclid@@@@8
rdata$r	SEGMENT
??_R3?$Graph_SearchAStar_TS@V?$SparseGraph@V?$NavGraphNode@PAV?$Trigger@VRaven_Bot@@@@@@VNavGraphEdge@@@@VHeuristic_Euclid@@@@8 DD 00H ; Graph_SearchAStar_TS<SparseGraph<NavGraphNode<Trigger<Raven_Bot> *>,NavGraphEdge>,Heuristic_Euclid>::`RTTI Class Hierarchy Descriptor'
	DD	00H
	DD	02H
	DD	FLAT:??_R2?$Graph_SearchAStar_TS@V?$SparseGraph@V?$NavGraphNode@PAV?$Trigger@VRaven_Bot@@@@@@VNavGraphEdge@@@@VHeuristic_Euclid@@@@8
rdata$r	ENDS
;	COMDAT ??_R0?AV?$Graph_SearchAStar_TS@V?$SparseGraph@V?$NavGraphNode@PAV?$Trigger@VRaven_Bot@@@@@@VNavGraphEdge@@@@VHeuristic_Euclid@@@@@8
data$r	SEGMENT
??_R0?AV?$Graph_SearchAStar_TS@V?$SparseGraph@V?$NavGraphNode@PAV?$Trigger@VRaven_Bot@@@@@@VNavGraphEdge@@@@VHeuristic_Euclid@@@@@8 DD FLAT:??_7type_info@@6B@ ; Graph_SearchAStar_TS<SparseGraph<NavGraphNode<Trigger<Raven_Bot> *>,NavGraphEdge>,Heuristic_Euclid> `RTTI Type Descriptor'
	DD	00H
	DB	'.?AV?$Graph_SearchAStar_TS@V?$SparseGraph@V?$NavGraphNod'
	DB	'e@PAV?$Trigger@VRaven_Bot@@@@@@VNavGraphEdge@@@@VHeuristic_Eu'
	DB	'clid@@@@', 00H
data$r	ENDS
;	COMDAT ??_R4?$Graph_SearchAStar_TS@V?$SparseGraph@V?$NavGraphNode@PAV?$Trigger@VRaven_Bot@@@@@@VNavGraphEdge@@@@VHeuristic_Euclid@@@@6B@
rdata$r	SEGMENT
??_R4?$Graph_SearchAStar_TS@V?$SparseGraph@V?$NavGraphNode@PAV?$Trigger@VRaven_Bot@@@@@@VNavGraphEdge@@@@VHeuristic_Euclid@@@@6B@ DD 00H ; Graph_SearchAStar_TS<SparseGraph<NavGraphNode<Trigger<Raven_Bot> *>,NavGraphEdge>,Heuristic_Euclid>::`RTTI Complete Object Locator'
	DD	00H
	DD	00H
	DD	FLAT:??_R0?AV?$Graph_SearchAStar_TS@V?$SparseGraph@V?$NavGraphNode@PAV?$Trigger@VRaven_Bot@@@@@@VNavGraphEdge@@@@VHeuristic_Euclid@@@@@8
	DD	FLAT:??_R3?$Graph_SearchAStar_TS@V?$SparseGraph@V?$NavGraphNode@PAV?$Trigger@VRaven_Bot@@@@@@VNavGraphEdge@@@@VHeuristic_Euclid@@@@8
rdata$r	ENDS
;	COMDAT ??_R1A@?0A@EA@?$Graph_SearchTimeSliced@VNavGraphEdge@@@@8
rdata$r	SEGMENT
??_R1A@?0A@EA@?$Graph_SearchTimeSliced@VNavGraphEdge@@@@8 DD FLAT:??_R0?AV?$Graph_SearchTimeSliced@VNavGraphEdge@@@@@8 ; Graph_SearchTimeSliced<NavGraphEdge>::`RTTI Base Class Descriptor at (0,-1,0,64)'
	DD	00H
	DD	00H
	DD	0ffffffffH
	DD	00H
	DD	040H
	DD	FLAT:??_R3?$Graph_SearchTimeSliced@VNavGraphEdge@@@@8
rdata$r	ENDS
;	COMDAT ??_R2?$Graph_SearchTimeSliced@VNavGraphEdge@@@@8
rdata$r	SEGMENT
??_R2?$Graph_SearchTimeSliced@VNavGraphEdge@@@@8 DD FLAT:??_R1A@?0A@EA@?$Graph_SearchTimeSliced@VNavGraphEdge@@@@8 ; Graph_SearchTimeSliced<NavGraphEdge>::`RTTI Base Class Array'
rdata$r	ENDS
;	COMDAT ??_R3?$Graph_SearchTimeSliced@VNavGraphEdge@@@@8
rdata$r	SEGMENT
??_R3?$Graph_SearchTimeSliced@VNavGraphEdge@@@@8 DD 00H	; Graph_SearchTimeSliced<NavGraphEdge>::`RTTI Class Hierarchy Descriptor'
	DD	00H
	DD	01H
	DD	FLAT:??_R2?$Graph_SearchTimeSliced@VNavGraphEdge@@@@8
rdata$r	ENDS
;	COMDAT ??_R0?AV?$Graph_SearchTimeSliced@VNavGraphEdge@@@@@8
data$r	SEGMENT
??_R0?AV?$Graph_SearchTimeSliced@VNavGraphEdge@@@@@8 DD FLAT:??_7type_info@@6B@ ; Graph_SearchTimeSliced<NavGraphEdge> `RTTI Type Descriptor'
	DD	00H
	DB	'.?AV?$Graph_SearchTimeSliced@VNavGraphEdge@@@@', 00H
data$r	ENDS
;	COMDAT ??_R4?$Graph_SearchTimeSliced@VNavGraphEdge@@@@6B@
rdata$r	SEGMENT
??_R4?$Graph_SearchTimeSliced@VNavGraphEdge@@@@6B@ DD 00H ; Graph_SearchTimeSliced<NavGraphEdge>::`RTTI Complete Object Locator'
	DD	00H
	DD	00H
	DD	FLAT:??_R0?AV?$Graph_SearchTimeSliced@VNavGraphEdge@@@@@8
	DD	FLAT:??_R3?$Graph_SearchTimeSliced@VNavGraphEdge@@@@8
rdata$r	ENDS
;	COMDAT ??_C@_1HA@KAMKPLHN@?$AA?$CC?$AAl?$AAi?$AAs?$AAt?$AA?5?$AAi?$AAt?$AAe?$AAr?$AAa?$AAt?$AAo?$AAr?$AAs@
CONST	SEGMENT
??_C@_1HA@KAMKPLHN@?$AA?$CC?$AAl?$AAi?$AAs?$AAt?$AA?5?$AAi?$AAt?$AAe?$AAr?$AAa?$AAt?$AAo?$AAr?$AAs@ DB '"'
	DB	00H, 'l', 00H, 'i', 00H, 's', 00H, 't', 00H, ' ', 00H, 'i', 00H
	DB	't', 00H, 'e', 00H, 'r', 00H, 'a', 00H, 't', 00H, 'o', 00H, 'r'
	DB	00H, 's', 00H, ' ', 00H, 'i', 00H, 'n', 00H, ' ', 00H, 'r', 00H
	DB	'a', 00H, 'n', 00H, 'g', 00H, 'e', 00H, ' ', 00H, 'a', 00H, 'r'
	DB	00H, 'e', 00H, ' ', 00H, 'f', 00H, 'r', 00H, 'o', 00H, 'm', 00H
	DB	' ', 00H, 'd', 00H, 'i', 00H, 'f', 00H, 'f', 00H, 'e', 00H, 'r'
	DB	00H, 'e', 00H, 'n', 00H, 't', 00H, ' ', 00H, 'c', 00H, 'o', 00H
	DB	'n', 00H, 't', 00H, 'a', 00H, 'i', 00H, 'n', 00H, 'e', 00H, 'r'
	DB	00H, 's', 00H, '"', 00H, 00H, 00H		; `string'
CONST	ENDS
;	COMDAT ??_C@_0DG@GAGDEJEE@list?5iterators?5in?5range?5are?5fro@
CONST	SEGMENT
??_C@_0DG@GAGDEJEE@list?5iterators?5in?5range?5are?5fro@ DB 'list iterato'
	DB	'rs in range are from different containers', 00H ; `string'
CONST	ENDS
;	COMDAT ??_C@_1CG@LJCPDKEJ@?$AAs?$AAt?$AAd?$AA?3?$AA?3?$AA_?$AAV?$AAe?$AAr?$AAi?$AAf?$AAy?$AA_?$AAr?$AAa@
CONST	SEGMENT
??_C@_1CG@LJCPDKEJ@?$AAs?$AAt?$AAd?$AA?3?$AA?3?$AA_?$AAV?$AAe?$AAr?$AAi?$AAf?$AAy?$AA_?$AAr?$AAa@ DB 's'
	DB	00H, 't', 00H, 'd', 00H, ':', 00H, ':', 00H, '_', 00H, 'V', 00H
	DB	'e', 00H, 'r', 00H, 'i', 00H, 'f', 00H, 'y', 00H, '_', 00H, 'r'
	DB	00H, 'a', 00H, 'n', 00H, 'g', 00H, 'e', 00H, 00H, 00H ; `string'
CONST	ENDS
;	COMDAT ??_C@_1EO@GFNCMDLA@?$AAs?$AAt?$AAd?$AA?3?$AA?3?$AA_?$AAA?$AAl?$AAl?$AAo?$AAc?$AAa?$AAt?$AAe?$AA_@
CONST	SEGMENT
??_C@_1EO@GFNCMDLA@?$AAs?$AAt?$AAd?$AA?3?$AA?3?$AA_?$AAA?$AAl?$AAl?$AAo?$AAc?$AAa?$AAt?$AAe?$AA_@ DB 's'
	DB	00H, 't', 00H, 'd', 00H, ':', 00H, ':', 00H, '_', 00H, 'A', 00H
	DB	'l', 00H, 'l', 00H, 'o', 00H, 'c', 00H, 'a', 00H, 't', 00H, 'e'
	DB	00H, '_', 00H, 'm', 00H, 'a', 00H, 'n', 00H, 'u', 00H, 'a', 00H
	DB	'l', 00H, 'l', 00H, 'y', 00H, '_', 00H, 'v', 00H, 'e', 00H, 'c'
	DB	00H, 't', 00H, 'o', 00H, 'r', 00H, '_', 00H, 'a', 00H, 'l', 00H
	DB	'i', 00H, 'g', 00H, 'n', 00H, 'e', 00H, 'd', 00H, 00H, 00H ; `string'
CONST	ENDS
;	COMDAT ??_C@_1MG@NPHJLMEN@?$AAs?$AAt?$AAd?$AA?3?$AA?3?$AAl?$AAi?$AAs?$AAt?$AA?$DM?$AAc?$AAl?$AAa?$AAs?$AAs@
CONST	SEGMENT
??_C@_1MG@NPHJLMEN@?$AAs?$AAt?$AAd?$AA?3?$AA?3?$AAl?$AAi?$AAs?$AAt?$AA?$DM?$AAc?$AAl?$AAa?$AAs?$AAs@ DB 's'
	DB	00H, 't', 00H, 'd', 00H, ':', 00H, ':', 00H, 'l', 00H, 'i', 00H
	DB	's', 00H, 't', 00H, '<', 00H, 'c', 00H, 'l', 00H, 'a', 00H, 's'
	DB	00H, 's', 00H, ' ', 00H, 'R', 00H, 'a', 00H, 'v', 00H, 'e', 00H
	DB	'n', 00H, '_', 00H, 'P', 00H, 'a', 00H, 't', 00H, 'h', 00H, 'P'
	DB	00H, 'l', 00H, 'a', 00H, 'n', 00H, 'n', 00H, 'e', 00H, 'r', 00H
	DB	' ', 00H, '*', 00H, ',', 00H, 'c', 00H, 'l', 00H, 'a', 00H, 's'
	DB	00H, 's', 00H, ' ', 00H, 's', 00H, 't', 00H, 'd', 00H, ':', 00H
	DB	':', 00H, 'a', 00H, 'l', 00H, 'l', 00H, 'o', 00H, 'c', 00H, 'a'
	DB	00H, 't', 00H, 'o', 00H, 'r', 00H, '<', 00H, 'c', 00H, 'l', 00H
	DB	'a', 00H, 's', 00H, 's', 00H, ' ', 00H, 'R', 00H, 'a', 00H, 'v'
	DB	00H, 'e', 00H, 'n', 00H, '_', 00H, 'P', 00H, 'a', 00H, 't', 00H
	DB	'h', 00H, 'P', 00H, 'l', 00H, 'a', 00H, 'n', 00H, 'n', 00H, 'e'
	DB	00H, 'r', 00H, ' ', 00H, '*', 00H, '>', 00H, ' ', 00H, '>', 00H
	DB	':', 00H, ':', 00H, '_', 00H, 'U', 00H, 'n', 00H, 'l', 00H, 'i'
	DB	00H, 'n', 00H, 'k', 00H, 'n', 00H, 'o', 00H, 'd', 00H, 'e', 00H
	DB	00H, 00H					; `string'
CONST	ENDS
;	COMDAT ??_C@_1PC@CJNLBPAC@?$AAs?$AAt?$AAd?$AA?3?$AA?3?$AA_?$AAL?$AAi?$AAs?$AAt?$AA_?$AAc?$AAo?$AAn?$AAs@
CONST	SEGMENT
??_C@_1PC@CJNLBPAC@?$AAs?$AAt?$AAd?$AA?3?$AA?3?$AA_?$AAL?$AAi?$AAs?$AAt?$AA_?$AAc?$AAo?$AAn?$AAs@ DB 's'
	DB	00H, 't', 00H, 'd', 00H, ':', 00H, ':', 00H, '_', 00H, 'L', 00H
	DB	'i', 00H, 's', 00H, 't', 00H, '_', 00H, 'c', 00H, 'o', 00H, 'n'
	DB	00H, 's', 00H, 't', 00H, '_', 00H, 'i', 00H, 't', 00H, 'e', 00H
	DB	'r', 00H, 'a', 00H, 't', 00H, 'o', 00H, 'r', 00H, '<', 00H, 'c'
	DB	00H, 'l', 00H, 'a', 00H, 's', 00H, 's', 00H, ' ', 00H, 's', 00H
	DB	't', 00H, 'd', 00H, ':', 00H, ':', 00H, '_', 00H, 'L', 00H, 'i'
	DB	00H, 's', 00H, 't', 00H, '_', 00H, 'v', 00H, 'a', 00H, 'l', 00H
	DB	'<', 00H, 's', 00H, 't', 00H, 'r', 00H, 'u', 00H, 'c', 00H, 't'
	DB	00H, ' ', 00H, 's', 00H, 't', 00H, 'd', 00H, ':', 00H, ':', 00H
	DB	'_', 00H, 'L', 00H, 'i', 00H, 's', 00H, 't', 00H, '_', 00H, 's'
	DB	00H, 'i', 00H, 'm', 00H, 'p', 00H, 'l', 00H, 'e', 00H, '_', 00H
	DB	't', 00H, 'y', 00H, 'p', 00H, 'e', 00H, 's', 00H, '<', 00H, 'c'
	DB	00H, 'l', 00H, 'a', 00H, 's', 00H, 's', 00H, ' ', 00H, 'R', 00H
	DB	'a', 00H, 'v', 00H, 'e', 00H, 'n', 00H, '_', 00H, 'P', 00H, 'a'
	DB	00H, 't', 00H, 'h', 00H, 'P', 00H, 'l', 00H, 'a', 00H, 'n', 00H
	DB	'n', 00H, 'e', 00H, 'r', 00H, ' ', 00H, '*', 00H, '>', 00H, ' '
	DB	00H, '>', 00H, ' ', 00H, '>', 00H, ':', 00H, ':', 00H, 'o', 00H
	DB	'p', 00H, 'e', 00H, 'r', 00H, 'a', 00H, 't', 00H, 'o', 00H, 'r'
	DB	00H, ' ', 00H, '*', 00H, 00H, 00H		; `string'
CONST	ENDS
;	COMDAT ??_C@_1PE@DFBLNDG@?$AAs?$AAt?$AAd?$AA?3?$AA?3?$AA_?$AAL?$AAi?$AAs?$AAt?$AA_?$AAc?$AAo?$AAn?$AAs@
CONST	SEGMENT
??_C@_1PE@DFBLNDG@?$AAs?$AAt?$AAd?$AA?3?$AA?3?$AA_?$AAL?$AAi?$AAs?$AAt?$AA_?$AAc?$AAo?$AAn?$AAs@ DB 's'
	DB	00H, 't', 00H, 'd', 00H, ':', 00H, ':', 00H, '_', 00H, 'L', 00H
	DB	'i', 00H, 's', 00H, 't', 00H, '_', 00H, 'c', 00H, 'o', 00H, 'n'
	DB	00H, 's', 00H, 't', 00H, '_', 00H, 'i', 00H, 't', 00H, 'e', 00H
	DB	'r', 00H, 'a', 00H, 't', 00H, 'o', 00H, 'r', 00H, '<', 00H, 'c'
	DB	00H, 'l', 00H, 'a', 00H, 's', 00H, 's', 00H, ' ', 00H, 's', 00H
	DB	't', 00H, 'd', 00H, ':', 00H, ':', 00H, '_', 00H, 'L', 00H, 'i'
	DB	00H, 's', 00H, 't', 00H, '_', 00H, 'v', 00H, 'a', 00H, 'l', 00H
	DB	'<', 00H, 's', 00H, 't', 00H, 'r', 00H, 'u', 00H, 'c', 00H, 't'
	DB	00H, ' ', 00H, 's', 00H, 't', 00H, 'd', 00H, ':', 00H, ':', 00H
	DB	'_', 00H, 'L', 00H, 'i', 00H, 's', 00H, 't', 00H, '_', 00H, 's'
	DB	00H, 'i', 00H, 'm', 00H, 'p', 00H, 'l', 00H, 'e', 00H, '_', 00H
	DB	't', 00H, 'y', 00H, 'p', 00H, 'e', 00H, 's', 00H, '<', 00H, 'c'
	DB	00H, 'l', 00H, 'a', 00H, 's', 00H, 's', 00H, ' ', 00H, 'R', 00H
	DB	'a', 00H, 'v', 00H, 'e', 00H, 'n', 00H, '_', 00H, 'P', 00H, 'a'
	DB	00H, 't', 00H, 'h', 00H, 'P', 00H, 'l', 00H, 'a', 00H, 'n', 00H
	DB	'n', 00H, 'e', 00H, 'r', 00H, ' ', 00H, '*', 00H, '>', 00H, ' '
	DB	00H, '>', 00H, ' ', 00H, '>', 00H, ':', 00H, ':', 00H, 'o', 00H
	DB	'p', 00H, 'e', 00H, 'r', 00H, 'a', 00H, 't', 00H, 'o', 00H, 'r'
	DB	00H, ' ', 00H, '+', 00H, '+', 00H, 00H, 00H	; `string'
CONST	ENDS
;	COMDAT ??_C@_1BEA@ECIHAALN@?$AAs?$AAt?$AAd?$AA?3?$AA?3?$AA_?$AAV?$AAe?$AAc?$AAt?$AAo?$AAr?$AA_?$AAc?$AAo@
CONST	SEGMENT
??_C@_1BEA@ECIHAALN@?$AAs?$AAt?$AAd?$AA?3?$AA?3?$AA_?$AAV?$AAe?$AAc?$AAt?$AAo?$AAr?$AA_?$AAc?$AAo@ DB 's'
	DB	00H, 't', 00H, 'd', 00H, ':', 00H, ':', 00H, '_', 00H, 'V', 00H
	DB	'e', 00H, 'c', 00H, 't', 00H, 'o', 00H, 'r', 00H, '_', 00H, 'c'
	DB	00H, 'o', 00H, 'n', 00H, 's', 00H, 't', 00H, '_', 00H, 'i', 00H
	DB	't', 00H, 'e', 00H, 'r', 00H, 'a', 00H, 't', 00H, 'o', 00H, 'r'
	DB	00H, '<', 00H, 'c', 00H, 'l', 00H, 'a', 00H, 's', 00H, 's', 00H
	DB	' ', 00H, 's', 00H, 't', 00H, 'd', 00H, ':', 00H, ':', 00H, '_'
	DB	00H, 'V', 00H, 'e', 00H, 'c', 00H, 't', 00H, 'o', 00H, 'r', 00H
	DB	'_', 00H, 'v', 00H, 'a', 00H, 'l', 00H, '<', 00H, 's', 00H, 't'
	DB	00H, 'r', 00H, 'u', 00H, 'c', 00H, 't', 00H, ' ', 00H, 's', 00H
	DB	't', 00H, 'd', 00H, ':', 00H, ':', 00H, '_', 00H, 'S', 00H, 'i'
	DB	00H, 'm', 00H, 'p', 00H, 'l', 00H, 'e', 00H, '_', 00H, 't', 00H
	DB	'y', 00H, 'p', 00H, 'e', 00H, 's', 00H, '<', 00H, 's', 00H, 't'
	DB	00H, 'r', 00H, 'u', 00H, 'c', 00H, 't', 00H, ' ', 00H, 'C', 00H
	DB	'e', 00H, 'l', 00H, 'l', 00H, '<', 00H, 'c', 00H, 'l', 00H, 'a'
	DB	00H, 's', 00H, 's', 00H, ' ', 00H, 'N', 00H, 'a', 00H, 'v', 00H
	DB	'G', 00H, 'r', 00H, 'a', 00H, 'p', 00H, 'h', 00H, 'N', 00H, 'o'
	DB	00H, 'd', 00H, 'e', 00H, '<', 00H, 'c', 00H, 'l', 00H, 'a', 00H
	DB	's', 00H, 's', 00H, ' ', 00H, 'T', 00H, 'r', 00H, 'i', 00H, 'g'
	DB	00H, 'g', 00H, 'e', 00H, 'r', 00H, '<', 00H, 'c', 00H, 'l', 00H
	DB	'a', 00H, 's', 00H, 's', 00H, ' ', 00H, 'R', 00H, 'a', 00H, 'v'
	DB	00H, 'e', 00H, 'n', 00H, '_', 00H, 'B', 00H, 'o', 00H, 't', 00H
	DB	'>', 00H, ' ', 00H, '*', 00H, '>', 00H, ' ', 00H, '*', 00H, '>'
	DB	00H, ' ', 00H, '>', 00H, ' ', 00H, '>', 00H, ' ', 00H, '>', 00H
	DB	':', 00H, ':', 00H, '_', 00H, 'C', 00H, 'o', 00H, 'm', 00H, 'p'
	DB	00H, 'a', 00H, 't', 00H, 00H, 00H		; `string'
CONST	ENDS
;	COMDAT ??_C@_1BJM@IJPNJFA@?$AAs?$AAt?$AAd?$AA?3?$AA?3?$AAv?$AAe?$AAc?$AAt?$AAo?$AAr?$AA?$DM?$AAc?$AAl?$AAa@
CONST	SEGMENT
??_C@_1BJM@IJPNJFA@?$AAs?$AAt?$AAd?$AA?3?$AA?3?$AAv?$AAe?$AAc?$AAt?$AAo?$AAr?$AA?$DM?$AAc?$AAl?$AAa@ DB 's'
	DB	00H, 't', 00H, 'd', 00H, ':', 00H, ':', 00H, 'v', 00H, 'e', 00H
	DB	'c', 00H, 't', 00H, 'o', 00H, 'r', 00H, '<', 00H, 'c', 00H, 'l'
	DB	00H, 'a', 00H, 's', 00H, 's', 00H, ' ', 00H, 's', 00H, 't', 00H
	DB	'd', 00H, ':', 00H, ':', 00H, 'l', 00H, 'i', 00H, 's', 00H, 't'
	DB	00H, '<', 00H, 'c', 00H, 'l', 00H, 'a', 00H, 's', 00H, 's', 00H
	DB	' ', 00H, 'N', 00H, 'a', 00H, 'v', 00H, 'G', 00H, 'r', 00H, 'a'
	DB	00H, 'p', 00H, 'h', 00H, 'E', 00H, 'd', 00H, 'g', 00H, 'e', 00H
	DB	',', 00H, 'c', 00H, 'l', 00H, 'a', 00H, 's', 00H, 's', 00H, ' '
	DB	00H, 's', 00H, 't', 00H, 'd', 00H, ':', 00H, ':', 00H, 'a', 00H
	DB	'l', 00H, 'l', 00H, 'o', 00H, 'c', 00H, 'a', 00H, 't', 00H, 'o'
	DB	00H, 'r', 00H, '<', 00H, 'c', 00H, 'l', 00H, 'a', 00H, 's', 00H
	DB	's', 00H, ' ', 00H, 'N', 00H, 'a', 00H, 'v', 00H, 'G', 00H, 'r'
	DB	00H, 'a', 00H, 'p', 00H, 'h', 00H, 'E', 00H, 'd', 00H, 'g', 00H
	DB	'e', 00H, '>', 00H, ' ', 00H, '>', 00H, ',', 00H, 'c', 00H, 'l'
	DB	00H, 'a', 00H, 's', 00H, 's', 00H, ' ', 00H, 's', 00H, 't', 00H
	DB	'd', 00H, ':', 00H, ':', 00H, 'a', 00H, 'l', 00H, 'l', 00H, 'o'
	DB	00H, 'c', 00H, 'a', 00H, 't', 00H, 'o', 00H, 'r', 00H, '<', 00H
	DB	'c', 00H, 'l', 00H, 'a', 00H, 's', 00H, 's', 00H, ' ', 00H, 's'
	DB	00H, 't', 00H, 'd', 00H, ':', 00H, ':', 00H, 'l', 00H, 'i', 00H
	DB	's', 00H, 't', 00H, '<', 00H, 'c', 00H, 'l', 00H, 'a', 00H, 's'
	DB	00H, 's', 00H, ' ', 00H, 'N', 00H, 'a', 00H, 'v', 00H, 'G', 00H
	DB	'r', 00H, 'a', 00H, 'p', 00H, 'h', 00H, 'E', 00H, 'd', 00H, 'g'
	DB	00H, 'e', 00H, ',', 00H, 'c', 00H, 'l', 00H, 'a', 00H, 's', 00H
	DB	's', 00H, ' ', 00H, 's', 00H, 't', 00H, 'd', 00H, ':', 00H, ':'
	DB	00H, 'a', 00H, 'l', 00H, 'l', 00H, 'o', 00H, 'c', 00H, 'a', 00H
	DB	't', 00H, 'o', 00H, 'r', 00H, '<', 00H, 'c', 00H, 'l', 00H, 'a'
	DB	00H, 's', 00H, 's', 00H, ' ', 00H, 'N', 00H, 'a', 00H, 'v', 00H
	DB	'G', 00H, 'r', 00H, 'a', 00H, 'p', 00H, 'h', 00H, 'E', 00H, 'd'
	DB	00H, 'g', 00H, 'e', 00H, '>', 00H, ' ', 00H, '>', 00H, ' ', 00H
	DB	'>', 00H, ' ', 00H, '>', 00H, ':', 00H, ':', 00H, 'o', 00H, 'p'
	DB	00H, 'e', 00H, 'r', 00H, 'a', 00H, 't', 00H, 'o', 00H, 'r', 00H
	DB	' ', 00H, '[', 00H, ']', 00H, 00H, 00H	; `string'
CONST	ENDS
;	COMDAT ??_C@_1BEI@NMJFKIB@?$AAs?$AAt?$AAd?$AA?3?$AA?3?$AA_?$AAV?$AAe?$AAc?$AAt?$AAo?$AAr?$AA_?$AAc?$AAo@
CONST	SEGMENT
??_C@_1BEI@NMJFKIB@?$AAs?$AAt?$AAd?$AA?3?$AA?3?$AA_?$AAV?$AAe?$AAc?$AAt?$AAo?$AAr?$AA_?$AAc?$AAo@ DB 's'
	DB	00H, 't', 00H, 'd', 00H, ':', 00H, ':', 00H, '_', 00H, 'V', 00H
	DB	'e', 00H, 'c', 00H, 't', 00H, 'o', 00H, 'r', 00H, '_', 00H, 'c'
	DB	00H, 'o', 00H, 'n', 00H, 's', 00H, 't', 00H, '_', 00H, 'i', 00H
	DB	't', 00H, 'e', 00H, 'r', 00H, 'a', 00H, 't', 00H, 'o', 00H, 'r'
	DB	00H, '<', 00H, 'c', 00H, 'l', 00H, 'a', 00H, 's', 00H, 's', 00H
	DB	' ', 00H, 's', 00H, 't', 00H, 'd', 00H, ':', 00H, ':', 00H, '_'
	DB	00H, 'V', 00H, 'e', 00H, 'c', 00H, 't', 00H, 'o', 00H, 'r', 00H
	DB	'_', 00H, 'v', 00H, 'a', 00H, 'l', 00H, '<', 00H, 's', 00H, 't'
	DB	00H, 'r', 00H, 'u', 00H, 'c', 00H, 't', 00H, ' ', 00H, 's', 00H
	DB	't', 00H, 'd', 00H, ':', 00H, ':', 00H, '_', 00H, 'S', 00H, 'i'
	DB	00H, 'm', 00H, 'p', 00H, 'l', 00H, 'e', 00H, '_', 00H, 't', 00H
	DB	'y', 00H, 'p', 00H, 'e', 00H, 's', 00H, '<', 00H, 's', 00H, 't'
	DB	00H, 'r', 00H, 'u', 00H, 'c', 00H, 't', 00H, ' ', 00H, 'C', 00H
	DB	'e', 00H, 'l', 00H, 'l', 00H, '<', 00H, 'c', 00H, 'l', 00H, 'a'
	DB	00H, 's', 00H, 's', 00H, ' ', 00H, 'N', 00H, 'a', 00H, 'v', 00H
	DB	'G', 00H, 'r', 00H, 'a', 00H, 'p', 00H, 'h', 00H, 'N', 00H, 'o'
	DB	00H, 'd', 00H, 'e', 00H, '<', 00H, 'c', 00H, 'l', 00H, 'a', 00H
	DB	's', 00H, 's', 00H, ' ', 00H, 'T', 00H, 'r', 00H, 'i', 00H, 'g'
	DB	00H, 'g', 00H, 'e', 00H, 'r', 00H, '<', 00H, 'c', 00H, 'l', 00H
	DB	'a', 00H, 's', 00H, 's', 00H, ' ', 00H, 'R', 00H, 'a', 00H, 'v'
	DB	00H, 'e', 00H, 'n', 00H, '_', 00H, 'B', 00H, 'o', 00H, 't', 00H
	DB	'>', 00H, ' ', 00H, '*', 00H, '>', 00H, ' ', 00H, '*', 00H, '>'
	DB	00H, ' ', 00H, '>', 00H, ' ', 00H, '>', 00H, ' ', 00H, '>', 00H
	DB	':', 00H, ':', 00H, 'o', 00H, 'p', 00H, 'e', 00H, 'r', 00H, 'a'
	DB	00H, 't', 00H, 'o', 00H, 'r', 00H, ' ', 00H, '-', 00H, '>', 00H
	DB	00H, 00H					; `string'
CONST	ENDS
;	COMDAT ??_C@_1BEI@LMFHBODB@?$AAs?$AAt?$AAd?$AA?3?$AA?3?$AA_?$AAV?$AAe?$AAc?$AAt?$AAo?$AAr?$AA_?$AAc?$AAo@
CONST	SEGMENT
??_C@_1BEI@LMFHBODB@?$AAs?$AAt?$AAd?$AA?3?$AA?3?$AA_?$AAV?$AAe?$AAc?$AAt?$AAo?$AAr?$AA_?$AAc?$AAo@ DB 's'
	DB	00H, 't', 00H, 'd', 00H, ':', 00H, ':', 00H, '_', 00H, 'V', 00H
	DB	'e', 00H, 'c', 00H, 't', 00H, 'o', 00H, 'r', 00H, '_', 00H, 'c'
	DB	00H, 'o', 00H, 'n', 00H, 's', 00H, 't', 00H, '_', 00H, 'i', 00H
	DB	't', 00H, 'e', 00H, 'r', 00H, 'a', 00H, 't', 00H, 'o', 00H, 'r'
	DB	00H, '<', 00H, 'c', 00H, 'l', 00H, 'a', 00H, 's', 00H, 's', 00H
	DB	' ', 00H, 's', 00H, 't', 00H, 'd', 00H, ':', 00H, ':', 00H, '_'
	DB	00H, 'V', 00H, 'e', 00H, 'c', 00H, 't', 00H, 'o', 00H, 'r', 00H
	DB	'_', 00H, 'v', 00H, 'a', 00H, 'l', 00H, '<', 00H, 's', 00H, 't'
	DB	00H, 'r', 00H, 'u', 00H, 'c', 00H, 't', 00H, ' ', 00H, 's', 00H
	DB	't', 00H, 'd', 00H, ':', 00H, ':', 00H, '_', 00H, 'S', 00H, 'i'
	DB	00H, 'm', 00H, 'p', 00H, 'l', 00H, 'e', 00H, '_', 00H, 't', 00H
	DB	'y', 00H, 'p', 00H, 'e', 00H, 's', 00H, '<', 00H, 's', 00H, 't'
	DB	00H, 'r', 00H, 'u', 00H, 'c', 00H, 't', 00H, ' ', 00H, 'C', 00H
	DB	'e', 00H, 'l', 00H, 'l', 00H, '<', 00H, 'c', 00H, 'l', 00H, 'a'
	DB	00H, 's', 00H, 's', 00H, ' ', 00H, 'N', 00H, 'a', 00H, 'v', 00H
	DB	'G', 00H, 'r', 00H, 'a', 00H, 'p', 00H, 'h', 00H, 'N', 00H, 'o'
	DB	00H, 'd', 00H, 'e', 00H, '<', 00H, 'c', 00H, 'l', 00H, 'a', 00H
	DB	's', 00H, 's', 00H, ' ', 00H, 'T', 00H, 'r', 00H, 'i', 00H, 'g'
	DB	00H, 'g', 00H, 'e', 00H, 'r', 00H, '<', 00H, 'c', 00H, 'l', 00H
	DB	'a', 00H, 's', 00H, 's', 00H, ' ', 00H, 'R', 00H, 'a', 00H, 'v'
	DB	00H, 'e', 00H, 'n', 00H, '_', 00H, 'B', 00H, 'o', 00H, 't', 00H
	DB	'>', 00H, ' ', 00H, '*', 00H, '>', 00H, ' ', 00H, '*', 00H, '>'
	DB	00H, ' ', 00H, '>', 00H, ' ', 00H, '>', 00H, ' ', 00H, '>', 00H
	DB	':', 00H, ':', 00H, 'o', 00H, 'p', 00H, 'e', 00H, 'r', 00H, 'a'
	DB	00H, 't', 00H, 'o', 00H, 'r', 00H, ' ', 00H, '+', 00H, '+', 00H
	DB	00H, 00H					; `string'
CONST	ENDS
;	COMDAT ??_C@_1BCM@KPIKOJFJ@?$AAs?$AAt?$AAd?$AA?3?$AA?3?$AA_?$AAL?$AAi?$AAs?$AAt?$AA_?$AAc?$AAo?$AAn?$AAs@
CONST	SEGMENT
??_C@_1BCM@KPIKOJFJ@?$AAs?$AAt?$AAd?$AA?3?$AA?3?$AA_?$AAL?$AAi?$AAs?$AAt?$AA_?$AAc?$AAo?$AAn?$AAs@ DB 's'
	DB	00H, 't', 00H, 'd', 00H, ':', 00H, ':', 00H, '_', 00H, 'L', 00H
	DB	'i', 00H, 's', 00H, 't', 00H, '_', 00H, 'c', 00H, 'o', 00H, 'n'
	DB	00H, 's', 00H, 't', 00H, '_', 00H, 'i', 00H, 't', 00H, 'e', 00H
	DB	'r', 00H, 'a', 00H, 't', 00H, 'o', 00H, 'r', 00H, '<', 00H, 'c'
	DB	00H, 'l', 00H, 'a', 00H, 's', 00H, 's', 00H, ' ', 00H, 's', 00H
	DB	't', 00H, 'd', 00H, ':', 00H, ':', 00H, '_', 00H, 'L', 00H, 'i'
	DB	00H, 's', 00H, 't', 00H, '_', 00H, 'v', 00H, 'a', 00H, 'l', 00H
	DB	'<', 00H, 's', 00H, 't', 00H, 'r', 00H, 'u', 00H, 'c', 00H, 't'
	DB	00H, ' ', 00H, 's', 00H, 't', 00H, 'd', 00H, ':', 00H, ':', 00H
	DB	'_', 00H, 'L', 00H, 'i', 00H, 's', 00H, 't', 00H, '_', 00H, 's'
	DB	00H, 'i', 00H, 'm', 00H, 'p', 00H, 'l', 00H, 'e', 00H, '_', 00H
	DB	't', 00H, 'y', 00H, 'p', 00H, 'e', 00H, 's', 00H, '<', 00H, 'c'
	DB	00H, 'l', 00H, 'a', 00H, 's', 00H, 's', 00H, ' ', 00H, 'N', 00H
	DB	'a', 00H, 'v', 00H, 'G', 00H, 'r', 00H, 'a', 00H, 'p', 00H, 'h'
	DB	00H, 'N', 00H, 'o', 00H, 'd', 00H, 'e', 00H, '<', 00H, 'c', 00H
	DB	'l', 00H, 'a', 00H, 's', 00H, 's', 00H, ' ', 00H, 'T', 00H, 'r'
	DB	00H, 'i', 00H, 'g', 00H, 'g', 00H, 'e', 00H, 'r', 00H, '<', 00H
	DB	'c', 00H, 'l', 00H, 'a', 00H, 's', 00H, 's', 00H, ' ', 00H, 'R'
	DB	00H, 'a', 00H, 'v', 00H, 'e', 00H, 'n', 00H, '_', 00H, 'B', 00H
	DB	'o', 00H, 't', 00H, '>', 00H, ' ', 00H, '*', 00H, '>', 00H, ' '
	DB	00H, '*', 00H, '>', 00H, ' ', 00H, '>', 00H, ' ', 00H, '>', 00H
	DB	':', 00H, ':', 00H, 'o', 00H, 'p', 00H, 'e', 00H, 'r', 00H, 'a'
	DB	00H, 't', 00H, 'o', 00H, 'r', 00H, ' ', 00H, '*', 00H, 00H, 00H ; `string'
CONST	ENDS
;	COMDAT ??_C@_1BCO@OMAOINB@?$AAs?$AAt?$AAd?$AA?3?$AA?3?$AA_?$AAL?$AAi?$AAs?$AAt?$AA_?$AAc?$AAo?$AAn?$AAs@
CONST	SEGMENT
??_C@_1BCO@OMAOINB@?$AAs?$AAt?$AAd?$AA?3?$AA?3?$AA_?$AAL?$AAi?$AAs?$AAt?$AA_?$AAc?$AAo?$AAn?$AAs@ DB 's'
	DB	00H, 't', 00H, 'd', 00H, ':', 00H, ':', 00H, '_', 00H, 'L', 00H
	DB	'i', 00H, 's', 00H, 't', 00H, '_', 00H, 'c', 00H, 'o', 00H, 'n'
	DB	00H, 's', 00H, 't', 00H, '_', 00H, 'i', 00H, 't', 00H, 'e', 00H
	DB	'r', 00H, 'a', 00H, 't', 00H, 'o', 00H, 'r', 00H, '<', 00H, 'c'
	DB	00H, 'l', 00H, 'a', 00H, 's', 00H, 's', 00H, ' ', 00H, 's', 00H
	DB	't', 00H, 'd', 00H, ':', 00H, ':', 00H, '_', 00H, 'L', 00H, 'i'
	DB	00H, 's', 00H, 't', 00H, '_', 00H, 'v', 00H, 'a', 00H, 'l', 00H
	DB	'<', 00H, 's', 00H, 't', 00H, 'r', 00H, 'u', 00H, 'c', 00H, 't'
	DB	00H, ' ', 00H, 's', 00H, 't', 00H, 'd', 00H, ':', 00H, ':', 00H
	DB	'_', 00H, 'L', 00H, 'i', 00H, 's', 00H, 't', 00H, '_', 00H, 's'
	DB	00H, 'i', 00H, 'm', 00H, 'p', 00H, 'l', 00H, 'e', 00H, '_', 00H
	DB	't', 00H, 'y', 00H, 'p', 00H, 'e', 00H, 's', 00H, '<', 00H, 'c'
	DB	00H, 'l', 00H, 'a', 00H, 's', 00H, 's', 00H, ' ', 00H, 'N', 00H
	DB	'a', 00H, 'v', 00H, 'G', 00H, 'r', 00H, 'a', 00H, 'p', 00H, 'h'
	DB	00H, 'N', 00H, 'o', 00H, 'd', 00H, 'e', 00H, '<', 00H, 'c', 00H
	DB	'l', 00H, 'a', 00H, 's', 00H, 's', 00H, ' ', 00H, 'T', 00H, 'r'
	DB	00H, 'i', 00H, 'g', 00H, 'g', 00H, 'e', 00H, 'r', 00H, '<', 00H
	DB	'c', 00H, 'l', 00H, 'a', 00H, 's', 00H, 's', 00H, ' ', 00H, 'R'
	DB	00H, 'a', 00H, 'v', 00H, 'e', 00H, 'n', 00H, '_', 00H, 'B', 00H
	DB	'o', 00H, 't', 00H, '>', 00H, ' ', 00H, '*', 00H, '>', 00H, ' '
	DB	00H, '*', 00H, '>', 00H, ' ', 00H, '>', 00H, ' ', 00H, '>', 00H
	DB	':', 00H, ':', 00H, 'o', 00H, 'p', 00H, 'e', 00H, 'r', 00H, 'a'
	DB	00H, 't', 00H, 'o', 00H, 'r', 00H, ' ', 00H, '+', 00H, '+', 00H
	DB	00H, 00H					; `string'
CONST	ENDS
;	COMDAT ??_C@_1BCO@KODNABBE@?$AAs?$AAt?$AAd?$AA?3?$AA?3?$AA_?$AAL?$AAi?$AAs?$AAt?$AA_?$AAc?$AAo?$AAn?$AAs@
CONST	SEGMENT
??_C@_1BCO@KODNABBE@?$AAs?$AAt?$AAd?$AA?3?$AA?3?$AA_?$AAL?$AAi?$AAs?$AAt?$AA_?$AAc?$AAo?$AAn?$AAs@ DB 's'
	DB	00H, 't', 00H, 'd', 00H, ':', 00H, ':', 00H, '_', 00H, 'L', 00H
	DB	'i', 00H, 's', 00H, 't', 00H, '_', 00H, 'c', 00H, 'o', 00H, 'n'
	DB	00H, 's', 00H, 't', 00H, '_', 00H, 'i', 00H, 't', 00H, 'e', 00H
	DB	'r', 00H, 'a', 00H, 't', 00H, 'o', 00H, 'r', 00H, '<', 00H, 'c'
	DB	00H, 'l', 00H, 'a', 00H, 's', 00H, 's', 00H, ' ', 00H, 's', 00H
	DB	't', 00H, 'd', 00H, ':', 00H, ':', 00H, '_', 00H, 'L', 00H, 'i'
	DB	00H, 's', 00H, 't', 00H, '_', 00H, 'v', 00H, 'a', 00H, 'l', 00H
	DB	'<', 00H, 's', 00H, 't', 00H, 'r', 00H, 'u', 00H, 'c', 00H, 't'
	DB	00H, ' ', 00H, 's', 00H, 't', 00H, 'd', 00H, ':', 00H, ':', 00H
	DB	'_', 00H, 'L', 00H, 'i', 00H, 's', 00H, 't', 00H, '_', 00H, 's'
	DB	00H, 'i', 00H, 'm', 00H, 'p', 00H, 'l', 00H, 'e', 00H, '_', 00H
	DB	't', 00H, 'y', 00H, 'p', 00H, 'e', 00H, 's', 00H, '<', 00H, 'c'
	DB	00H, 'l', 00H, 'a', 00H, 's', 00H, 's', 00H, ' ', 00H, 'N', 00H
	DB	'a', 00H, 'v', 00H, 'G', 00H, 'r', 00H, 'a', 00H, 'p', 00H, 'h'
	DB	00H, 'N', 00H, 'o', 00H, 'd', 00H, 'e', 00H, '<', 00H, 'c', 00H
	DB	'l', 00H, 'a', 00H, 's', 00H, 's', 00H, ' ', 00H, 'T', 00H, 'r'
	DB	00H, 'i', 00H, 'g', 00H, 'g', 00H, 'e', 00H, 'r', 00H, '<', 00H
	DB	'c', 00H, 'l', 00H, 'a', 00H, 's', 00H, 's', 00H, ' ', 00H, 'R'
	DB	00H, 'a', 00H, 'v', 00H, 'e', 00H, 'n', 00H, '_', 00H, 'B', 00H
	DB	'o', 00H, 't', 00H, '>', 00H, ' ', 00H, '*', 00H, '>', 00H, ' '
	DB	00H, '*', 00H, '>', 00H, ' ', 00H, '>', 00H, ' ', 00H, '>', 00H
	DB	':', 00H, ':', 00H, 'o', 00H, 'p', 00H, 'e', 00H, 'r', 00H, 'a'
	DB	00H, 't', 00H, 'o', 00H, 'r', 00H, ' ', 00H, '=', 00H, '=', 00H
	DB	00H, 00H					; `string'
CONST	ENDS
;	COMDAT ??_C@_1OE@FGJDIBAM@?$AAs?$AAt?$AAd?$AA?3?$AA?3?$AA_?$AAL?$AAi?$AAs?$AAt?$AA_?$AAc?$AAo?$AAn?$AAs@
CONST	SEGMENT
??_C@_1OE@FGJDIBAM@?$AAs?$AAt?$AAd?$AA?3?$AA?3?$AA_?$AAL?$AAi?$AAs?$AAt?$AA_?$AAc?$AAo?$AAn?$AAs@ DB 's'
	DB	00H, 't', 00H, 'd', 00H, ':', 00H, ':', 00H, '_', 00H, 'L', 00H
	DB	'i', 00H, 's', 00H, 't', 00H, '_', 00H, 'c', 00H, 'o', 00H, 'n'
	DB	00H, 's', 00H, 't', 00H, '_', 00H, 'i', 00H, 't', 00H, 'e', 00H
	DB	'r', 00H, 'a', 00H, 't', 00H, 'o', 00H, 'r', 00H, '<', 00H, 'c'
	DB	00H, 'l', 00H, 'a', 00H, 's', 00H, 's', 00H, ' ', 00H, 's', 00H
	DB	't', 00H, 'd', 00H, ':', 00H, ':', 00H, '_', 00H, 'L', 00H, 'i'
	DB	00H, 's', 00H, 't', 00H, '_', 00H, 'v', 00H, 'a', 00H, 'l', 00H
	DB	'<', 00H, 's', 00H, 't', 00H, 'r', 00H, 'u', 00H, 'c', 00H, 't'
	DB	00H, ' ', 00H, 's', 00H, 't', 00H, 'd', 00H, ':', 00H, ':', 00H
	DB	'_', 00H, 'L', 00H, 'i', 00H, 's', 00H, 't', 00H, '_', 00H, 's'
	DB	00H, 'i', 00H, 'm', 00H, 'p', 00H, 'l', 00H, 'e', 00H, '_', 00H
	DB	't', 00H, 'y', 00H, 'p', 00H, 'e', 00H, 's', 00H, '<', 00H, 'c'
	DB	00H, 'l', 00H, 'a', 00H, 's', 00H, 's', 00H, ' ', 00H, 'N', 00H
	DB	'a', 00H, 'v', 00H, 'G', 00H, 'r', 00H, 'a', 00H, 'p', 00H, 'h'
	DB	00H, 'E', 00H, 'd', 00H, 'g', 00H, 'e', 00H, '>', 00H, ' ', 00H
	DB	'>', 00H, ' ', 00H, '>', 00H, ':', 00H, ':', 00H, 'o', 00H, 'p'
	DB	00H, 'e', 00H, 'r', 00H, 'a', 00H, 't', 00H, 'o', 00H, 'r', 00H
	DB	' ', 00H, '*', 00H, 00H, 00H			; `string'
CONST	ENDS
;	COMDAT ??_C@_1OG@IKGFFBLD@?$AAs?$AAt?$AAd?$AA?3?$AA?3?$AA_?$AAL?$AAi?$AAs?$AAt?$AA_?$AAc?$AAo?$AAn?$AAs@
CONST	SEGMENT
??_C@_1OG@IKGFFBLD@?$AAs?$AAt?$AAd?$AA?3?$AA?3?$AA_?$AAL?$AAi?$AAs?$AAt?$AA_?$AAc?$AAo?$AAn?$AAs@ DB 's'
	DB	00H, 't', 00H, 'd', 00H, ':', 00H, ':', 00H, '_', 00H, 'L', 00H
	DB	'i', 00H, 's', 00H, 't', 00H, '_', 00H, 'c', 00H, 'o', 00H, 'n'
	DB	00H, 's', 00H, 't', 00H, '_', 00H, 'i', 00H, 't', 00H, 'e', 00H
	DB	'r', 00H, 'a', 00H, 't', 00H, 'o', 00H, 'r', 00H, '<', 00H, 'c'
	DB	00H, 'l', 00H, 'a', 00H, 's', 00H, 's', 00H, ' ', 00H, 's', 00H
	DB	't', 00H, 'd', 00H, ':', 00H, ':', 00H, '_', 00H, 'L', 00H, 'i'
	DB	00H, 's', 00H, 't', 00H, '_', 00H, 'v', 00H, 'a', 00H, 'l', 00H
	DB	'<', 00H, 's', 00H, 't', 00H, 'r', 00H, 'u', 00H, 'c', 00H, 't'
	DB	00H, ' ', 00H, 's', 00H, 't', 00H, 'd', 00H, ':', 00H, ':', 00H
	DB	'_', 00H, 'L', 00H, 'i', 00H, 's', 00H, 't', 00H, '_', 00H, 's'
	DB	00H, 'i', 00H, 'm', 00H, 'p', 00H, 'l', 00H, 'e', 00H, '_', 00H
	DB	't', 00H, 'y', 00H, 'p', 00H, 'e', 00H, 's', 00H, '<', 00H, 'c'
	DB	00H, 'l', 00H, 'a', 00H, 's', 00H, 's', 00H, ' ', 00H, 'N', 00H
	DB	'a', 00H, 'v', 00H, 'G', 00H, 'r', 00H, 'a', 00H, 'p', 00H, 'h'
	DB	00H, 'E', 00H, 'd', 00H, 'g', 00H, 'e', 00H, '>', 00H, ' ', 00H
	DB	'>', 00H, ' ', 00H, '>', 00H, ':', 00H, ':', 00H, 'o', 00H, 'p'
	DB	00H, 'e', 00H, 'r', 00H, 'a', 00H, 't', 00H, 'o', 00H, 'r', 00H
	DB	' ', 00H, '+', 00H, '+', 00H, 00H, 00H	; `string'
CONST	ENDS
;	COMDAT ??_C@_1OG@CKJILIHG@?$AAs?$AAt?$AAd?$AA?3?$AA?3?$AA_?$AAL?$AAi?$AAs?$AAt?$AA_?$AAc?$AAo?$AAn?$AAs@
CONST	SEGMENT
??_C@_1OG@CKJILIHG@?$AAs?$AAt?$AAd?$AA?3?$AA?3?$AA_?$AAL?$AAi?$AAs?$AAt?$AA_?$AAc?$AAo?$AAn?$AAs@ DB 's'
	DB	00H, 't', 00H, 'd', 00H, ':', 00H, ':', 00H, '_', 00H, 'L', 00H
	DB	'i', 00H, 's', 00H, 't', 00H, '_', 00H, 'c', 00H, 'o', 00H, 'n'
	DB	00H, 's', 00H, 't', 00H, '_', 00H, 'i', 00H, 't', 00H, 'e', 00H
	DB	'r', 00H, 'a', 00H, 't', 00H, 'o', 00H, 'r', 00H, '<', 00H, 'c'
	DB	00H, 'l', 00H, 'a', 00H, 's', 00H, 's', 00H, ' ', 00H, 's', 00H
	DB	't', 00H, 'd', 00H, ':', 00H, ':', 00H, '_', 00H, 'L', 00H, 'i'
	DB	00H, 's', 00H, 't', 00H, '_', 00H, 'v', 00H, 'a', 00H, 'l', 00H
	DB	'<', 00H, 's', 00H, 't', 00H, 'r', 00H, 'u', 00H, 'c', 00H, 't'
	DB	00H, ' ', 00H, 's', 00H, 't', 00H, 'd', 00H, ':', 00H, ':', 00H
	DB	'_', 00H, 'L', 00H, 'i', 00H, 's', 00H, 't', 00H, '_', 00H, 's'
	DB	00H, 'i', 00H, 'm', 00H, 'p', 00H, 'l', 00H, 'e', 00H, '_', 00H
	DB	't', 00H, 'y', 00H, 'p', 00H, 'e', 00H, 's', 00H, '<', 00H, 'c'
	DB	00H, 'l', 00H, 'a', 00H, 's', 00H, 's', 00H, ' ', 00H, 'N', 00H
	DB	'a', 00H, 'v', 00H, 'G', 00H, 'r', 00H, 'a', 00H, 'p', 00H, 'h'
	DB	00H, 'E', 00H, 'd', 00H, 'g', 00H, 'e', 00H, '>', 00H, ' ', 00H
	DB	'>', 00H, ' ', 00H, '>', 00H, ':', 00H, ':', 00H, 'o', 00H, 'p'
	DB	00H, 'e', 00H, 'r', 00H, 'a', 00H, 't', 00H, 'o', 00H, 'r', 00H
	DB	' ', 00H, '=', 00H, '=', 00H, 00H, 00H	; `string'
CONST	ENDS
;	COMDAT ??_C@_0BB@MOGOBHAF@list?$DMT?$DO?5too?5long@
CONST	SEGMENT
??_C@_0BB@MOGOBHAF@list?$DMT?$DO?5too?5long@ DB 'list<T> too long', 00H ; `string'
CONST	ENDS
;	COMDAT ??_C@_1BDI@JCBOAGAM@?$AAs?$AAt?$AAd?$AA?3?$AA?3?$AAv?$AAe?$AAc?$AAt?$AAo?$AAr?$AA?$DM?$AAc?$AAl?$AAa@
CONST	SEGMENT
??_C@_1BDI@JCBOAGAM@?$AAs?$AAt?$AAd?$AA?3?$AA?3?$AAv?$AAe?$AAc?$AAt?$AAo?$AAr?$AA?$DM?$AAc?$AAl?$AAa@ DB 's'
	DB	00H, 't', 00H, 'd', 00H, ':', 00H, ':', 00H, 'v', 00H, 'e', 00H
	DB	'c', 00H, 't', 00H, 'o', 00H, 'r', 00H, '<', 00H, 'c', 00H, 'l'
	DB	00H, 'a', 00H, 's', 00H, 's', 00H, ' ', 00H, 'N', 00H, 'a', 00H
	DB	'v', 00H, 'G', 00H, 'r', 00H, 'a', 00H, 'p', 00H, 'h', 00H, 'N'
	DB	00H, 'o', 00H, 'd', 00H, 'e', 00H, '<', 00H, 'c', 00H, 'l', 00H
	DB	'a', 00H, 's', 00H, 's', 00H, ' ', 00H, 'T', 00H, 'r', 00H, 'i'
	DB	00H, 'g', 00H, 'g', 00H, 'e', 00H, 'r', 00H, '<', 00H, 'c', 00H
	DB	'l', 00H, 'a', 00H, 's', 00H, 's', 00H, ' ', 00H, 'R', 00H, 'a'
	DB	00H, 'v', 00H, 'e', 00H, 'n', 00H, '_', 00H, 'B', 00H, 'o', 00H
	DB	't', 00H, '>', 00H, ' ', 00H, '*', 00H, '>', 00H, ',', 00H, 'c'
	DB	00H, 'l', 00H, 'a', 00H, 's', 00H, 's', 00H, ' ', 00H, 's', 00H
	DB	't', 00H, 'd', 00H, ':', 00H, ':', 00H, 'a', 00H, 'l', 00H, 'l'
	DB	00H, 'o', 00H, 'c', 00H, 'a', 00H, 't', 00H, 'o', 00H, 'r', 00H
	DB	'<', 00H, 'c', 00H, 'l', 00H, 'a', 00H, 's', 00H, 's', 00H, ' '
	DB	00H, 'N', 00H, 'a', 00H, 'v', 00H, 'G', 00H, 'r', 00H, 'a', 00H
	DB	'p', 00H, 'h', 00H, 'N', 00H, 'o', 00H, 'd', 00H, 'e', 00H, '<'
	DB	00H, 'c', 00H, 'l', 00H, 'a', 00H, 's', 00H, 's', 00H, ' ', 00H
	DB	'T', 00H, 'r', 00H, 'i', 00H, 'g', 00H, 'g', 00H, 'e', 00H, 'r'
	DB	00H, '<', 00H, 'c', 00H, 'l', 00H, 'a', 00H, 's', 00H, 's', 00H
	DB	' ', 00H, 'R', 00H, 'a', 00H, 'v', 00H, 'e', 00H, 'n', 00H, '_'
	DB	00H, 'B', 00H, 'o', 00H, 't', 00H, '>', 00H, ' ', 00H, '*', 00H
	DB	'>', 00H, ' ', 00H, '>', 00H, ' ', 00H, '>', 00H, ':', 00H, ':'
	DB	00H, 'o', 00H, 'p', 00H, 'e', 00H, 'r', 00H, 'a', 00H, 't', 00H
	DB	'o', 00H, 'r', 00H, ' ', 00H, '[', 00H, ']', 00H, 00H, 00H ; `string'
CONST	ENDS
;	COMDAT ??_C@_1PE@KDKMFEPD@?$AAs?$AAt?$AAd?$AA?3?$AA?3?$AA_?$AAL?$AAi?$AAs?$AAt?$AA_?$AAc?$AAo?$AAn?$AAs@
CONST	SEGMENT
??_C@_1PE@KDKMFEPD@?$AAs?$AAt?$AAd?$AA?3?$AA?3?$AA_?$AAL?$AAi?$AAs?$AAt?$AA_?$AAc?$AAo?$AAn?$AAs@ DB 's'
	DB	00H, 't', 00H, 'd', 00H, ':', 00H, ':', 00H, '_', 00H, 'L', 00H
	DB	'i', 00H, 's', 00H, 't', 00H, '_', 00H, 'c', 00H, 'o', 00H, 'n'
	DB	00H, 's', 00H, 't', 00H, '_', 00H, 'i', 00H, 't', 00H, 'e', 00H
	DB	'r', 00H, 'a', 00H, 't', 00H, 'o', 00H, 'r', 00H, '<', 00H, 'c'
	DB	00H, 'l', 00H, 'a', 00H, 's', 00H, 's', 00H, ' ', 00H, 's', 00H
	DB	't', 00H, 'd', 00H, ':', 00H, ':', 00H, '_', 00H, 'L', 00H, 'i'
	DB	00H, 's', 00H, 't', 00H, '_', 00H, 'v', 00H, 'a', 00H, 'l', 00H
	DB	'<', 00H, 's', 00H, 't', 00H, 'r', 00H, 'u', 00H, 'c', 00H, 't'
	DB	00H, ' ', 00H, 's', 00H, 't', 00H, 'd', 00H, ':', 00H, ':', 00H
	DB	'_', 00H, 'L', 00H, 'i', 00H, 's', 00H, 't', 00H, '_', 00H, 's'
	DB	00H, 'i', 00H, 'm', 00H, 'p', 00H, 'l', 00H, 'e', 00H, '_', 00H
	DB	't', 00H, 'y', 00H, 'p', 00H, 'e', 00H, 's', 00H, '<', 00H, 'c'
	DB	00H, 'l', 00H, 'a', 00H, 's', 00H, 's', 00H, ' ', 00H, 'R', 00H
	DB	'a', 00H, 'v', 00H, 'e', 00H, 'n', 00H, '_', 00H, 'P', 00H, 'a'
	DB	00H, 't', 00H, 'h', 00H, 'P', 00H, 'l', 00H, 'a', 00H, 'n', 00H
	DB	'n', 00H, 'e', 00H, 'r', 00H, ' ', 00H, '*', 00H, '>', 00H, ' '
	DB	00H, '>', 00H, ' ', 00H, '>', 00H, ':', 00H, ':', 00H, 'o', 00H
	DB	'p', 00H, 'e', 00H, 'r', 00H, 'a', 00H, 't', 00H, 'o', 00H, 'r'
	DB	00H, ' ', 00H, '=', 00H, '=', 00H, 00H, 00H	; `string'
CONST	ENDS
;	COMDAT ??_C@_1MO@IGMNEFGG@?$AAs?$AAt?$AAd?$AA?3?$AA?3?$AAv?$AAe?$AAc?$AAt?$AAo?$AAr?$AA?$DM?$AAc?$AAl?$AAa@
CONST	SEGMENT
??_C@_1MO@IGMNEFGG@?$AAs?$AAt?$AAd?$AA?3?$AA?3?$AAv?$AAe?$AAc?$AAt?$AAo?$AAr?$AA?$DM?$AAc?$AAl?$AAa@ DB 's'
	DB	00H, 't', 00H, 'd', 00H, ':', 00H, ':', 00H, 'v', 00H, 'e', 00H
	DB	'c', 00H, 't', 00H, 'o', 00H, 'r', 00H, '<', 00H, 'c', 00H, 'l'
	DB	00H, 'a', 00H, 's', 00H, 's', 00H, ' ', 00H, 'N', 00H, 'a', 00H
	DB	'v', 00H, 'G', 00H, 'r', 00H, 'a', 00H, 'p', 00H, 'h', 00H, 'E'
	DB	00H, 'd', 00H, 'g', 00H, 'e', 00H, ' ', 00H, 'c', 00H, 'o', 00H
	DB	'n', 00H, 's', 00H, 't', 00H, ' ', 00H, '*', 00H, ',', 00H, 'c'
	DB	00H, 'l', 00H, 'a', 00H, 's', 00H, 's', 00H, ' ', 00H, 's', 00H
	DB	't', 00H, 'd', 00H, ':', 00H, ':', 00H, 'a', 00H, 'l', 00H, 'l'
	DB	00H, 'o', 00H, 'c', 00H, 'a', 00H, 't', 00H, 'o', 00H, 'r', 00H
	DB	'<', 00H, 'c', 00H, 'l', 00H, 'a', 00H, 's', 00H, 's', 00H, ' '
	DB	00H, 'N', 00H, 'a', 00H, 'v', 00H, 'G', 00H, 'r', 00H, 'a', 00H
	DB	'p', 00H, 'h', 00H, 'E', 00H, 'd', 00H, 'g', 00H, 'e', 00H, ' '
	DB	00H, 'c', 00H, 'o', 00H, 'n', 00H, 's', 00H, 't', 00H, ' ', 00H
	DB	'*', 00H, '>', 00H, ' ', 00H, '>', 00H, ':', 00H, ':', 00H, 'o'
	DB	00H, 'p', 00H, 'e', 00H, 'r', 00H, 'a', 00H, 't', 00H, 'o', 00H
	DB	'r', 00H, ' ', 00H, '[', 00H, ']', 00H, 00H, 00H ; `string'
CONST	ENDS
;	COMDAT ??_C@_1HC@HBCEAHKD@?$AAs?$AAt?$AAd?$AA?3?$AA?3?$AAv?$AAe?$AAc?$AAt?$AAo?$AAr?$AA?$DM?$AAi?$AAn?$AAt@
CONST	SEGMENT
??_C@_1HC@HBCEAHKD@?$AAs?$AAt?$AAd?$AA?3?$AA?3?$AAv?$AAe?$AAc?$AAt?$AAo?$AAr?$AA?$DM?$AAi?$AAn?$AAt@ DB 's'
	DB	00H, 't', 00H, 'd', 00H, ':', 00H, ':', 00H, 'v', 00H, 'e', 00H
	DB	'c', 00H, 't', 00H, 'o', 00H, 'r', 00H, '<', 00H, 'i', 00H, 'n'
	DB	00H, 't', 00H, ',', 00H, 'c', 00H, 'l', 00H, 'a', 00H, 's', 00H
	DB	's', 00H, ' ', 00H, 's', 00H, 't', 00H, 'd', 00H, ':', 00H, ':'
	DB	00H, 'a', 00H, 'l', 00H, 'l', 00H, 'o', 00H, 'c', 00H, 'a', 00H
	DB	't', 00H, 'o', 00H, 'r', 00H, '<', 00H, 'i', 00H, 'n', 00H, 't'
	DB	00H, '>', 00H, ' ', 00H, '>', 00H, ':', 00H, ':', 00H, 'o', 00H
	DB	'p', 00H, 'e', 00H, 'r', 00H, 'a', 00H, 't', 00H, 'o', 00H, 'r'
	DB	00H, ' ', 00H, '[', 00H, ']', 00H, 00H, 00H	; `string'
CONST	ENDS
;	COMDAT ??_C@_0BD@OLBABOEK@vector?$DMT?$DO?5too?5long@
CONST	SEGMENT
??_C@_0BD@OLBABOEK@vector?$DMT?$DO?5too?5long@ DB 'vector<T> too long', 00H ; `string'
CONST	ENDS
;	COMDAT ??_C@_1NM@GONFAHHJ@?$AAs?$AAt?$AAd?$AA?3?$AA?3?$AA_?$AAL?$AAi?$AAs?$AAt?$AA_?$AAc?$AAo?$AAn?$AAs@
CONST	SEGMENT
??_C@_1NM@GONFAHHJ@?$AAs?$AAt?$AAd?$AA?3?$AA?3?$AA_?$AAL?$AAi?$AAs?$AAt?$AA_?$AAc?$AAo?$AAn?$AAs@ DB 's'
	DB	00H, 't', 00H, 'd', 00H, ':', 00H, ':', 00H, '_', 00H, 'L', 00H
	DB	'i', 00H, 's', 00H, 't', 00H, '_', 00H, 'c', 00H, 'o', 00H, 'n'
	DB	00H, 's', 00H, 't', 00H, '_', 00H, 'i', 00H, 't', 00H, 'e', 00H
	DB	'r', 00H, 'a', 00H, 't', 00H, 'o', 00H, 'r', 00H, '<', 00H, 'c'
	DB	00H, 'l', 00H, 'a', 00H, 's', 00H, 's', 00H, ' ', 00H, 's', 00H
	DB	't', 00H, 'd', 00H, ':', 00H, ':', 00H, '_', 00H, 'L', 00H, 'i'
	DB	00H, 's', 00H, 't', 00H, '_', 00H, 'v', 00H, 'a', 00H, 'l', 00H
	DB	'<', 00H, 's', 00H, 't', 00H, 'r', 00H, 'u', 00H, 'c', 00H, 't'
	DB	00H, ' ', 00H, 's', 00H, 't', 00H, 'd', 00H, ':', 00H, ':', 00H
	DB	'_', 00H, 'L', 00H, 'i', 00H, 's', 00H, 't', 00H, '_', 00H, 's'
	DB	00H, 'i', 00H, 'm', 00H, 'p', 00H, 'l', 00H, 'e', 00H, '_', 00H
	DB	't', 00H, 'y', 00H, 'p', 00H, 'e', 00H, 's', 00H, '<', 00H, 'c'
	DB	00H, 'l', 00H, 'a', 00H, 's', 00H, 's', 00H, ' ', 00H, 'P', 00H
	DB	'a', 00H, 't', 00H, 'h', 00H, 'E', 00H, 'd', 00H, 'g', 00H, 'e'
	DB	00H, '>', 00H, ' ', 00H, '>', 00H, ' ', 00H, '>', 00H, ':', 00H
	DB	':', 00H, 'o', 00H, 'p', 00H, 'e', 00H, 'r', 00H, 'a', 00H, 't'
	DB	00H, 'o', 00H, 'r', 00H, ' ', 00H, '*', 00H, 00H, 00H ; `string'
CONST	ENDS
;	COMDAT ??_C@_1MG@EPLOJHHC@?$AAs?$AAt?$AAd?$AA?3?$AA?3?$AA_?$AAL?$AAi?$AAs?$AAt?$AA_?$AAc?$AAo?$AAn?$AAs@
CONST	SEGMENT
??_C@_1MG@EPLOJHHC@?$AAs?$AAt?$AAd?$AA?3?$AA?3?$AA_?$AAL?$AAi?$AAs?$AAt?$AA_?$AAc?$AAo?$AAn?$AAs@ DB 's'
	DB	00H, 't', 00H, 'd', 00H, ':', 00H, ':', 00H, '_', 00H, 'L', 00H
	DB	'i', 00H, 's', 00H, 't', 00H, '_', 00H, 'c', 00H, 'o', 00H, 'n'
	DB	00H, 's', 00H, 't', 00H, '_', 00H, 'i', 00H, 't', 00H, 'e', 00H
	DB	'r', 00H, 'a', 00H, 't', 00H, 'o', 00H, 'r', 00H, '<', 00H, 'c'
	DB	00H, 'l', 00H, 'a', 00H, 's', 00H, 's', 00H, ' ', 00H, 's', 00H
	DB	't', 00H, 'd', 00H, ':', 00H, ':', 00H, '_', 00H, 'L', 00H, 'i'
	DB	00H, 's', 00H, 't', 00H, '_', 00H, 'v', 00H, 'a', 00H, 'l', 00H
	DB	'<', 00H, 's', 00H, 't', 00H, 'r', 00H, 'u', 00H, 'c', 00H, 't'
	DB	00H, ' ', 00H, 's', 00H, 't', 00H, 'd', 00H, ':', 00H, ':', 00H
	DB	'_', 00H, 'L', 00H, 'i', 00H, 's', 00H, 't', 00H, '_', 00H, 's'
	DB	00H, 'i', 00H, 'm', 00H, 'p', 00H, 'l', 00H, 'e', 00H, '_', 00H
	DB	't', 00H, 'y', 00H, 'p', 00H, 'e', 00H, 's', 00H, '<', 00H, 'i'
	DB	00H, 'n', 00H, 't', 00H, '>', 00H, ' ', 00H, '>', 00H, ' ', 00H
	DB	'>', 00H, ':', 00H, ':', 00H, 'o', 00H, 'p', 00H, 'e', 00H, 'r'
	DB	00H, 'a', 00H, 't', 00H, 'o', 00H, 'r', 00H, ' ', 00H, '*', 00H
	DB	00H, 00H					; `string'
CONST	ENDS
;	COMDAT ??_C@_1MI@DMDPBFHG@?$AAs?$AAt?$AAd?$AA?3?$AA?3?$AA_?$AAL?$AAi?$AAs?$AAt?$AA_?$AAc?$AAo?$AAn?$AAs@
CONST	SEGMENT
??_C@_1MI@DMDPBFHG@?$AAs?$AAt?$AAd?$AA?3?$AA?3?$AA_?$AAL?$AAi?$AAs?$AAt?$AA_?$AAc?$AAo?$AAn?$AAs@ DB 's'
	DB	00H, 't', 00H, 'd', 00H, ':', 00H, ':', 00H, '_', 00H, 'L', 00H
	DB	'i', 00H, 's', 00H, 't', 00H, '_', 00H, 'c', 00H, 'o', 00H, 'n'
	DB	00H, 's', 00H, 't', 00H, '_', 00H, 'i', 00H, 't', 00H, 'e', 00H
	DB	'r', 00H, 'a', 00H, 't', 00H, 'o', 00H, 'r', 00H, '<', 00H, 'c'
	DB	00H, 'l', 00H, 'a', 00H, 's', 00H, 's', 00H, ' ', 00H, 's', 00H
	DB	't', 00H, 'd', 00H, ':', 00H, ':', 00H, '_', 00H, 'L', 00H, 'i'
	DB	00H, 's', 00H, 't', 00H, '_', 00H, 'v', 00H, 'a', 00H, 'l', 00H
	DB	'<', 00H, 's', 00H, 't', 00H, 'r', 00H, 'u', 00H, 'c', 00H, 't'
	DB	00H, ' ', 00H, 's', 00H, 't', 00H, 'd', 00H, ':', 00H, ':', 00H
	DB	'_', 00H, 'L', 00H, 'i', 00H, 's', 00H, 't', 00H, '_', 00H, 's'
	DB	00H, 'i', 00H, 'm', 00H, 'p', 00H, 'l', 00H, 'e', 00H, '_', 00H
	DB	't', 00H, 'y', 00H, 'p', 00H, 'e', 00H, 's', 00H, '<', 00H, 'i'
	DB	00H, 'n', 00H, 't', 00H, '>', 00H, ' ', 00H, '>', 00H, ' ', 00H
	DB	'>', 00H, ':', 00H, ':', 00H, 'o', 00H, 'p', 00H, 'e', 00H, 'r'
	DB	00H, 'a', 00H, 't', 00H, 'o', 00H, 'r', 00H, ' ', 00H, '-', 00H
	DB	'-', 00H, 00H, 00H				; `string'
CONST	ENDS
;	COMDAT ??_C@_1GC@JDCKOLAC@?$AA?$CC?$AAc?$AAa?$AAn?$AA?8?$AAt?$AA?5?$AAd?$AAe?$AAr?$AAe?$AAf?$AAe?$AAr?$AAe@
CONST	SEGMENT
??_C@_1GC@JDCKOLAC@?$AA?$CC?$AAc?$AAa?$AAn?$AA?8?$AAt?$AA?5?$AAd?$AAe?$AAr?$AAe?$AAf?$AAe?$AAr?$AAe@ DB '"'
	DB	00H, 'c', 00H, 'a', 00H, 'n', 00H, '''', 00H, 't', 00H, ' ', 00H
	DB	'd', 00H, 'e', 00H, 'r', 00H, 'e', 00H, 'f', 00H, 'e', 00H, 'r'
	DB	00H, 'e', 00H, 'n', 00H, 'c', 00H, 'e', 00H, ' ', 00H, 'o', 00H
	DB	'u', 00H, 't', 00H, ' ', 00H, 'o', 00H, 'f', 00H, ' ', 00H, 'r'
	DB	00H, 'a', 00H, 'n', 00H, 'g', 00H, 'e', 00H, ' ', 00H, 'v', 00H
	DB	'e', 00H, 'c', 00H, 't', 00H, 'o', 00H, 'r', 00H, ' ', 00H, 'i'
	DB	00H, 't', 00H, 'e', 00H, 'r', 00H, 'a', 00H, 't', 00H, 'o', 00H
	DB	'r', 00H, '"', 00H, 00H, 00H			; `string'
CONST	ENDS
;	COMDAT ??_C@_0CP@MDHADBHN@can?8t?5dereference?5out?5of?5range?5@
CONST	SEGMENT
??_C@_0CP@MDHADBHN@can?8t?5dereference?5out?5of?5range?5@ DB 'can''t dere'
	DB	'ference out of range vector iterator', 00H	; `string'
CONST	ENDS
;	COMDAT ??_C@_1GM@FNBFNBEL@?$AA?$CC?$AAc?$AAa?$AAn?$AA?8?$AAt?$AA?5?$AAd?$AAe?$AAr?$AAe?$AAf?$AAe?$AAr?$AAe@
CONST	SEGMENT
??_C@_1GM@FNBFNBEL@?$AA?$CC?$AAc?$AAa?$AAn?$AA?8?$AAt?$AA?5?$AAd?$AAe?$AAr?$AAe?$AAf?$AAe?$AAr?$AAe@ DB '"'
	DB	00H, 'c', 00H, 'a', 00H, 'n', 00H, '''', 00H, 't', 00H, ' ', 00H
	DB	'd', 00H, 'e', 00H, 'r', 00H, 'e', 00H, 'f', 00H, 'e', 00H, 'r'
	DB	00H, 'e', 00H, 'n', 00H, 'c', 00H, 'e', 00H, ' ', 00H, 'v', 00H
	DB	'a', 00H, 'l', 00H, 'u', 00H, 'e', 00H, '-', 00H, 'i', 00H, 'n'
	DB	00H, 'i', 00H, 't', 00H, 'i', 00H, 'a', 00H, 'l', 00H, 'i', 00H
	DB	'z', 00H, 'e', 00H, 'd', 00H, ' ', 00H, 'v', 00H, 'e', 00H, 'c'
	DB	00H, 't', 00H, 'o', 00H, 'r', 00H, ' ', 00H, 'i', 00H, 't', 00H
	DB	'e', 00H, 'r', 00H, 'a', 00H, 't', 00H, 'o', 00H, 'r', 00H, '"'
	DB	00H, 00H, 00H				; `string'
CONST	ENDS
;	COMDAT ??_C@_1BCK@BOMLPPEO@?$AAs?$AAt?$AAd?$AA?3?$AA?3?$AA_?$AAV?$AAe?$AAc?$AAt?$AAo?$AAr?$AA_?$AAc?$AAo@
CONST	SEGMENT
??_C@_1BCK@BOMLPPEO@?$AAs?$AAt?$AAd?$AA?3?$AA?3?$AA_?$AAV?$AAe?$AAc?$AAt?$AAo?$AAr?$AA_?$AAc?$AAo@ DB 's'
	DB	00H, 't', 00H, 'd', 00H, ':', 00H, ':', 00H, '_', 00H, 'V', 00H
	DB	'e', 00H, 'c', 00H, 't', 00H, 'o', 00H, 'r', 00H, '_', 00H, 'c'
	DB	00H, 'o', 00H, 'n', 00H, 's', 00H, 't', 00H, '_', 00H, 'i', 00H
	DB	't', 00H, 'e', 00H, 'r', 00H, 'a', 00H, 't', 00H, 'o', 00H, 'r'
	DB	00H, '<', 00H, 'c', 00H, 'l', 00H, 'a', 00H, 's', 00H, 's', 00H
	DB	' ', 00H, 's', 00H, 't', 00H, 'd', 00H, ':', 00H, ':', 00H, '_'
	DB	00H, 'V', 00H, 'e', 00H, 'c', 00H, 't', 00H, 'o', 00H, 'r', 00H
	DB	'_', 00H, 'v', 00H, 'a', 00H, 'l', 00H, '<', 00H, 's', 00H, 't'
	DB	00H, 'r', 00H, 'u', 00H, 'c', 00H, 't', 00H, ' ', 00H, 's', 00H
	DB	't', 00H, 'd', 00H, ':', 00H, ':', 00H, '_', 00H, 'S', 00H, 'i'
	DB	00H, 'm', 00H, 'p', 00H, 'l', 00H, 'e', 00H, '_', 00H, 't', 00H
	DB	'y', 00H, 'p', 00H, 'e', 00H, 's', 00H, '<', 00H, 'c', 00H, 'l'
	DB	00H, 'a', 00H, 's', 00H, 's', 00H, ' ', 00H, 'N', 00H, 'a', 00H
	DB	'v', 00H, 'G', 00H, 'r', 00H, 'a', 00H, 'p', 00H, 'h', 00H, 'N'
	DB	00H, 'o', 00H, 'd', 00H, 'e', 00H, '<', 00H, 'c', 00H, 'l', 00H
	DB	'a', 00H, 's', 00H, 's', 00H, ' ', 00H, 'T', 00H, 'r', 00H, 'i'
	DB	00H, 'g', 00H, 'g', 00H, 'e', 00H, 'r', 00H, '<', 00H, 'c', 00H
	DB	'l', 00H, 'a', 00H, 's', 00H, 's', 00H, ' ', 00H, 'R', 00H, 'a'
	DB	00H, 'v', 00H, 'e', 00H, 'n', 00H, '_', 00H, 'B', 00H, 'o', 00H
	DB	't', 00H, '>', 00H, ' ', 00H, '*', 00H, '>', 00H, ' ', 00H, '*'
	DB	00H, '>', 00H, ' ', 00H, '>', 00H, ' ', 00H, '>', 00H, ':', 00H
	DB	':', 00H, 'o', 00H, 'p', 00H, 'e', 00H, 'r', 00H, 'a', 00H, 't'
	DB	00H, 'o', 00H, 'r', 00H, ' ', 00H, '*', 00H, 00H, 00H ; `string'
CONST	ENDS
;	COMDAT ??_C@_0DE@CHADHGFF@can?8t?5dereference?5value?9initial@
CONST	SEGMENT
??_C@_0DE@CHADHGFF@can?8t?5dereference?5value?9initial@ DB 'can''t derefe'
	DB	'rence value-initialized vector iterator', 00H ; `string'
CONST	ENDS
;	COMDAT ??_C@_1FG@LDPPKMGP@?$AA?$CC?$AAc?$AAa?$AAn?$AA?8?$AAt?$AA?5?$AAi?$AAn?$AAc?$AAr?$AAe?$AAm?$AAe?$AAn@
CONST	SEGMENT
??_C@_1FG@LDPPKMGP@?$AA?$CC?$AAc?$AAa?$AAn?$AA?8?$AAt?$AA?5?$AAi?$AAn?$AAc?$AAr?$AAe?$AAm?$AAe?$AAn@ DB '"'
	DB	00H, 'c', 00H, 'a', 00H, 'n', 00H, '''', 00H, 't', 00H, ' ', 00H
	DB	'i', 00H, 'n', 00H, 'c', 00H, 'r', 00H, 'e', 00H, 'm', 00H, 'e'
	DB	00H, 'n', 00H, 't', 00H, ' ', 00H, 'v', 00H, 'e', 00H, 'c', 00H
	DB	't', 00H, 'o', 00H, 'r', 00H, ' ', 00H, 'i', 00H, 't', 00H, 'e'
	DB	00H, 'r', 00H, 'a', 00H, 't', 00H, 'o', 00H, 'r', 00H, ' ', 00H
	DB	'p', 00H, 'a', 00H, 's', 00H, 't', 00H, ' ', 00H, 'e', 00H, 'n'
	DB	00H, 'd', 00H, '"', 00H, 00H, 00H		; `string'
CONST	ENDS
;	COMDAT ??_C@_0CJ@OAAAAGPM@can?8t?5increment?5vector?5iterator@
CONST	SEGMENT
??_C@_0CJ@OAAAAGPM@can?8t?5increment?5vector?5iterator@ DB 'can''t increm'
	DB	'ent vector iterator past end', 00H		; `string'
CONST	ENDS
;	COMDAT ??_C@_1GI@EDCILPL@?$AA?$CC?$AAc?$AAa?$AAn?$AA?8?$AAt?$AA?5?$AAi?$AAn?$AAc?$AAr?$AAe?$AAm?$AAe?$AAn@
CONST	SEGMENT
??_C@_1GI@EDCILPL@?$AA?$CC?$AAc?$AAa?$AAn?$AA?8?$AAt?$AA?5?$AAi?$AAn?$AAc?$AAr?$AAe?$AAm?$AAe?$AAn@ DB '"'
	DB	00H, 'c', 00H, 'a', 00H, 'n', 00H, '''', 00H, 't', 00H, ' ', 00H
	DB	'i', 00H, 'n', 00H, 'c', 00H, 'r', 00H, 'e', 00H, 'm', 00H, 'e'
	DB	00H, 'n', 00H, 't', 00H, ' ', 00H, 'v', 00H, 'a', 00H, 'l', 00H
	DB	'u', 00H, 'e', 00H, '-', 00H, 'i', 00H, 'n', 00H, 'i', 00H, 't'
	DB	00H, 'i', 00H, 'a', 00H, 'l', 00H, 'i', 00H, 'z', 00H, 'e', 00H
	DB	'd', 00H, ' ', 00H, 'v', 00H, 'e', 00H, 'c', 00H, 't', 00H, 'o'
	DB	00H, 'r', 00H, ' ', 00H, 'i', 00H, 't', 00H, 'e', 00H, 'r', 00H
	DB	'a', 00H, 't', 00H, 'o', 00H, 'r', 00H, '"', 00H, 00H, 00H ; `string'
CONST	ENDS
;	COMDAT ??_C@_1BCM@PPJHGIFH@?$AAs?$AAt?$AAd?$AA?3?$AA?3?$AA_?$AAV?$AAe?$AAc?$AAt?$AAo?$AAr?$AA_?$AAc?$AAo@
CONST	SEGMENT
??_C@_1BCM@PPJHGIFH@?$AAs?$AAt?$AAd?$AA?3?$AA?3?$AA_?$AAV?$AAe?$AAc?$AAt?$AAo?$AAr?$AA_?$AAc?$AAo@ DB 's'
	DB	00H, 't', 00H, 'd', 00H, ':', 00H, ':', 00H, '_', 00H, 'V', 00H
	DB	'e', 00H, 'c', 00H, 't', 00H, 'o', 00H, 'r', 00H, '_', 00H, 'c'
	DB	00H, 'o', 00H, 'n', 00H, 's', 00H, 't', 00H, '_', 00H, 'i', 00H
	DB	't', 00H, 'e', 00H, 'r', 00H, 'a', 00H, 't', 00H, 'o', 00H, 'r'
	DB	00H, '<', 00H, 'c', 00H, 'l', 00H, 'a', 00H, 's', 00H, 's', 00H
	DB	' ', 00H, 's', 00H, 't', 00H, 'd', 00H, ':', 00H, ':', 00H, '_'
	DB	00H, 'V', 00H, 'e', 00H, 'c', 00H, 't', 00H, 'o', 00H, 'r', 00H
	DB	'_', 00H, 'v', 00H, 'a', 00H, 'l', 00H, '<', 00H, 's', 00H, 't'
	DB	00H, 'r', 00H, 'u', 00H, 'c', 00H, 't', 00H, ' ', 00H, 's', 00H
	DB	't', 00H, 'd', 00H, ':', 00H, ':', 00H, '_', 00H, 'S', 00H, 'i'
	DB	00H, 'm', 00H, 'p', 00H, 'l', 00H, 'e', 00H, '_', 00H, 't', 00H
	DB	'y', 00H, 'p', 00H, 'e', 00H, 's', 00H, '<', 00H, 'c', 00H, 'l'
	DB	00H, 'a', 00H, 's', 00H, 's', 00H, ' ', 00H, 'N', 00H, 'a', 00H
	DB	'v', 00H, 'G', 00H, 'r', 00H, 'a', 00H, 'p', 00H, 'h', 00H, 'N'
	DB	00H, 'o', 00H, 'd', 00H, 'e', 00H, '<', 00H, 'c', 00H, 'l', 00H
	DB	'a', 00H, 's', 00H, 's', 00H, ' ', 00H, 'T', 00H, 'r', 00H, 'i'
	DB	00H, 'g', 00H, 'g', 00H, 'e', 00H, 'r', 00H, '<', 00H, 'c', 00H
	DB	'l', 00H, 'a', 00H, 's', 00H, 's', 00H, ' ', 00H, 'R', 00H, 'a'
	DB	00H, 'v', 00H, 'e', 00H, 'n', 00H, '_', 00H, 'B', 00H, 'o', 00H
	DB	't', 00H, '>', 00H, ' ', 00H, '*', 00H, '>', 00H, ' ', 00H, '*'
	DB	00H, '>', 00H, ' ', 00H, '>', 00H, ' ', 00H, '>', 00H, ':', 00H
	DB	':', 00H, 'o', 00H, 'p', 00H, 'e', 00H, 'r', 00H, 'a', 00H, 't'
	DB	00H, 'o', 00H, 'r', 00H, ' ', 00H, '+', 00H, '+', 00H, 00H, 00H ; `string'
CONST	ENDS
;	COMDAT ??_C@_0DC@KEKNBAEB@can?8t?5increment?5value?9initializ@
CONST	SEGMENT
??_C@_0DC@KEKNBAEB@can?8t?5increment?5value?9initializ@ DB 'can''t increm'
	DB	'ent value-initialized vector iterator', 00H	; `string'
CONST	ENDS
;	COMDAT ??_C@_1EA@DJDGNIII@?$AA?$CC?$AAv?$AAe?$AAc?$AAt?$AAo?$AAr?$AA?5?$AAi?$AAt?$AAe?$AAr?$AAa?$AAt?$AAo@
CONST	SEGMENT
??_C@_1EA@DJDGNIII@?$AA?$CC?$AAv?$AAe?$AAc?$AAt?$AAo?$AAr?$AA?5?$AAi?$AAt?$AAe?$AAr?$AAa?$AAt?$AAo@ DB '"'
	DB	00H, 'v', 00H, 'e', 00H, 'c', 00H, 't', 00H, 'o', 00H, 'r', 00H
	DB	' ', 00H, 'i', 00H, 't', 00H, 'e', 00H, 'r', 00H, 'a', 00H, 't'
	DB	00H, 'o', 00H, 'r', 00H, 's', 00H, ' ', 00H, 'i', 00H, 'n', 00H
	DB	'c', 00H, 'o', 00H, 'm', 00H, 'p', 00H, 'a', 00H, 't', 00H, 'i'
	DB	00H, 'b', 00H, 'l', 00H, 'e', 00H, '"', 00H, 00H, 00H ; `string'
CONST	ENDS
;	COMDAT ??_C@_1BCE@OCGHGJBH@?$AAs?$AAt?$AAd?$AA?3?$AA?3?$AA_?$AAV?$AAe?$AAc?$AAt?$AAo?$AAr?$AA_?$AAc?$AAo@
CONST	SEGMENT
??_C@_1BCE@OCGHGJBH@?$AAs?$AAt?$AAd?$AA?3?$AA?3?$AA_?$AAV?$AAe?$AAc?$AAt?$AAo?$AAr?$AA_?$AAc?$AAo@ DB 's'
	DB	00H, 't', 00H, 'd', 00H, ':', 00H, ':', 00H, '_', 00H, 'V', 00H
	DB	'e', 00H, 'c', 00H, 't', 00H, 'o', 00H, 'r', 00H, '_', 00H, 'c'
	DB	00H, 'o', 00H, 'n', 00H, 's', 00H, 't', 00H, '_', 00H, 'i', 00H
	DB	't', 00H, 'e', 00H, 'r', 00H, 'a', 00H, 't', 00H, 'o', 00H, 'r'
	DB	00H, '<', 00H, 'c', 00H, 'l', 00H, 'a', 00H, 's', 00H, 's', 00H
	DB	' ', 00H, 's', 00H, 't', 00H, 'd', 00H, ':', 00H, ':', 00H, '_'
	DB	00H, 'V', 00H, 'e', 00H, 'c', 00H, 't', 00H, 'o', 00H, 'r', 00H
	DB	'_', 00H, 'v', 00H, 'a', 00H, 'l', 00H, '<', 00H, 's', 00H, 't'
	DB	00H, 'r', 00H, 'u', 00H, 'c', 00H, 't', 00H, ' ', 00H, 's', 00H
	DB	't', 00H, 'd', 00H, ':', 00H, ':', 00H, '_', 00H, 'S', 00H, 'i'
	DB	00H, 'm', 00H, 'p', 00H, 'l', 00H, 'e', 00H, '_', 00H, 't', 00H
	DB	'y', 00H, 'p', 00H, 'e', 00H, 's', 00H, '<', 00H, 'c', 00H, 'l'
	DB	00H, 'a', 00H, 's', 00H, 's', 00H, ' ', 00H, 'N', 00H, 'a', 00H
	DB	'v', 00H, 'G', 00H, 'r', 00H, 'a', 00H, 'p', 00H, 'h', 00H, 'N'
	DB	00H, 'o', 00H, 'd', 00H, 'e', 00H, '<', 00H, 'c', 00H, 'l', 00H
	DB	'a', 00H, 's', 00H, 's', 00H, ' ', 00H, 'T', 00H, 'r', 00H, 'i'
	DB	00H, 'g', 00H, 'g', 00H, 'e', 00H, 'r', 00H, '<', 00H, 'c', 00H
	DB	'l', 00H, 'a', 00H, 's', 00H, 's', 00H, ' ', 00H, 'R', 00H, 'a'
	DB	00H, 'v', 00H, 'e', 00H, 'n', 00H, '_', 00H, 'B', 00H, 'o', 00H
	DB	't', 00H, '>', 00H, ' ', 00H, '*', 00H, '>', 00H, ' ', 00H, '*'
	DB	00H, '>', 00H, ' ', 00H, '>', 00H, ' ', 00H, '>', 00H, ':', 00H
	DB	':', 00H, '_', 00H, 'C', 00H, 'o', 00H, 'm', 00H, 'p', 00H, 'a'
	DB	00H, 't', 00H, 00H, 00H			; `string'
CONST	ENDS
;	COMDAT ??_C@_0BO@CAOBBIOC@vector?5iterators?5incompatible@
CONST	SEGMENT
??_C@_0BO@CAOBBIOC@vector?5iterators?5incompatible@ DB 'vector iterators '
	DB	'incompatible', 00H				; `string'
CONST	ENDS
;	COMDAT ??_C@_1EI@FHIDKIBN@?$AA?$CC?$AAl?$AAi?$AAs?$AAt?$AA?5?$AAe?$AAr?$AAa?$AAs?$AAe?$AA?5?$AAi?$AAt?$AAe@
CONST	SEGMENT
??_C@_1EI@FHIDKIBN@?$AA?$CC?$AAl?$AAi?$AAs?$AAt?$AA?5?$AAe?$AAr?$AAa?$AAs?$AAe?$AA?5?$AAi?$AAt?$AAe@ DB '"'
	DB	00H, 'l', 00H, 'i', 00H, 's', 00H, 't', 00H, ' ', 00H, 'e', 00H
	DB	'r', 00H, 'a', 00H, 's', 00H, 'e', 00H, ' ', 00H, 'i', 00H, 't'
	DB	00H, 'e', 00H, 'r', 00H, 'a', 00H, 't', 00H, 'o', 00H, 'r', 00H
	DB	' ', 00H, 'o', 00H, 'u', 00H, 't', 00H, 's', 00H, 'i', 00H, 'd'
	DB	00H, 'e', 00H, ' ', 00H, 'r', 00H, 'a', 00H, 'n', 00H, 'g', 00H
	DB	'e', 00H, '"', 00H, 00H, 00H			; `string'
CONST	ENDS
;	COMDAT ??_C@_1JK@HEAEGEKC@?$AAs?$AAt?$AAd?$AA?3?$AA?3?$AAl?$AAi?$AAs?$AAt?$AA?$DM?$AAc?$AAl?$AAa?$AAs?$AAs@
CONST	SEGMENT
??_C@_1JK@HEAEGEKC@?$AAs?$AAt?$AAd?$AA?3?$AA?3?$AAl?$AAi?$AAs?$AAt?$AA?$DM?$AAc?$AAl?$AAa?$AAs?$AAs@ DB 's'
	DB	00H, 't', 00H, 'd', 00H, ':', 00H, ':', 00H, 'l', 00H, 'i', 00H
	DB	's', 00H, 't', 00H, '<', 00H, 'c', 00H, 'l', 00H, 'a', 00H, 's'
	DB	00H, 's', 00H, ' ', 00H, 'P', 00H, 'a', 00H, 't', 00H, 'h', 00H
	DB	'E', 00H, 'd', 00H, 'g', 00H, 'e', 00H, ',', 00H, 'c', 00H, 'l'
	DB	00H, 'a', 00H, 's', 00H, 's', 00H, ' ', 00H, 's', 00H, 't', 00H
	DB	'd', 00H, ':', 00H, ':', 00H, 'a', 00H, 'l', 00H, 'l', 00H, 'o'
	DB	00H, 'c', 00H, 'a', 00H, 't', 00H, 'o', 00H, 'r', 00H, '<', 00H
	DB	'c', 00H, 'l', 00H, 'a', 00H, 's', 00H, 's', 00H, ' ', 00H, 'P'
	DB	00H, 'a', 00H, 't', 00H, 'h', 00H, 'E', 00H, 'd', 00H, 'g', 00H
	DB	'e', 00H, '>', 00H, ' ', 00H, '>', 00H, ':', 00H, ':', 00H, '_'
	DB	00H, 'U', 00H, 'n', 00H, 'l', 00H, 'i', 00H, 'n', 00H, 'k', 00H
	DB	'n', 00H, 'o', 00H, 'd', 00H, 'e', 00H, 00H, 00H ; `string'
CONST	ENDS
;	COMDAT ??_C@_0CC@KEJJOMBH@list?5erase?5iterator?5outside?5ran@
CONST	SEGMENT
??_C@_0CC@KEJJOMBH@list?5erase?5iterator?5outside?5ran@ DB 'list erase it'
	DB	'erator outside range', 00H			; `string'
CONST	ENDS
;	COMDAT ??_C@_1DA@HEIDPBNG@?$AAm?$AA_?$AAi?$AAS?$AAi?$AAz?$AAe?$AA?$CL?$AA1?$AA?5?$AA?$DM?$AA?$DN?$AA?5?$AAm?$AA_@
CONST	SEGMENT
??_C@_1DA@HEIDPBNG@?$AAm?$AA_?$AAi?$AAS?$AAi?$AAz?$AAe?$AA?$CL?$AA1?$AA?5?$AA?$DM?$AA?$DN?$AA?5?$AAm?$AA_@ DB 'm'
	DB	00H, '_', 00H, 'i', 00H, 'S', 00H, 'i', 00H, 'z', 00H, 'e', 00H
	DB	'+', 00H, '1', 00H, ' ', 00H, '<', 00H, '=', 00H, ' ', 00H, 'm'
	DB	00H, '_', 00H, 'i', 00H, 'M', 00H, 'a', 00H, 'x', 00H, 'S', 00H
	DB	'i', 00H, 'z', 00H, 'e', 00H, 00H, 00H	; `string'
CONST	ENDS
;	COMDAT ??_C@_1LK@BLFBEIJO@?$AAc?$AA?3?$AA?2?$AAu?$AAs?$AAe?$AAr?$AAs?$AA?2?$AAu?$AAt?$AAi?$AAl?$AAi?$AAs@
CONST	SEGMENT
??_C@_1LK@BLFBEIJO@?$AAc?$AA?3?$AA?2?$AAu?$AAs?$AAe?$AAr?$AAs?$AA?2?$AAu?$AAt?$AAi?$AAl?$AAi?$AAs@ DB 'c'
	DB	00H, ':', 00H, '\', 00H, 'u', 00H, 's', 00H, 'e', 00H, 'r', 00H
	DB	's', 00H, '\', 00H, 'u', 00H, 't', 00H, 'i', 00H, 'l', 00H, 'i'
	DB	00H, 's', 00H, 'a', 00H, 't', 00H, 'e', 00H, 'u', 00H, 'r', 00H
	DB	'\', 00H, 'd', 00H, 'o', 00H, 'c', 00H, 'u', 00H, 'm', 00H, 'e'
	DB	00H, 'n', 00H, 't', 00H, 's', 00H, '\', 00H, 'g', 00H, 'i', 00H
	DB	't', 00H, 'h', 00H, 'u', 00H, 'b', 00H, '\', 00H, '8', 00H, 'i'
	DB	00H, 'a', 00H, 'r', 00H, '1', 00H, '2', 00H, '5', 00H, '-', 00H
	DB	'p', 00H, 'r', 00H, 'o', 00H, 'j', 00H, 'e', 00H, 't', 00H, 'r'
	DB	00H, 'a', 00H, 'v', 00H, 'e', 00H, 'n', 00H, '\', 00H, 'v', 00H
	DB	's', 00H, '2', 00H, '0', 00H, '1', 00H, '5', 00H, '\', 00H, 'c'
	DB	00H, 'o', 00H, 'm', 00H, 'm', 00H, 'o', 00H, 'n', 00H, '\', 00H
	DB	'm', 00H, 'i', 00H, 's', 00H, 'c', 00H, '\', 00H, 'p', 00H, 'r'
	DB	00H, 'i', 00H, 'o', 00H, 'r', 00H, 'i', 00H, 't', 00H, 'y', 00H
	DB	'q', 00H, 'u', 00H, 'e', 00H, 'u', 00H, 'e', 00H, '.', 00H, 'h'
	DB	00H, 00H, 00H				; `string'
CONST	ENDS
;	COMDAT ??_C@_1BAC@NKIMLBPN@?$AAs?$AAt?$AAd?$AA?3?$AA?3?$AA_?$AAL?$AAi?$AAs?$AAt?$AA_?$AAc?$AAo?$AAn?$AAs@
CONST	SEGMENT
??_C@_1BAC@NKIMLBPN@?$AAs?$AAt?$AAd?$AA?3?$AA?3?$AA_?$AAL?$AAi?$AAs?$AAt?$AA_?$AAc?$AAo?$AAn?$AAs@ DB 's'
	DB	00H, 't', 00H, 'd', 00H, ':', 00H, ':', 00H, '_', 00H, 'L', 00H
	DB	'i', 00H, 's', 00H, 't', 00H, '_', 00H, 'c', 00H, 'o', 00H, 'n'
	DB	00H, 's', 00H, 't', 00H, '_', 00H, 'i', 00H, 't', 00H, 'e', 00H
	DB	'r', 00H, 'a', 00H, 't', 00H, 'o', 00H, 'r', 00H, '<', 00H, 'c'
	DB	00H, 'l', 00H, 'a', 00H, 's', 00H, 's', 00H, ' ', 00H, 's', 00H
	DB	't', 00H, 'd', 00H, ':', 00H, ':', 00H, '_', 00H, 'L', 00H, 'i'
	DB	00H, 's', 00H, 't', 00H, '_', 00H, 'v', 00H, 'a', 00H, 'l', 00H
	DB	'<', 00H, 's', 00H, 't', 00H, 'r', 00H, 'u', 00H, 'c', 00H, 't'
	DB	00H, ' ', 00H, 's', 00H, 't', 00H, 'd', 00H, ':', 00H, ':', 00H
	DB	'_', 00H, 'L', 00H, 'i', 00H, 's', 00H, 't', 00H, '_', 00H, 's'
	DB	00H, 'i', 00H, 'm', 00H, 'p', 00H, 'l', 00H, 'e', 00H, '_', 00H
	DB	't', 00H, 'y', 00H, 'p', 00H, 'e', 00H, 's', 00H, '<', 00H, 'c'
	DB	00H, 'l', 00H, 'a', 00H, 's', 00H, 's', 00H, ' ', 00H, 'T', 00H
	DB	'r', 00H, 'i', 00H, 'g', 00H, 'g', 00H, 'e', 00H, 'r', 00H, '<'
	DB	00H, 'c', 00H, 'l', 00H, 'a', 00H, 's', 00H, 's', 00H, ' ', 00H
	DB	'R', 00H, 'a', 00H, 'v', 00H, 'e', 00H, 'n', 00H, '_', 00H, 'B'
	DB	00H, 'o', 00H, 't', 00H, '>', 00H, ' ', 00H, '*', 00H, '>', 00H
	DB	' ', 00H, '>', 00H, ' ', 00H, '>', 00H, ':', 00H, ':', 00H, 'o'
	DB	00H, 'p', 00H, 'e', 00H, 'r', 00H, 'a', 00H, 't', 00H, 'o', 00H
	DB	'r', 00H, ' ', 00H, '=', 00H, '=', 00H, 00H, 00H ; `string'
CONST	ENDS
;	COMDAT ??_C@_1NO@NMPGMCFD@?$AAs?$AAt?$AAd?$AA?3?$AA?3?$AA_?$AAL?$AAi?$AAs?$AAt?$AA_?$AAc?$AAo?$AAn?$AAs@
CONST	SEGMENT
??_C@_1NO@NMPGMCFD@?$AAs?$AAt?$AAd?$AA?3?$AA?3?$AA_?$AAL?$AAi?$AAs?$AAt?$AA_?$AAc?$AAo?$AAn?$AAs@ DB 's'
	DB	00H, 't', 00H, 'd', 00H, ':', 00H, ':', 00H, '_', 00H, 'L', 00H
	DB	'i', 00H, 's', 00H, 't', 00H, '_', 00H, 'c', 00H, 'o', 00H, 'n'
	DB	00H, 's', 00H, 't', 00H, '_', 00H, 'i', 00H, 't', 00H, 'e', 00H
	DB	'r', 00H, 'a', 00H, 't', 00H, 'o', 00H, 'r', 00H, '<', 00H, 'c'
	DB	00H, 'l', 00H, 'a', 00H, 's', 00H, 's', 00H, ' ', 00H, 's', 00H
	DB	't', 00H, 'd', 00H, ':', 00H, ':', 00H, '_', 00H, 'L', 00H, 'i'
	DB	00H, 's', 00H, 't', 00H, '_', 00H, 'v', 00H, 'a', 00H, 'l', 00H
	DB	'<', 00H, 's', 00H, 't', 00H, 'r', 00H, 'u', 00H, 'c', 00H, 't'
	DB	00H, ' ', 00H, 's', 00H, 't', 00H, 'd', 00H, ':', 00H, ':', 00H
	DB	'_', 00H, 'L', 00H, 'i', 00H, 's', 00H, 't', 00H, '_', 00H, 's'
	DB	00H, 'i', 00H, 'm', 00H, 'p', 00H, 'l', 00H, 'e', 00H, '_', 00H
	DB	't', 00H, 'y', 00H, 'p', 00H, 'e', 00H, 's', 00H, '<', 00H, 'c'
	DB	00H, 'l', 00H, 'a', 00H, 's', 00H, 's', 00H, ' ', 00H, 'P', 00H
	DB	'a', 00H, 't', 00H, 'h', 00H, 'E', 00H, 'd', 00H, 'g', 00H, 'e'
	DB	00H, '>', 00H, ' ', 00H, '>', 00H, ' ', 00H, '>', 00H, ':', 00H
	DB	':', 00H, 'o', 00H, 'p', 00H, 'e', 00H, 'r', 00H, 'a', 00H, 't'
	DB	00H, 'o', 00H, 'r', 00H, ' ', 00H, '+', 00H, '+', 00H, 00H, 00H ; `string'
CONST	ENDS
;	COMDAT ??_C@_1EO@PPPLIDNC@?$AA?$CC?$AAc?$AAa?$AAn?$AAn?$AAo?$AAt?$AA?5?$AAd?$AAe?$AAc?$AAr?$AAe?$AAm?$AAe@
CONST	SEGMENT
??_C@_1EO@PPPLIDNC@?$AA?$CC?$AAc?$AAa?$AAn?$AAn?$AAo?$AAt?$AA?5?$AAd?$AAe?$AAc?$AAr?$AAe?$AAm?$AAe@ DB '"'
	DB	00H, 'c', 00H, 'a', 00H, 'n', 00H, 'n', 00H, 'o', 00H, 't', 00H
	DB	' ', 00H, 'd', 00H, 'e', 00H, 'c', 00H, 'r', 00H, 'e', 00H, 'm'
	DB	00H, 'e', 00H, 'n', 00H, 't', 00H, ' ', 00H, 'b', 00H, 'e', 00H
	DB	'g', 00H, 'i', 00H, 'n', 00H, ' ', 00H, 'l', 00H, 'i', 00H, 's'
	DB	00H, 't', 00H, ' ', 00H, 'i', 00H, 't', 00H, 'e', 00H, 'r', 00H
	DB	'a', 00H, 't', 00H, 'o', 00H, 'r', 00H, '"', 00H, 00H, 00H ; `string'
CONST	ENDS
;	COMDAT ??_C@_0CF@BAAFPBMN@cannot?5decrement?5begin?5list?5ite@
CONST	SEGMENT
??_C@_0CF@BAAFPBMN@cannot?5decrement?5begin?5list?5ite@ DB 'cannot decrem'
	DB	'ent begin list iterator', 00H		; `string'
CONST	ENDS
;	COMDAT ??_C@_1GG@FLDKPFOH@?$AA?$CC?$AAc?$AAa?$AAn?$AAn?$AAo?$AAt?$AA?5?$AAd?$AAe?$AAc?$AAr?$AAe?$AAm?$AAe@
CONST	SEGMENT
??_C@_1GG@FLDKPFOH@?$AA?$CC?$AAc?$AAa?$AAn?$AAn?$AAo?$AAt?$AA?5?$AAd?$AAe?$AAc?$AAr?$AAe?$AAm?$AAe@ DB '"'
	DB	00H, 'c', 00H, 'a', 00H, 'n', 00H, 'n', 00H, 'o', 00H, 't', 00H
	DB	' ', 00H, 'd', 00H, 'e', 00H, 'c', 00H, 'r', 00H, 'e', 00H, 'm'
	DB	00H, 'e', 00H, 'n', 00H, 't', 00H, ' ', 00H, 'v', 00H, 'a', 00H
	DB	'l', 00H, 'u', 00H, 'e', 00H, '-', 00H, 'i', 00H, 'n', 00H, 'i'
	DB	00H, 't', 00H, 'i', 00H, 'a', 00H, 'l', 00H, 'i', 00H, 'z', 00H
	DB	'e', 00H, 'd', 00H, ' ', 00H, 'l', 00H, 'i', 00H, 's', 00H, 't'
	DB	00H, ' ', 00H, 'i', 00H, 't', 00H, 'e', 00H, 'r', 00H, 'a', 00H
	DB	't', 00H, 'o', 00H, 'r', 00H, '"', 00H, 00H, 00H ; `string'
CONST	ENDS
;	COMDAT ??_C@_1NO@CPMEHOJC@?$AAs?$AAt?$AAd?$AA?3?$AA?3?$AA_?$AAL?$AAi?$AAs?$AAt?$AA_?$AAc?$AAo?$AAn?$AAs@
CONST	SEGMENT
??_C@_1NO@CPMEHOJC@?$AAs?$AAt?$AAd?$AA?3?$AA?3?$AA_?$AAL?$AAi?$AAs?$AAt?$AA_?$AAc?$AAo?$AAn?$AAs@ DB 's'
	DB	00H, 't', 00H, 'd', 00H, ':', 00H, ':', 00H, '_', 00H, 'L', 00H
	DB	'i', 00H, 's', 00H, 't', 00H, '_', 00H, 'c', 00H, 'o', 00H, 'n'
	DB	00H, 's', 00H, 't', 00H, '_', 00H, 'i', 00H, 't', 00H, 'e', 00H
	DB	'r', 00H, 'a', 00H, 't', 00H, 'o', 00H, 'r', 00H, '<', 00H, 'c'
	DB	00H, 'l', 00H, 'a', 00H, 's', 00H, 's', 00H, ' ', 00H, 's', 00H
	DB	't', 00H, 'd', 00H, ':', 00H, ':', 00H, '_', 00H, 'L', 00H, 'i'
	DB	00H, 's', 00H, 't', 00H, '_', 00H, 'v', 00H, 'a', 00H, 'l', 00H
	DB	'<', 00H, 's', 00H, 't', 00H, 'r', 00H, 'u', 00H, 'c', 00H, 't'
	DB	00H, ' ', 00H, 's', 00H, 't', 00H, 'd', 00H, ':', 00H, ':', 00H
	DB	'_', 00H, 'L', 00H, 'i', 00H, 's', 00H, 't', 00H, '_', 00H, 's'
	DB	00H, 'i', 00H, 'm', 00H, 'p', 00H, 'l', 00H, 'e', 00H, '_', 00H
	DB	't', 00H, 'y', 00H, 'p', 00H, 'e', 00H, 's', 00H, '<', 00H, 'c'
	DB	00H, 'l', 00H, 'a', 00H, 's', 00H, 's', 00H, ' ', 00H, 'P', 00H
	DB	'a', 00H, 't', 00H, 'h', 00H, 'E', 00H, 'd', 00H, 'g', 00H, 'e'
	DB	00H, '>', 00H, ' ', 00H, '>', 00H, ' ', 00H, '>', 00H, ':', 00H
	DB	':', 00H, 'o', 00H, 'p', 00H, 'e', 00H, 'r', 00H, 'a', 00H, 't'
	DB	00H, 'o', 00H, 'r', 00H, ' ', 00H, '-', 00H, '-', 00H, 00H, 00H ; `string'
CONST	ENDS
;	COMDAT ??_C@_0DB@MCPEHPCC@cannot?5decrement?5value?9initiali@
CONST	SEGMENT
??_C@_0DB@MCPEHPCC@cannot?5decrement?5value?9initiali@ DB 'cannot decreme'
	DB	'nt value-initialized list iterator', 00H	; `string'
CONST	ENDS
;	COMDAT ??_C@_1DM@KDLJAKOP@?$AA?$CC?$AAl?$AAi?$AAs?$AAt?$AA?5?$AAi?$AAt?$AAe?$AAr?$AAa?$AAt?$AAo?$AAr?$AAs@
CONST	SEGMENT
??_C@_1DM@KDLJAKOP@?$AA?$CC?$AAl?$AAi?$AAs?$AAt?$AA?5?$AAi?$AAt?$AAe?$AAr?$AAa?$AAt?$AAo?$AAr?$AAs@ DB '"'
	DB	00H, 'l', 00H, 'i', 00H, 's', 00H, 't', 00H, ' ', 00H, 'i', 00H
	DB	't', 00H, 'e', 00H, 'r', 00H, 'a', 00H, 't', 00H, 'o', 00H, 'r'
	DB	00H, 's', 00H, ' ', 00H, 'i', 00H, 'n', 00H, 'c', 00H, 'o', 00H
	DB	'm', 00H, 'p', 00H, 'a', 00H, 't', 00H, 'i', 00H, 'b', 00H, 'l'
	DB	00H, 'e', 00H, '"', 00H, 00H, 00H		; `string'
CONST	ENDS
;	COMDAT ??_C@_1NO@HMALCLJG@?$AAs?$AAt?$AAd?$AA?3?$AA?3?$AA_?$AAL?$AAi?$AAs?$AAt?$AA_?$AAc?$AAo?$AAn?$AAs@
CONST	SEGMENT
??_C@_1NO@HMALCLJG@?$AAs?$AAt?$AAd?$AA?3?$AA?3?$AA_?$AAL?$AAi?$AAs?$AAt?$AA_?$AAc?$AAo?$AAn?$AAs@ DB 's'
	DB	00H, 't', 00H, 'd', 00H, ':', 00H, ':', 00H, '_', 00H, 'L', 00H
	DB	'i', 00H, 's', 00H, 't', 00H, '_', 00H, 'c', 00H, 'o', 00H, 'n'
	DB	00H, 's', 00H, 't', 00H, '_', 00H, 'i', 00H, 't', 00H, 'e', 00H
	DB	'r', 00H, 'a', 00H, 't', 00H, 'o', 00H, 'r', 00H, '<', 00H, 'c'
	DB	00H, 'l', 00H, 'a', 00H, 's', 00H, 's', 00H, ' ', 00H, 's', 00H
	DB	't', 00H, 'd', 00H, ':', 00H, ':', 00H, '_', 00H, 'L', 00H, 'i'
	DB	00H, 's', 00H, 't', 00H, '_', 00H, 'v', 00H, 'a', 00H, 'l', 00H
	DB	'<', 00H, 's', 00H, 't', 00H, 'r', 00H, 'u', 00H, 'c', 00H, 't'
	DB	00H, ' ', 00H, 's', 00H, 't', 00H, 'd', 00H, ':', 00H, ':', 00H
	DB	'_', 00H, 'L', 00H, 'i', 00H, 's', 00H, 't', 00H, '_', 00H, 's'
	DB	00H, 'i', 00H, 'm', 00H, 'p', 00H, 'l', 00H, 'e', 00H, '_', 00H
	DB	't', 00H, 'y', 00H, 'p', 00H, 'e', 00H, 's', 00H, '<', 00H, 'c'
	DB	00H, 'l', 00H, 'a', 00H, 's', 00H, 's', 00H, ' ', 00H, 'P', 00H
	DB	'a', 00H, 't', 00H, 'h', 00H, 'E', 00H, 'd', 00H, 'g', 00H, 'e'
	DB	00H, '>', 00H, ' ', 00H, '>', 00H, ' ', 00H, '>', 00H, ':', 00H
	DB	':', 00H, 'o', 00H, 'p', 00H, 'e', 00H, 'r', 00H, 'a', 00H, 't'
	DB	00H, 'o', 00H, 'r', 00H, ' ', 00H, '=', 00H, '=', 00H, 00H, 00H ; `string'
CONST	ENDS
;	COMDAT ??_C@_0BM@BALDKKHE@list?5iterators?5incompatible@
CONST	SEGMENT
??_C@_0BM@BALDKKHE@list?5iterators?5incompatible@ DB 'list iterators inco'
	DB	'mpatible', 00H				; `string'
CONST	ENDS
