; Listing generated by Microsoft (R) Optimizing Compiler Version 19.15.26730.0 

	TITLE	C:\Users\Utilisateur\Documents\GitHub\8IAR125-ProjetRaven\VS2015\Buckland_Chapter7 to 10_Raven\Raven_Game.cpp
	.686P
	.XMM
	include listing.inc
	.model	flat

INCLUDELIB LIBCMTD
INCLUDELIB OLDNAMES

CONST	SEGMENT
$SG181125 DB	'Map has no spawn points!', 00H
?piecewise_construct@std@@3Upiecewise_construct_t@1@B	ORG $+1 ; std::piecewise_construct
	ORG $+2
$SG181254 DB	'GraveLifetime', 00H
	ORG $+2
$SG181256 DB	'MaxSearchCyclesPerUpdateStep', 00H
	ORG $+3
$SG181259 DB	'NumBots', 00H
$SG182327 DB	'Queuing', 00H
?colors@@3QBKB DD 0ffH					; colors
	DD	0ff0000H
	DD	0ff00H
	DD	00H
	DD	0c8c8ffH
	DD	0c8c8c8H
	DD	0ffffH
	DD	0aaffH
	DD	0aa00ffH
	DD	05a85H
	DD	0ffffffH
	DD	06400H
	DD	0ffff00H
	DD	0c8c8c8H
	DD	0e6e6ffH
$SG179534 DB	'StartMap', 00H
CONST	ENDS
PUBLIC	?__empty_global_delete@@YAXPAX@Z		; __empty_global_delete
PUBLIC	?__empty_global_delete@@YAXPAXI@Z		; __empty_global_delete
PUBLIC	??2@YAPAXIPAX@Z					; operator new
PUBLIC	?max@?$numeric_limits@H@std@@SAHXZ		; std::numeric_limits<int>::max
PUBLIC	?min@?$numeric_limits@M@std@@SAMXZ		; std::numeric_limits<float>::min
PUBLIC	?max@?$numeric_limits@M@std@@SAMXZ		; std::numeric_limits<float>::max
PUBLIC	?min@?$numeric_limits@N@std@@SANXZ		; std::numeric_limits<double>::min
PUBLIC	?max@?$numeric_limits@N@std@@SANXZ		; std::numeric_limits<double>::max
PUBLIC	?epsilon@?$numeric_limits@N@std@@SANXZ		; std::numeric_limits<double>::epsilon
PUBLIC	?_Add_bytes@_Fnv1a_hasher@std@@QAEIPBEQBE@Z	; std::_Fnv1a_hasher::_Add_bytes
PUBLIC	??0_Fnv1a_hasher@std@@QAE@XZ			; std::_Fnv1a_hasher::_Fnv1a_hasher
PUBLIC	?_Hash_bytes@std@@YAIPBEI@Z			; std::_Hash_bytes
PUBLIC	?compare@?$char_traits@D@std@@SAHQBD0I@Z	; std::char_traits<char>::compare
PUBLIC	?length@?$char_traits@D@std@@SAIQBD@Z		; std::char_traits<char>::length
PUBLIC	?copy@?$char_traits@D@std@@SAPADQADQBDI@Z	; std::char_traits<char>::copy
PUBLIC	?move@?$char_traits@D@std@@SAPADQADQBDI@Z	; std::char_traits<char>::move
PUBLIC	?assign@?$char_traits@D@std@@SAXAADABD@Z	; std::char_traits<char>::assign
PUBLIC	?_Adopt@_Iterator_base0@std@@QAEXPBX@Z		; std::_Iterator_base0::_Adopt
PUBLIC	??0_Container_proxy@std@@QAE@XZ			; std::_Container_proxy::_Container_proxy
PUBLIC	??0_Container_base12@std@@QAE@XZ		; std::_Container_base12::_Container_base12
PUBLIC	?_Getpfirst@_Container_base12@std@@QBEPAPAU_Iterator_base12@2@XZ ; std::_Container_base12::_Getpfirst
PUBLIC	?_Orphan_all@_Container_base12@std@@QAEXXZ	; std::_Container_base12::_Orphan_all
PUBLIC	?_Swap_all@_Container_base12@std@@QAEXAAU12@@Z	; std::_Container_base12::_Swap_all
PUBLIC	??0_Iterator_base12@std@@QAE@XZ			; std::_Iterator_base12::_Iterator_base12
PUBLIC	??0_Iterator_base12@std@@QAE@ABU01@@Z		; std::_Iterator_base12::_Iterator_base12
PUBLIC	??4_Iterator_base12@std@@QAEAAU01@ABU01@@Z	; std::_Iterator_base12::operator=
PUBLIC	??1_Iterator_base12@std@@QAE@XZ			; std::_Iterator_base12::~_Iterator_base12
PUBLIC	?_Adopt@_Iterator_base12@std@@QAEXPBU_Container_base12@2@@Z ; std::_Iterator_base12::_Adopt
PUBLIC	?_Clrcont@_Iterator_base12@std@@QAEXXZ		; std::_Iterator_base12::_Clrcont
PUBLIC	?_Getcont@_Iterator_base12@std@@QBEPBU_Container_base12@2@XZ ; std::_Iterator_base12::_Getcont
PUBLIC	?_Getpnext@_Iterator_base12@std@@QAEPAPAU12@XZ	; std::_Iterator_base12::_Getpnext
PUBLIC	?_Orphan_me@_Iterator_base12@std@@QAEXXZ	; std::_Iterator_base12::_Orphan_me
PUBLIC	??$_Get_size_of_n@$00@std@@YAII@Z		; std::_Get_size_of_n<1>
PUBLIC	?_Allocate@_Default_allocate_traits@std@@SAPAXI@Z ; std::_Default_allocate_traits::_Allocate
PUBLIC	?_Adjust_manually_vector_aligned@std@@YAXAAPAXAAI@Z ; std::_Adjust_manually_vector_aligned
PUBLIC	??$_Convert_size@I@std@@YAII@Z			; std::_Convert_size<unsigned int>
PUBLIC	??0?$allocator@D@std@@QAE@XZ			; std::allocator<char>::allocator<char>
PUBLIC	?deallocate@?$allocator@D@std@@QAEXQADI@Z	; std::allocator<char>::deallocate
PUBLIC	?allocate@?$allocator@D@std@@QAEPADI@Z		; std::allocator<char>::allocate
PUBLIC	?max_size@?$_Default_allocator_traits@V?$allocator@D@std@@@std@@SAIABV?$allocator@D@2@@Z ; std::_Default_allocator_traits<std::allocator<char> >::max_size
PUBLIC	?select_on_container_copy_construction@?$_Default_allocator_traits@V?$allocator@D@std@@@std@@SA?AV?$allocator@D@2@ABV32@@Z ; std::_Default_allocator_traits<std::allocator<char> >::select_on_container_copy_construction
PUBLIC	??0?$_String_val@U?$_Simple_types@D@std@@@std@@QAE@XZ ; std::_String_val<std::_Simple_types<char> >::_String_val<std::_Simple_types<char> >
PUBLIC	?_Myptr@?$_String_val@U?$_Simple_types@D@std@@@std@@QAEPADXZ ; std::_String_val<std::_Simple_types<char> >::_Myptr
PUBLIC	?_Myptr@?$_String_val@U?$_Simple_types@D@std@@@std@@QBEPBDXZ ; std::_String_val<std::_Simple_types<char> >::_Myptr
PUBLIC	?_Large_string_engaged@?$_String_val@U?$_Simple_types@D@std@@@std@@QBE_NXZ ; std::_String_val<std::_Simple_types<char> >::_Large_string_engaged
PUBLIC	??0_Bxty@?$_String_val@U?$_Simple_types@D@std@@@std@@QAE@XZ ; std::_String_val<std::_Simple_types<char> >::_Bxty::_Bxty
PUBLIC	??1_Bxty@?$_String_val@U?$_Simple_types@D@std@@@std@@QAE@XZ ; std::_String_val<std::_Simple_types<char> >::_Bxty::~_Bxty
PUBLIC	??1?$_String_val@U?$_Simple_types@D@std@@@std@@QAE@XZ ; std::_String_val<std::_Simple_types<char> >::~_String_val<std::_Simple_types<char> >
PUBLIC	??0?$_String_alloc@U?$_String_base_types@DV?$allocator@D@std@@@std@@@std@@QAE@XZ ; std::_String_alloc<std::_String_base_types<char,std::allocator<char> > >::_String_alloc<std::_String_base_types<char,std::allocator<char> > >
PUBLIC	??1?$_String_alloc@U?$_String_base_types@DV?$allocator@D@std@@@std@@@std@@QAE@XZ ; std::_String_alloc<std::_String_base_types<char,std::allocator<char> > >::~_String_alloc<std::_String_base_types<char,std::allocator<char> > >
PUBLIC	?_Alloc_proxy@?$_String_alloc@U?$_String_base_types@DV?$allocator@D@std@@@std@@@std@@QAEXXZ ; std::_String_alloc<std::_String_base_types<char,std::allocator<char> > >::_Alloc_proxy
PUBLIC	?_Free_proxy@?$_String_alloc@U?$_String_base_types@DV?$allocator@D@std@@@std@@@std@@QAEXXZ ; std::_String_alloc<std::_String_base_types<char,std::allocator<char> > >::_Free_proxy
PUBLIC	?_Myproxy@?$_String_alloc@U?$_String_base_types@DV?$allocator@D@std@@@std@@@std@@QAEAAPAU_Container_proxy@2@XZ ; std::_String_alloc<std::_String_base_types<char,std::allocator<char> > >::_Myproxy
PUBLIC	?_Orphan_all@?$_String_alloc@U?$_String_base_types@DV?$allocator@D@std@@@std@@@std@@QAEXXZ ; std::_String_alloc<std::_String_base_types<char,std::allocator<char> > >::_Orphan_all
PUBLIC	?_Getal@?$_String_alloc@U?$_String_base_types@DV?$allocator@D@std@@@std@@@std@@QAEAAV?$allocator@D@2@XZ ; std::_String_alloc<std::_String_base_types<char,std::allocator<char> > >::_Getal
PUBLIC	?_Getal@?$_String_alloc@U?$_String_base_types@DV?$allocator@D@std@@@std@@@std@@QBEABV?$allocator@D@2@XZ ; std::_String_alloc<std::_String_base_types<char,std::allocator<char> > >::_Getal
PUBLIC	?_Get_data@?$_String_alloc@U?$_String_base_types@DV?$allocator@D@std@@@std@@@std@@QAEAAV?$_String_val@U?$_Simple_types@D@std@@@2@XZ ; std::_String_alloc<std::_String_base_types<char,std::allocator<char> > >::_Get_data
PUBLIC	?_Get_data@?$_String_alloc@U?$_String_base_types@DV?$allocator@D@std@@@std@@@std@@QBEABV?$_String_val@U?$_Simple_types@D@std@@@2@XZ ; std::_String_alloc<std::_String_base_types<char,std::allocator<char> > >::_Get_data
PUBLIC	?_Get_first@?$_Compressed_pair@V?$allocator@D@std@@V?$_String_val@U?$_Simple_types@D@std@@@2@$00@std@@QAEAAV?$allocator@D@2@XZ ; std::_Compressed_pair<std::allocator<char>,std::_String_val<std::_Simple_types<char> >,1>::_Get_first
PUBLIC	?_Get_first@?$_Compressed_pair@V?$allocator@D@std@@V?$_String_val@U?$_Simple_types@D@std@@@2@$00@std@@QBEABV?$allocator@D@2@XZ ; std::_Compressed_pair<std::allocator<char>,std::_String_val<std::_Simple_types<char> >,1>::_Get_first
PUBLIC	?_Get_second@?$_Compressed_pair@V?$allocator@D@std@@V?$_String_val@U?$_Simple_types@D@std@@@2@$00@std@@QAEAAV?$_String_val@U?$_Simple_types@D@std@@@2@XZ ; std::_Compressed_pair<std::allocator<char>,std::_String_val<std::_Simple_types<char> >,1>::_Get_second
PUBLIC	?_Get_second@?$_Compressed_pair@V?$allocator@D@std@@V?$_String_val@U?$_Simple_types@D@std@@@2@$00@std@@QBEABV?$_String_val@U?$_Simple_types@D@std@@@2@XZ ; std::_Compressed_pair<std::allocator<char>,std::_String_val<std::_Simple_types<char> >,1>::_Get_second
PUBLIC	??1?$_Compressed_pair@V?$allocator@D@std@@V?$_String_val@U?$_Simple_types@D@std@@@2@$00@std@@QAE@XZ ; std::_Compressed_pair<std::allocator<char>,std::_String_val<std::_Simple_types<char> >,1>::~_Compressed_pair<std::allocator<char>,std::_String_val<std::_Simple_types<char> >,1>
PUBLIC	??0?$basic_string@DU?$char_traits@D@std@@V?$allocator@D@2@@std@@QAE@ABV01@@Z ; std::basic_string<char,std::char_traits<char>,std::allocator<char> >::basic_string<char,std::char_traits<char>,std::allocator<char> >
PUBLIC	??0?$basic_string@DU?$char_traits@D@std@@V?$allocator@D@2@@std@@QAE@XZ ; std::basic_string<char,std::char_traits<char>,std::allocator<char> >::basic_string<char,std::char_traits<char>,std::allocator<char> >
PUBLIC	??0?$basic_string@DU?$char_traits@D@std@@V?$allocator@D@2@@std@@QAE@QBD@Z ; std::basic_string<char,std::char_traits<char>,std::allocator<char> >::basic_string<char,std::char_traits<char>,std::allocator<char> >
PUBLIC	?_Construct_lv_contents@?$basic_string@DU?$char_traits@D@std@@V?$allocator@D@2@@std@@QAEXABV12@@Z ; std::basic_string<char,std::char_traits<char>,std::allocator<char> >::_Construct_lv_contents
PUBLIC	??1?$basic_string@DU?$char_traits@D@std@@V?$allocator@D@2@@std@@QAE@XZ ; std::basic_string<char,std::char_traits<char>,std::allocator<char> >::~basic_string<char,std::char_traits<char>,std::allocator<char> >
PUBLIC	?assign@?$basic_string@DU?$char_traits@D@std@@V?$allocator@D@2@@std@@QAEAAV12@QBDI@Z ; std::basic_string<char,std::char_traits<char>,std::allocator<char> >::assign
PUBLIC	?assign@?$basic_string@DU?$char_traits@D@std@@V?$allocator@D@2@@std@@QAEAAV12@QBD@Z ; std::basic_string<char,std::char_traits<char>,std::allocator<char> >::assign
PUBLIC	?c_str@?$basic_string@DU?$char_traits@D@std@@V?$allocator@D@2@@std@@QBEPBDXZ ; std::basic_string<char,std::char_traits<char>,std::allocator<char> >::c_str
PUBLIC	?size@?$basic_string@DU?$char_traits@D@std@@V?$allocator@D@2@@std@@QBEIXZ ; std::basic_string<char,std::char_traits<char>,std::allocator<char> >::size
PUBLIC	?max_size@?$basic_string@DU?$char_traits@D@std@@V?$allocator@D@2@@std@@QBEIXZ ; std::basic_string<char,std::char_traits<char>,std::allocator<char> >::max_size
PUBLIC	?_Equal@?$basic_string@DU?$char_traits@D@std@@V?$allocator@D@2@@std@@QBE_NABV12@@Z ; std::basic_string<char,std::char_traits<char>,std::allocator<char> >::_Equal
PUBLIC	?_Calculate_growth@?$basic_string@DU?$char_traits@D@std@@V?$allocator@D@2@@std@@QBEII@Z ; std::basic_string<char,std::char_traits<char>,std::allocator<char> >::_Calculate_growth
PUBLIC	?_Tidy_init@?$basic_string@DU?$char_traits@D@std@@V?$allocator@D@2@@std@@QAEXXZ ; std::basic_string<char,std::char_traits<char>,std::allocator<char> >::_Tidy_init
PUBLIC	?_Tidy_deallocate@?$basic_string@DU?$char_traits@D@std@@V?$allocator@D@2@@std@@QAEXXZ ; std::basic_string<char,std::char_traits<char>,std::allocator<char> >::_Tidy_deallocate
PUBLIC	?_Xlen@?$basic_string@DU?$char_traits@D@std@@V?$allocator@D@2@@std@@SAXXZ ; std::basic_string<char,std::char_traits<char>,std::allocator<char> >::_Xlen
PUBLIC	??0id@locale@std@@QAE@I@Z			; std::locale::id::id
PUBLIC	?stod@std@@YANABV?$basic_string@DU?$char_traits@D@std@@V?$allocator@D@2@@1@PAI@Z ; std::stod
PUBLIC	?RandInt@@YAHHH@Z				; RandInt
PUBLIC	??0Vector2D@@QAE@XZ				; Vector2D::Vector2D
PUBLIC	??0Vector2D@@QAE@NN@Z				; Vector2D::Vector2D
PUBLIC	?Length@Vector2D@@QBENXZ			; Vector2D::Length
PUBLIC	?Dot@Vector2D@@QBENABU1@@Z			; Vector2D::Dot
PUBLIC	??YVector2D@@QAEABU0@ABU0@@Z			; Vector2D::operator+=
PUBLIC	??XVector2D@@QAEABU0@ABN@Z			; Vector2D::operator*=
PUBLIC	??D@YA?AUVector2D@@ABU0@N@Z			; operator*
PUBLIC	??G@YA?AUVector2D@@ABU0@0@Z			; operator-
PUBLIC	??H@YA?AUVector2D@@ABU0@0@Z			; operator+
PUBLIC	??K@YA?AUVector2D@@ABU0@N@Z			; operator/
PUBLIC	?Vec2DNormalize@@YA?AUVector2D@@ABU1@@Z		; Vec2DNormalize
PUBLIC	?Vec2DDistance@@YANABUVector2D@@0@Z		; Vec2DDistance
PUBLIC	?Vec2DDistanceSq@@YANABUVector2D@@0@Z		; Vec2DDistanceSq
PUBLIC	?POINTStoVector@@YA?AUVector2D@@ABUtagPOINTS@@@Z ; POINTStoVector
PUBLIC	?isSecondInFOVOfFirst@@YA_NUVector2D@@00N@Z	; isSecondInFOVOfFirst
PUBLIC	?RedPen@Cgdi@@QAEXXZ				; Cgdi::RedPen
PUBLIC	?BluePen@Cgdi@@QAEXXZ				; Cgdi::BluePen
PUBLIC	?ThickRedPen@Cgdi@@QAEXXZ			; Cgdi::ThickRedPen
PUBLIC	?HollowBrush@Cgdi@@QAEXXZ			; Cgdi::HollowBrush
PUBLIC	?TextAtPos@Cgdi@@QAEXUVector2D@@ABV?$basic_string@DU?$char_traits@D@std@@V?$allocator@D@2@@std@@@Z ; Cgdi::TextAtPos
PUBLIC	?TextColor@Cgdi@@QAEXHHH@Z			; Cgdi::TextColor
PUBLIC	?Line@Cgdi@@QAEXNNNN@Z				; Cgdi::Line
PUBLIC	?Circle@Cgdi@@QAEXUVector2D@@N@Z		; Cgdi::Circle
PUBLIC	?deallocate@?$allocator@UVector2D@@@std@@QAEXQAUVector2D@@I@Z ; std::allocator<Vector2D>::deallocate
PUBLIC	??1?$_Vector_alloc@U?$_Vec_base_types@UVector2D@@V?$allocator@UVector2D@@@std@@@std@@@std@@QAE@XZ ; std::_Vector_alloc<std::_Vec_base_types<Vector2D,std::allocator<Vector2D> > >::~_Vector_alloc<std::_Vec_base_types<Vector2D,std::allocator<Vector2D> > >
PUBLIC	?_Free_proxy@?$_Vector_alloc@U?$_Vec_base_types@UVector2D@@V?$allocator@UVector2D@@@std@@@std@@@std@@QAEXXZ ; std::_Vector_alloc<std::_Vec_base_types<Vector2D,std::allocator<Vector2D> > >::_Free_proxy
PUBLIC	?_Myproxy@?$_Vector_alloc@U?$_Vec_base_types@UVector2D@@V?$allocator@UVector2D@@@std@@@std@@@std@@QAEAAPAU_Container_proxy@2@XZ ; std::_Vector_alloc<std::_Vec_base_types<Vector2D,std::allocator<Vector2D> > >::_Myproxy
PUBLIC	?_Orphan_all@?$_Vector_alloc@U?$_Vec_base_types@UVector2D@@V?$allocator@UVector2D@@@std@@@std@@@std@@QAEXXZ ; std::_Vector_alloc<std::_Vec_base_types<Vector2D,std::allocator<Vector2D> > >::_Orphan_all
PUBLIC	?_Getal@?$_Vector_alloc@U?$_Vec_base_types@UVector2D@@V?$allocator@UVector2D@@@std@@@std@@@std@@QAEAAV?$allocator@UVector2D@@@2@XZ ; std::_Vector_alloc<std::_Vec_base_types<Vector2D,std::allocator<Vector2D> > >::_Getal
PUBLIC	?_Get_data@?$_Vector_alloc@U?$_Vec_base_types@UVector2D@@V?$allocator@UVector2D@@@std@@@std@@@std@@QAEAAV?$_Vector_val@U?$_Simple_types@UVector2D@@@std@@@2@XZ ; std::_Vector_alloc<std::_Vec_base_types<Vector2D,std::allocator<Vector2D> > >::_Get_data
PUBLIC	?_Get_data@?$_Vector_alloc@U?$_Vec_base_types@UVector2D@@V?$allocator@UVector2D@@@std@@@std@@@std@@QBEABV?$_Vector_val@U?$_Simple_types@UVector2D@@@std@@@2@XZ ; std::_Vector_alloc<std::_Vec_base_types<Vector2D,std::allocator<Vector2D> > >::_Get_data
PUBLIC	?_Myfirst@?$_Vector_alloc@U?$_Vec_base_types@UVector2D@@V?$allocator@UVector2D@@@std@@@std@@@std@@QAEAAPAUVector2D@@XZ ; std::_Vector_alloc<std::_Vec_base_types<Vector2D,std::allocator<Vector2D> > >::_Myfirst
PUBLIC	?_Myfirst@?$_Vector_alloc@U?$_Vec_base_types@UVector2D@@V?$allocator@UVector2D@@@std@@@std@@@std@@QBEABQAUVector2D@@XZ ; std::_Vector_alloc<std::_Vec_base_types<Vector2D,std::allocator<Vector2D> > >::_Myfirst
PUBLIC	?_Mylast@?$_Vector_alloc@U?$_Vec_base_types@UVector2D@@V?$allocator@UVector2D@@@std@@@std@@@std@@QAEAAPAUVector2D@@XZ ; std::_Vector_alloc<std::_Vec_base_types<Vector2D,std::allocator<Vector2D> > >::_Mylast
PUBLIC	?_Mylast@?$_Vector_alloc@U?$_Vec_base_types@UVector2D@@V?$allocator@UVector2D@@@std@@@std@@@std@@QBEABQAUVector2D@@XZ ; std::_Vector_alloc<std::_Vec_base_types<Vector2D,std::allocator<Vector2D> > >::_Mylast
PUBLIC	?_Myend@?$_Vector_alloc@U?$_Vec_base_types@UVector2D@@V?$allocator@UVector2D@@@std@@@std@@@std@@QAEAAPAUVector2D@@XZ ; std::_Vector_alloc<std::_Vec_base_types<Vector2D,std::allocator<Vector2D> > >::_Myend
PUBLIC	?_Myend@?$_Vector_alloc@U?$_Vec_base_types@UVector2D@@V?$allocator@UVector2D@@@std@@@std@@@std@@QBEABQAUVector2D@@XZ ; std::_Vector_alloc<std::_Vec_base_types<Vector2D,std::allocator<Vector2D> > >::_Myend
PUBLIC	?_Get_first@?$_Compressed_pair@V?$allocator@UVector2D@@@std@@V?$_Vector_val@U?$_Simple_types@UVector2D@@@std@@@2@$00@std@@QAEAAV?$allocator@UVector2D@@@2@XZ ; std::_Compressed_pair<std::allocator<Vector2D>,std::_Vector_val<std::_Simple_types<Vector2D> >,1>::_Get_first
PUBLIC	?_Get_second@?$_Compressed_pair@V?$allocator@UVector2D@@@std@@V?$_Vector_val@U?$_Simple_types@UVector2D@@@std@@@2@$00@std@@QAEAAV?$_Vector_val@U?$_Simple_types@UVector2D@@@std@@@2@XZ ; std::_Compressed_pair<std::allocator<Vector2D>,std::_Vector_val<std::_Simple_types<Vector2D> >,1>::_Get_second
PUBLIC	?_Get_second@?$_Compressed_pair@V?$allocator@UVector2D@@@std@@V?$_Vector_val@U?$_Simple_types@UVector2D@@@std@@@2@$00@std@@QBEABV?$_Vector_val@U?$_Simple_types@UVector2D@@@std@@@2@XZ ; std::_Compressed_pair<std::allocator<Vector2D>,std::_Vector_val<std::_Simple_types<Vector2D> >,1>::_Get_second
PUBLIC	??1?$vector@UVector2D@@V?$allocator@UVector2D@@@std@@@std@@QAE@XZ ; std::vector<Vector2D,std::allocator<Vector2D> >::~vector<Vector2D,std::allocator<Vector2D> >
PUBLIC	?size@?$vector@UVector2D@@V?$allocator@UVector2D@@@std@@@std@@QBEIXZ ; std::vector<Vector2D,std::allocator<Vector2D> >::size
PUBLIC	?capacity@?$vector@UVector2D@@V?$allocator@UVector2D@@@std@@@std@@QBEIXZ ; std::vector<Vector2D,std::allocator<Vector2D> >::capacity
PUBLIC	??A?$vector@UVector2D@@V?$allocator@UVector2D@@@std@@@std@@QAEAAUVector2D@@I@Z ; std::vector<Vector2D,std::allocator<Vector2D> >::operator[]
PUBLIC	?_Destroy@?$vector@UVector2D@@V?$allocator@UVector2D@@@std@@@std@@AAEXPAUVector2D@@0@Z ; std::vector<Vector2D,std::allocator<Vector2D> >::_Destroy
PUBLIC	?_Tidy@?$vector@UVector2D@@V?$allocator@UVector2D@@@std@@@std@@AAEXXZ ; std::vector<Vector2D,std::allocator<Vector2D> >::_Tidy
PUBLIC	?From@Wall2D@@QBE?AUVector2D@@XZ		; Wall2D::From
PUBLIC	?To@Wall2D@@QBE?AUVector2D@@XZ			; Wall2D::To
PUBLIC	?DistToLineSegmentSq@@YANUVector2D@@00@Z	; DistToLineSegmentSq
PUBLIC	?LineIntersection2D@@YA_NUVector2D@@000@Z	; LineIntersection2D
PUBLIC	?LineSegmentCircleIntersection@@YA_NUVector2D@@00N@Z ; LineSegmentCircleIntersection
PUBLIC	?Pos@BaseGameEntity@@QBE?AUVector2D@@XZ		; BaseGameEntity::Pos
PUBLIC	?BRadius@BaseGameEntity@@QBENXZ			; BaseGameEntity::BRadius
PUBLIC	?ID@BaseGameEntity@@QBEHXZ			; BaseGameEntity::ID
PUBLIC	??0?$tuple@$$V@std@@QAE@XZ			; std::tuple<>::tuple<>
PUBLIC	??0?$tuple@$$V@std@@QAE@ABV01@@Z		; std::tuple<>::tuple<>
PUBLIC	?GetTarget@Raven_TargetingSystem@@QBEPAVRaven_Bot@@XZ ; Raven_TargetingSystem::GetTarget
PUBLIC	?Facing@Raven_Bot@@QBE?AUVector2D@@XZ		; Raven_Bot::Facing
PUBLIC	?FieldOfView@Raven_Bot@@QBENXZ			; Raven_Bot::FieldOfView
PUBLIC	?isPossessed@Raven_Bot@@QBE_NXZ			; Raven_Bot::isPossessed
PUBLIC	?isDead@Raven_Bot@@QBE_NXZ			; Raven_Bot::isDead
PUBLIC	?isAlive@Raven_Bot@@QBE_NXZ			; Raven_Bot::isAlive
PUBLIC	?isSpawning@Raven_Bot@@QBE_NXZ			; Raven_Bot::isSpawning
PUBLIC	?SetSpawning@Raven_Bot@@QAEXXZ			; Raven_Bot::SetSpawning
PUBLIC	?GetSteering@Raven_Bot@@QAEQAVRaven_Steering@@XZ ; Raven_Bot::GetSteering
PUBLIC	?GetBrain@Raven_Bot@@QAEQAVGoal_Think@@XZ	; Raven_Bot::GetBrain
PUBLIC	?GetTargetBot@Raven_Bot@@QBEQAV1@XZ		; Raven_Bot::GetTargetBot
PUBLIC	?GetWeaponSys@Raven_Bot@@QBEQAVRaven_WeaponSystem@@XZ ; Raven_Bot::GetWeaponSys
PUBLIC	?GetSensoryMem@Raven_Bot@@QBEQAVRaven_SensoryMemory@@XZ ; Raven_Bot::GetSensoryMem
PUBLIC	??0?$allocator@PAVRaven_Bot@@@std@@QAE@XZ	; std::allocator<Raven_Bot *>::allocator<Raven_Bot *>
PUBLIC	?deallocate@?$allocator@PAVRaven_Bot@@@std@@QAEXQAPAVRaven_Bot@@I@Z ; std::allocator<Raven_Bot *>::deallocate
PUBLIC	?allocate@?$allocator@PAVRaven_Bot@@@std@@QAEPAPAVRaven_Bot@@I@Z ; std::allocator<Raven_Bot *>::allocate
PUBLIC	?max_size@?$_Default_allocator_traits@V?$allocator@PAVRaven_Bot@@@std@@@std@@SAIABV?$allocator@PAVRaven_Bot@@@2@@Z ; std::_Default_allocator_traits<std::allocator<Raven_Bot *> >::max_size
PUBLIC	??0?$allocator@U?$_List_node@PAVRaven_Bot@@PAX@std@@@std@@QAE@XZ ; std::allocator<std::_List_node<Raven_Bot *,void *> >::allocator<std::_List_node<Raven_Bot *,void *> >
PUBLIC	?deallocate@?$allocator@U?$_List_node@PAVRaven_Bot@@PAX@std@@@std@@QAEXQAU?$_List_node@PAVRaven_Bot@@PAX@2@I@Z ; std::allocator<std::_List_node<Raven_Bot *,void *> >::deallocate
PUBLIC	?allocate@?$allocator@U?$_List_node@PAVRaven_Bot@@PAX@std@@@std@@QAEPAU?$_List_node@PAVRaven_Bot@@PAX@2@I@Z ; std::allocator<std::_List_node<Raven_Bot *,void *> >::allocate
PUBLIC	?deallocate@?$_Default_allocator_traits@V?$allocator@U?$_List_node@PAVRaven_Bot@@PAX@std@@@std@@@std@@SAXAAV?$allocator@U?$_List_node@PAVRaven_Bot@@PAX@std@@@2@QAU?$_List_node@PAVRaven_Bot@@PAX@2@I@Z ; std::_Default_allocator_traits<std::allocator<std::_List_node<Raven_Bot *,void *> > >::deallocate
PUBLIC	?max_size@?$_Default_allocator_traits@V?$allocator@U?$_List_node@PAVRaven_Bot@@PAX@std@@@std@@@std@@SAIABV?$allocator@U?$_List_node@PAVRaven_Bot@@PAX@std@@@2@@Z ; std::_Default_allocator_traits<std::allocator<std::_List_node<Raven_Bot *,void *> > >::max_size
PUBLIC	??0?$_List_alloc@U?$_List_base_types@PAVRaven_Bot@@V?$allocator@PAVRaven_Bot@@@std@@@std@@@std@@QAE@XZ ; std::_List_alloc<std::_List_base_types<Raven_Bot *,std::allocator<Raven_Bot *> > >::_List_alloc<std::_List_base_types<Raven_Bot *,std::allocator<Raven_Bot *> > >
PUBLIC	??1?$_List_alloc@U?$_List_base_types@PAVRaven_Bot@@V?$allocator@PAVRaven_Bot@@@std@@@std@@@std@@QAE@XZ ; std::_List_alloc<std::_List_base_types<Raven_Bot *,std::allocator<Raven_Bot *> > >::~_List_alloc<std::_List_base_types<Raven_Bot *,std::allocator<Raven_Bot *> > >
PUBLIC	?_Alloc_proxy@?$_List_alloc@U?$_List_base_types@PAVRaven_Bot@@V?$allocator@PAVRaven_Bot@@@std@@@std@@@std@@QAEXXZ ; std::_List_alloc<std::_List_base_types<Raven_Bot *,std::allocator<Raven_Bot *> > >::_Alloc_proxy
PUBLIC	?_Free_proxy@?$_List_alloc@U?$_List_base_types@PAVRaven_Bot@@V?$allocator@PAVRaven_Bot@@@std@@@std@@@std@@QAEXXZ ; std::_List_alloc<std::_List_base_types<Raven_Bot *,std::allocator<Raven_Bot *> > >::_Free_proxy
PUBLIC	?_Getpfirst@?$_List_alloc@U?$_List_base_types@PAVRaven_Bot@@V?$allocator@PAVRaven_Bot@@@std@@@std@@@std@@QBEPAPAU_Iterator_base12@2@XZ ; std::_List_alloc<std::_List_base_types<Raven_Bot *,std::allocator<Raven_Bot *> > >::_Getpfirst
PUBLIC	?_Myproxy@?$_List_alloc@U?$_List_base_types@PAVRaven_Bot@@V?$allocator@PAVRaven_Bot@@@std@@@std@@@std@@QAEAAPAU_Container_proxy@2@XZ ; std::_List_alloc<std::_List_base_types<Raven_Bot *,std::allocator<Raven_Bot *> > >::_Myproxy
PUBLIC	?_Buyheadnode@?$_List_alloc@U?$_List_base_types@PAVRaven_Bot@@V?$allocator@PAVRaven_Bot@@@std@@@std@@@std@@QAEPAU?$_List_node@PAVRaven_Bot@@PAX@2@XZ ; std::_List_alloc<std::_List_base_types<Raven_Bot *,std::allocator<Raven_Bot *> > >::_Buyheadnode
PUBLIC	?_Freeheadnode@?$_List_alloc@U?$_List_base_types@PAVRaven_Bot@@V?$allocator@PAVRaven_Bot@@@std@@@std@@@std@@QAEXPAU?$_List_node@PAVRaven_Bot@@PAX@2@@Z ; std::_List_alloc<std::_List_base_types<Raven_Bot *,std::allocator<Raven_Bot *> > >::_Freeheadnode
PUBLIC	?_Buynode0@?$_List_alloc@U?$_List_base_types@PAVRaven_Bot@@V?$allocator@PAVRaven_Bot@@@std@@@std@@@std@@QAEPAU?$_List_node@PAVRaven_Bot@@PAX@2@PAU32@0@Z ; std::_List_alloc<std::_List_base_types<Raven_Bot *,std::allocator<Raven_Bot *> > >::_Buynode0
PUBLIC	?_Orphan_all@?$_List_alloc@U?$_List_base_types@PAVRaven_Bot@@V?$allocator@PAVRaven_Bot@@@std@@@std@@@std@@QAEXXZ ; std::_List_alloc<std::_List_base_types<Raven_Bot *,std::allocator<Raven_Bot *> > >::_Orphan_all
PUBLIC	?_Getal@?$_List_alloc@U?$_List_base_types@PAVRaven_Bot@@V?$allocator@PAVRaven_Bot@@@std@@@std@@@std@@QAEAAV?$allocator@U?$_List_node@PAVRaven_Bot@@PAX@std@@@2@XZ ; std::_List_alloc<std::_List_base_types<Raven_Bot *,std::allocator<Raven_Bot *> > >::_Getal
PUBLIC	?_Getal@?$_List_alloc@U?$_List_base_types@PAVRaven_Bot@@V?$allocator@PAVRaven_Bot@@@std@@@std@@@std@@QBEABV?$allocator@U?$_List_node@PAVRaven_Bot@@PAX@std@@@2@XZ ; std::_List_alloc<std::_List_base_types<Raven_Bot *,std::allocator<Raven_Bot *> > >::_Getal
PUBLIC	?_Get_data@?$_List_alloc@U?$_List_base_types@PAVRaven_Bot@@V?$allocator@PAVRaven_Bot@@@std@@@std@@@std@@QAEAAV?$_List_val@U?$_List_simple_types@PAVRaven_Bot@@@std@@@2@XZ ; std::_List_alloc<std::_List_base_types<Raven_Bot *,std::allocator<Raven_Bot *> > >::_Get_data
PUBLIC	?_Get_data@?$_List_alloc@U?$_List_base_types@PAVRaven_Bot@@V?$allocator@PAVRaven_Bot@@@std@@@std@@@std@@QBEABV?$_List_val@U?$_List_simple_types@PAVRaven_Bot@@@std@@@2@XZ ; std::_List_alloc<std::_List_base_types<Raven_Bot *,std::allocator<Raven_Bot *> > >::_Get_data
PUBLIC	?_Myhead@?$_List_alloc@U?$_List_base_types@PAVRaven_Bot@@V?$allocator@PAVRaven_Bot@@@std@@@std@@@std@@QAEAAPAU?$_List_node@PAVRaven_Bot@@PAX@2@XZ ; std::_List_alloc<std::_List_base_types<Raven_Bot *,std::allocator<Raven_Bot *> > >::_Myhead
PUBLIC	?_Myhead@?$_List_alloc@U?$_List_base_types@PAVRaven_Bot@@V?$allocator@PAVRaven_Bot@@@std@@@std@@@std@@QBEABQAU?$_List_node@PAVRaven_Bot@@PAX@2@XZ ; std::_List_alloc<std::_List_base_types<Raven_Bot *,std::allocator<Raven_Bot *> > >::_Myhead
PUBLIC	?_Mysize@?$_List_alloc@U?$_List_base_types@PAVRaven_Bot@@V?$allocator@PAVRaven_Bot@@@std@@@std@@@std@@QAEAAIXZ ; std::_List_alloc<std::_List_base_types<Raven_Bot *,std::allocator<Raven_Bot *> > >::_Mysize
PUBLIC	?_Mysize@?$_List_alloc@U?$_List_base_types@PAVRaven_Bot@@V?$allocator@PAVRaven_Bot@@@std@@@std@@@std@@QBEABIXZ ; std::_List_alloc<std::_List_base_types<Raven_Bot *,std::allocator<Raven_Bot *> > >::_Mysize
PUBLIC	??0?$_List_val@U?$_List_simple_types@PAVRaven_Bot@@@std@@@std@@QAE@XZ ; std::_List_val<std::_List_simple_types<Raven_Bot *> >::_List_val<std::_List_simple_types<Raven_Bot *> >
PUBLIC	?_Get_first@?$_Compressed_pair@V?$allocator@U?$_List_node@PAVRaven_Bot@@PAX@std@@@std@@V?$_List_val@U?$_List_simple_types@PAVRaven_Bot@@@std@@@2@$00@std@@QAEAAV?$allocator@U?$_List_node@PAVRaven_Bot@@PAX@std@@@2@XZ ; std::_Compressed_pair<std::allocator<std::_List_node<Raven_Bot *,void *> >,std::_List_val<std::_List_simple_types<Raven_Bot *> >,1>::_Get_first
PUBLIC	?_Get_first@?$_Compressed_pair@V?$allocator@U?$_List_node@PAVRaven_Bot@@PAX@std@@@std@@V?$_List_val@U?$_List_simple_types@PAVRaven_Bot@@@std@@@2@$00@std@@QBEABV?$allocator@U?$_List_node@PAVRaven_Bot@@PAX@std@@@2@XZ ; std::_Compressed_pair<std::allocator<std::_List_node<Raven_Bot *,void *> >,std::_List_val<std::_List_simple_types<Raven_Bot *> >,1>::_Get_first
PUBLIC	?_Get_second@?$_Compressed_pair@V?$allocator@U?$_List_node@PAVRaven_Bot@@PAX@std@@@std@@V?$_List_val@U?$_List_simple_types@PAVRaven_Bot@@@std@@@2@$00@std@@QAEAAV?$_List_val@U?$_List_simple_types@PAVRaven_Bot@@@std@@@2@XZ ; std::_Compressed_pair<std::allocator<std::_List_node<Raven_Bot *,void *> >,std::_List_val<std::_List_simple_types<Raven_Bot *> >,1>::_Get_second
PUBLIC	?_Get_second@?$_Compressed_pair@V?$allocator@U?$_List_node@PAVRaven_Bot@@PAX@std@@@std@@V?$_List_val@U?$_List_simple_types@PAVRaven_Bot@@@std@@@2@$00@std@@QBEABV?$_List_val@U?$_List_simple_types@PAVRaven_Bot@@@std@@@2@XZ ; std::_Compressed_pair<std::allocator<std::_List_node<Raven_Bot *,void *> >,std::_List_val<std::_List_simple_types<Raven_Bot *> >,1>::_Get_second
PUBLIC	??0?$_List_buy@PAVRaven_Bot@@V?$allocator@PAVRaven_Bot@@@std@@@std@@QAE@XZ ; std::_List_buy<Raven_Bot *,std::allocator<Raven_Bot *> >::_List_buy<Raven_Bot *,std::allocator<Raven_Bot *> >
PUBLIC	?_Freenode@?$_List_buy@PAVRaven_Bot@@V?$allocator@PAVRaven_Bot@@@std@@@std@@QAEXPAU?$_List_node@PAVRaven_Bot@@PAX@2@@Z ; std::_List_buy<Raven_Bot *,std::allocator<Raven_Bot *> >::_Freenode
PUBLIC	??1?$_List_buy@PAVRaven_Bot@@V?$allocator@PAVRaven_Bot@@@std@@@std@@QAE@XZ ; std::_List_buy<Raven_Bot *,std::allocator<Raven_Bot *> >::~_List_buy<Raven_Bot *,std::allocator<Raven_Bot *> >
PUBLIC	??0?$list@PAVRaven_Bot@@V?$allocator@PAVRaven_Bot@@@std@@@std@@QAE@XZ ; std::list<Raven_Bot *,std::allocator<Raven_Bot *> >::list<Raven_Bot *,std::allocator<Raven_Bot *> >
PUBLIC	??1?$list@PAVRaven_Bot@@V?$allocator@PAVRaven_Bot@@@std@@@std@@QAE@XZ ; std::list<Raven_Bot *,std::allocator<Raven_Bot *> >::~list<Raven_Bot *,std::allocator<Raven_Bot *> >
PUBLIC	?begin@?$list@PAVRaven_Bot@@V?$allocator@PAVRaven_Bot@@@std@@@std@@QAE?AV?$_List_iterator@V?$_List_val@U?$_List_simple_types@PAVRaven_Bot@@@std@@@std@@@2@XZ ; std::list<Raven_Bot *,std::allocator<Raven_Bot *> >::begin
PUBLIC	?begin@?$list@PAVRaven_Bot@@V?$allocator@PAVRaven_Bot@@@std@@@std@@QBE?AV?$_List_const_iterator@V?$_List_val@U?$_List_simple_types@PAVRaven_Bot@@@std@@@std@@@2@XZ ; std::list<Raven_Bot *,std::allocator<Raven_Bot *> >::begin
PUBLIC	?end@?$list@PAVRaven_Bot@@V?$allocator@PAVRaven_Bot@@@std@@@std@@QAE?AV?$_List_iterator@V?$_List_val@U?$_List_simple_types@PAVRaven_Bot@@@std@@@std@@@2@XZ ; std::list<Raven_Bot *,std::allocator<Raven_Bot *> >::end
PUBLIC	?end@?$list@PAVRaven_Bot@@V?$allocator@PAVRaven_Bot@@@std@@@std@@QBE?AV?$_List_const_iterator@V?$_List_val@U?$_List_simple_types@PAVRaven_Bot@@@std@@@std@@@2@XZ ; std::list<Raven_Bot *,std::allocator<Raven_Bot *> >::end
PUBLIC	?_Unchecked_end@?$list@PAVRaven_Bot@@V?$allocator@PAVRaven_Bot@@@std@@@std@@QAE?AV?$_List_unchecked_iterator@V?$_List_val@U?$_List_simple_types@PAVRaven_Bot@@@std@@@std@@@2@XZ ; std::list<Raven_Bot *,std::allocator<Raven_Bot *> >::_Unchecked_end
PUBLIC	?_Make_iter@?$list@PAVRaven_Bot@@V?$allocator@PAVRaven_Bot@@@std@@@std@@QBE?AV?$_List_iterator@V?$_List_val@U?$_List_simple_types@PAVRaven_Bot@@@std@@@std@@@2@V?$_List_const_iterator@V?$_List_val@U?$_List_simple_types@PAVRaven_Bot@@@std@@@std@@@2@@Z ; std::list<Raven_Bot *,std::allocator<Raven_Bot *> >::_Make_iter
PUBLIC	?max_size@?$list@PAVRaven_Bot@@V?$allocator@PAVRaven_Bot@@@std@@@std@@QBEIXZ ; std::list<Raven_Bot *,std::allocator<Raven_Bot *> >::max_size
PUBLIC	?empty@?$list@PAVRaven_Bot@@V?$allocator@PAVRaven_Bot@@@std@@@std@@QBE_NXZ ; std::list<Raven_Bot *,std::allocator<Raven_Bot *> >::empty
PUBLIC	?back@?$list@PAVRaven_Bot@@V?$allocator@PAVRaven_Bot@@@std@@@std@@QAEAAPAVRaven_Bot@@XZ ; std::list<Raven_Bot *,std::allocator<Raven_Bot *> >::back
PUBLIC	?push_back@?$list@PAVRaven_Bot@@V?$allocator@PAVRaven_Bot@@@std@@@std@@QAEXABQAVRaven_Bot@@@Z ; std::list<Raven_Bot *,std::allocator<Raven_Bot *> >::push_back
PUBLIC	?pop_back@?$list@PAVRaven_Bot@@V?$allocator@PAVRaven_Bot@@@std@@@std@@QAEXXZ ; std::list<Raven_Bot *,std::allocator<Raven_Bot *> >::pop_back
PUBLIC	?_Unlinknode@?$list@PAVRaven_Bot@@V?$allocator@PAVRaven_Bot@@@std@@@std@@QAEPAU?$_List_node@PAVRaven_Bot@@PAX@2@V?$_List_const_iterator@V?$_List_val@U?$_List_simple_types@PAVRaven_Bot@@@std@@@std@@@2@@Z ; std::list<Raven_Bot *,std::allocator<Raven_Bot *> >::_Unlinknode
PUBLIC	?erase@?$list@PAVRaven_Bot@@V?$allocator@PAVRaven_Bot@@@std@@@std@@QAE?AV?$_List_iterator@V?$_List_val@U?$_List_simple_types@PAVRaven_Bot@@@std@@@std@@@2@V?$_List_const_iterator@V?$_List_val@U?$_List_simple_types@PAVRaven_Bot@@@std@@@std@@@2@@Z ; std::list<Raven_Bot *,std::allocator<Raven_Bot *> >::erase
PUBLIC	?clear@?$list@PAVRaven_Bot@@V?$allocator@PAVRaven_Bot@@@std@@@std@@QAEXXZ ; std::list<Raven_Bot *,std::allocator<Raven_Bot *> >::clear
PUBLIC	?_Tidy@?$list@PAVRaven_Bot@@V?$allocator@PAVRaven_Bot@@@std@@@std@@QAEXXZ ; std::list<Raven_Bot *,std::allocator<Raven_Bot *> >::_Tidy
PUBLIC	?_Incsize@?$list@PAVRaven_Bot@@V?$allocator@PAVRaven_Bot@@@std@@@std@@QAEXI@Z ; std::list<Raven_Bot *,std::allocator<Raven_Bot *> >::_Incsize
PUBLIC	?_Orphan_ptr@?$list@PAVRaven_Bot@@V?$allocator@PAVRaven_Bot@@@std@@@std@@QAEXPAU?$_List_node@PAVRaven_Bot@@PAX@2@@Z ; std::list<Raven_Bot *,std::allocator<Raven_Bot *> >::_Orphan_ptr
PUBLIC	??0?$allocator@PAVTeam@@@std@@QAE@XZ		; std::allocator<Team *>::allocator<Team *>
PUBLIC	?deallocate@?$allocator@PAVTeam@@@std@@QAEXQAPAVTeam@@I@Z ; std::allocator<Team *>::deallocate
PUBLIC	??0?$_Vector_alloc@U?$_Vec_base_types@PAVTeam@@V?$allocator@PAVTeam@@@std@@@std@@@std@@QAE@XZ ; std::_Vector_alloc<std::_Vec_base_types<Team *,std::allocator<Team *> > >::_Vector_alloc<std::_Vec_base_types<Team *,std::allocator<Team *> > >
PUBLIC	??1?$_Vector_alloc@U?$_Vec_base_types@PAVTeam@@V?$allocator@PAVTeam@@@std@@@std@@@std@@QAE@XZ ; std::_Vector_alloc<std::_Vec_base_types<Team *,std::allocator<Team *> > >::~_Vector_alloc<std::_Vec_base_types<Team *,std::allocator<Team *> > >
PUBLIC	?_Alloc_proxy@?$_Vector_alloc@U?$_Vec_base_types@PAVTeam@@V?$allocator@PAVTeam@@@std@@@std@@@std@@QAEXXZ ; std::_Vector_alloc<std::_Vec_base_types<Team *,std::allocator<Team *> > >::_Alloc_proxy
PUBLIC	?_Free_proxy@?$_Vector_alloc@U?$_Vec_base_types@PAVTeam@@V?$allocator@PAVTeam@@@std@@@std@@@std@@QAEXXZ ; std::_Vector_alloc<std::_Vec_base_types<Team *,std::allocator<Team *> > >::_Free_proxy
PUBLIC	?_Myproxy@?$_Vector_alloc@U?$_Vec_base_types@PAVTeam@@V?$allocator@PAVTeam@@@std@@@std@@@std@@QAEAAPAU_Container_proxy@2@XZ ; std::_Vector_alloc<std::_Vec_base_types<Team *,std::allocator<Team *> > >::_Myproxy
PUBLIC	?_Orphan_all@?$_Vector_alloc@U?$_Vec_base_types@PAVTeam@@V?$allocator@PAVTeam@@@std@@@std@@@std@@QAEXXZ ; std::_Vector_alloc<std::_Vec_base_types<Team *,std::allocator<Team *> > >::_Orphan_all
PUBLIC	?_Getal@?$_Vector_alloc@U?$_Vec_base_types@PAVTeam@@V?$allocator@PAVTeam@@@std@@@std@@@std@@QAEAAV?$allocator@PAVTeam@@@2@XZ ; std::_Vector_alloc<std::_Vec_base_types<Team *,std::allocator<Team *> > >::_Getal
PUBLIC	?_Get_data@?$_Vector_alloc@U?$_Vec_base_types@PAVTeam@@V?$allocator@PAVTeam@@@std@@@std@@@std@@QAEAAV?$_Vector_val@U?$_Simple_types@PAVTeam@@@std@@@2@XZ ; std::_Vector_alloc<std::_Vec_base_types<Team *,std::allocator<Team *> > >::_Get_data
PUBLIC	?_Get_data@?$_Vector_alloc@U?$_Vec_base_types@PAVTeam@@V?$allocator@PAVTeam@@@std@@@std@@@std@@QBEABV?$_Vector_val@U?$_Simple_types@PAVTeam@@@std@@@2@XZ ; std::_Vector_alloc<std::_Vec_base_types<Team *,std::allocator<Team *> > >::_Get_data
PUBLIC	?_Myfirst@?$_Vector_alloc@U?$_Vec_base_types@PAVTeam@@V?$allocator@PAVTeam@@@std@@@std@@@std@@QAEAAPAPAVTeam@@XZ ; std::_Vector_alloc<std::_Vec_base_types<Team *,std::allocator<Team *> > >::_Myfirst
PUBLIC	?_Myfirst@?$_Vector_alloc@U?$_Vec_base_types@PAVTeam@@V?$allocator@PAVTeam@@@std@@@std@@@std@@QBEABQAPAVTeam@@XZ ; std::_Vector_alloc<std::_Vec_base_types<Team *,std::allocator<Team *> > >::_Myfirst
PUBLIC	?_Mylast@?$_Vector_alloc@U?$_Vec_base_types@PAVTeam@@V?$allocator@PAVTeam@@@std@@@std@@@std@@QAEAAPAPAVTeam@@XZ ; std::_Vector_alloc<std::_Vec_base_types<Team *,std::allocator<Team *> > >::_Mylast
PUBLIC	?_Myend@?$_Vector_alloc@U?$_Vec_base_types@PAVTeam@@V?$allocator@PAVTeam@@@std@@@std@@@std@@QAEAAPAPAVTeam@@XZ ; std::_Vector_alloc<std::_Vec_base_types<Team *,std::allocator<Team *> > >::_Myend
PUBLIC	?_Myend@?$_Vector_alloc@U?$_Vec_base_types@PAVTeam@@V?$allocator@PAVTeam@@@std@@@std@@@std@@QBEABQAPAVTeam@@XZ ; std::_Vector_alloc<std::_Vec_base_types<Team *,std::allocator<Team *> > >::_Myend
PUBLIC	??0?$_Vector_val@U?$_Simple_types@PAVTeam@@@std@@@std@@QAE@XZ ; std::_Vector_val<std::_Simple_types<Team *> >::_Vector_val<std::_Simple_types<Team *> >
PUBLIC	?_Get_first@?$_Compressed_pair@V?$allocator@PAVTeam@@@std@@V?$_Vector_val@U?$_Simple_types@PAVTeam@@@std@@@2@$00@std@@QAEAAV?$allocator@PAVTeam@@@2@XZ ; std::_Compressed_pair<std::allocator<Team *>,std::_Vector_val<std::_Simple_types<Team *> >,1>::_Get_first
PUBLIC	?_Get_second@?$_Compressed_pair@V?$allocator@PAVTeam@@@std@@V?$_Vector_val@U?$_Simple_types@PAVTeam@@@std@@@2@$00@std@@QAEAAV?$_Vector_val@U?$_Simple_types@PAVTeam@@@std@@@2@XZ ; std::_Compressed_pair<std::allocator<Team *>,std::_Vector_val<std::_Simple_types<Team *> >,1>::_Get_second
PUBLIC	?_Get_second@?$_Compressed_pair@V?$allocator@PAVTeam@@@std@@V?$_Vector_val@U?$_Simple_types@PAVTeam@@@std@@@2@$00@std@@QBEABV?$_Vector_val@U?$_Simple_types@PAVTeam@@@std@@@2@XZ ; std::_Compressed_pair<std::allocator<Team *>,std::_Vector_val<std::_Simple_types<Team *> >,1>::_Get_second
PUBLIC	??0?$vector@PAVTeam@@V?$allocator@PAVTeam@@@std@@@std@@QAE@XZ ; std::vector<Team *,std::allocator<Team *> >::vector<Team *,std::allocator<Team *> >
PUBLIC	??1?$vector@PAVTeam@@V?$allocator@PAVTeam@@@std@@@std@@QAE@XZ ; std::vector<Team *,std::allocator<Team *> >::~vector<Team *,std::allocator<Team *> >
PUBLIC	?capacity@?$vector@PAVTeam@@V?$allocator@PAVTeam@@@std@@@std@@QBEIXZ ; std::vector<Team *,std::allocator<Team *> >::capacity
PUBLIC	?_Destroy@?$vector@PAVTeam@@V?$allocator@PAVTeam@@@std@@@std@@AAEXPAPAVTeam@@0@Z ; std::vector<Team *,std::allocator<Team *> >::_Destroy
PUBLIC	?_Tidy@?$vector@PAVTeam@@V?$allocator@PAVTeam@@@std@@@std@@AAEXXZ ; std::vector<Team *,std::allocator<Team *> >::_Tidy
PUBLIC	??0?$allocator@U?$_List_node@PAVRaven_Projectile@@PAX@std@@@std@@QAE@XZ ; std::allocator<std::_List_node<Raven_Projectile *,void *> >::allocator<std::_List_node<Raven_Projectile *,void *> >
PUBLIC	?deallocate@?$allocator@U?$_List_node@PAVRaven_Projectile@@PAX@std@@@std@@QAEXQAU?$_List_node@PAVRaven_Projectile@@PAX@2@I@Z ; std::allocator<std::_List_node<Raven_Projectile *,void *> >::deallocate
PUBLIC	?allocate@?$allocator@U?$_List_node@PAVRaven_Projectile@@PAX@std@@@std@@QAEPAU?$_List_node@PAVRaven_Projectile@@PAX@2@I@Z ; std::allocator<std::_List_node<Raven_Projectile *,void *> >::allocate
PUBLIC	?deallocate@?$_Default_allocator_traits@V?$allocator@U?$_List_node@PAVRaven_Projectile@@PAX@std@@@std@@@std@@SAXAAV?$allocator@U?$_List_node@PAVRaven_Projectile@@PAX@std@@@2@QAU?$_List_node@PAVRaven_Projectile@@PAX@2@I@Z ; std::_Default_allocator_traits<std::allocator<std::_List_node<Raven_Projectile *,void *> > >::deallocate
PUBLIC	?max_size@?$_Default_allocator_traits@V?$allocator@U?$_List_node@PAVRaven_Projectile@@PAX@std@@@std@@@std@@SAIABV?$allocator@U?$_List_node@PAVRaven_Projectile@@PAX@std@@@2@@Z ; std::_Default_allocator_traits<std::allocator<std::_List_node<Raven_Projectile *,void *> > >::max_size
PUBLIC	??0?$_List_alloc@U?$_List_base_types@PAVRaven_Projectile@@V?$allocator@PAVRaven_Projectile@@@std@@@std@@@std@@QAE@XZ ; std::_List_alloc<std::_List_base_types<Raven_Projectile *,std::allocator<Raven_Projectile *> > >::_List_alloc<std::_List_base_types<Raven_Projectile *,std::allocator<Raven_Projectile *> > >
PUBLIC	??1?$_List_alloc@U?$_List_base_types@PAVRaven_Projectile@@V?$allocator@PAVRaven_Projectile@@@std@@@std@@@std@@QAE@XZ ; std::_List_alloc<std::_List_base_types<Raven_Projectile *,std::allocator<Raven_Projectile *> > >::~_List_alloc<std::_List_base_types<Raven_Projectile *,std::allocator<Raven_Projectile *> > >
PUBLIC	?_Alloc_proxy@?$_List_alloc@U?$_List_base_types@PAVRaven_Projectile@@V?$allocator@PAVRaven_Projectile@@@std@@@std@@@std@@QAEXXZ ; std::_List_alloc<std::_List_base_types<Raven_Projectile *,std::allocator<Raven_Projectile *> > >::_Alloc_proxy
PUBLIC	?_Free_proxy@?$_List_alloc@U?$_List_base_types@PAVRaven_Projectile@@V?$allocator@PAVRaven_Projectile@@@std@@@std@@@std@@QAEXXZ ; std::_List_alloc<std::_List_base_types<Raven_Projectile *,std::allocator<Raven_Projectile *> > >::_Free_proxy
PUBLIC	?_Getpfirst@?$_List_alloc@U?$_List_base_types@PAVRaven_Projectile@@V?$allocator@PAVRaven_Projectile@@@std@@@std@@@std@@QBEPAPAU_Iterator_base12@2@XZ ; std::_List_alloc<std::_List_base_types<Raven_Projectile *,std::allocator<Raven_Projectile *> > >::_Getpfirst
PUBLIC	?_Myproxy@?$_List_alloc@U?$_List_base_types@PAVRaven_Projectile@@V?$allocator@PAVRaven_Projectile@@@std@@@std@@@std@@QAEAAPAU_Container_proxy@2@XZ ; std::_List_alloc<std::_List_base_types<Raven_Projectile *,std::allocator<Raven_Projectile *> > >::_Myproxy
PUBLIC	?_Buyheadnode@?$_List_alloc@U?$_List_base_types@PAVRaven_Projectile@@V?$allocator@PAVRaven_Projectile@@@std@@@std@@@std@@QAEPAU?$_List_node@PAVRaven_Projectile@@PAX@2@XZ ; std::_List_alloc<std::_List_base_types<Raven_Projectile *,std::allocator<Raven_Projectile *> > >::_Buyheadnode
PUBLIC	?_Freeheadnode@?$_List_alloc@U?$_List_base_types@PAVRaven_Projectile@@V?$allocator@PAVRaven_Projectile@@@std@@@std@@@std@@QAEXPAU?$_List_node@PAVRaven_Projectile@@PAX@2@@Z ; std::_List_alloc<std::_List_base_types<Raven_Projectile *,std::allocator<Raven_Projectile *> > >::_Freeheadnode
PUBLIC	?_Buynode0@?$_List_alloc@U?$_List_base_types@PAVRaven_Projectile@@V?$allocator@PAVRaven_Projectile@@@std@@@std@@@std@@QAEPAU?$_List_node@PAVRaven_Projectile@@PAX@2@PAU32@0@Z ; std::_List_alloc<std::_List_base_types<Raven_Projectile *,std::allocator<Raven_Projectile *> > >::_Buynode0
PUBLIC	?_Orphan_all@?$_List_alloc@U?$_List_base_types@PAVRaven_Projectile@@V?$allocator@PAVRaven_Projectile@@@std@@@std@@@std@@QAEXXZ ; std::_List_alloc<std::_List_base_types<Raven_Projectile *,std::allocator<Raven_Projectile *> > >::_Orphan_all
PUBLIC	?_Getal@?$_List_alloc@U?$_List_base_types@PAVRaven_Projectile@@V?$allocator@PAVRaven_Projectile@@@std@@@std@@@std@@QAEAAV?$allocator@U?$_List_node@PAVRaven_Projectile@@PAX@std@@@2@XZ ; std::_List_alloc<std::_List_base_types<Raven_Projectile *,std::allocator<Raven_Projectile *> > >::_Getal
PUBLIC	?_Getal@?$_List_alloc@U?$_List_base_types@PAVRaven_Projectile@@V?$allocator@PAVRaven_Projectile@@@std@@@std@@@std@@QBEABV?$allocator@U?$_List_node@PAVRaven_Projectile@@PAX@std@@@2@XZ ; std::_List_alloc<std::_List_base_types<Raven_Projectile *,std::allocator<Raven_Projectile *> > >::_Getal
PUBLIC	?_Get_data@?$_List_alloc@U?$_List_base_types@PAVRaven_Projectile@@V?$allocator@PAVRaven_Projectile@@@std@@@std@@@std@@QAEAAV?$_List_val@U?$_List_simple_types@PAVRaven_Projectile@@@std@@@2@XZ ; std::_List_alloc<std::_List_base_types<Raven_Projectile *,std::allocator<Raven_Projectile *> > >::_Get_data
PUBLIC	?_Get_data@?$_List_alloc@U?$_List_base_types@PAVRaven_Projectile@@V?$allocator@PAVRaven_Projectile@@@std@@@std@@@std@@QBEABV?$_List_val@U?$_List_simple_types@PAVRaven_Projectile@@@std@@@2@XZ ; std::_List_alloc<std::_List_base_types<Raven_Projectile *,std::allocator<Raven_Projectile *> > >::_Get_data
PUBLIC	?_Myhead@?$_List_alloc@U?$_List_base_types@PAVRaven_Projectile@@V?$allocator@PAVRaven_Projectile@@@std@@@std@@@std@@QAEAAPAU?$_List_node@PAVRaven_Projectile@@PAX@2@XZ ; std::_List_alloc<std::_List_base_types<Raven_Projectile *,std::allocator<Raven_Projectile *> > >::_Myhead
PUBLIC	?_Mysize@?$_List_alloc@U?$_List_base_types@PAVRaven_Projectile@@V?$allocator@PAVRaven_Projectile@@@std@@@std@@@std@@QAEAAIXZ ; std::_List_alloc<std::_List_base_types<Raven_Projectile *,std::allocator<Raven_Projectile *> > >::_Mysize
PUBLIC	??0?$_List_val@U?$_List_simple_types@PAVRaven_Projectile@@@std@@@std@@QAE@XZ ; std::_List_val<std::_List_simple_types<Raven_Projectile *> >::_List_val<std::_List_simple_types<Raven_Projectile *> >
PUBLIC	?_Get_first@?$_Compressed_pair@V?$allocator@U?$_List_node@PAVRaven_Projectile@@PAX@std@@@std@@V?$_List_val@U?$_List_simple_types@PAVRaven_Projectile@@@std@@@2@$00@std@@QAEAAV?$allocator@U?$_List_node@PAVRaven_Projectile@@PAX@std@@@2@XZ ; std::_Compressed_pair<std::allocator<std::_List_node<Raven_Projectile *,void *> >,std::_List_val<std::_List_simple_types<Raven_Projectile *> >,1>::_Get_first
PUBLIC	?_Get_first@?$_Compressed_pair@V?$allocator@U?$_List_node@PAVRaven_Projectile@@PAX@std@@@std@@V?$_List_val@U?$_List_simple_types@PAVRaven_Projectile@@@std@@@2@$00@std@@QBEABV?$allocator@U?$_List_node@PAVRaven_Projectile@@PAX@std@@@2@XZ ; std::_Compressed_pair<std::allocator<std::_List_node<Raven_Projectile *,void *> >,std::_List_val<std::_List_simple_types<Raven_Projectile *> >,1>::_Get_first
PUBLIC	?_Get_second@?$_Compressed_pair@V?$allocator@U?$_List_node@PAVRaven_Projectile@@PAX@std@@@std@@V?$_List_val@U?$_List_simple_types@PAVRaven_Projectile@@@std@@@2@$00@std@@QAEAAV?$_List_val@U?$_List_simple_types@PAVRaven_Projectile@@@std@@@2@XZ ; std::_Compressed_pair<std::allocator<std::_List_node<Raven_Projectile *,void *> >,std::_List_val<std::_List_simple_types<Raven_Projectile *> >,1>::_Get_second
PUBLIC	?_Get_second@?$_Compressed_pair@V?$allocator@U?$_List_node@PAVRaven_Projectile@@PAX@std@@@std@@V?$_List_val@U?$_List_simple_types@PAVRaven_Projectile@@@std@@@2@$00@std@@QBEABV?$_List_val@U?$_List_simple_types@PAVRaven_Projectile@@@std@@@2@XZ ; std::_Compressed_pair<std::allocator<std::_List_node<Raven_Projectile *,void *> >,std::_List_val<std::_List_simple_types<Raven_Projectile *> >,1>::_Get_second
PUBLIC	??0?$_List_buy@PAVRaven_Projectile@@V?$allocator@PAVRaven_Projectile@@@std@@@std@@QAE@XZ ; std::_List_buy<Raven_Projectile *,std::allocator<Raven_Projectile *> >::_List_buy<Raven_Projectile *,std::allocator<Raven_Projectile *> >
PUBLIC	?_Freenode@?$_List_buy@PAVRaven_Projectile@@V?$allocator@PAVRaven_Projectile@@@std@@@std@@QAEXPAU?$_List_node@PAVRaven_Projectile@@PAX@2@@Z ; std::_List_buy<Raven_Projectile *,std::allocator<Raven_Projectile *> >::_Freenode
PUBLIC	??1?$_List_buy@PAVRaven_Projectile@@V?$allocator@PAVRaven_Projectile@@@std@@@std@@QAE@XZ ; std::_List_buy<Raven_Projectile *,std::allocator<Raven_Projectile *> >::~_List_buy<Raven_Projectile *,std::allocator<Raven_Projectile *> >
PUBLIC	??0?$list@PAVRaven_Projectile@@V?$allocator@PAVRaven_Projectile@@@std@@@std@@QAE@XZ ; std::list<Raven_Projectile *,std::allocator<Raven_Projectile *> >::list<Raven_Projectile *,std::allocator<Raven_Projectile *> >
PUBLIC	??1?$list@PAVRaven_Projectile@@V?$allocator@PAVRaven_Projectile@@@std@@@std@@QAE@XZ ; std::list<Raven_Projectile *,std::allocator<Raven_Projectile *> >::~list<Raven_Projectile *,std::allocator<Raven_Projectile *> >
PUBLIC	?begin@?$list@PAVRaven_Projectile@@V?$allocator@PAVRaven_Projectile@@@std@@@std@@QAE?AV?$_List_iterator@V?$_List_val@U?$_List_simple_types@PAVRaven_Projectile@@@std@@@std@@@2@XZ ; std::list<Raven_Projectile *,std::allocator<Raven_Projectile *> >::begin
PUBLIC	?end@?$list@PAVRaven_Projectile@@V?$allocator@PAVRaven_Projectile@@@std@@@std@@QAE?AV?$_List_iterator@V?$_List_val@U?$_List_simple_types@PAVRaven_Projectile@@@std@@@std@@@2@XZ ; std::list<Raven_Projectile *,std::allocator<Raven_Projectile *> >::end
PUBLIC	?_Unchecked_end@?$list@PAVRaven_Projectile@@V?$allocator@PAVRaven_Projectile@@@std@@@std@@QAE?AV?$_List_unchecked_iterator@V?$_List_val@U?$_List_simple_types@PAVRaven_Projectile@@@std@@@std@@@2@XZ ; std::list<Raven_Projectile *,std::allocator<Raven_Projectile *> >::_Unchecked_end
PUBLIC	?_Make_iter@?$list@PAVRaven_Projectile@@V?$allocator@PAVRaven_Projectile@@@std@@@std@@QBE?AV?$_List_iterator@V?$_List_val@U?$_List_simple_types@PAVRaven_Projectile@@@std@@@std@@@2@V?$_List_const_iterator@V?$_List_val@U?$_List_simple_types@PAVRaven_Projectile@@@std@@@std@@@2@@Z ; std::list<Raven_Projectile *,std::allocator<Raven_Projectile *> >::_Make_iter
PUBLIC	?max_size@?$list@PAVRaven_Projectile@@V?$allocator@PAVRaven_Projectile@@@std@@@std@@QBEIXZ ; std::list<Raven_Projectile *,std::allocator<Raven_Projectile *> >::max_size
PUBLIC	?push_back@?$list@PAVRaven_Projectile@@V?$allocator@PAVRaven_Projectile@@@std@@@std@@QAEXABQAVRaven_Projectile@@@Z ; std::list<Raven_Projectile *,std::allocator<Raven_Projectile *> >::push_back
PUBLIC	?_Unlinknode@?$list@PAVRaven_Projectile@@V?$allocator@PAVRaven_Projectile@@@std@@@std@@QAEPAU?$_List_node@PAVRaven_Projectile@@PAX@2@V?$_List_const_iterator@V?$_List_val@U?$_List_simple_types@PAVRaven_Projectile@@@std@@@std@@@2@@Z ; std::list<Raven_Projectile *,std::allocator<Raven_Projectile *> >::_Unlinknode
PUBLIC	?erase@?$list@PAVRaven_Projectile@@V?$allocator@PAVRaven_Projectile@@@std@@@std@@QAE?AV?$_List_iterator@V?$_List_val@U?$_List_simple_types@PAVRaven_Projectile@@@std@@@std@@@2@V?$_List_const_iterator@V?$_List_val@U?$_List_simple_types@PAVRaven_Projectile@@@std@@@std@@@2@@Z ; std::list<Raven_Projectile *,std::allocator<Raven_Projectile *> >::erase
PUBLIC	?clear@?$list@PAVRaven_Projectile@@V?$allocator@PAVRaven_Projectile@@@std@@@std@@QAEXXZ ; std::list<Raven_Projectile *,std::allocator<Raven_Projectile *> >::clear
PUBLIC	?_Tidy@?$list@PAVRaven_Projectile@@V?$allocator@PAVRaven_Projectile@@@std@@@std@@QAEXXZ ; std::list<Raven_Projectile *,std::allocator<Raven_Projectile *> >::_Tidy
PUBLIC	?_Incsize@?$list@PAVRaven_Projectile@@V?$allocator@PAVRaven_Projectile@@@std@@@std@@QAEXI@Z ; std::list<Raven_Projectile *,std::allocator<Raven_Projectile *> >::_Incsize
PUBLIC	?_Orphan_ptr@?$list@PAVRaven_Projectile@@V?$allocator@PAVRaven_Projectile@@@std@@@std@@QAEXPAU?$_List_node@PAVRaven_Projectile@@PAX@2@@Z ; std::list<Raven_Projectile *,std::allocator<Raven_Projectile *> >::_Orphan_ptr
PUBLIC	?Clear@Raven_Game@@AAEXXZ			; Raven_Game::Clear
PUBLIC	?AttemptToAddBot@Raven_Game@@AAE_NPAVRaven_Bot@@@Z ; Raven_Game::AttemptToAddBot
PUBLIC	?NotifyAllBotsOfRemoval@Raven_Game@@ABEXPAVRaven_Bot@@@Z ; Raven_Game::NotifyAllBotsOfRemoval
PUBLIC	??0Raven_Game@@QAE@XZ				; Raven_Game::Raven_Game
PUBLIC	??1Raven_Game@@QAE@XZ				; Raven_Game::~Raven_Game
PUBLIC	?Render@Raven_Game@@QAEXXZ			; Raven_Game::Render
PUBLIC	?Update@Raven_Game@@QAEXXZ			; Raven_Game::Update
PUBLIC	?LoadMap@Raven_Game@@QAE_NABV?$basic_string@DU?$char_traits@D@std@@V?$allocator@D@2@@std@@@Z ; Raven_Game::LoadMap
PUBLIC	?AddBots@Raven_Game@@QAEXI@Z			; Raven_Game::AddBots
PUBLIC	?AddRocket@Raven_Game@@QAEXPAVRaven_Bot@@UVector2D@@@Z ; Raven_Game::AddRocket
PUBLIC	?AddRailGunSlug@Raven_Game@@QAEXPAVRaven_Bot@@UVector2D@@@Z ; Raven_Game::AddRailGunSlug
PUBLIC	?AddShotGunPellet@Raven_Game@@QAEXPAVRaven_Bot@@UVector2D@@@Z ; Raven_Game::AddShotGunPellet
PUBLIC	?AddBolt@Raven_Game@@QAEXPAVRaven_Bot@@UVector2D@@@Z ; Raven_Game::AddBolt
PUBLIC	?RemoveBot@Raven_Game@@QAEXXZ			; Raven_Game::RemoveBot
PUBLIC	?isPathObstructed@Raven_Game@@QBE_NUVector2D@@0N@Z ; Raven_Game::isPathObstructed
PUBLIC	?GetAllBotsInFOV@Raven_Game@@QBE?AV?$vector@PAVRaven_Bot@@V?$allocator@PAVRaven_Bot@@@std@@@std@@PBVRaven_Bot@@@Z ; Raven_Game::GetAllBotsInFOV
PUBLIC	?isSecondVisibleToFirst@Raven_Game@@QBE_NPBVRaven_Bot@@0@Z ; Raven_Game::isSecondVisibleToFirst
PUBLIC	?isLOSOkay@Raven_Game@@QBE_NUVector2D@@0@Z	; Raven_Game::isLOSOkay
PUBLIC	?GetPosOfClosestSwitch@Raven_Game@@QBE?AUVector2D@@U2@I@Z ; Raven_Game::GetPosOfClosestSwitch
PUBLIC	?GetBotAtPosition@Raven_Game@@QBEPAVRaven_Bot@@UVector2D@@@Z ; Raven_Game::GetBotAtPosition
PUBLIC	?ClickRightMouseButton@Raven_Game@@QAEXUtagPOINTS@@@Z ; Raven_Game::ClickRightMouseButton
PUBLIC	?ClickLeftMouseButton@Raven_Game@@QAEXUtagPOINTS@@@Z ; Raven_Game::ClickLeftMouseButton
PUBLIC	?ExorciseAnyPossessedBot@Raven_Game@@QAEXXZ	; Raven_Game::ExorciseAnyPossessedBot
PUBLIC	?GetPlayerInput@Raven_Game@@QBEXXZ		; Raven_Game::GetPlayerInput
PUBLIC	?PossessedBot@Raven_Game@@QBEPAVRaven_Bot@@XZ	; Raven_Game::PossessedBot
PUBLIC	?ChangeWeaponOfPossessedBot@Raven_Game@@QBEXI@Z	; Raven_Game::ChangeWeaponOfPossessedBot
PUBLIC	?SeparationOn@Raven_Steering@@QAEXXZ		; Raven_Steering::SeparationOn
PUBLIC	?WallAvoidanceOn@Raven_Steering@@QAEXXZ		; Raven_Steering::WallAvoidanceOn
PUBLIC	??$_Hash_array_representation@D@std@@YAIQBDI@Z	; std::_Hash_array_representation<char>
PUBLIC	??0?$allocator@I@std@@QAE@XZ			; std::allocator<unsigned int>::allocator<unsigned int>
PUBLIC	?deallocate@?$allocator@I@std@@QAEXQAII@Z	; std::allocator<unsigned int>::deallocate
PUBLIC	?allocate@?$allocator@I@std@@QAEPAII@Z		; std::allocator<unsigned int>::allocate
PUBLIC	?max_size@?$_Default_allocator_traits@V?$allocator@I@std@@@std@@SAIABV?$allocator@I@2@@Z ; std::_Default_allocator_traits<std::allocator<unsigned int> >::max_size
PUBLIC	?select_on_container_copy_construction@?$_Default_allocator_traits@V?$allocator@I@std@@@std@@SA?AV?$allocator@I@2@ABV32@@Z ; std::_Default_allocator_traits<std::allocator<unsigned int> >::select_on_container_copy_construction
PUBLIC	??0?$_Vector_alloc@U?$_Vec_base_types@IV?$allocator@I@std@@@std@@@std@@QAE@XZ ; std::_Vector_alloc<std::_Vec_base_types<unsigned int,std::allocator<unsigned int> > >::_Vector_alloc<std::_Vec_base_types<unsigned int,std::allocator<unsigned int> > >
PUBLIC	??1?$_Vector_alloc@U?$_Vec_base_types@IV?$allocator@I@std@@@std@@@std@@QAE@XZ ; std::_Vector_alloc<std::_Vec_base_types<unsigned int,std::allocator<unsigned int> > >::~_Vector_alloc<std::_Vec_base_types<unsigned int,std::allocator<unsigned int> > >
PUBLIC	?_Move_alloc@?$_Vector_alloc@U?$_Vec_base_types@IV?$allocator@I@std@@@std@@@std@@QAEXAAV?$allocator@I@2@@Z ; std::_Vector_alloc<std::_Vec_base_types<unsigned int,std::allocator<unsigned int> > >::_Move_alloc
PUBLIC	?_Alloc_proxy@?$_Vector_alloc@U?$_Vec_base_types@IV?$allocator@I@std@@@std@@@std@@QAEXXZ ; std::_Vector_alloc<std::_Vec_base_types<unsigned int,std::allocator<unsigned int> > >::_Alloc_proxy
PUBLIC	?_Free_proxy@?$_Vector_alloc@U?$_Vec_base_types@IV?$allocator@I@std@@@std@@@std@@QAEXXZ ; std::_Vector_alloc<std::_Vec_base_types<unsigned int,std::allocator<unsigned int> > >::_Free_proxy
PUBLIC	?_Myproxy@?$_Vector_alloc@U?$_Vec_base_types@IV?$allocator@I@std@@@std@@@std@@QAEAAPAU_Container_proxy@2@XZ ; std::_Vector_alloc<std::_Vec_base_types<unsigned int,std::allocator<unsigned int> > >::_Myproxy
PUBLIC	?_Orphan_all@?$_Vector_alloc@U?$_Vec_base_types@IV?$allocator@I@std@@@std@@@std@@QAEXXZ ; std::_Vector_alloc<std::_Vec_base_types<unsigned int,std::allocator<unsigned int> > >::_Orphan_all
PUBLIC	?_Swap_all@?$_Vector_alloc@U?$_Vec_base_types@IV?$allocator@I@std@@@std@@@std@@QAEXAAV12@@Z ; std::_Vector_alloc<std::_Vec_base_types<unsigned int,std::allocator<unsigned int> > >::_Swap_all
PUBLIC	?_Getal@?$_Vector_alloc@U?$_Vec_base_types@IV?$allocator@I@std@@@std@@@std@@QAEAAV?$allocator@I@2@XZ ; std::_Vector_alloc<std::_Vec_base_types<unsigned int,std::allocator<unsigned int> > >::_Getal
PUBLIC	?_Getal@?$_Vector_alloc@U?$_Vec_base_types@IV?$allocator@I@std@@@std@@@std@@QBEABV?$allocator@I@2@XZ ; std::_Vector_alloc<std::_Vec_base_types<unsigned int,std::allocator<unsigned int> > >::_Getal
PUBLIC	?_Get_data@?$_Vector_alloc@U?$_Vec_base_types@IV?$allocator@I@std@@@std@@@std@@QAEAAV?$_Vector_val@U?$_Simple_types@I@std@@@2@XZ ; std::_Vector_alloc<std::_Vec_base_types<unsigned int,std::allocator<unsigned int> > >::_Get_data
PUBLIC	?_Get_data@?$_Vector_alloc@U?$_Vec_base_types@IV?$allocator@I@std@@@std@@@std@@QBEABV?$_Vector_val@U?$_Simple_types@I@std@@@2@XZ ; std::_Vector_alloc<std::_Vec_base_types<unsigned int,std::allocator<unsigned int> > >::_Get_data
PUBLIC	?_Myfirst@?$_Vector_alloc@U?$_Vec_base_types@IV?$allocator@I@std@@@std@@@std@@QAEAAPAIXZ ; std::_Vector_alloc<std::_Vec_base_types<unsigned int,std::allocator<unsigned int> > >::_Myfirst
PUBLIC	?_Myfirst@?$_Vector_alloc@U?$_Vec_base_types@IV?$allocator@I@std@@@std@@@std@@QBEABQAIXZ ; std::_Vector_alloc<std::_Vec_base_types<unsigned int,std::allocator<unsigned int> > >::_Myfirst
PUBLIC	?_Mylast@?$_Vector_alloc@U?$_Vec_base_types@IV?$allocator@I@std@@@std@@@std@@QAEAAPAIXZ ; std::_Vector_alloc<std::_Vec_base_types<unsigned int,std::allocator<unsigned int> > >::_Mylast
PUBLIC	?_Mylast@?$_Vector_alloc@U?$_Vec_base_types@IV?$allocator@I@std@@@std@@@std@@QBEABQAIXZ ; std::_Vector_alloc<std::_Vec_base_types<unsigned int,std::allocator<unsigned int> > >::_Mylast
PUBLIC	?_Myend@?$_Vector_alloc@U?$_Vec_base_types@IV?$allocator@I@std@@@std@@@std@@QAEAAPAIXZ ; std::_Vector_alloc<std::_Vec_base_types<unsigned int,std::allocator<unsigned int> > >::_Myend
PUBLIC	?_Myend@?$_Vector_alloc@U?$_Vec_base_types@IV?$allocator@I@std@@@std@@@std@@QBEABQAIXZ ; std::_Vector_alloc<std::_Vec_base_types<unsigned int,std::allocator<unsigned int> > >::_Myend
PUBLIC	??0?$_Vector_val@U?$_Simple_types@I@std@@@std@@QAE@XZ ; std::_Vector_val<std::_Simple_types<unsigned int> >::_Vector_val<std::_Simple_types<unsigned int> >
PUBLIC	?_Get_first@?$_Compressed_pair@V?$allocator@I@std@@V?$_Vector_val@U?$_Simple_types@I@std@@@2@$00@std@@QAEAAV?$allocator@I@2@XZ ; std::_Compressed_pair<std::allocator<unsigned int>,std::_Vector_val<std::_Simple_types<unsigned int> >,1>::_Get_first
PUBLIC	?_Get_first@?$_Compressed_pair@V?$allocator@I@std@@V?$_Vector_val@U?$_Simple_types@I@std@@@2@$00@std@@QBEABV?$allocator@I@2@XZ ; std::_Compressed_pair<std::allocator<unsigned int>,std::_Vector_val<std::_Simple_types<unsigned int> >,1>::_Get_first
PUBLIC	?_Get_second@?$_Compressed_pair@V?$allocator@I@std@@V?$_Vector_val@U?$_Simple_types@I@std@@@2@$00@std@@QAEAAV?$_Vector_val@U?$_Simple_types@I@std@@@2@XZ ; std::_Compressed_pair<std::allocator<unsigned int>,std::_Vector_val<std::_Simple_types<unsigned int> >,1>::_Get_second
PUBLIC	?_Get_second@?$_Compressed_pair@V?$allocator@I@std@@V?$_Vector_val@U?$_Simple_types@I@std@@@2@$00@std@@QBEABV?$_Vector_val@U?$_Simple_types@I@std@@@2@XZ ; std::_Compressed_pair<std::allocator<unsigned int>,std::_Vector_val<std::_Simple_types<unsigned int> >,1>::_Get_second
PUBLIC	??0?$vector@IV?$allocator@I@std@@@std@@QAE@XZ	; std::vector<unsigned int,std::allocator<unsigned int> >::vector<unsigned int,std::allocator<unsigned int> >
PUBLIC	??0?$vector@IV?$allocator@I@std@@@std@@QAE@ABV01@@Z ; std::vector<unsigned int,std::allocator<unsigned int> >::vector<unsigned int,std::allocator<unsigned int> >
PUBLIC	?_Move_from@?$vector@IV?$allocator@I@std@@@std@@AAEX$$QAV12@U?$integral_constant@_N$00@2@@Z ; std::vector<unsigned int,std::allocator<unsigned int> >::_Move_from
PUBLIC	?_Move_assign_from@?$vector@IV?$allocator@I@std@@@std@@AAEX$$QAV12@U?$integral_constant@_N$00@2@@Z ; std::vector<unsigned int,std::allocator<unsigned int> >::_Move_assign_from
PUBLIC	??4?$vector@IV?$allocator@I@std@@@std@@QAEAAV01@$$QAV01@@Z ; std::vector<unsigned int,std::allocator<unsigned int> >::operator=
PUBLIC	??1?$vector@IV?$allocator@I@std@@@std@@QAE@XZ	; std::vector<unsigned int,std::allocator<unsigned int> >::~vector<unsigned int,std::allocator<unsigned int> >
PUBLIC	?begin@?$vector@IV?$allocator@I@std@@@std@@QAE?AV?$_Vector_iterator@V?$_Vector_val@U?$_Simple_types@I@std@@@std@@@2@XZ ; std::vector<unsigned int,std::allocator<unsigned int> >::begin
PUBLIC	?end@?$vector@IV?$allocator@I@std@@@std@@QAE?AV?$_Vector_iterator@V?$_Vector_val@U?$_Simple_types@I@std@@@std@@@2@XZ ; std::vector<unsigned int,std::allocator<unsigned int> >::end
PUBLIC	?size@?$vector@IV?$allocator@I@std@@@std@@QBEIXZ ; std::vector<unsigned int,std::allocator<unsigned int> >::size
PUBLIC	?max_size@?$vector@IV?$allocator@I@std@@@std@@QBEIXZ ; std::vector<unsigned int,std::allocator<unsigned int> >::max_size
PUBLIC	?capacity@?$vector@IV?$allocator@I@std@@@std@@QBEIXZ ; std::vector<unsigned int,std::allocator<unsigned int> >::capacity
PUBLIC	?_Destroy@?$vector@IV?$allocator@I@std@@@std@@AAEXPAI0@Z ; std::vector<unsigned int,std::allocator<unsigned int> >::_Destroy
PUBLIC	?_Buy@?$vector@IV?$allocator@I@std@@@std@@AAE_NI@Z ; std::vector<unsigned int,std::allocator<unsigned int> >::_Buy
PUBLIC	?_Tidy@?$vector@IV?$allocator@I@std@@@std@@AAEXXZ ; std::vector<unsigned int,std::allocator<unsigned int> >::_Tidy
PUBLIC	?_Xlength@?$vector@IV?$allocator@I@std@@@std@@CAXXZ ; std::vector<unsigned int,std::allocator<unsigned int> >::_Xlength
PUBLIC	??R?$_Uhash_compare@V?$basic_string@DU?$char_traits@D@std@@V?$allocator@D@2@@std@@U?$hash@V?$basic_string@DU?$char_traits@D@std@@V?$allocator@D@2@@std@@@2@U?$equal_to@V?$basic_string@DU?$char_traits@D@std@@V?$allocator@D@2@@std@@@2@@std@@QBEIABV?$basic_string@DU?$char_traits@D@std@@V?$allocator@D@2@@1@@Z ; std::_Uhash_compare<std::basic_string<char,std::char_traits<char>,std::allocator<char> >,std::hash<std::basic_string<char,std::char_traits<char>,std::allocator<char> > >,std::equal_to<std::basic_string<char,std::char_traits<char>,std::allocator<char> > > >::operator()
PUBLIC	??R?$_Uhash_compare@V?$basic_string@DU?$char_traits@D@std@@V?$allocator@D@2@@std@@U?$hash@V?$basic_string@DU?$char_traits@D@std@@V?$allocator@D@2@@std@@@2@U?$equal_to@V?$basic_string@DU?$char_traits@D@std@@V?$allocator@D@2@@std@@@2@@std@@QBE_NABV?$basic_string@DU?$char_traits@D@std@@V?$allocator@D@2@@1@0@Z ; std::_Uhash_compare<std::basic_string<char,std::char_traits<char>,std::allocator<char> >,std::hash<std::basic_string<char,std::char_traits<char>,std::allocator<char> > >,std::equal_to<std::basic_string<char,std::char_traits<char>,std::allocator<char> > > >::operator()
PUBLIC	?_Gethash@?$_Uhash_compare@V?$basic_string@DU?$char_traits@D@std@@V?$allocator@D@2@@std@@U?$hash@V?$basic_string@DU?$char_traits@D@std@@V?$allocator@D@2@@std@@@2@U?$equal_to@V?$basic_string@DU?$char_traits@D@std@@V?$allocator@D@2@@std@@@2@@std@@QBEABU?$hash@V?$basic_string@DU?$char_traits@D@std@@V?$allocator@D@2@@std@@@2@XZ ; std::_Uhash_compare<std::basic_string<char,std::char_traits<char>,std::allocator<char> >,std::hash<std::basic_string<char,std::char_traits<char>,std::allocator<char> > >,std::equal_to<std::basic_string<char,std::char_traits<char>,std::allocator<char> > > >::_Gethash
PUBLIC	?_Getkeyeq@?$_Uhash_compare@V?$basic_string@DU?$char_traits@D@std@@V?$allocator@D@2@@std@@U?$hash@V?$basic_string@DU?$char_traits@D@std@@V?$allocator@D@2@@std@@@2@U?$equal_to@V?$basic_string@DU?$char_traits@D@std@@V?$allocator@D@2@@std@@@2@@std@@QBEABU?$equal_to@V?$basic_string@DU?$char_traits@D@std@@V?$allocator@D@2@@std@@@2@XZ ; std::_Uhash_compare<std::basic_string<char,std::char_traits<char>,std::allocator<char> >,std::hash<std::basic_string<char,std::char_traits<char>,std::allocator<char> > >,std::equal_to<std::basic_string<char,std::char_traits<char>,std::allocator<char> > > >::_Getkeyeq
PUBLIC	?_Get_max_bucket_size@?$_Uhash_compare@V?$basic_string@DU?$char_traits@D@std@@V?$allocator@D@2@@std@@U?$hash@V?$basic_string@DU?$char_traits@D@std@@V?$allocator@D@2@@std@@@2@U?$equal_to@V?$basic_string@DU?$char_traits@D@std@@V?$allocator@D@2@@std@@@2@@std@@QBEABMXZ ; std::_Uhash_compare<std::basic_string<char,std::char_traits<char>,std::allocator<char> >,std::hash<std::basic_string<char,std::char_traits<char>,std::allocator<char> > >,std::equal_to<std::basic_string<char,std::char_traits<char>,std::allocator<char> > > >::_Get_max_bucket_size
PUBLIC	??R?$equal_to@V?$basic_string@DU?$char_traits@D@std@@V?$allocator@D@2@@std@@@std@@QBE_NABV?$basic_string@DU?$char_traits@D@std@@V?$allocator@D@2@@1@0@Z ; std::equal_to<std::basic_string<char,std::char_traits<char>,std::allocator<char> > >::operator()
PUBLIC	??R?$hash@V?$basic_string@DU?$char_traits@D@std@@V?$allocator@D@2@@std@@@std@@QBEIABV?$basic_string@DU?$char_traits@D@std@@V?$allocator@D@2@@1@@Z ; std::hash<std::basic_string<char,std::char_traits<char>,std::allocator<char> > >::operator()
PUBLIC	?_Get_first@?$_Compressed_pair@U?$equal_to@V?$basic_string@DU?$char_traits@D@std@@V?$allocator@D@2@@std@@@std@@M$00@std@@QBEABU?$equal_to@V?$basic_string@DU?$char_traits@D@std@@V?$allocator@D@2@@std@@@2@XZ ; std::_Compressed_pair<std::equal_to<std::basic_string<char,std::char_traits<char>,std::allocator<char> > >,float,1>::_Get_first
PUBLIC	?_Get_second@?$_Compressed_pair@U?$equal_to@V?$basic_string@DU?$char_traits@D@std@@V?$allocator@D@2@@std@@@std@@M$00@std@@QBEABMXZ ; std::_Compressed_pair<std::equal_to<std::basic_string<char,std::char_traits<char>,std::allocator<char> > >,float,1>::_Get_second
PUBLIC	?_Get_first@?$_Compressed_pair@U?$hash@V?$basic_string@DU?$char_traits@D@std@@V?$allocator@D@2@@std@@@std@@V?$_Compressed_pair@U?$equal_to@V?$basic_string@DU?$char_traits@D@std@@V?$allocator@D@2@@std@@@std@@M$00@2@$00@std@@QBEABU?$hash@V?$basic_string@DU?$char_traits@D@std@@V?$allocator@D@2@@std@@@2@XZ ; std::_Compressed_pair<std::hash<std::basic_string<char,std::char_traits<char>,std::allocator<char> > >,std::_Compressed_pair<std::equal_to<std::basic_string<char,std::char_traits<char>,std::allocator<char> > >,float,1>,1>::_Get_first
PUBLIC	?_Get_second@?$_Compressed_pair@U?$hash@V?$basic_string@DU?$char_traits@D@std@@V?$allocator@D@2@@std@@@std@@V?$_Compressed_pair@U?$equal_to@V?$basic_string@DU?$char_traits@D@std@@V?$allocator@D@2@@std@@@std@@M$00@2@$00@std@@QBEABV?$_Compressed_pair@U?$equal_to@V?$basic_string@DU?$char_traits@D@std@@V?$allocator@D@2@@std@@@std@@M$00@2@XZ ; std::_Compressed_pair<std::hash<std::basic_string<char,std::char_traits<char>,std::allocator<char> > >,std::_Compressed_pair<std::equal_to<std::basic_string<char,std::char_traits<char>,std::allocator<char> > >,float,1>,1>::_Get_second
PUBLIC	?deallocate@?$allocator@U?$_List_node@U?$pair@$$CBV?$basic_string@DU?$char_traits@D@std@@V?$allocator@D@2@@std@@V12@@std@@PAX@std@@@std@@QAEXQAU?$_List_node@U?$pair@$$CBV?$basic_string@DU?$char_traits@D@std@@V?$allocator@D@2@@std@@V12@@std@@PAX@2@I@Z ; std::allocator<std::_List_node<std::pair<std::basic_string<char,std::char_traits<char>,std::allocator<char> > const ,std::basic_string<char,std::char_traits<char>,std::allocator<char> > >,void *> >::deallocate
PUBLIC	?allocate@?$allocator@U?$_List_node@U?$pair@$$CBV?$basic_string@DU?$char_traits@D@std@@V?$allocator@D@2@@std@@V12@@std@@PAX@std@@@std@@QAEPAU?$_List_node@U?$pair@$$CBV?$basic_string@DU?$char_traits@D@std@@V?$allocator@D@2@@std@@V12@@std@@PAX@2@I@Z ; std::allocator<std::_List_node<std::pair<std::basic_string<char,std::char_traits<char>,std::allocator<char> > const ,std::basic_string<char,std::char_traits<char>,std::allocator<char> > >,void *> >::allocate
PUBLIC	?deallocate@?$_Default_allocator_traits@V?$allocator@U?$_List_node@U?$pair@$$CBV?$basic_string@DU?$char_traits@D@std@@V?$allocator@D@2@@std@@V12@@std@@PAX@std@@@std@@@std@@SAXAAV?$allocator@U?$_List_node@U?$pair@$$CBV?$basic_string@DU?$char_traits@D@std@@V?$allocator@D@2@@std@@V12@@std@@PAX@std@@@2@QAU?$_List_node@U?$pair@$$CBV?$basic_string@DU?$char_traits@D@std@@V?$allocator@D@2@@std@@V12@@std@@PAX@2@I@Z ; std::_Default_allocator_traits<std::allocator<std::_List_node<std::pair<std::basic_string<char,std::char_traits<char>,std::allocator<char> > const ,std::basic_string<char,std::char_traits<char>,std::allocator<char> > >,void *> > >::deallocate
PUBLIC	?max_size@?$_Default_allocator_traits@V?$allocator@U?$_List_node@U?$pair@$$CBV?$basic_string@DU?$char_traits@D@std@@V?$allocator@D@2@@std@@V12@@std@@PAX@std@@@std@@@std@@SAIABV?$allocator@U?$_List_node@U?$pair@$$CBV?$basic_string@DU?$char_traits@D@std@@V?$allocator@D@2@@std@@V12@@std@@PAX@std@@@2@@Z ; std::_Default_allocator_traits<std::allocator<std::_List_node<std::pair<std::basic_string<char,std::char_traits<char>,std::allocator<char> > const ,std::basic_string<char,std::char_traits<char>,std::allocator<char> > >,void *> > >::max_size
PUBLIC	?_Getpfirst@?$_List_alloc@U?$_List_base_types@U?$pair@$$CBV?$basic_string@DU?$char_traits@D@std@@V?$allocator@D@2@@std@@V12@@std@@V?$allocator@U?$pair@$$CBV?$basic_string@DU?$char_traits@D@std@@V?$allocator@D@2@@std@@V12@@std@@@2@@std@@@std@@QBEPAPAU_Iterator_base12@2@XZ ; std::_List_alloc<std::_List_base_types<std::pair<std::basic_string<char,std::char_traits<char>,std::allocator<char> > const ,std::basic_string<char,std::char_traits<char>,std::allocator<char> > >,std::allocator<std::pair<std::basic_string<char,std::char_traits<char>,std::allocator<char> > const ,std::basic_string<char,std::char_traits<char>,std::allocator<char> > > > > >::_Getpfirst
PUBLIC	?_Buynode0@?$_List_alloc@U?$_List_base_types@U?$pair@$$CBV?$basic_string@DU?$char_traits@D@std@@V?$allocator@D@2@@std@@V12@@std@@V?$allocator@U?$pair@$$CBV?$basic_string@DU?$char_traits@D@std@@V?$allocator@D@2@@std@@V12@@std@@@2@@std@@@std@@QAEPAU?$_List_node@U?$pair@$$CBV?$basic_string@DU?$char_traits@D@std@@V?$allocator@D@2@@std@@V12@@std@@PAX@2@PAU32@0@Z ; std::_List_alloc<std::_List_base_types<std::pair<std::basic_string<char,std::char_traits<char>,std::allocator<char> > const ,std::basic_string<char,std::char_traits<char>,std::allocator<char> > >,std::allocator<std::pair<std::basic_string<char,std::char_traits<char>,std::allocator<char> > const ,std::basic_string<char,std::char_traits<char>,std::allocator<char> > > > > >::_Buynode0
PUBLIC	?_Getal@?$_List_alloc@U?$_List_base_types@U?$pair@$$CBV?$basic_string@DU?$char_traits@D@std@@V?$allocator@D@2@@std@@V12@@std@@V?$allocator@U?$pair@$$CBV?$basic_string@DU?$char_traits@D@std@@V?$allocator@D@2@@std@@V12@@std@@@2@@std@@@std@@QAEAAV?$allocator@U?$_List_node@U?$pair@$$CBV?$basic_string@DU?$char_traits@D@std@@V?$allocator@D@2@@std@@V12@@std@@PAX@std@@@2@XZ ; std::_List_alloc<std::_List_base_types<std::pair<std::basic_string<char,std::char_traits<char>,std::allocator<char> > const ,std::basic_string<char,std::char_traits<char>,std::allocator<char> > >,std::allocator<std::pair<std::basic_string<char,std::char_traits<char>,std::allocator<char> > const ,std::basic_string<char,std::char_traits<char>,std::allocator<char> > > > > >::_Getal
PUBLIC	?_Getal@?$_List_alloc@U?$_List_base_types@U?$pair@$$CBV?$basic_string@DU?$char_traits@D@std@@V?$allocator@D@2@@std@@V12@@std@@V?$allocator@U?$pair@$$CBV?$basic_string@DU?$char_traits@D@std@@V?$allocator@D@2@@std@@V12@@std@@@2@@std@@@std@@QBEABV?$allocator@U?$_List_node@U?$pair@$$CBV?$basic_string@DU?$char_traits@D@std@@V?$allocator@D@2@@std@@V12@@std@@PAX@std@@@2@XZ ; std::_List_alloc<std::_List_base_types<std::pair<std::basic_string<char,std::char_traits<char>,std::allocator<char> > const ,std::basic_string<char,std::char_traits<char>,std::allocator<char> > >,std::allocator<std::pair<std::basic_string<char,std::char_traits<char>,std::allocator<char> > const ,std::basic_string<char,std::char_traits<char>,std::allocator<char> > > > > >::_Getal
PUBLIC	?_Get_data@?$_List_alloc@U?$_List_base_types@U?$pair@$$CBV?$basic_string@DU?$char_traits@D@std@@V?$allocator@D@2@@std@@V12@@std@@V?$allocator@U?$pair@$$CBV?$basic_string@DU?$char_traits@D@std@@V?$allocator@D@2@@std@@V12@@std@@@2@@std@@@std@@QAEAAV?$_List_val@U?$_List_simple_types@U?$pair@$$CBV?$basic_string@DU?$char_traits@D@std@@V?$allocator@D@2@@std@@V12@@std@@@std@@@2@XZ ; std::_List_alloc<std::_List_base_types<std::pair<std::basic_string<char,std::char_traits<char>,std::allocator<char> > const ,std::basic_string<char,std::char_traits<char>,std::allocator<char> > >,std::allocator<std::pair<std::basic_string<char,std::char_traits<char>,std::allocator<char> > const ,std::basic_string<char,std::char_traits<char>,std::allocator<char> > > > > >::_Get_data
PUBLIC	?_Get_data@?$_List_alloc@U?$_List_base_types@U?$pair@$$CBV?$basic_string@DU?$char_traits@D@std@@V?$allocator@D@2@@std@@V12@@std@@V?$allocator@U?$pair@$$CBV?$basic_string@DU?$char_traits@D@std@@V?$allocator@D@2@@std@@V12@@std@@@2@@std@@@std@@QBEABV?$_List_val@U?$_List_simple_types@U?$pair@$$CBV?$basic_string@DU?$char_traits@D@std@@V?$allocator@D@2@@std@@V12@@std@@@std@@@2@XZ ; std::_List_alloc<std::_List_base_types<std::pair<std::basic_string<char,std::char_traits<char>,std::allocator<char> > const ,std::basic_string<char,std::char_traits<char>,std::allocator<char> > >,std::allocator<std::pair<std::basic_string<char,std::char_traits<char>,std::allocator<char> > const ,std::basic_string<char,std::char_traits<char>,std::allocator<char> > > > > >::_Get_data
PUBLIC	?_Myhead@?$_List_alloc@U?$_List_base_types@U?$pair@$$CBV?$basic_string@DU?$char_traits@D@std@@V?$allocator@D@2@@std@@V12@@std@@V?$allocator@U?$pair@$$CBV?$basic_string@DU?$char_traits@D@std@@V?$allocator@D@2@@std@@V12@@std@@@2@@std@@@std@@QAEAAPAU?$_List_node@U?$pair@$$CBV?$basic_string@DU?$char_traits@D@std@@V?$allocator@D@2@@std@@V12@@std@@PAX@2@XZ ; std::_List_alloc<std::_List_base_types<std::pair<std::basic_string<char,std::char_traits<char>,std::allocator<char> > const ,std::basic_string<char,std::char_traits<char>,std::allocator<char> > >,std::allocator<std::pair<std::basic_string<char,std::char_traits<char>,std::allocator<char> > const ,std::basic_string<char,std::char_traits<char>,std::allocator<char> > > > > >::_Myhead
PUBLIC	?_Mysize@?$_List_alloc@U?$_List_base_types@U?$pair@$$CBV?$basic_string@DU?$char_traits@D@std@@V?$allocator@D@2@@std@@V12@@std@@V?$allocator@U?$pair@$$CBV?$basic_string@DU?$char_traits@D@std@@V?$allocator@D@2@@std@@V12@@std@@@2@@std@@@std@@QAEAAIXZ ; std::_List_alloc<std::_List_base_types<std::pair<std::basic_string<char,std::char_traits<char>,std::allocator<char> > const ,std::basic_string<char,std::char_traits<char>,std::allocator<char> > >,std::allocator<std::pair<std::basic_string<char,std::char_traits<char>,std::allocator<char> > const ,std::basic_string<char,std::char_traits<char>,std::allocator<char> > > > > >::_Mysize
PUBLIC	?_Mysize@?$_List_alloc@U?$_List_base_types@U?$pair@$$CBV?$basic_string@DU?$char_traits@D@std@@V?$allocator@D@2@@std@@V12@@std@@V?$allocator@U?$pair@$$CBV?$basic_string@DU?$char_traits@D@std@@V?$allocator@D@2@@std@@V12@@std@@@2@@std@@@std@@QBEABIXZ ; std::_List_alloc<std::_List_base_types<std::pair<std::basic_string<char,std::char_traits<char>,std::allocator<char> > const ,std::basic_string<char,std::char_traits<char>,std::allocator<char> > >,std::allocator<std::pair<std::basic_string<char,std::char_traits<char>,std::allocator<char> > const ,std::basic_string<char,std::char_traits<char>,std::allocator<char> > > > > >::_Mysize
PUBLIC	?_Get_first@?$_Compressed_pair@V?$allocator@U?$_List_node@U?$pair@$$CBV?$basic_string@DU?$char_traits@D@std@@V?$allocator@D@2@@std@@V12@@std@@PAX@std@@@std@@V?$_List_val@U?$_List_simple_types@U?$pair@$$CBV?$basic_string@DU?$char_traits@D@std@@V?$allocator@D@2@@std@@V12@@std@@@std@@@2@$00@std@@QAEAAV?$allocator@U?$_List_node@U?$pair@$$CBV?$basic_string@DU?$char_traits@D@std@@V?$allocator@D@2@@std@@V12@@std@@PAX@std@@@2@XZ ; std::_Compressed_pair<std::allocator<std::_List_node<std::pair<std::basic_string<char,std::char_traits<char>,std::allocator<char> > const ,std::basic_string<char,std::char_traits<char>,std::allocator<char> > >,void *> >,std::_List_val<std::_List_simple_types<std::pair<std::basic_string<char,std::char_traits<char>,std::allocator<char> > const ,std::basic_string<char,std::char_traits<char>,std::allocator<char> > > > >,1>::_Get_first
PUBLIC	?_Get_first@?$_Compressed_pair@V?$allocator@U?$_List_node@U?$pair@$$CBV?$basic_string@DU?$char_traits@D@std@@V?$allocator@D@2@@std@@V12@@std@@PAX@std@@@std@@V?$_List_val@U?$_List_simple_types@U?$pair@$$CBV?$basic_string@DU?$char_traits@D@std@@V?$allocator@D@2@@std@@V12@@std@@@std@@@2@$00@std@@QBEABV?$allocator@U?$_List_node@U?$pair@$$CBV?$basic_string@DU?$char_traits@D@std@@V?$allocator@D@2@@std@@V12@@std@@PAX@std@@@2@XZ ; std::_Compressed_pair<std::allocator<std::_List_node<std::pair<std::basic_string<char,std::char_traits<char>,std::allocator<char> > const ,std::basic_string<char,std::char_traits<char>,std::allocator<char> > >,void *> >,std::_List_val<std::_List_simple_types<std::pair<std::basic_string<char,std::char_traits<char>,std::allocator<char> > const ,std::basic_string<char,std::char_traits<char>,std::allocator<char> > > > >,1>::_Get_first
PUBLIC	?_Get_second@?$_Compressed_pair@V?$allocator@U?$_List_node@U?$pair@$$CBV?$basic_string@DU?$char_traits@D@std@@V?$allocator@D@2@@std@@V12@@std@@PAX@std@@@std@@V?$_List_val@U?$_List_simple_types@U?$pair@$$CBV?$basic_string@DU?$char_traits@D@std@@V?$allocator@D@2@@std@@V12@@std@@@std@@@2@$00@std@@QAEAAV?$_List_val@U?$_List_simple_types@U?$pair@$$CBV?$basic_string@DU?$char_traits@D@std@@V?$allocator@D@2@@std@@V12@@std@@@std@@@2@XZ ; std::_Compressed_pair<std::allocator<std::_List_node<std::pair<std::basic_string<char,std::char_traits<char>,std::allocator<char> > const ,std::basic_string<char,std::char_traits<char>,std::allocator<char> > >,void *> >,std::_List_val<std::_List_simple_types<std::pair<std::basic_string<char,std::char_traits<char>,std::allocator<char> > const ,std::basic_string<char,std::char_traits<char>,std::allocator<char> > > > >,1>::_Get_second
PUBLIC	?_Get_second@?$_Compressed_pair@V?$allocator@U?$_List_node@U?$pair@$$CBV?$basic_string@DU?$char_traits@D@std@@V?$allocator@D@2@@std@@V12@@std@@PAX@std@@@std@@V?$_List_val@U?$_List_simple_types@U?$pair@$$CBV?$basic_string@DU?$char_traits@D@std@@V?$allocator@D@2@@std@@V12@@std@@@std@@@2@$00@std@@QBEABV?$_List_val@U?$_List_simple_types@U?$pair@$$CBV?$basic_string@DU?$char_traits@D@std@@V?$allocator@D@2@@std@@V12@@std@@@std@@@2@XZ ; std::_Compressed_pair<std::allocator<std::_List_node<std::pair<std::basic_string<char,std::char_traits<char>,std::allocator<char> > const ,std::basic_string<char,std::char_traits<char>,std::allocator<char> > >,void *> >,std::_List_val<std::_List_simple_types<std::pair<std::basic_string<char,std::char_traits<char>,std::allocator<char> > const ,std::basic_string<char,std::char_traits<char>,std::allocator<char> > > > >,1>::_Get_second
PUBLIC	?_Freenode@?$_List_buy@U?$pair@$$CBV?$basic_string@DU?$char_traits@D@std@@V?$allocator@D@2@@std@@V12@@std@@V?$allocator@U?$pair@$$CBV?$basic_string@DU?$char_traits@D@std@@V?$allocator@D@2@@std@@V12@@std@@@2@@std@@QAEXPAU?$_List_node@U?$pair@$$CBV?$basic_string@DU?$char_traits@D@std@@V?$allocator@D@2@@std@@V12@@std@@PAX@2@@Z ; std::_List_buy<std::pair<std::basic_string<char,std::char_traits<char>,std::allocator<char> > const ,std::basic_string<char,std::char_traits<char>,std::allocator<char> > >,std::allocator<std::pair<std::basic_string<char,std::char_traits<char>,std::allocator<char> > const ,std::basic_string<char,std::char_traits<char>,std::allocator<char> > > > >::_Freenode
PUBLIC	?begin@?$list@U?$pair@$$CBV?$basic_string@DU?$char_traits@D@std@@V?$allocator@D@2@@std@@V12@@std@@V?$allocator@U?$pair@$$CBV?$basic_string@DU?$char_traits@D@std@@V?$allocator@D@2@@std@@V12@@std@@@2@@std@@QAE?AV?$_List_iterator@V?$_List_val@U?$_List_simple_types@U?$pair@$$CBV?$basic_string@DU?$char_traits@D@std@@V?$allocator@D@2@@std@@V12@@std@@@std@@@std@@@2@XZ ; std::list<std::pair<std::basic_string<char,std::char_traits<char>,std::allocator<char> > const ,std::basic_string<char,std::char_traits<char>,std::allocator<char> > >,std::allocator<std::pair<std::basic_string<char,std::char_traits<char>,std::allocator<char> > const ,std::basic_string<char,std::char_traits<char>,std::allocator<char> > > > >::begin
PUBLIC	?end@?$list@U?$pair@$$CBV?$basic_string@DU?$char_traits@D@std@@V?$allocator@D@2@@std@@V12@@std@@V?$allocator@U?$pair@$$CBV?$basic_string@DU?$char_traits@D@std@@V?$allocator@D@2@@std@@V12@@std@@@2@@std@@QAE?AV?$_List_iterator@V?$_List_val@U?$_List_simple_types@U?$pair@$$CBV?$basic_string@DU?$char_traits@D@std@@V?$allocator@D@2@@std@@V12@@std@@@std@@@std@@@2@XZ ; std::list<std::pair<std::basic_string<char,std::char_traits<char>,std::allocator<char> > const ,std::basic_string<char,std::char_traits<char>,std::allocator<char> > >,std::allocator<std::pair<std::basic_string<char,std::char_traits<char>,std::allocator<char> > const ,std::basic_string<char,std::char_traits<char>,std::allocator<char> > > > >::end
PUBLIC	?_Unchecked_begin@?$list@U?$pair@$$CBV?$basic_string@DU?$char_traits@D@std@@V?$allocator@D@2@@std@@V12@@std@@V?$allocator@U?$pair@$$CBV?$basic_string@DU?$char_traits@D@std@@V?$allocator@D@2@@std@@V12@@std@@@2@@std@@QAE?AV?$_List_unchecked_iterator@V?$_List_val@U?$_List_simple_types@U?$pair@$$CBV?$basic_string@DU?$char_traits@D@std@@V?$allocator@D@2@@std@@V12@@std@@@std@@@std@@@2@XZ ; std::list<std::pair<std::basic_string<char,std::char_traits<char>,std::allocator<char> > const ,std::basic_string<char,std::char_traits<char>,std::allocator<char> > >,std::allocator<std::pair<std::basic_string<char,std::char_traits<char>,std::allocator<char> > const ,std::basic_string<char,std::char_traits<char>,std::allocator<char> > > > >::_Unchecked_begin
PUBLIC	?_Unchecked_end@?$list@U?$pair@$$CBV?$basic_string@DU?$char_traits@D@std@@V?$allocator@D@2@@std@@V12@@std@@V?$allocator@U?$pair@$$CBV?$basic_string@DU?$char_traits@D@std@@V?$allocator@D@2@@std@@V12@@std@@@2@@std@@QAE?AV?$_List_unchecked_iterator@V?$_List_val@U?$_List_simple_types@U?$pair@$$CBV?$basic_string@DU?$char_traits@D@std@@V?$allocator@D@2@@std@@V12@@std@@@std@@@std@@@2@XZ ; std::list<std::pair<std::basic_string<char,std::char_traits<char>,std::allocator<char> > const ,std::basic_string<char,std::char_traits<char>,std::allocator<char> > >,std::allocator<std::pair<std::basic_string<char,std::char_traits<char>,std::allocator<char> > const ,std::basic_string<char,std::char_traits<char>,std::allocator<char> > > > >::_Unchecked_end
PUBLIC	?_Make_iter@?$list@U?$pair@$$CBV?$basic_string@DU?$char_traits@D@std@@V?$allocator@D@2@@std@@V12@@std@@V?$allocator@U?$pair@$$CBV?$basic_string@DU?$char_traits@D@std@@V?$allocator@D@2@@std@@V12@@std@@@2@@std@@QBE?AV?$_List_iterator@V?$_List_val@U?$_List_simple_types@U?$pair@$$CBV?$basic_string@DU?$char_traits@D@std@@V?$allocator@D@2@@std@@V12@@std@@@std@@@std@@@2@V?$_List_const_iterator@V?$_List_val@U?$_List_simple_types@U?$pair@$$CBV?$basic_string@DU?$char_traits@D@std@@V?$allocator@D@2@@std@@V12@@std@@@std@@@std@@@2@@Z ; std::list<std::pair<std::basic_string<char,std::char_traits<char>,std::allocator<char> > const ,std::basic_string<char,std::char_traits<char>,std::allocator<char> > >,std::allocator<std::pair<std::basic_string<char,std::char_traits<char>,std::allocator<char> > const ,std::basic_string<char,std::char_traits<char>,std::allocator<char> > > > >::_Make_iter
PUBLIC	?_Make_iter@?$list@U?$pair@$$CBV?$basic_string@DU?$char_traits@D@std@@V?$allocator@D@2@@std@@V12@@std@@V?$allocator@U?$pair@$$CBV?$basic_string@DU?$char_traits@D@std@@V?$allocator@D@2@@std@@V12@@std@@@2@@std@@QBE?AV?$_List_iterator@V?$_List_val@U?$_List_simple_types@U?$pair@$$CBV?$basic_string@DU?$char_traits@D@std@@V?$allocator@D@2@@std@@V12@@std@@@std@@@std@@@2@V?$_List_unchecked_const_iterator@V?$_List_val@U?$_List_simple_types@U?$pair@$$CBV?$basic_string@DU?$char_traits@D@std@@V?$allocator@D@2@@std@@V12@@std@@@std@@@std@@U_Iterator_base0@2@@2@@Z ; std::list<std::pair<std::basic_string<char,std::char_traits<char>,std::allocator<char> > const ,std::basic_string<char,std::char_traits<char>,std::allocator<char> > >,std::allocator<std::pair<std::basic_string<char,std::char_traits<char>,std::allocator<char> > const ,std::basic_string<char,std::char_traits<char>,std::allocator<char> > > > >::_Make_iter
PUBLIC	?size@?$list@U?$pair@$$CBV?$basic_string@DU?$char_traits@D@std@@V?$allocator@D@2@@std@@V12@@std@@V?$allocator@U?$pair@$$CBV?$basic_string@DU?$char_traits@D@std@@V?$allocator@D@2@@std@@V12@@std@@@2@@std@@QBEIXZ ; std::list<std::pair<std::basic_string<char,std::char_traits<char>,std::allocator<char> > const ,std::basic_string<char,std::char_traits<char>,std::allocator<char> > >,std::allocator<std::pair<std::basic_string<char,std::char_traits<char>,std::allocator<char> > const ,std::basic_string<char,std::char_traits<char>,std::allocator<char> > > > >::size
PUBLIC	?max_size@?$list@U?$pair@$$CBV?$basic_string@DU?$char_traits@D@std@@V?$allocator@D@2@@std@@V12@@std@@V?$allocator@U?$pair@$$CBV?$basic_string@DU?$char_traits@D@std@@V?$allocator@D@2@@std@@V12@@std@@@2@@std@@QBEIXZ ; std::list<std::pair<std::basic_string<char,std::char_traits<char>,std::allocator<char> > const ,std::basic_string<char,std::char_traits<char>,std::allocator<char> > >,std::allocator<std::pair<std::basic_string<char,std::char_traits<char>,std::allocator<char> > const ,std::basic_string<char,std::char_traits<char>,std::allocator<char> > > > >::max_size
PUBLIC	?front@?$list@U?$pair@$$CBV?$basic_string@DU?$char_traits@D@std@@V?$allocator@D@2@@std@@V12@@std@@V?$allocator@U?$pair@$$CBV?$basic_string@DU?$char_traits@D@std@@V?$allocator@D@2@@std@@V12@@std@@@2@@std@@QAEAAU?$pair@$$CBV?$basic_string@DU?$char_traits@D@std@@V?$allocator@D@2@@std@@V12@@2@XZ ; std::list<std::pair<std::basic_string<char,std::char_traits<char>,std::allocator<char> > const ,std::basic_string<char,std::char_traits<char>,std::allocator<char> > >,std::allocator<std::pair<std::basic_string<char,std::char_traits<char>,std::allocator<char> > const ,std::basic_string<char,std::char_traits<char>,std::allocator<char> > > > >::front
PUBLIC	?_Unlinknode@?$list@U?$pair@$$CBV?$basic_string@DU?$char_traits@D@std@@V?$allocator@D@2@@std@@V12@@std@@V?$allocator@U?$pair@$$CBV?$basic_string@DU?$char_traits@D@std@@V?$allocator@D@2@@std@@V12@@std@@@2@@std@@QAEPAU?$_List_node@U?$pair@$$CBV?$basic_string@DU?$char_traits@D@std@@V?$allocator@D@2@@std@@V12@@std@@PAX@2@V?$_List_const_iterator@V?$_List_val@U?$_List_simple_types@U?$pair@$$CBV?$basic_string@DU?$char_traits@D@std@@V?$allocator@D@2@@std@@V12@@std@@@std@@@std@@@2@@Z ; std::list<std::pair<std::basic_string<char,std::char_traits<char>,std::allocator<char> > const ,std::basic_string<char,std::char_traits<char>,std::allocator<char> > >,std::allocator<std::pair<std::basic_string<char,std::char_traits<char>,std::allocator<char> > const ,std::basic_string<char,std::char_traits<char>,std::allocator<char> > > > >::_Unlinknode
PUBLIC	?erase@?$list@U?$pair@$$CBV?$basic_string@DU?$char_traits@D@std@@V?$allocator@D@2@@std@@V12@@std@@V?$allocator@U?$pair@$$CBV?$basic_string@DU?$char_traits@D@std@@V?$allocator@D@2@@std@@V12@@std@@@2@@std@@QAE?AV?$_List_iterator@V?$_List_val@U?$_List_simple_types@U?$pair@$$CBV?$basic_string@DU?$char_traits@D@std@@V?$allocator@D@2@@std@@V12@@std@@@std@@@std@@@2@V?$_List_const_iterator@V?$_List_val@U?$_List_simple_types@U?$pair@$$CBV?$basic_string@DU?$char_traits@D@std@@V?$allocator@D@2@@std@@V12@@std@@@std@@@std@@@2@@Z ; std::list<std::pair<std::basic_string<char,std::char_traits<char>,std::allocator<char> > const ,std::basic_string<char,std::char_traits<char>,std::allocator<char> > >,std::allocator<std::pair<std::basic_string<char,std::char_traits<char>,std::allocator<char> > const ,std::basic_string<char,std::char_traits<char>,std::allocator<char> > > > >::erase
PUBLIC	?_Unchecked_splice@?$list@U?$pair@$$CBV?$basic_string@DU?$char_traits@D@std@@V?$allocator@D@2@@std@@V12@@std@@V?$allocator@U?$pair@$$CBV?$basic_string@DU?$char_traits@D@std@@V?$allocator@D@2@@std@@V12@@std@@@2@@std@@QAEXV?$_List_unchecked_const_iterator@V?$_List_val@U?$_List_simple_types@U?$pair@$$CBV?$basic_string@DU?$char_traits@D@std@@V?$allocator@D@2@@std@@V12@@std@@@std@@@std@@U_Iterator_base0@2@@2@00@Z ; std::list<std::pair<std::basic_string<char,std::char_traits<char>,std::allocator<char> > const ,std::basic_string<char,std::char_traits<char>,std::allocator<char> > >,std::allocator<std::pair<std::basic_string<char,std::char_traits<char>,std::allocator<char> > const ,std::basic_string<char,std::char_traits<char>,std::allocator<char> > > > >::_Unchecked_splice
PUBLIC	?_Incsize@?$list@U?$pair@$$CBV?$basic_string@DU?$char_traits@D@std@@V?$allocator@D@2@@std@@V12@@std@@V?$allocator@U?$pair@$$CBV?$basic_string@DU?$char_traits@D@std@@V?$allocator@D@2@@std@@V12@@std@@@2@@std@@QAEXI@Z ; std::list<std::pair<std::basic_string<char,std::char_traits<char>,std::allocator<char> > const ,std::basic_string<char,std::char_traits<char>,std::allocator<char> > >,std::allocator<std::pair<std::basic_string<char,std::char_traits<char>,std::allocator<char> > const ,std::basic_string<char,std::char_traits<char>,std::allocator<char> > > > >::_Incsize
PUBLIC	?_Orphan_ptr@?$list@U?$pair@$$CBV?$basic_string@DU?$char_traits@D@std@@V?$allocator@D@2@@std@@V12@@std@@V?$allocator@U?$pair@$$CBV?$basic_string@DU?$char_traits@D@std@@V?$allocator@D@2@@std@@V12@@std@@@2@@std@@QAEXPAU?$_List_node@U?$pair@$$CBV?$basic_string@DU?$char_traits@D@std@@V?$allocator@D@2@@std@@V12@@std@@PAX@2@@Z ; std::list<std::pair<std::basic_string<char,std::char_traits<char>,std::allocator<char> > const ,std::basic_string<char,std::char_traits<char>,std::allocator<char> > >,std::allocator<std::pair<std::basic_string<char,std::char_traits<char>,std::allocator<char> > const ,std::basic_string<char,std::char_traits<char>,std::allocator<char> > > > >::_Orphan_ptr
PUBLIC	?end@?$_Hash@V?$_Umap_traits@V?$basic_string@DU?$char_traits@D@std@@V?$allocator@D@2@@std@@V12@V?$_Uhash_compare@V?$basic_string@DU?$char_traits@D@std@@V?$allocator@D@2@@std@@U?$hash@V?$basic_string@DU?$char_traits@D@std@@V?$allocator@D@2@@std@@@2@U?$equal_to@V?$basic_string@DU?$char_traits@D@std@@V?$allocator@D@2@@std@@@2@@2@V?$allocator@U?$pair@$$CBV?$basic_string@DU?$char_traits@D@std@@V?$allocator@D@2@@std@@V12@@std@@@2@$0A@@std@@@std@@QAE?AV?$_List_iterator@V?$_List_val@U?$_List_simple_types@U?$pair@$$CBV?$basic_string@DU?$char_traits@D@std@@V?$allocator@D@2@@std@@V12@@std@@@std@@@std@@@2@XZ ; std::_Hash<std::_Umap_traits<std::basic_string<char,std::char_traits<char>,std::allocator<char> >,std::basic_string<char,std::char_traits<char>,std::allocator<char> >,std::_Uhash_compare<std::basic_string<char,std::char_traits<char>,std::allocator<char> >,std::hash<std::basic_string<char,std::char_traits<char>,std::allocator<char> > >,std::equal_to<std::basic_string<char,std::char_traits<char>,std::allocator<char> > > >,std::allocator<std::pair<std::basic_string<char,std::char_traits<char>,std::allocator<char> > const ,std::basic_string<char,std::char_traits<char>,std::allocator<char> > > >,0> >::end
PUBLIC	?_Unchecked_begin@?$_Hash@V?$_Umap_traits@V?$basic_string@DU?$char_traits@D@std@@V?$allocator@D@2@@std@@V12@V?$_Uhash_compare@V?$basic_string@DU?$char_traits@D@std@@V?$allocator@D@2@@std@@U?$hash@V?$basic_string@DU?$char_traits@D@std@@V?$allocator@D@2@@std@@@2@U?$equal_to@V?$basic_string@DU?$char_traits@D@std@@V?$allocator@D@2@@std@@@2@@2@V?$allocator@U?$pair@$$CBV?$basic_string@DU?$char_traits@D@std@@V?$allocator@D@2@@std@@V12@@std@@@2@$0A@@std@@@std@@QAE?AV?$_List_unchecked_iterator@V?$_List_val@U?$_List_simple_types@U?$pair@$$CBV?$basic_string@DU?$char_traits@D@std@@V?$allocator@D@2@@std@@V12@@std@@@std@@@std@@@2@XZ ; std::_Hash<std::_Umap_traits<std::basic_string<char,std::char_traits<char>,std::allocator<char> >,std::basic_string<char,std::char_traits<char>,std::allocator<char> >,std::_Uhash_compare<std::basic_string<char,std::char_traits<char>,std::allocator<char> >,std::hash<std::basic_string<char,std::char_traits<char>,std::allocator<char> > >,std::equal_to<std::basic_string<char,std::char_traits<char>,std::allocator<char> > > >,std::allocator<std::pair<std::basic_string<char,std::char_traits<char>,std::allocator<char> > const ,std::basic_string<char,std::char_traits<char>,std::allocator<char> > > >,0> >::_Unchecked_begin
PUBLIC	?_Unchecked_end@?$_Hash@V?$_Umap_traits@V?$basic_string@DU?$char_traits@D@std@@V?$allocator@D@2@@std@@V12@V?$_Uhash_compare@V?$basic_string@DU?$char_traits@D@std@@V?$allocator@D@2@@std@@U?$hash@V?$basic_string@DU?$char_traits@D@std@@V?$allocator@D@2@@std@@@2@U?$equal_to@V?$basic_string@DU?$char_traits@D@std@@V?$allocator@D@2@@std@@@2@@2@V?$allocator@U?$pair@$$CBV?$basic_string@DU?$char_traits@D@std@@V?$allocator@D@2@@std@@V12@@std@@@2@$0A@@std@@@std@@QAE?AV?$_List_unchecked_iterator@V?$_List_val@U?$_List_simple_types@U?$pair@$$CBV?$basic_string@DU?$char_traits@D@std@@V?$allocator@D@2@@std@@V12@@std@@@std@@@std@@@2@XZ ; std::_Hash<std::_Umap_traits<std::basic_string<char,std::char_traits<char>,std::allocator<char> >,std::basic_string<char,std::char_traits<char>,std::allocator<char> >,std::_Uhash_compare<std::basic_string<char,std::char_traits<char>,std::allocator<char> >,std::hash<std::basic_string<char,std::char_traits<char>,std::allocator<char> > >,std::equal_to<std::basic_string<char,std::char_traits<char>,std::allocator<char> > > >,std::allocator<std::pair<std::basic_string<char,std::char_traits<char>,std::allocator<char> > const ,std::basic_string<char,std::char_traits<char>,std::allocator<char> > > >,0> >::_Unchecked_end
PUBLIC	?_Make_iter@?$_Hash@V?$_Umap_traits@V?$basic_string@DU?$char_traits@D@std@@V?$allocator@D@2@@std@@V12@V?$_Uhash_compare@V?$basic_string@DU?$char_traits@D@std@@V?$allocator@D@2@@std@@U?$hash@V?$basic_string@DU?$char_traits@D@std@@V?$allocator@D@2@@std@@@2@U?$equal_to@V?$basic_string@DU?$char_traits@D@std@@V?$allocator@D@2@@std@@@2@@2@V?$allocator@U?$pair@$$CBV?$basic_string@DU?$char_traits@D@std@@V?$allocator@D@2@@std@@V12@@std@@@2@$0A@@std@@@std@@QBE?AV?$_List_iterator@V?$_List_val@U?$_List_simple_types@U?$pair@$$CBV?$basic_string@DU?$char_traits@D@std@@V?$allocator@D@2@@std@@V12@@std@@@std@@@std@@@2@V?$_List_unchecked_const_iterator@V?$_List_val@U?$_List_simple_types@U?$pair@$$CBV?$basic_string@DU?$char_traits@D@std@@V?$allocator@D@2@@std@@V12@@std@@@std@@@std@@U_Iterator_base0@2@@2@@Z ; std::_Hash<std::_Umap_traits<std::basic_string<char,std::char_traits<char>,std::allocator<char> >,std::basic_string<char,std::char_traits<char>,std::allocator<char> >,std::_Uhash_compare<std::basic_string<char,std::char_traits<char>,std::allocator<char> >,std::hash<std::basic_string<char,std::char_traits<char>,std::allocator<char> > >,std::equal_to<std::basic_string<char,std::char_traits<char>,std::allocator<char> > > >,std::allocator<std::pair<std::basic_string<char,std::char_traits<char>,std::allocator<char> > const ,std::basic_string<char,std::char_traits<char>,std::allocator<char> > > >,0> >::_Make_iter
PUBLIC	?_Make_iter@?$_Hash@V?$_Umap_traits@V?$basic_string@DU?$char_traits@D@std@@V?$allocator@D@2@@std@@V12@V?$_Uhash_compare@V?$basic_string@DU?$char_traits@D@std@@V?$allocator@D@2@@std@@U?$hash@V?$basic_string@DU?$char_traits@D@std@@V?$allocator@D@2@@std@@@2@U?$equal_to@V?$basic_string@DU?$char_traits@D@std@@V?$allocator@D@2@@std@@@2@@2@V?$allocator@U?$pair@$$CBV?$basic_string@DU?$char_traits@D@std@@V?$allocator@D@2@@std@@V12@@std@@@2@$0A@@std@@@std@@QBE?AV?$_List_iterator@V?$_List_val@U?$_List_simple_types@U?$pair@$$CBV?$basic_string@DU?$char_traits@D@std@@V?$allocator@D@2@@std@@V12@@std@@@std@@@std@@@2@V?$_List_const_iterator@V?$_List_val@U?$_List_simple_types@U?$pair@$$CBV?$basic_string@DU?$char_traits@D@std@@V?$allocator@D@2@@std@@V12@@std@@@std@@@std@@@2@@Z ; std::_Hash<std::_Umap_traits<std::basic_string<char,std::char_traits<char>,std::allocator<char> >,std::basic_string<char,std::char_traits<char>,std::allocator<char> >,std::_Uhash_compare<std::basic_string<char,std::char_traits<char>,std::allocator<char> >,std::hash<std::basic_string<char,std::char_traits<char>,std::allocator<char> > >,std::equal_to<std::basic_string<char,std::char_traits<char>,std::allocator<char> > > >,std::allocator<std::pair<std::basic_string<char,std::char_traits<char>,std::allocator<char> > const ,std::basic_string<char,std::char_traits<char>,std::allocator<char> > > >,0> >::_Make_iter
PUBLIC	?size@?$_Hash@V?$_Umap_traits@V?$basic_string@DU?$char_traits@D@std@@V?$allocator@D@2@@std@@V12@V?$_Uhash_compare@V?$basic_string@DU?$char_traits@D@std@@V?$allocator@D@2@@std@@U?$hash@V?$basic_string@DU?$char_traits@D@std@@V?$allocator@D@2@@std@@@2@U?$equal_to@V?$basic_string@DU?$char_traits@D@std@@V?$allocator@D@2@@std@@@2@@2@V?$allocator@U?$pair@$$CBV?$basic_string@DU?$char_traits@D@std@@V?$allocator@D@2@@std@@V12@@std@@@2@$0A@@std@@@std@@QBEIXZ ; std::_Hash<std::_Umap_traits<std::basic_string<char,std::char_traits<char>,std::allocator<char> >,std::basic_string<char,std::char_traits<char>,std::allocator<char> >,std::_Uhash_compare<std::basic_string<char,std::char_traits<char>,std::allocator<char> >,std::hash<std::basic_string<char,std::char_traits<char>,std::allocator<char> > >,std::equal_to<std::basic_string<char,std::char_traits<char>,std::allocator<char> > > >,std::allocator<std::pair<std::basic_string<char,std::char_traits<char>,std::allocator<char> > const ,std::basic_string<char,std::char_traits<char>,std::allocator<char> > > >,0> >::size
PUBLIC	?bucket_count@?$_Hash@V?$_Umap_traits@V?$basic_string@DU?$char_traits@D@std@@V?$allocator@D@2@@std@@V12@V?$_Uhash_compare@V?$basic_string@DU?$char_traits@D@std@@V?$allocator@D@2@@std@@U?$hash@V?$basic_string@DU?$char_traits@D@std@@V?$allocator@D@2@@std@@@2@U?$equal_to@V?$basic_string@DU?$char_traits@D@std@@V?$allocator@D@2@@std@@@2@@2@V?$allocator@U?$pair@$$CBV?$basic_string@DU?$char_traits@D@std@@V?$allocator@D@2@@std@@V12@@std@@@2@$0A@@std@@@std@@QBEIXZ ; std::_Hash<std::_Umap_traits<std::basic_string<char,std::char_traits<char>,std::allocator<char> >,std::basic_string<char,std::char_traits<char>,std::allocator<char> >,std::_Uhash_compare<std::basic_string<char,std::char_traits<char>,std::allocator<char> >,std::hash<std::basic_string<char,std::char_traits<char>,std::allocator<char> > >,std::equal_to<std::basic_string<char,std::char_traits<char>,std::allocator<char> > > >,std::allocator<std::pair<std::basic_string<char,std::char_traits<char>,std::allocator<char> > const ,std::basic_string<char,std::char_traits<char>,std::allocator<char> > > >,0> >::bucket_count
PUBLIC	?load_factor@?$_Hash@V?$_Umap_traits@V?$basic_string@DU?$char_traits@D@std@@V?$allocator@D@2@@std@@V12@V?$_Uhash_compare@V?$basic_string@DU?$char_traits@D@std@@V?$allocator@D@2@@std@@U?$hash@V?$basic_string@DU?$char_traits@D@std@@V?$allocator@D@2@@std@@@2@U?$equal_to@V?$basic_string@DU?$char_traits@D@std@@V?$allocator@D@2@@std@@@2@@2@V?$allocator@U?$pair@$$CBV?$basic_string@DU?$char_traits@D@std@@V?$allocator@D@2@@std@@V12@@std@@@2@$0A@@std@@@std@@QBEMXZ ; std::_Hash<std::_Umap_traits<std::basic_string<char,std::char_traits<char>,std::allocator<char> >,std::basic_string<char,std::char_traits<char>,std::allocator<char> >,std::_Uhash_compare<std::basic_string<char,std::char_traits<char>,std::allocator<char> >,std::hash<std::basic_string<char,std::char_traits<char>,std::allocator<char> > >,std::equal_to<std::basic_string<char,std::char_traits<char>,std::allocator<char> > > >,std::allocator<std::pair<std::basic_string<char,std::char_traits<char>,std::allocator<char> > const ,std::basic_string<char,std::char_traits<char>,std::allocator<char> > > >,0> >::load_factor
PUBLIC	?max_load_factor@?$_Hash@V?$_Umap_traits@V?$basic_string@DU?$char_traits@D@std@@V?$allocator@D@2@@std@@V12@V?$_Uhash_compare@V?$basic_string@DU?$char_traits@D@std@@V?$allocator@D@2@@std@@U?$hash@V?$basic_string@DU?$char_traits@D@std@@V?$allocator@D@2@@std@@@2@U?$equal_to@V?$basic_string@DU?$char_traits@D@std@@V?$allocator@D@2@@std@@@2@@2@V?$allocator@U?$pair@$$CBV?$basic_string@DU?$char_traits@D@std@@V?$allocator@D@2@@std@@V12@@std@@@2@$0A@@std@@@std@@QBEMXZ ; std::_Hash<std::_Umap_traits<std::basic_string<char,std::char_traits<char>,std::allocator<char> >,std::basic_string<char,std::char_traits<char>,std::allocator<char> >,std::_Uhash_compare<std::basic_string<char,std::char_traits<char>,std::allocator<char> >,std::hash<std::basic_string<char,std::char_traits<char>,std::allocator<char> > >,std::equal_to<std::basic_string<char,std::char_traits<char>,std::allocator<char> > > >,std::allocator<std::pair<std::basic_string<char,std::char_traits<char>,std::allocator<char> > const ,std::basic_string<char,std::char_traits<char>,std::allocator<char> > > >,0> >::max_load_factor
PUBLIC	?erase@?$_Hash@V?$_Umap_traits@V?$basic_string@DU?$char_traits@D@std@@V?$allocator@D@2@@std@@V12@V?$_Uhash_compare@V?$basic_string@DU?$char_traits@D@std@@V?$allocator@D@2@@std@@U?$hash@V?$basic_string@DU?$char_traits@D@std@@V?$allocator@D@2@@std@@@2@U?$equal_to@V?$basic_string@DU?$char_traits@D@std@@V?$allocator@D@2@@std@@@2@@2@V?$allocator@U?$pair@$$CBV?$basic_string@DU?$char_traits@D@std@@V?$allocator@D@2@@std@@V12@@std@@@2@$0A@@std@@@std@@QAE?AV?$_List_iterator@V?$_List_val@U?$_List_simple_types@U?$pair@$$CBV?$basic_string@DU?$char_traits@D@std@@V?$allocator@D@2@@std@@V12@@std@@@std@@@std@@@2@V?$_List_const_iterator@V?$_List_val@U?$_List_simple_types@U?$pair@$$CBV?$basic_string@DU?$char_traits@D@std@@V?$allocator@D@2@@std@@V12@@std@@@std@@@std@@@2@@Z ; std::_Hash<std::_Umap_traits<std::basic_string<char,std::char_traits<char>,std::allocator<char> >,std::basic_string<char,std::char_traits<char>,std::allocator<char> >,std::_Uhash_compare<std::basic_string<char,std::char_traits<char>,std::allocator<char> >,std::hash<std::basic_string<char,std::char_traits<char>,std::allocator<char> > >,std::equal_to<std::basic_string<char,std::char_traits<char>,std::allocator<char> > > >,std::allocator<std::pair<std::basic_string<char,std::char_traits<char>,std::allocator<char> > const ,std::basic_string<char,std::char_traits<char>,std::allocator<char> > > >,0> >::erase
PUBLIC	?find@?$_Hash@V?$_Umap_traits@V?$basic_string@DU?$char_traits@D@std@@V?$allocator@D@2@@std@@V12@V?$_Uhash_compare@V?$basic_string@DU?$char_traits@D@std@@V?$allocator@D@2@@std@@U?$hash@V?$basic_string@DU?$char_traits@D@std@@V?$allocator@D@2@@std@@@2@U?$equal_to@V?$basic_string@DU?$char_traits@D@std@@V?$allocator@D@2@@std@@@2@@2@V?$allocator@U?$pair@$$CBV?$basic_string@DU?$char_traits@D@std@@V?$allocator@D@2@@std@@V12@@std@@@2@$0A@@std@@@std@@QAE?AV?$_List_iterator@V?$_List_val@U?$_List_simple_types@U?$pair@$$CBV?$basic_string@DU?$char_traits@D@std@@V?$allocator@D@2@@std@@V12@@std@@@std@@@std@@@2@ABV?$basic_string@DU?$char_traits@D@std@@V?$allocator@D@2@@2@@Z ; std::_Hash<std::_Umap_traits<std::basic_string<char,std::char_traits<char>,std::allocator<char> >,std::basic_string<char,std::char_traits<char>,std::allocator<char> >,std::_Uhash_compare<std::basic_string<char,std::char_traits<char>,std::allocator<char> >,std::hash<std::basic_string<char,std::char_traits<char>,std::allocator<char> > >,std::equal_to<std::basic_string<char,std::char_traits<char>,std::allocator<char> > > >,std::allocator<std::pair<std::basic_string<char,std::char_traits<char>,std::allocator<char> > const ,std::basic_string<char,std::char_traits<char>,std::allocator<char> > > >,0> >::find
PUBLIC	?lower_bound@?$_Hash@V?$_Umap_traits@V?$basic_string@DU?$char_traits@D@std@@V?$allocator@D@2@@std@@V12@V?$_Uhash_compare@V?$basic_string@DU?$char_traits@D@std@@V?$allocator@D@2@@std@@U?$hash@V?$basic_string@DU?$char_traits@D@std@@V?$allocator@D@2@@std@@@2@U?$equal_to@V?$basic_string@DU?$char_traits@D@std@@V?$allocator@D@2@@std@@@2@@2@V?$allocator@U?$pair@$$CBV?$basic_string@DU?$char_traits@D@std@@V?$allocator@D@2@@std@@V12@@std@@@2@$0A@@std@@@std@@QAE?AV?$_List_iterator@V?$_List_val@U?$_List_simple_types@U?$pair@$$CBV?$basic_string@DU?$char_traits@D@std@@V?$allocator@D@2@@std@@V12@@std@@@std@@@std@@@2@ABV?$basic_string@DU?$char_traits@D@std@@V?$allocator@D@2@@2@@Z ; std::_Hash<std::_Umap_traits<std::basic_string<char,std::char_traits<char>,std::allocator<char> >,std::basic_string<char,std::char_traits<char>,std::allocator<char> >,std::_Uhash_compare<std::basic_string<char,std::char_traits<char>,std::allocator<char> >,std::hash<std::basic_string<char,std::char_traits<char>,std::allocator<char> > >,std::equal_to<std::basic_string<char,std::char_traits<char>,std::allocator<char> > > >,std::allocator<std::pair<std::basic_string<char,std::char_traits<char>,std::allocator<char> > const ,std::basic_string<char,std::char_traits<char>,std::allocator<char> > > >,0> >::lower_bound
PUBLIC	?_Destroy_if_node@?$_Hash@V?$_Umap_traits@V?$basic_string@DU?$char_traits@D@std@@V?$allocator@D@2@@std@@V12@V?$_Uhash_compare@V?$basic_string@DU?$char_traits@D@std@@V?$allocator@D@2@@std@@U?$hash@V?$basic_string@DU?$char_traits@D@std@@V?$allocator@D@2@@std@@@2@U?$equal_to@V?$basic_string@DU?$char_traits@D@std@@V?$allocator@D@2@@std@@@2@@2@V?$allocator@U?$pair@$$CBV?$basic_string@DU?$char_traits@D@std@@V?$allocator@D@2@@std@@V12@@std@@@2@$0A@@std@@@std@@IAEXV?$_List_unchecked_iterator@V?$_List_val@U?$_List_simple_types@U?$pair@$$CBV?$basic_string@DU?$char_traits@D@std@@V?$allocator@D@2@@std@@V12@@std@@@std@@@std@@@2@@Z ; std::_Hash<std::_Umap_traits<std::basic_string<char,std::char_traits<char>,std::allocator<char> >,std::basic_string<char,std::char_traits<char>,std::allocator<char> >,std::_Uhash_compare<std::basic_string<char,std::char_traits<char>,std::allocator<char> >,std::hash<std::basic_string<char,std::char_traits<char>,std::allocator<char> > >,std::equal_to<std::basic_string<char,std::char_traits<char>,std::allocator<char> > > >,std::allocator<std::pair<std::basic_string<char,std::char_traits<char>,std::allocator<char> > const ,std::basic_string<char,std::char_traits<char>,std::allocator<char> > > >,0> >::_Destroy_if_node
PUBLIC	?_Vec_lo@?$_Hash@V?$_Umap_traits@V?$basic_string@DU?$char_traits@D@std@@V?$allocator@D@2@@std@@V12@V?$_Uhash_compare@V?$basic_string@DU?$char_traits@D@std@@V?$allocator@D@2@@std@@U?$hash@V?$basic_string@DU?$char_traits@D@std@@V?$allocator@D@2@@std@@@2@U?$equal_to@V?$basic_string@DU?$char_traits@D@std@@V?$allocator@D@2@@std@@@2@@2@V?$allocator@U?$pair@$$CBV?$basic_string@DU?$char_traits@D@std@@V?$allocator@D@2@@std@@V12@@std@@@2@$0A@@std@@@std@@IAEAAV?$_List_unchecked_iterator@V?$_List_val@U?$_List_simple_types@U?$pair@$$CBV?$basic_string@DU?$char_traits@D@std@@V?$allocator@D@2@@std@@V12@@std@@@std@@@std@@@2@I@Z ; std::_Hash<std::_Umap_traits<std::basic_string<char,std::char_traits<char>,std::allocator<char> >,std::basic_string<char,std::char_traits<char>,std::allocator<char> >,std::_Uhash_compare<std::basic_string<char,std::char_traits<char>,std::allocator<char> >,std::hash<std::basic_string<char,std::char_traits<char>,std::allocator<char> > >,std::equal_to<std::basic_string<char,std::char_traits<char>,std::allocator<char> > > >,std::allocator<std::pair<std::basic_string<char,std::char_traits<char>,std::allocator<char> > const ,std::basic_string<char,std::char_traits<char>,std::allocator<char> > > >,0> >::_Vec_lo
PUBLIC	?_Vec_hi@?$_Hash@V?$_Umap_traits@V?$basic_string@DU?$char_traits@D@std@@V?$allocator@D@2@@std@@V12@V?$_Uhash_compare@V?$basic_string@DU?$char_traits@D@std@@V?$allocator@D@2@@std@@U?$hash@V?$basic_string@DU?$char_traits@D@std@@V?$allocator@D@2@@std@@@2@U?$equal_to@V?$basic_string@DU?$char_traits@D@std@@V?$allocator@D@2@@std@@@2@@2@V?$allocator@U?$pair@$$CBV?$basic_string@DU?$char_traits@D@std@@V?$allocator@D@2@@std@@V12@@std@@@2@$0A@@std@@@std@@IAEAAV?$_List_unchecked_iterator@V?$_List_val@U?$_List_simple_types@U?$pair@$$CBV?$basic_string@DU?$char_traits@D@std@@V?$allocator@D@2@@std@@V12@@std@@@std@@@std@@@2@I@Z ; std::_Hash<std::_Umap_traits<std::basic_string<char,std::char_traits<char>,std::allocator<char> >,std::basic_string<char,std::char_traits<char>,std::allocator<char> >,std::_Uhash_compare<std::basic_string<char,std::char_traits<char>,std::allocator<char> >,std::hash<std::basic_string<char,std::char_traits<char>,std::allocator<char> > >,std::equal_to<std::basic_string<char,std::char_traits<char>,std::allocator<char> > > >,std::allocator<std::pair<std::basic_string<char,std::char_traits<char>,std::allocator<char> > const ,std::basic_string<char,std::char_traits<char>,std::allocator<char> > > >,0> >::_Vec_hi
PUBLIC	?_Begin@?$_Hash@V?$_Umap_traits@V?$basic_string@DU?$char_traits@D@std@@V?$allocator@D@2@@std@@V12@V?$_Uhash_compare@V?$basic_string@DU?$char_traits@D@std@@V?$allocator@D@2@@std@@U?$hash@V?$basic_string@DU?$char_traits@D@std@@V?$allocator@D@2@@std@@@2@U?$equal_to@V?$basic_string@DU?$char_traits@D@std@@V?$allocator@D@2@@std@@@2@@2@V?$allocator@U?$pair@$$CBV?$basic_string@DU?$char_traits@D@std@@V?$allocator@D@2@@std@@V12@@std@@@2@$0A@@std@@@std@@IAE?AV?$_List_unchecked_iterator@V?$_List_val@U?$_List_simple_types@U?$pair@$$CBV?$basic_string@DU?$char_traits@D@std@@V?$allocator@D@2@@std@@V12@@std@@@std@@@std@@@2@I@Z ; std::_Hash<std::_Umap_traits<std::basic_string<char,std::char_traits<char>,std::allocator<char> >,std::basic_string<char,std::char_traits<char>,std::allocator<char> >,std::_Uhash_compare<std::basic_string<char,std::char_traits<char>,std::allocator<char> >,std::hash<std::basic_string<char,std::char_traits<char>,std::allocator<char> > >,std::equal_to<std::basic_string<char,std::char_traits<char>,std::allocator<char> > > >,std::allocator<std::pair<std::basic_string<char,std::char_traits<char>,std::allocator<char> > const ,std::basic_string<char,std::char_traits<char>,std::allocator<char> > > >,0> >::_Begin
PUBLIC	?_End@?$_Hash@V?$_Umap_traits@V?$basic_string@DU?$char_traits@D@std@@V?$allocator@D@2@@std@@V12@V?$_Uhash_compare@V?$basic_string@DU?$char_traits@D@std@@V?$allocator@D@2@@std@@U?$hash@V?$basic_string@DU?$char_traits@D@std@@V?$allocator@D@2@@std@@@2@U?$equal_to@V?$basic_string@DU?$char_traits@D@std@@V?$allocator@D@2@@std@@@2@@2@V?$allocator@U?$pair@$$CBV?$basic_string@DU?$char_traits@D@std@@V?$allocator@D@2@@std@@V12@@std@@@2@$0A@@std@@@std@@IAE?AV?$_List_unchecked_iterator@V?$_List_val@U?$_List_simple_types@U?$pair@$$CBV?$basic_string@DU?$char_traits@D@std@@V?$allocator@D@2@@std@@V12@@std@@@std@@@std@@@2@I@Z ; std::_Hash<std::_Umap_traits<std::basic_string<char,std::char_traits<char>,std::allocator<char> >,std::basic_string<char,std::char_traits<char>,std::allocator<char> >,std::_Uhash_compare<std::basic_string<char,std::char_traits<char>,std::allocator<char> >,std::hash<std::basic_string<char,std::char_traits<char>,std::allocator<char> > >,std::equal_to<std::basic_string<char,std::char_traits<char>,std::allocator<char> > > >,std::allocator<std::pair<std::basic_string<char,std::char_traits<char>,std::allocator<char> > const ,std::basic_string<char,std::char_traits<char>,std::allocator<char> > > >,0> >::_End
PUBLIC	?_Erase_bucket@?$_Hash@V?$_Umap_traits@V?$basic_string@DU?$char_traits@D@std@@V?$allocator@D@2@@std@@V12@V?$_Uhash_compare@V?$basic_string@DU?$char_traits@D@std@@V?$allocator@D@2@@std@@U?$hash@V?$basic_string@DU?$char_traits@D@std@@V?$allocator@D@2@@std@@@2@U?$equal_to@V?$basic_string@DU?$char_traits@D@std@@V?$allocator@D@2@@std@@@2@@2@V?$allocator@U?$pair@$$CBV?$basic_string@DU?$char_traits@D@std@@V?$allocator@D@2@@std@@V12@@std@@@2@$0A@@std@@@std@@IAEXV?$_List_iterator@V?$_List_val@U?$_List_simple_types@U?$pair@$$CBV?$basic_string@DU?$char_traits@D@std@@V?$allocator@D@2@@std@@V12@@std@@@std@@@std@@@2@I@Z ; std::_Hash<std::_Umap_traits<std::basic_string<char,std::char_traits<char>,std::allocator<char> >,std::basic_string<char,std::char_traits<char>,std::allocator<char> >,std::_Uhash_compare<std::basic_string<char,std::char_traits<char>,std::allocator<char> >,std::hash<std::basic_string<char,std::char_traits<char>,std::allocator<char> > >,std::equal_to<std::basic_string<char,std::char_traits<char>,std::allocator<char> > > >,std::allocator<std::pair<std::basic_string<char,std::char_traits<char>,std::allocator<char> > const ,std::basic_string<char,std::char_traits<char>,std::allocator<char> > > >,0> >::_Erase_bucket
PUBLIC	?_Insert_bucket@?$_Hash@V?$_Umap_traits@V?$basic_string@DU?$char_traits@D@std@@V?$allocator@D@2@@std@@V12@V?$_Uhash_compare@V?$basic_string@DU?$char_traits@D@std@@V?$allocator@D@2@@std@@U?$hash@V?$basic_string@DU?$char_traits@D@std@@V?$allocator@D@2@@std@@@2@U?$equal_to@V?$basic_string@DU?$char_traits@D@std@@V?$allocator@D@2@@std@@@2@@2@V?$allocator@U?$pair@$$CBV?$basic_string@DU?$char_traits@D@std@@V?$allocator@D@2@@std@@V12@@std@@@2@$0A@@std@@@std@@IAEXV?$_List_unchecked_iterator@V?$_List_val@U?$_List_simple_types@U?$pair@$$CBV?$basic_string@DU?$char_traits@D@std@@V?$allocator@D@2@@std@@V12@@std@@@std@@@std@@@2@0I@Z ; std::_Hash<std::_Umap_traits<std::basic_string<char,std::char_traits<char>,std::allocator<char> >,std::basic_string<char,std::char_traits<char>,std::allocator<char> >,std::_Uhash_compare<std::basic_string<char,std::char_traits<char>,std::allocator<char> >,std::hash<std::basic_string<char,std::char_traits<char>,std::allocator<char> > >,std::equal_to<std::basic_string<char,std::char_traits<char>,std::allocator<char> > > >,std::allocator<std::pair<std::basic_string<char,std::char_traits<char>,std::allocator<char> > const ,std::basic_string<char,std::char_traits<char>,std::allocator<char> > > >,0> >::_Insert_bucket
PUBLIC	?_Hashval@?$_Hash@V?$_Umap_traits@V?$basic_string@DU?$char_traits@D@std@@V?$allocator@D@2@@std@@V12@V?$_Uhash_compare@V?$basic_string@DU?$char_traits@D@std@@V?$allocator@D@2@@std@@U?$hash@V?$basic_string@DU?$char_traits@D@std@@V?$allocator@D@2@@std@@@2@U?$equal_to@V?$basic_string@DU?$char_traits@D@std@@V?$allocator@D@2@@std@@@2@@2@V?$allocator@U?$pair@$$CBV?$basic_string@DU?$char_traits@D@std@@V?$allocator@D@2@@std@@V12@@std@@@2@$0A@@std@@@std@@IBEIABV?$basic_string@DU?$char_traits@D@std@@V?$allocator@D@2@@2@@Z ; std::_Hash<std::_Umap_traits<std::basic_string<char,std::char_traits<char>,std::allocator<char> >,std::basic_string<char,std::char_traits<char>,std::allocator<char> >,std::_Uhash_compare<std::basic_string<char,std::char_traits<char>,std::allocator<char> >,std::hash<std::basic_string<char,std::char_traits<char>,std::allocator<char> > >,std::equal_to<std::basic_string<char,std::char_traits<char>,std::allocator<char> > > >,std::allocator<std::pair<std::basic_string<char,std::char_traits<char>,std::allocator<char> > const ,std::basic_string<char,std::char_traits<char>,std::allocator<char> > > >,0> >::_Hashval
PUBLIC	?_Init@?$_Hash@V?$_Umap_traits@V?$basic_string@DU?$char_traits@D@std@@V?$allocator@D@2@@std@@V12@V?$_Uhash_compare@V?$basic_string@DU?$char_traits@D@std@@V?$allocator@D@2@@std@@U?$hash@V?$basic_string@DU?$char_traits@D@std@@V?$allocator@D@2@@std@@@2@U?$equal_to@V?$basic_string@DU?$char_traits@D@std@@V?$allocator@D@2@@std@@@2@@2@V?$allocator@U?$pair@$$CBV?$basic_string@DU?$char_traits@D@std@@V?$allocator@D@2@@std@@V12@@std@@@2@$0A@@std@@@std@@IAEXI@Z ; std::_Hash<std::_Umap_traits<std::basic_string<char,std::char_traits<char>,std::allocator<char> >,std::basic_string<char,std::char_traits<char>,std::allocator<char> >,std::_Uhash_compare<std::basic_string<char,std::char_traits<char>,std::allocator<char> >,std::hash<std::basic_string<char,std::char_traits<char>,std::allocator<char> > >,std::equal_to<std::basic_string<char,std::char_traits<char>,std::allocator<char> > > >,std::allocator<std::pair<std::basic_string<char,std::char_traits<char>,std::allocator<char> > const ,std::basic_string<char,std::char_traits<char>,std::allocator<char> > > >,0> >::_Init
PUBLIC	?_Check_size@?$_Hash@V?$_Umap_traits@V?$basic_string@DU?$char_traits@D@std@@V?$allocator@D@2@@std@@V12@V?$_Uhash_compare@V?$basic_string@DU?$char_traits@D@std@@V?$allocator@D@2@@std@@U?$hash@V?$basic_string@DU?$char_traits@D@std@@V?$allocator@D@2@@std@@@2@U?$equal_to@V?$basic_string@DU?$char_traits@D@std@@V?$allocator@D@2@@std@@@2@@2@V?$allocator@U?$pair@$$CBV?$basic_string@DU?$char_traits@D@std@@V?$allocator@D@2@@std@@V12@@std@@@2@$0A@@std@@@std@@IAEXXZ ; std::_Hash<std::_Umap_traits<std::basic_string<char,std::char_traits<char>,std::allocator<char> >,std::basic_string<char,std::char_traits<char>,std::allocator<char> >,std::_Uhash_compare<std::basic_string<char,std::char_traits<char>,std::allocator<char> >,std::hash<std::basic_string<char,std::char_traits<char>,std::allocator<char> > >,std::equal_to<std::basic_string<char,std::char_traits<char>,std::allocator<char> > > >,std::allocator<std::pair<std::basic_string<char,std::char_traits<char>,std::allocator<char> > const ,std::basic_string<char,std::char_traits<char>,std::allocator<char> > > >,0> >::_Check_size
PUBLIC	?_Reinsert@?$_Hash@V?$_Umap_traits@V?$basic_string@DU?$char_traits@D@std@@V?$allocator@D@2@@std@@V12@V?$_Uhash_compare@V?$basic_string@DU?$char_traits@D@std@@V?$allocator@D@2@@std@@U?$hash@V?$basic_string@DU?$char_traits@D@std@@V?$allocator@D@2@@std@@@2@U?$equal_to@V?$basic_string@DU?$char_traits@D@std@@V?$allocator@D@2@@std@@@2@@2@V?$allocator@U?$pair@$$CBV?$basic_string@DU?$char_traits@D@std@@V?$allocator@D@2@@std@@V12@@std@@@2@$0A@@std@@@std@@IAEXXZ ; std::_Hash<std::_Umap_traits<std::basic_string<char,std::char_traits<char>,std::allocator<char> >,std::basic_string<char,std::char_traits<char>,std::allocator<char> >,std::_Uhash_compare<std::basic_string<char,std::char_traits<char>,std::allocator<char> >,std::hash<std::basic_string<char,std::char_traits<char>,std::allocator<char> > >,std::equal_to<std::basic_string<char,std::char_traits<char>,std::allocator<char> > > >,std::allocator<std::pair<std::basic_string<char,std::char_traits<char>,std::allocator<char> > const ,std::basic_string<char,std::char_traits<char>,std::allocator<char> > > >,0> >::_Reinsert
PUBLIC	?_Max_bucket_size@?$_Hash@V?$_Umap_traits@V?$basic_string@DU?$char_traits@D@std@@V?$allocator@D@2@@std@@V12@V?$_Uhash_compare@V?$basic_string@DU?$char_traits@D@std@@V?$allocator@D@2@@std@@U?$hash@V?$basic_string@DU?$char_traits@D@std@@V?$allocator@D@2@@std@@@2@U?$equal_to@V?$basic_string@DU?$char_traits@D@std@@V?$allocator@D@2@@std@@@2@@2@V?$allocator@U?$pair@$$CBV?$basic_string@DU?$char_traits@D@std@@V?$allocator@D@2@@std@@V12@@std@@@2@$0A@@std@@@std@@IBEABMXZ ; std::_Hash<std::_Umap_traits<std::basic_string<char,std::char_traits<char>,std::allocator<char> >,std::basic_string<char,std::char_traits<char>,std::allocator<char> >,std::_Uhash_compare<std::basic_string<char,std::char_traits<char>,std::allocator<char> >,std::hash<std::basic_string<char,std::char_traits<char>,std::allocator<char> > >,std::equal_to<std::basic_string<char,std::char_traits<char>,std::allocator<char> > > >,std::allocator<std::pair<std::basic_string<char,std::char_traits<char>,std::allocator<char> > const ,std::basic_string<char,std::char_traits<char>,std::allocator<char> > > >,0> >::_Max_bucket_size
PUBLIC	?deallocate@?$allocator@V?$_List_unchecked_iterator@V?$_List_val@U?$_List_simple_types@U?$pair@$$CBV?$basic_string@DU?$char_traits@D@std@@V?$allocator@D@2@@std@@V12@@std@@@std@@@std@@@std@@@std@@QAEXQAV?$_List_unchecked_iterator@V?$_List_val@U?$_List_simple_types@U?$pair@$$CBV?$basic_string@DU?$char_traits@D@std@@V?$allocator@D@2@@std@@V12@@std@@@std@@@std@@@2@I@Z ; std::allocator<std::_List_unchecked_iterator<std::_List_val<std::_List_simple_types<std::pair<std::basic_string<char,std::char_traits<char>,std::allocator<char> > const ,std::basic_string<char,std::char_traits<char>,std::allocator<char> > > > > > >::deallocate
PUBLIC	?allocate@?$allocator@V?$_List_unchecked_iterator@V?$_List_val@U?$_List_simple_types@U?$pair@$$CBV?$basic_string@DU?$char_traits@D@std@@V?$allocator@D@2@@std@@V12@@std@@@std@@@std@@@std@@@std@@QAEPAV?$_List_unchecked_iterator@V?$_List_val@U?$_List_simple_types@U?$pair@$$CBV?$basic_string@DU?$char_traits@D@std@@V?$allocator@D@2@@std@@V12@@std@@@std@@@std@@@2@I@Z ; std::allocator<std::_List_unchecked_iterator<std::_List_val<std::_List_simple_types<std::pair<std::basic_string<char,std::char_traits<char>,std::allocator<char> > const ,std::basic_string<char,std::char_traits<char>,std::allocator<char> > > > > > >::allocate
PUBLIC	?max_size@?$_Default_allocator_traits@V?$allocator@V?$_List_unchecked_iterator@V?$_List_val@U?$_List_simple_types@U?$pair@$$CBV?$basic_string@DU?$char_traits@D@std@@V?$allocator@D@2@@std@@V12@@std@@@std@@@std@@@std@@@std@@@std@@SAIABV?$allocator@V?$_List_unchecked_iterator@V?$_List_val@U?$_List_simple_types@U?$pair@$$CBV?$basic_string@DU?$char_traits@D@std@@V?$allocator@D@2@@std@@V12@@std@@@std@@@std@@@std@@@2@@Z ; std::_Default_allocator_traits<std::allocator<std::_List_unchecked_iterator<std::_List_val<std::_List_simple_types<std::pair<std::basic_string<char,std::char_traits<char>,std::allocator<char> > const ,std::basic_string<char,std::char_traits<char>,std::allocator<char> > > > > > > >::max_size
PUBLIC	?_Orphan_all@?$_Vector_alloc@U?$_Vec_base_types@V?$_List_unchecked_iterator@V?$_List_val@U?$_List_simple_types@U?$pair@$$CBV?$basic_string@DU?$char_traits@D@std@@V?$allocator@D@2@@std@@V12@@std@@@std@@@std@@@std@@V?$allocator@V?$_List_unchecked_iterator@V?$_List_val@U?$_List_simple_types@U?$pair@$$CBV?$basic_string@DU?$char_traits@D@std@@V?$allocator@D@2@@std@@V12@@std@@@std@@@std@@@std@@@2@@std@@@std@@QAEXXZ ; std::_Vector_alloc<std::_Vec_base_types<std::_List_unchecked_iterator<std::_List_val<std::_List_simple_types<std::pair<std::basic_string<char,std::char_traits<char>,std::allocator<char> > const ,std::basic_string<char,std::char_traits<char>,std::allocator<char> > > > > >,std::allocator<std::_List_unchecked_iterator<std::_List_val<std::_List_simple_types<std::pair<std::basic_string<char,std::char_traits<char>,std::allocator<char> > const ,std::basic_string<char,std::char_traits<char>,std::allocator<char> > > > > > > > >::_Orphan_all
PUBLIC	?_Getal@?$_Vector_alloc@U?$_Vec_base_types@V?$_List_unchecked_iterator@V?$_List_val@U?$_List_simple_types@U?$pair@$$CBV?$basic_string@DU?$char_traits@D@std@@V?$allocator@D@2@@std@@V12@@std@@@std@@@std@@@std@@V?$allocator@V?$_List_unchecked_iterator@V?$_List_val@U?$_List_simple_types@U?$pair@$$CBV?$basic_string@DU?$char_traits@D@std@@V?$allocator@D@2@@std@@V12@@std@@@std@@@std@@@std@@@2@@std@@@std@@QAEAAV?$allocator@V?$_List_unchecked_iterator@V?$_List_val@U?$_List_simple_types@U?$pair@$$CBV?$basic_string@DU?$char_traits@D@std@@V?$allocator@D@2@@std@@V12@@std@@@std@@@std@@@std@@@2@XZ ; std::_Vector_alloc<std::_Vec_base_types<std::_List_unchecked_iterator<std::_List_val<std::_List_simple_types<std::pair<std::basic_string<char,std::char_traits<char>,std::allocator<char> > const ,std::basic_string<char,std::char_traits<char>,std::allocator<char> > > > > >,std::allocator<std::_List_unchecked_iterator<std::_List_val<std::_List_simple_types<std::pair<std::basic_string<char,std::char_traits<char>,std::allocator<char> > const ,std::basic_string<char,std::char_traits<char>,std::allocator<char> > > > > > > > >::_Getal
PUBLIC	?_Getal@?$_Vector_alloc@U?$_Vec_base_types@V?$_List_unchecked_iterator@V?$_List_val@U?$_List_simple_types@U?$pair@$$CBV?$basic_string@DU?$char_traits@D@std@@V?$allocator@D@2@@std@@V12@@std@@@std@@@std@@@std@@V?$allocator@V?$_List_unchecked_iterator@V?$_List_val@U?$_List_simple_types@U?$pair@$$CBV?$basic_string@DU?$char_traits@D@std@@V?$allocator@D@2@@std@@V12@@std@@@std@@@std@@@std@@@2@@std@@@std@@QBEABV?$allocator@V?$_List_unchecked_iterator@V?$_List_val@U?$_List_simple_types@U?$pair@$$CBV?$basic_string@DU?$char_traits@D@std@@V?$allocator@D@2@@std@@V12@@std@@@std@@@std@@@std@@@2@XZ ; std::_Vector_alloc<std::_Vec_base_types<std::_List_unchecked_iterator<std::_List_val<std::_List_simple_types<std::pair<std::basic_string<char,std::char_traits<char>,std::allocator<char> > const ,std::basic_string<char,std::char_traits<char>,std::allocator<char> > > > > >,std::allocator<std::_List_unchecked_iterator<std::_List_val<std::_List_simple_types<std::pair<std::basic_string<char,std::char_traits<char>,std::allocator<char> > const ,std::basic_string<char,std::char_traits<char>,std::allocator<char> > > > > > > > >::_Getal
PUBLIC	?_Get_data@?$_Vector_alloc@U?$_Vec_base_types@V?$_List_unchecked_iterator@V?$_List_val@U?$_List_simple_types@U?$pair@$$CBV?$basic_string@DU?$char_traits@D@std@@V?$allocator@D@2@@std@@V12@@std@@@std@@@std@@@std@@V?$allocator@V?$_List_unchecked_iterator@V?$_List_val@U?$_List_simple_types@U?$pair@$$CBV?$basic_string@DU?$char_traits@D@std@@V?$allocator@D@2@@std@@V12@@std@@@std@@@std@@@std@@@2@@std@@@std@@QAEAAV?$_Vector_val@U?$_Simple_types@V?$_List_unchecked_iterator@V?$_List_val@U?$_List_simple_types@U?$pair@$$CBV?$basic_string@DU?$char_traits@D@std@@V?$allocator@D@2@@std@@V12@@std@@@std@@@std@@@std@@@std@@@2@XZ ; std::_Vector_alloc<std::_Vec_base_types<std::_List_unchecked_iterator<std::_List_val<std::_List_simple_types<std::pair<std::basic_string<char,std::char_traits<char>,std::allocator<char> > const ,std::basic_string<char,std::char_traits<char>,std::allocator<char> > > > > >,std::allocator<std::_List_unchecked_iterator<std::_List_val<std::_List_simple_types<std::pair<std::basic_string<char,std::char_traits<char>,std::allocator<char> > const ,std::basic_string<char,std::char_traits<char>,std::allocator<char> > > > > > > > >::_Get_data
PUBLIC	?_Get_data@?$_Vector_alloc@U?$_Vec_base_types@V?$_List_unchecked_iterator@V?$_List_val@U?$_List_simple_types@U?$pair@$$CBV?$basic_string@DU?$char_traits@D@std@@V?$allocator@D@2@@std@@V12@@std@@@std@@@std@@@std@@V?$allocator@V?$_List_unchecked_iterator@V?$_List_val@U?$_List_simple_types@U?$pair@$$CBV?$basic_string@DU?$char_traits@D@std@@V?$allocator@D@2@@std@@V12@@std@@@std@@@std@@@std@@@2@@std@@@std@@QBEABV?$_Vector_val@U?$_Simple_types@V?$_List_unchecked_iterator@V?$_List_val@U?$_List_simple_types@U?$pair@$$CBV?$basic_string@DU?$char_traits@D@std@@V?$allocator@D@2@@std@@V12@@std@@@std@@@std@@@std@@@std@@@2@XZ ; std::_Vector_alloc<std::_Vec_base_types<std::_List_unchecked_iterator<std::_List_val<std::_List_simple_types<std::pair<std::basic_string<char,std::char_traits<char>,std::allocator<char> > const ,std::basic_string<char,std::char_traits<char>,std::allocator<char> > > > > >,std::allocator<std::_List_unchecked_iterator<std::_List_val<std::_List_simple_types<std::pair<std::basic_string<char,std::char_traits<char>,std::allocator<char> > const ,std::basic_string<char,std::char_traits<char>,std::allocator<char> > > > > > > > >::_Get_data
PUBLIC	?_Myfirst@?$_Vector_alloc@U?$_Vec_base_types@V?$_List_unchecked_iterator@V?$_List_val@U?$_List_simple_types@U?$pair@$$CBV?$basic_string@DU?$char_traits@D@std@@V?$allocator@D@2@@std@@V12@@std@@@std@@@std@@@std@@V?$allocator@V?$_List_unchecked_iterator@V?$_List_val@U?$_List_simple_types@U?$pair@$$CBV?$basic_string@DU?$char_traits@D@std@@V?$allocator@D@2@@std@@V12@@std@@@std@@@std@@@std@@@2@@std@@@std@@QAEAAPAV?$_List_unchecked_iterator@V?$_List_val@U?$_List_simple_types@U?$pair@$$CBV?$basic_string@DU?$char_traits@D@std@@V?$allocator@D@2@@std@@V12@@std@@@std@@@std@@@2@XZ ; std::_Vector_alloc<std::_Vec_base_types<std::_List_unchecked_iterator<std::_List_val<std::_List_simple_types<std::pair<std::basic_string<char,std::char_traits<char>,std::allocator<char> > const ,std::basic_string<char,std::char_traits<char>,std::allocator<char> > > > > >,std::allocator<std::_List_unchecked_iterator<std::_List_val<std::_List_simple_types<std::pair<std::basic_string<char,std::char_traits<char>,std::allocator<char> > const ,std::basic_string<char,std::char_traits<char>,std::allocator<char> > > > > > > > >::_Myfirst
PUBLIC	?_Myfirst@?$_Vector_alloc@U?$_Vec_base_types@V?$_List_unchecked_iterator@V?$_List_val@U?$_List_simple_types@U?$pair@$$CBV?$basic_string@DU?$char_traits@D@std@@V?$allocator@D@2@@std@@V12@@std@@@std@@@std@@@std@@V?$allocator@V?$_List_unchecked_iterator@V?$_List_val@U?$_List_simple_types@U?$pair@$$CBV?$basic_string@DU?$char_traits@D@std@@V?$allocator@D@2@@std@@V12@@std@@@std@@@std@@@std@@@2@@std@@@std@@QBEABQAV?$_List_unchecked_iterator@V?$_List_val@U?$_List_simple_types@U?$pair@$$CBV?$basic_string@DU?$char_traits@D@std@@V?$allocator@D@2@@std@@V12@@std@@@std@@@std@@@2@XZ ; std::_Vector_alloc<std::_Vec_base_types<std::_List_unchecked_iterator<std::_List_val<std::_List_simple_types<std::pair<std::basic_string<char,std::char_traits<char>,std::allocator<char> > const ,std::basic_string<char,std::char_traits<char>,std::allocator<char> > > > > >,std::allocator<std::_List_unchecked_iterator<std::_List_val<std::_List_simple_types<std::pair<std::basic_string<char,std::char_traits<char>,std::allocator<char> > const ,std::basic_string<char,std::char_traits<char>,std::allocator<char> > > > > > > > >::_Myfirst
PUBLIC	?_Mylast@?$_Vector_alloc@U?$_Vec_base_types@V?$_List_unchecked_iterator@V?$_List_val@U?$_List_simple_types@U?$pair@$$CBV?$basic_string@DU?$char_traits@D@std@@V?$allocator@D@2@@std@@V12@@std@@@std@@@std@@@std@@V?$allocator@V?$_List_unchecked_iterator@V?$_List_val@U?$_List_simple_types@U?$pair@$$CBV?$basic_string@DU?$char_traits@D@std@@V?$allocator@D@2@@std@@V12@@std@@@std@@@std@@@std@@@2@@std@@@std@@QAEAAPAV?$_List_unchecked_iterator@V?$_List_val@U?$_List_simple_types@U?$pair@$$CBV?$basic_string@DU?$char_traits@D@std@@V?$allocator@D@2@@std@@V12@@std@@@std@@@std@@@2@XZ ; std::_Vector_alloc<std::_Vec_base_types<std::_List_unchecked_iterator<std::_List_val<std::_List_simple_types<std::pair<std::basic_string<char,std::char_traits<char>,std::allocator<char> > const ,std::basic_string<char,std::char_traits<char>,std::allocator<char> > > > > >,std::allocator<std::_List_unchecked_iterator<std::_List_val<std::_List_simple_types<std::pair<std::basic_string<char,std::char_traits<char>,std::allocator<char> > const ,std::basic_string<char,std::char_traits<char>,std::allocator<char> > > > > > > > >::_Mylast
PUBLIC	?_Mylast@?$_Vector_alloc@U?$_Vec_base_types@V?$_List_unchecked_iterator@V?$_List_val@U?$_List_simple_types@U?$pair@$$CBV?$basic_string@DU?$char_traits@D@std@@V?$allocator@D@2@@std@@V12@@std@@@std@@@std@@@std@@V?$allocator@V?$_List_unchecked_iterator@V?$_List_val@U?$_List_simple_types@U?$pair@$$CBV?$basic_string@DU?$char_traits@D@std@@V?$allocator@D@2@@std@@V12@@std@@@std@@@std@@@std@@@2@@std@@@std@@QBEABQAV?$_List_unchecked_iterator@V?$_List_val@U?$_List_simple_types@U?$pair@$$CBV?$basic_string@DU?$char_traits@D@std@@V?$allocator@D@2@@std@@V12@@std@@@std@@@std@@@2@XZ ; std::_Vector_alloc<std::_Vec_base_types<std::_List_unchecked_iterator<std::_List_val<std::_List_simple_types<std::pair<std::basic_string<char,std::char_traits<char>,std::allocator<char> > const ,std::basic_string<char,std::char_traits<char>,std::allocator<char> > > > > >,std::allocator<std::_List_unchecked_iterator<std::_List_val<std::_List_simple_types<std::pair<std::basic_string<char,std::char_traits<char>,std::allocator<char> > const ,std::basic_string<char,std::char_traits<char>,std::allocator<char> > > > > > > > >::_Mylast
PUBLIC	?_Myend@?$_Vector_alloc@U?$_Vec_base_types@V?$_List_unchecked_iterator@V?$_List_val@U?$_List_simple_types@U?$pair@$$CBV?$basic_string@DU?$char_traits@D@std@@V?$allocator@D@2@@std@@V12@@std@@@std@@@std@@@std@@V?$allocator@V?$_List_unchecked_iterator@V?$_List_val@U?$_List_simple_types@U?$pair@$$CBV?$basic_string@DU?$char_traits@D@std@@V?$allocator@D@2@@std@@V12@@std@@@std@@@std@@@std@@@2@@std@@@std@@QAEAAPAV?$_List_unchecked_iterator@V?$_List_val@U?$_List_simple_types@U?$pair@$$CBV?$basic_string@DU?$char_traits@D@std@@V?$allocator@D@2@@std@@V12@@std@@@std@@@std@@@2@XZ ; std::_Vector_alloc<std::_Vec_base_types<std::_List_unchecked_iterator<std::_List_val<std::_List_simple_types<std::pair<std::basic_string<char,std::char_traits<char>,std::allocator<char> > const ,std::basic_string<char,std::char_traits<char>,std::allocator<char> > > > > >,std::allocator<std::_List_unchecked_iterator<std::_List_val<std::_List_simple_types<std::pair<std::basic_string<char,std::char_traits<char>,std::allocator<char> > const ,std::basic_string<char,std::char_traits<char>,std::allocator<char> > > > > > > > >::_Myend
PUBLIC	?_Myend@?$_Vector_alloc@U?$_Vec_base_types@V?$_List_unchecked_iterator@V?$_List_val@U?$_List_simple_types@U?$pair@$$CBV?$basic_string@DU?$char_traits@D@std@@V?$allocator@D@2@@std@@V12@@std@@@std@@@std@@@std@@V?$allocator@V?$_List_unchecked_iterator@V?$_List_val@U?$_List_simple_types@U?$pair@$$CBV?$basic_string@DU?$char_traits@D@std@@V?$allocator@D@2@@std@@V12@@std@@@std@@@std@@@std@@@2@@std@@@std@@QBEABQAV?$_List_unchecked_iterator@V?$_List_val@U?$_List_simple_types@U?$pair@$$CBV?$basic_string@DU?$char_traits@D@std@@V?$allocator@D@2@@std@@V12@@std@@@std@@@std@@@2@XZ ; std::_Vector_alloc<std::_Vec_base_types<std::_List_unchecked_iterator<std::_List_val<std::_List_simple_types<std::pair<std::basic_string<char,std::char_traits<char>,std::allocator<char> > const ,std::basic_string<char,std::char_traits<char>,std::allocator<char> > > > > >,std::allocator<std::_List_unchecked_iterator<std::_List_val<std::_List_simple_types<std::pair<std::basic_string<char,std::char_traits<char>,std::allocator<char> > const ,std::basic_string<char,std::char_traits<char>,std::allocator<char> > > > > > > > >::_Myend
PUBLIC	?_Get_first@?$_Compressed_pair@V?$allocator@V?$_List_unchecked_iterator@V?$_List_val@U?$_List_simple_types@U?$pair@$$CBV?$basic_string@DU?$char_traits@D@std@@V?$allocator@D@2@@std@@V12@@std@@@std@@@std@@@std@@@std@@V?$_Vector_val@U?$_Simple_types@V?$_List_unchecked_iterator@V?$_List_val@U?$_List_simple_types@U?$pair@$$CBV?$basic_string@DU?$char_traits@D@std@@V?$allocator@D@2@@std@@V12@@std@@@std@@@std@@@std@@@std@@@2@$00@std@@QAEAAV?$allocator@V?$_List_unchecked_iterator@V?$_List_val@U?$_List_simple_types@U?$pair@$$CBV?$basic_string@DU?$char_traits@D@std@@V?$allocator@D@2@@std@@V12@@std@@@std@@@std@@@std@@@2@XZ ; std::_Compressed_pair<std::allocator<std::_List_unchecked_iterator<std::_List_val<std::_List_simple_types<std::pair<std::basic_string<char,std::char_traits<char>,std::allocator<char> > const ,std::basic_string<char,std::char_traits<char>,std::allocator<char> > > > > > >,std::_Vector_val<std::_Simple_types<std::_List_unchecked_iterator<std::_List_val<std::_List_simple_types<std::pair<std::basic_string<char,std::char_traits<char>,std::allocator<char> > const ,std::basic_string<char,std::char_traits<char>,std::allocator<char> > > > > > > >,1>::_Get_first
PUBLIC	?_Get_first@?$_Compressed_pair@V?$allocator@V?$_List_unchecked_iterator@V?$_List_val@U?$_List_simple_types@U?$pair@$$CBV?$basic_string@DU?$char_traits@D@std@@V?$allocator@D@2@@std@@V12@@std@@@std@@@std@@@std@@@std@@V?$_Vector_val@U?$_Simple_types@V?$_List_unchecked_iterator@V?$_List_val@U?$_List_simple_types@U?$pair@$$CBV?$basic_string@DU?$char_traits@D@std@@V?$allocator@D@2@@std@@V12@@std@@@std@@@std@@@std@@@std@@@2@$00@std@@QBEABV?$allocator@V?$_List_unchecked_iterator@V?$_List_val@U?$_List_simple_types@U?$pair@$$CBV?$basic_string@DU?$char_traits@D@std@@V?$allocator@D@2@@std@@V12@@std@@@std@@@std@@@std@@@2@XZ ; std::_Compressed_pair<std::allocator<std::_List_unchecked_iterator<std::_List_val<std::_List_simple_types<std::pair<std::basic_string<char,std::char_traits<char>,std::allocator<char> > const ,std::basic_string<char,std::char_traits<char>,std::allocator<char> > > > > > >,std::_Vector_val<std::_Simple_types<std::_List_unchecked_iterator<std::_List_val<std::_List_simple_types<std::pair<std::basic_string<char,std::char_traits<char>,std::allocator<char> > const ,std::basic_string<char,std::char_traits<char>,std::allocator<char> > > > > > > >,1>::_Get_first
PUBLIC	?_Get_second@?$_Compressed_pair@V?$allocator@V?$_List_unchecked_iterator@V?$_List_val@U?$_List_simple_types@U?$pair@$$CBV?$basic_string@DU?$char_traits@D@std@@V?$allocator@D@2@@std@@V12@@std@@@std@@@std@@@std@@@std@@V?$_Vector_val@U?$_Simple_types@V?$_List_unchecked_iterator@V?$_List_val@U?$_List_simple_types@U?$pair@$$CBV?$basic_string@DU?$char_traits@D@std@@V?$allocator@D@2@@std@@V12@@std@@@std@@@std@@@std@@@std@@@2@$00@std@@QAEAAV?$_Vector_val@U?$_Simple_types@V?$_List_unchecked_iterator@V?$_List_val@U?$_List_simple_types@U?$pair@$$CBV?$basic_string@DU?$char_traits@D@std@@V?$allocator@D@2@@std@@V12@@std@@@std@@@std@@@std@@@std@@@2@XZ ; std::_Compressed_pair<std::allocator<std::_List_unchecked_iterator<std::_List_val<std::_List_simple_types<std::pair<std::basic_string<char,std::char_traits<char>,std::allocator<char> > const ,std::basic_string<char,std::char_traits<char>,std::allocator<char> > > > > > >,std::_Vector_val<std::_Simple_types<std::_List_unchecked_iterator<std::_List_val<std::_List_simple_types<std::pair<std::basic_string<char,std::char_traits<char>,std::allocator<char> > const ,std::basic_string<char,std::char_traits<char>,std::allocator<char> > > > > > > >,1>::_Get_second
PUBLIC	?_Get_second@?$_Compressed_pair@V?$allocator@V?$_List_unchecked_iterator@V?$_List_val@U?$_List_simple_types@U?$pair@$$CBV?$basic_string@DU?$char_traits@D@std@@V?$allocator@D@2@@std@@V12@@std@@@std@@@std@@@std@@@std@@V?$_Vector_val@U?$_Simple_types@V?$_List_unchecked_iterator@V?$_List_val@U?$_List_simple_types@U?$pair@$$CBV?$basic_string@DU?$char_traits@D@std@@V?$allocator@D@2@@std@@V12@@std@@@std@@@std@@@std@@@std@@@2@$00@std@@QBEABV?$_Vector_val@U?$_Simple_types@V?$_List_unchecked_iterator@V?$_List_val@U?$_List_simple_types@U?$pair@$$CBV?$basic_string@DU?$char_traits@D@std@@V?$allocator@D@2@@std@@V12@@std@@@std@@@std@@@std@@@std@@@2@XZ ; std::_Compressed_pair<std::allocator<std::_List_unchecked_iterator<std::_List_val<std::_List_simple_types<std::pair<std::basic_string<char,std::char_traits<char>,std::allocator<char> > const ,std::basic_string<char,std::char_traits<char>,std::allocator<char> > > > > > >,std::_Vector_val<std::_Simple_types<std::_List_unchecked_iterator<std::_List_val<std::_List_simple_types<std::pair<std::basic_string<char,std::char_traits<char>,std::allocator<char> > const ,std::basic_string<char,std::char_traits<char>,std::allocator<char> > > > > > > >,1>::_Get_second
PUBLIC	?assign@?$vector@V?$_List_unchecked_iterator@V?$_List_val@U?$_List_simple_types@U?$pair@$$CBV?$basic_string@DU?$char_traits@D@std@@V?$allocator@D@2@@std@@V12@@std@@@std@@@std@@@std@@V?$allocator@V?$_List_unchecked_iterator@V?$_List_val@U?$_List_simple_types@U?$pair@$$CBV?$basic_string@DU?$char_traits@D@std@@V?$allocator@D@2@@std@@V12@@std@@@std@@@std@@@std@@@2@@std@@QAEXIABV?$_List_unchecked_iterator@V?$_List_val@U?$_List_simple_types@U?$pair@$$CBV?$basic_string@DU?$char_traits@D@std@@V?$allocator@D@2@@std@@V12@@std@@@std@@@std@@@2@@Z ; std::vector<std::_List_unchecked_iterator<std::_List_val<std::_List_simple_types<std::pair<std::basic_string<char,std::char_traits<char>,std::allocator<char> > const ,std::basic_string<char,std::char_traits<char>,std::allocator<char> > > > > >,std::allocator<std::_List_unchecked_iterator<std::_List_val<std::_List_simple_types<std::pair<std::basic_string<char,std::char_traits<char>,std::allocator<char> > const ,std::basic_string<char,std::char_traits<char>,std::allocator<char> > > > > > > >::assign
PUBLIC	?_Reallocate_exactly@?$vector@V?$_List_unchecked_iterator@V?$_List_val@U?$_List_simple_types@U?$pair@$$CBV?$basic_string@DU?$char_traits@D@std@@V?$allocator@D@2@@std@@V12@@std@@@std@@@std@@@std@@V?$allocator@V?$_List_unchecked_iterator@V?$_List_val@U?$_List_simple_types@U?$pair@$$CBV?$basic_string@DU?$char_traits@D@std@@V?$allocator@D@2@@std@@V12@@std@@@std@@@std@@@std@@@2@@std@@AAEXI@Z ; std::vector<std::_List_unchecked_iterator<std::_List_val<std::_List_simple_types<std::pair<std::basic_string<char,std::char_traits<char>,std::allocator<char> > const ,std::basic_string<char,std::char_traits<char>,std::allocator<char> > > > > >,std::allocator<std::_List_unchecked_iterator<std::_List_val<std::_List_simple_types<std::pair<std::basic_string<char,std::char_traits<char>,std::allocator<char> > const ,std::basic_string<char,std::char_traits<char>,std::allocator<char> > > > > > > >::_Reallocate_exactly
PUBLIC	?reserve@?$vector@V?$_List_unchecked_iterator@V?$_List_val@U?$_List_simple_types@U?$pair@$$CBV?$basic_string@DU?$char_traits@D@std@@V?$allocator@D@2@@std@@V12@@std@@@std@@@std@@@std@@V?$allocator@V?$_List_unchecked_iterator@V?$_List_val@U?$_List_simple_types@U?$pair@$$CBV?$basic_string@DU?$char_traits@D@std@@V?$allocator@D@2@@std@@V12@@std@@@std@@@std@@@std@@@2@@std@@QAEXI@Z ; std::vector<std::_List_unchecked_iterator<std::_List_val<std::_List_simple_types<std::pair<std::basic_string<char,std::char_traits<char>,std::allocator<char> > const ,std::basic_string<char,std::char_traits<char>,std::allocator<char> > > > > >,std::allocator<std::_List_unchecked_iterator<std::_List_val<std::_List_simple_types<std::pair<std::basic_string<char,std::char_traits<char>,std::allocator<char> > const ,std::basic_string<char,std::char_traits<char>,std::allocator<char> > > > > > > >::reserve
PUBLIC	?size@?$vector@V?$_List_unchecked_iterator@V?$_List_val@U?$_List_simple_types@U?$pair@$$CBV?$basic_string@DU?$char_traits@D@std@@V?$allocator@D@2@@std@@V12@@std@@@std@@@std@@@std@@V?$allocator@V?$_List_unchecked_iterator@V?$_List_val@U?$_List_simple_types@U?$pair@$$CBV?$basic_string@DU?$char_traits@D@std@@V?$allocator@D@2@@std@@V12@@std@@@std@@@std@@@std@@@2@@std@@QBEIXZ ; std::vector<std::_List_unchecked_iterator<std::_List_val<std::_List_simple_types<std::pair<std::basic_string<char,std::char_traits<char>,std::allocator<char> > const ,std::basic_string<char,std::char_traits<char>,std::allocator<char> > > > > >,std::allocator<std::_List_unchecked_iterator<std::_List_val<std::_List_simple_types<std::pair<std::basic_string<char,std::char_traits<char>,std::allocator<char> > const ,std::basic_string<char,std::char_traits<char>,std::allocator<char> > > > > > > >::size
PUBLIC	?max_size@?$vector@V?$_List_unchecked_iterator@V?$_List_val@U?$_List_simple_types@U?$pair@$$CBV?$basic_string@DU?$char_traits@D@std@@V?$allocator@D@2@@std@@V12@@std@@@std@@@std@@@std@@V?$allocator@V?$_List_unchecked_iterator@V?$_List_val@U?$_List_simple_types@U?$pair@$$CBV?$basic_string@DU?$char_traits@D@std@@V?$allocator@D@2@@std@@V12@@std@@@std@@@std@@@std@@@2@@std@@QBEIXZ ; std::vector<std::_List_unchecked_iterator<std::_List_val<std::_List_simple_types<std::pair<std::basic_string<char,std::char_traits<char>,std::allocator<char> > const ,std::basic_string<char,std::char_traits<char>,std::allocator<char> > > > > >,std::allocator<std::_List_unchecked_iterator<std::_List_val<std::_List_simple_types<std::pair<std::basic_string<char,std::char_traits<char>,std::allocator<char> > const ,std::basic_string<char,std::char_traits<char>,std::allocator<char> > > > > > > >::max_size
PUBLIC	?capacity@?$vector@V?$_List_unchecked_iterator@V?$_List_val@U?$_List_simple_types@U?$pair@$$CBV?$basic_string@DU?$char_traits@D@std@@V?$allocator@D@2@@std@@V12@@std@@@std@@@std@@@std@@V?$allocator@V?$_List_unchecked_iterator@V?$_List_val@U?$_List_simple_types@U?$pair@$$CBV?$basic_string@DU?$char_traits@D@std@@V?$allocator@D@2@@std@@V12@@std@@@std@@@std@@@std@@@2@@std@@QBEIXZ ; std::vector<std::_List_unchecked_iterator<std::_List_val<std::_List_simple_types<std::pair<std::basic_string<char,std::char_traits<char>,std::allocator<char> > const ,std::basic_string<char,std::char_traits<char>,std::allocator<char> > > > > >,std::allocator<std::_List_unchecked_iterator<std::_List_val<std::_List_simple_types<std::pair<std::basic_string<char,std::char_traits<char>,std::allocator<char> > const ,std::basic_string<char,std::char_traits<char>,std::allocator<char> > > > > > > >::capacity
PUBLIC	??A?$vector@V?$_List_unchecked_iterator@V?$_List_val@U?$_List_simple_types@U?$pair@$$CBV?$basic_string@DU?$char_traits@D@std@@V?$allocator@D@2@@std@@V12@@std@@@std@@@std@@@std@@V?$allocator@V?$_List_unchecked_iterator@V?$_List_val@U?$_List_simple_types@U?$pair@$$CBV?$basic_string@DU?$char_traits@D@std@@V?$allocator@D@2@@std@@V12@@std@@@std@@@std@@@std@@@2@@std@@QAEAAV?$_List_unchecked_iterator@V?$_List_val@U?$_List_simple_types@U?$pair@$$CBV?$basic_string@DU?$char_traits@D@std@@V?$allocator@D@2@@std@@V12@@std@@@std@@@std@@@1@I@Z ; std::vector<std::_List_unchecked_iterator<std::_List_val<std::_List_simple_types<std::pair<std::basic_string<char,std::char_traits<char>,std::allocator<char> > const ,std::basic_string<char,std::char_traits<char>,std::allocator<char> > > > > >,std::allocator<std::_List_unchecked_iterator<std::_List_val<std::_List_simple_types<std::pair<std::basic_string<char,std::char_traits<char>,std::allocator<char> > const ,std::basic_string<char,std::char_traits<char>,std::allocator<char> > > > > > > >::operator[]
PUBLIC	?_Ufill@?$vector@V?$_List_unchecked_iterator@V?$_List_val@U?$_List_simple_types@U?$pair@$$CBV?$basic_string@DU?$char_traits@D@std@@V?$allocator@D@2@@std@@V12@@std@@@std@@@std@@@std@@V?$allocator@V?$_List_unchecked_iterator@V?$_List_val@U?$_List_simple_types@U?$pair@$$CBV?$basic_string@DU?$char_traits@D@std@@V?$allocator@D@2@@std@@V12@@std@@@std@@@std@@@std@@@2@@std@@AAEPAV?$_List_unchecked_iterator@V?$_List_val@U?$_List_simple_types@U?$pair@$$CBV?$basic_string@DU?$char_traits@D@std@@V?$allocator@D@2@@std@@V12@@std@@@std@@@std@@@2@PAV32@IABV32@@Z ; std::vector<std::_List_unchecked_iterator<std::_List_val<std::_List_simple_types<std::pair<std::basic_string<char,std::char_traits<char>,std::allocator<char> > const ,std::basic_string<char,std::char_traits<char>,std::allocator<char> > > > > >,std::allocator<std::_List_unchecked_iterator<std::_List_val<std::_List_simple_types<std::pair<std::basic_string<char,std::char_traits<char>,std::allocator<char> > const ,std::basic_string<char,std::char_traits<char>,std::allocator<char> > > > > > > >::_Ufill
PUBLIC	?_Umove_if_noexcept1@?$vector@V?$_List_unchecked_iterator@V?$_List_val@U?$_List_simple_types@U?$pair@$$CBV?$basic_string@DU?$char_traits@D@std@@V?$allocator@D@2@@std@@V12@@std@@@std@@@std@@@std@@V?$allocator@V?$_List_unchecked_iterator@V?$_List_val@U?$_List_simple_types@U?$pair@$$CBV?$basic_string@DU?$char_traits@D@std@@V?$allocator@D@2@@std@@V12@@std@@@std@@@std@@@std@@@2@@std@@AAEXPAV?$_List_unchecked_iterator@V?$_List_val@U?$_List_simple_types@U?$pair@$$CBV?$basic_string@DU?$char_traits@D@std@@V?$allocator@D@2@@std@@V12@@std@@@std@@@std@@@2@00U?$integral_constant@_N$00@2@@Z ; std::vector<std::_List_unchecked_iterator<std::_List_val<std::_List_simple_types<std::pair<std::basic_string<char,std::char_traits<char>,std::allocator<char> > const ,std::basic_string<char,std::char_traits<char>,std::allocator<char> > > > > >,std::allocator<std::_List_unchecked_iterator<std::_List_val<std::_List_simple_types<std::pair<std::basic_string<char,std::char_traits<char>,std::allocator<char> > const ,std::basic_string<char,std::char_traits<char>,std::allocator<char> > > > > > > >::_Umove_if_noexcept1
PUBLIC	?_Umove_if_noexcept@?$vector@V?$_List_unchecked_iterator@V?$_List_val@U?$_List_simple_types@U?$pair@$$CBV?$basic_string@DU?$char_traits@D@std@@V?$allocator@D@2@@std@@V12@@std@@@std@@@std@@@std@@V?$allocator@V?$_List_unchecked_iterator@V?$_List_val@U?$_List_simple_types@U?$pair@$$CBV?$basic_string@DU?$char_traits@D@std@@V?$allocator@D@2@@std@@V12@@std@@@std@@@std@@@std@@@2@@std@@AAEXPAV?$_List_unchecked_iterator@V?$_List_val@U?$_List_simple_types@U?$pair@$$CBV?$basic_string@DU?$char_traits@D@std@@V?$allocator@D@2@@std@@V12@@std@@@std@@@std@@@2@00@Z ; std::vector<std::_List_unchecked_iterator<std::_List_val<std::_List_simple_types<std::pair<std::basic_string<char,std::char_traits<char>,std::allocator<char> > const ,std::basic_string<char,std::char_traits<char>,std::allocator<char> > > > > >,std::allocator<std::_List_unchecked_iterator<std::_List_val<std::_List_simple_types<std::pair<std::basic_string<char,std::char_traits<char>,std::allocator<char> > const ,std::basic_string<char,std::char_traits<char>,std::allocator<char> > > > > > > >::_Umove_if_noexcept
PUBLIC	?_Destroy@?$vector@V?$_List_unchecked_iterator@V?$_List_val@U?$_List_simple_types@U?$pair@$$CBV?$basic_string@DU?$char_traits@D@std@@V?$allocator@D@2@@std@@V12@@std@@@std@@@std@@@std@@V?$allocator@V?$_List_unchecked_iterator@V?$_List_val@U?$_List_simple_types@U?$pair@$$CBV?$basic_string@DU?$char_traits@D@std@@V?$allocator@D@2@@std@@V12@@std@@@std@@@std@@@std@@@2@@std@@AAEXPAV?$_List_unchecked_iterator@V?$_List_val@U?$_List_simple_types@U?$pair@$$CBV?$basic_string@DU?$char_traits@D@std@@V?$allocator@D@2@@std@@V12@@std@@@std@@@std@@@2@0@Z ; std::vector<std::_List_unchecked_iterator<std::_List_val<std::_List_simple_types<std::pair<std::basic_string<char,std::char_traits<char>,std::allocator<char> > const ,std::basic_string<char,std::char_traits<char>,std::allocator<char> > > > > >,std::allocator<std::_List_unchecked_iterator<std::_List_val<std::_List_simple_types<std::pair<std::basic_string<char,std::char_traits<char>,std::allocator<char> > const ,std::basic_string<char,std::char_traits<char>,std::allocator<char> > > > > > > >::_Destroy
PUBLIC	?_Calculate_growth@?$vector@V?$_List_unchecked_iterator@V?$_List_val@U?$_List_simple_types@U?$pair@$$CBV?$basic_string@DU?$char_traits@D@std@@V?$allocator@D@2@@std@@V12@@std@@@std@@@std@@@std@@V?$allocator@V?$_List_unchecked_iterator@V?$_List_val@U?$_List_simple_types@U?$pair@$$CBV?$basic_string@DU?$char_traits@D@std@@V?$allocator@D@2@@std@@V12@@std@@@std@@@std@@@std@@@2@@std@@ABEII@Z ; std::vector<std::_List_unchecked_iterator<std::_List_val<std::_List_simple_types<std::pair<std::basic_string<char,std::char_traits<char>,std::allocator<char> > const ,std::basic_string<char,std::char_traits<char>,std::allocator<char> > > > > >,std::allocator<std::_List_unchecked_iterator<std::_List_val<std::_List_simple_types<std::pair<std::basic_string<char,std::char_traits<char>,std::allocator<char> > const ,std::basic_string<char,std::char_traits<char>,std::allocator<char> > > > > > > >::_Calculate_growth
PUBLIC	?_Buy@?$vector@V?$_List_unchecked_iterator@V?$_List_val@U?$_List_simple_types@U?$pair@$$CBV?$basic_string@DU?$char_traits@D@std@@V?$allocator@D@2@@std@@V12@@std@@@std@@@std@@@std@@V?$allocator@V?$_List_unchecked_iterator@V?$_List_val@U?$_List_simple_types@U?$pair@$$CBV?$basic_string@DU?$char_traits@D@std@@V?$allocator@D@2@@std@@V12@@std@@@std@@@std@@@std@@@2@@std@@AAE_NI@Z ; std::vector<std::_List_unchecked_iterator<std::_List_val<std::_List_simple_types<std::pair<std::basic_string<char,std::char_traits<char>,std::allocator<char> > const ,std::basic_string<char,std::char_traits<char>,std::allocator<char> > > > > >,std::allocator<std::_List_unchecked_iterator<std::_List_val<std::_List_simple_types<std::pair<std::basic_string<char,std::char_traits<char>,std::allocator<char> > const ,std::basic_string<char,std::char_traits<char>,std::allocator<char> > > > > > > >::_Buy
PUBLIC	?_Change_array@?$vector@V?$_List_unchecked_iterator@V?$_List_val@U?$_List_simple_types@U?$pair@$$CBV?$basic_string@DU?$char_traits@D@std@@V?$allocator@D@2@@std@@V12@@std@@@std@@@std@@@std@@V?$allocator@V?$_List_unchecked_iterator@V?$_List_val@U?$_List_simple_types@U?$pair@$$CBV?$basic_string@DU?$char_traits@D@std@@V?$allocator@D@2@@std@@V12@@std@@@std@@@std@@@std@@@2@@std@@AAEXQAV?$_List_unchecked_iterator@V?$_List_val@U?$_List_simple_types@U?$pair@$$CBV?$basic_string@DU?$char_traits@D@std@@V?$allocator@D@2@@std@@V12@@std@@@std@@@std@@@2@II@Z ; std::vector<std::_List_unchecked_iterator<std::_List_val<std::_List_simple_types<std::pair<std::basic_string<char,std::char_traits<char>,std::allocator<char> > const ,std::basic_string<char,std::char_traits<char>,std::allocator<char> > > > > >,std::allocator<std::_List_unchecked_iterator<std::_List_val<std::_List_simple_types<std::pair<std::basic_string<char,std::char_traits<char>,std::allocator<char> > const ,std::basic_string<char,std::char_traits<char>,std::allocator<char> > > > > > > >::_Change_array
PUBLIC	?_Xlength@?$vector@V?$_List_unchecked_iterator@V?$_List_val@U?$_List_simple_types@U?$pair@$$CBV?$basic_string@DU?$char_traits@D@std@@V?$allocator@D@2@@std@@V12@@std@@@std@@@std@@@std@@V?$allocator@V?$_List_unchecked_iterator@V?$_List_val@U?$_List_simple_types@U?$pair@$$CBV?$basic_string@DU?$char_traits@D@std@@V?$allocator@D@2@@std@@V12@@std@@@std@@@std@@@std@@@2@@std@@CAXXZ ; std::vector<std::_List_unchecked_iterator<std::_List_val<std::_List_simple_types<std::pair<std::basic_string<char,std::char_traits<char>,std::allocator<char> > const ,std::basic_string<char,std::char_traits<char>,std::allocator<char> > > > > >,std::allocator<std::_List_unchecked_iterator<std::_List_val<std::_List_simple_types<std::pair<std::basic_string<char,std::char_traits<char>,std::allocator<char> > const ,std::basic_string<char,std::char_traits<char>,std::allocator<char> > > > > > > >::_Xlength
PUBLIC	??A?$unordered_map@V?$basic_string@DU?$char_traits@D@std@@V?$allocator@D@2@@std@@V12@U?$hash@V?$basic_string@DU?$char_traits@D@std@@V?$allocator@D@2@@std@@@2@U?$equal_to@V?$basic_string@DU?$char_traits@D@std@@V?$allocator@D@2@@std@@@2@V?$allocator@U?$pair@$$CBV?$basic_string@DU?$char_traits@D@std@@V?$allocator@D@2@@std@@V12@@std@@@2@@std@@QAEAAV?$basic_string@DU?$char_traits@D@std@@V?$allocator@D@2@@1@ABV21@@Z ; std::unordered_map<std::basic_string<char,std::char_traits<char>,std::allocator<char> >,std::basic_string<char,std::char_traits<char>,std::allocator<char> >,std::hash<std::basic_string<char,std::char_traits<char>,std::allocator<char> > >,std::equal_to<std::basic_string<char,std::char_traits<char>,std::allocator<char> > >,std::allocator<std::pair<std::basic_string<char,std::char_traits<char>,std::allocator<char> > const ,std::basic_string<char,std::char_traits<char>,std::allocator<char> > > > >::operator[]
PUBLIC	?GetInt@Scriptor@@QAEHV?$basic_string@DU?$char_traits@D@std@@V?$allocator@D@2@@std@@@Z ; Scriptor::GetInt
PUBLIC	?GetDouble@Scriptor@@QAENV?$basic_string@DU?$char_traits@D@std@@V?$allocator@D@2@@std@@@Z ; Scriptor::GetDouble
PUBLIC	?GetString@Scriptor@@QAE?AV?$basic_string@DU?$char_traits@D@std@@V?$allocator@D@2@@std@@V23@@Z ; Scriptor::GetString
PUBLIC	?_Get_data@?$_Vector_alloc@U?$_Vec_base_types@PAVWall2D@@V?$allocator@PAVWall2D@@@std@@@std@@@std@@QBEABV?$_Vector_val@U?$_Simple_types@PAVWall2D@@@std@@@2@XZ ; std::_Vector_alloc<std::_Vec_base_types<Wall2D *,std::allocator<Wall2D *> > >::_Get_data
PUBLIC	?_Myfirst@?$_Vector_alloc@U?$_Vec_base_types@PAVWall2D@@V?$allocator@PAVWall2D@@@std@@@std@@@std@@QBEABQAPAVWall2D@@XZ ; std::_Vector_alloc<std::_Vec_base_types<Wall2D *,std::allocator<Wall2D *> > >::_Myfirst
PUBLIC	?_Mylast@?$_Vector_alloc@U?$_Vec_base_types@PAVWall2D@@V?$allocator@PAVWall2D@@@std@@@std@@@std@@QBEABQAPAVWall2D@@XZ ; std::_Vector_alloc<std::_Vec_base_types<Wall2D *,std::allocator<Wall2D *> > >::_Mylast
PUBLIC	?_Get_second@?$_Compressed_pair@V?$allocator@PAVWall2D@@@std@@V?$_Vector_val@U?$_Simple_types@PAVWall2D@@@std@@@2@$00@std@@QBEABV?$_Vector_val@U?$_Simple_types@PAVWall2D@@@std@@@2@XZ ; std::_Compressed_pair<std::allocator<Wall2D *>,std::_Vector_val<std::_Simple_types<Wall2D *> >,1>::_Get_second
PUBLIC	?begin@?$vector@PAVWall2D@@V?$allocator@PAVWall2D@@@std@@@std@@QBE?AV?$_Vector_const_iterator@V?$_Vector_val@U?$_Simple_types@PAVWall2D@@@std@@@std@@@2@XZ ; std::vector<Wall2D *,std::allocator<Wall2D *> >::begin
PUBLIC	?end@?$vector@PAVWall2D@@V?$allocator@PAVWall2D@@@std@@@std@@QBE?AV?$_Vector_const_iterator@V?$_Vector_val@U?$_Simple_types@PAVWall2D@@@std@@@std@@@2@XZ ; std::vector<Wall2D *,std::allocator<Wall2D *> >::end
PUBLIC	?_Get_data@?$_Vector_alloc@U?$_Vec_base_types@PAVRaven_Door@@V?$allocator@PAVRaven_Door@@@std@@@std@@@std@@QAEAAV?$_Vector_val@U?$_Simple_types@PAVRaven_Door@@@std@@@2@XZ ; std::_Vector_alloc<std::_Vec_base_types<Raven_Door *,std::allocator<Raven_Door *> > >::_Get_data
PUBLIC	?_Myfirst@?$_Vector_alloc@U?$_Vec_base_types@PAVRaven_Door@@V?$allocator@PAVRaven_Door@@@std@@@std@@@std@@QAEAAPAPAVRaven_Door@@XZ ; std::_Vector_alloc<std::_Vec_base_types<Raven_Door *,std::allocator<Raven_Door *> > >::_Myfirst
PUBLIC	?_Mylast@?$_Vector_alloc@U?$_Vec_base_types@PAVRaven_Door@@V?$allocator@PAVRaven_Door@@@std@@@std@@@std@@QAEAAPAPAVRaven_Door@@XZ ; std::_Vector_alloc<std::_Vec_base_types<Raven_Door *,std::allocator<Raven_Door *> > >::_Mylast
PUBLIC	?_Get_second@?$_Compressed_pair@V?$allocator@PAVRaven_Door@@@std@@V?$_Vector_val@U?$_Simple_types@PAVRaven_Door@@@std@@@2@$00@std@@QAEAAV?$_Vector_val@U?$_Simple_types@PAVRaven_Door@@@std@@@2@XZ ; std::_Compressed_pair<std::allocator<Raven_Door *>,std::_Vector_val<std::_Simple_types<Raven_Door *> >,1>::_Get_second
PUBLIC	?begin@?$vector@PAVRaven_Door@@V?$allocator@PAVRaven_Door@@@std@@@std@@QAE?AV?$_Vector_iterator@V?$_Vector_val@U?$_Simple_types@PAVRaven_Door@@@std@@@std@@@2@XZ ; std::vector<Raven_Door *,std::allocator<Raven_Door *> >::begin
PUBLIC	?end@?$vector@PAVRaven_Door@@V?$allocator@PAVRaven_Door@@@std@@@std@@QAE?AV?$_Vector_iterator@V?$_Vector_val@U?$_Simple_types@PAVRaven_Door@@@std@@@std@@@2@XZ ; std::vector<Raven_Door *,std::allocator<Raven_Door *> >::end
PUBLIC	?GetWalls@Raven_Map@@QBEABV?$vector@PAVWall2D@@V?$allocator@PAVWall2D@@@std@@@std@@XZ ; Raven_Map::GetWalls
PUBLIC	?GetDoors@Raven_Map@@QAEAAV?$vector@PAVRaven_Door@@V?$allocator@PAVRaven_Door@@@std@@@std@@XZ ; Raven_Map::GetDoors
PUBLIC	?GetSpawnPoints@Raven_Map@@QBEABV?$vector@UVector2D@@V?$allocator@UVector2D@@@std@@@std@@XZ ; Raven_Map::GetSpawnPoints
PUBLIC	?GetRandomSpawnPoint@Raven_Map@@QAE?AUVector2D@@XZ ; Raven_Map::GetRandomSpawnPoint
PUBLIC	??_GRaven_Map@@QAEPAXI@Z			; Raven_Map::`scalar deleting destructor'
PUBLIC	?deallocate@?$_Default_allocator_traits@V?$allocator@U?$_Tree_node@U?$pair@$$CBHPAVBaseGameEntity@@@std@@PAX@std@@@std@@@std@@SAXAAV?$allocator@U?$_Tree_node@U?$pair@$$CBHPAVBaseGameEntity@@@std@@PAX@std@@@2@QAU?$_Tree_node@U?$pair@$$CBHPAVBaseGameEntity@@@std@@PAX@2@I@Z ; std::_Default_allocator_traits<std::allocator<std::_Tree_node<std::pair<int const ,BaseGameEntity *>,void *> > >::deallocate
PUBLIC	?_Getpfirst@?$_Tree_comp_alloc@V?$_Tmap_traits@HPAVBaseGameEntity@@U?$less@H@std@@V?$allocator@U?$pair@$$CBHPAVBaseGameEntity@@@std@@@3@$0A@@std@@@std@@QBEPAPAU_Iterator_base12@2@XZ ; std::_Tree_comp_alloc<std::_Tmap_traits<int,BaseGameEntity *,std::less<int>,std::allocator<std::pair<int const ,BaseGameEntity *> >,0> >::_Getpfirst
PUBLIC	?_Getal@?$_Tree_comp_alloc@V?$_Tmap_traits@HPAVBaseGameEntity@@U?$less@H@std@@V?$allocator@U?$pair@$$CBHPAVBaseGameEntity@@@std@@@3@$0A@@std@@@std@@QAEAAV?$allocator@U?$_Tree_node@U?$pair@$$CBHPAVBaseGameEntity@@@std@@PAX@std@@@2@XZ ; std::_Tree_comp_alloc<std::_Tmap_traits<int,BaseGameEntity *,std::less<int>,std::allocator<std::pair<int const ,BaseGameEntity *> >,0> >::_Getal
PUBLIC	?_Get_data@?$_Tree_comp_alloc@V?$_Tmap_traits@HPAVBaseGameEntity@@U?$less@H@std@@V?$allocator@U?$pair@$$CBHPAVBaseGameEntity@@@std@@@3@$0A@@std@@@std@@QAEAAV?$_Tree_val@U?$_Tree_simple_types@U?$pair@$$CBHPAVBaseGameEntity@@@std@@@std@@@2@XZ ; std::_Tree_comp_alloc<std::_Tmap_traits<int,BaseGameEntity *,std::less<int>,std::allocator<std::pair<int const ,BaseGameEntity *> >,0> >::_Get_data
PUBLIC	?_Get_data@?$_Tree_comp_alloc@V?$_Tmap_traits@HPAVBaseGameEntity@@U?$less@H@std@@V?$allocator@U?$pair@$$CBHPAVBaseGameEntity@@@std@@@3@$0A@@std@@@std@@QBEABV?$_Tree_val@U?$_Tree_simple_types@U?$pair@$$CBHPAVBaseGameEntity@@@std@@@std@@@2@XZ ; std::_Tree_comp_alloc<std::_Tmap_traits<int,BaseGameEntity *,std::less<int>,std::allocator<std::pair<int const ,BaseGameEntity *> >,0> >::_Get_data
PUBLIC	?_Root@?$_Tree_val@U?$_Tree_simple_types@U?$pair@$$CBHPAVBaseGameEntity@@@std@@@std@@@std@@QBEAAPAU?$_Tree_node@U?$pair@$$CBHPAVBaseGameEntity@@@std@@PAX@2@XZ ; std::_Tree_val<std::_Tree_simple_types<std::pair<int const ,BaseGameEntity *> > >::_Root
PUBLIC	?_Lmost@?$_Tree_val@U?$_Tree_simple_types@U?$pair@$$CBHPAVBaseGameEntity@@@std@@@std@@@std@@QBEAAPAU?$_Tree_node@U?$pair@$$CBHPAVBaseGameEntity@@@std@@PAX@2@XZ ; std::_Tree_val<std::_Tree_simple_types<std::pair<int const ,BaseGameEntity *> > >::_Lmost
PUBLIC	?_Rmost@?$_Tree_val@U?$_Tree_simple_types@U?$pair@$$CBHPAVBaseGameEntity@@@std@@@std@@@std@@QBEAAPAU?$_Tree_node@U?$pair@$$CBHPAVBaseGameEntity@@@std@@PAX@2@XZ ; std::_Tree_val<std::_Tree_simple_types<std::pair<int const ,BaseGameEntity *> > >::_Rmost
PUBLIC	?_Get_first@?$_Compressed_pair@V?$allocator@U?$_Tree_node@U?$pair@$$CBHPAVBaseGameEntity@@@std@@PAX@std@@@std@@V?$_Tree_val@U?$_Tree_simple_types@U?$pair@$$CBHPAVBaseGameEntity@@@std@@@std@@@2@$00@std@@QAEAAV?$allocator@U?$_Tree_node@U?$pair@$$CBHPAVBaseGameEntity@@@std@@PAX@std@@@2@XZ ; std::_Compressed_pair<std::allocator<std::_Tree_node<std::pair<int const ,BaseGameEntity *>,void *> >,std::_Tree_val<std::_Tree_simple_types<std::pair<int const ,BaseGameEntity *> > >,1>::_Get_first
PUBLIC	?_Get_second@?$_Compressed_pair@V?$allocator@U?$_Tree_node@U?$pair@$$CBHPAVBaseGameEntity@@@std@@PAX@std@@@std@@V?$_Tree_val@U?$_Tree_simple_types@U?$pair@$$CBHPAVBaseGameEntity@@@std@@@std@@@2@$00@std@@QAEAAV?$_Tree_val@U?$_Tree_simple_types@U?$pair@$$CBHPAVBaseGameEntity@@@std@@@std@@@2@XZ ; std::_Compressed_pair<std::allocator<std::_Tree_node<std::pair<int const ,BaseGameEntity *>,void *> >,std::_Tree_val<std::_Tree_simple_types<std::pair<int const ,BaseGameEntity *> > >,1>::_Get_second
PUBLIC	?_Get_second@?$_Compressed_pair@V?$allocator@U?$_Tree_node@U?$pair@$$CBHPAVBaseGameEntity@@@std@@PAX@std@@@std@@V?$_Tree_val@U?$_Tree_simple_types@U?$pair@$$CBHPAVBaseGameEntity@@@std@@@std@@@2@$00@std@@QBEABV?$_Tree_val@U?$_Tree_simple_types@U?$pair@$$CBHPAVBaseGameEntity@@@std@@@std@@@2@XZ ; std::_Compressed_pair<std::allocator<std::_Tree_node<std::pair<int const ,BaseGameEntity *>,void *> >,std::_Tree_val<std::_Tree_simple_types<std::pair<int const ,BaseGameEntity *> > >,1>::_Get_second
PUBLIC	?_Get_second@?$_Compressed_pair@U?$less@H@std@@V?$_Compressed_pair@V?$allocator@U?$_Tree_node@U?$pair@$$CBHPAVBaseGameEntity@@@std@@PAX@std@@@std@@V?$_Tree_val@U?$_Tree_simple_types@U?$pair@$$CBHPAVBaseGameEntity@@@std@@@std@@@2@$00@2@$00@std@@QAEAAV?$_Compressed_pair@V?$allocator@U?$_Tree_node@U?$pair@$$CBHPAVBaseGameEntity@@@std@@PAX@std@@@std@@V?$_Tree_val@U?$_Tree_simple_types@U?$pair@$$CBHPAVBaseGameEntity@@@std@@@std@@@2@$00@2@XZ ; std::_Compressed_pair<std::less<int>,std::_Compressed_pair<std::allocator<std::_Tree_node<std::pair<int const ,BaseGameEntity *>,void *> >,std::_Tree_val<std::_Tree_simple_types<std::pair<int const ,BaseGameEntity *> > >,1>,1>::_Get_second
PUBLIC	?_Get_second@?$_Compressed_pair@U?$less@H@std@@V?$_Compressed_pair@V?$allocator@U?$_Tree_node@U?$pair@$$CBHPAVBaseGameEntity@@@std@@PAX@std@@@std@@V?$_Tree_val@U?$_Tree_simple_types@U?$pair@$$CBHPAVBaseGameEntity@@@std@@@std@@@2@$00@2@$00@std@@QBEABV?$_Compressed_pair@V?$allocator@U?$_Tree_node@U?$pair@$$CBHPAVBaseGameEntity@@@std@@PAX@std@@@std@@V?$_Tree_val@U?$_Tree_simple_types@U?$pair@$$CBHPAVBaseGameEntity@@@std@@@std@@@2@$00@2@XZ ; std::_Compressed_pair<std::less<int>,std::_Compressed_pair<std::allocator<std::_Tree_node<std::pair<int const ,BaseGameEntity *>,void *> >,std::_Tree_val<std::_Tree_simple_types<std::pair<int const ,BaseGameEntity *> > >,1>,1>::_Get_second
PUBLIC	?clear@?$_Tree@V?$_Tmap_traits@HPAVBaseGameEntity@@U?$less@H@std@@V?$allocator@U?$pair@$$CBHPAVBaseGameEntity@@@std@@@3@$0A@@std@@@std@@QAEXXZ ; std::_Tree<std::_Tmap_traits<int,BaseGameEntity *,std::less<int>,std::allocator<std::pair<int const ,BaseGameEntity *> >,0> >::clear
PUBLIC	?_Erase@?$_Tree@V?$_Tmap_traits@HPAVBaseGameEntity@@U?$less@H@std@@V?$allocator@U?$pair@$$CBHPAVBaseGameEntity@@@std@@@3@$0A@@std@@@std@@IAEXPAU?$_Tree_node@U?$pair@$$CBHPAVBaseGameEntity@@@std@@PAX@2@@Z ; std::_Tree<std::_Tmap_traits<int,BaseGameEntity *,std::less<int>,std::allocator<std::pair<int const ,BaseGameEntity *> >,0> >::_Erase
PUBLIC	?_Orphan_ptr@?$_Tree@V?$_Tmap_traits@HPAVBaseGameEntity@@U?$less@H@std@@V?$allocator@U?$pair@$$CBHPAVBaseGameEntity@@@std@@@3@$0A@@std@@@std@@IAEXPAU?$_Tree_node@U?$pair@$$CBHPAVBaseGameEntity@@@std@@PAX@2@@Z ; std::_Tree<std::_Tmap_traits<int,BaseGameEntity *,std::less<int>,std::allocator<std::pair<int const ,BaseGameEntity *> >,0> >::_Orphan_ptr
PUBLIC	?Reset@EntityManager@@QAEXXZ			; EntityManager::Reset
PUBLIC	?GetSwitchIDs@Raven_Door@@QBE?AV?$vector@IV?$allocator@I@std@@@std@@XZ ; Raven_Door::GetSwitchIDs
PUBLIC	?deallocate@?$_Default_allocator_traits@V?$allocator@U?$_List_node@UGraveRecord@GraveMarkers@@PAX@std@@@std@@@std@@SAXAAV?$allocator@U?$_List_node@UGraveRecord@GraveMarkers@@PAX@std@@@2@QAU?$_List_node@UGraveRecord@GraveMarkers@@PAX@2@I@Z ; std::_Default_allocator_traits<std::allocator<std::_List_node<GraveMarkers::GraveRecord,void *> > >::deallocate
PUBLIC	??1?$_List_alloc@U?$_List_base_types@UGraveRecord@GraveMarkers@@V?$allocator@UGraveRecord@GraveMarkers@@@std@@@std@@@std@@QAE@XZ ; std::_List_alloc<std::_List_base_types<GraveMarkers::GraveRecord,std::allocator<GraveMarkers::GraveRecord> > >::~_List_alloc<std::_List_base_types<GraveMarkers::GraveRecord,std::allocator<GraveMarkers::GraveRecord> > >
PUBLIC	?_Free_proxy@?$_List_alloc@U?$_List_base_types@UGraveRecord@GraveMarkers@@V?$allocator@UGraveRecord@GraveMarkers@@@std@@@std@@@std@@QAEXXZ ; std::_List_alloc<std::_List_base_types<GraveMarkers::GraveRecord,std::allocator<GraveMarkers::GraveRecord> > >::_Free_proxy
PUBLIC	?_Getpfirst@?$_List_alloc@U?$_List_base_types@UGraveRecord@GraveMarkers@@V?$allocator@UGraveRecord@GraveMarkers@@@std@@@std@@@std@@QBEPAPAU_Iterator_base12@2@XZ ; std::_List_alloc<std::_List_base_types<GraveMarkers::GraveRecord,std::allocator<GraveMarkers::GraveRecord> > >::_Getpfirst
PUBLIC	?_Myproxy@?$_List_alloc@U?$_List_base_types@UGraveRecord@GraveMarkers@@V?$allocator@UGraveRecord@GraveMarkers@@@std@@@std@@@std@@QAEAAPAU_Container_proxy@2@XZ ; std::_List_alloc<std::_List_base_types<GraveMarkers::GraveRecord,std::allocator<GraveMarkers::GraveRecord> > >::_Myproxy
PUBLIC	?_Freeheadnode@?$_List_alloc@U?$_List_base_types@UGraveRecord@GraveMarkers@@V?$allocator@UGraveRecord@GraveMarkers@@@std@@@std@@@std@@QAEXPAU?$_List_node@UGraveRecord@GraveMarkers@@PAX@2@@Z ; std::_List_alloc<std::_List_base_types<GraveMarkers::GraveRecord,std::allocator<GraveMarkers::GraveRecord> > >::_Freeheadnode
PUBLIC	?_Orphan_all@?$_List_alloc@U?$_List_base_types@UGraveRecord@GraveMarkers@@V?$allocator@UGraveRecord@GraveMarkers@@@std@@@std@@@std@@QAEXXZ ; std::_List_alloc<std::_List_base_types<GraveMarkers::GraveRecord,std::allocator<GraveMarkers::GraveRecord> > >::_Orphan_all
PUBLIC	?_Getal@?$_List_alloc@U?$_List_base_types@UGraveRecord@GraveMarkers@@V?$allocator@UGraveRecord@GraveMarkers@@@std@@@std@@@std@@QAEAAV?$allocator@U?$_List_node@UGraveRecord@GraveMarkers@@PAX@std@@@2@XZ ; std::_List_alloc<std::_List_base_types<GraveMarkers::GraveRecord,std::allocator<GraveMarkers::GraveRecord> > >::_Getal
PUBLIC	?_Get_data@?$_List_alloc@U?$_List_base_types@UGraveRecord@GraveMarkers@@V?$allocator@UGraveRecord@GraveMarkers@@@std@@@std@@@std@@QAEAAV?$_List_val@U?$_List_simple_types@UGraveRecord@GraveMarkers@@@std@@@2@XZ ; std::_List_alloc<std::_List_base_types<GraveMarkers::GraveRecord,std::allocator<GraveMarkers::GraveRecord> > >::_Get_data
PUBLIC	?_Get_data@?$_List_alloc@U?$_List_base_types@UGraveRecord@GraveMarkers@@V?$allocator@UGraveRecord@GraveMarkers@@@std@@@std@@@std@@QBEABV?$_List_val@U?$_List_simple_types@UGraveRecord@GraveMarkers@@@std@@@2@XZ ; std::_List_alloc<std::_List_base_types<GraveMarkers::GraveRecord,std::allocator<GraveMarkers::GraveRecord> > >::_Get_data
PUBLIC	?_Myhead@?$_List_alloc@U?$_List_base_types@UGraveRecord@GraveMarkers@@V?$allocator@UGraveRecord@GraveMarkers@@@std@@@std@@@std@@QAEAAPAU?$_List_node@UGraveRecord@GraveMarkers@@PAX@2@XZ ; std::_List_alloc<std::_List_base_types<GraveMarkers::GraveRecord,std::allocator<GraveMarkers::GraveRecord> > >::_Myhead
PUBLIC	?_Mysize@?$_List_alloc@U?$_List_base_types@UGraveRecord@GraveMarkers@@V?$allocator@UGraveRecord@GraveMarkers@@@std@@@std@@@std@@QAEAAIXZ ; std::_List_alloc<std::_List_base_types<GraveMarkers::GraveRecord,std::allocator<GraveMarkers::GraveRecord> > >::_Mysize
PUBLIC	?_Get_first@?$_Compressed_pair@V?$allocator@U?$_List_node@UGraveRecord@GraveMarkers@@PAX@std@@@std@@V?$_List_val@U?$_List_simple_types@UGraveRecord@GraveMarkers@@@std@@@2@$00@std@@QAEAAV?$allocator@U?$_List_node@UGraveRecord@GraveMarkers@@PAX@std@@@2@XZ ; std::_Compressed_pair<std::allocator<std::_List_node<GraveMarkers::GraveRecord,void *> >,std::_List_val<std::_List_simple_types<GraveMarkers::GraveRecord> >,1>::_Get_first
PUBLIC	?_Get_second@?$_Compressed_pair@V?$allocator@U?$_List_node@UGraveRecord@GraveMarkers@@PAX@std@@@std@@V?$_List_val@U?$_List_simple_types@UGraveRecord@GraveMarkers@@@std@@@2@$00@std@@QAEAAV?$_List_val@U?$_List_simple_types@UGraveRecord@GraveMarkers@@@std@@@2@XZ ; std::_Compressed_pair<std::allocator<std::_List_node<GraveMarkers::GraveRecord,void *> >,std::_List_val<std::_List_simple_types<GraveMarkers::GraveRecord> >,1>::_Get_second
PUBLIC	?_Get_second@?$_Compressed_pair@V?$allocator@U?$_List_node@UGraveRecord@GraveMarkers@@PAX@std@@@std@@V?$_List_val@U?$_List_simple_types@UGraveRecord@GraveMarkers@@@std@@@2@$00@std@@QBEABV?$_List_val@U?$_List_simple_types@UGraveRecord@GraveMarkers@@@std@@@2@XZ ; std::_Compressed_pair<std::allocator<std::_List_node<GraveMarkers::GraveRecord,void *> >,std::_List_val<std::_List_simple_types<GraveMarkers::GraveRecord> >,1>::_Get_second
PUBLIC	?_Freenode@?$_List_buy@UGraveRecord@GraveMarkers@@V?$allocator@UGraveRecord@GraveMarkers@@@std@@@std@@QAEXPAU?$_List_node@UGraveRecord@GraveMarkers@@PAX@2@@Z ; std::_List_buy<GraveMarkers::GraveRecord,std::allocator<GraveMarkers::GraveRecord> >::_Freenode
PUBLIC	??1?$_List_buy@UGraveRecord@GraveMarkers@@V?$allocator@UGraveRecord@GraveMarkers@@@std@@@std@@QAE@XZ ; std::_List_buy<GraveMarkers::GraveRecord,std::allocator<GraveMarkers::GraveRecord> >::~_List_buy<GraveMarkers::GraveRecord,std::allocator<GraveMarkers::GraveRecord> >
PUBLIC	??1?$list@UGraveRecord@GraveMarkers@@V?$allocator@UGraveRecord@GraveMarkers@@@std@@@std@@QAE@XZ ; std::list<GraveMarkers::GraveRecord,std::allocator<GraveMarkers::GraveRecord> >::~list<GraveMarkers::GraveRecord,std::allocator<GraveMarkers::GraveRecord> >
PUBLIC	?clear@?$list@UGraveRecord@GraveMarkers@@V?$allocator@UGraveRecord@GraveMarkers@@@std@@@std@@QAEXXZ ; std::list<GraveMarkers::GraveRecord,std::allocator<GraveMarkers::GraveRecord> >::clear
PUBLIC	?_Tidy@?$list@UGraveRecord@GraveMarkers@@V?$allocator@UGraveRecord@GraveMarkers@@@std@@@std@@QAEXXZ ; std::list<GraveMarkers::GraveRecord,std::allocator<GraveMarkers::GraveRecord> >::_Tidy
PUBLIC	?_Orphan_ptr@?$list@UGraveRecord@GraveMarkers@@V?$allocator@UGraveRecord@GraveMarkers@@@std@@@std@@QAEXPAU?$_List_node@UGraveRecord@GraveMarkers@@PAX@2@@Z ; std::list<GraveMarkers::GraveRecord,std::allocator<GraveMarkers::GraveRecord> >::_Orphan_ptr
PUBLIC	??1GraveMarkers@@QAE@XZ				; GraveMarkers::~GraveMarkers
PUBLIC	??_GGraveMarkers@@QAEPAXI@Z			; GraveMarkers::`scalar deleting destructor'
PUBLIC	?isDead@Raven_Projectile@@QBE_NXZ		; Raven_Projectile::isDead
PUBLIC	?deallocate@?$_Default_allocator_traits@V?$allocator@U?$_List_node@PAV?$Goal@VRaven_Bot@@@@PAX@std@@@std@@@std@@SAXAAV?$allocator@U?$_List_node@PAV?$Goal@VRaven_Bot@@@@PAX@std@@@2@QAU?$_List_node@PAV?$Goal@VRaven_Bot@@@@PAX@2@I@Z ; std::_Default_allocator_traits<std::allocator<std::_List_node<Goal<Raven_Bot> *,void *> > >::deallocate
PUBLIC	?_Getpfirst@?$_List_alloc@U?$_List_base_types@PAV?$Goal@VRaven_Bot@@@@V?$allocator@PAV?$Goal@VRaven_Bot@@@@@std@@@std@@@std@@QBEPAPAU_Iterator_base12@2@XZ ; std::_List_alloc<std::_List_base_types<Goal<Raven_Bot> *,std::allocator<Goal<Raven_Bot> *> > >::_Getpfirst
PUBLIC	?_Getal@?$_List_alloc@U?$_List_base_types@PAV?$Goal@VRaven_Bot@@@@V?$allocator@PAV?$Goal@VRaven_Bot@@@@@std@@@std@@@std@@QAEAAV?$allocator@U?$_List_node@PAV?$Goal@VRaven_Bot@@@@PAX@std@@@2@XZ ; std::_List_alloc<std::_List_base_types<Goal<Raven_Bot> *,std::allocator<Goal<Raven_Bot> *> > >::_Getal
PUBLIC	?_Get_data@?$_List_alloc@U?$_List_base_types@PAV?$Goal@VRaven_Bot@@@@V?$allocator@PAV?$Goal@VRaven_Bot@@@@@std@@@std@@@std@@QAEAAV?$_List_val@U?$_List_simple_types@PAV?$Goal@VRaven_Bot@@@@@std@@@2@XZ ; std::_List_alloc<std::_List_base_types<Goal<Raven_Bot> *,std::allocator<Goal<Raven_Bot> *> > >::_Get_data
PUBLIC	?_Get_data@?$_List_alloc@U?$_List_base_types@PAV?$Goal@VRaven_Bot@@@@V?$allocator@PAV?$Goal@VRaven_Bot@@@@@std@@@std@@@std@@QBEABV?$_List_val@U?$_List_simple_types@PAV?$Goal@VRaven_Bot@@@@@std@@@2@XZ ; std::_List_alloc<std::_List_base_types<Goal<Raven_Bot> *,std::allocator<Goal<Raven_Bot> *> > >::_Get_data
PUBLIC	?_Myhead@?$_List_alloc@U?$_List_base_types@PAV?$Goal@VRaven_Bot@@@@V?$allocator@PAV?$Goal@VRaven_Bot@@@@@std@@@std@@@std@@QAEAAPAU?$_List_node@PAV?$Goal@VRaven_Bot@@@@PAX@2@XZ ; std::_List_alloc<std::_List_base_types<Goal<Raven_Bot> *,std::allocator<Goal<Raven_Bot> *> > >::_Myhead
PUBLIC	?_Mysize@?$_List_alloc@U?$_List_base_types@PAV?$Goal@VRaven_Bot@@@@V?$allocator@PAV?$Goal@VRaven_Bot@@@@@std@@@std@@@std@@QAEAAIXZ ; std::_List_alloc<std::_List_base_types<Goal<Raven_Bot> *,std::allocator<Goal<Raven_Bot> *> > >::_Mysize
PUBLIC	?_Get_first@?$_Compressed_pair@V?$allocator@U?$_List_node@PAV?$Goal@VRaven_Bot@@@@PAX@std@@@std@@V?$_List_val@U?$_List_simple_types@PAV?$Goal@VRaven_Bot@@@@@std@@@2@$00@std@@QAEAAV?$allocator@U?$_List_node@PAV?$Goal@VRaven_Bot@@@@PAX@std@@@2@XZ ; std::_Compressed_pair<std::allocator<std::_List_node<Goal<Raven_Bot> *,void *> >,std::_List_val<std::_List_simple_types<Goal<Raven_Bot> *> >,1>::_Get_first
PUBLIC	?_Get_second@?$_Compressed_pair@V?$allocator@U?$_List_node@PAV?$Goal@VRaven_Bot@@@@PAX@std@@@std@@V?$_List_val@U?$_List_simple_types@PAV?$Goal@VRaven_Bot@@@@@std@@@2@$00@std@@QAEAAV?$_List_val@U?$_List_simple_types@PAV?$Goal@VRaven_Bot@@@@@std@@@2@XZ ; std::_Compressed_pair<std::allocator<std::_List_node<Goal<Raven_Bot> *,void *> >,std::_List_val<std::_List_simple_types<Goal<Raven_Bot> *> >,1>::_Get_second
PUBLIC	?_Get_second@?$_Compressed_pair@V?$allocator@U?$_List_node@PAV?$Goal@VRaven_Bot@@@@PAX@std@@@std@@V?$_List_val@U?$_List_simple_types@PAV?$Goal@VRaven_Bot@@@@@std@@@2@$00@std@@QBEABV?$_List_val@U?$_List_simple_types@PAV?$Goal@VRaven_Bot@@@@@std@@@2@XZ ; std::_Compressed_pair<std::allocator<std::_List_node<Goal<Raven_Bot> *,void *> >,std::_List_val<std::_List_simple_types<Goal<Raven_Bot> *> >,1>::_Get_second
PUBLIC	?_Freenode@?$_List_buy@PAV?$Goal@VRaven_Bot@@@@V?$allocator@PAV?$Goal@VRaven_Bot@@@@@std@@@std@@QAEXPAU?$_List_node@PAV?$Goal@VRaven_Bot@@@@PAX@2@@Z ; std::_List_buy<Goal<Raven_Bot> *,std::allocator<Goal<Raven_Bot> *> >::_Freenode
PUBLIC	?begin@?$list@PAV?$Goal@VRaven_Bot@@@@V?$allocator@PAV?$Goal@VRaven_Bot@@@@@std@@@std@@QAE?AV?$_List_iterator@V?$_List_val@U?$_List_simple_types@PAV?$Goal@VRaven_Bot@@@@@std@@@std@@@2@XZ ; std::list<Goal<Raven_Bot> *,std::allocator<Goal<Raven_Bot> *> >::begin
PUBLIC	?end@?$list@PAV?$Goal@VRaven_Bot@@@@V?$allocator@PAV?$Goal@VRaven_Bot@@@@@std@@@std@@QAE?AV?$_List_iterator@V?$_List_val@U?$_List_simple_types@PAV?$Goal@VRaven_Bot@@@@@std@@@std@@@2@XZ ; std::list<Goal<Raven_Bot> *,std::allocator<Goal<Raven_Bot> *> >::end
PUBLIC	?clear@?$list@PAV?$Goal@VRaven_Bot@@@@V?$allocator@PAV?$Goal@VRaven_Bot@@@@@std@@@std@@QAEXXZ ; std::list<Goal<Raven_Bot> *,std::allocator<Goal<Raven_Bot> *> >::clear
PUBLIC	?_Orphan_ptr@?$list@PAV?$Goal@VRaven_Bot@@@@V?$allocator@PAV?$Goal@VRaven_Bot@@@@@std@@@std@@QAEXPAU?$_List_node@PAV?$Goal@VRaven_Bot@@@@PAX@2@@Z ; std::list<Goal<Raven_Bot> *,std::allocator<Goal<Raven_Bot> *> >::_Orphan_ptr
PUBLIC	?RemoveAllSubgoals@?$Goal_Composite@VRaven_Bot@@@@QAEXXZ ; Goal_Composite<Raven_Bot>::RemoveAllSubgoals
PUBLIC	??0?$allocator@U?$_List_node@PAVRaven_PathPlanner@@PAX@std@@@std@@QAE@XZ ; std::allocator<std::_List_node<Raven_PathPlanner *,void *> >::allocator<std::_List_node<Raven_PathPlanner *,void *> >
PUBLIC	?deallocate@?$allocator@U?$_List_node@PAVRaven_PathPlanner@@PAX@std@@@std@@QAEXQAU?$_List_node@PAVRaven_PathPlanner@@PAX@2@I@Z ; std::allocator<std::_List_node<Raven_PathPlanner *,void *> >::deallocate
PUBLIC	?allocate@?$allocator@U?$_List_node@PAVRaven_PathPlanner@@PAX@std@@@std@@QAEPAU?$_List_node@PAVRaven_PathPlanner@@PAX@2@I@Z ; std::allocator<std::_List_node<Raven_PathPlanner *,void *> >::allocate
PUBLIC	?deallocate@?$_Default_allocator_traits@V?$allocator@U?$_List_node@PAVRaven_PathPlanner@@PAX@std@@@std@@@std@@SAXAAV?$allocator@U?$_List_node@PAVRaven_PathPlanner@@PAX@std@@@2@QAU?$_List_node@PAVRaven_PathPlanner@@PAX@2@I@Z ; std::_Default_allocator_traits<std::allocator<std::_List_node<Raven_PathPlanner *,void *> > >::deallocate
PUBLIC	??0?$_List_alloc@U?$_List_base_types@PAVRaven_PathPlanner@@V?$allocator@PAVRaven_PathPlanner@@@std@@@std@@@std@@QAE@XZ ; std::_List_alloc<std::_List_base_types<Raven_PathPlanner *,std::allocator<Raven_PathPlanner *> > >::_List_alloc<std::_List_base_types<Raven_PathPlanner *,std::allocator<Raven_PathPlanner *> > >
PUBLIC	??1?$_List_alloc@U?$_List_base_types@PAVRaven_PathPlanner@@V?$allocator@PAVRaven_PathPlanner@@@std@@@std@@@std@@QAE@XZ ; std::_List_alloc<std::_List_base_types<Raven_PathPlanner *,std::allocator<Raven_PathPlanner *> > >::~_List_alloc<std::_List_base_types<Raven_PathPlanner *,std::allocator<Raven_PathPlanner *> > >
PUBLIC	?_Alloc_proxy@?$_List_alloc@U?$_List_base_types@PAVRaven_PathPlanner@@V?$allocator@PAVRaven_PathPlanner@@@std@@@std@@@std@@QAEXXZ ; std::_List_alloc<std::_List_base_types<Raven_PathPlanner *,std::allocator<Raven_PathPlanner *> > >::_Alloc_proxy
PUBLIC	?_Free_proxy@?$_List_alloc@U?$_List_base_types@PAVRaven_PathPlanner@@V?$allocator@PAVRaven_PathPlanner@@@std@@@std@@@std@@QAEXXZ ; std::_List_alloc<std::_List_base_types<Raven_PathPlanner *,std::allocator<Raven_PathPlanner *> > >::_Free_proxy
PUBLIC	?_Getpfirst@?$_List_alloc@U?$_List_base_types@PAVRaven_PathPlanner@@V?$allocator@PAVRaven_PathPlanner@@@std@@@std@@@std@@QBEPAPAU_Iterator_base12@2@XZ ; std::_List_alloc<std::_List_base_types<Raven_PathPlanner *,std::allocator<Raven_PathPlanner *> > >::_Getpfirst
PUBLIC	?_Myproxy@?$_List_alloc@U?$_List_base_types@PAVRaven_PathPlanner@@V?$allocator@PAVRaven_PathPlanner@@@std@@@std@@@std@@QAEAAPAU_Container_proxy@2@XZ ; std::_List_alloc<std::_List_base_types<Raven_PathPlanner *,std::allocator<Raven_PathPlanner *> > >::_Myproxy
PUBLIC	?_Buyheadnode@?$_List_alloc@U?$_List_base_types@PAVRaven_PathPlanner@@V?$allocator@PAVRaven_PathPlanner@@@std@@@std@@@std@@QAEPAU?$_List_node@PAVRaven_PathPlanner@@PAX@2@XZ ; std::_List_alloc<std::_List_base_types<Raven_PathPlanner *,std::allocator<Raven_PathPlanner *> > >::_Buyheadnode
PUBLIC	?_Freeheadnode@?$_List_alloc@U?$_List_base_types@PAVRaven_PathPlanner@@V?$allocator@PAVRaven_PathPlanner@@@std@@@std@@@std@@QAEXPAU?$_List_node@PAVRaven_PathPlanner@@PAX@2@@Z ; std::_List_alloc<std::_List_base_types<Raven_PathPlanner *,std::allocator<Raven_PathPlanner *> > >::_Freeheadnode
PUBLIC	?_Buynode0@?$_List_alloc@U?$_List_base_types@PAVRaven_PathPlanner@@V?$allocator@PAVRaven_PathPlanner@@@std@@@std@@@std@@QAEPAU?$_List_node@PAVRaven_PathPlanner@@PAX@2@PAU32@0@Z ; std::_List_alloc<std::_List_base_types<Raven_PathPlanner *,std::allocator<Raven_PathPlanner *> > >::_Buynode0
PUBLIC	?_Orphan_all@?$_List_alloc@U?$_List_base_types@PAVRaven_PathPlanner@@V?$allocator@PAVRaven_PathPlanner@@@std@@@std@@@std@@QAEXXZ ; std::_List_alloc<std::_List_base_types<Raven_PathPlanner *,std::allocator<Raven_PathPlanner *> > >::_Orphan_all
PUBLIC	?_Getal@?$_List_alloc@U?$_List_base_types@PAVRaven_PathPlanner@@V?$allocator@PAVRaven_PathPlanner@@@std@@@std@@@std@@QAEAAV?$allocator@U?$_List_node@PAVRaven_PathPlanner@@PAX@std@@@2@XZ ; std::_List_alloc<std::_List_base_types<Raven_PathPlanner *,std::allocator<Raven_PathPlanner *> > >::_Getal
PUBLIC	?_Get_data@?$_List_alloc@U?$_List_base_types@PAVRaven_PathPlanner@@V?$allocator@PAVRaven_PathPlanner@@@std@@@std@@@std@@QAEAAV?$_List_val@U?$_List_simple_types@PAVRaven_PathPlanner@@@std@@@2@XZ ; std::_List_alloc<std::_List_base_types<Raven_PathPlanner *,std::allocator<Raven_PathPlanner *> > >::_Get_data
PUBLIC	?_Get_data@?$_List_alloc@U?$_List_base_types@PAVRaven_PathPlanner@@V?$allocator@PAVRaven_PathPlanner@@@std@@@std@@@std@@QBEABV?$_List_val@U?$_List_simple_types@PAVRaven_PathPlanner@@@std@@@2@XZ ; std::_List_alloc<std::_List_base_types<Raven_PathPlanner *,std::allocator<Raven_PathPlanner *> > >::_Get_data
PUBLIC	?_Myhead@?$_List_alloc@U?$_List_base_types@PAVRaven_PathPlanner@@V?$allocator@PAVRaven_PathPlanner@@@std@@@std@@@std@@QAEAAPAU?$_List_node@PAVRaven_PathPlanner@@PAX@2@XZ ; std::_List_alloc<std::_List_base_types<Raven_PathPlanner *,std::allocator<Raven_PathPlanner *> > >::_Myhead
PUBLIC	?_Mysize@?$_List_alloc@U?$_List_base_types@PAVRaven_PathPlanner@@V?$allocator@PAVRaven_PathPlanner@@@std@@@std@@@std@@QAEAAIXZ ; std::_List_alloc<std::_List_base_types<Raven_PathPlanner *,std::allocator<Raven_PathPlanner *> > >::_Mysize
PUBLIC	?_Mysize@?$_List_alloc@U?$_List_base_types@PAVRaven_PathPlanner@@V?$allocator@PAVRaven_PathPlanner@@@std@@@std@@@std@@QBEABIXZ ; std::_List_alloc<std::_List_base_types<Raven_PathPlanner *,std::allocator<Raven_PathPlanner *> > >::_Mysize
PUBLIC	??0?$_List_val@U?$_List_simple_types@PAVRaven_PathPlanner@@@std@@@std@@QAE@XZ ; std::_List_val<std::_List_simple_types<Raven_PathPlanner *> >::_List_val<std::_List_simple_types<Raven_PathPlanner *> >
PUBLIC	?_Get_first@?$_Compressed_pair@V?$allocator@U?$_List_node@PAVRaven_PathPlanner@@PAX@std@@@std@@V?$_List_val@U?$_List_simple_types@PAVRaven_PathPlanner@@@std@@@2@$00@std@@QAEAAV?$allocator@U?$_List_node@PAVRaven_PathPlanner@@PAX@std@@@2@XZ ; std::_Compressed_pair<std::allocator<std::_List_node<Raven_PathPlanner *,void *> >,std::_List_val<std::_List_simple_types<Raven_PathPlanner *> >,1>::_Get_first
PUBLIC	?_Get_second@?$_Compressed_pair@V?$allocator@U?$_List_node@PAVRaven_PathPlanner@@PAX@std@@@std@@V?$_List_val@U?$_List_simple_types@PAVRaven_PathPlanner@@@std@@@2@$00@std@@QAEAAV?$_List_val@U?$_List_simple_types@PAVRaven_PathPlanner@@@std@@@2@XZ ; std::_Compressed_pair<std::allocator<std::_List_node<Raven_PathPlanner *,void *> >,std::_List_val<std::_List_simple_types<Raven_PathPlanner *> >,1>::_Get_second
PUBLIC	?_Get_second@?$_Compressed_pair@V?$allocator@U?$_List_node@PAVRaven_PathPlanner@@PAX@std@@@std@@V?$_List_val@U?$_List_simple_types@PAVRaven_PathPlanner@@@std@@@2@$00@std@@QBEABV?$_List_val@U?$_List_simple_types@PAVRaven_PathPlanner@@@std@@@2@XZ ; std::_Compressed_pair<std::allocator<std::_List_node<Raven_PathPlanner *,void *> >,std::_List_val<std::_List_simple_types<Raven_PathPlanner *> >,1>::_Get_second
PUBLIC	??0?$_List_buy@PAVRaven_PathPlanner@@V?$allocator@PAVRaven_PathPlanner@@@std@@@std@@QAE@XZ ; std::_List_buy<Raven_PathPlanner *,std::allocator<Raven_PathPlanner *> >::_List_buy<Raven_PathPlanner *,std::allocator<Raven_PathPlanner *> >
PUBLIC	?_Freenode@?$_List_buy@PAVRaven_PathPlanner@@V?$allocator@PAVRaven_PathPlanner@@@std@@@std@@QAEXPAU?$_List_node@PAVRaven_PathPlanner@@PAX@2@@Z ; std::_List_buy<Raven_PathPlanner *,std::allocator<Raven_PathPlanner *> >::_Freenode
PUBLIC	??1?$_List_buy@PAVRaven_PathPlanner@@V?$allocator@PAVRaven_PathPlanner@@@std@@@std@@QAE@XZ ; std::_List_buy<Raven_PathPlanner *,std::allocator<Raven_PathPlanner *> >::~_List_buy<Raven_PathPlanner *,std::allocator<Raven_PathPlanner *> >
PUBLIC	??0?$list@PAVRaven_PathPlanner@@V?$allocator@PAVRaven_PathPlanner@@@std@@@std@@QAE@XZ ; std::list<Raven_PathPlanner *,std::allocator<Raven_PathPlanner *> >::list<Raven_PathPlanner *,std::allocator<Raven_PathPlanner *> >
PUBLIC	??1?$list@PAVRaven_PathPlanner@@V?$allocator@PAVRaven_PathPlanner@@@std@@@std@@QAE@XZ ; std::list<Raven_PathPlanner *,std::allocator<Raven_PathPlanner *> >::~list<Raven_PathPlanner *,std::allocator<Raven_PathPlanner *> >
PUBLIC	?begin@?$list@PAVRaven_PathPlanner@@V?$allocator@PAVRaven_PathPlanner@@@std@@@std@@QAE?AV?$_List_iterator@V?$_List_val@U?$_List_simple_types@PAVRaven_PathPlanner@@@std@@@std@@@2@XZ ; std::list<Raven_PathPlanner *,std::allocator<Raven_PathPlanner *> >::begin
PUBLIC	?end@?$list@PAVRaven_PathPlanner@@V?$allocator@PAVRaven_PathPlanner@@@std@@@std@@QAE?AV?$_List_iterator@V?$_List_val@U?$_List_simple_types@PAVRaven_PathPlanner@@@std@@@std@@@2@XZ ; std::list<Raven_PathPlanner *,std::allocator<Raven_PathPlanner *> >::end
PUBLIC	?_Make_iter@?$list@PAVRaven_PathPlanner@@V?$allocator@PAVRaven_PathPlanner@@@std@@@std@@QBE?AV?$_List_iterator@V?$_List_val@U?$_List_simple_types@PAVRaven_PathPlanner@@@std@@@std@@@2@V?$_List_const_iterator@V?$_List_val@U?$_List_simple_types@PAVRaven_PathPlanner@@@std@@@std@@@2@@Z ; std::list<Raven_PathPlanner *,std::allocator<Raven_PathPlanner *> >::_Make_iter
PUBLIC	?empty@?$list@PAVRaven_PathPlanner@@V?$allocator@PAVRaven_PathPlanner@@@std@@@std@@QBE_NXZ ; std::list<Raven_PathPlanner *,std::allocator<Raven_PathPlanner *> >::empty
PUBLIC	?_Unlinknode@?$list@PAVRaven_PathPlanner@@V?$allocator@PAVRaven_PathPlanner@@@std@@@std@@QAEPAU?$_List_node@PAVRaven_PathPlanner@@PAX@2@V?$_List_const_iterator@V?$_List_val@U?$_List_simple_types@PAVRaven_PathPlanner@@@std@@@std@@@2@@Z ; std::list<Raven_PathPlanner *,std::allocator<Raven_PathPlanner *> >::_Unlinknode
PUBLIC	?erase@?$list@PAVRaven_PathPlanner@@V?$allocator@PAVRaven_PathPlanner@@@std@@@std@@QAE?AV?$_List_iterator@V?$_List_val@U?$_List_simple_types@PAVRaven_PathPlanner@@@std@@@std@@@2@V?$_List_const_iterator@V?$_List_val@U?$_List_simple_types@PAVRaven_PathPlanner@@@std@@@std@@@2@@Z ; std::list<Raven_PathPlanner *,std::allocator<Raven_PathPlanner *> >::erase
PUBLIC	?clear@?$list@PAVRaven_PathPlanner@@V?$allocator@PAVRaven_PathPlanner@@@std@@@std@@QAEXXZ ; std::list<Raven_PathPlanner *,std::allocator<Raven_PathPlanner *> >::clear
PUBLIC	?_Tidy@?$list@PAVRaven_PathPlanner@@V?$allocator@PAVRaven_PathPlanner@@@std@@@std@@QAEXXZ ; std::list<Raven_PathPlanner *,std::allocator<Raven_PathPlanner *> >::_Tidy
PUBLIC	?_Orphan_ptr@?$list@PAVRaven_PathPlanner@@V?$allocator@PAVRaven_PathPlanner@@@std@@@std@@QAEXPAU?$_List_node@PAVRaven_PathPlanner@@PAX@2@@Z ; std::list<Raven_PathPlanner *,std::allocator<Raven_PathPlanner *> >::_Orphan_ptr
PUBLIC	??0?$PathManager@VRaven_PathPlanner@@@@QAE@I@Z	; PathManager<Raven_PathPlanner>::PathManager<Raven_PathPlanner>
PUBLIC	?UpdateSearches@?$PathManager@VRaven_PathPlanner@@@@QAEXXZ ; PathManager<Raven_PathPlanner>::UpdateSearches
PUBLIC	??1?$PathManager@VRaven_PathPlanner@@@@QAE@XZ	; PathManager<Raven_PathPlanner>::~PathManager<Raven_PathPlanner>
PUBLIC	??_G?$PathManager@VRaven_PathPlanner@@@@QAEPAXI@Z ; PathManager<Raven_PathPlanner>::`scalar deleting destructor'
PUBLIC	??0?$_List_unchecked_const_iterator@V?$_List_val@U?$_List_simple_types@PAVRaven_Bot@@@std@@@std@@U_Iterator_base12@2@@std@@QAE@PAU?$_List_node@PAVRaven_Bot@@PAX@1@PBV?$_List_val@U?$_List_simple_types@PAVRaven_Bot@@@std@@@1@@Z ; std::_List_unchecked_const_iterator<std::_List_val<std::_List_simple_types<Raven_Bot *> >,std::_Iterator_base12>::_List_unchecked_const_iterator<std::_List_val<std::_List_simple_types<Raven_Bot *> >,std::_Iterator_base12>
PUBLIC	??1?$_List_unchecked_const_iterator@V?$_List_val@U?$_List_simple_types@PAVRaven_Bot@@@std@@@std@@U_Iterator_base12@2@@std@@QAE@XZ ; std::_List_unchecked_const_iterator<std::_List_val<std::_List_simple_types<Raven_Bot *> >,std::_Iterator_base12>::~_List_unchecked_const_iterator<std::_List_val<std::_List_simple_types<Raven_Bot *> >,std::_Iterator_base12>
PUBLIC	??0?$_List_unchecked_const_iterator@V?$_List_val@U?$_List_simple_types@PAVRaven_Bot@@@std@@@std@@U_Iterator_base12@2@@std@@QAE@ABV01@@Z ; std::_List_unchecked_const_iterator<std::_List_val<std::_List_simple_types<Raven_Bot *> >,std::_Iterator_base12>::_List_unchecked_const_iterator<std::_List_val<std::_List_simple_types<Raven_Bot *> >,std::_Iterator_base12>
PUBLIC	??0?$_List_unchecked_const_iterator@V?$_List_val@U?$_List_simple_types@PAVRaven_Bot@@@std@@@std@@U_Iterator_base12@2@@std@@QAE@$$QAV01@@Z ; std::_List_unchecked_const_iterator<std::_List_val<std::_List_simple_types<Raven_Bot *> >,std::_Iterator_base12>::_List_unchecked_const_iterator<std::_List_val<std::_List_simple_types<Raven_Bot *> >,std::_Iterator_base12>
PUBLIC	??0?$_List_const_iterator@V?$_List_val@U?$_List_simple_types@PAVRaven_Bot@@@std@@@std@@@std@@QAE@PAU?$_List_node@PAVRaven_Bot@@PAX@1@PBV?$_List_val@U?$_List_simple_types@PAVRaven_Bot@@@std@@@1@@Z ; std::_List_const_iterator<std::_List_val<std::_List_simple_types<Raven_Bot *> > >::_List_const_iterator<std::_List_val<std::_List_simple_types<Raven_Bot *> > >
PUBLIC	??D?$_List_const_iterator@V?$_List_val@U?$_List_simple_types@PAVRaven_Bot@@@std@@@std@@@std@@QBEABQAVRaven_Bot@@XZ ; std::_List_const_iterator<std::_List_val<std::_List_simple_types<Raven_Bot *> > >::operator*
PUBLIC	??E?$_List_const_iterator@V?$_List_val@U?$_List_simple_types@PAVRaven_Bot@@@std@@@std@@@std@@QAEAAV01@XZ ; std::_List_const_iterator<std::_List_val<std::_List_simple_types<Raven_Bot *> > >::operator++
PUBLIC	??E?$_List_const_iterator@V?$_List_val@U?$_List_simple_types@PAVRaven_Bot@@@std@@@std@@@std@@QAE?AV01@H@Z ; std::_List_const_iterator<std::_List_val<std::_List_simple_types<Raven_Bot *> > >::operator++
PUBLIC	??F?$_List_const_iterator@V?$_List_val@U?$_List_simple_types@PAVRaven_Bot@@@std@@@std@@@std@@QAEAAV01@XZ ; std::_List_const_iterator<std::_List_val<std::_List_simple_types<Raven_Bot *> > >::operator--
PUBLIC	??8?$_List_const_iterator@V?$_List_val@U?$_List_simple_types@PAVRaven_Bot@@@std@@@std@@@std@@QBE_NABV01@@Z ; std::_List_const_iterator<std::_List_val<std::_List_simple_types<Raven_Bot *> > >::operator==
PUBLIC	??9?$_List_const_iterator@V?$_List_val@U?$_List_simple_types@PAVRaven_Bot@@@std@@@std@@@std@@QBE_NABV01@@Z ; std::_List_const_iterator<std::_List_val<std::_List_simple_types<Raven_Bot *> > >::operator!=
PUBLIC	??1?$_List_const_iterator@V?$_List_val@U?$_List_simple_types@PAVRaven_Bot@@@std@@@std@@@std@@QAE@XZ ; std::_List_const_iterator<std::_List_val<std::_List_simple_types<Raven_Bot *> > >::~_List_const_iterator<std::_List_val<std::_List_simple_types<Raven_Bot *> > >
PUBLIC	??0?$_List_const_iterator@V?$_List_val@U?$_List_simple_types@PAVRaven_Bot@@@std@@@std@@@std@@QAE@ABV01@@Z ; std::_List_const_iterator<std::_List_val<std::_List_simple_types<Raven_Bot *> > >::_List_const_iterator<std::_List_val<std::_List_simple_types<Raven_Bot *> > >
PUBLIC	??0?$_List_const_iterator@V?$_List_val@U?$_List_simple_types@PAVRaven_Bot@@@std@@@std@@@std@@QAE@$$QAV01@@Z ; std::_List_const_iterator<std::_List_val<std::_List_simple_types<Raven_Bot *> > >::_List_const_iterator<std::_List_val<std::_List_simple_types<Raven_Bot *> > >
PUBLIC	??0?$_List_iterator@V?$_List_val@U?$_List_simple_types@PAVRaven_Bot@@@std@@@std@@@std@@QAE@PAU?$_List_node@PAVRaven_Bot@@PAX@1@PBV?$_List_val@U?$_List_simple_types@PAVRaven_Bot@@@std@@@1@@Z ; std::_List_iterator<std::_List_val<std::_List_simple_types<Raven_Bot *> > >::_List_iterator<std::_List_val<std::_List_simple_types<Raven_Bot *> > >
PUBLIC	??D?$_List_iterator@V?$_List_val@U?$_List_simple_types@PAVRaven_Bot@@@std@@@std@@@std@@QBEAAPAVRaven_Bot@@XZ ; std::_List_iterator<std::_List_val<std::_List_simple_types<Raven_Bot *> > >::operator*
PUBLIC	??E?$_List_iterator@V?$_List_val@U?$_List_simple_types@PAVRaven_Bot@@@std@@@std@@@std@@QAEAAV01@XZ ; std::_List_iterator<std::_List_val<std::_List_simple_types<Raven_Bot *> > >::operator++
PUBLIC	??F?$_List_iterator@V?$_List_val@U?$_List_simple_types@PAVRaven_Bot@@@std@@@std@@@std@@QAEAAV01@XZ ; std::_List_iterator<std::_List_val<std::_List_simple_types<Raven_Bot *> > >::operator--
PUBLIC	??1?$_List_iterator@V?$_List_val@U?$_List_simple_types@PAVRaven_Bot@@@std@@@std@@@std@@QAE@XZ ; std::_List_iterator<std::_List_val<std::_List_simple_types<Raven_Bot *> > >::~_List_iterator<std::_List_val<std::_List_simple_types<Raven_Bot *> > >
PUBLIC	??0?$_List_unchecked_const_iterator@V?$_List_val@U?$_List_simple_types@PAVRaven_Projectile@@@std@@@std@@U_Iterator_base12@2@@std@@QAE@PAU?$_List_node@PAVRaven_Projectile@@PAX@1@PBV?$_List_val@U?$_List_simple_types@PAVRaven_Projectile@@@std@@@1@@Z ; std::_List_unchecked_const_iterator<std::_List_val<std::_List_simple_types<Raven_Projectile *> >,std::_Iterator_base12>::_List_unchecked_const_iterator<std::_List_val<std::_List_simple_types<Raven_Projectile *> >,std::_Iterator_base12>
PUBLIC	??1?$_List_unchecked_const_iterator@V?$_List_val@U?$_List_simple_types@PAVRaven_Projectile@@@std@@@std@@U_Iterator_base12@2@@std@@QAE@XZ ; std::_List_unchecked_const_iterator<std::_List_val<std::_List_simple_types<Raven_Projectile *> >,std::_Iterator_base12>::~_List_unchecked_const_iterator<std::_List_val<std::_List_simple_types<Raven_Projectile *> >,std::_Iterator_base12>
PUBLIC	??0?$_List_unchecked_const_iterator@V?$_List_val@U?$_List_simple_types@PAVRaven_Projectile@@@std@@@std@@U_Iterator_base12@2@@std@@QAE@ABV01@@Z ; std::_List_unchecked_const_iterator<std::_List_val<std::_List_simple_types<Raven_Projectile *> >,std::_Iterator_base12>::_List_unchecked_const_iterator<std::_List_val<std::_List_simple_types<Raven_Projectile *> >,std::_Iterator_base12>
PUBLIC	??0?$_List_unchecked_const_iterator@V?$_List_val@U?$_List_simple_types@PAVRaven_Projectile@@@std@@@std@@U_Iterator_base12@2@@std@@QAE@$$QAV01@@Z ; std::_List_unchecked_const_iterator<std::_List_val<std::_List_simple_types<Raven_Projectile *> >,std::_Iterator_base12>::_List_unchecked_const_iterator<std::_List_val<std::_List_simple_types<Raven_Projectile *> >,std::_Iterator_base12>
PUBLIC	??4?$_List_unchecked_const_iterator@V?$_List_val@U?$_List_simple_types@PAVRaven_Projectile@@@std@@@std@@U_Iterator_base12@2@@std@@QAEAAV01@$$QAV01@@Z ; std::_List_unchecked_const_iterator<std::_List_val<std::_List_simple_types<Raven_Projectile *> >,std::_Iterator_base12>::operator=
PUBLIC	??0?$_List_const_iterator@V?$_List_val@U?$_List_simple_types@PAVRaven_Projectile@@@std@@@std@@@std@@QAE@PAU?$_List_node@PAVRaven_Projectile@@PAX@1@PBV?$_List_val@U?$_List_simple_types@PAVRaven_Projectile@@@std@@@1@@Z ; std::_List_const_iterator<std::_List_val<std::_List_simple_types<Raven_Projectile *> > >::_List_const_iterator<std::_List_val<std::_List_simple_types<Raven_Projectile *> > >
PUBLIC	??D?$_List_const_iterator@V?$_List_val@U?$_List_simple_types@PAVRaven_Projectile@@@std@@@std@@@std@@QBEABQAVRaven_Projectile@@XZ ; std::_List_const_iterator<std::_List_val<std::_List_simple_types<Raven_Projectile *> > >::operator*
PUBLIC	??E?$_List_const_iterator@V?$_List_val@U?$_List_simple_types@PAVRaven_Projectile@@@std@@@std@@@std@@QAEAAV01@XZ ; std::_List_const_iterator<std::_List_val<std::_List_simple_types<Raven_Projectile *> > >::operator++
PUBLIC	??E?$_List_const_iterator@V?$_List_val@U?$_List_simple_types@PAVRaven_Projectile@@@std@@@std@@@std@@QAE?AV01@H@Z ; std::_List_const_iterator<std::_List_val<std::_List_simple_types<Raven_Projectile *> > >::operator++
PUBLIC	??8?$_List_const_iterator@V?$_List_val@U?$_List_simple_types@PAVRaven_Projectile@@@std@@@std@@@std@@QBE_NABV01@@Z ; std::_List_const_iterator<std::_List_val<std::_List_simple_types<Raven_Projectile *> > >::operator==
PUBLIC	??9?$_List_const_iterator@V?$_List_val@U?$_List_simple_types@PAVRaven_Projectile@@@std@@@std@@@std@@QBE_NABV01@@Z ; std::_List_const_iterator<std::_List_val<std::_List_simple_types<Raven_Projectile *> > >::operator!=
PUBLIC	??1?$_List_const_iterator@V?$_List_val@U?$_List_simple_types@PAVRaven_Projectile@@@std@@@std@@@std@@QAE@XZ ; std::_List_const_iterator<std::_List_val<std::_List_simple_types<Raven_Projectile *> > >::~_List_const_iterator<std::_List_val<std::_List_simple_types<Raven_Projectile *> > >
PUBLIC	??0?$_List_const_iterator@V?$_List_val@U?$_List_simple_types@PAVRaven_Projectile@@@std@@@std@@@std@@QAE@ABV01@@Z ; std::_List_const_iterator<std::_List_val<std::_List_simple_types<Raven_Projectile *> > >::_List_const_iterator<std::_List_val<std::_List_simple_types<Raven_Projectile *> > >
PUBLIC	??0?$_List_const_iterator@V?$_List_val@U?$_List_simple_types@PAVRaven_Projectile@@@std@@@std@@@std@@QAE@$$QAV01@@Z ; std::_List_const_iterator<std::_List_val<std::_List_simple_types<Raven_Projectile *> > >::_List_const_iterator<std::_List_val<std::_List_simple_types<Raven_Projectile *> > >
PUBLIC	??4?$_List_const_iterator@V?$_List_val@U?$_List_simple_types@PAVRaven_Projectile@@@std@@@std@@@std@@QAEAAV01@$$QAV01@@Z ; std::_List_const_iterator<std::_List_val<std::_List_simple_types<Raven_Projectile *> > >::operator=
PUBLIC	??0?$_List_iterator@V?$_List_val@U?$_List_simple_types@PAVRaven_Projectile@@@std@@@std@@@std@@QAE@PAU?$_List_node@PAVRaven_Projectile@@PAX@1@PBV?$_List_val@U?$_List_simple_types@PAVRaven_Projectile@@@std@@@1@@Z ; std::_List_iterator<std::_List_val<std::_List_simple_types<Raven_Projectile *> > >::_List_iterator<std::_List_val<std::_List_simple_types<Raven_Projectile *> > >
PUBLIC	??D?$_List_iterator@V?$_List_val@U?$_List_simple_types@PAVRaven_Projectile@@@std@@@std@@@std@@QBEAAPAVRaven_Projectile@@XZ ; std::_List_iterator<std::_List_val<std::_List_simple_types<Raven_Projectile *> > >::operator*
PUBLIC	??E?$_List_iterator@V?$_List_val@U?$_List_simple_types@PAVRaven_Projectile@@@std@@@std@@@std@@QAEAAV01@XZ ; std::_List_iterator<std::_List_val<std::_List_simple_types<Raven_Projectile *> > >::operator++
PUBLIC	??1?$_List_iterator@V?$_List_val@U?$_List_simple_types@PAVRaven_Projectile@@@std@@@std@@@std@@QAE@XZ ; std::_List_iterator<std::_List_val<std::_List_simple_types<Raven_Projectile *> > >::~_List_iterator<std::_List_val<std::_List_simple_types<Raven_Projectile *> > >
PUBLIC	??4?$_List_iterator@V?$_List_val@U?$_List_simple_types@PAVRaven_Projectile@@@std@@@std@@@std@@QAEAAV01@$$QAV01@@Z ; std::_List_iterator<std::_List_val<std::_List_simple_types<Raven_Projectile *> > >::operator=
PUBLIC	??0?$_Vector_const_iterator@V?$_Vector_val@U?$_Simple_types@PAVRaven_Door@@@std@@@std@@@std@@QAE@XZ ; std::_Vector_const_iterator<std::_Vector_val<std::_Simple_types<Raven_Door *> > >::_Vector_const_iterator<std::_Vector_val<std::_Simple_types<Raven_Door *> > >
PUBLIC	??0?$_Vector_const_iterator@V?$_Vector_val@U?$_Simple_types@PAVRaven_Door@@@std@@@std@@@std@@QAE@PAPAVRaven_Door@@PBU_Container_base12@1@@Z ; std::_Vector_const_iterator<std::_Vector_val<std::_Simple_types<Raven_Door *> > >::_Vector_const_iterator<std::_Vector_val<std::_Simple_types<Raven_Door *> > >
PUBLIC	??D?$_Vector_const_iterator@V?$_Vector_val@U?$_Simple_types@PAVRaven_Door@@@std@@@std@@@std@@QBEABQAVRaven_Door@@XZ ; std::_Vector_const_iterator<std::_Vector_val<std::_Simple_types<Raven_Door *> > >::operator*
PUBLIC	??E?$_Vector_const_iterator@V?$_Vector_val@U?$_Simple_types@PAVRaven_Door@@@std@@@std@@@std@@QAEAAV01@XZ ; std::_Vector_const_iterator<std::_Vector_val<std::_Simple_types<Raven_Door *> > >::operator++
PUBLIC	??8?$_Vector_const_iterator@V?$_Vector_val@U?$_Simple_types@PAVRaven_Door@@@std@@@std@@@std@@QBE_NABV01@@Z ; std::_Vector_const_iterator<std::_Vector_val<std::_Simple_types<Raven_Door *> > >::operator==
PUBLIC	??9?$_Vector_const_iterator@V?$_Vector_val@U?$_Simple_types@PAVRaven_Door@@@std@@@std@@@std@@QBE_NABV01@@Z ; std::_Vector_const_iterator<std::_Vector_val<std::_Simple_types<Raven_Door *> > >::operator!=
PUBLIC	?_Compat@?$_Vector_const_iterator@V?$_Vector_val@U?$_Simple_types@PAVRaven_Door@@@std@@@std@@@std@@QBEXABV12@@Z ; std::_Vector_const_iterator<std::_Vector_val<std::_Simple_types<Raven_Door *> > >::_Compat
PUBLIC	??1?$_Vector_const_iterator@V?$_Vector_val@U?$_Simple_types@PAVRaven_Door@@@std@@@std@@@std@@QAE@XZ ; std::_Vector_const_iterator<std::_Vector_val<std::_Simple_types<Raven_Door *> > >::~_Vector_const_iterator<std::_Vector_val<std::_Simple_types<Raven_Door *> > >
PUBLIC	??4?$_Vector_const_iterator@V?$_Vector_val@U?$_Simple_types@PAVRaven_Door@@@std@@@std@@@std@@QAEAAV01@$$QAV01@@Z ; std::_Vector_const_iterator<std::_Vector_val<std::_Simple_types<Raven_Door *> > >::operator=
PUBLIC	??0?$_Vector_iterator@V?$_Vector_val@U?$_Simple_types@PAVRaven_Door@@@std@@@std@@@std@@QAE@PAPAVRaven_Door@@PBU_Container_base12@1@@Z ; std::_Vector_iterator<std::_Vector_val<std::_Simple_types<Raven_Door *> > >::_Vector_iterator<std::_Vector_val<std::_Simple_types<Raven_Door *> > >
PUBLIC	??D?$_Vector_iterator@V?$_Vector_val@U?$_Simple_types@PAVRaven_Door@@@std@@@std@@@std@@QBEAAPAVRaven_Door@@XZ ; std::_Vector_iterator<std::_Vector_val<std::_Simple_types<Raven_Door *> > >::operator*
PUBLIC	??E?$_Vector_iterator@V?$_Vector_val@U?$_Simple_types@PAVRaven_Door@@@std@@@std@@@std@@QAEAAV01@XZ ; std::_Vector_iterator<std::_Vector_val<std::_Simple_types<Raven_Door *> > >::operator++
PUBLIC	??1?$_Vector_iterator@V?$_Vector_val@U?$_Simple_types@PAVRaven_Door@@@std@@@std@@@std@@QAE@XZ ; std::_Vector_iterator<std::_Vector_val<std::_Simple_types<Raven_Door *> > >::~_Vector_iterator<std::_Vector_val<std::_Simple_types<Raven_Door *> > >
PUBLIC	??$doWallsObstructLineSegment@V?$vector@PAVWall2D@@V?$allocator@PAVWall2D@@@std@@@std@@@@YA_NUVector2D@@0ABV?$vector@PAVWall2D@@V?$allocator@PAVWall2D@@@std@@@std@@@Z ; doWallsObstructLineSegment<std::vector<Wall2D *,std::allocator<Wall2D *> > >
PUBLIC	??$doWallsIntersectCircle@V?$vector@PAVWall2D@@V?$allocator@PAVWall2D@@@std@@@std@@@@YA_NABV?$vector@PAVWall2D@@V?$allocator@PAVWall2D@@@std@@@std@@UVector2D@@N@Z ; doWallsIntersectCircle<std::vector<Wall2D *,std::allocator<Wall2D *> > >
PUBLIC	??0?$_Vector_alloc@U?$_Vec_base_types@PAVRaven_Bot@@V?$allocator@PAVRaven_Bot@@@std@@@std@@@std@@QAE@XZ ; std::_Vector_alloc<std::_Vec_base_types<Raven_Bot *,std::allocator<Raven_Bot *> > >::_Vector_alloc<std::_Vec_base_types<Raven_Bot *,std::allocator<Raven_Bot *> > >
PUBLIC	??1?$_Vector_alloc@U?$_Vec_base_types@PAVRaven_Bot@@V?$allocator@PAVRaven_Bot@@@std@@@std@@@std@@QAE@XZ ; std::_Vector_alloc<std::_Vec_base_types<Raven_Bot *,std::allocator<Raven_Bot *> > >::~_Vector_alloc<std::_Vec_base_types<Raven_Bot *,std::allocator<Raven_Bot *> > >
PUBLIC	?_Alloc_proxy@?$_Vector_alloc@U?$_Vec_base_types@PAVRaven_Bot@@V?$allocator@PAVRaven_Bot@@@std@@@std@@@std@@QAEXXZ ; std::_Vector_alloc<std::_Vec_base_types<Raven_Bot *,std::allocator<Raven_Bot *> > >::_Alloc_proxy
PUBLIC	?_Free_proxy@?$_Vector_alloc@U?$_Vec_base_types@PAVRaven_Bot@@V?$allocator@PAVRaven_Bot@@@std@@@std@@@std@@QAEXXZ ; std::_Vector_alloc<std::_Vec_base_types<Raven_Bot *,std::allocator<Raven_Bot *> > >::_Free_proxy
PUBLIC	?_Getpfirst@?$_Vector_alloc@U?$_Vec_base_types@PAVRaven_Bot@@V?$allocator@PAVRaven_Bot@@@std@@@std@@@std@@QBEPAPAU_Iterator_base12@2@XZ ; std::_Vector_alloc<std::_Vec_base_types<Raven_Bot *,std::allocator<Raven_Bot *> > >::_Getpfirst
PUBLIC	?_Myproxy@?$_Vector_alloc@U?$_Vec_base_types@PAVRaven_Bot@@V?$allocator@PAVRaven_Bot@@@std@@@std@@@std@@QAEAAPAU_Container_proxy@2@XZ ; std::_Vector_alloc<std::_Vec_base_types<Raven_Bot *,std::allocator<Raven_Bot *> > >::_Myproxy
PUBLIC	?_Orphan_all@?$_Vector_alloc@U?$_Vec_base_types@PAVRaven_Bot@@V?$allocator@PAVRaven_Bot@@@std@@@std@@@std@@QAEXXZ ; std::_Vector_alloc<std::_Vec_base_types<Raven_Bot *,std::allocator<Raven_Bot *> > >::_Orphan_all
PUBLIC	?_Swap_all@?$_Vector_alloc@U?$_Vec_base_types@PAVRaven_Bot@@V?$allocator@PAVRaven_Bot@@@std@@@std@@@std@@QAEXAAV12@@Z ; std::_Vector_alloc<std::_Vec_base_types<Raven_Bot *,std::allocator<Raven_Bot *> > >::_Swap_all
PUBLIC	?_Getal@?$_Vector_alloc@U?$_Vec_base_types@PAVRaven_Bot@@V?$allocator@PAVRaven_Bot@@@std@@@std@@@std@@QAEAAV?$allocator@PAVRaven_Bot@@@2@XZ ; std::_Vector_alloc<std::_Vec_base_types<Raven_Bot *,std::allocator<Raven_Bot *> > >::_Getal
PUBLIC	?_Getal@?$_Vector_alloc@U?$_Vec_base_types@PAVRaven_Bot@@V?$allocator@PAVRaven_Bot@@@std@@@std@@@std@@QBEABV?$allocator@PAVRaven_Bot@@@2@XZ ; std::_Vector_alloc<std::_Vec_base_types<Raven_Bot *,std::allocator<Raven_Bot *> > >::_Getal
PUBLIC	?_Get_data@?$_Vector_alloc@U?$_Vec_base_types@PAVRaven_Bot@@V?$allocator@PAVRaven_Bot@@@std@@@std@@@std@@QAEAAV?$_Vector_val@U?$_Simple_types@PAVRaven_Bot@@@std@@@2@XZ ; std::_Vector_alloc<std::_Vec_base_types<Raven_Bot *,std::allocator<Raven_Bot *> > >::_Get_data
PUBLIC	?_Get_data@?$_Vector_alloc@U?$_Vec_base_types@PAVRaven_Bot@@V?$allocator@PAVRaven_Bot@@@std@@@std@@@std@@QBEABV?$_Vector_val@U?$_Simple_types@PAVRaven_Bot@@@std@@@2@XZ ; std::_Vector_alloc<std::_Vec_base_types<Raven_Bot *,std::allocator<Raven_Bot *> > >::_Get_data
PUBLIC	?_Myfirst@?$_Vector_alloc@U?$_Vec_base_types@PAVRaven_Bot@@V?$allocator@PAVRaven_Bot@@@std@@@std@@@std@@QAEAAPAPAVRaven_Bot@@XZ ; std::_Vector_alloc<std::_Vec_base_types<Raven_Bot *,std::allocator<Raven_Bot *> > >::_Myfirst
PUBLIC	?_Myfirst@?$_Vector_alloc@U?$_Vec_base_types@PAVRaven_Bot@@V?$allocator@PAVRaven_Bot@@@std@@@std@@@std@@QBEABQAPAVRaven_Bot@@XZ ; std::_Vector_alloc<std::_Vec_base_types<Raven_Bot *,std::allocator<Raven_Bot *> > >::_Myfirst
PUBLIC	?_Mylast@?$_Vector_alloc@U?$_Vec_base_types@PAVRaven_Bot@@V?$allocator@PAVRaven_Bot@@@std@@@std@@@std@@QAEAAPAPAVRaven_Bot@@XZ ; std::_Vector_alloc<std::_Vec_base_types<Raven_Bot *,std::allocator<Raven_Bot *> > >::_Mylast
PUBLIC	?_Mylast@?$_Vector_alloc@U?$_Vec_base_types@PAVRaven_Bot@@V?$allocator@PAVRaven_Bot@@@std@@@std@@@std@@QBEABQAPAVRaven_Bot@@XZ ; std::_Vector_alloc<std::_Vec_base_types<Raven_Bot *,std::allocator<Raven_Bot *> > >::_Mylast
PUBLIC	?_Myend@?$_Vector_alloc@U?$_Vec_base_types@PAVRaven_Bot@@V?$allocator@PAVRaven_Bot@@@std@@@std@@@std@@QAEAAPAPAVRaven_Bot@@XZ ; std::_Vector_alloc<std::_Vec_base_types<Raven_Bot *,std::allocator<Raven_Bot *> > >::_Myend
PUBLIC	?_Myend@?$_Vector_alloc@U?$_Vec_base_types@PAVRaven_Bot@@V?$allocator@PAVRaven_Bot@@@std@@@std@@@std@@QBEABQAPAVRaven_Bot@@XZ ; std::_Vector_alloc<std::_Vec_base_types<Raven_Bot *,std::allocator<Raven_Bot *> > >::_Myend
PUBLIC	??0?$_Vector_val@U?$_Simple_types@PAVRaven_Bot@@@std@@@std@@QAE@XZ ; std::_Vector_val<std::_Simple_types<Raven_Bot *> >::_Vector_val<std::_Simple_types<Raven_Bot *> >
PUBLIC	?_Get_first@?$_Compressed_pair@V?$allocator@PAVRaven_Bot@@@std@@V?$_Vector_val@U?$_Simple_types@PAVRaven_Bot@@@std@@@2@$00@std@@QAEAAV?$allocator@PAVRaven_Bot@@@2@XZ ; std::_Compressed_pair<std::allocator<Raven_Bot *>,std::_Vector_val<std::_Simple_types<Raven_Bot *> >,1>::_Get_first
PUBLIC	?_Get_first@?$_Compressed_pair@V?$allocator@PAVRaven_Bot@@@std@@V?$_Vector_val@U?$_Simple_types@PAVRaven_Bot@@@std@@@2@$00@std@@QBEABV?$allocator@PAVRaven_Bot@@@2@XZ ; std::_Compressed_pair<std::allocator<Raven_Bot *>,std::_Vector_val<std::_Simple_types<Raven_Bot *> >,1>::_Get_first
PUBLIC	?_Get_second@?$_Compressed_pair@V?$allocator@PAVRaven_Bot@@@std@@V?$_Vector_val@U?$_Simple_types@PAVRaven_Bot@@@std@@@2@$00@std@@QAEAAV?$_Vector_val@U?$_Simple_types@PAVRaven_Bot@@@std@@@2@XZ ; std::_Compressed_pair<std::allocator<Raven_Bot *>,std::_Vector_val<std::_Simple_types<Raven_Bot *> >,1>::_Get_second
PUBLIC	?_Get_second@?$_Compressed_pair@V?$allocator@PAVRaven_Bot@@@std@@V?$_Vector_val@U?$_Simple_types@PAVRaven_Bot@@@std@@@2@$00@std@@QBEABV?$_Vector_val@U?$_Simple_types@PAVRaven_Bot@@@std@@@2@XZ ; std::_Compressed_pair<std::allocator<Raven_Bot *>,std::_Vector_val<std::_Simple_types<Raven_Bot *> >,1>::_Get_second
PUBLIC	??0?$vector@PAVRaven_Bot@@V?$allocator@PAVRaven_Bot@@@std@@@std@@QAE@XZ ; std::vector<Raven_Bot *,std::allocator<Raven_Bot *> >::vector<Raven_Bot *,std::allocator<Raven_Bot *> >
PUBLIC	?_Move_from@?$vector@PAVRaven_Bot@@V?$allocator@PAVRaven_Bot@@@std@@@std@@AAEX$$QAV12@U?$integral_constant@_N$00@2@@Z ; std::vector<Raven_Bot *,std::allocator<Raven_Bot *> >::_Move_from
PUBLIC	??0?$vector@PAVRaven_Bot@@V?$allocator@PAVRaven_Bot@@@std@@@std@@QAE@$$QAV01@@Z ; std::vector<Raven_Bot *,std::allocator<Raven_Bot *> >::vector<Raven_Bot *,std::allocator<Raven_Bot *> >
PUBLIC	??1?$vector@PAVRaven_Bot@@V?$allocator@PAVRaven_Bot@@@std@@@std@@QAE@XZ ; std::vector<Raven_Bot *,std::allocator<Raven_Bot *> >::~vector<Raven_Bot *,std::allocator<Raven_Bot *> >
PUBLIC	?push_back@?$vector@PAVRaven_Bot@@V?$allocator@PAVRaven_Bot@@@std@@@std@@QAEXABQAVRaven_Bot@@@Z ; std::vector<Raven_Bot *,std::allocator<Raven_Bot *> >::push_back
PUBLIC	?begin@?$vector@PAVRaven_Bot@@V?$allocator@PAVRaven_Bot@@@std@@@std@@QAE?AV?$_Vector_iterator@V?$_Vector_val@U?$_Simple_types@PAVRaven_Bot@@@std@@@std@@@2@XZ ; std::vector<Raven_Bot *,std::allocator<Raven_Bot *> >::begin
PUBLIC	?end@?$vector@PAVRaven_Bot@@V?$allocator@PAVRaven_Bot@@@std@@@std@@QAE?AV?$_Vector_iterator@V?$_Vector_val@U?$_Simple_types@PAVRaven_Bot@@@std@@@std@@@2@XZ ; std::vector<Raven_Bot *,std::allocator<Raven_Bot *> >::end
PUBLIC	?size@?$vector@PAVRaven_Bot@@V?$allocator@PAVRaven_Bot@@@std@@@std@@QBEIXZ ; std::vector<Raven_Bot *,std::allocator<Raven_Bot *> >::size
PUBLIC	?max_size@?$vector@PAVRaven_Bot@@V?$allocator@PAVRaven_Bot@@@std@@@std@@QBEIXZ ; std::vector<Raven_Bot *,std::allocator<Raven_Bot *> >::max_size
PUBLIC	?capacity@?$vector@PAVRaven_Bot@@V?$allocator@PAVRaven_Bot@@@std@@@std@@QBEIXZ ; std::vector<Raven_Bot *,std::allocator<Raven_Bot *> >::capacity
PUBLIC	?_Has_unused_capacity@?$vector@PAVRaven_Bot@@V?$allocator@PAVRaven_Bot@@@std@@@std@@ABE_NXZ ; std::vector<Raven_Bot *,std::allocator<Raven_Bot *> >::_Has_unused_capacity
PUBLIC	?_Umove@?$vector@PAVRaven_Bot@@V?$allocator@PAVRaven_Bot@@@std@@@std@@AAEPAPAVRaven_Bot@@PAPAV3@00@Z ; std::vector<Raven_Bot *,std::allocator<Raven_Bot *> >::_Umove
PUBLIC	?_Umove_if_noexcept1@?$vector@PAVRaven_Bot@@V?$allocator@PAVRaven_Bot@@@std@@@std@@AAEXPAPAVRaven_Bot@@00U?$integral_constant@_N$00@2@@Z ; std::vector<Raven_Bot *,std::allocator<Raven_Bot *> >::_Umove_if_noexcept1
PUBLIC	?_Umove_if_noexcept@?$vector@PAVRaven_Bot@@V?$allocator@PAVRaven_Bot@@@std@@@std@@AAEXPAPAVRaven_Bot@@00@Z ; std::vector<Raven_Bot *,std::allocator<Raven_Bot *> >::_Umove_if_noexcept
PUBLIC	?_Destroy@?$vector@PAVRaven_Bot@@V?$allocator@PAVRaven_Bot@@@std@@@std@@AAEXPAPAVRaven_Bot@@0@Z ; std::vector<Raven_Bot *,std::allocator<Raven_Bot *> >::_Destroy
PUBLIC	?_Calculate_growth@?$vector@PAVRaven_Bot@@V?$allocator@PAVRaven_Bot@@@std@@@std@@ABEII@Z ; std::vector<Raven_Bot *,std::allocator<Raven_Bot *> >::_Calculate_growth
PUBLIC	?_Change_array@?$vector@PAVRaven_Bot@@V?$allocator@PAVRaven_Bot@@@std@@@std@@AAEXQAPAVRaven_Bot@@II@Z ; std::vector<Raven_Bot *,std::allocator<Raven_Bot *> >::_Change_array
PUBLIC	?_Tidy@?$vector@PAVRaven_Bot@@V?$allocator@PAVRaven_Bot@@@std@@@std@@AAEXXZ ; std::vector<Raven_Bot *,std::allocator<Raven_Bot *> >::_Tidy
PUBLIC	?_Xlength@?$vector@PAVRaven_Bot@@V?$allocator@PAVRaven_Bot@@@std@@@std@@CAXXZ ; std::vector<Raven_Bot *,std::allocator<Raven_Bot *> >::_Xlength
PUBLIC	?_Orphan_range@?$vector@PAVRaven_Bot@@V?$allocator@PAVRaven_Bot@@@std@@@std@@ABEXPAPAVRaven_Bot@@0@Z ; std::vector<Raven_Bot *,std::allocator<Raven_Bot *> >::_Orphan_range
PUBLIC	??0?$_Vector_const_iterator@V?$_Vector_val@U?$_Simple_types@I@std@@@std@@@std@@QAE@XZ ; std::_Vector_const_iterator<std::_Vector_val<std::_Simple_types<unsigned int> > >::_Vector_const_iterator<std::_Vector_val<std::_Simple_types<unsigned int> > >
PUBLIC	??0?$_Vector_const_iterator@V?$_Vector_val@U?$_Simple_types@I@std@@@std@@@std@@QAE@PAIPBU_Container_base12@1@@Z ; std::_Vector_const_iterator<std::_Vector_val<std::_Simple_types<unsigned int> > >::_Vector_const_iterator<std::_Vector_val<std::_Simple_types<unsigned int> > >
PUBLIC	??D?$_Vector_const_iterator@V?$_Vector_val@U?$_Simple_types@I@std@@@std@@@std@@QBEABIXZ ; std::_Vector_const_iterator<std::_Vector_val<std::_Simple_types<unsigned int> > >::operator*
PUBLIC	??E?$_Vector_const_iterator@V?$_Vector_val@U?$_Simple_types@I@std@@@std@@@std@@QAEAAV01@XZ ; std::_Vector_const_iterator<std::_Vector_val<std::_Simple_types<unsigned int> > >::operator++
PUBLIC	??8?$_Vector_const_iterator@V?$_Vector_val@U?$_Simple_types@I@std@@@std@@@std@@QBE_NABV01@@Z ; std::_Vector_const_iterator<std::_Vector_val<std::_Simple_types<unsigned int> > >::operator==
PUBLIC	??9?$_Vector_const_iterator@V?$_Vector_val@U?$_Simple_types@I@std@@@std@@@std@@QBE_NABV01@@Z ; std::_Vector_const_iterator<std::_Vector_val<std::_Simple_types<unsigned int> > >::operator!=
PUBLIC	?_Compat@?$_Vector_const_iterator@V?$_Vector_val@U?$_Simple_types@I@std@@@std@@@std@@QBEXABV12@@Z ; std::_Vector_const_iterator<std::_Vector_val<std::_Simple_types<unsigned int> > >::_Compat
PUBLIC	??1?$_Vector_const_iterator@V?$_Vector_val@U?$_Simple_types@I@std@@@std@@@std@@QAE@XZ ; std::_Vector_const_iterator<std::_Vector_val<std::_Simple_types<unsigned int> > >::~_Vector_const_iterator<std::_Vector_val<std::_Simple_types<unsigned int> > >
PUBLIC	??4?$_Vector_const_iterator@V?$_Vector_val@U?$_Simple_types@I@std@@@std@@@std@@QAEAAV01@$$QAV01@@Z ; std::_Vector_const_iterator<std::_Vector_val<std::_Simple_types<unsigned int> > >::operator=
PUBLIC	??0?$_Vector_iterator@V?$_Vector_val@U?$_Simple_types@I@std@@@std@@@std@@QAE@XZ ; std::_Vector_iterator<std::_Vector_val<std::_Simple_types<unsigned int> > >::_Vector_iterator<std::_Vector_val<std::_Simple_types<unsigned int> > >
PUBLIC	??0?$_Vector_iterator@V?$_Vector_val@U?$_Simple_types@I@std@@@std@@@std@@QAE@PAIPBU_Container_base12@1@@Z ; std::_Vector_iterator<std::_Vector_val<std::_Simple_types<unsigned int> > >::_Vector_iterator<std::_Vector_val<std::_Simple_types<unsigned int> > >
PUBLIC	??D?$_Vector_iterator@V?$_Vector_val@U?$_Simple_types@I@std@@@std@@@std@@QBEAAIXZ ; std::_Vector_iterator<std::_Vector_val<std::_Simple_types<unsigned int> > >::operator*
PUBLIC	??E?$_Vector_iterator@V?$_Vector_val@U?$_Simple_types@I@std@@@std@@@std@@QAEAAV01@XZ ; std::_Vector_iterator<std::_Vector_val<std::_Simple_types<unsigned int> > >::operator++
PUBLIC	??1?$_Vector_iterator@V?$_Vector_val@U?$_Simple_types@I@std@@@std@@@std@@QAE@XZ ; std::_Vector_iterator<std::_Vector_val<std::_Simple_types<unsigned int> > >::~_Vector_iterator<std::_Vector_val<std::_Simple_types<unsigned int> > >
PUBLIC	??4?$_Vector_iterator@V?$_Vector_val@U?$_Simple_types@I@std@@@std@@@std@@QAEAAV01@$$QAV01@@Z ; std::_Vector_iterator<std::_Vector_val<std::_Simple_types<unsigned int> > >::operator=
PUBLIC	??0?$_Vector_const_iterator@V?$_Vector_val@U?$_Simple_types@PAVRaven_Bot@@@std@@@std@@@std@@QAE@PAPAVRaven_Bot@@PBU_Container_base12@1@@Z ; std::_Vector_const_iterator<std::_Vector_val<std::_Simple_types<Raven_Bot *> > >::_Vector_const_iterator<std::_Vector_val<std::_Simple_types<Raven_Bot *> > >
PUBLIC	??D?$_Vector_const_iterator@V?$_Vector_val@U?$_Simple_types@PAVRaven_Bot@@@std@@@std@@@std@@QBEABQAVRaven_Bot@@XZ ; std::_Vector_const_iterator<std::_Vector_val<std::_Simple_types<Raven_Bot *> > >::operator*
PUBLIC	??E?$_Vector_const_iterator@V?$_Vector_val@U?$_Simple_types@PAVRaven_Bot@@@std@@@std@@@std@@QAEAAV01@XZ ; std::_Vector_const_iterator<std::_Vector_val<std::_Simple_types<Raven_Bot *> > >::operator++
PUBLIC	??8?$_Vector_const_iterator@V?$_Vector_val@U?$_Simple_types@PAVRaven_Bot@@@std@@@std@@@std@@QBE_NABV01@@Z ; std::_Vector_const_iterator<std::_Vector_val<std::_Simple_types<Raven_Bot *> > >::operator==
PUBLIC	??9?$_Vector_const_iterator@V?$_Vector_val@U?$_Simple_types@PAVRaven_Bot@@@std@@@std@@@std@@QBE_NABV01@@Z ; std::_Vector_const_iterator<std::_Vector_val<std::_Simple_types<Raven_Bot *> > >::operator!=
PUBLIC	?_Compat@?$_Vector_const_iterator@V?$_Vector_val@U?$_Simple_types@PAVRaven_Bot@@@std@@@std@@@std@@QBEXABV12@@Z ; std::_Vector_const_iterator<std::_Vector_val<std::_Simple_types<Raven_Bot *> > >::_Compat
PUBLIC	??1?$_Vector_const_iterator@V?$_Vector_val@U?$_Simple_types@PAVRaven_Bot@@@std@@@std@@@std@@QAE@XZ ; std::_Vector_const_iterator<std::_Vector_val<std::_Simple_types<Raven_Bot *> > >::~_Vector_const_iterator<std::_Vector_val<std::_Simple_types<Raven_Bot *> > >
PUBLIC	??0?$_Vector_const_iterator@V?$_Vector_val@U?$_Simple_types@PAVRaven_Bot@@@std@@@std@@@std@@QAE@$$QAV01@@Z ; std::_Vector_const_iterator<std::_Vector_val<std::_Simple_types<Raven_Bot *> > >::_Vector_const_iterator<std::_Vector_val<std::_Simple_types<Raven_Bot *> > >
PUBLIC	??0?$_Vector_iterator@V?$_Vector_val@U?$_Simple_types@PAVRaven_Bot@@@std@@@std@@@std@@QAE@PAPAVRaven_Bot@@PBU_Container_base12@1@@Z ; std::_Vector_iterator<std::_Vector_val<std::_Simple_types<Raven_Bot *> > >::_Vector_iterator<std::_Vector_val<std::_Simple_types<Raven_Bot *> > >
PUBLIC	??1?$_Vector_iterator@V?$_Vector_val@U?$_Simple_types@PAVRaven_Bot@@@std@@@std@@@std@@QAE@XZ ; std::_Vector_iterator<std::_Vector_val<std::_Simple_types<Raven_Bot *> > >::~_Vector_iterator<std::_Vector_val<std::_Simple_types<Raven_Bot *> > >
PUBLIC	??$addressof@V?$_Vector_val@U?$_Simple_types@PAVRaven_Door@@@std@@@std@@@std@@YAPAV?$_Vector_val@U?$_Simple_types@PAVRaven_Door@@@std@@@0@AAV10@@Z ; std::addressof<std::_Vector_val<std::_Simple_types<Raven_Door *> > >
PUBLIC	??$try_emplace@$$V@?$unordered_map@V?$basic_string@DU?$char_traits@D@std@@V?$allocator@D@2@@std@@V12@U?$hash@V?$basic_string@DU?$char_traits@D@std@@V?$allocator@D@2@@std@@@2@U?$equal_to@V?$basic_string@DU?$char_traits@D@std@@V?$allocator@D@2@@std@@@2@V?$allocator@U?$pair@$$CBV?$basic_string@DU?$char_traits@D@std@@V?$allocator@D@2@@std@@V12@@std@@@2@@std@@QAE?AU?$pair@V?$_List_iterator@V?$_List_val@U?$_List_simple_types@U?$pair@$$CBV?$basic_string@DU?$char_traits@D@std@@V?$allocator@D@2@@std@@V12@@std@@@std@@@std@@@std@@_N@1@ABV?$basic_string@DU?$char_traits@D@std@@V?$allocator@D@2@@1@@Z ; std::unordered_map<std::basic_string<char,std::char_traits<char>,std::allocator<char> >,std::basic_string<char,std::char_traits<char>,std::allocator<char> >,std::hash<std::basic_string<char,std::char_traits<char>,std::allocator<char> > >,std::equal_to<std::basic_string<char,std::char_traits<char>,std::allocator<char> > >,std::allocator<std::pair<std::basic_string<char,std::char_traits<char>,std::allocator<char> > const ,std::basic_string<char,std::char_traits<char>,std::allocator<char> > > > >::try_emplace<>
PUBLIC	??0?$_List_unchecked_const_iterator@V?$_List_val@U?$_List_simple_types@U?$pair@$$CBV?$basic_string@DU?$char_traits@D@std@@V?$allocator@D@2@@std@@V12@@std@@@std@@@std@@U_Iterator_base12@2@@std@@QAE@PAU?$_List_node@U?$pair@$$CBV?$basic_string@DU?$char_traits@D@std@@V?$allocator@D@2@@std@@V12@@std@@PAX@1@PBV?$_List_val@U?$_List_simple_types@U?$pair@$$CBV?$basic_string@DU?$char_traits@D@std@@V?$allocator@D@2@@std@@V12@@std@@@std@@@1@@Z ; std::_List_unchecked_const_iterator<std::_List_val<std::_List_simple_types<std::pair<std::basic_string<char,std::char_traits<char>,std::allocator<char> > const ,std::basic_string<char,std::char_traits<char>,std::allocator<char> > > > >,std::_Iterator_base12>::_List_unchecked_const_iterator<std::_List_val<std::_List_simple_types<std::pair<std::basic_string<char,std::char_traits<char>,std::allocator<char> > const ,std::basic_string<char,std::char_traits<char>,std::allocator<char> > > > >,std::_Iterator_base12>
PUBLIC	??1?$_List_unchecked_const_iterator@V?$_List_val@U?$_List_simple_types@U?$pair@$$CBV?$basic_string@DU?$char_traits@D@std@@V?$allocator@D@2@@std@@V12@@std@@@std@@@std@@U_Iterator_base12@2@@std@@QAE@XZ ; std::_List_unchecked_const_iterator<std::_List_val<std::_List_simple_types<std::pair<std::basic_string<char,std::char_traits<char>,std::allocator<char> > const ,std::basic_string<char,std::char_traits<char>,std::allocator<char> > > > >,std::_Iterator_base12>::~_List_unchecked_const_iterator<std::_List_val<std::_List_simple_types<std::pair<std::basic_string<char,std::char_traits<char>,std::allocator<char> > const ,std::basic_string<char,std::char_traits<char>,std::allocator<char> > > > >,std::_Iterator_base12>
PUBLIC	??0?$_List_unchecked_const_iterator@V?$_List_val@U?$_List_simple_types@U?$pair@$$CBV?$basic_string@DU?$char_traits@D@std@@V?$allocator@D@2@@std@@V12@@std@@@std@@@std@@U_Iterator_base12@2@@std@@QAE@ABV01@@Z ; std::_List_unchecked_const_iterator<std::_List_val<std::_List_simple_types<std::pair<std::basic_string<char,std::char_traits<char>,std::allocator<char> > const ,std::basic_string<char,std::char_traits<char>,std::allocator<char> > > > >,std::_Iterator_base12>::_List_unchecked_const_iterator<std::_List_val<std::_List_simple_types<std::pair<std::basic_string<char,std::char_traits<char>,std::allocator<char> > const ,std::basic_string<char,std::char_traits<char>,std::allocator<char> > > > >,std::_Iterator_base12>
PUBLIC	??0?$_List_unchecked_const_iterator@V?$_List_val@U?$_List_simple_types@U?$pair@$$CBV?$basic_string@DU?$char_traits@D@std@@V?$allocator@D@2@@std@@V12@@std@@@std@@@std@@U_Iterator_base12@2@@std@@QAE@$$QAV01@@Z ; std::_List_unchecked_const_iterator<std::_List_val<std::_List_simple_types<std::pair<std::basic_string<char,std::char_traits<char>,std::allocator<char> > const ,std::basic_string<char,std::char_traits<char>,std::allocator<char> > > > >,std::_Iterator_base12>::_List_unchecked_const_iterator<std::_List_val<std::_List_simple_types<std::pair<std::basic_string<char,std::char_traits<char>,std::allocator<char> > const ,std::basic_string<char,std::char_traits<char>,std::allocator<char> > > > >,std::_Iterator_base12>
PUBLIC	??0?$_List_const_iterator@V?$_List_val@U?$_List_simple_types@U?$pair@$$CBV?$basic_string@DU?$char_traits@D@std@@V?$allocator@D@2@@std@@V12@@std@@@std@@@std@@@std@@QAE@PAU?$_List_node@U?$pair@$$CBV?$basic_string@DU?$char_traits@D@std@@V?$allocator@D@2@@std@@V12@@std@@PAX@1@PBV?$_List_val@U?$_List_simple_types@U?$pair@$$CBV?$basic_string@DU?$char_traits@D@std@@V?$allocator@D@2@@std@@V12@@std@@@std@@@1@@Z ; std::_List_const_iterator<std::_List_val<std::_List_simple_types<std::pair<std::basic_string<char,std::char_traits<char>,std::allocator<char> > const ,std::basic_string<char,std::char_traits<char>,std::allocator<char> > > > > >::_List_const_iterator<std::_List_val<std::_List_simple_types<std::pair<std::basic_string<char,std::char_traits<char>,std::allocator<char> > const ,std::basic_string<char,std::char_traits<char>,std::allocator<char> > > > > >
PUBLIC	??D?$_List_const_iterator@V?$_List_val@U?$_List_simple_types@U?$pair@$$CBV?$basic_string@DU?$char_traits@D@std@@V?$allocator@D@2@@std@@V12@@std@@@std@@@std@@@std@@QBEABU?$pair@$$CBV?$basic_string@DU?$char_traits@D@std@@V?$allocator@D@2@@std@@V12@@1@XZ ; std::_List_const_iterator<std::_List_val<std::_List_simple_types<std::pair<std::basic_string<char,std::char_traits<char>,std::allocator<char> > const ,std::basic_string<char,std::char_traits<char>,std::allocator<char> > > > > >::operator*
PUBLIC	??E?$_List_const_iterator@V?$_List_val@U?$_List_simple_types@U?$pair@$$CBV?$basic_string@DU?$char_traits@D@std@@V?$allocator@D@2@@std@@V12@@std@@@std@@@std@@@std@@QAEAAV01@XZ ; std::_List_const_iterator<std::_List_val<std::_List_simple_types<std::pair<std::basic_string<char,std::char_traits<char>,std::allocator<char> > const ,std::basic_string<char,std::char_traits<char>,std::allocator<char> > > > > >::operator++
PUBLIC	??E?$_List_const_iterator@V?$_List_val@U?$_List_simple_types@U?$pair@$$CBV?$basic_string@DU?$char_traits@D@std@@V?$allocator@D@2@@std@@V12@@std@@@std@@@std@@@std@@QAE?AV01@H@Z ; std::_List_const_iterator<std::_List_val<std::_List_simple_types<std::pair<std::basic_string<char,std::char_traits<char>,std::allocator<char> > const ,std::basic_string<char,std::char_traits<char>,std::allocator<char> > > > > >::operator++
PUBLIC	??8?$_List_const_iterator@V?$_List_val@U?$_List_simple_types@U?$pair@$$CBV?$basic_string@DU?$char_traits@D@std@@V?$allocator@D@2@@std@@V12@@std@@@std@@@std@@@std@@QBE_NABV01@@Z ; std::_List_const_iterator<std::_List_val<std::_List_simple_types<std::pair<std::basic_string<char,std::char_traits<char>,std::allocator<char> > const ,std::basic_string<char,std::char_traits<char>,std::allocator<char> > > > > >::operator==
PUBLIC	??1?$_List_const_iterator@V?$_List_val@U?$_List_simple_types@U?$pair@$$CBV?$basic_string@DU?$char_traits@D@std@@V?$allocator@D@2@@std@@V12@@std@@@std@@@std@@@std@@QAE@XZ ; std::_List_const_iterator<std::_List_val<std::_List_simple_types<std::pair<std::basic_string<char,std::char_traits<char>,std::allocator<char> > const ,std::basic_string<char,std::char_traits<char>,std::allocator<char> > > > > >::~_List_const_iterator<std::_List_val<std::_List_simple_types<std::pair<std::basic_string<char,std::char_traits<char>,std::allocator<char> > const ,std::basic_string<char,std::char_traits<char>,std::allocator<char> > > > > >
PUBLIC	??0?$_List_const_iterator@V?$_List_val@U?$_List_simple_types@U?$pair@$$CBV?$basic_string@DU?$char_traits@D@std@@V?$allocator@D@2@@std@@V12@@std@@@std@@@std@@@std@@QAE@ABV01@@Z ; std::_List_const_iterator<std::_List_val<std::_List_simple_types<std::pair<std::basic_string<char,std::char_traits<char>,std::allocator<char> > const ,std::basic_string<char,std::char_traits<char>,std::allocator<char> > > > > >::_List_const_iterator<std::_List_val<std::_List_simple_types<std::pair<std::basic_string<char,std::char_traits<char>,std::allocator<char> > const ,std::basic_string<char,std::char_traits<char>,std::allocator<char> > > > > >
PUBLIC	??0?$_List_const_iterator@V?$_List_val@U?$_List_simple_types@U?$pair@$$CBV?$basic_string@DU?$char_traits@D@std@@V?$allocator@D@2@@std@@V12@@std@@@std@@@std@@@std@@QAE@$$QAV01@@Z ; std::_List_const_iterator<std::_List_val<std::_List_simple_types<std::pair<std::basic_string<char,std::char_traits<char>,std::allocator<char> > const ,std::basic_string<char,std::char_traits<char>,std::allocator<char> > > > > >::_List_const_iterator<std::_List_val<std::_List_simple_types<std::pair<std::basic_string<char,std::char_traits<char>,std::allocator<char> > const ,std::basic_string<char,std::char_traits<char>,std::allocator<char> > > > > >
PUBLIC	??0?$_List_iterator@V?$_List_val@U?$_List_simple_types@U?$pair@$$CBV?$basic_string@DU?$char_traits@D@std@@V?$allocator@D@2@@std@@V12@@std@@@std@@@std@@@std@@QAE@PAU?$_List_node@U?$pair@$$CBV?$basic_string@DU?$char_traits@D@std@@V?$allocator@D@2@@std@@V12@@std@@PAX@1@PBV?$_List_val@U?$_List_simple_types@U?$pair@$$CBV?$basic_string@DU?$char_traits@D@std@@V?$allocator@D@2@@std@@V12@@std@@@std@@@1@@Z ; std::_List_iterator<std::_List_val<std::_List_simple_types<std::pair<std::basic_string<char,std::char_traits<char>,std::allocator<char> > const ,std::basic_string<char,std::char_traits<char>,std::allocator<char> > > > > >::_List_iterator<std::_List_val<std::_List_simple_types<std::pair<std::basic_string<char,std::char_traits<char>,std::allocator<char> > const ,std::basic_string<char,std::char_traits<char>,std::allocator<char> > > > > >
PUBLIC	??D?$_List_iterator@V?$_List_val@U?$_List_simple_types@U?$pair@$$CBV?$basic_string@DU?$char_traits@D@std@@V?$allocator@D@2@@std@@V12@@std@@@std@@@std@@@std@@QBEAAU?$pair@$$CBV?$basic_string@DU?$char_traits@D@std@@V?$allocator@D@2@@std@@V12@@1@XZ ; std::_List_iterator<std::_List_val<std::_List_simple_types<std::pair<std::basic_string<char,std::char_traits<char>,std::allocator<char> > const ,std::basic_string<char,std::char_traits<char>,std::allocator<char> > > > > >::operator*
PUBLIC	??C?$_List_iterator@V?$_List_val@U?$_List_simple_types@U?$pair@$$CBV?$basic_string@DU?$char_traits@D@std@@V?$allocator@D@2@@std@@V12@@std@@@std@@@std@@@std@@QBEPAU?$pair@$$CBV?$basic_string@DU?$char_traits@D@std@@V?$allocator@D@2@@std@@V12@@1@XZ ; std::_List_iterator<std::_List_val<std::_List_simple_types<std::pair<std::basic_string<char,std::char_traits<char>,std::allocator<char> > const ,std::basic_string<char,std::char_traits<char>,std::allocator<char> > > > > >::operator->
PUBLIC	?_Unwrapped@?$_List_iterator@V?$_List_val@U?$_List_simple_types@U?$pair@$$CBV?$basic_string@DU?$char_traits@D@std@@V?$allocator@D@2@@std@@V12@@std@@@std@@@std@@@std@@QBE?AV?$_List_unchecked_iterator@V?$_List_val@U?$_List_simple_types@U?$pair@$$CBV?$basic_string@DU?$char_traits@D@std@@V?$allocator@D@2@@std@@V12@@std@@@std@@@std@@@2@XZ ; std::_List_iterator<std::_List_val<std::_List_simple_types<std::pair<std::basic_string<char,std::char_traits<char>,std::allocator<char> > const ,std::basic_string<char,std::char_traits<char>,std::allocator<char> > > > > >::_Unwrapped
PUBLIC	??1?$_List_iterator@V?$_List_val@U?$_List_simple_types@U?$pair@$$CBV?$basic_string@DU?$char_traits@D@std@@V?$allocator@D@2@@std@@V12@@std@@@std@@@std@@@std@@QAE@XZ ; std::_List_iterator<std::_List_val<std::_List_simple_types<std::pair<std::basic_string<char,std::char_traits<char>,std::allocator<char> > const ,std::basic_string<char,std::char_traits<char>,std::allocator<char> > > > > >::~_List_iterator<std::_List_val<std::_List_simple_types<std::pair<std::basic_string<char,std::char_traits<char>,std::allocator<char> > const ,std::basic_string<char,std::char_traits<char>,std::allocator<char> > > > > >
PUBLIC	??0?$_List_iterator@V?$_List_val@U?$_List_simple_types@U?$pair@$$CBV?$basic_string@DU?$char_traits@D@std@@V?$allocator@D@2@@std@@V12@@std@@@std@@@std@@@std@@QAE@ABV01@@Z ; std::_List_iterator<std::_List_val<std::_List_simple_types<std::pair<std::basic_string<char,std::char_traits<char>,std::allocator<char> > const ,std::basic_string<char,std::char_traits<char>,std::allocator<char> > > > > >::_List_iterator<std::_List_val<std::_List_simple_types<std::pair<std::basic_string<char,std::char_traits<char>,std::allocator<char> > const ,std::basic_string<char,std::char_traits<char>,std::allocator<char> > > > > >
PUBLIC	??0?$_List_iterator@V?$_List_val@U?$_List_simple_types@U?$pair@$$CBV?$basic_string@DU?$char_traits@D@std@@V?$allocator@D@2@@std@@V12@@std@@@std@@@std@@@std@@QAE@$$QAV01@@Z ; std::_List_iterator<std::_List_val<std::_List_simple_types<std::pair<std::basic_string<char,std::char_traits<char>,std::allocator<char> > const ,std::basic_string<char,std::char_traits<char>,std::allocator<char> > > > > >::_List_iterator<std::_List_val<std::_List_simple_types<std::pair<std::basic_string<char,std::char_traits<char>,std::allocator<char> > const ,std::basic_string<char,std::char_traits<char>,std::allocator<char> > > > > >
PUBLIC	??1?$pair@V?$_List_iterator@V?$_List_val@U?$_List_simple_types@U?$pair@$$CBV?$basic_string@DU?$char_traits@D@std@@V?$allocator@D@2@@std@@V12@@std@@@std@@@std@@@std@@_N@std@@QAE@XZ ; std::pair<std::_List_iterator<std::_List_val<std::_List_simple_types<std::pair<std::basic_string<char,std::char_traits<char>,std::allocator<char> > const ,std::basic_string<char,std::char_traits<char>,std::allocator<char> > > > > >,bool>::~pair<std::_List_iterator<std::_List_val<std::_List_simple_types<std::pair<std::basic_string<char,std::char_traits<char>,std::allocator<char> > const ,std::basic_string<char,std::char_traits<char>,std::allocator<char> > > > > >,bool>
PUBLIC	??1?$pair@$$CBV?$basic_string@DU?$char_traits@D@std@@V?$allocator@D@2@@std@@V12@@std@@QAE@XZ ; std::pair<std::basic_string<char,std::char_traits<char>,std::allocator<char> > const ,std::basic_string<char,std::char_traits<char>,std::allocator<char> > >::~pair<std::basic_string<char,std::char_traits<char>,std::allocator<char> > const ,std::basic_string<char,std::char_traits<char>,std::allocator<char> > >
PUBLIC	??_G?$pair@$$CBV?$basic_string@DU?$char_traits@D@std@@V?$allocator@D@2@@std@@V12@@std@@QAEPAXI@Z ; std::pair<std::basic_string<char,std::char_traits<char>,std::allocator<char> > const ,std::basic_string<char,std::char_traits<char>,std::allocator<char> > >::`scalar deleting destructor'
PUBLIC	??$addressof@V?$_Vector_val@U?$_Simple_types@I@std@@@std@@@std@@YAPAV?$_Vector_val@U?$_Simple_types@I@std@@@0@AAV10@@Z ; std::addressof<std::_Vector_val<std::_Simple_types<unsigned int> > >
PUBLIC	??$addressof@V?$vector@IV?$allocator@I@std@@@std@@@std@@YAPAV?$vector@IV?$allocator@I@std@@@0@AAV10@@Z ; std::addressof<std::vector<unsigned int,std::allocator<unsigned int> > >
PUBLIC	??$move@AAV?$vector@IV?$allocator@I@std@@@std@@@std@@YA$$QAV?$vector@IV?$allocator@I@std@@@0@AAV10@@Z ; std::move<std::vector<unsigned int,std::allocator<unsigned int> > &>
PUBLIC	??$?0V?$allocator@I@std@@X@?$_Vector_alloc@U?$_Vec_base_types@IV?$allocator@I@std@@@std@@@std@@QAE@$$QAV?$allocator@I@1@@Z ; std::_Vector_alloc<std::_Vec_base_types<unsigned int,std::allocator<unsigned int> > >::_Vector_alloc<std::_Vec_base_types<unsigned int,std::allocator<unsigned int> > ><std::allocator<unsigned int>,void>
PUBLIC	??$_Ucopy@PAI@?$vector@IV?$allocator@I@std@@@std@@AAEPAIPAI00@Z ; std::vector<unsigned int,std::allocator<unsigned int> >::_Ucopy<unsigned int *>
PUBLIC	??$addressof@V?$_Vector_val@U?$_Simple_types@PAVRaven_Bot@@@std@@@std@@@std@@YAPAV?$_Vector_val@U?$_Simple_types@PAVRaven_Bot@@@std@@@0@AAV10@@Z ; std::addressof<std::_Vector_val<std::_Simple_types<Raven_Bot *> > >
PUBLIC	??$emplace_back@ABQAVRaven_Bot@@@?$vector@PAVRaven_Bot@@V?$allocator@PAVRaven_Bot@@@std@@@std@@QAE@ABQAVRaven_Bot@@@Z ; std::vector<Raven_Bot *,std::allocator<Raven_Bot *> >::emplace_back<Raven_Bot * const &>
PUBLIC	??$forward@ABQAVRaven_Bot@@@std@@YAABQAVRaven_Bot@@ABQAV1@@Z ; std::forward<Raven_Bot * const &>
PUBLIC	??$_Emplace_back_with_unused_capacity@ABQAVRaven_Bot@@@?$vector@PAVRaven_Bot@@V?$allocator@PAVRaven_Bot@@@std@@@std@@AAE@ABQAVRaven_Bot@@@Z ; std::vector<Raven_Bot *,std::allocator<Raven_Bot *> >::_Emplace_back_with_unused_capacity<Raven_Bot * const &>
PUBLIC	??$_Unfancy@PAVRaven_Bot@@@std@@YAPAPAVRaven_Bot@@PAPAV1@@Z ; std::_Unfancy<Raven_Bot *>
PUBLIC	??$construct@PAVRaven_Bot@@ABQAV1@@?$_Default_allocator_traits@V?$allocator@PAVRaven_Bot@@@std@@@std@@SAXAAV?$allocator@PAVRaven_Bot@@@1@QAPAVRaven_Bot@@ABQAV3@@Z ; std::_Default_allocator_traits<std::allocator<Raven_Bot *> >::construct<Raven_Bot *,Raven_Bot * const &>
PUBLIC	??$_Emplace_reallocate@ABQAVRaven_Bot@@@?$vector@PAVRaven_Bot@@V?$allocator@PAVRaven_Bot@@@std@@@std@@QAEPAPAVRaven_Bot@@QAPAV2@ABQAV2@@Z ; std::vector<Raven_Bot *,std::allocator<Raven_Bot *> >::_Emplace_reallocate<Raven_Bot * const &>
PUBLIC	??$move@AAV?$allocator@PAVRaven_Bot@@@std@@@std@@YA$$QAV?$allocator@PAVRaven_Bot@@@0@AAV10@@Z ; std::move<std::allocator<Raven_Bot *> &>
PUBLIC	??$?0V?$allocator@PAVRaven_Bot@@@std@@X@?$_Vector_alloc@U?$_Vec_base_types@PAVRaven_Bot@@V?$allocator@PAVRaven_Bot@@@std@@@std@@@std@@QAE@$$QAV?$allocator@PAVRaven_Bot@@@1@@Z ; std::_Vector_alloc<std::_Vec_base_types<Raven_Bot *,std::allocator<Raven_Bot *> > >::_Vector_alloc<std::_Vec_base_types<Raven_Bot *,std::allocator<Raven_Bot *> > ><std::allocator<Raven_Bot *>,void>
PUBLIC	??$move@AAV?$vector@PAVRaven_Bot@@V?$allocator@PAVRaven_Bot@@@std@@@std@@@std@@YA$$QAV?$vector@PAVRaven_Bot@@V?$allocator@PAVRaven_Bot@@@std@@@0@AAV10@@Z ; std::move<std::vector<Raven_Bot *,std::allocator<Raven_Bot *> > &>
PUBLIC	??0?$_List_unchecked_const_iterator@V?$_List_val@U?$_List_simple_types@PAVRaven_Projectile@@@std@@@std@@U_Iterator_base0@2@@std@@QAE@PAU?$_List_node@PAVRaven_Projectile@@PAX@1@PBV?$_List_val@U?$_List_simple_types@PAVRaven_Projectile@@@std@@@1@@Z ; std::_List_unchecked_const_iterator<std::_List_val<std::_List_simple_types<Raven_Projectile *> >,std::_Iterator_base0>::_List_unchecked_const_iterator<std::_List_val<std::_List_simple_types<Raven_Projectile *> >,std::_Iterator_base0>
PUBLIC	??0?$_List_unchecked_iterator@V?$_List_val@U?$_List_simple_types@PAVRaven_Projectile@@@std@@@std@@@std@@QAE@PAU?$_List_node@PAVRaven_Projectile@@PAX@1@PBV?$_List_val@U?$_List_simple_types@PAVRaven_Projectile@@@std@@@1@@Z ; std::_List_unchecked_iterator<std::_List_val<std::_List_simple_types<Raven_Projectile *> > >::_List_unchecked_iterator<std::_List_val<std::_List_simple_types<Raven_Projectile *> > >
PUBLIC	??$_Insert@ABQAVRaven_Projectile@@@?$list@PAVRaven_Projectile@@V?$allocator@PAVRaven_Projectile@@@std@@@std@@QAEXV?$_List_unchecked_const_iterator@V?$_List_val@U?$_List_simple_types@PAVRaven_Projectile@@@std@@@std@@U_Iterator_base0@2@@1@ABQAVRaven_Projectile@@@Z ; std::list<Raven_Projectile *,std::allocator<Raven_Projectile *> >::_Insert<Raven_Projectile * const &>
PUBLIC	??$addressof@V?$_List_val@U?$_List_simple_types@PAVRaven_Projectile@@@std@@@std@@@std@@YAPAV?$_List_val@U?$_List_simple_types@PAVRaven_Projectile@@@std@@@0@AAV10@@Z ; std::addressof<std::_List_val<std::_List_simple_types<Raven_Projectile *> > >
PUBLIC	??0?$_List_unchecked_const_iterator@V?$_List_val@U?$_List_simple_types@PAVRaven_Bot@@@std@@@std@@U_Iterator_base0@2@@std@@QAE@PAU?$_List_node@PAVRaven_Bot@@PAX@1@PBV?$_List_val@U?$_List_simple_types@PAVRaven_Bot@@@std@@@1@@Z ; std::_List_unchecked_const_iterator<std::_List_val<std::_List_simple_types<Raven_Bot *> >,std::_Iterator_base0>::_List_unchecked_const_iterator<std::_List_val<std::_List_simple_types<Raven_Bot *> >,std::_Iterator_base0>
PUBLIC	??0?$_List_unchecked_iterator@V?$_List_val@U?$_List_simple_types@PAVRaven_Bot@@@std@@@std@@@std@@QAE@PAU?$_List_node@PAVRaven_Bot@@PAX@1@PBV?$_List_val@U?$_List_simple_types@PAVRaven_Bot@@@std@@@1@@Z ; std::_List_unchecked_iterator<std::_List_val<std::_List_simple_types<Raven_Bot *> > >::_List_unchecked_iterator<std::_List_val<std::_List_simple_types<Raven_Bot *> > >
PUBLIC	??$_Insert@ABQAVRaven_Bot@@@?$list@PAVRaven_Bot@@V?$allocator@PAVRaven_Bot@@@std@@@std@@QAEXV?$_List_unchecked_const_iterator@V?$_List_val@U?$_List_simple_types@PAVRaven_Bot@@@std@@@std@@U_Iterator_base0@2@@1@ABQAVRaven_Bot@@@Z ; std::list<Raven_Bot *,std::allocator<Raven_Bot *> >::_Insert<Raven_Bot * const &>
PUBLIC	??$addressof@$$CBV?$_List_val@U?$_List_simple_types@PAVRaven_Bot@@@std@@@std@@@std@@YAPBV?$_List_val@U?$_List_simple_types@PAVRaven_Bot@@@std@@@0@ABV10@@Z ; std::addressof<std::_List_val<std::_List_simple_types<Raven_Bot *> > const >
PUBLIC	??$addressof@V?$_List_val@U?$_List_simple_types@PAVRaven_Bot@@@std@@@std@@@std@@YAPAV?$_List_val@U?$_List_simple_types@PAVRaven_Bot@@@std@@@0@AAV10@@Z ; std::addressof<std::_List_val<std::_List_simple_types<Raven_Bot *> > >
PUBLIC	??$_Min_value@I@std@@YAABIABI0@Z		; std::_Min_value<unsigned int>
PUBLIC	??$_Unfancy@D@std@@YAPADPAD@Z			; std::_Unfancy<char>
PUBLIC	??$?0V?$allocator@D@std@@X@?$_String_alloc@U?$_String_base_types@DV?$allocator@D@std@@@std@@@std@@QAE@$$QAV?$allocator@D@1@@Z ; std::_String_alloc<std::_String_base_types<char,std::allocator<char> > >::_String_alloc<std::_String_base_types<char,std::allocator<char> > ><std::allocator<char>,void>
PUBLIC	??$?0$$V@?$_Compressed_pair@V?$allocator@PAVRaven_Bot@@@std@@V?$_Vector_val@U?$_Simple_types@PAVRaven_Bot@@@std@@@2@$00@std@@QAE@U_Zero_then_variadic_args_t@1@@Z ; std::_Compressed_pair<std::allocator<Raven_Bot *>,std::_Vector_val<std::_Simple_types<Raven_Bot *> >,1>::_Compressed_pair<std::allocator<Raven_Bot *>,std::_Vector_val<std::_Simple_types<Raven_Bot *> >,1><>
PUBLIC	??$addressof@U?$pair@$$CBHPAVBaseGameEntity@@@std@@@std@@YAPAU?$pair@$$CBHPAVBaseGameEntity@@@0@AAU10@@Z ; std::addressof<std::pair<int const ,BaseGameEntity *> >
PUBLIC	??$destroy@U?$pair@$$CBHPAVBaseGameEntity@@@std@@@?$_Default_allocator_traits@V?$allocator@U?$_Tree_node@U?$pair@$$CBHPAVBaseGameEntity@@@std@@PAX@std@@@std@@@std@@SAXAAV?$allocator@U?$_Tree_node@U?$pair@$$CBHPAVBaseGameEntity@@@std@@PAX@std@@@1@QAU?$pair@$$CBHPAVBaseGameEntity@@@1@@Z ; std::_Default_allocator_traits<std::allocator<std::_Tree_node<std::pair<int const ,BaseGameEntity *>,void *> > >::destroy<std::pair<int const ,BaseGameEntity *> >
PUBLIC	??$_Freenode0@V?$allocator@U?$_Tree_node@U?$pair@$$CBHPAVBaseGameEntity@@@std@@PAX@std@@@std@@@?$_Tree_node@U?$pair@$$CBHPAVBaseGameEntity@@@std@@PAX@std@@SAXAAV?$allocator@U?$_Tree_node@U?$pair@$$CBHPAVBaseGameEntity@@@std@@PAX@std@@@1@PAU01@@Z ; std::_Tree_node<std::pair<int const ,BaseGameEntity *>,void *>::_Freenode0<std::allocator<std::_Tree_node<std::pair<int const ,BaseGameEntity *>,void *> > >
PUBLIC	?pointer_to@?$pointer_traits@PAU?$pair@$$CBV?$basic_string@DU?$char_traits@D@std@@V?$allocator@D@2@@std@@V12@@std@@@std@@SAPAU?$pair@$$CBV?$basic_string@DU?$char_traits@D@std@@V?$allocator@D@2@@std@@V12@@2@AAU32@@Z ; std::pointer_traits<std::pair<std::basic_string<char,std::char_traits<char>,std::allocator<char> > const ,std::basic_string<char,std::char_traits<char>,std::allocator<char> > > *>::pointer_to
PUBLIC	??$?9II@std@@YA_NABV?$allocator@I@0@0@Z		; std::operator!=<unsigned int,unsigned int>
PUBLIC	??$_Pocma@V?$allocator@I@std@@@std@@YAXAAV?$allocator@I@0@0@Z ; std::_Pocma<std::allocator<unsigned int> >
PUBLIC	??$?0$$V@?$_Compressed_pair@V?$allocator@I@std@@V?$_Vector_val@U?$_Simple_types@I@std@@@2@$00@std@@QAE@U_Zero_then_variadic_args_t@1@@Z ; std::_Compressed_pair<std::allocator<unsigned int>,std::_Vector_val<std::_Simple_types<unsigned int> >,1>::_Compressed_pair<std::allocator<unsigned int>,std::_Vector_val<std::_Simple_types<unsigned int> >,1><>
PUBLIC	??$addressof@PAVRaven_Projectile@@@std@@YAPAPAVRaven_Projectile@@AAPAV1@@Z ; std::addressof<Raven_Projectile *>
PUBLIC	??$destroy@PAVRaven_Projectile@@@?$_Default_allocator_traits@V?$allocator@U?$_List_node@PAVRaven_Projectile@@PAX@std@@@std@@@std@@SAXAAV?$allocator@U?$_List_node@PAVRaven_Projectile@@PAX@std@@@1@QAPAVRaven_Projectile@@@Z ; std::_Default_allocator_traits<std::allocator<std::_List_node<Raven_Projectile *,void *> > >::destroy<Raven_Projectile *>
PUBLIC	??$_Freenode0@V?$allocator@U?$_List_node@PAVRaven_Projectile@@PAX@std@@@std@@@?$_List_node@PAVRaven_Projectile@@PAX@std@@SAXAAV?$allocator@U?$_List_node@PAVRaven_Projectile@@PAX@std@@@1@PAU01@@Z ; std::_List_node<Raven_Projectile *,void *>::_Freenode0<std::allocator<std::_List_node<Raven_Projectile *,void *> > >
PUBLIC	??$addressof@$$CBV?$_List_val@U?$_List_simple_types@PAVRaven_Projectile@@@std@@@std@@@std@@YAPBV?$_List_val@U?$_List_simple_types@PAVRaven_Projectile@@@std@@@0@ABV10@@Z ; std::addressof<std::_List_val<std::_List_simple_types<Raven_Projectile *> > const >
PUBLIC	??$?0$$V@?$_Compressed_pair@V?$allocator@PAVTeam@@@std@@V?$_Vector_val@U?$_Simple_types@PAVTeam@@@std@@@2@$00@std@@QAE@U_Zero_then_variadic_args_t@1@@Z ; std::_Compressed_pair<std::allocator<Team *>,std::_Vector_val<std::_Simple_types<Team *> >,1>::_Compressed_pair<std::allocator<Team *>,std::_Vector_val<std::_Simple_types<Team *> >,1><>
PUBLIC	??$addressof@PAVRaven_Bot@@@std@@YAPAPAVRaven_Bot@@AAPAV1@@Z ; std::addressof<Raven_Bot *>
PUBLIC	??$destroy@PAVRaven_Bot@@@?$_Default_allocator_traits@V?$allocator@U?$_List_node@PAVRaven_Bot@@PAX@std@@@std@@@std@@SAXAAV?$allocator@U?$_List_node@PAVRaven_Bot@@PAX@std@@@1@QAPAVRaven_Bot@@@Z ; std::_Default_allocator_traits<std::allocator<std::_List_node<Raven_Bot *,void *> > >::destroy<Raven_Bot *>
PUBLIC	??$_Freenode0@V?$allocator@U?$_List_node@PAVRaven_Bot@@PAX@std@@@std@@@?$_List_node@PAVRaven_Bot@@PAX@std@@SAXAAV?$allocator@U?$_List_node@PAVRaven_Bot@@PAX@std@@@1@PAU01@@Z ; std::_List_node<Raven_Bot *,void *>::_Freenode0<std::allocator<std::_List_node<Raven_Bot *,void *> > >
PUBLIC	??$?0$$V@?$_Compressed_pair@V?$allocator@D@std@@V?$_String_val@U?$_Simple_types@D@std@@@2@$00@std@@QAE@U_Zero_then_variadic_args_t@1@@Z ; std::_Compressed_pair<std::allocator<char>,std::_String_val<std::_Simple_types<char> >,1>::_Compressed_pair<std::allocator<char>,std::_String_val<std::_Simple_types<char> >,1><>
PUBLIC	??$addressof@PAD@std@@YAPAPADAAPAD@Z		; std::addressof<char *>
PUBLIC	??$destroy@PAD@?$_Default_allocator_traits@V?$allocator@D@std@@@std@@SAXAAV?$allocator@D@1@QAPAD@Z ; std::_Default_allocator_traits<std::allocator<char> >::destroy<char *>
PUBLIC	??$_Max_value@I@std@@YAABIABI0@Z		; std::_Max_value<unsigned int>
PUBLIC	??R<lambda_9366063389c5f42a00a5088cf24e69de>@@QBE@QADIQBD@Z ; <lambda_9366063389c5f42a00a5088cf24e69de>::operator()
PUBLIC	??$_Reallocate_for@V<lambda_9366063389c5f42a00a5088cf24e69de>@@PBD@?$basic_string@DU?$char_traits@D@std@@V?$allocator@D@2@@std@@QAEAAV01@IV<lambda_9366063389c5f42a00a5088cf24e69de>@@PBD@Z ; std::basic_string<char,std::char_traits<char>,std::allocator<char> >::_Reallocate_for<<lambda_9366063389c5f42a00a5088cf24e69de>,char const *>
PUBLIC	??$construct@PADABQAD@?$_Default_allocator_traits@V?$allocator@D@std@@@std@@SAXAAV?$allocator@D@1@QAPADABQAD@Z ; std::_Default_allocator_traits<std::allocator<char> >::construct<char *,char * const &>
PUBLIC	??$addressof@V?$_String_val@U?$_Simple_types@D@std@@@std@@@std@@YAPAV?$_String_val@U?$_Simple_types@D@std@@@0@AAV10@@Z ; std::addressof<std::_String_val<std::_Simple_types<char> > >
PUBLIC	??$_Allocate@$07U_Default_allocate_traits@std@@$0A@@std@@YAPAXI@Z ; std::_Allocate<8,std::_Default_allocate_traits,0>
PUBLIC	??$_Deallocate@$07$0A@@std@@YAXPAXI@Z		; std::_Deallocate<8,0>
PUBLIC	??$addressof@U?$pair@$$CBV?$basic_string@DU?$char_traits@D@std@@V?$allocator@D@2@@std@@V12@@std@@@std@@YAPAU?$pair@$$CBV?$basic_string@DU?$char_traits@D@std@@V?$allocator@D@2@@std@@V12@@0@AAU10@@Z ; std::addressof<std::pair<std::basic_string<char,std::char_traits<char>,std::allocator<char> > const ,std::basic_string<char,std::char_traits<char>,std::allocator<char> > > >
PUBLIC	?allocate@?$allocator@U_Container_proxy@std@@@std@@QAEPAU_Container_proxy@2@I@Z ; std::allocator<std::_Container_proxy>::allocate
PUBLIC	??$?0PAVRaven_Bot@@@?$allocator@U_Container_proxy@std@@@std@@QAE@ABV?$allocator@PAVRaven_Bot@@@1@@Z ; std::allocator<std::_Container_proxy>::allocator<std::_Container_proxy><Raven_Bot *>
PUBLIC	?deallocate@?$_Default_allocator_traits@V?$allocator@U_Container_proxy@std@@@std@@@std@@SAXAAV?$allocator@U_Container_proxy@std@@@2@QAU_Container_proxy@2@I@Z ; std::_Default_allocator_traits<std::allocator<std::_Container_proxy> >::deallocate
PUBLIC	??$destroy@U_Container_proxy@std@@@?$_Default_allocator_traits@V?$allocator@U_Container_proxy@std@@@std@@@std@@SAXAAV?$allocator@U_Container_proxy@std@@@1@QAU_Container_proxy@1@@Z ; std::_Default_allocator_traits<std::allocator<std::_Container_proxy> >::destroy<std::_Container_proxy>
PUBLIC	??$_Deallocate_plain@V?$allocator@U_Container_proxy@std@@@std@@$0A@@std@@YAXAAV?$allocator@U_Container_proxy@std@@@0@QAU_Container_proxy@0@@Z ; std::_Deallocate_plain<std::allocator<std::_Container_proxy>,0>
PUBLIC	??$_Unfancy@U_Container_proxy@std@@@std@@YAPAU_Container_proxy@0@PAU10@@Z ; std::_Unfancy<std::_Container_proxy>
PUBLIC	??$construct@U_Container_proxy@std@@U12@@?$_Default_allocator_traits@V?$allocator@U_Container_proxy@std@@@std@@@std@@SAXAAV?$allocator@U_Container_proxy@std@@@1@QAU_Container_proxy@1@$$QAU31@@Z ; std::_Default_allocator_traits<std::allocator<std::_Container_proxy> >::construct<std::_Container_proxy,std::_Container_proxy>
PUBLIC	??$_Freenode0@V?$allocator@U?$_List_node@PAVRaven_PathPlanner@@PAX@std@@@std@@@?$_List_node@PAVRaven_PathPlanner@@PAX@std@@SAXAAV?$allocator@U?$_List_node@PAVRaven_PathPlanner@@PAX@std@@@1@PAU01@@Z ; std::_List_node<Raven_PathPlanner *,void *>::_Freenode0<std::allocator<std::_List_node<Raven_PathPlanner *,void *> > >
PUBLIC	??$?0U?$_List_node@PAVRaven_PathPlanner@@PAX@std@@@?$allocator@U_Container_proxy@std@@@std@@QAE@ABV?$allocator@U?$_List_node@PAVRaven_PathPlanner@@PAX@std@@@1@@Z ; std::allocator<std::_Container_proxy>::allocator<std::_Container_proxy><std::_List_node<Raven_PathPlanner *,void *> >
PUBLIC	??$_Freenode0@V?$allocator@U?$_List_node@UGraveRecord@GraveMarkers@@PAX@std@@@std@@@?$_List_node@UGraveRecord@GraveMarkers@@PAX@std@@SAXAAV?$allocator@U?$_List_node@UGraveRecord@GraveMarkers@@PAX@std@@@1@PAU01@@Z ; std::_List_node<GraveMarkers::GraveRecord,void *>::_Freenode0<std::allocator<std::_List_node<GraveMarkers::GraveRecord,void *> > >
PUBLIC	??$?0U?$_List_node@UGraveRecord@GraveMarkers@@PAX@std@@@?$allocator@U_Container_proxy@std@@@std@@QAE@ABV?$allocator@U?$_List_node@UGraveRecord@GraveMarkers@@PAX@std@@@1@@Z ; std::allocator<std::_Container_proxy>::allocator<std::_Container_proxy><std::_List_node<GraveMarkers::GraveRecord,void *> >
PUBLIC	??0?$_List_unchecked_const_iterator@V?$_List_val@U?$_List_simple_types@U?$pair@$$CBV?$basic_string@DU?$char_traits@D@std@@V?$allocator@D@2@@std@@V12@@std@@@std@@@std@@U_Iterator_base0@2@@std@@QAE@XZ ; std::_List_unchecked_const_iterator<std::_List_val<std::_List_simple_types<std::pair<std::basic_string<char,std::char_traits<char>,std::allocator<char> > const ,std::basic_string<char,std::char_traits<char>,std::allocator<char> > > > >,std::_Iterator_base0>::_List_unchecked_const_iterator<std::_List_val<std::_List_simple_types<std::pair<std::basic_string<char,std::char_traits<char>,std::allocator<char> > const ,std::basic_string<char,std::char_traits<char>,std::allocator<char> > > > >,std::_Iterator_base0>
PUBLIC	??0?$_List_unchecked_const_iterator@V?$_List_val@U?$_List_simple_types@U?$pair@$$CBV?$basic_string@DU?$char_traits@D@std@@V?$allocator@D@2@@std@@V12@@std@@@std@@@std@@U_Iterator_base0@2@@std@@QAE@PAU?$_List_node@U?$pair@$$CBV?$basic_string@DU?$char_traits@D@std@@V?$allocator@D@2@@std@@V12@@std@@PAX@1@PBV?$_List_val@U?$_List_simple_types@U?$pair@$$CBV?$basic_string@DU?$char_traits@D@std@@V?$allocator@D@2@@std@@V12@@std@@@std@@@1@@Z ; std::_List_unchecked_const_iterator<std::_List_val<std::_List_simple_types<std::pair<std::basic_string<char,std::char_traits<char>,std::allocator<char> > const ,std::basic_string<char,std::char_traits<char>,std::allocator<char> > > > >,std::_Iterator_base0>::_List_unchecked_const_iterator<std::_List_val<std::_List_simple_types<std::pair<std::basic_string<char,std::char_traits<char>,std::allocator<char> > const ,std::basic_string<char,std::char_traits<char>,std::allocator<char> > > > >,std::_Iterator_base0>
PUBLIC	??D?$_List_unchecked_const_iterator@V?$_List_val@U?$_List_simple_types@U?$pair@$$CBV?$basic_string@DU?$char_traits@D@std@@V?$allocator@D@2@@std@@V12@@std@@@std@@@std@@U_Iterator_base0@2@@std@@QBEABU?$pair@$$CBV?$basic_string@DU?$char_traits@D@std@@V?$allocator@D@2@@std@@V12@@1@XZ ; std::_List_unchecked_const_iterator<std::_List_val<std::_List_simple_types<std::pair<std::basic_string<char,std::char_traits<char>,std::allocator<char> > const ,std::basic_string<char,std::char_traits<char>,std::allocator<char> > > > >,std::_Iterator_base0>::operator*
PUBLIC	??E?$_List_unchecked_const_iterator@V?$_List_val@U?$_List_simple_types@U?$pair@$$CBV?$basic_string@DU?$char_traits@D@std@@V?$allocator@D@2@@std@@V12@@std@@@std@@@std@@U_Iterator_base0@2@@std@@QAEAAV01@XZ ; std::_List_unchecked_const_iterator<std::_List_val<std::_List_simple_types<std::pair<std::basic_string<char,std::char_traits<char>,std::allocator<char> > const ,std::basic_string<char,std::char_traits<char>,std::allocator<char> > > > >,std::_Iterator_base0>::operator++
PUBLIC	??F?$_List_unchecked_const_iterator@V?$_List_val@U?$_List_simple_types@U?$pair@$$CBV?$basic_string@DU?$char_traits@D@std@@V?$allocator@D@2@@std@@V12@@std@@@std@@@std@@U_Iterator_base0@2@@std@@QAEAAV01@XZ ; std::_List_unchecked_const_iterator<std::_List_val<std::_List_simple_types<std::pair<std::basic_string<char,std::char_traits<char>,std::allocator<char> > const ,std::basic_string<char,std::char_traits<char>,std::allocator<char> > > > >,std::_Iterator_base0>::operator--
PUBLIC	??8?$_List_unchecked_const_iterator@V?$_List_val@U?$_List_simple_types@U?$pair@$$CBV?$basic_string@DU?$char_traits@D@std@@V?$allocator@D@2@@std@@V12@@std@@@std@@@std@@U_Iterator_base0@2@@std@@QBE_NABV01@@Z ; std::_List_unchecked_const_iterator<std::_List_val<std::_List_simple_types<std::pair<std::basic_string<char,std::char_traits<char>,std::allocator<char> > const ,std::basic_string<char,std::char_traits<char>,std::allocator<char> > > > >,std::_Iterator_base0>::operator==
PUBLIC	??9?$_List_unchecked_const_iterator@V?$_List_val@U?$_List_simple_types@U?$pair@$$CBV?$basic_string@DU?$char_traits@D@std@@V?$allocator@D@2@@std@@V12@@std@@@std@@@std@@U_Iterator_base0@2@@std@@QBE_NABV01@@Z ; std::_List_unchecked_const_iterator<std::_List_val<std::_List_simple_types<std::pair<std::basic_string<char,std::char_traits<char>,std::allocator<char> > const ,std::basic_string<char,std::char_traits<char>,std::allocator<char> > > > >,std::_Iterator_base0>::operator!=
PUBLIC	??0?$_List_unchecked_iterator@V?$_List_val@U?$_List_simple_types@U?$pair@$$CBV?$basic_string@DU?$char_traits@D@std@@V?$allocator@D@2@@std@@V12@@std@@@std@@@std@@@std@@QAE@XZ ; std::_List_unchecked_iterator<std::_List_val<std::_List_simple_types<std::pair<std::basic_string<char,std::char_traits<char>,std::allocator<char> > const ,std::basic_string<char,std::char_traits<char>,std::allocator<char> > > > > >::_List_unchecked_iterator<std::_List_val<std::_List_simple_types<std::pair<std::basic_string<char,std::char_traits<char>,std::allocator<char> > const ,std::basic_string<char,std::char_traits<char>,std::allocator<char> > > > > >
PUBLIC	??0?$_List_unchecked_iterator@V?$_List_val@U?$_List_simple_types@U?$pair@$$CBV?$basic_string@DU?$char_traits@D@std@@V?$allocator@D@2@@std@@V12@@std@@@std@@@std@@@std@@QAE@PAU?$_List_node@U?$pair@$$CBV?$basic_string@DU?$char_traits@D@std@@V?$allocator@D@2@@std@@V12@@std@@PAX@1@PBV?$_List_val@U?$_List_simple_types@U?$pair@$$CBV?$basic_string@DU?$char_traits@D@std@@V?$allocator@D@2@@std@@V12@@std@@@std@@@1@@Z ; std::_List_unchecked_iterator<std::_List_val<std::_List_simple_types<std::pair<std::basic_string<char,std::char_traits<char>,std::allocator<char> > const ,std::basic_string<char,std::char_traits<char>,std::allocator<char> > > > > >::_List_unchecked_iterator<std::_List_val<std::_List_simple_types<std::pair<std::basic_string<char,std::char_traits<char>,std::allocator<char> > const ,std::basic_string<char,std::char_traits<char>,std::allocator<char> > > > > >
