; Listing generated by Microsoft (R) Optimizing Compiler Version 19.15.26730.0 

	TITLE	C:\Users\Utilisateur\Documents\GitKraken\8IAR125-ProjetRaven\VS2015\Buckland_Chapter7 to 10_Raven\TeamManager.cpp
	.686P
	.XMM
	include listing.inc
	.model	flat

INCLUDELIB LIBCMTD
INCLUDELIB OLDNAMES

PUBLIC	?instance@TeamManager@@0PAV1@A			; TeamManager::instance
_BSS	SEGMENT
?instance@TeamManager@@0PAV1@A DD 01H DUP (?)		; TeamManager::instance
_BSS	ENDS
CONST	SEGMENT
?colors@@3QBKB DD 0ffH					; colors
	DD	0ff0000H
	DD	0ff00H
	DD	00H
	DD	0c8c8ffH
	DD	0c8c8c8H
	DD	0ffffH
	DD	0aaffH
	DD	0aa00ffH
	DD	05a85H
	DD	0ffffffH
	DD	06400H
	DD	0ffff00H
	DD	0c8c8c8H
	DD	0e6e6ffH
CONST	ENDS
PUBLIC	?__empty_global_delete@@YAXPAX@Z		; __empty_global_delete
PUBLIC	?__empty_global_delete@@YAXPAXI@Z		; __empty_global_delete
PUBLIC	?max@?$numeric_limits@H@std@@SAHXZ		; std::numeric_limits<int>::max
PUBLIC	?min@?$numeric_limits@M@std@@SAMXZ		; std::numeric_limits<float>::min
PUBLIC	?max@?$numeric_limits@M@std@@SAMXZ		; std::numeric_limits<float>::max
PUBLIC	?min@?$numeric_limits@N@std@@SANXZ		; std::numeric_limits<double>::min
PUBLIC	?max@?$numeric_limits@N@std@@SANXZ		; std::numeric_limits<double>::max
PUBLIC	??0_Iterator_base12_compatible@std@@QAE@XZ	; std::_Iterator_base12_compatible::_Iterator_base12_compatible
PUBLIC	??0id@locale@std@@QAE@I@Z			; std::locale::id::id
PUBLIC	?GetTeam@Raven_Bot@@QBEPAVTeam@@XZ		; Raven_Bot::GetTeam
PUBLIC	??0TeamManager@@AAE@PAVRaven_Game@@@Z		; TeamManager::TeamManager
PUBLIC	?begin@?$array@PAVTeam@@$02@std@@QAE?AV?$_Array_iterator@PAVTeam@@$02@2@XZ ; std::array<Team *,3>::begin
PUBLIC	?end@?$array@PAVTeam@@$02@std@@QAE?AV?$_Array_iterator@PAVTeam@@$02@2@XZ ; std::array<Team *,3>::end
PUBLIC	??A?$array@PAVTeam@@$02@std@@QAEAAPAVTeam@@I@Z	; std::array<Team *,3>::operator[]
PUBLIC	?Instance@TeamManager@@SAPAV1@PAVRaven_Game@@@Z	; TeamManager::Instance
PUBLIC	?AddBot@TeamManager@@QAEXW4teams@@PAVRaven_Bot@@@Z ; TeamManager::AddBot
PUBLIC	?RemoveBot@TeamManager@@QAEXW4teams@@PAVRaven_Bot@@@Z ; TeamManager::RemoveBot
PUBLIC	?NewWorldBot@TeamManager@@QAEXPAVRaven_Bot@@@Z	; TeamManager::NewWorldBot
PUBLIC	?OnBotDeath@TeamManager@@QAEXPAVRaven_Bot@@@Z	; TeamManager::OnBotDeath
PUBLIC	??0?$_Array_const_iterator@PAVTeam@@$02@std@@QAE@PBQAVTeam@@I@Z ; std::_Array_const_iterator<Team *,3>::_Array_const_iterator<Team *,3>
PUBLIC	??D?$_Array_const_iterator@PAVTeam@@$02@std@@QBEABQAVTeam@@XZ ; std::_Array_const_iterator<Team *,3>::operator*
PUBLIC	??C?$_Array_const_iterator@PAVTeam@@$02@std@@QBEPBQAVTeam@@XZ ; std::_Array_const_iterator<Team *,3>::operator->
PUBLIC	??E?$_Array_const_iterator@PAVTeam@@$02@std@@QAEAAV01@XZ ; std::_Array_const_iterator<Team *,3>::operator++
PUBLIC	??8?$_Array_const_iterator@PAVTeam@@$02@std@@QBE_NABV01@@Z ; std::_Array_const_iterator<Team *,3>::operator==
PUBLIC	??9?$_Array_const_iterator@PAVTeam@@$02@std@@QBE_NABV01@@Z ; std::_Array_const_iterator<Team *,3>::operator!=
PUBLIC	?_Compat@?$_Array_const_iterator@PAVTeam@@$02@std@@QBEXABV12@@Z ; std::_Array_const_iterator<Team *,3>::_Compat
PUBLIC	??0?$_Array_iterator@PAVTeam@@$02@std@@QAE@PAPAVTeam@@I@Z ; std::_Array_iterator<Team *,3>::_Array_iterator<Team *,3>
PUBLIC	??D?$_Array_iterator@PAVTeam@@$02@std@@QBEAAPAVTeam@@XZ ; std::_Array_iterator<Team *,3>::operator*
PUBLIC	??E?$_Array_iterator@PAVTeam@@$02@std@@QAEAAV01@XZ ; std::_Array_iterator<Team *,3>::operator++
PUBLIC	??E?$_Array_iterator@PAVTeam@@$02@std@@QAE?AV01@H@Z ; std::_Array_iterator<Team *,3>::operator++
PUBLIC	??_C@_02DKCKIIND@?$CFs@				; `string'
PUBLIC	??_C@_0GJ@DMCEMOMH@c?3?2program?5files?5?$CIx86?$CJ?2microsof@ ; `string'
PUBLIC	??_C@_1NC@HPHBFJCM@?$AAc?$AA?3?$AA?2?$AAp?$AAr?$AAo?$AAg?$AAr?$AAa?$AAm?$AA?5?$AAf?$AAi?$AAl?$AAe@ ; `string'
PUBLIC	??_C@_0BN@HMIFLIEM@array?5subscript?5out?5of?5range@ ; `string'
PUBLIC	??_C@_0GG@OLGMCIID@c?3?2program?5files?5?$CIx86?$CJ?2microsof@ ; `string'
PUBLIC	??_C@_1MM@FPNMBLKJ@?$AAc?$AA?3?$AA?2?$AAp?$AAr?$AAo?$AAg?$AAr?$AAa?$AAm?$AA?5?$AAf?$AAi?$AAl?$AAe@ ; `string'
PUBLIC	??_C@_1FA@EFCHFMFI@?$AAs?$AAt?$AAd?$AA?3?$AA?3?$AAa?$AAr?$AAr?$AAa?$AAy?$AA?$DM?$AAc?$AAl?$AAa?$AAs@ ; `string'
PUBLIC	??_C@_1DO@NCBLADDF@?$AA?$CC?$AAa?$AAr?$AAr?$AAa?$AAy?$AA?5?$AAs?$AAu?$AAb?$AAs?$AAc?$AAr?$AAi?$AAp@ ; `string'
PUBLIC	?id@?$codecvt@DDU_Mbstatet@@@std@@2V0locale@2@A	; std::codecvt<char,char,_Mbstatet>::id
PUBLIC	?id@?$num_put@DV?$ostreambuf_iterator@DU?$char_traits@D@std@@@std@@@std@@2V0locale@2@A ; std::num_put<char,std::ostreambuf_iterator<char,std::char_traits<char> > >::id
PUBLIC	?id@?$numpunct@D@std@@2V0locale@2@A		; std::numpunct<char>::id
PUBLIC	??_C@_0BN@KJMKNNDM@array?5iterators?5incompatible@ ; `string'
PUBLIC	??_C@_1GI@GBPBCEMA@?$AAs?$AAt?$AAd?$AA?3?$AA?3?$AA_?$AAA?$AAr?$AAr?$AAa?$AAy?$AA_?$AAc?$AAo?$AAn@ ; `string'
PUBLIC	??_C@_1DO@FPIDHOGM@?$AA?$CC?$AAa?$AAr?$AAr?$AAa?$AAy?$AA?5?$AAi?$AAt?$AAe?$AAr?$AAa?$AAt?$AAo?$AAr@ ; `string'
PUBLIC	??_C@_0DC@CAJMMAOA@cannot?5increment?5value?9initiali@ ; `string'
PUBLIC	??_C@_1HA@OLOKDMPH@?$AAs?$AAt?$AAd?$AA?3?$AA?3?$AA_?$AAA?$AAr?$AAr?$AAa?$AAy?$AA_?$AAc?$AAo?$AAn@ ; `string'
PUBLIC	??_C@_1GI@PNOEPOAP@?$AA?$CC?$AAc?$AAa?$AAn?$AAn?$AAo?$AAt?$AA?5?$AAi?$AAn?$AAc?$AAr?$AAe?$AAm?$AAe@ ; `string'
PUBLIC	??_C@_0CJ@KOGELFMP@cannot?5increment?5array?5iterator@ ; `string'
PUBLIC	??_C@_1FG@CGKPPJBO@?$AA?$CC?$AAc?$AAa?$AAn?$AAn?$AAo?$AAt?$AA?5?$AAi?$AAn?$AAc?$AAr?$AAe?$AAm?$AAe@ ; `string'
PUBLIC	??_C@_0DE@OGBMIMME@cannot?5dereference?5value?9initia@ ; `string'
PUBLIC	??_C@_1HA@FKHEHIEH@?$AAs?$AAt?$AAd?$AA?3?$AA?3?$AA_?$AAA?$AAr?$AAr?$AAa?$AAy?$AA_?$AAc?$AAo?$AAn@ ; `string'
PUBLIC	??_C@_1GM@HIODFCIG@?$AA?$CC?$AAc?$AAa?$AAn?$AAn?$AAo?$AAt?$AA?5?$AAd?$AAe?$AAr?$AAe?$AAf?$AAe?$AAr@ ; `string'
PUBLIC	??_C@_0CP@MJDCINHP@cannot?5dereference?5out?5of?5range@ ; `string'
PUBLIC	??_C@_1GC@FBLGLEEL@?$AA?$CC?$AAc?$AAa?$AAn?$AAn?$AAo?$AAt?$AA?5?$AAd?$AAe?$AAr?$AAe?$AAf?$AAe?$AAr@ ; `string'
PUBLIC	?id@?$num_get@DV?$istreambuf_iterator@DU?$char_traits@D@std@@@std@@@std@@2V0locale@2@A ; std::num_get<char,std::istreambuf_iterator<char,std::char_traits<char> > >::id
PUBLIC	__real@0010000000000000
PUBLIC	__real@00800000
PUBLIC	__real@7f7fffff
PUBLIC	__real@7fefffffffffffff
EXTRN	??2@YAPAXI@Z:PROC				; operator new
EXTRN	??3@YAXPAXI@Z:PROC				; operator delete
EXTRN	__invalid_parameter:PROC
EXTRN	__CrtDbgReport:PROC
EXTRN	?BotInTeam@Team@@QBE_NPBVRaven_Bot@@@Z:PROC	; Team::BotInTeam
EXTRN	@_RTC_CheckStackVars@8:PROC
EXTRN	@__security_check_cookie@4:PROC
EXTRN	__RTC_CheckEsp:PROC
EXTRN	__RTC_InitBase:PROC
EXTRN	__RTC_Shutdown:PROC
EXTRN	___CxxFrameHandler3:PROC
EXTRN	___security_cookie:DWORD
EXTRN	__fltused:DWORD
_BSS	SEGMENT
?MaxInt@@3HB DD	01H DUP (?)				; MaxInt
?MaxDouble@@3NB DQ 01H DUP (?)				; MaxDouble
?MinDouble@@3NB DQ 01H DUP (?)				; MinDouble
?MaxFloat@@3MB DD 01H DUP (?)				; MaxFloat
?MinFloat@@3MB DD 01H DUP (?)				; MinFloat
_BSS	ENDS
;	COMDAT ?id@?$codecvt@DDU_Mbstatet@@@std@@2V0locale@2@A
_BSS	SEGMENT
?id@?$codecvt@DDU_Mbstatet@@@std@@2V0locale@2@A DD 01H DUP (?) ; std::codecvt<char,char,_Mbstatet>::id
_BSS	ENDS
;	COMDAT ?id@?$num_put@DV?$ostreambuf_iterator@DU?$char_traits@D@std@@@std@@@std@@2V0locale@2@A
_BSS	SEGMENT
?id@?$num_put@DV?$ostreambuf_iterator@DU?$char_traits@D@std@@@std@@@std@@2V0locale@2@A DD 01H DUP (?) ; std::num_put<char,std::ostreambuf_iterator<char,std::char_traits<char> > >::id
_BSS	ENDS
;	COMDAT ?id@?$numpunct@D@std@@2V0locale@2@A
_BSS	SEGMENT
?id@?$numpunct@D@std@@2V0locale@2@A DD 01H DUP (?)	; std::numpunct<char>::id
_BSS	ENDS
;	COMDAT ?id@?$num_get@DV?$istreambuf_iterator@DU?$char_traits@D@std@@@std@@@std@@2V0locale@2@A
_BSS	SEGMENT
?id@?$num_get@DV?$istreambuf_iterator@DU?$char_traits@D@std@@@std@@@std@@2V0locale@2@A DD 01H DUP (?) ; std::num_get<char,std::istreambuf_iterator<char,std::char_traits<char> > >::id
_BSS	ENDS
CRT$XCU	SEGMENT
?MaxInt$initializer$@@3P6AXXZA DD FLAT:??__EMaxInt@@YAXXZ ; MaxInt$initializer$
CRT$XCU	ENDS
;	COMDAT __real@7fefffffffffffff
CONST	SEGMENT
__real@7fefffffffffffff DQ 07fefffffffffffffr	; 1.79769e+308
CONST	ENDS
;	COMDAT __real@7f7fffff
CONST	SEGMENT
__real@7f7fffff DD 07f7fffffr			; 3.40282e+38
CONST	ENDS
;	COMDAT __real@00800000
CONST	SEGMENT
__real@00800000 DD 000800000r			; 1.17549e-38
CONST	ENDS
;	COMDAT __real@0010000000000000
CONST	SEGMENT
__real@0010000000000000 DQ 00010000000000000r	; 2.22507e-308
CONST	ENDS
;	COMDAT rtc$TMZ
rtc$TMZ	SEGMENT
__RTC_Shutdown.rtc$TMZ DD FLAT:__RTC_Shutdown
rtc$TMZ	ENDS
;	COMDAT rtc$IMZ
rtc$IMZ	SEGMENT
__RTC_InitBase.rtc$IMZ DD FLAT:__RTC_InitBase
rtc$IMZ	ENDS
;	COMDAT ??_C@_1GC@FBLGLEEL@?$AA?$CC?$AAc?$AAa?$AAn?$AAn?$AAo?$AAt?$AA?5?$AAd?$AAe?$AAr?$AAe?$AAf?$AAe?$AAr@
CONST	SEGMENT
??_C@_1GC@FBLGLEEL@?$AA?$CC?$AAc?$AAa?$AAn?$AAn?$AAo?$AAt?$AA?5?$AAd?$AAe?$AAr?$AAe?$AAf?$AAe?$AAr@ DB '"'
	DB	00H, 'c', 00H, 'a', 00H, 'n', 00H, 'n', 00H, 'o', 00H, 't', 00H
	DB	' ', 00H, 'd', 00H, 'e', 00H, 'r', 00H, 'e', 00H, 'f', 00H, 'e'
	DB	00H, 'r', 00H, 'e', 00H, 'n', 00H, 'c', 00H, 'e', 00H, ' ', 00H
	DB	'o', 00H, 'u', 00H, 't', 00H, ' ', 00H, 'o', 00H, 'f', 00H, ' '
	DB	00H, 'r', 00H, 'a', 00H, 'n', 00H, 'g', 00H, 'e', 00H, ' ', 00H
	DB	'a', 00H, 'r', 00H, 'r', 00H, 'a', 00H, 'y', 00H, ' ', 00H, 'i'
	DB	00H, 't', 00H, 'e', 00H, 'r', 00H, 'a', 00H, 't', 00H, 'o', 00H
	DB	'r', 00H, '"', 00H, 00H, 00H			; `string'
CONST	ENDS
;	COMDAT ??_C@_0CP@MJDCINHP@cannot?5dereference?5out?5of?5range@
CONST	SEGMENT
??_C@_0CP@MJDCINHP@cannot?5dereference?5out?5of?5range@ DB 'cannot derefe'
	DB	'rence out of range array iterator', 00H	; `string'
CONST	ENDS
;	COMDAT ??_C@_1GM@HIODFCIG@?$AA?$CC?$AAc?$AAa?$AAn?$AAn?$AAo?$AAt?$AA?5?$AAd?$AAe?$AAr?$AAe?$AAf?$AAe?$AAr@
CONST	SEGMENT
??_C@_1GM@HIODFCIG@?$AA?$CC?$AAc?$AAa?$AAn?$AAn?$AAo?$AAt?$AA?5?$AAd?$AAe?$AAr?$AAe?$AAf?$AAe?$AAr@ DB '"'
	DB	00H, 'c', 00H, 'a', 00H, 'n', 00H, 'n', 00H, 'o', 00H, 't', 00H
	DB	' ', 00H, 'd', 00H, 'e', 00H, 'r', 00H, 'e', 00H, 'f', 00H, 'e'
	DB	00H, 'r', 00H, 'e', 00H, 'n', 00H, 'c', 00H, 'e', 00H, ' ', 00H
	DB	'v', 00H, 'a', 00H, 'l', 00H, 'u', 00H, 'e', 00H, '-', 00H, 'i'
	DB	00H, 'n', 00H, 'i', 00H, 't', 00H, 'i', 00H, 'a', 00H, 'l', 00H
	DB	'i', 00H, 'z', 00H, 'e', 00H, 'd', 00H, ' ', 00H, 'a', 00H, 'r'
	DB	00H, 'r', 00H, 'a', 00H, 'y', 00H, ' ', 00H, 'i', 00H, 't', 00H
	DB	'e', 00H, 'r', 00H, 'a', 00H, 't', 00H, 'o', 00H, 'r', 00H, '"'
	DB	00H, 00H, 00H				; `string'
CONST	ENDS
;	COMDAT ??_C@_1HA@FKHEHIEH@?$AAs?$AAt?$AAd?$AA?3?$AA?3?$AA_?$AAA?$AAr?$AAr?$AAa?$AAy?$AA_?$AAc?$AAo?$AAn@
CONST	SEGMENT
??_C@_1HA@FKHEHIEH@?$AAs?$AAt?$AAd?$AA?3?$AA?3?$AA_?$AAA?$AAr?$AAr?$AAa?$AAy?$AA_?$AAc?$AAo?$AAn@ DB 's'
	DB	00H, 't', 00H, 'd', 00H, ':', 00H, ':', 00H, '_', 00H, 'A', 00H
	DB	'r', 00H, 'r', 00H, 'a', 00H, 'y', 00H, '_', 00H, 'c', 00H, 'o'
	DB	00H, 'n', 00H, 's', 00H, 't', 00H, '_', 00H, 'i', 00H, 't', 00H
	DB	'e', 00H, 'r', 00H, 'a', 00H, 't', 00H, 'o', 00H, 'r', 00H, '<'
	DB	00H, 'c', 00H, 'l', 00H, 'a', 00H, 's', 00H, 's', 00H, ' ', 00H
	DB	'T', 00H, 'e', 00H, 'a', 00H, 'm', 00H, ' ', 00H, '*', 00H, ','
	DB	00H, '3', 00H, '>', 00H, ':', 00H, ':', 00H, 'o', 00H, 'p', 00H
	DB	'e', 00H, 'r', 00H, 'a', 00H, 't', 00H, 'o', 00H, 'r', 00H, ' '
	DB	00H, '-', 00H, '>', 00H, 00H, 00H		; `string'
CONST	ENDS
;	COMDAT ??_C@_0DE@OGBMIMME@cannot?5dereference?5value?9initia@
CONST	SEGMENT
??_C@_0DE@OGBMIMME@cannot?5dereference?5value?9initia@ DB 'cannot derefer'
	DB	'ence value-initialized array iterator', 00H	; `string'
CONST	ENDS
;	COMDAT ??_C@_1FG@CGKPPJBO@?$AA?$CC?$AAc?$AAa?$AAn?$AAn?$AAo?$AAt?$AA?5?$AAi?$AAn?$AAc?$AAr?$AAe?$AAm?$AAe@
CONST	SEGMENT
??_C@_1FG@CGKPPJBO@?$AA?$CC?$AAc?$AAa?$AAn?$AAn?$AAo?$AAt?$AA?5?$AAi?$AAn?$AAc?$AAr?$AAe?$AAm?$AAe@ DB '"'
	DB	00H, 'c', 00H, 'a', 00H, 'n', 00H, 'n', 00H, 'o', 00H, 't', 00H
	DB	' ', 00H, 'i', 00H, 'n', 00H, 'c', 00H, 'r', 00H, 'e', 00H, 'm'
	DB	00H, 'e', 00H, 'n', 00H, 't', 00H, ' ', 00H, 'a', 00H, 'r', 00H
	DB	'r', 00H, 'a', 00H, 'y', 00H, ' ', 00H, 'i', 00H, 't', 00H, 'e'
	DB	00H, 'r', 00H, 'a', 00H, 't', 00H, 'o', 00H, 'r', 00H, ' ', 00H
	DB	'p', 00H, 'a', 00H, 's', 00H, 't', 00H, ' ', 00H, 'e', 00H, 'n'
	DB	00H, 'd', 00H, '"', 00H, 00H, 00H		; `string'
CONST	ENDS
;	COMDAT ??_C@_0CJ@KOGELFMP@cannot?5increment?5array?5iterator@
CONST	SEGMENT
??_C@_0CJ@KOGELFMP@cannot?5increment?5array?5iterator@ DB 'cannot increme'
	DB	'nt array iterator past end', 00H		; `string'
CONST	ENDS
;	COMDAT ??_C@_1GI@PNOEPOAP@?$AA?$CC?$AAc?$AAa?$AAn?$AAn?$AAo?$AAt?$AA?5?$AAi?$AAn?$AAc?$AAr?$AAe?$AAm?$AAe@
CONST	SEGMENT
??_C@_1GI@PNOEPOAP@?$AA?$CC?$AAc?$AAa?$AAn?$AAn?$AAo?$AAt?$AA?5?$AAi?$AAn?$AAc?$AAr?$AAe?$AAm?$AAe@ DB '"'
	DB	00H, 'c', 00H, 'a', 00H, 'n', 00H, 'n', 00H, 'o', 00H, 't', 00H
	DB	' ', 00H, 'i', 00H, 'n', 00H, 'c', 00H, 'r', 00H, 'e', 00H, 'm'
	DB	00H, 'e', 00H, 'n', 00H, 't', 00H, ' ', 00H, 'v', 00H, 'a', 00H
	DB	'l', 00H, 'u', 00H, 'e', 00H, '-', 00H, 'i', 00H, 'n', 00H, 'i'
	DB	00H, 't', 00H, 'i', 00H, 'a', 00H, 'l', 00H, 'i', 00H, 'z', 00H
	DB	'e', 00H, 'd', 00H, ' ', 00H, 'a', 00H, 'r', 00H, 'r', 00H, 'a'
	DB	00H, 'y', 00H, ' ', 00H, 'i', 00H, 't', 00H, 'e', 00H, 'r', 00H
	DB	'a', 00H, 't', 00H, 'o', 00H, 'r', 00H, '"', 00H, 00H, 00H ; `string'
CONST	ENDS
;	COMDAT ??_C@_1HA@OLOKDMPH@?$AAs?$AAt?$AAd?$AA?3?$AA?3?$AA_?$AAA?$AAr?$AAr?$AAa?$AAy?$AA_?$AAc?$AAo?$AAn@
CONST	SEGMENT
??_C@_1HA@OLOKDMPH@?$AAs?$AAt?$AAd?$AA?3?$AA?3?$AA_?$AAA?$AAr?$AAr?$AAa?$AAy?$AA_?$AAc?$AAo?$AAn@ DB 's'
	DB	00H, 't', 00H, 'd', 00H, ':', 00H, ':', 00H, '_', 00H, 'A', 00H
	DB	'r', 00H, 'r', 00H, 'a', 00H, 'y', 00H, '_', 00H, 'c', 00H, 'o'
	DB	00H, 'n', 00H, 's', 00H, 't', 00H, '_', 00H, 'i', 00H, 't', 00H
	DB	'e', 00H, 'r', 00H, 'a', 00H, 't', 00H, 'o', 00H, 'r', 00H, '<'
	DB	00H, 'c', 00H, 'l', 00H, 'a', 00H, 's', 00H, 's', 00H, ' ', 00H
	DB	'T', 00H, 'e', 00H, 'a', 00H, 'm', 00H, ' ', 00H, '*', 00H, ','
	DB	00H, '3', 00H, '>', 00H, ':', 00H, ':', 00H, 'o', 00H, 'p', 00H
	DB	'e', 00H, 'r', 00H, 'a', 00H, 't', 00H, 'o', 00H, 'r', 00H, ' '
	DB	00H, '+', 00H, '+', 00H, 00H, 00H		; `string'
CONST	ENDS
;	COMDAT ??_C@_0DC@CAJMMAOA@cannot?5increment?5value?9initiali@
CONST	SEGMENT
??_C@_0DC@CAJMMAOA@cannot?5increment?5value?9initiali@ DB 'cannot increme'
	DB	'nt value-initialized array iterator', 00H	; `string'
CONST	ENDS
;	COMDAT ??_C@_1DO@FPIDHOGM@?$AA?$CC?$AAa?$AAr?$AAr?$AAa?$AAy?$AA?5?$AAi?$AAt?$AAe?$AAr?$AAa?$AAt?$AAo?$AAr@
CONST	SEGMENT
??_C@_1DO@FPIDHOGM@?$AA?$CC?$AAa?$AAr?$AAr?$AAa?$AAy?$AA?5?$AAi?$AAt?$AAe?$AAr?$AAa?$AAt?$AAo?$AAr@ DB '"'
	DB	00H, 'a', 00H, 'r', 00H, 'r', 00H, 'a', 00H, 'y', 00H, ' ', 00H
	DB	'i', 00H, 't', 00H, 'e', 00H, 'r', 00H, 'a', 00H, 't', 00H, 'o'
	DB	00H, 'r', 00H, 's', 00H, ' ', 00H, 'i', 00H, 'n', 00H, 'c', 00H
	DB	'o', 00H, 'm', 00H, 'p', 00H, 'a', 00H, 't', 00H, 'i', 00H, 'b'
	DB	00H, 'l', 00H, 'e', 00H, '"', 00H, 00H, 00H	; `string'
CONST	ENDS
;	COMDAT ??_C@_1GI@GBPBCEMA@?$AAs?$AAt?$AAd?$AA?3?$AA?3?$AA_?$AAA?$AAr?$AAr?$AAa?$AAy?$AA_?$AAc?$AAo?$AAn@
CONST	SEGMENT
??_C@_1GI@GBPBCEMA@?$AAs?$AAt?$AAd?$AA?3?$AA?3?$AA_?$AAA?$AAr?$AAr?$AAa?$AAy?$AA_?$AAc?$AAo?$AAn@ DB 's'
	DB	00H, 't', 00H, 'd', 00H, ':', 00H, ':', 00H, '_', 00H, 'A', 00H
	DB	'r', 00H, 'r', 00H, 'a', 00H, 'y', 00H, '_', 00H, 'c', 00H, 'o'
	DB	00H, 'n', 00H, 's', 00H, 't', 00H, '_', 00H, 'i', 00H, 't', 00H
	DB	'e', 00H, 'r', 00H, 'a', 00H, 't', 00H, 'o', 00H, 'r', 00H, '<'
	DB	00H, 'c', 00H, 'l', 00H, 'a', 00H, 's', 00H, 's', 00H, ' ', 00H
	DB	'T', 00H, 'e', 00H, 'a', 00H, 'm', 00H, ' ', 00H, '*', 00H, ','
	DB	00H, '3', 00H, '>', 00H, ':', 00H, ':', 00H, '_', 00H, 'C', 00H
	DB	'o', 00H, 'm', 00H, 'p', 00H, 'a', 00H, 't', 00H, 00H, 00H ; `string'
CONST	ENDS
;	COMDAT ??_C@_0BN@KJMKNNDM@array?5iterators?5incompatible@
CONST	SEGMENT
??_C@_0BN@KJMKNNDM@array?5iterators?5incompatible@ DB 'array iterators in'
	DB	'compatible', 00H				; `string'
CONST	ENDS
;	COMDAT ??_C@_1DO@NCBLADDF@?$AA?$CC?$AAa?$AAr?$AAr?$AAa?$AAy?$AA?5?$AAs?$AAu?$AAb?$AAs?$AAc?$AAr?$AAi?$AAp@
CONST	SEGMENT
??_C@_1DO@NCBLADDF@?$AA?$CC?$AAa?$AAr?$AAr?$AAa?$AAy?$AA?5?$AAs?$AAu?$AAb?$AAs?$AAc?$AAr?$AAi?$AAp@ DB '"'
	DB	00H, 'a', 00H, 'r', 00H, 'r', 00H, 'a', 00H, 'y', 00H, ' ', 00H
	DB	's', 00H, 'u', 00H, 'b', 00H, 's', 00H, 'c', 00H, 'r', 00H, 'i'
	DB	00H, 'p', 00H, 't', 00H, ' ', 00H, 'o', 00H, 'u', 00H, 't', 00H
	DB	' ', 00H, 'o', 00H, 'f', 00H, ' ', 00H, 'r', 00H, 'a', 00H, 'n'
	DB	00H, 'g', 00H, 'e', 00H, '"', 00H, 00H, 00H	; `string'
CONST	ENDS
;	COMDAT ??_C@_1FA@EFCHFMFI@?$AAs?$AAt?$AAd?$AA?3?$AA?3?$AAa?$AAr?$AAr?$AAa?$AAy?$AA?$DM?$AAc?$AAl?$AAa?$AAs@
CONST	SEGMENT
??_C@_1FA@EFCHFMFI@?$AAs?$AAt?$AAd?$AA?3?$AA?3?$AAa?$AAr?$AAr?$AAa?$AAy?$AA?$DM?$AAc?$AAl?$AAa?$AAs@ DB 's'
	DB	00H, 't', 00H, 'd', 00H, ':', 00H, ':', 00H, 'a', 00H, 'r', 00H
	DB	'r', 00H, 'a', 00H, 'y', 00H, '<', 00H, 'c', 00H, 'l', 00H, 'a'
	DB	00H, 's', 00H, 's', 00H, ' ', 00H, 'T', 00H, 'e', 00H, 'a', 00H
	DB	'm', 00H, ' ', 00H, '*', 00H, ',', 00H, '3', 00H, '>', 00H, ':'
	DB	00H, ':', 00H, 'o', 00H, 'p', 00H, 'e', 00H, 'r', 00H, 'a', 00H
	DB	't', 00H, 'o', 00H, 'r', 00H, ' ', 00H, '[', 00H, ']', 00H, 00H
	DB	00H						; `string'
CONST	ENDS
;	COMDAT ??_C@_1MM@FPNMBLKJ@?$AAc?$AA?3?$AA?2?$AAp?$AAr?$AAo?$AAg?$AAr?$AAa?$AAm?$AA?5?$AAf?$AAi?$AAl?$AAe@
CONST	SEGMENT
??_C@_1MM@FPNMBLKJ@?$AAc?$AA?3?$AA?2?$AAp?$AAr?$AAo?$AAg?$AAr?$AAa?$AAm?$AA?5?$AAf?$AAi?$AAl?$AAe@ DB 'c'
	DB	00H, ':', 00H, '\', 00H, 'p', 00H, 'r', 00H, 'o', 00H, 'g', 00H
	DB	'r', 00H, 'a', 00H, 'm', 00H, ' ', 00H, 'f', 00H, 'i', 00H, 'l'
	DB	00H, 'e', 00H, 's', 00H, ' ', 00H, '(', 00H, 'x', 00H, '8', 00H
	DB	'6', 00H, ')', 00H, '\', 00H, 'm', 00H, 'i', 00H, 'c', 00H, 'r'
	DB	00H, 'o', 00H, 's', 00H, 'o', 00H, 'f', 00H, 't', 00H, ' ', 00H
	DB	'v', 00H, 'i', 00H, 's', 00H, 'u', 00H, 'a', 00H, 'l', 00H, ' '
	DB	00H, 's', 00H, 't', 00H, 'u', 00H, 'd', 00H, 'i', 00H, 'o', 00H
	DB	'\', 00H, '2', 00H, '0', 00H, '1', 00H, '7', 00H, '\', 00H, 'c'
	DB	00H, 'o', 00H, 'm', 00H, 'm', 00H, 'u', 00H, 'n', 00H, 'i', 00H
	DB	't', 00H, 'y', 00H, '\', 00H, 'v', 00H, 'c', 00H, '\', 00H, 't'
	DB	00H, 'o', 00H, 'o', 00H, 'l', 00H, 's', 00H, '\', 00H, 'm', 00H
	DB	's', 00H, 'v', 00H, 'c', 00H, '\', 00H, '1', 00H, '4', 00H, '.'
	DB	00H, '1', 00H, '5', 00H, '.', 00H, '2', 00H, '6', 00H, '7', 00H
	DB	'2', 00H, '6', 00H, '\', 00H, 'i', 00H, 'n', 00H, 'c', 00H, 'l'
	DB	00H, 'u', 00H, 'd', 00H, 'e', 00H, '\', 00H, 'a', 00H, 'r', 00H
	DB	'r', 00H, 'a', 00H, 'y', 00H, 00H, 00H	; `string'
CONST	ENDS
;	COMDAT ??_C@_0GG@OLGMCIID@c?3?2program?5files?5?$CIx86?$CJ?2microsof@
CONST	SEGMENT
??_C@_0GG@OLGMCIID@c?3?2program?5files?5?$CIx86?$CJ?2microsof@ DB 'c:\pro'
	DB	'gram files (x86)\microsoft visual studio\2017\community\vc\to'
	DB	'ols\msvc\14.15.26726\include\array', 00H	; `string'
CONST	ENDS
;	COMDAT ??_C@_0BN@HMIFLIEM@array?5subscript?5out?5of?5range@
CONST	SEGMENT
??_C@_0BN@HMIFLIEM@array?5subscript?5out?5of?5range@ DB 'array subscript '
	DB	'out of range', 00H				; `string'
CONST	ENDS
;	COMDAT ??_C@_1NC@HPHBFJCM@?$AAc?$AA?3?$AA?2?$AAp?$AAr?$AAo?$AAg?$AAr?$AAa?$AAm?$AA?5?$AAf?$AAi?$AAl?$AAe@
CONST	SEGMENT
??_C@_1NC@HPHBFJCM@?$AAc?$AA?3?$AA?2?$AAp?$AAr?$AAo?$AAg?$AAr?$AAa?$AAm?$AA?5?$AAf?$AAi?$AAl?$AAe@ DB 'c'
	DB	00H, ':', 00H, '\', 00H, 'p', 00H, 'r', 00H, 'o', 00H, 'g', 00H
	DB	'r', 00H, 'a', 00H, 'm', 00H, ' ', 00H, 'f', 00H, 'i', 00H, 'l'
	DB	00H, 'e', 00H, 's', 00H, ' ', 00H, '(', 00H, 'x', 00H, '8', 00H
	DB	'6', 00H, ')', 00H, '\', 00H, 'm', 00H, 'i', 00H, 'c', 00H, 'r'
	DB	00H, 'o', 00H, 's', 00H, 'o', 00H, 'f', 00H, 't', 00H, ' ', 00H
	DB	'v', 00H, 'i', 00H, 's', 00H, 'u', 00H, 'a', 00H, 'l', 00H, ' '
	DB	00H, 's', 00H, 't', 00H, 'u', 00H, 'd', 00H, 'i', 00H, 'o', 00H
	DB	'\', 00H, '2', 00H, '0', 00H, '1', 00H, '7', 00H, '\', 00H, 'c'
	DB	00H, 'o', 00H, 'm', 00H, 'm', 00H, 'u', 00H, 'n', 00H, 'i', 00H
	DB	't', 00H, 'y', 00H, '\', 00H, 'v', 00H, 'c', 00H, '\', 00H, 't'
	DB	00H, 'o', 00H, 'o', 00H, 'l', 00H, 's', 00H, '\', 00H, 'm', 00H
	DB	's', 00H, 'v', 00H, 'c', 00H, '\', 00H, '1', 00H, '4', 00H, '.'
	DB	00H, '1', 00H, '5', 00H, '.', 00H, '2', 00H, '6', 00H, '7', 00H
	DB	'2', 00H, '6', 00H, '\', 00H, 'i', 00H, 'n', 00H, 'c', 00H, 'l'
	DB	00H, 'u', 00H, 'd', 00H, 'e', 00H, '\', 00H, 'x', 00H, 'u', 00H
	DB	't', 00H, 'i', 00H, 'l', 00H, 'i', 00H, 't', 00H, 'y', 00H, 00H
	DB	00H						; `string'
CONST	ENDS
;	COMDAT ??_C@_0GJ@DMCEMOMH@c?3?2program?5files?5?$CIx86?$CJ?2microsof@
CONST	SEGMENT
??_C@_0GJ@DMCEMOMH@c?3?2program?5files?5?$CIx86?$CJ?2microsof@ DB 'c:\pro'
	DB	'gram files (x86)\microsoft visual studio\2017\community\vc\to'
	DB	'ols\msvc\14.15.26726\include\xutility', 00H	; `string'
CONST	ENDS
;	COMDAT ??_C@_02DKCKIIND@?$CFs@
CONST	SEGMENT
??_C@_02DKCKIIND@?$CFs@ DB '%s', 00H			; `string'
CONST	ENDS
xdata$x	SEGMENT
__unwindtable$?Instance@TeamManager@@SAPAV1@PAVRaven_Game@@@Z DD 0ffffffffH
	DD	FLAT:__unwindfunclet$?Instance@TeamManager@@SAPAV1@PAVRaven_Game@@@Z$0
__ehfuncinfo$?Instance@TeamManager@@SAPAV1@PAVRaven_Game@@@Z DD 019930522H
	DD	01H
	DD	FLAT:__unwindtable$?Instance@TeamManager@@SAPAV1@PAVRaven_Game@@@Z
	DD	2 DUP(00H)
	DD	2 DUP(00H)
	DD	00H
	DD	01H
xdata$x	ENDS
;	COMDAT xdata$x
xdata$x	SEGMENT
__ehfuncinfo$?end@?$array@PAVTeam@@$02@std@@QAE?AV?$_Array_iterator@PAVTeam@@$02@2@XZ DD 019930522H
	DD	00H
	DD	00H
	DD	2 DUP(00H)
	DD	2 DUP(00H)
	DD	00H
	DD	05H
xdata$x	ENDS
;	COMDAT xdata$x
xdata$x	SEGMENT
__ehfuncinfo$?begin@?$array@PAVTeam@@$02@std@@QAE?AV?$_Array_iterator@PAVTeam@@$02@2@XZ DD 019930522H
	DD	00H
	DD	00H
	DD	2 DUP(00H)
	DD	2 DUP(00H)
	DD	00H
	DD	05H
xdata$x	ENDS
CRT$XCU	SEGMENT
?MaxDouble$initializer$@@3P6AXXZA DD FLAT:??__EMaxDouble@@YAXXZ ; MaxDouble$initializer$
CRT$XCU	ENDS
CRT$XCU	SEGMENT
?MinDouble$initializer$@@3P6AXXZA DD FLAT:??__EMinDouble@@YAXXZ ; MinDouble$initializer$
CRT$XCU	ENDS
CRT$XCU	SEGMENT
?MaxFloat$initializer$@@3P6AXXZA DD FLAT:??__EMaxFloat@@YAXXZ ; MaxFloat$initializer$
CRT$XCU	ENDS
CRT$XCU	SEGMENT
?MinFloat$initializer$@@3P6AXXZA DD FLAT:??__EMinFloat@@YAXXZ ; MinFloat$initializer$
CRT$XCU	ENDS
;	COMDAT CRT$XCU
CRT$XCU	SEGMENT
??id$initializer$@?$num_put@DV?$ostreambuf_iterator@DU?$char_traits@D@std@@@std@@@std@@2P6AXXZA@@3P6AXXZA DD FLAT:??__E?id@?$num_put@DV?$ostreambuf_iterator@DU?$char_traits@D@std@@@std@@@std@@2V0locale@2@A@@YAXXZ ; ??id$initializer$@?$num_put@DV?$ostreambuf_iterator@DU?$char_traits@D@std@@@std@@@std@@2P6AXXZA@@3P6AXXZA
CRT$XCU	ENDS
;	COMDAT CRT$XCU
CRT$XCU	SEGMENT
??id$initializer$@?$codecvt@DDU_Mbstatet@@@std@@2P6AXXZA@@3P6AXXZA DD FLAT:??__E?id@?$codecvt@DDU_Mbstatet@@@std@@2V0locale@2@A@@YAXXZ ; ??id$initializer$@?$codecvt@DDU_Mbstatet@@@std@@2P6AXXZA@@3P6AXXZA
CRT$XCU	ENDS
;	COMDAT CRT$XCU
CRT$XCU	SEGMENT
??id$initializer$@?$numpunct@D@std@@2P6AXXZA@@3P6AXXZA DD FLAT:??__E?id@?$numpunct@D@std@@2V0locale@2@A@@YAXXZ ; ??id$initializer$@?$numpunct@D@std@@2P6AXXZA@@3P6AXXZA
CRT$XCU	ENDS
;	COMDAT CRT$XCU
CRT$XCU	SEGMENT
??id$initializer$@?$num_get@DV?$istreambuf_iterator@DU?$char_traits@D@std@@@std@@@std@@2P6AXXZA@@3P6AXXZA DD FLAT:??__E?id@?$num_get@DV?$istreambuf_iterator@DU?$char_traits@D@std@@@std@@@std@@2V0locale@2@A@@YAXXZ ; ??id$initializer$@?$num_get@DV?$istreambuf_iterator@DU?$char_traits@D@std@@@std@@@std@@2P6AXXZA@@3P6AXXZA
CRT$XCU	ENDS
; Function compile flags: /Odtp /RTCsu
; File c:\program files (x86)\microsoft visual studio\2017\community\vc\tools\msvc\14.15.26726\include\xlocnum
;	COMDAT ??__E?id@?$num_get@DV?$istreambuf_iterator@DU?$char_traits@D@std@@@std@@@std@@2V0locale@2@A@@YAXXZ
text$di	SEGMENT
??__E?id@?$num_get@DV?$istreambuf_iterator@DU?$char_traits@D@std@@@std@@@std@@2V0locale@2@A@@YAXXZ PROC ; `dynamic initializer for 'std::num_get<char,std::istreambuf_iterator<char,std::char_traits<char> > >::id'', COMDAT

; 1404 : 	__PURE_APPDOMAIN_GLOBAL locale::id num_get<_Elem, _InIt>::id;

	push	ebp
	mov	ebp, esp
	push	0
	mov	ecx, OFFSET ?id@?$num_get@DV?$istreambuf_iterator@DU?$char_traits@D@std@@@std@@@std@@2V0locale@2@A ; std::num_get<char,std::istreambuf_iterator<char,std::char_traits<char> > >::id
	call	??0id@locale@std@@QAE@I@Z		; std::locale::id::id
	cmp	ebp, esp
	call	__RTC_CheckEsp
	pop	ebp
	ret	0
??__E?id@?$num_get@DV?$istreambuf_iterator@DU?$char_traits@D@std@@@std@@@std@@2V0locale@2@A@@YAXXZ ENDP ; `dynamic initializer for 'std::num_get<char,std::istreambuf_iterator<char,std::char_traits<char> > >::id''
text$di	ENDS
; Function compile flags: /Odtp /RTCsu
; File c:\program files (x86)\microsoft visual studio\2017\community\vc\tools\msvc\14.15.26726\include\xlocnum
;	COMDAT ??__E?id@?$numpunct@D@std@@2V0locale@2@A@@YAXXZ
text$di	SEGMENT
??__E?id@?$numpunct@D@std@@2V0locale@2@A@@YAXXZ PROC	; `dynamic initializer for 'std::numpunct<char>::id'', COMDAT

; 297  : 	__PURE_APPDOMAIN_GLOBAL locale::id numpunct<_Elem>::id;

	push	ebp
	mov	ebp, esp
	push	0
	mov	ecx, OFFSET ?id@?$numpunct@D@std@@2V0locale@2@A ; std::numpunct<char>::id
	call	??0id@locale@std@@QAE@I@Z		; std::locale::id::id
	cmp	ebp, esp
	call	__RTC_CheckEsp
	pop	ebp
	ret	0
??__E?id@?$numpunct@D@std@@2V0locale@2@A@@YAXXZ ENDP	; `dynamic initializer for 'std::numpunct<char>::id''
text$di	ENDS
; Function compile flags: /Odtp /RTCsu
; File c:\program files (x86)\microsoft visual studio\2017\community\vc\tools\msvc\14.15.26726\include\xlocale
;	COMDAT ??__E?id@?$codecvt@DDU_Mbstatet@@@std@@2V0locale@2@A@@YAXXZ
text$di	SEGMENT
??__E?id@?$codecvt@DDU_Mbstatet@@@std@@2V0locale@2@A@@YAXXZ PROC ; `dynamic initializer for 'std::codecvt<char,char,_Mbstatet>::id'', COMDAT

; 955  : 	__PURE_APPDOMAIN_GLOBAL locale::id codecvt<_Elem, _Byte, _Statype>::id;

	push	ebp
	mov	ebp, esp
	push	0
	mov	ecx, OFFSET ?id@?$codecvt@DDU_Mbstatet@@@std@@2V0locale@2@A ; std::codecvt<char,char,_Mbstatet>::id
	call	??0id@locale@std@@QAE@I@Z		; std::locale::id::id
	cmp	ebp, esp
	call	__RTC_CheckEsp
	pop	ebp
	ret	0
??__E?id@?$codecvt@DDU_Mbstatet@@@std@@2V0locale@2@A@@YAXXZ ENDP ; `dynamic initializer for 'std::codecvt<char,char,_Mbstatet>::id''
text$di	ENDS
; Function compile flags: /Odtp /RTCsu
; File c:\program files (x86)\microsoft visual studio\2017\community\vc\tools\msvc\14.15.26726\include\xlocnum
;	COMDAT ??__E?id@?$num_put@DV?$ostreambuf_iterator@DU?$char_traits@D@std@@@std@@@std@@2V0locale@2@A@@YAXXZ
text$di	SEGMENT
??__E?id@?$num_put@DV?$ostreambuf_iterator@DU?$char_traits@D@std@@@std@@@std@@2V0locale@2@A@@YAXXZ PROC ; `dynamic initializer for 'std::num_put<char,std::ostreambuf_iterator<char,std::char_traits<char> > >::id'', COMDAT

; 1843 : 	__PURE_APPDOMAIN_GLOBAL locale::id num_put<_Elem, _OutIt>::id;

	push	ebp
	mov	ebp, esp
	push	0
	mov	ecx, OFFSET ?id@?$num_put@DV?$ostreambuf_iterator@DU?$char_traits@D@std@@@std@@@std@@2V0locale@2@A ; std::num_put<char,std::ostreambuf_iterator<char,std::char_traits<char> > >::id
	call	??0id@locale@std@@QAE@I@Z		; std::locale::id::id
	cmp	ebp, esp
	call	__RTC_CheckEsp
	pop	ebp
	ret	0
??__E?id@?$num_put@DV?$ostreambuf_iterator@DU?$char_traits@D@std@@@std@@@std@@2V0locale@2@A@@YAXXZ ENDP ; `dynamic initializer for 'std::num_put<char,std::ostreambuf_iterator<char,std::char_traits<char> > >::id''
text$di	ENDS
; Function compile flags: /Odtp /RTCsu
; File c:\program files (x86)\microsoft visual studio\2017\community\vc\tools\msvc\14.15.26726\include\xutility
;	COMDAT ??E?$_Array_iterator@PAVTeam@@$02@std@@QAE?AV01@H@Z
_TEXT	SEGMENT
__Tmp$ = -24						; size = 16
_this$ = -4						; size = 4
___$ReturnUdt$ = 8					; size = 4
___formal$ = 12						; size = 4
??E?$_Array_iterator@PAVTeam@@$02@std@@QAE?AV01@H@Z PROC ; std::_Array_iterator<Team *,3>::operator++, COMDAT
; _this$ = ecx

; 2085 : 		{	// postincrement

	push	ebp
	mov	ebp, esp
	sub	esp, 28					; 0000001cH
	mov	eax, -858993460				; ccccccccH
	mov	DWORD PTR [ebp-28], eax
	mov	DWORD PTR [ebp-24], eax
	mov	DWORD PTR [ebp-20], eax
	mov	DWORD PTR [ebp-16], eax
	mov	DWORD PTR [ebp-12], eax
	mov	DWORD PTR [ebp-8], eax
	mov	DWORD PTR [ebp-4], eax
	mov	DWORD PTR _this$[ebp], ecx

; 2086 : 		_Array_iterator _Tmp = *this;

	mov	eax, DWORD PTR _this$[ebp]
	mov	ecx, DWORD PTR [eax]
	mov	DWORD PTR __Tmp$[ebp], ecx
	mov	edx, DWORD PTR [eax+4]
	mov	DWORD PTR __Tmp$[ebp+4], edx
	mov	ecx, DWORD PTR [eax+8]
	mov	DWORD PTR __Tmp$[ebp+8], ecx
	mov	edx, DWORD PTR [eax+12]
	mov	DWORD PTR __Tmp$[ebp+12], edx

; 2087 : 		++*this;

	mov	ecx, DWORD PTR _this$[ebp]
	call	??E?$_Array_iterator@PAVTeam@@$02@std@@QAEAAV01@XZ ; std::_Array_iterator<Team *,3>::operator++

; 2088 : 		return (_Tmp);

	mov	eax, DWORD PTR ___$ReturnUdt$[ebp]
	mov	ecx, DWORD PTR __Tmp$[ebp]
	mov	DWORD PTR [eax], ecx
	mov	edx, DWORD PTR __Tmp$[ebp+4]
	mov	DWORD PTR [eax+4], edx
	mov	ecx, DWORD PTR __Tmp$[ebp+8]
	mov	DWORD PTR [eax+8], ecx
	mov	edx, DWORD PTR __Tmp$[ebp+12]
	mov	DWORD PTR [eax+12], edx
	mov	eax, DWORD PTR ___$ReturnUdt$[ebp]

; 2089 : 		}

	push	edx
	mov	ecx, ebp
	push	eax
	lea	edx, DWORD PTR $LN5@operator
	call	@_RTC_CheckStackVars@8
	pop	eax
	pop	edx
	add	esp, 28					; 0000001cH
	cmp	ebp, esp
	call	__RTC_CheckEsp
	mov	esp, ebp
	pop	ebp
	ret	8
	npad	1
$LN5@operator:
	DD	1
	DD	$LN4@operator
$LN4@operator:
	DD	-24					; ffffffe8H
	DD	16					; 00000010H
	DD	$LN3@operator
$LN3@operator:
	DB	95					; 0000005fH
	DB	84					; 00000054H
	DB	109					; 0000006dH
	DB	112					; 00000070H
	DB	0
??E?$_Array_iterator@PAVTeam@@$02@std@@QAE?AV01@H@Z ENDP ; std::_Array_iterator<Team *,3>::operator++
_TEXT	ENDS
; Function compile flags: /Odtp /RTCsu
; File c:\program files (x86)\microsoft visual studio\2017\community\vc\tools\msvc\14.15.26726\include\xutility
;	COMDAT ??E?$_Array_iterator@PAVTeam@@$02@std@@QAEAAV01@XZ
_TEXT	SEGMENT
_this$ = -4						; size = 4
??E?$_Array_iterator@PAVTeam@@$02@std@@QAEAAV01@XZ PROC	; std::_Array_iterator<Team *,3>::operator++, COMDAT
; _this$ = ecx

; 2079 : 		{	// preincrement

	push	ebp
	mov	ebp, esp
	push	ecx
	mov	DWORD PTR [ebp-4], -858993460		; ccccccccH
	mov	DWORD PTR _this$[ebp], ecx

; 2080 : 		++*static_cast<_Mybase *>(this);

	mov	ecx, DWORD PTR _this$[ebp]
	call	??E?$_Array_const_iterator@PAVTeam@@$02@std@@QAEAAV01@XZ ; std::_Array_const_iterator<Team *,3>::operator++

; 2081 : 		return (*this);

	mov	eax, DWORD PTR _this$[ebp]

; 2082 : 		}

	add	esp, 4
	cmp	ebp, esp
	call	__RTC_CheckEsp
	mov	esp, ebp
	pop	ebp
	ret	0
??E?$_Array_iterator@PAVTeam@@$02@std@@QAEAAV01@XZ ENDP	; std::_Array_iterator<Team *,3>::operator++
_TEXT	ENDS
; Function compile flags: /Odtp /RTCsu
; File c:\program files (x86)\microsoft visual studio\2017\community\vc\tools\msvc\14.15.26726\include\xutility
;	COMDAT ??D?$_Array_iterator@PAVTeam@@$02@std@@QBEAAPAVTeam@@XZ
_TEXT	SEGMENT
_this$ = -4						; size = 4
??D?$_Array_iterator@PAVTeam@@$02@std@@QBEAAPAVTeam@@XZ PROC ; std::_Array_iterator<Team *,3>::operator*, COMDAT
; _this$ = ecx

; 2069 : 		{	// return designated object

	push	ebp
	mov	ebp, esp
	push	ecx
	mov	DWORD PTR [ebp-4], -858993460		; ccccccccH
	mov	DWORD PTR _this$[ebp], ecx

; 2070 : 		return (const_cast<reference>(_Mybase::operator*()));

	mov	ecx, DWORD PTR _this$[ebp]
	call	??D?$_Array_const_iterator@PAVTeam@@$02@std@@QBEABQAVTeam@@XZ ; std::_Array_const_iterator<Team *,3>::operator*

; 2071 : 		}

	add	esp, 4
	cmp	ebp, esp
	call	__RTC_CheckEsp
	mov	esp, ebp
	pop	ebp
	ret	0
??D?$_Array_iterator@PAVTeam@@$02@std@@QBEAAPAVTeam@@XZ ENDP ; std::_Array_iterator<Team *,3>::operator*
_TEXT	ENDS
; Function compile flags: /Odtp /RTCsu
; File c:\program files (x86)\microsoft visual studio\2017\community\vc\tools\msvc\14.15.26726\include\xutility
;	COMDAT ??0?$_Array_iterator@PAVTeam@@$02@std@@QAE@PAPAVTeam@@I@Z
_TEXT	SEGMENT
_this$ = -4						; size = 4
__Parg$ = 8						; size = 4
__Off$ = 12						; size = 4
??0?$_Array_iterator@PAVTeam@@$02@std@@QAE@PAPAVTeam@@I@Z PROC ; std::_Array_iterator<Team *,3>::_Array_iterator<Team *,3>, COMDAT
; _this$ = ecx

; 2063 : 		{	// construct with pointer and offset

	push	ebp
	mov	ebp, esp
	push	ecx
	mov	DWORD PTR [ebp-4], -858993460		; ccccccccH
	mov	DWORD PTR _this$[ebp], ecx

; 2062 : 		: _Mybase(_Parg, _Off)

	mov	eax, DWORD PTR __Off$[ebp]
	push	eax
	mov	ecx, DWORD PTR __Parg$[ebp]
	push	ecx
	mov	ecx, DWORD PTR _this$[ebp]
	call	??0?$_Array_const_iterator@PAVTeam@@$02@std@@QAE@PBQAVTeam@@I@Z ; std::_Array_const_iterator<Team *,3>::_Array_const_iterator<Team *,3>

; 2064 : 		}

	mov	eax, DWORD PTR _this$[ebp]
	add	esp, 4
	cmp	ebp, esp
	call	__RTC_CheckEsp
	mov	esp, ebp
	pop	ebp
	ret	8
??0?$_Array_iterator@PAVTeam@@$02@std@@QAE@PAPAVTeam@@I@Z ENDP ; std::_Array_iterator<Team *,3>::_Array_iterator<Team *,3>
_TEXT	ENDS
; Function compile flags: /Odtp /RTCsu
; File c:\program files (x86)\microsoft visual studio\2017\community\vc\tools\msvc\14.15.26726\include\xutility
;	COMDAT ?_Compat@?$_Array_const_iterator@PAVTeam@@$02@std@@QBEXABV12@@Z
_TEXT	SEGMENT
_this$ = -4						; size = 4
__Right$ = 8						; size = 4
?_Compat@?$_Array_const_iterator@PAVTeam@@$02@std@@QBEXABV12@@Z PROC ; std::_Array_const_iterator<Team *,3>::_Compat, COMDAT
; _this$ = ecx

; 1996 : 		{	// test for compatible iterator pair

	push	ebp
	mov	ebp, esp
	push	ecx
	mov	DWORD PTR [ebp-4], -858993460		; ccccccccH
	mov	DWORD PTR _this$[ebp], ecx
$LN4@Compat:

; 1997 : 		_STL_VERIFY(_Ptr == _Right._Ptr, "array iterators incompatible");

	mov	eax, DWORD PTR _this$[ebp]
	mov	ecx, DWORD PTR __Right$[ebp]
	mov	edx, DWORD PTR [eax+8]
	cmp	edx, DWORD PTR [ecx+8]
	jne	SHORT $LN7@Compat
	jmp	SHORT $LN2@Compat
$LN7@Compat:
	push	OFFSET ??_C@_0BN@KJMKNNDM@array?5iterators?5incompatible@
	push	OFFSET ??_C@_02DKCKIIND@?$CFs@
	push	0
	push	1997					; 000007cdH
	push	OFFSET ??_C@_0GJ@DMCEMOMH@c?3?2program?5files?5?$CIx86?$CJ?2microsof@
	push	2
	call	__CrtDbgReport
	add	esp, 24					; 00000018H
	cmp	eax, 1
	jne	SHORT $LN11@Compat
	int	3
$LN11@Compat:
	push	0
	push	1997					; 000007cdH
	push	OFFSET ??_C@_1NC@HPHBFJCM@?$AAc?$AA?3?$AA?2?$AAp?$AAr?$AAo?$AAg?$AAr?$AAa?$AAm?$AA?5?$AAf?$AAi?$AAl?$AAe@
	push	OFFSET ??_C@_1GI@GBPBCEMA@?$AAs?$AAt?$AAd?$AA?3?$AA?3?$AA_?$AAA?$AAr?$AAr?$AAa?$AAy?$AA_?$AAc?$AAo?$AAn@
	push	OFFSET ??_C@_1DO@FPIDHOGM@?$AA?$CC?$AAa?$AAr?$AAr?$AAa?$AAy?$AA?5?$AAi?$AAt?$AAe?$AAr?$AAa?$AAt?$AAo?$AAr@
	call	__invalid_parameter
	add	esp, 20					; 00000014H
	xor	ecx, ecx
	jne	SHORT $LN7@Compat
$LN2@Compat:
	xor	edx, edx
	jne	SHORT $LN4@Compat

; 1998 : 		}

	add	esp, 4
	cmp	ebp, esp
	call	__RTC_CheckEsp
	mov	esp, ebp
	pop	ebp
	ret	4
?_Compat@?$_Array_const_iterator@PAVTeam@@$02@std@@QBEXABV12@@Z ENDP ; std::_Array_const_iterator<Team *,3>::_Compat
_TEXT	ENDS
; Function compile flags: /Odtp /RTCsu
; File c:\program files (x86)\microsoft visual studio\2017\community\vc\tools\msvc\14.15.26726\include\xutility
;	COMDAT ??9?$_Array_const_iterator@PAVTeam@@$02@std@@QBE_NABV01@@Z
_TEXT	SEGMENT
tv69 = -8						; size = 4
_this$ = -4						; size = 4
__Right$ = 8						; size = 4
??9?$_Array_const_iterator@PAVTeam@@$02@std@@QBE_NABV01@@Z PROC ; std::_Array_const_iterator<Team *,3>::operator!=, COMDAT
; _this$ = ecx

; 1970 : 		{	// test for iterator inequality

	push	ebp
	mov	ebp, esp
	sub	esp, 8
	mov	DWORD PTR [ebp-8], -858993460		; ccccccccH
	mov	DWORD PTR [ebp-4], -858993460		; ccccccccH
	mov	DWORD PTR _this$[ebp], ecx

; 1971 : 		return (!(*this == _Right));

	mov	eax, DWORD PTR __Right$[ebp]
	push	eax
	mov	ecx, DWORD PTR _this$[ebp]
	call	??8?$_Array_const_iterator@PAVTeam@@$02@std@@QBE_NABV01@@Z ; std::_Array_const_iterator<Team *,3>::operator==
	movzx	ecx, al
	test	ecx, ecx
	jne	SHORT $LN3@operator
	mov	DWORD PTR tv69[ebp], 1
	jmp	SHORT $LN4@operator
$LN3@operator:
	mov	DWORD PTR tv69[ebp], 0
$LN4@operator:
	mov	al, BYTE PTR tv69[ebp]

; 1972 : 		}

	add	esp, 8
	cmp	ebp, esp
	call	__RTC_CheckEsp
	mov	esp, ebp
	pop	ebp
	ret	4
??9?$_Array_const_iterator@PAVTeam@@$02@std@@QBE_NABV01@@Z ENDP ; std::_Array_const_iterator<Team *,3>::operator!=
_TEXT	ENDS
; Function compile flags: /Odtp /RTCsu
; File c:\program files (x86)\microsoft visual studio\2017\community\vc\tools\msvc\14.15.26726\include\xutility
;	COMDAT ??8?$_Array_const_iterator@PAVTeam@@$02@std@@QBE_NABV01@@Z
_TEXT	SEGMENT
tv69 = -8						; size = 4
_this$ = -4						; size = 4
__Right$ = 8						; size = 4
??8?$_Array_const_iterator@PAVTeam@@$02@std@@QBE_NABV01@@Z PROC ; std::_Array_const_iterator<Team *,3>::operator==, COMDAT
; _this$ = ecx

; 1964 : 		{	// test for iterator equality

	push	ebp
	mov	ebp, esp
	sub	esp, 8
	mov	DWORD PTR [ebp-8], -858993460		; ccccccccH
	mov	DWORD PTR [ebp-4], -858993460		; ccccccccH
	mov	DWORD PTR _this$[ebp], ecx

; 1965 : 		_Compat(_Right);

	mov	eax, DWORD PTR __Right$[ebp]
	push	eax
	mov	ecx, DWORD PTR _this$[ebp]
	call	?_Compat@?$_Array_const_iterator@PAVTeam@@$02@std@@QBEXABV12@@Z ; std::_Array_const_iterator<Team *,3>::_Compat

; 1966 : 		return (_Idx == _Right._Idx);

	mov	ecx, DWORD PTR _this$[ebp]
	mov	edx, DWORD PTR __Right$[ebp]
	mov	eax, DWORD PTR [ecx+12]
	cmp	eax, DWORD PTR [edx+12]
	jne	SHORT $LN3@operator
	mov	DWORD PTR tv69[ebp], 1
	jmp	SHORT $LN4@operator
$LN3@operator:
	mov	DWORD PTR tv69[ebp], 0
$LN4@operator:
	mov	al, BYTE PTR tv69[ebp]

; 1967 : 		}

	add	esp, 8
	cmp	ebp, esp
	call	__RTC_CheckEsp
	mov	esp, ebp
	pop	ebp
	ret	4
??8?$_Array_const_iterator@PAVTeam@@$02@std@@QBE_NABV01@@Z ENDP ; std::_Array_const_iterator<Team *,3>::operator==
_TEXT	ENDS
; Function compile flags: /Odtp /RTCsu
; File c:\program files (x86)\microsoft visual studio\2017\community\vc\tools\msvc\14.15.26726\include\xutility
;	COMDAT ??E?$_Array_const_iterator@PAVTeam@@$02@std@@QAEAAV01@XZ
_TEXT	SEGMENT
_this$ = -4						; size = 4
??E?$_Array_const_iterator@PAVTeam@@$02@std@@QAEAAV01@XZ PROC ; std::_Array_const_iterator<Team *,3>::operator++, COMDAT
; _this$ = ecx

; 1878 : 		{	// preincrement

	push	ebp
	mov	ebp, esp
	push	ecx
	mov	DWORD PTR [ebp-4], -858993460		; ccccccccH
	mov	DWORD PTR _this$[ebp], ecx
$LN4@operator:

; 1879 : 		_STL_VERIFY(_Ptr, "cannot increment value-initialized array iterator");

	mov	eax, DWORD PTR _this$[ebp]
	cmp	DWORD PTR [eax+8], 0
	je	SHORT $LN7@operator
	jmp	SHORT $LN2@operator
$LN7@operator:
	push	OFFSET ??_C@_0DC@CAJMMAOA@cannot?5increment?5value?9initiali@
	push	OFFSET ??_C@_02DKCKIIND@?$CFs@
	push	0
	push	1879					; 00000757H
	push	OFFSET ??_C@_0GJ@DMCEMOMH@c?3?2program?5files?5?$CIx86?$CJ?2microsof@
	push	2
	call	__CrtDbgReport
	add	esp, 24					; 00000018H
	cmp	eax, 1
	jne	SHORT $LN19@operator
	int	3
$LN19@operator:
	push	0
	push	1879					; 00000757H
	push	OFFSET ??_C@_1NC@HPHBFJCM@?$AAc?$AA?3?$AA?2?$AAp?$AAr?$AAo?$AAg?$AAr?$AAa?$AAm?$AA?5?$AAf?$AAi?$AAl?$AAe@
	push	OFFSET ??_C@_1HA@OLOKDMPH@?$AAs?$AAt?$AAd?$AA?3?$AA?3?$AA_?$AAA?$AAr?$AAr?$AAa?$AAy?$AA_?$AAc?$AAo?$AAn@
	push	OFFSET ??_C@_1GI@PNOEPOAP@?$AA?$CC?$AAc?$AAa?$AAn?$AAn?$AAo?$AAt?$AA?5?$AAi?$AAn?$AAc?$AAr?$AAe?$AAm?$AAe@
	call	__invalid_parameter
	add	esp, 20					; 00000014H
	xor	edx, edx
	jne	SHORT $LN7@operator
$LN2@operator:
	xor	eax, eax
	jne	SHORT $LN4@operator
$LN10@operator:

; 1880 : 		_STL_VERIFY(_Idx < _Size, "cannot increment array iterator past end");

	mov	ecx, DWORD PTR _this$[ebp]
	cmp	DWORD PTR [ecx+12], 3
	jae	SHORT $LN13@operator
	jmp	SHORT $LN8@operator
$LN13@operator:
	push	OFFSET ??_C@_0CJ@KOGELFMP@cannot?5increment?5array?5iterator@
	push	OFFSET ??_C@_02DKCKIIND@?$CFs@
	push	0
	push	1880					; 00000758H
	push	OFFSET ??_C@_0GJ@DMCEMOMH@c?3?2program?5files?5?$CIx86?$CJ?2microsof@
	push	2
	call	__CrtDbgReport
	add	esp, 24					; 00000018H
	cmp	eax, 1
	jne	SHORT $LN20@operator
	int	3
$LN20@operator:
	push	0
	push	1880					; 00000758H
	push	OFFSET ??_C@_1NC@HPHBFJCM@?$AAc?$AA?3?$AA?2?$AAp?$AAr?$AAo?$AAg?$AAr?$AAa?$AAm?$AA?5?$AAf?$AAi?$AAl?$AAe@
	push	OFFSET ??_C@_1HA@OLOKDMPH@?$AAs?$AAt?$AAd?$AA?3?$AA?3?$AA_?$AAA?$AAr?$AAr?$AAa?$AAy?$AA_?$AAc?$AAo?$AAn@
	push	OFFSET ??_C@_1FG@CGKPPJBO@?$AA?$CC?$AAc?$AAa?$AAn?$AAn?$AAo?$AAt?$AA?5?$AAi?$AAn?$AAc?$AAr?$AAe?$AAm?$AAe@
	call	__invalid_parameter
	add	esp, 20					; 00000014H
	xor	eax, eax
	jne	SHORT $LN13@operator
$LN8@operator:
	xor	ecx, ecx
	jne	SHORT $LN10@operator

; 1881 : 		++_Idx;

	mov	edx, DWORD PTR _this$[ebp]
	mov	eax, DWORD PTR [edx+12]
	add	eax, 1
	mov	ecx, DWORD PTR _this$[ebp]
	mov	DWORD PTR [ecx+12], eax

; 1882 : 		return (*this);

	mov	eax, DWORD PTR _this$[ebp]

; 1883 : 		}

	add	esp, 4
	cmp	ebp, esp
	call	__RTC_CheckEsp
	mov	esp, ebp
	pop	ebp
	ret	0
??E?$_Array_const_iterator@PAVTeam@@$02@std@@QAEAAV01@XZ ENDP ; std::_Array_const_iterator<Team *,3>::operator++
_TEXT	ENDS
; Function compile flags: /Odtp /RTCsu
; File c:\program files (x86)\microsoft visual studio\2017\community\vc\tools\msvc\14.15.26726\include\xutility
;	COMDAT ??C?$_Array_const_iterator@PAVTeam@@$02@std@@QBEPBQAVTeam@@XZ
_TEXT	SEGMENT
_this$ = -4						; size = 4
??C?$_Array_const_iterator@PAVTeam@@$02@std@@QBEPBQAVTeam@@XZ PROC ; std::_Array_const_iterator<Team *,3>::operator->, COMDAT
; _this$ = ecx

; 1871 : 		{	// return pointer to class object

	push	ebp
	mov	ebp, esp
	push	ecx
	mov	DWORD PTR [ebp-4], -858993460		; ccccccccH
	mov	DWORD PTR _this$[ebp], ecx
$LN4@operator:

; 1872 : 		_STL_VERIFY(_Ptr, "cannot dereference value-initialized array iterator");

	mov	eax, DWORD PTR _this$[ebp]
	cmp	DWORD PTR [eax+8], 0
	je	SHORT $LN7@operator
	jmp	SHORT $LN2@operator
$LN7@operator:
	push	OFFSET ??_C@_0DE@OGBMIMME@cannot?5dereference?5value?9initia@
	push	OFFSET ??_C@_02DKCKIIND@?$CFs@
	push	0
	push	1872					; 00000750H
	push	OFFSET ??_C@_0GJ@DMCEMOMH@c?3?2program?5files?5?$CIx86?$CJ?2microsof@
	push	2
	call	__CrtDbgReport
	add	esp, 24					; 00000018H
	cmp	eax, 1
	jne	SHORT $LN19@operator
	int	3
$LN19@operator:
	push	0
	push	1872					; 00000750H
	push	OFFSET ??_C@_1NC@HPHBFJCM@?$AAc?$AA?3?$AA?2?$AAp?$AAr?$AAo?$AAg?$AAr?$AAa?$AAm?$AA?5?$AAf?$AAi?$AAl?$AAe@
	push	OFFSET ??_C@_1HA@FKHEHIEH@?$AAs?$AAt?$AAd?$AA?3?$AA?3?$AA_?$AAA?$AAr?$AAr?$AAa?$AAy?$AA_?$AAc?$AAo?$AAn@
	push	OFFSET ??_C@_1GM@HIODFCIG@?$AA?$CC?$AAc?$AAa?$AAn?$AAn?$AAo?$AAt?$AA?5?$AAd?$AAe?$AAr?$AAe?$AAf?$AAe?$AAr@
	call	__invalid_parameter
	add	esp, 20					; 00000014H
	xor	edx, edx
	jne	SHORT $LN7@operator
$LN2@operator:
	xor	eax, eax
	jne	SHORT $LN4@operator
$LN10@operator:

; 1873 : 		_STL_VERIFY(_Idx < _Size, "cannot dereference out of range array iterator");

	mov	ecx, DWORD PTR _this$[ebp]
	cmp	DWORD PTR [ecx+12], 3
	jae	SHORT $LN13@operator
	jmp	SHORT $LN8@operator
$LN13@operator:
	push	OFFSET ??_C@_0CP@MJDCINHP@cannot?5dereference?5out?5of?5range@
	push	OFFSET ??_C@_02DKCKIIND@?$CFs@
	push	0
	push	1873					; 00000751H
	push	OFFSET ??_C@_0GJ@DMCEMOMH@c?3?2program?5files?5?$CIx86?$CJ?2microsof@
	push	2
	call	__CrtDbgReport
	add	esp, 24					; 00000018H
	cmp	eax, 1
	jne	SHORT $LN20@operator
	int	3
$LN20@operator:
	push	0
	push	1873					; 00000751H
	push	OFFSET ??_C@_1NC@HPHBFJCM@?$AAc?$AA?3?$AA?2?$AAp?$AAr?$AAo?$AAg?$AAr?$AAa?$AAm?$AA?5?$AAf?$AAi?$AAl?$AAe@
	push	OFFSET ??_C@_1HA@FKHEHIEH@?$AAs?$AAt?$AAd?$AA?3?$AA?3?$AA_?$AAA?$AAr?$AAr?$AAa?$AAy?$AA_?$AAc?$AAo?$AAn@
	push	OFFSET ??_C@_1GC@FBLGLEEL@?$AA?$CC?$AAc?$AAa?$AAn?$AAn?$AAo?$AAt?$AA?5?$AAd?$AAe?$AAr?$AAe?$AAf?$AAe?$AAr@
	call	__invalid_parameter
	add	esp, 20					; 00000014H
	xor	eax, eax
	jne	SHORT $LN13@operator
$LN8@operator:
	xor	ecx, ecx
	jne	SHORT $LN10@operator

; 1874 : 		return (_Ptr + _Idx);

	mov	edx, DWORD PTR _this$[ebp]
	mov	eax, DWORD PTR [edx+12]
	mov	ecx, DWORD PTR _this$[ebp]
	mov	edx, DWORD PTR [ecx+8]
	lea	eax, DWORD PTR [edx+eax*4]

; 1875 : 		}

	add	esp, 4
	cmp	ebp, esp
	call	__RTC_CheckEsp
	mov	esp, ebp
	pop	ebp
	ret	0
??C?$_Array_const_iterator@PAVTeam@@$02@std@@QBEPBQAVTeam@@XZ ENDP ; std::_Array_const_iterator<Team *,3>::operator->
_TEXT	ENDS
; Function compile flags: /Odtp /RTCsu
; File c:\program files (x86)\microsoft visual studio\2017\community\vc\tools\msvc\14.15.26726\include\xutility
;	COMDAT ??D?$_Array_const_iterator@PAVTeam@@$02@std@@QBEABQAVTeam@@XZ
_TEXT	SEGMENT
_this$ = -4						; size = 4
??D?$_Array_const_iterator@PAVTeam@@$02@std@@QBEABQAVTeam@@XZ PROC ; std::_Array_const_iterator<Team *,3>::operator*, COMDAT
; _this$ = ecx

; 1866 : 		{	// return designated object

	push	ebp
	mov	ebp, esp
	push	ecx
	mov	DWORD PTR [ebp-4], -858993460		; ccccccccH
	mov	DWORD PTR _this$[ebp], ecx

; 1867 : 		return (*operator->());

	mov	ecx, DWORD PTR _this$[ebp]
	call	??C?$_Array_const_iterator@PAVTeam@@$02@std@@QBEPBQAVTeam@@XZ ; std::_Array_const_iterator<Team *,3>::operator->

; 1868 : 		}

	add	esp, 4
	cmp	ebp, esp
	call	__RTC_CheckEsp
	mov	esp, ebp
	pop	ebp
	ret	0
??D?$_Array_const_iterator@PAVTeam@@$02@std@@QBEABQAVTeam@@XZ ENDP ; std::_Array_const_iterator<Team *,3>::operator*
_TEXT	ENDS
; Function compile flags: /Odtp /RTCsu
; File c:\program files (x86)\microsoft visual studio\2017\community\vc\tools\msvc\14.15.26726\include\xutility
;	COMDAT ??0?$_Array_const_iterator@PAVTeam@@$02@std@@QAE@PBQAVTeam@@I@Z
_TEXT	SEGMENT
_this$ = -4						; size = 4
__Parg$ = 8						; size = 4
__Off$ = 12						; size = 4
??0?$_Array_const_iterator@PAVTeam@@$02@std@@QAE@PBQAVTeam@@I@Z PROC ; std::_Array_const_iterator<Team *,3>::_Array_const_iterator<Team *,3>, COMDAT
; _this$ = ecx

; 1862 : 		{	// construct with pointer and offset

	push	ebp
	mov	ebp, esp
	push	ecx
	mov	DWORD PTR [ebp-4], -858993460		; ccccccccH
	mov	DWORD PTR _this$[ebp], ecx
	mov	ecx, DWORD PTR _this$[ebp]
	call	??0_Iterator_base12_compatible@std@@QAE@XZ

; 1860 : 		: _Ptr(_Parg),

	mov	eax, DWORD PTR _this$[ebp]
	mov	ecx, DWORD PTR __Parg$[ebp]
	mov	DWORD PTR [eax+8], ecx

; 1861 : 		_Idx(_Off)

	mov	edx, DWORD PTR _this$[ebp]
	mov	eax, DWORD PTR __Off$[ebp]
	mov	DWORD PTR [edx+12], eax

; 1863 : 		}

	mov	eax, DWORD PTR _this$[ebp]
	add	esp, 4
	cmp	ebp, esp
	call	__RTC_CheckEsp
	mov	esp, ebp
	pop	ebp
	ret	8
??0?$_Array_const_iterator@PAVTeam@@$02@std@@QAE@PBQAVTeam@@I@Z ENDP ; std::_Array_const_iterator<Team *,3>::_Array_const_iterator<Team *,3>
_TEXT	ENDS
; Function compile flags: /Odtp /RTCsu
; File c:\users\utilisateur\documents\gitkraken\8iar125-projetraven\vs2015\buckland_chapter7 to 10_raven\teammanager.cpp
_TEXT	SEGMENT
tv94 = -64						; size = 4
$T1 = -60						; size = 16
$T2 = -44						; size = 16
_curTeam$3 = -24					; size = 16
_this$ = -4						; size = 4
_bot$ = 8						; size = 4
?OnBotDeath@TeamManager@@QAEXPAVRaven_Bot@@@Z PROC	; TeamManager::OnBotDeath
; _this$ = ecx

; 51   : {

	push	ebp
	mov	ebp, esp
	sub	esp, 64					; 00000040H
	push	esi
	push	edi
	push	ecx
	lea	edi, DWORD PTR [ebp-64]
	mov	ecx, 16					; 00000010H
	mov	eax, -858993460				; ccccccccH
	rep stosd
	pop	ecx
	mov	DWORD PTR _this$[ebp], ecx

; 52   : 	for (std::array<Team*, 3>::iterator curTeam = m_Teams.begin(); curTeam != m_Teams.end(); curTeam++) {

	lea	eax, DWORD PTR _curTeam$3[ebp]
	push	eax
	mov	ecx, DWORD PTR _this$[ebp]
	add	ecx, 4
	call	?begin@?$array@PAVTeam@@$02@std@@QAE?AV?$_Array_iterator@PAVTeam@@$02@2@XZ ; std::array<Team *,3>::begin
	jmp	SHORT $LN4@OnBotDeath
$LN2@OnBotDeath:
	push	0
	lea	ecx, DWORD PTR $T2[ebp]
	push	ecx
	lea	ecx, DWORD PTR _curTeam$3[ebp]
	call	??E?$_Array_iterator@PAVTeam@@$02@std@@QAE?AV01@H@Z ; std::_Array_iterator<Team *,3>::operator++
$LN4@OnBotDeath:
	lea	edx, DWORD PTR $T1[ebp]
	push	edx
	mov	ecx, DWORD PTR _this$[ebp]
	add	ecx, 4
	call	?end@?$array@PAVTeam@@$02@std@@QAE?AV?$_Array_iterator@PAVTeam@@$02@2@XZ ; std::array<Team *,3>::end
	push	eax
	lea	ecx, DWORD PTR _curTeam$3[ebp]
	call	??9?$_Array_const_iterator@PAVTeam@@$02@std@@QBE_NABV01@@Z ; std::_Array_const_iterator<Team *,3>::operator!=
	movzx	eax, al
	test	eax, eax
	je	SHORT $LN1@OnBotDeath

; 53   : 		if (*curTeam != NULL) {

	lea	ecx, DWORD PTR _curTeam$3[ebp]
	call	??D?$_Array_iterator@PAVTeam@@$02@std@@QBEAAPAVTeam@@XZ ; std::_Array_iterator<Team *,3>::operator*
	cmp	DWORD PTR [eax], 0
	je	SHORT $LN5@OnBotDeath

; 54   : 			(*curTeam)->CheckDeadBot(bot);

	lea	ecx, DWORD PTR _curTeam$3[ebp]
	call	??D?$_Array_iterator@PAVTeam@@$02@std@@QBEAAPAVTeam@@XZ ; std::_Array_iterator<Team *,3>::operator*
	mov	ecx, DWORD PTR [eax]
	mov	DWORD PTR tv94[ebp], ecx
	mov	esi, esp
	mov	edx, DWORD PTR _bot$[ebp]
	push	edx
	mov	eax, DWORD PTR tv94[ebp]
	mov	edx, DWORD PTR [eax]
	mov	ecx, DWORD PTR tv94[ebp]
	mov	eax, DWORD PTR [edx+12]
	call	eax
	cmp	esi, esp
	call	__RTC_CheckEsp
$LN5@OnBotDeath:

; 55   : 		}
; 56   : 
; 57   : 	}

	jmp	SHORT $LN2@OnBotDeath
$LN1@OnBotDeath:

; 58   : }

	push	edx
	mov	ecx, ebp
	push	eax
	lea	edx, DWORD PTR $LN9@OnBotDeath
	call	@_RTC_CheckStackVars@8
	pop	eax
	pop	edx
	pop	edi
	pop	esi
	add	esp, 64					; 00000040H
	cmp	ebp, esp
	call	__RTC_CheckEsp
	mov	esp, ebp
	pop	ebp
	ret	4
	npad	1
$LN9@OnBotDeath:
	DD	1
	DD	$LN8@OnBotDeath
$LN8@OnBotDeath:
	DD	-24					; ffffffe8H
	DD	16					; 00000010H
	DD	$LN7@OnBotDeath
$LN7@OnBotDeath:
	DB	99					; 00000063H
	DB	117					; 00000075H
	DB	114					; 00000072H
	DB	84					; 00000054H
	DB	101					; 00000065H
	DB	97					; 00000061H
	DB	109					; 0000006dH
	DB	0
?OnBotDeath@TeamManager@@QAEXPAVRaven_Bot@@@Z ENDP	; TeamManager::OnBotDeath
_TEXT	ENDS
; Function compile flags: /Odtp /RTCsu
; File c:\users\utilisateur\documents\gitkraken\8iar125-projetraven\vs2015\buckland_chapter7 to 10_raven\teammanager.cpp
_TEXT	SEGMENT
tv94 = -64						; size = 4
$T1 = -60						; size = 16
$T2 = -44						; size = 16
_curTeam$3 = -24					; size = 16
_this$ = -4						; size = 4
_addedBot$ = 8						; size = 4
?NewWorldBot@TeamManager@@QAEXPAVRaven_Bot@@@Z PROC	; TeamManager::NewWorldBot
; _this$ = ecx

; 41   : {

	push	ebp
	mov	ebp, esp
	sub	esp, 64					; 00000040H
	push	esi
	push	edi
	push	ecx
	lea	edi, DWORD PTR [ebp-64]
	mov	ecx, 16					; 00000010H
	mov	eax, -858993460				; ccccccccH
	rep stosd
	pop	ecx
	mov	DWORD PTR _this$[ebp], ecx

; 42   : 	for (std::array<Team*, 3>::iterator curTeam = m_Teams.begin(); curTeam != m_Teams.end(); curTeam++) {

	lea	eax, DWORD PTR _curTeam$3[ebp]
	push	eax
	mov	ecx, DWORD PTR _this$[ebp]
	add	ecx, 4
	call	?begin@?$array@PAVTeam@@$02@std@@QAE?AV?$_Array_iterator@PAVTeam@@$02@2@XZ ; std::array<Team *,3>::begin
	jmp	SHORT $LN4@NewWorldBo
$LN2@NewWorldBo:
	push	0
	lea	ecx, DWORD PTR $T2[ebp]
	push	ecx
	lea	ecx, DWORD PTR _curTeam$3[ebp]
	call	??E?$_Array_iterator@PAVTeam@@$02@std@@QAE?AV01@H@Z ; std::_Array_iterator<Team *,3>::operator++
$LN4@NewWorldBo:
	lea	edx, DWORD PTR $T1[ebp]
	push	edx
	mov	ecx, DWORD PTR _this$[ebp]
	add	ecx, 4
	call	?end@?$array@PAVTeam@@$02@std@@QAE?AV?$_Array_iterator@PAVTeam@@$02@2@XZ ; std::array<Team *,3>::end
	push	eax
	lea	ecx, DWORD PTR _curTeam$3[ebp]
	call	??9?$_Array_const_iterator@PAVTeam@@$02@std@@QBE_NABV01@@Z ; std::_Array_const_iterator<Team *,3>::operator!=
	movzx	eax, al
	test	eax, eax
	je	SHORT $LN1@NewWorldBo

; 43   : 		if (*curTeam != NULL) {

	lea	ecx, DWORD PTR _curTeam$3[ebp]
	call	??D?$_Array_iterator@PAVTeam@@$02@std@@QBEAAPAVTeam@@XZ ; std::_Array_iterator<Team *,3>::operator*
	cmp	DWORD PTR [eax], 0
	je	SHORT $LN5@NewWorldBo

; 44   : 			(*curTeam)->NewWorldBot(addedBot);

	lea	ecx, DWORD PTR _curTeam$3[ebp]
	call	??D?$_Array_iterator@PAVTeam@@$02@std@@QBEAAPAVTeam@@XZ ; std::_Array_iterator<Team *,3>::operator*
	mov	ecx, DWORD PTR [eax]
	mov	DWORD PTR tv94[ebp], ecx
	mov	esi, esp
	mov	edx, DWORD PTR _addedBot$[ebp]
	push	edx
	mov	eax, DWORD PTR tv94[ebp]
	mov	edx, DWORD PTR [eax]
	mov	ecx, DWORD PTR tv94[ebp]
	mov	eax, DWORD PTR [edx+16]
	call	eax
	cmp	esi, esp
	call	__RTC_CheckEsp
$LN5@NewWorldBo:

; 45   : 		}
; 46   : 	}

	jmp	SHORT $LN2@NewWorldBo
$LN1@NewWorldBo:

; 47   : }

	push	edx
	mov	ecx, ebp
	push	eax
	lea	edx, DWORD PTR $LN9@NewWorldBo
	call	@_RTC_CheckStackVars@8
	pop	eax
	pop	edx
	pop	edi
	pop	esi
	add	esp, 64					; 00000040H
	cmp	ebp, esp
	call	__RTC_CheckEsp
	mov	esp, ebp
	pop	ebp
	ret	4
	npad	1
$LN9@NewWorldBo:
	DD	1
	DD	$LN8@NewWorldBo
$LN8@NewWorldBo:
	DD	-24					; ffffffe8H
	DD	16					; 00000010H
	DD	$LN7@NewWorldBo
$LN7@NewWorldBo:
	DB	99					; 00000063H
	DB	117					; 00000075H
	DB	114					; 00000072H
	DB	84					; 00000054H
	DB	101					; 00000065H
	DB	97					; 00000061H
	DB	109					; 0000006dH
	DB	0
?NewWorldBot@TeamManager@@QAEXPAVRaven_Bot@@@Z ENDP	; TeamManager::NewWorldBot
_TEXT	ENDS
; Function compile flags: /Odtp /RTCsu
; File c:\users\utilisateur\documents\gitkraken\8iar125-projetraven\vs2015\buckland_chapter7 to 10_raven\teammanager.cpp
_TEXT	SEGMENT
tv70 = -8						; size = 4
_this$ = -4						; size = 4
_colour$ = 8						; size = 4
_bot$ = 12						; size = 4
?RemoveBot@TeamManager@@QAEXW4teams@@PAVRaven_Bot@@@Z PROC ; TeamManager::RemoveBot
; _this$ = ecx

; 36   : {

	push	ebp
	mov	ebp, esp
	sub	esp, 8
	push	esi
	mov	DWORD PTR [ebp-8], -858993460		; ccccccccH
	mov	DWORD PTR [ebp-4], -858993460		; ccccccccH
	mov	DWORD PTR _this$[ebp], ecx

; 37   : 	m_Teams[colour]->RemoveBot(bot);

	mov	eax, DWORD PTR _colour$[ebp]
	push	eax
	mov	ecx, DWORD PTR _this$[ebp]
	add	ecx, 4
	call	??A?$array@PAVTeam@@$02@std@@QAEAAPAVTeam@@I@Z ; std::array<Team *,3>::operator[]
	mov	ecx, DWORD PTR [eax]
	mov	DWORD PTR tv70[ebp], ecx
	mov	esi, esp
	mov	edx, DWORD PTR _bot$[ebp]
	push	edx
	mov	eax, DWORD PTR tv70[ebp]
	mov	edx, DWORD PTR [eax]
	mov	ecx, DWORD PTR tv70[ebp]
	mov	eax, DWORD PTR [edx+8]
	call	eax
	cmp	esi, esp
	call	__RTC_CheckEsp

; 38   : }

	pop	esi
	add	esp, 8
	cmp	ebp, esp
	call	__RTC_CheckEsp
	mov	esp, ebp
	pop	ebp
	ret	8
?RemoveBot@TeamManager@@QAEXW4teams@@PAVRaven_Bot@@@Z ENDP ; TeamManager::RemoveBot
_TEXT	ENDS
; Function compile flags: /Odtp /RTCsu
; File c:\users\utilisateur\documents\gitkraken\8iar125-projetraven\vs2015\buckland_chapter7 to 10_raven\teammanager.cpp
_TEXT	SEGMENT
tv86 = -12						; size = 4
_originalTeam$ = -8					; size = 4
_this$ = -4						; size = 4
_colour$ = 8						; size = 4
_bot$ = 12						; size = 4
?AddBot@TeamManager@@QAEXW4teams@@PAVRaven_Bot@@@Z PROC	; TeamManager::AddBot
; _this$ = ecx

; 25   : {

	push	ebp
	mov	ebp, esp
	sub	esp, 12					; 0000000cH
	push	esi
	mov	DWORD PTR [ebp-12], -858993460		; ccccccccH
	mov	DWORD PTR [ebp-8], -858993460		; ccccccccH
	mov	DWORD PTR [ebp-4], -858993460		; ccccccccH
	mov	DWORD PTR _this$[ebp], ecx

; 26   : 	Team* originalTeam = bot->GetTeam();

	mov	ecx, DWORD PTR _bot$[ebp]
	call	?GetTeam@Raven_Bot@@QBEPAVTeam@@XZ	; Raven_Bot::GetTeam
	mov	DWORD PTR _originalTeam$[ebp], eax

; 27   : 	if (originalTeam != NULL) {

	cmp	DWORD PTR _originalTeam$[ebp], 0
	je	SHORT $LN2@AddBot

; 28   : 		originalTeam->RemoveBot(bot);

	mov	esi, esp
	mov	eax, DWORD PTR _bot$[ebp]
	push	eax
	mov	ecx, DWORD PTR _originalTeam$[ebp]
	mov	edx, DWORD PTR [ecx]
	mov	ecx, DWORD PTR _originalTeam$[ebp]
	mov	eax, DWORD PTR [edx+8]
	call	eax
	cmp	esi, esp
	call	__RTC_CheckEsp
$LN2@AddBot:

; 29   : 	}
; 30   : 	if (!m_Teams[colour]->BotInTeam(bot)) {

	mov	ecx, DWORD PTR _bot$[ebp]
	push	ecx
	mov	edx, DWORD PTR _colour$[ebp]
	push	edx
	mov	ecx, DWORD PTR _this$[ebp]
	add	ecx, 4
	call	??A?$array@PAVTeam@@$02@std@@QAEAAPAVTeam@@I@Z ; std::array<Team *,3>::operator[]
	mov	ecx, DWORD PTR [eax]
	call	?BotInTeam@Team@@QBE_NPBVRaven_Bot@@@Z	; Team::BotInTeam
	movzx	eax, al
	test	eax, eax
	jne	SHORT $LN1@AddBot

; 31   : 		m_Teams[colour]->AddBot(bot);

	mov	ecx, DWORD PTR _colour$[ebp]
	push	ecx
	mov	ecx, DWORD PTR _this$[ebp]
	add	ecx, 4
	call	??A?$array@PAVTeam@@$02@std@@QAEAAPAVTeam@@I@Z ; std::array<Team *,3>::operator[]
	mov	edx, DWORD PTR [eax]
	mov	DWORD PTR tv86[ebp], edx
	mov	esi, esp
	mov	eax, DWORD PTR _bot$[ebp]
	push	eax
	mov	ecx, DWORD PTR tv86[ebp]
	mov	edx, DWORD PTR [ecx]
	mov	ecx, DWORD PTR tv86[ebp]
	mov	eax, DWORD PTR [edx+4]
	call	eax
	cmp	esi, esp
	call	__RTC_CheckEsp
$LN1@AddBot:

; 32   : 	}
; 33   : }

	pop	esi
	add	esp, 12					; 0000000cH
	cmp	ebp, esp
	call	__RTC_CheckEsp
	mov	esp, ebp
	pop	ebp
	ret	8
?AddBot@TeamManager@@QAEXW4teams@@PAVRaven_Bot@@@Z ENDP	; TeamManager::AddBot
_TEXT	ENDS
; Function compile flags: /Odtp /RTCsu
; File c:\users\utilisateur\documents\gitkraken\8iar125-projetraven\vs2015\buckland_chapter7 to 10_raven\teammanager.cpp
_TEXT	SEGMENT
tv77 = -24						; size = 4
$T2 = -20						; size = 4
$T3 = -16						; size = 4
__$EHRec$ = -12						; size = 12
_game$ = 8						; size = 4
?Instance@TeamManager@@SAPAV1@PAVRaven_Game@@@Z PROC	; TeamManager::Instance

; 17   : {

	push	ebp
	mov	ebp, esp
	push	-1
	push	__ehhandler$?Instance@TeamManager@@SAPAV1@PAVRaven_Game@@@Z
	mov	eax, DWORD PTR fs:0
	push	eax
	sub	esp, 12					; 0000000cH
	mov	DWORD PTR [ebp-24], -858993460		; ccccccccH
	mov	DWORD PTR [ebp-20], -858993460		; ccccccccH
	mov	DWORD PTR [ebp-16], -858993460		; ccccccccH
	mov	eax, DWORD PTR ___security_cookie
	xor	eax, ebp
	push	eax
	lea	eax, DWORD PTR __$EHRec$[ebp]
	mov	DWORD PTR fs:0, eax

; 18   : 	if (instance == NULL) {

	cmp	DWORD PTR ?instance@TeamManager@@0PAV1@A, 0 ; TeamManager::instance
	jne	SHORT $LN2@Instance

; 19   : 		instance = new TeamManager(game);

	push	16					; 00000010H
	call	??2@YAPAXI@Z				; operator new
	add	esp, 4
	mov	DWORD PTR $T2[ebp], eax
	mov	DWORD PTR __$EHRec$[ebp+8], 0
	cmp	DWORD PTR $T2[ebp], 0
	je	SHORT $LN4@Instance
	mov	eax, DWORD PTR _game$[ebp]
	push	eax
	mov	ecx, DWORD PTR $T2[ebp]
	call	??0TeamManager@@AAE@PAVRaven_Game@@@Z	; TeamManager::TeamManager
	mov	DWORD PTR tv77[ebp], eax
	jmp	SHORT $LN5@Instance
$LN4@Instance:
	mov	DWORD PTR tv77[ebp], 0
$LN5@Instance:
	mov	ecx, DWORD PTR tv77[ebp]
	mov	DWORD PTR $T3[ebp], ecx
	mov	DWORD PTR __$EHRec$[ebp+8], -1
	mov	edx, DWORD PTR $T3[ebp]
	mov	DWORD PTR ?instance@TeamManager@@0PAV1@A, edx ; TeamManager::instance
$LN2@Instance:

; 20   : 	}
; 21   : 	return instance;

	mov	eax, DWORD PTR ?instance@TeamManager@@0PAV1@A ; TeamManager::instance

; 22   : }

	mov	ecx, DWORD PTR __$EHRec$[ebp]
	mov	DWORD PTR fs:0, ecx
	pop	ecx
	add	esp, 24					; 00000018H
	cmp	ebp, esp
	call	__RTC_CheckEsp
	mov	esp, ebp
	pop	ebp
	ret	0
_TEXT	ENDS
text$x	SEGMENT
__unwindfunclet$?Instance@TeamManager@@SAPAV1@PAVRaven_Game@@@Z$0:
	push	16					; 00000010H
	mov	eax, DWORD PTR $T2[ebp]
	push	eax
	call	??3@YAXPAXI@Z				; operator delete
	add	esp, 8
	ret	0
__ehhandler$?Instance@TeamManager@@SAPAV1@PAVRaven_Game@@@Z:
	mov	edx, DWORD PTR [esp+8]
	lea	eax, DWORD PTR [edx+12]
	mov	ecx, DWORD PTR [edx-16]
	xor	ecx, eax
	call	@__security_check_cookie@4
	mov	eax, OFFSET __ehfuncinfo$?Instance@TeamManager@@SAPAV1@PAVRaven_Game@@@Z
	jmp	___CxxFrameHandler3
text$x	ENDS
?Instance@TeamManager@@SAPAV1@PAVRaven_Game@@@Z ENDP	; TeamManager::Instance
; Function compile flags: /Odtp /RTCsu
; File c:\program files (x86)\microsoft visual studio\2017\community\vc\tools\msvc\14.15.26726\include\array
;	COMDAT ??A?$array@PAVTeam@@$02@std@@QAEAAPAVTeam@@I@Z
_TEXT	SEGMENT
_this$ = -4						; size = 4
__Pos$ = 8						; size = 4
??A?$array@PAVTeam@@$02@std@@QAEAAPAVTeam@@I@Z PROC	; std::array<Team *,3>::operator[], COMDAT
; _this$ = ecx

; 172  : 		{	// subscript mutable sequence

	push	ebp
	mov	ebp, esp
	push	ecx
	mov	DWORD PTR [ebp-4], -858993460		; ccccccccH
	mov	DWORD PTR _this$[ebp], ecx
$LN4@operator:

; 173  :  #if _ITERATOR_DEBUG_LEVEL != 0
; 174  : 		_STL_VERIFY(_Pos < _Size, "array subscript out of range");

	cmp	DWORD PTR __Pos$[ebp], 3
	jae	SHORT $LN7@operator
	jmp	SHORT $LN2@operator
$LN7@operator:
	push	OFFSET ??_C@_0BN@HMIFLIEM@array?5subscript?5out?5of?5range@
	push	OFFSET ??_C@_02DKCKIIND@?$CFs@
	push	0
	push	174					; 000000aeH
	push	OFFSET ??_C@_0GG@OLGMCIID@c?3?2program?5files?5?$CIx86?$CJ?2microsof@
	push	2
	call	__CrtDbgReport
	add	esp, 24					; 00000018H
	cmp	eax, 1
	jne	SHORT $LN11@operator
	int	3
$LN11@operator:
	push	0
	push	174					; 000000aeH
	push	OFFSET ??_C@_1MM@FPNMBLKJ@?$AAc?$AA?3?$AA?2?$AAp?$AAr?$AAo?$AAg?$AAr?$AAa?$AAm?$AA?5?$AAf?$AAi?$AAl?$AAe@
	push	OFFSET ??_C@_1FA@EFCHFMFI@?$AAs?$AAt?$AAd?$AA?3?$AA?3?$AAa?$AAr?$AAr?$AAa?$AAy?$AA?$DM?$AAc?$AAl?$AAa?$AAs@
	push	OFFSET ??_C@_1DO@NCBLADDF@?$AA?$CC?$AAa?$AAr?$AAr?$AAa?$AAy?$AA?5?$AAs?$AAu?$AAb?$AAs?$AAc?$AAr?$AAi?$AAp@
	call	__invalid_parameter
	add	esp, 20					; 00000014H
	xor	ecx, ecx
	jne	SHORT $LN7@operator
$LN2@operator:
	xor	edx, edx
	jne	SHORT $LN4@operator

; 175  :  #endif /* _ITERATOR_DEBUG_LEVEL != 0 */
; 176  : 
; 177  : 		return (_Elems[_Pos]);

	mov	eax, DWORD PTR __Pos$[ebp]
	mov	ecx, DWORD PTR _this$[ebp]
	lea	eax, DWORD PTR [ecx+eax*4]

; 178  : 		}

	add	esp, 4
	cmp	ebp, esp
	call	__RTC_CheckEsp
	mov	esp, ebp
	pop	ebp
	ret	4
??A?$array@PAVTeam@@$02@std@@QAEAAPAVTeam@@I@Z ENDP	; std::array<Team *,3>::operator[]
_TEXT	ENDS
; Function compile flags: /Odtp /RTCsu
; File c:\program files (x86)\microsoft visual studio\2017\community\vc\tools\msvc\14.15.26726\include\array
;	COMDAT ?end@?$array@PAVTeam@@$02@std@@QAE?AV?$_Array_iterator@PAVTeam@@$02@2@XZ
_TEXT	SEGMENT
_this$ = -16						; size = 4
__$EHRec$ = -12						; size = 12
___$ReturnUdt$ = 8					; size = 4
?end@?$array@PAVTeam@@$02@std@@QAE?AV?$_Array_iterator@PAVTeam@@$02@2@XZ PROC ; std::array<Team *,3>::end, COMDAT
; _this$ = ecx

; 67   : 		{	// return iterator for end of mutable sequence

	push	ebp
	mov	ebp, esp
	push	-1
	push	__ehhandler$?end@?$array@PAVTeam@@$02@std@@QAE?AV?$_Array_iterator@PAVTeam@@$02@2@XZ
	mov	eax, DWORD PTR fs:0
	push	eax
	push	ecx
	mov	DWORD PTR [ebp-16], -858993460		; ccccccccH
	mov	eax, DWORD PTR ___security_cookie
	xor	eax, ebp
	push	eax
	lea	eax, DWORD PTR __$EHRec$[ebp]
	mov	DWORD PTR fs:0, eax
	mov	DWORD PTR _this$[ebp], ecx

; 68   : 		return (iterator(_Elems, _Size));

	push	3
	mov	eax, DWORD PTR _this$[ebp]
	push	eax
	mov	ecx, DWORD PTR ___$ReturnUdt$[ebp]
	call	??0?$_Array_iterator@PAVTeam@@$02@std@@QAE@PAPAVTeam@@I@Z ; std::_Array_iterator<Team *,3>::_Array_iterator<Team *,3>
	mov	eax, DWORD PTR ___$ReturnUdt$[ebp]

; 69   : 		}

	mov	ecx, DWORD PTR __$EHRec$[ebp]
	mov	DWORD PTR fs:0, ecx
	pop	ecx
	add	esp, 16					; 00000010H
	cmp	ebp, esp
	call	__RTC_CheckEsp
	mov	esp, ebp
	pop	ebp
	ret	4
_TEXT	ENDS
;	COMDAT text$x
text$x	SEGMENT
__ehhandler$?end@?$array@PAVTeam@@$02@std@@QAE?AV?$_Array_iterator@PAVTeam@@$02@2@XZ:
	mov	edx, DWORD PTR [esp+8]
	lea	eax, DWORD PTR [edx+12]
	mov	ecx, DWORD PTR [edx-8]
	xor	ecx, eax
	call	@__security_check_cookie@4
	mov	eax, OFFSET __ehfuncinfo$?end@?$array@PAVTeam@@$02@std@@QAE?AV?$_Array_iterator@PAVTeam@@$02@2@XZ
	jmp	___CxxFrameHandler3
text$x	ENDS
?end@?$array@PAVTeam@@$02@std@@QAE?AV?$_Array_iterator@PAVTeam@@$02@2@XZ ENDP ; std::array<Team *,3>::end
; Function compile flags: /Odtp /RTCsu
; File c:\program files (x86)\microsoft visual studio\2017\community\vc\tools\msvc\14.15.26726\include\array
;	COMDAT ?begin@?$array@PAVTeam@@$02@std@@QAE?AV?$_Array_iterator@PAVTeam@@$02@2@XZ
_TEXT	SEGMENT
_this$ = -16						; size = 4
__$EHRec$ = -12						; size = 12
___$ReturnUdt$ = 8					; size = 4
?begin@?$array@PAVTeam@@$02@std@@QAE?AV?$_Array_iterator@PAVTeam@@$02@2@XZ PROC ; std::array<Team *,3>::begin, COMDAT
; _this$ = ecx

; 57   : 		{	// return iterator for beginning of mutable sequence

	push	ebp
	mov	ebp, esp
	push	-1
	push	__ehhandler$?begin@?$array@PAVTeam@@$02@std@@QAE?AV?$_Array_iterator@PAVTeam@@$02@2@XZ
	mov	eax, DWORD PTR fs:0
	push	eax
	push	ecx
	mov	DWORD PTR [ebp-16], -858993460		; ccccccccH
	mov	eax, DWORD PTR ___security_cookie
	xor	eax, ebp
	push	eax
	lea	eax, DWORD PTR __$EHRec$[ebp]
	mov	DWORD PTR fs:0, eax
	mov	DWORD PTR _this$[ebp], ecx

; 58   : 		return (iterator(_Elems, 0));

	push	0
	mov	eax, DWORD PTR _this$[ebp]
	push	eax
	mov	ecx, DWORD PTR ___$ReturnUdt$[ebp]
	call	??0?$_Array_iterator@PAVTeam@@$02@std@@QAE@PAPAVTeam@@I@Z ; std::_Array_iterator<Team *,3>::_Array_iterator<Team *,3>
	mov	eax, DWORD PTR ___$ReturnUdt$[ebp]

; 59   : 		}

	mov	ecx, DWORD PTR __$EHRec$[ebp]
	mov	DWORD PTR fs:0, ecx
	pop	ecx
	add	esp, 16					; 00000010H
	cmp	ebp, esp
	call	__RTC_CheckEsp
	mov	esp, ebp
	pop	ebp
	ret	4
_TEXT	ENDS
;	COMDAT text$x
text$x	SEGMENT
__ehhandler$?begin@?$array@PAVTeam@@$02@std@@QAE?AV?$_Array_iterator@PAVTeam@@$02@2@XZ:
	mov	edx, DWORD PTR [esp+8]
	lea	eax, DWORD PTR [edx+12]
	mov	ecx, DWORD PTR [edx-8]
	xor	ecx, eax
	call	@__security_check_cookie@4
	mov	eax, OFFSET __ehfuncinfo$?begin@?$array@PAVTeam@@$02@std@@QAE?AV?$_Array_iterator@PAVTeam@@$02@2@XZ
	jmp	___CxxFrameHandler3
text$x	ENDS
?begin@?$array@PAVTeam@@$02@std@@QAE?AV?$_Array_iterator@PAVTeam@@$02@2@XZ ENDP ; std::array<Team *,3>::begin
; Function compile flags: /Odtp /RTCsu
; File c:\users\utilisateur\documents\gitkraken\8iar125-projetraven\vs2015\buckland_chapter7 to 10_raven\teammanager.cpp
_TEXT	SEGMENT
$T1 = -60						; size = 16
$T2 = -44						; size = 16
_curTeam$3 = -24					; size = 16
_this$ = -4						; size = 4
_game$ = 8						; size = 4
??0TeamManager@@AAE@PAVRaven_Game@@@Z PROC		; TeamManager::TeamManager
; _this$ = ecx

; 9    : {

	push	ebp
	mov	ebp, esp
	sub	esp, 60					; 0000003cH
	push	edi
	push	ecx
	lea	edi, DWORD PTR [ebp-60]
	mov	ecx, 15					; 0000000fH
	mov	eax, -858993460				; ccccccccH
	rep stosd
	pop	ecx
	mov	DWORD PTR _this$[ebp], ecx

; 10   : 	this->game = game;

	mov	eax, DWORD PTR _this$[ebp]
	mov	ecx, DWORD PTR _game$[ebp]
	mov	DWORD PTR [eax], ecx

; 11   : 	for (std::array<Team*, 3>::iterator curTeam = m_Teams.begin(); curTeam != m_Teams.end(); curTeam++) {

	lea	edx, DWORD PTR _curTeam$3[ebp]
	push	edx
	mov	ecx, DWORD PTR _this$[ebp]
	add	ecx, 4
	call	?begin@?$array@PAVTeam@@$02@std@@QAE?AV?$_Array_iterator@PAVTeam@@$02@2@XZ ; std::array<Team *,3>::begin
	jmp	SHORT $LN4@TeamManage
$LN2@TeamManage:
	push	0
	lea	eax, DWORD PTR $T2[ebp]
	push	eax
	lea	ecx, DWORD PTR _curTeam$3[ebp]
	call	??E?$_Array_iterator@PAVTeam@@$02@std@@QAE?AV01@H@Z ; std::_Array_iterator<Team *,3>::operator++
$LN4@TeamManage:
	lea	ecx, DWORD PTR $T1[ebp]
	push	ecx
	mov	ecx, DWORD PTR _this$[ebp]
	add	ecx, 4
	call	?end@?$array@PAVTeam@@$02@std@@QAE?AV?$_Array_iterator@PAVTeam@@$02@2@XZ ; std::array<Team *,3>::end
	push	eax
	lea	ecx, DWORD PTR _curTeam$3[ebp]
	call	??9?$_Array_const_iterator@PAVTeam@@$02@std@@QBE_NABV01@@Z ; std::_Array_const_iterator<Team *,3>::operator!=
	movzx	edx, al
	test	edx, edx
	je	SHORT $LN1@TeamManage

; 12   : 		*curTeam = NULL;

	lea	ecx, DWORD PTR _curTeam$3[ebp]
	call	??D?$_Array_iterator@PAVTeam@@$02@std@@QBEAAPAVTeam@@XZ ; std::_Array_iterator<Team *,3>::operator*
	mov	DWORD PTR [eax], 0

; 13   : 	}

	jmp	SHORT $LN2@TeamManage
$LN1@TeamManage:

; 14   : }

	mov	eax, DWORD PTR _this$[ebp]
	push	edx
	mov	ecx, ebp
	push	eax
	lea	edx, DWORD PTR $LN8@TeamManage
	call	@_RTC_CheckStackVars@8
	pop	eax
	pop	edx
	pop	edi
	add	esp, 60					; 0000003cH
	cmp	ebp, esp
	call	__RTC_CheckEsp
	mov	esp, ebp
	pop	ebp
	ret	4
	npad	2
$LN8@TeamManage:
	DD	1
	DD	$LN7@TeamManage
$LN7@TeamManage:
	DD	-24					; ffffffe8H
	DD	16					; 00000010H
	DD	$LN6@TeamManage
$LN6@TeamManage:
	DB	99					; 00000063H
	DB	117					; 00000075H
	DB	114					; 00000072H
	DB	84					; 00000054H
	DB	101					; 00000065H
	DB	97					; 00000061H
	DB	109					; 0000006dH
	DB	0
??0TeamManager@@AAE@PAVRaven_Game@@@Z ENDP		; TeamManager::TeamManager
_TEXT	ENDS
; Function compile flags: /Odtp /RTCsu
; File c:\users\utilisateur\documents\gitkraken\8iar125-projetraven\vs2015\buckland_chapter7 to 10_raven\raven_bot.h
;	COMDAT ?GetTeam@Raven_Bot@@QBEPAVTeam@@XZ
_TEXT	SEGMENT
_this$ = -4						; size = 4
?GetTeam@Raven_Bot@@QBEPAVTeam@@XZ PROC			; Raven_Bot::GetTeam, COMDAT
; _this$ = ecx

; 166  :   Team*			GetTeam() const { return m_pTeam; }

	push	ebp
	mov	ebp, esp
	push	ecx
	mov	DWORD PTR [ebp-4], -858993460		; ccccccccH
	mov	DWORD PTR _this$[ebp], ecx
	mov	eax, DWORD PTR _this$[ebp]
	mov	eax, DWORD PTR [eax+152]
	mov	esp, ebp
	pop	ebp
	ret	0
?GetTeam@Raven_Bot@@QBEPAVTeam@@XZ ENDP			; Raven_Bot::GetTeam
_TEXT	ENDS
; Function compile flags: /Odtp /RTCsu
; File c:\users\utilisateur\documents\gitkraken\8iar125-projetraven\vs2015\common\misc\utils.h
;	COMDAT ??__EMinFloat@@YAXXZ
text$di	SEGMENT
??__EMinFloat@@YAXXZ PROC				; `dynamic initializer for 'MinFloat'', COMDAT

; 27   : const float   MinFloat  = (std::numeric_limits<float>::min)();

	push	ebp
	mov	ebp, esp
	call	?min@?$numeric_limits@M@std@@SAMXZ	; std::numeric_limits<float>::min
	fstp	DWORD PTR ?MinFloat@@3MB
	cmp	ebp, esp
	call	__RTC_CheckEsp
	pop	ebp
	ret	0
??__EMinFloat@@YAXXZ ENDP				; `dynamic initializer for 'MinFloat''
text$di	ENDS
; Function compile flags: /Odtp /RTCsu
; File c:\users\utilisateur\documents\gitkraken\8iar125-projetraven\vs2015\common\misc\utils.h
;	COMDAT ??__EMaxFloat@@YAXXZ
text$di	SEGMENT
??__EMaxFloat@@YAXXZ PROC				; `dynamic initializer for 'MaxFloat'', COMDAT

; 26   : const float   MaxFloat  = (std::numeric_limits<float>::max)();

	push	ebp
	mov	ebp, esp
	call	?max@?$numeric_limits@M@std@@SAMXZ	; std::numeric_limits<float>::max
	fstp	DWORD PTR ?MaxFloat@@3MB
	cmp	ebp, esp
	call	__RTC_CheckEsp
	pop	ebp
	ret	0
??__EMaxFloat@@YAXXZ ENDP				; `dynamic initializer for 'MaxFloat''
text$di	ENDS
; Function compile flags: /Odtp /RTCsu
; File c:\users\utilisateur\documents\gitkraken\8iar125-projetraven\vs2015\common\misc\utils.h
;	COMDAT ??__EMinDouble@@YAXXZ
text$di	SEGMENT
??__EMinDouble@@YAXXZ PROC				; `dynamic initializer for 'MinDouble'', COMDAT

; 25   : const double  MinDouble = (std::numeric_limits<double>::min)();

	push	ebp
	mov	ebp, esp
	call	?min@?$numeric_limits@N@std@@SANXZ	; std::numeric_limits<double>::min
	fstp	QWORD PTR ?MinDouble@@3NB
	cmp	ebp, esp
	call	__RTC_CheckEsp
	pop	ebp
	ret	0
??__EMinDouble@@YAXXZ ENDP				; `dynamic initializer for 'MinDouble''
text$di	ENDS
; Function compile flags: /Odtp /RTCsu
; File c:\users\utilisateur\documents\gitkraken\8iar125-projetraven\vs2015\common\misc\utils.h
;	COMDAT ??__EMaxDouble@@YAXXZ
text$di	SEGMENT
??__EMaxDouble@@YAXXZ PROC				; `dynamic initializer for 'MaxDouble'', COMDAT

; 24   : const double  MaxDouble = (std::numeric_limits<double>::max)();

	push	ebp
	mov	ebp, esp
	call	?max@?$numeric_limits@N@std@@SANXZ	; std::numeric_limits<double>::max
	fstp	QWORD PTR ?MaxDouble@@3NB
	cmp	ebp, esp
	call	__RTC_CheckEsp
	pop	ebp
	ret	0
??__EMaxDouble@@YAXXZ ENDP				; `dynamic initializer for 'MaxDouble''
text$di	ENDS
; Function compile flags: /Odtp /RTCsu
; File c:\users\utilisateur\documents\gitkraken\8iar125-projetraven\vs2015\common\misc\utils.h
;	COMDAT ??__EMaxInt@@YAXXZ
text$di	SEGMENT
??__EMaxInt@@YAXXZ PROC					; `dynamic initializer for 'MaxInt'', COMDAT

; 23   : const int     MaxInt    = (std::numeric_limits<int>::max)();

	push	ebp
	mov	ebp, esp
	call	?max@?$numeric_limits@H@std@@SAHXZ	; std::numeric_limits<int>::max
	mov	DWORD PTR ?MaxInt@@3HB, eax
	cmp	ebp, esp
	call	__RTC_CheckEsp
	pop	ebp
	ret	0
??__EMaxInt@@YAXXZ ENDP					; `dynamic initializer for 'MaxInt''
text$di	ENDS
; Function compile flags: /Odtp /RTCsu
; File c:\program files (x86)\microsoft visual studio\2017\community\vc\tools\msvc\14.15.26726\include\xlocale
;	COMDAT ??0id@locale@std@@QAE@I@Z
_TEXT	SEGMENT
_this$ = -4						; size = 4
__Val$ = 8						; size = 4
??0id@locale@std@@QAE@I@Z PROC				; std::locale::id::id, COMDAT
; _this$ = ecx

; 111  : 			{	// construct with specified stamp value

	push	ebp
	mov	ebp, esp
	push	ecx
	mov	DWORD PTR [ebp-4], -858993460		; ccccccccH
	mov	DWORD PTR _this$[ebp], ecx

; 110  : 			: _Id(_Val)

	mov	eax, DWORD PTR _this$[ebp]
	mov	ecx, DWORD PTR __Val$[ebp]
	mov	DWORD PTR [eax], ecx

; 112  : 			}

	mov	eax, DWORD PTR _this$[ebp]
	mov	esp, ebp
	pop	ebp
	ret	4
??0id@locale@std@@QAE@I@Z ENDP				; std::locale::id::id
_TEXT	ENDS
; Function compile flags: /Odtp /RTCsu
;	COMDAT ??0_Iterator_base12_compatible@std@@QAE@XZ
_TEXT	SEGMENT
_this$ = -4						; size = 4
??0_Iterator_base12_compatible@std@@QAE@XZ PROC		; std::_Iterator_base12_compatible::_Iterator_base12_compatible, COMDAT
; _this$ = ecx
	push	ebp
	mov	ebp, esp
	push	ecx
	mov	DWORD PTR [ebp-4], -858993460		; ccccccccH
	mov	DWORD PTR _this$[ebp], ecx
	mov	eax, DWORD PTR _this$[ebp]
	mov	DWORD PTR [eax], 0
	mov	ecx, DWORD PTR _this$[ebp]
	mov	DWORD PTR [ecx+4], 0
	mov	eax, DWORD PTR _this$[ebp]
	mov	esp, ebp
	pop	ebp
	ret	0
??0_Iterator_base12_compatible@std@@QAE@XZ ENDP		; std::_Iterator_base12_compatible::_Iterator_base12_compatible
_TEXT	ENDS
; Function compile flags: /Odtp /RTCsu
; File c:\program files (x86)\microsoft visual studio\2017\community\vc\tools\msvc\14.15.26726\include\limits
;	COMDAT ?max@?$numeric_limits@N@std@@SANXZ
_TEXT	SEGMENT
?max@?$numeric_limits@N@std@@SANXZ PROC			; std::numeric_limits<double>::max, COMDAT

; 1062 : 		{	// return maximum value

	push	ebp
	mov	ebp, esp

; 1063 : 		return (DBL_MAX);

	fld	QWORD PTR __real@7fefffffffffffff

; 1064 : 		}

	pop	ebp
	ret	0
?max@?$numeric_limits@N@std@@SANXZ ENDP			; std::numeric_limits<double>::max
_TEXT	ENDS
; Function compile flags: /Odtp /RTCsu
; File c:\program files (x86)\microsoft visual studio\2017\community\vc\tools\msvc\14.15.26726\include\limits
;	COMDAT ?min@?$numeric_limits@N@std@@SANXZ
_TEXT	SEGMENT
?min@?$numeric_limits@N@std@@SANXZ PROC			; std::numeric_limits<double>::min, COMDAT

; 1057 : 		{	// return minimum value

	push	ebp
	mov	ebp, esp

; 1058 : 		return (DBL_MIN);

	fld	QWORD PTR __real@0010000000000000

; 1059 : 		}

	pop	ebp
	ret	0
?min@?$numeric_limits@N@std@@SANXZ ENDP			; std::numeric_limits<double>::min
_TEXT	ENDS
; Function compile flags: /Odtp /RTCsu
; File c:\program files (x86)\microsoft visual studio\2017\community\vc\tools\msvc\14.15.26726\include\limits
;	COMDAT ?max@?$numeric_limits@M@std@@SAMXZ
_TEXT	SEGMENT
?max@?$numeric_limits@M@std@@SAMXZ PROC			; std::numeric_limits<float>::max, COMDAT

; 1003 : 		{	// return maximum value

	push	ebp
	mov	ebp, esp

; 1004 : 		return (FLT_MAX);

	fld	DWORD PTR __real@7f7fffff

; 1005 : 		}

	pop	ebp
	ret	0
?max@?$numeric_limits@M@std@@SAMXZ ENDP			; std::numeric_limits<float>::max
_TEXT	ENDS
; Function compile flags: /Odtp /RTCsu
; File c:\program files (x86)\microsoft visual studio\2017\community\vc\tools\msvc\14.15.26726\include\limits
;	COMDAT ?min@?$numeric_limits@M@std@@SAMXZ
_TEXT	SEGMENT
?min@?$numeric_limits@M@std@@SAMXZ PROC			; std::numeric_limits<float>::min, COMDAT

; 998  : 		{	// return minimum value

	push	ebp
	mov	ebp, esp

; 999  : 		return (FLT_MIN);

	fld	DWORD PTR __real@00800000

; 1000 : 		}

	pop	ebp
	ret	0
?min@?$numeric_limits@M@std@@SAMXZ ENDP			; std::numeric_limits<float>::min
_TEXT	ENDS
; Function compile flags: /Odtp /RTCsu
; File c:\program files (x86)\microsoft visual studio\2017\community\vc\tools\msvc\14.15.26726\include\limits
;	COMDAT ?max@?$numeric_limits@H@std@@SAHXZ
_TEXT	SEGMENT
?max@?$numeric_limits@H@std@@SAHXZ PROC			; std::numeric_limits<int>::max, COMDAT

; 616  : 		{	// return maximum value

	push	ebp
	mov	ebp, esp

; 617  : 		return (INT_MAX);

	mov	eax, 2147483647				; 7fffffffH

; 618  : 		}

	pop	ebp
	ret	0
?max@?$numeric_limits@H@std@@SAHXZ ENDP			; std::numeric_limits<int>::max
_TEXT	ENDS
; Function compile flags: /Odtp /RTCsu
; File c:\users\utilisateur\documents\gitkraken\8iar125-projetraven\vs2015\buckland_chapter7 to 10_raven\teammanager.cpp
;	COMDAT ?__empty_global_delete@@YAXPAXI@Z
_TEXT	SEGMENT
___formal$ = 8						; size = 4
___formal$ = 12						; size = 4
?__empty_global_delete@@YAXPAXI@Z PROC			; __empty_global_delete, COMDAT

	push	ebp
	mov	ebp, esp
	pop	ebp
	ret	0
?__empty_global_delete@@YAXPAXI@Z ENDP			; __empty_global_delete
_TEXT	ENDS
; Function compile flags: /Odtp /RTCsu
; File c:\users\utilisateur\documents\gitkraken\8iar125-projetraven\vs2015\buckland_chapter7 to 10_raven\teammanager.cpp
;	COMDAT ?__empty_global_delete@@YAXPAX@Z
_TEXT	SEGMENT
___formal$ = 8						; size = 4
?__empty_global_delete@@YAXPAX@Z PROC			; __empty_global_delete, COMDAT

	push	ebp
	mov	ebp, esp
	pop	ebp
	ret	0
?__empty_global_delete@@YAXPAX@Z ENDP			; __empty_global_delete
_TEXT	ENDS
END
