; Listing generated by Microsoft (R) Optimizing Compiler Version 19.15.26730.0 

	TITLE	C:\Users\Utilisateur\Documents\GitHub\8IAR125-ProjetRaven\VS2015\Buckland_Chapter7 to 10_Raven\Team.cpp
	.686P
	.XMM
	include listing.inc
	.model	flat

INCLUDELIB LIBCMTD
INCLUDELIB OLDNAMES

CONST	SEGMENT
?colors@@3QBKB DD 0ffH					; colors
	DD	0ff0000H
	DD	0ff00H
	DD	00H
	DD	0c8c8ffH
	DD	0c8c8c8H
	DD	0ffffH
	DD	0aaffH
	DD	0aa00ffH
	DD	05a85H
	DD	0ffffffH
	DD	06400H
	DD	0ffff00H
	DD	0c8c8c8H
	DD	0e6e6ffH
$SG165621 DB	'<SparseGraph::GetNode>: invalid index', 00H
	ORG $+6
$SG165622 DB	'c', 00H, ':', 00H, '\', 00H, 'u', 00H, 's', 00H, 'e', 00H
	DB	'r', 00H, 's', 00H, '\', 00H, 'u', 00H, 't', 00H, 'i', 00H, 'l'
	DB	00H, 'i', 00H, 's', 00H, 'a', 00H, 't', 00H, 'e', 00H, 'u', 00H
	DB	'r', 00H, '\', 00H, 'd', 00H, 'o', 00H, 'c', 00H, 'u', 00H, 'm'
	DB	00H, 'e', 00H, 'n', 00H, 't', 00H, 's', 00H, '\', 00H, 'g', 00H
	DB	'i', 00H, 't', 00H, 'h', 00H, 'u', 00H, 'b', 00H, '\', 00H, '8'
	DB	00H, 'i', 00H, 'a', 00H, 'r', 00H, '1', 00H, '2', 00H, '5', 00H
	DB	'-', 00H, 'p', 00H, 'r', 00H, 'o', 00H, 'j', 00H, 'e', 00H, 't'
	DB	00H, 'r', 00H, 'a', 00H, 'v', 00H, 'e', 00H, 'n', 00H, '\', 00H
	DB	'v', 00H, 's', 00H, '2', 00H, '0', 00H, '1', 00H, '5', 00H, '\'
	DB	00H, 'c', 00H, 'o', 00H, 'm', 00H, 'm', 00H, 'o', 00H, 'n', 00H
	DB	'\', 00H, 'g', 00H, 'r', 00H, 'a', 00H, 'p', 00H, 'h', 00H, '\'
	DB	00H, 's', 00H, 'p', 00H, 'a', 00H, 'r', 00H, 's', 00H, 'e', 00H
	DB	'g', 00H, 'r', 00H, 'a', 00H, 'p', 00H, 'h', 00H, '.', 00H, 'h'
	DB	00H, 00H, 00H
$SG165623 DB	'(', 00H, 'i', 00H, 'd', 00H, 'x', 00H, ' ', 00H, '<', 00H
	DB	' ', 00H, '(', 00H, 'i', 00H, 'n', 00H, 't', 00H, ')', 00H, 'm'
	DB	00H, '_', 00H, 'N', 00H, 'o', 00H, 'd', 00H, 'e', 00H, 's', 00H
	DB	'.', 00H, 's', 00H, 'i', 00H, 'z', 00H, 'e', 00H, '(', 00H, ')'
	DB	00H, ')', 00H, ' ', 00H, '&', 00H, '&', 00H, ' ', 00H, '(', 00H
	DB	'i', 00H, 'd', 00H, 'x', 00H, ' ', 00H, '>', 00H, '=', 00H, '0'
	DB	00H, ')', 00H, ' ', 00H, '&', 00H, '&', 00H, ' ', 00H, '"', 00H
	DB	'<', 00H, 'S', 00H, 'p', 00H, 'a', 00H, 'r', 00H, 's', 00H, 'e'
	DB	00H, 'G', 00H, 'r', 00H, 'a', 00H, 'p', 00H, 'h', 00H, ':', 00H
	DB	':', 00H, 'G', 00H, 'e', 00H, 't', 00H, 'N', 00H, 'o', 00H, 'd'
	DB	00H, 'e', 00H, '>', 00H, ':', 00H, ' ', 00H, 'i', 00H, 'n', 00H
	DB	'v', 00H, 'a', 00H, 'l', 00H, 'i', 00H, 'd', 00H, ' ', 00H, 'i'
	DB	00H, 'n', 00H, 'd', 00H, 'e', 00H, 'x', 00H, '"', 00H, 00H, 00H
CONST	ENDS
PUBLIC	?__empty_global_delete@@YAXPAX@Z		; __empty_global_delete
PUBLIC	?__empty_global_delete@@YAXPAXI@Z		; __empty_global_delete
PUBLIC	??2@YAPAXIPAX@Z					; operator new
PUBLIC	?max@?$numeric_limits@H@std@@SAHXZ		; std::numeric_limits<int>::max
PUBLIC	?min@?$numeric_limits@M@std@@SAMXZ		; std::numeric_limits<float>::min
PUBLIC	?max@?$numeric_limits@M@std@@SAMXZ		; std::numeric_limits<float>::max
PUBLIC	?min@?$numeric_limits@N@std@@SANXZ		; std::numeric_limits<double>::min
PUBLIC	?max@?$numeric_limits@N@std@@SANXZ		; std::numeric_limits<double>::max
PUBLIC	?_Adopt@_Iterator_base0@std@@QAEXPBX@Z		; std::_Iterator_base0::_Adopt
PUBLIC	?_Getpfirst@_Container_base12@std@@QBEPAPAU_Iterator_base12@2@XZ ; std::_Container_base12::_Getpfirst
PUBLIC	?_Orphan_all@_Container_base12@std@@QAEXXZ	; std::_Container_base12::_Orphan_all
PUBLIC	?_Clrcont@_Iterator_base12@std@@QAEXXZ		; std::_Iterator_base12::_Clrcont
PUBLIC	?_Getpnext@_Iterator_base12@std@@QAEPAPAU12@XZ	; std::_Iterator_base12::_Getpnext
PUBLIC	?_Allocate@_Default_allocate_traits@std@@SAPAXI@Z ; std::_Default_allocate_traits::_Allocate
PUBLIC	?_Adjust_manually_vector_aligned@std@@YAXAAPAXAAI@Z ; std::_Adjust_manually_vector_aligned
PUBLIC	??0id@locale@std@@QAE@I@Z			; std::locale::id::id
PUBLIC	?SetEntityType@BaseGameEntity@@QAEXH@Z		; BaseGameEntity::SetEntityType
PUBLIC	?GetTeam@Raven_Bot@@QBEPAVTeam@@XZ		; Raven_Bot::GetTeam
PUBLIC	?deallocate@?$allocator@V?$NavGraphNode@PAV?$Trigger@VRaven_Bot@@@@@@@std@@QAEXQAV?$NavGraphNode@PAV?$Trigger@VRaven_Bot@@@@@@I@Z ; std::allocator<NavGraphNode<Trigger<Raven_Bot> *> >::deallocate
PUBLIC	??1?$_Vector_alloc@U?$_Vec_base_types@V?$NavGraphNode@PAV?$Trigger@VRaven_Bot@@@@@@V?$allocator@V?$NavGraphNode@PAV?$Trigger@VRaven_Bot@@@@@@@std@@@std@@@std@@QAE@XZ ; std::_Vector_alloc<std::_Vec_base_types<NavGraphNode<Trigger<Raven_Bot> *>,std::allocator<NavGraphNode<Trigger<Raven_Bot> *> > > >::~_Vector_alloc<std::_Vec_base_types<NavGraphNode<Trigger<Raven_Bot> *>,std::allocator<NavGraphNode<Trigger<Raven_Bot> *> > > >
PUBLIC	?_Free_proxy@?$_Vector_alloc@U?$_Vec_base_types@V?$NavGraphNode@PAV?$Trigger@VRaven_Bot@@@@@@V?$allocator@V?$NavGraphNode@PAV?$Trigger@VRaven_Bot@@@@@@@std@@@std@@@std@@QAEXXZ ; std::_Vector_alloc<std::_Vec_base_types<NavGraphNode<Trigger<Raven_Bot> *>,std::allocator<NavGraphNode<Trigger<Raven_Bot> *> > > >::_Free_proxy
PUBLIC	?_Myproxy@?$_Vector_alloc@U?$_Vec_base_types@V?$NavGraphNode@PAV?$Trigger@VRaven_Bot@@@@@@V?$allocator@V?$NavGraphNode@PAV?$Trigger@VRaven_Bot@@@@@@@std@@@std@@@std@@QAEAAPAU_Container_proxy@2@XZ ; std::_Vector_alloc<std::_Vec_base_types<NavGraphNode<Trigger<Raven_Bot> *>,std::allocator<NavGraphNode<Trigger<Raven_Bot> *> > > >::_Myproxy
PUBLIC	?_Orphan_all@?$_Vector_alloc@U?$_Vec_base_types@V?$NavGraphNode@PAV?$Trigger@VRaven_Bot@@@@@@V?$allocator@V?$NavGraphNode@PAV?$Trigger@VRaven_Bot@@@@@@@std@@@std@@@std@@QAEXXZ ; std::_Vector_alloc<std::_Vec_base_types<NavGraphNode<Trigger<Raven_Bot> *>,std::allocator<NavGraphNode<Trigger<Raven_Bot> *> > > >::_Orphan_all
PUBLIC	?_Getal@?$_Vector_alloc@U?$_Vec_base_types@V?$NavGraphNode@PAV?$Trigger@VRaven_Bot@@@@@@V?$allocator@V?$NavGraphNode@PAV?$Trigger@VRaven_Bot@@@@@@@std@@@std@@@std@@QAEAAV?$allocator@V?$NavGraphNode@PAV?$Trigger@VRaven_Bot@@@@@@@2@XZ ; std::_Vector_alloc<std::_Vec_base_types<NavGraphNode<Trigger<Raven_Bot> *>,std::allocator<NavGraphNode<Trigger<Raven_Bot> *> > > >::_Getal
PUBLIC	?_Get_data@?$_Vector_alloc@U?$_Vec_base_types@V?$NavGraphNode@PAV?$Trigger@VRaven_Bot@@@@@@V?$allocator@V?$NavGraphNode@PAV?$Trigger@VRaven_Bot@@@@@@@std@@@std@@@std@@QAEAAV?$_Vector_val@U?$_Simple_types@V?$NavGraphNode@PAV?$Trigger@VRaven_Bot@@@@@@@std@@@2@XZ ; std::_Vector_alloc<std::_Vec_base_types<NavGraphNode<Trigger<Raven_Bot> *>,std::allocator<NavGraphNode<Trigger<Raven_Bot> *> > > >::_Get_data
PUBLIC	?_Get_data@?$_Vector_alloc@U?$_Vec_base_types@V?$NavGraphNode@PAV?$Trigger@VRaven_Bot@@@@@@V?$allocator@V?$NavGraphNode@PAV?$Trigger@VRaven_Bot@@@@@@@std@@@std@@@std@@QBEABV?$_Vector_val@U?$_Simple_types@V?$NavGraphNode@PAV?$Trigger@VRaven_Bot@@@@@@@std@@@2@XZ ; std::_Vector_alloc<std::_Vec_base_types<NavGraphNode<Trigger<Raven_Bot> *>,std::allocator<NavGraphNode<Trigger<Raven_Bot> *> > > >::_Get_data
PUBLIC	?_Myfirst@?$_Vector_alloc@U?$_Vec_base_types@V?$NavGraphNode@PAV?$Trigger@VRaven_Bot@@@@@@V?$allocator@V?$NavGraphNode@PAV?$Trigger@VRaven_Bot@@@@@@@std@@@std@@@std@@QAEAAPAV?$NavGraphNode@PAV?$Trigger@VRaven_Bot@@@@@@XZ ; std::_Vector_alloc<std::_Vec_base_types<NavGraphNode<Trigger<Raven_Bot> *>,std::allocator<NavGraphNode<Trigger<Raven_Bot> *> > > >::_Myfirst
PUBLIC	?_Myfirst@?$_Vector_alloc@U?$_Vec_base_types@V?$NavGraphNode@PAV?$Trigger@VRaven_Bot@@@@@@V?$allocator@V?$NavGraphNode@PAV?$Trigger@VRaven_Bot@@@@@@@std@@@std@@@std@@QBEABQAV?$NavGraphNode@PAV?$Trigger@VRaven_Bot@@@@@@XZ ; std::_Vector_alloc<std::_Vec_base_types<NavGraphNode<Trigger<Raven_Bot> *>,std::allocator<NavGraphNode<Trigger<Raven_Bot> *> > > >::_Myfirst
PUBLIC	?_Mylast@?$_Vector_alloc@U?$_Vec_base_types@V?$NavGraphNode@PAV?$Trigger@VRaven_Bot@@@@@@V?$allocator@V?$NavGraphNode@PAV?$Trigger@VRaven_Bot@@@@@@@std@@@std@@@std@@QAEAAPAV?$NavGraphNode@PAV?$Trigger@VRaven_Bot@@@@@@XZ ; std::_Vector_alloc<std::_Vec_base_types<NavGraphNode<Trigger<Raven_Bot> *>,std::allocator<NavGraphNode<Trigger<Raven_Bot> *> > > >::_Mylast
PUBLIC	?_Mylast@?$_Vector_alloc@U?$_Vec_base_types@V?$NavGraphNode@PAV?$Trigger@VRaven_Bot@@@@@@V?$allocator@V?$NavGraphNode@PAV?$Trigger@VRaven_Bot@@@@@@@std@@@std@@@std@@QBEABQAV?$NavGraphNode@PAV?$Trigger@VRaven_Bot@@@@@@XZ ; std::_Vector_alloc<std::_Vec_base_types<NavGraphNode<Trigger<Raven_Bot> *>,std::allocator<NavGraphNode<Trigger<Raven_Bot> *> > > >::_Mylast
PUBLIC	?_Myend@?$_Vector_alloc@U?$_Vec_base_types@V?$NavGraphNode@PAV?$Trigger@VRaven_Bot@@@@@@V?$allocator@V?$NavGraphNode@PAV?$Trigger@VRaven_Bot@@@@@@@std@@@std@@@std@@QAEAAPAV?$NavGraphNode@PAV?$Trigger@VRaven_Bot@@@@@@XZ ; std::_Vector_alloc<std::_Vec_base_types<NavGraphNode<Trigger<Raven_Bot> *>,std::allocator<NavGraphNode<Trigger<Raven_Bot> *> > > >::_Myend
PUBLIC	?_Myend@?$_Vector_alloc@U?$_Vec_base_types@V?$NavGraphNode@PAV?$Trigger@VRaven_Bot@@@@@@V?$allocator@V?$NavGraphNode@PAV?$Trigger@VRaven_Bot@@@@@@@std@@@std@@@std@@QBEABQAV?$NavGraphNode@PAV?$Trigger@VRaven_Bot@@@@@@XZ ; std::_Vector_alloc<std::_Vec_base_types<NavGraphNode<Trigger<Raven_Bot> *>,std::allocator<NavGraphNode<Trigger<Raven_Bot> *> > > >::_Myend
PUBLIC	?_Get_first@?$_Compressed_pair@V?$allocator@V?$NavGraphNode@PAV?$Trigger@VRaven_Bot@@@@@@@std@@V?$_Vector_val@U?$_Simple_types@V?$NavGraphNode@PAV?$Trigger@VRaven_Bot@@@@@@@std@@@2@$00@std@@QAEAAV?$allocator@V?$NavGraphNode@PAV?$Trigger@VRaven_Bot@@@@@@@2@XZ ; std::_Compressed_pair<std::allocator<NavGraphNode<Trigger<Raven_Bot> *> >,std::_Vector_val<std::_Simple_types<NavGraphNode<Trigger<Raven_Bot> *> > >,1>::_Get_first
PUBLIC	?_Get_second@?$_Compressed_pair@V?$allocator@V?$NavGraphNode@PAV?$Trigger@VRaven_Bot@@@@@@@std@@V?$_Vector_val@U?$_Simple_types@V?$NavGraphNode@PAV?$Trigger@VRaven_Bot@@@@@@@std@@@2@$00@std@@QAEAAV?$_Vector_val@U?$_Simple_types@V?$NavGraphNode@PAV?$Trigger@VRaven_Bot@@@@@@@std@@@2@XZ ; std::_Compressed_pair<std::allocator<NavGraphNode<Trigger<Raven_Bot> *> >,std::_Vector_val<std::_Simple_types<NavGraphNode<Trigger<Raven_Bot> *> > >,1>::_Get_second
PUBLIC	?_Get_second@?$_Compressed_pair@V?$allocator@V?$NavGraphNode@PAV?$Trigger@VRaven_Bot@@@@@@@std@@V?$_Vector_val@U?$_Simple_types@V?$NavGraphNode@PAV?$Trigger@VRaven_Bot@@@@@@@std@@@2@$00@std@@QBEABV?$_Vector_val@U?$_Simple_types@V?$NavGraphNode@PAV?$Trigger@VRaven_Bot@@@@@@@std@@@2@XZ ; std::_Compressed_pair<std::allocator<NavGraphNode<Trigger<Raven_Bot> *> >,std::_Vector_val<std::_Simple_types<NavGraphNode<Trigger<Raven_Bot> *> > >,1>::_Get_second
PUBLIC	??1?$vector@V?$NavGraphNode@PAV?$Trigger@VRaven_Bot@@@@@@V?$allocator@V?$NavGraphNode@PAV?$Trigger@VRaven_Bot@@@@@@@std@@@std@@QAE@XZ ; std::vector<NavGraphNode<Trigger<Raven_Bot> *>,std::allocator<NavGraphNode<Trigger<Raven_Bot> *> > >::~vector<NavGraphNode<Trigger<Raven_Bot> *>,std::allocator<NavGraphNode<Trigger<Raven_Bot> *> > >
PUBLIC	?size@?$vector@V?$NavGraphNode@PAV?$Trigger@VRaven_Bot@@@@@@V?$allocator@V?$NavGraphNode@PAV?$Trigger@VRaven_Bot@@@@@@@std@@@std@@QBEIXZ ; std::vector<NavGraphNode<Trigger<Raven_Bot> *>,std::allocator<NavGraphNode<Trigger<Raven_Bot> *> > >::size
PUBLIC	?capacity@?$vector@V?$NavGraphNode@PAV?$Trigger@VRaven_Bot@@@@@@V?$allocator@V?$NavGraphNode@PAV?$Trigger@VRaven_Bot@@@@@@@std@@@std@@QBEIXZ ; std::vector<NavGraphNode<Trigger<Raven_Bot> *>,std::allocator<NavGraphNode<Trigger<Raven_Bot> *> > >::capacity
PUBLIC	??A?$vector@V?$NavGraphNode@PAV?$Trigger@VRaven_Bot@@@@@@V?$allocator@V?$NavGraphNode@PAV?$Trigger@VRaven_Bot@@@@@@@std@@@std@@QAEAAV?$NavGraphNode@PAV?$Trigger@VRaven_Bot@@@@@@I@Z ; std::vector<NavGraphNode<Trigger<Raven_Bot> *>,std::allocator<NavGraphNode<Trigger<Raven_Bot> *> > >::operator[]
PUBLIC	?_Destroy@?$vector@V?$NavGraphNode@PAV?$Trigger@VRaven_Bot@@@@@@V?$allocator@V?$NavGraphNode@PAV?$Trigger@VRaven_Bot@@@@@@@std@@@std@@AAEXPAV?$NavGraphNode@PAV?$Trigger@VRaven_Bot@@@@@@0@Z ; std::vector<NavGraphNode<Trigger<Raven_Bot> *>,std::allocator<NavGraphNode<Trigger<Raven_Bot> *> > >::_Destroy
PUBLIC	?_Tidy@?$vector@V?$NavGraphNode@PAV?$Trigger@VRaven_Bot@@@@@@V?$allocator@V?$NavGraphNode@PAV?$Trigger@VRaven_Bot@@@@@@@std@@@std@@AAEXXZ ; std::vector<NavGraphNode<Trigger<Raven_Bot> *>,std::allocator<NavGraphNode<Trigger<Raven_Bot> *> > >::_Tidy
PUBLIC	?deallocate@?$allocator@V?$list@VNavGraphEdge@@V?$allocator@VNavGraphEdge@@@std@@@std@@@std@@QAEXQAV?$list@VNavGraphEdge@@V?$allocator@VNavGraphEdge@@@std@@@2@I@Z ; std::allocator<std::list<NavGraphEdge,std::allocator<NavGraphEdge> > >::deallocate
PUBLIC	??1?$_Vector_alloc@U?$_Vec_base_types@V?$list@VNavGraphEdge@@V?$allocator@VNavGraphEdge@@@std@@@std@@V?$allocator@V?$list@VNavGraphEdge@@V?$allocator@VNavGraphEdge@@@std@@@std@@@2@@std@@@std@@QAE@XZ ; std::_Vector_alloc<std::_Vec_base_types<std::list<NavGraphEdge,std::allocator<NavGraphEdge> >,std::allocator<std::list<NavGraphEdge,std::allocator<NavGraphEdge> > > > >::~_Vector_alloc<std::_Vec_base_types<std::list<NavGraphEdge,std::allocator<NavGraphEdge> >,std::allocator<std::list<NavGraphEdge,std::allocator<NavGraphEdge> > > > >
PUBLIC	?_Free_proxy@?$_Vector_alloc@U?$_Vec_base_types@V?$list@VNavGraphEdge@@V?$allocator@VNavGraphEdge@@@std@@@std@@V?$allocator@V?$list@VNavGraphEdge@@V?$allocator@VNavGraphEdge@@@std@@@std@@@2@@std@@@std@@QAEXXZ ; std::_Vector_alloc<std::_Vec_base_types<std::list<NavGraphEdge,std::allocator<NavGraphEdge> >,std::allocator<std::list<NavGraphEdge,std::allocator<NavGraphEdge> > > > >::_Free_proxy
PUBLIC	?_Myproxy@?$_Vector_alloc@U?$_Vec_base_types@V?$list@VNavGraphEdge@@V?$allocator@VNavGraphEdge@@@std@@@std@@V?$allocator@V?$list@VNavGraphEdge@@V?$allocator@VNavGraphEdge@@@std@@@std@@@2@@std@@@std@@QAEAAPAU_Container_proxy@2@XZ ; std::_Vector_alloc<std::_Vec_base_types<std::list<NavGraphEdge,std::allocator<NavGraphEdge> >,std::allocator<std::list<NavGraphEdge,std::allocator<NavGraphEdge> > > > >::_Myproxy
PUBLIC	?_Orphan_all@?$_Vector_alloc@U?$_Vec_base_types@V?$list@VNavGraphEdge@@V?$allocator@VNavGraphEdge@@@std@@@std@@V?$allocator@V?$list@VNavGraphEdge@@V?$allocator@VNavGraphEdge@@@std@@@std@@@2@@std@@@std@@QAEXXZ ; std::_Vector_alloc<std::_Vec_base_types<std::list<NavGraphEdge,std::allocator<NavGraphEdge> >,std::allocator<std::list<NavGraphEdge,std::allocator<NavGraphEdge> > > > >::_Orphan_all
PUBLIC	?_Getal@?$_Vector_alloc@U?$_Vec_base_types@V?$list@VNavGraphEdge@@V?$allocator@VNavGraphEdge@@@std@@@std@@V?$allocator@V?$list@VNavGraphEdge@@V?$allocator@VNavGraphEdge@@@std@@@std@@@2@@std@@@std@@QAEAAV?$allocator@V?$list@VNavGraphEdge@@V?$allocator@VNavGraphEdge@@@std@@@std@@@2@XZ ; std::_Vector_alloc<std::_Vec_base_types<std::list<NavGraphEdge,std::allocator<NavGraphEdge> >,std::allocator<std::list<NavGraphEdge,std::allocator<NavGraphEdge> > > > >::_Getal
PUBLIC	?_Get_data@?$_Vector_alloc@U?$_Vec_base_types@V?$list@VNavGraphEdge@@V?$allocator@VNavGraphEdge@@@std@@@std@@V?$allocator@V?$list@VNavGraphEdge@@V?$allocator@VNavGraphEdge@@@std@@@std@@@2@@std@@@std@@QAEAAV?$_Vector_val@U?$_Simple_types@V?$list@VNavGraphEdge@@V?$allocator@VNavGraphEdge@@@std@@@std@@@std@@@2@XZ ; std::_Vector_alloc<std::_Vec_base_types<std::list<NavGraphEdge,std::allocator<NavGraphEdge> >,std::allocator<std::list<NavGraphEdge,std::allocator<NavGraphEdge> > > > >::_Get_data
PUBLIC	?_Get_data@?$_Vector_alloc@U?$_Vec_base_types@V?$list@VNavGraphEdge@@V?$allocator@VNavGraphEdge@@@std@@@std@@V?$allocator@V?$list@VNavGraphEdge@@V?$allocator@VNavGraphEdge@@@std@@@std@@@2@@std@@@std@@QBEABV?$_Vector_val@U?$_Simple_types@V?$list@VNavGraphEdge@@V?$allocator@VNavGraphEdge@@@std@@@std@@@std@@@2@XZ ; std::_Vector_alloc<std::_Vec_base_types<std::list<NavGraphEdge,std::allocator<NavGraphEdge> >,std::allocator<std::list<NavGraphEdge,std::allocator<NavGraphEdge> > > > >::_Get_data
PUBLIC	?_Myfirst@?$_Vector_alloc@U?$_Vec_base_types@V?$list@VNavGraphEdge@@V?$allocator@VNavGraphEdge@@@std@@@std@@V?$allocator@V?$list@VNavGraphEdge@@V?$allocator@VNavGraphEdge@@@std@@@std@@@2@@std@@@std@@QAEAAPAV?$list@VNavGraphEdge@@V?$allocator@VNavGraphEdge@@@std@@@2@XZ ; std::_Vector_alloc<std::_Vec_base_types<std::list<NavGraphEdge,std::allocator<NavGraphEdge> >,std::allocator<std::list<NavGraphEdge,std::allocator<NavGraphEdge> > > > >::_Myfirst
PUBLIC	?_Myfirst@?$_Vector_alloc@U?$_Vec_base_types@V?$list@VNavGraphEdge@@V?$allocator@VNavGraphEdge@@@std@@@std@@V?$allocator@V?$list@VNavGraphEdge@@V?$allocator@VNavGraphEdge@@@std@@@std@@@2@@std@@@std@@QBEABQAV?$list@VNavGraphEdge@@V?$allocator@VNavGraphEdge@@@std@@@2@XZ ; std::_Vector_alloc<std::_Vec_base_types<std::list<NavGraphEdge,std::allocator<NavGraphEdge> >,std::allocator<std::list<NavGraphEdge,std::allocator<NavGraphEdge> > > > >::_Myfirst
PUBLIC	?_Mylast@?$_Vector_alloc@U?$_Vec_base_types@V?$list@VNavGraphEdge@@V?$allocator@VNavGraphEdge@@@std@@@std@@V?$allocator@V?$list@VNavGraphEdge@@V?$allocator@VNavGraphEdge@@@std@@@std@@@2@@std@@@std@@QAEAAPAV?$list@VNavGraphEdge@@V?$allocator@VNavGraphEdge@@@std@@@2@XZ ; std::_Vector_alloc<std::_Vec_base_types<std::list<NavGraphEdge,std::allocator<NavGraphEdge> >,std::allocator<std::list<NavGraphEdge,std::allocator<NavGraphEdge> > > > >::_Mylast
PUBLIC	?_Myend@?$_Vector_alloc@U?$_Vec_base_types@V?$list@VNavGraphEdge@@V?$allocator@VNavGraphEdge@@@std@@@std@@V?$allocator@V?$list@VNavGraphEdge@@V?$allocator@VNavGraphEdge@@@std@@@std@@@2@@std@@@std@@QAEAAPAV?$list@VNavGraphEdge@@V?$allocator@VNavGraphEdge@@@std@@@2@XZ ; std::_Vector_alloc<std::_Vec_base_types<std::list<NavGraphEdge,std::allocator<NavGraphEdge> >,std::allocator<std::list<NavGraphEdge,std::allocator<NavGraphEdge> > > > >::_Myend
PUBLIC	?_Myend@?$_Vector_alloc@U?$_Vec_base_types@V?$list@VNavGraphEdge@@V?$allocator@VNavGraphEdge@@@std@@@std@@V?$allocator@V?$list@VNavGraphEdge@@V?$allocator@VNavGraphEdge@@@std@@@std@@@2@@std@@@std@@QBEABQAV?$list@VNavGraphEdge@@V?$allocator@VNavGraphEdge@@@std@@@2@XZ ; std::_Vector_alloc<std::_Vec_base_types<std::list<NavGraphEdge,std::allocator<NavGraphEdge> >,std::allocator<std::list<NavGraphEdge,std::allocator<NavGraphEdge> > > > >::_Myend
PUBLIC	?_Get_first@?$_Compressed_pair@V?$allocator@V?$list@VNavGraphEdge@@V?$allocator@VNavGraphEdge@@@std@@@std@@@std@@V?$_Vector_val@U?$_Simple_types@V?$list@VNavGraphEdge@@V?$allocator@VNavGraphEdge@@@std@@@std@@@std@@@2@$00@std@@QAEAAV?$allocator@V?$list@VNavGraphEdge@@V?$allocator@VNavGraphEdge@@@std@@@std@@@2@XZ ; std::_Compressed_pair<std::allocator<std::list<NavGraphEdge,std::allocator<NavGraphEdge> > >,std::_Vector_val<std::_Simple_types<std::list<NavGraphEdge,std::allocator<NavGraphEdge> > > >,1>::_Get_first
PUBLIC	?_Get_second@?$_Compressed_pair@V?$allocator@V?$list@VNavGraphEdge@@V?$allocator@VNavGraphEdge@@@std@@@std@@@std@@V?$_Vector_val@U?$_Simple_types@V?$list@VNavGraphEdge@@V?$allocator@VNavGraphEdge@@@std@@@std@@@std@@@2@$00@std@@QAEAAV?$_Vector_val@U?$_Simple_types@V?$list@VNavGraphEdge@@V?$allocator@VNavGraphEdge@@@std@@@std@@@std@@@2@XZ ; std::_Compressed_pair<std::allocator<std::list<NavGraphEdge,std::allocator<NavGraphEdge> > >,std::_Vector_val<std::_Simple_types<std::list<NavGraphEdge,std::allocator<NavGraphEdge> > > >,1>::_Get_second
PUBLIC	?_Get_second@?$_Compressed_pair@V?$allocator@V?$list@VNavGraphEdge@@V?$allocator@VNavGraphEdge@@@std@@@std@@@std@@V?$_Vector_val@U?$_Simple_types@V?$list@VNavGraphEdge@@V?$allocator@VNavGraphEdge@@@std@@@std@@@std@@@2@$00@std@@QBEABV?$_Vector_val@U?$_Simple_types@V?$list@VNavGraphEdge@@V?$allocator@VNavGraphEdge@@@std@@@std@@@std@@@2@XZ ; std::_Compressed_pair<std::allocator<std::list<NavGraphEdge,std::allocator<NavGraphEdge> > >,std::_Vector_val<std::_Simple_types<std::list<NavGraphEdge,std::allocator<NavGraphEdge> > > >,1>::_Get_second
PUBLIC	??1?$vector@V?$list@VNavGraphEdge@@V?$allocator@VNavGraphEdge@@@std@@@std@@V?$allocator@V?$list@VNavGraphEdge@@V?$allocator@VNavGraphEdge@@@std@@@std@@@2@@std@@QAE@XZ ; std::vector<std::list<NavGraphEdge,std::allocator<NavGraphEdge> >,std::allocator<std::list<NavGraphEdge,std::allocator<NavGraphEdge> > > >::~vector<std::list<NavGraphEdge,std::allocator<NavGraphEdge> >,std::allocator<std::list<NavGraphEdge,std::allocator<NavGraphEdge> > > >
PUBLIC	?capacity@?$vector@V?$list@VNavGraphEdge@@V?$allocator@VNavGraphEdge@@@std@@@std@@V?$allocator@V?$list@VNavGraphEdge@@V?$allocator@VNavGraphEdge@@@std@@@std@@@2@@std@@QBEIXZ ; std::vector<std::list<NavGraphEdge,std::allocator<NavGraphEdge> >,std::allocator<std::list<NavGraphEdge,std::allocator<NavGraphEdge> > > >::capacity
PUBLIC	?_Destroy@?$vector@V?$list@VNavGraphEdge@@V?$allocator@VNavGraphEdge@@@std@@@std@@V?$allocator@V?$list@VNavGraphEdge@@V?$allocator@VNavGraphEdge@@@std@@@std@@@2@@std@@AAEXPAV?$list@VNavGraphEdge@@V?$allocator@VNavGraphEdge@@@std@@@2@0@Z ; std::vector<std::list<NavGraphEdge,std::allocator<NavGraphEdge> >,std::allocator<std::list<NavGraphEdge,std::allocator<NavGraphEdge> > > >::_Destroy
PUBLIC	?_Tidy@?$vector@V?$list@VNavGraphEdge@@V?$allocator@VNavGraphEdge@@@std@@@std@@V?$allocator@V?$list@VNavGraphEdge@@V?$allocator@VNavGraphEdge@@@std@@@std@@@2@@std@@AAEXXZ ; std::vector<std::list<NavGraphEdge,std::allocator<NavGraphEdge> >,std::allocator<std::list<NavGraphEdge,std::allocator<NavGraphEdge> > > >::_Tidy
PUBLIC	?GetNode@?$SparseGraph@V?$NavGraphNode@PAV?$Trigger@VRaven_Bot@@@@@@VNavGraphEdge@@@@QAEAAV?$NavGraphNode@PAV?$Trigger@VRaven_Bot@@@@@@H@Z ; SparseGraph<NavGraphNode<Trigger<Raven_Bot> *>,NavGraphEdge>::GetNode
PUBLIC	??1?$SparseGraph@V?$NavGraphNode@PAV?$Trigger@VRaven_Bot@@@@@@VNavGraphEdge@@@@QAE@XZ ; SparseGraph<NavGraphNode<Trigger<Raven_Bot> *>,NavGraphEdge>::~SparseGraph<NavGraphNode<Trigger<Raven_Bot> *>,NavGraphEdge>
PUBLIC	?deallocate@?$allocator@U?$_List_node@PAV?$Trigger@VRaven_Bot@@@@PAX@std@@@std@@QAEXQAU?$_List_node@PAV?$Trigger@VRaven_Bot@@@@PAX@2@I@Z ; std::allocator<std::_List_node<Trigger<Raven_Bot> *,void *> >::deallocate
PUBLIC	?allocate@?$allocator@U?$_List_node@PAV?$Trigger@VRaven_Bot@@@@PAX@std@@@std@@QAEPAU?$_List_node@PAV?$Trigger@VRaven_Bot@@@@PAX@2@I@Z ; std::allocator<std::_List_node<Trigger<Raven_Bot> *,void *> >::allocate
PUBLIC	?deallocate@?$_Default_allocator_traits@V?$allocator@U?$_List_node@PAV?$Trigger@VRaven_Bot@@@@PAX@std@@@std@@@std@@SAXAAV?$allocator@U?$_List_node@PAV?$Trigger@VRaven_Bot@@@@PAX@std@@@2@QAU?$_List_node@PAV?$Trigger@VRaven_Bot@@@@PAX@2@I@Z ; std::_Default_allocator_traits<std::allocator<std::_List_node<Trigger<Raven_Bot> *,void *> > >::deallocate
PUBLIC	?max_size@?$_Default_allocator_traits@V?$allocator@U?$_List_node@PAV?$Trigger@VRaven_Bot@@@@PAX@std@@@std@@@std@@SAIABV?$allocator@U?$_List_node@PAV?$Trigger@VRaven_Bot@@@@PAX@std@@@2@@Z ; std::_Default_allocator_traits<std::allocator<std::_List_node<Trigger<Raven_Bot> *,void *> > >::max_size
PUBLIC	??1?$_List_alloc@U?$_List_base_types@PAV?$Trigger@VRaven_Bot@@@@V?$allocator@PAV?$Trigger@VRaven_Bot@@@@@std@@@std@@@std@@QAE@XZ ; std::_List_alloc<std::_List_base_types<Trigger<Raven_Bot> *,std::allocator<Trigger<Raven_Bot> *> > >::~_List_alloc<std::_List_base_types<Trigger<Raven_Bot> *,std::allocator<Trigger<Raven_Bot> *> > >
PUBLIC	?_Free_proxy@?$_List_alloc@U?$_List_base_types@PAV?$Trigger@VRaven_Bot@@@@V?$allocator@PAV?$Trigger@VRaven_Bot@@@@@std@@@std@@@std@@QAEXXZ ; std::_List_alloc<std::_List_base_types<Trigger<Raven_Bot> *,std::allocator<Trigger<Raven_Bot> *> > >::_Free_proxy
PUBLIC	?_Getpfirst@?$_List_alloc@U?$_List_base_types@PAV?$Trigger@VRaven_Bot@@@@V?$allocator@PAV?$Trigger@VRaven_Bot@@@@@std@@@std@@@std@@QBEPAPAU_Iterator_base12@2@XZ ; std::_List_alloc<std::_List_base_types<Trigger<Raven_Bot> *,std::allocator<Trigger<Raven_Bot> *> > >::_Getpfirst
PUBLIC	?_Myproxy@?$_List_alloc@U?$_List_base_types@PAV?$Trigger@VRaven_Bot@@@@V?$allocator@PAV?$Trigger@VRaven_Bot@@@@@std@@@std@@@std@@QAEAAPAU_Container_proxy@2@XZ ; std::_List_alloc<std::_List_base_types<Trigger<Raven_Bot> *,std::allocator<Trigger<Raven_Bot> *> > >::_Myproxy
PUBLIC	?_Freeheadnode@?$_List_alloc@U?$_List_base_types@PAV?$Trigger@VRaven_Bot@@@@V?$allocator@PAV?$Trigger@VRaven_Bot@@@@@std@@@std@@@std@@QAEXPAU?$_List_node@PAV?$Trigger@VRaven_Bot@@@@PAX@2@@Z ; std::_List_alloc<std::_List_base_types<Trigger<Raven_Bot> *,std::allocator<Trigger<Raven_Bot> *> > >::_Freeheadnode
PUBLIC	?_Buynode0@?$_List_alloc@U?$_List_base_types@PAV?$Trigger@VRaven_Bot@@@@V?$allocator@PAV?$Trigger@VRaven_Bot@@@@@std@@@std@@@std@@QAEPAU?$_List_node@PAV?$Trigger@VRaven_Bot@@@@PAX@2@PAU32@0@Z ; std::_List_alloc<std::_List_base_types<Trigger<Raven_Bot> *,std::allocator<Trigger<Raven_Bot> *> > >::_Buynode0
PUBLIC	?_Orphan_all@?$_List_alloc@U?$_List_base_types@PAV?$Trigger@VRaven_Bot@@@@V?$allocator@PAV?$Trigger@VRaven_Bot@@@@@std@@@std@@@std@@QAEXXZ ; std::_List_alloc<std::_List_base_types<Trigger<Raven_Bot> *,std::allocator<Trigger<Raven_Bot> *> > >::_Orphan_all
PUBLIC	?_Getal@?$_List_alloc@U?$_List_base_types@PAV?$Trigger@VRaven_Bot@@@@V?$allocator@PAV?$Trigger@VRaven_Bot@@@@@std@@@std@@@std@@QAEAAV?$allocator@U?$_List_node@PAV?$Trigger@VRaven_Bot@@@@PAX@std@@@2@XZ ; std::_List_alloc<std::_List_base_types<Trigger<Raven_Bot> *,std::allocator<Trigger<Raven_Bot> *> > >::_Getal
PUBLIC	?_Getal@?$_List_alloc@U?$_List_base_types@PAV?$Trigger@VRaven_Bot@@@@V?$allocator@PAV?$Trigger@VRaven_Bot@@@@@std@@@std@@@std@@QBEABV?$allocator@U?$_List_node@PAV?$Trigger@VRaven_Bot@@@@PAX@std@@@2@XZ ; std::_List_alloc<std::_List_base_types<Trigger<Raven_Bot> *,std::allocator<Trigger<Raven_Bot> *> > >::_Getal
PUBLIC	?_Get_data@?$_List_alloc@U?$_List_base_types@PAV?$Trigger@VRaven_Bot@@@@V?$allocator@PAV?$Trigger@VRaven_Bot@@@@@std@@@std@@@std@@QAEAAV?$_List_val@U?$_List_simple_types@PAV?$Trigger@VRaven_Bot@@@@@std@@@2@XZ ; std::_List_alloc<std::_List_base_types<Trigger<Raven_Bot> *,std::allocator<Trigger<Raven_Bot> *> > >::_Get_data
PUBLIC	?_Get_data@?$_List_alloc@U?$_List_base_types@PAV?$Trigger@VRaven_Bot@@@@V?$allocator@PAV?$Trigger@VRaven_Bot@@@@@std@@@std@@@std@@QBEABV?$_List_val@U?$_List_simple_types@PAV?$Trigger@VRaven_Bot@@@@@std@@@2@XZ ; std::_List_alloc<std::_List_base_types<Trigger<Raven_Bot> *,std::allocator<Trigger<Raven_Bot> *> > >::_Get_data
PUBLIC	?_Myhead@?$_List_alloc@U?$_List_base_types@PAV?$Trigger@VRaven_Bot@@@@V?$allocator@PAV?$Trigger@VRaven_Bot@@@@@std@@@std@@@std@@QAEAAPAU?$_List_node@PAV?$Trigger@VRaven_Bot@@@@PAX@2@XZ ; std::_List_alloc<std::_List_base_types<Trigger<Raven_Bot> *,std::allocator<Trigger<Raven_Bot> *> > >::_Myhead
PUBLIC	?_Mysize@?$_List_alloc@U?$_List_base_types@PAV?$Trigger@VRaven_Bot@@@@V?$allocator@PAV?$Trigger@VRaven_Bot@@@@@std@@@std@@@std@@QAEAAIXZ ; std::_List_alloc<std::_List_base_types<Trigger<Raven_Bot> *,std::allocator<Trigger<Raven_Bot> *> > >::_Mysize
PUBLIC	?_Get_first@?$_Compressed_pair@V?$allocator@U?$_List_node@PAV?$Trigger@VRaven_Bot@@@@PAX@std@@@std@@V?$_List_val@U?$_List_simple_types@PAV?$Trigger@VRaven_Bot@@@@@std@@@2@$00@std@@QAEAAV?$allocator@U?$_List_node@PAV?$Trigger@VRaven_Bot@@@@PAX@std@@@2@XZ ; std::_Compressed_pair<std::allocator<std::_List_node<Trigger<Raven_Bot> *,void *> >,std::_List_val<std::_List_simple_types<Trigger<Raven_Bot> *> >,1>::_Get_first
PUBLIC	?_Get_first@?$_Compressed_pair@V?$allocator@U?$_List_node@PAV?$Trigger@VRaven_Bot@@@@PAX@std@@@std@@V?$_List_val@U?$_List_simple_types@PAV?$Trigger@VRaven_Bot@@@@@std@@@2@$00@std@@QBEABV?$allocator@U?$_List_node@PAV?$Trigger@VRaven_Bot@@@@PAX@std@@@2@XZ ; std::_Compressed_pair<std::allocator<std::_List_node<Trigger<Raven_Bot> *,void *> >,std::_List_val<std::_List_simple_types<Trigger<Raven_Bot> *> >,1>::_Get_first
PUBLIC	?_Get_second@?$_Compressed_pair@V?$allocator@U?$_List_node@PAV?$Trigger@VRaven_Bot@@@@PAX@std@@@std@@V?$_List_val@U?$_List_simple_types@PAV?$Trigger@VRaven_Bot@@@@@std@@@2@$00@std@@QAEAAV?$_List_val@U?$_List_simple_types@PAV?$Trigger@VRaven_Bot@@@@@std@@@2@XZ ; std::_Compressed_pair<std::allocator<std::_List_node<Trigger<Raven_Bot> *,void *> >,std::_List_val<std::_List_simple_types<Trigger<Raven_Bot> *> >,1>::_Get_second
PUBLIC	?_Get_second@?$_Compressed_pair@V?$allocator@U?$_List_node@PAV?$Trigger@VRaven_Bot@@@@PAX@std@@@std@@V?$_List_val@U?$_List_simple_types@PAV?$Trigger@VRaven_Bot@@@@@std@@@2@$00@std@@QBEABV?$_List_val@U?$_List_simple_types@PAV?$Trigger@VRaven_Bot@@@@@std@@@2@XZ ; std::_Compressed_pair<std::allocator<std::_List_node<Trigger<Raven_Bot> *,void *> >,std::_List_val<std::_List_simple_types<Trigger<Raven_Bot> *> >,1>::_Get_second
PUBLIC	?_Freenode@?$_List_buy@PAV?$Trigger@VRaven_Bot@@@@V?$allocator@PAV?$Trigger@VRaven_Bot@@@@@std@@@std@@QAEXPAU?$_List_node@PAV?$Trigger@VRaven_Bot@@@@PAX@2@@Z ; std::_List_buy<Trigger<Raven_Bot> *,std::allocator<Trigger<Raven_Bot> *> >::_Freenode
PUBLIC	??1?$_List_buy@PAV?$Trigger@VRaven_Bot@@@@V?$allocator@PAV?$Trigger@VRaven_Bot@@@@@std@@@std@@QAE@XZ ; std::_List_buy<Trigger<Raven_Bot> *,std::allocator<Trigger<Raven_Bot> *> >::~_List_buy<Trigger<Raven_Bot> *,std::allocator<Trigger<Raven_Bot> *> >
PUBLIC	??1?$list@PAV?$Trigger@VRaven_Bot@@@@V?$allocator@PAV?$Trigger@VRaven_Bot@@@@@std@@@std@@QAE@XZ ; std::list<Trigger<Raven_Bot> *,std::allocator<Trigger<Raven_Bot> *> >::~list<Trigger<Raven_Bot> *,std::allocator<Trigger<Raven_Bot> *> >
PUBLIC	?_Unchecked_end@?$list@PAV?$Trigger@VRaven_Bot@@@@V?$allocator@PAV?$Trigger@VRaven_Bot@@@@@std@@@std@@QAE?AV?$_List_unchecked_iterator@V?$_List_val@U?$_List_simple_types@PAV?$Trigger@VRaven_Bot@@@@@std@@@std@@@2@XZ ; std::list<Trigger<Raven_Bot> *,std::allocator<Trigger<Raven_Bot> *> >::_Unchecked_end
PUBLIC	?max_size@?$list@PAV?$Trigger@VRaven_Bot@@@@V?$allocator@PAV?$Trigger@VRaven_Bot@@@@@std@@@std@@QBEIXZ ; std::list<Trigger<Raven_Bot> *,std::allocator<Trigger<Raven_Bot> *> >::max_size
PUBLIC	?push_back@?$list@PAV?$Trigger@VRaven_Bot@@@@V?$allocator@PAV?$Trigger@VRaven_Bot@@@@@std@@@std@@QAEXABQAV?$Trigger@VRaven_Bot@@@@@Z ; std::list<Trigger<Raven_Bot> *,std::allocator<Trigger<Raven_Bot> *> >::push_back
PUBLIC	?clear@?$list@PAV?$Trigger@VRaven_Bot@@@@V?$allocator@PAV?$Trigger@VRaven_Bot@@@@@std@@@std@@QAEXXZ ; std::list<Trigger<Raven_Bot> *,std::allocator<Trigger<Raven_Bot> *> >::clear
PUBLIC	?_Tidy@?$list@PAV?$Trigger@VRaven_Bot@@@@V?$allocator@PAV?$Trigger@VRaven_Bot@@@@@std@@@std@@QAEXXZ ; std::list<Trigger<Raven_Bot> *,std::allocator<Trigger<Raven_Bot> *> >::_Tidy
PUBLIC	?_Incsize@?$list@PAV?$Trigger@VRaven_Bot@@@@V?$allocator@PAV?$Trigger@VRaven_Bot@@@@@std@@@std@@QAEXI@Z ; std::list<Trigger<Raven_Bot> *,std::allocator<Trigger<Raven_Bot> *> >::_Incsize
PUBLIC	?_Orphan_ptr@?$list@PAV?$Trigger@VRaven_Bot@@@@V?$allocator@PAV?$Trigger@VRaven_Bot@@@@@std@@@std@@QAEXPAU?$_List_node@PAV?$Trigger@VRaven_Bot@@@@PAX@2@@Z ; std::list<Trigger<Raven_Bot> *,std::allocator<Trigger<Raven_Bot> *> >::_Orphan_ptr
PUBLIC	?deallocate@?$_Default_allocator_traits@V?$allocator@U?$_List_node@PAVRaven_Bot@@PAX@std@@@std@@@std@@SAXAAV?$allocator@U?$_List_node@PAVRaven_Bot@@PAX@std@@@2@QAU?$_List_node@PAVRaven_Bot@@PAX@2@I@Z ; std::_Default_allocator_traits<std::allocator<std::_List_node<Raven_Bot *,void *> > >::deallocate
PUBLIC	??1?$_List_alloc@U?$_List_base_types@PAVRaven_Bot@@V?$allocator@PAVRaven_Bot@@@std@@@std@@@std@@QAE@XZ ; std::_List_alloc<std::_List_base_types<Raven_Bot *,std::allocator<Raven_Bot *> > >::~_List_alloc<std::_List_base_types<Raven_Bot *,std::allocator<Raven_Bot *> > >
PUBLIC	?_Free_proxy@?$_List_alloc@U?$_List_base_types@PAVRaven_Bot@@V?$allocator@PAVRaven_Bot@@@std@@@std@@@std@@QAEXXZ ; std::_List_alloc<std::_List_base_types<Raven_Bot *,std::allocator<Raven_Bot *> > >::_Free_proxy
PUBLIC	?_Getpfirst@?$_List_alloc@U?$_List_base_types@PAVRaven_Bot@@V?$allocator@PAVRaven_Bot@@@std@@@std@@@std@@QBEPAPAU_Iterator_base12@2@XZ ; std::_List_alloc<std::_List_base_types<Raven_Bot *,std::allocator<Raven_Bot *> > >::_Getpfirst
PUBLIC	?_Myproxy@?$_List_alloc@U?$_List_base_types@PAVRaven_Bot@@V?$allocator@PAVRaven_Bot@@@std@@@std@@@std@@QAEAAPAU_Container_proxy@2@XZ ; std::_List_alloc<std::_List_base_types<Raven_Bot *,std::allocator<Raven_Bot *> > >::_Myproxy
PUBLIC	?_Freeheadnode@?$_List_alloc@U?$_List_base_types@PAVRaven_Bot@@V?$allocator@PAVRaven_Bot@@@std@@@std@@@std@@QAEXPAU?$_List_node@PAVRaven_Bot@@PAX@2@@Z ; std::_List_alloc<std::_List_base_types<Raven_Bot *,std::allocator<Raven_Bot *> > >::_Freeheadnode
PUBLIC	?_Orphan_all@?$_List_alloc@U?$_List_base_types@PAVRaven_Bot@@V?$allocator@PAVRaven_Bot@@@std@@@std@@@std@@QAEXXZ ; std::_List_alloc<std::_List_base_types<Raven_Bot *,std::allocator<Raven_Bot *> > >::_Orphan_all
PUBLIC	?_Getal@?$_List_alloc@U?$_List_base_types@PAVRaven_Bot@@V?$allocator@PAVRaven_Bot@@@std@@@std@@@std@@QAEAAV?$allocator@U?$_List_node@PAVRaven_Bot@@PAX@std@@@2@XZ ; std::_List_alloc<std::_List_base_types<Raven_Bot *,std::allocator<Raven_Bot *> > >::_Getal
PUBLIC	?_Get_data@?$_List_alloc@U?$_List_base_types@PAVRaven_Bot@@V?$allocator@PAVRaven_Bot@@@std@@@std@@@std@@QAEAAV?$_List_val@U?$_List_simple_types@PAVRaven_Bot@@@std@@@2@XZ ; std::_List_alloc<std::_List_base_types<Raven_Bot *,std::allocator<Raven_Bot *> > >::_Get_data
PUBLIC	?_Get_data@?$_List_alloc@U?$_List_base_types@PAVRaven_Bot@@V?$allocator@PAVRaven_Bot@@@std@@@std@@@std@@QBEABV?$_List_val@U?$_List_simple_types@PAVRaven_Bot@@@std@@@2@XZ ; std::_List_alloc<std::_List_base_types<Raven_Bot *,std::allocator<Raven_Bot *> > >::_Get_data
PUBLIC	?_Myhead@?$_List_alloc@U?$_List_base_types@PAVRaven_Bot@@V?$allocator@PAVRaven_Bot@@@std@@@std@@@std@@QAEAAPAU?$_List_node@PAVRaven_Bot@@PAX@2@XZ ; std::_List_alloc<std::_List_base_types<Raven_Bot *,std::allocator<Raven_Bot *> > >::_Myhead
PUBLIC	?_Mysize@?$_List_alloc@U?$_List_base_types@PAVRaven_Bot@@V?$allocator@PAVRaven_Bot@@@std@@@std@@@std@@QAEAAIXZ ; std::_List_alloc<std::_List_base_types<Raven_Bot *,std::allocator<Raven_Bot *> > >::_Mysize
PUBLIC	?_Get_first@?$_Compressed_pair@V?$allocator@U?$_List_node@PAVRaven_Bot@@PAX@std@@@std@@V?$_List_val@U?$_List_simple_types@PAVRaven_Bot@@@std@@@2@$00@std@@QAEAAV?$allocator@U?$_List_node@PAVRaven_Bot@@PAX@std@@@2@XZ ; std::_Compressed_pair<std::allocator<std::_List_node<Raven_Bot *,void *> >,std::_List_val<std::_List_simple_types<Raven_Bot *> >,1>::_Get_first
PUBLIC	?_Get_second@?$_Compressed_pair@V?$allocator@U?$_List_node@PAVRaven_Bot@@PAX@std@@@std@@V?$_List_val@U?$_List_simple_types@PAVRaven_Bot@@@std@@@2@$00@std@@QAEAAV?$_List_val@U?$_List_simple_types@PAVRaven_Bot@@@std@@@2@XZ ; std::_Compressed_pair<std::allocator<std::_List_node<Raven_Bot *,void *> >,std::_List_val<std::_List_simple_types<Raven_Bot *> >,1>::_Get_second
PUBLIC	?_Get_second@?$_Compressed_pair@V?$allocator@U?$_List_node@PAVRaven_Bot@@PAX@std@@@std@@V?$_List_val@U?$_List_simple_types@PAVRaven_Bot@@@std@@@2@$00@std@@QBEABV?$_List_val@U?$_List_simple_types@PAVRaven_Bot@@@std@@@2@XZ ; std::_Compressed_pair<std::allocator<std::_List_node<Raven_Bot *,void *> >,std::_List_val<std::_List_simple_types<Raven_Bot *> >,1>::_Get_second
PUBLIC	?_Freenode@?$_List_buy@PAVRaven_Bot@@V?$allocator@PAVRaven_Bot@@@std@@@std@@QAEXPAU?$_List_node@PAVRaven_Bot@@PAX@2@@Z ; std::_List_buy<Raven_Bot *,std::allocator<Raven_Bot *> >::_Freenode
PUBLIC	??1?$_List_buy@PAVRaven_Bot@@V?$allocator@PAVRaven_Bot@@@std@@@std@@QAE@XZ ; std::_List_buy<Raven_Bot *,std::allocator<Raven_Bot *> >::~_List_buy<Raven_Bot *,std::allocator<Raven_Bot *> >
PUBLIC	??1?$list@PAVRaven_Bot@@V?$allocator@PAVRaven_Bot@@@std@@@std@@QAE@XZ ; std::list<Raven_Bot *,std::allocator<Raven_Bot *> >::~list<Raven_Bot *,std::allocator<Raven_Bot *> >
PUBLIC	?clear@?$list@PAVRaven_Bot@@V?$allocator@PAVRaven_Bot@@@std@@@std@@QAEXXZ ; std::list<Raven_Bot *,std::allocator<Raven_Bot *> >::clear
PUBLIC	?_Tidy@?$list@PAVRaven_Bot@@V?$allocator@PAVRaven_Bot@@@std@@@std@@QAEXXZ ; std::list<Raven_Bot *,std::allocator<Raven_Bot *> >::_Tidy
PUBLIC	?_Orphan_ptr@?$list@PAVRaven_Bot@@V?$allocator@PAVRaven_Bot@@@std@@@std@@QAEXPAU?$_List_node@PAVRaven_Bot@@PAX@2@@Z ; std::list<Raven_Bot *,std::allocator<Raven_Bot *> >::_Orphan_ptr
PUBLIC	??1Team@@UAE@XZ					; Team::~Team
PUBLIC	?AddDroppedWeapon@Team@@QAEXHUVector2D@@V?$SparseGraph@V?$NavGraphNode@PAV?$Trigger@VRaven_Bot@@@@@@VNavGraphEdge@@@@PAVRaven_Bot@@@Z ; Team::AddDroppedWeapon
PUBLIC	?BotInTeam@Team@@QBE_NPBVRaven_Bot@@@Z		; Team::BotInTeam
PUBLIC	?CheckDeadBot@Team@@UAEXPBVRaven_Bot@@@Z	; Team::CheckDeadBot
PUBLIC	?NewWorldBot@Team@@UAEXPBVRaven_Bot@@@Z		; Team::NewWorldBot
PUBLIC	??_GTeam@@UAEPAXI@Z				; Team::`scalar deleting destructor'
PUBLIC	?GraphNodeIndex@?$Trigger@VRaven_Bot@@@@QBEHXZ	; Trigger<Raven_Bot>::GraphNodeIndex
PUBLIC	?SetExtraInfo@?$NavGraphNode@PAV?$Trigger@VRaven_Bot@@@@@@QAEXPAV?$Trigger@VRaven_Bot@@@@@Z ; NavGraphNode<Trigger<Raven_Bot> *>::SetExtraInfo
PUBLIC	??0?$_List_unchecked_const_iterator@V?$_List_val@U?$_List_simple_types@PAV?$Trigger@VRaven_Bot@@@@@std@@@std@@U_Iterator_base0@2@@std@@QAE@PAU?$_List_node@PAV?$Trigger@VRaven_Bot@@@@PAX@1@PBV?$_List_val@U?$_List_simple_types@PAV?$Trigger@VRaven_Bot@@@@@std@@@1@@Z ; std::_List_unchecked_const_iterator<std::_List_val<std::_List_simple_types<Trigger<Raven_Bot> *> >,std::_Iterator_base0>::_List_unchecked_const_iterator<std::_List_val<std::_List_simple_types<Trigger<Raven_Bot> *> >,std::_Iterator_base0>
PUBLIC	??0?$_List_unchecked_iterator@V?$_List_val@U?$_List_simple_types@PAV?$Trigger@VRaven_Bot@@@@@std@@@std@@@std@@QAE@PAU?$_List_node@PAV?$Trigger@VRaven_Bot@@@@PAX@1@PBV?$_List_val@U?$_List_simple_types@PAV?$Trigger@VRaven_Bot@@@@@std@@@1@@Z ; std::_List_unchecked_iterator<std::_List_val<std::_List_simple_types<Trigger<Raven_Bot> *> > >::_List_unchecked_iterator<std::_List_val<std::_List_simple_types<Trigger<Raven_Bot> *> > >
PUBLIC	??$_Insert@ABQAV?$Trigger@VRaven_Bot@@@@@?$list@PAV?$Trigger@VRaven_Bot@@@@V?$allocator@PAV?$Trigger@VRaven_Bot@@@@@std@@@std@@QAEXV?$_List_unchecked_const_iterator@V?$_List_val@U?$_List_simple_types@PAV?$Trigger@VRaven_Bot@@@@@std@@@std@@U_Iterator_base0@2@@1@ABQAV?$Trigger@VRaven_Bot@@@@@Z ; std::list<Trigger<Raven_Bot> *,std::allocator<Trigger<Raven_Bot> *> >::_Insert<Trigger<Raven_Bot> * const &>
PUBLIC	??$addressof@PAVRaven_Bot@@@std@@YAPAPAVRaven_Bot@@AAPAV1@@Z ; std::addressof<Raven_Bot *>
PUBLIC	??$destroy@PAVRaven_Bot@@@?$_Default_allocator_traits@V?$allocator@U?$_List_node@PAVRaven_Bot@@PAX@std@@@std@@@std@@SAXAAV?$allocator@U?$_List_node@PAVRaven_Bot@@PAX@std@@@1@QAPAVRaven_Bot@@@Z ; std::_Default_allocator_traits<std::allocator<std::_List_node<Raven_Bot *,void *> > >::destroy<Raven_Bot *>
PUBLIC	??$_Freenode0@V?$allocator@U?$_List_node@PAVRaven_Bot@@PAX@std@@@std@@@?$_List_node@PAVRaven_Bot@@PAX@std@@SAXAAV?$allocator@U?$_List_node@PAVRaven_Bot@@PAX@std@@@1@PAU01@@Z ; std::_List_node<Raven_Bot *,void *>::_Freenode0<std::allocator<std::_List_node<Raven_Bot *,void *> > >
PUBLIC	??$_Allocate@$07U_Default_allocate_traits@std@@$0A@@std@@YAPAXI@Z ; std::_Allocate<8,std::_Default_allocate_traits,0>
PUBLIC	??$_Deallocate@$07$0A@@std@@YAXPAXI@Z		; std::_Deallocate<8,0>
PUBLIC	??$?0U?$_List_node@PAVRaven_Bot@@PAX@std@@@?$allocator@U_Container_proxy@std@@@std@@QAE@ABV?$allocator@U?$_List_node@PAVRaven_Bot@@PAX@std@@@1@@Z ; std::allocator<std::_Container_proxy>::allocator<std::_Container_proxy><std::_List_node<Raven_Bot *,void *> >
PUBLIC	?deallocate@?$_Default_allocator_traits@V?$allocator@U_Container_proxy@std@@@std@@@std@@SAXAAV?$allocator@U_Container_proxy@std@@@2@QAU_Container_proxy@2@I@Z ; std::_Default_allocator_traits<std::allocator<std::_Container_proxy> >::deallocate
PUBLIC	??$destroy@U_Container_proxy@std@@@?$_Default_allocator_traits@V?$allocator@U_Container_proxy@std@@@std@@@std@@SAXAAV?$allocator@U_Container_proxy@std@@@1@QAU_Container_proxy@1@@Z ; std::_Default_allocator_traits<std::allocator<std::_Container_proxy> >::destroy<std::_Container_proxy>
PUBLIC	??$_Deallocate_plain@V?$allocator@U_Container_proxy@std@@@std@@$0A@@std@@YAXAAV?$allocator@U_Container_proxy@std@@@0@QAU_Container_proxy@0@@Z ; std::_Deallocate_plain<std::allocator<std::_Container_proxy>,0>
PUBLIC	??$_Freenode0@V?$allocator@U?$_List_node@PAV?$Trigger@VRaven_Bot@@@@PAX@std@@@std@@@?$_List_node@PAV?$Trigger@VRaven_Bot@@@@PAX@std@@SAXAAV?$allocator@U?$_List_node@PAV?$Trigger@VRaven_Bot@@@@PAX@std@@@1@PAU01@@Z ; std::_List_node<Trigger<Raven_Bot> *,void *>::_Freenode0<std::allocator<std::_List_node<Trigger<Raven_Bot> *,void *> > >
PUBLIC	??$?0U?$_List_node@PAV?$Trigger@VRaven_Bot@@@@PAX@std@@@?$allocator@U_Container_proxy@std@@@std@@QAE@ABV?$allocator@U?$_List_node@PAV?$Trigger@VRaven_Bot@@@@PAX@std@@@1@@Z ; std::allocator<std::_Container_proxy>::allocator<std::_Container_proxy><std::_List_node<Trigger<Raven_Bot> *,void *> >
PUBLIC	??$?0V?$list@VNavGraphEdge@@V?$allocator@VNavGraphEdge@@@std@@@std@@@?$allocator@U_Container_proxy@std@@@std@@QAE@ABV?$allocator@V?$list@VNavGraphEdge@@V?$allocator@VNavGraphEdge@@@std@@@std@@@1@@Z ; std::allocator<std::_Container_proxy>::allocator<std::_Container_proxy><std::list<NavGraphEdge,std::allocator<NavGraphEdge> > >
PUBLIC	??$?0V?$NavGraphNode@PAV?$Trigger@VRaven_Bot@@@@@@@?$allocator@U_Container_proxy@std@@@std@@QAE@ABV?$allocator@V?$NavGraphNode@PAV?$Trigger@VRaven_Bot@@@@@@@1@@Z ; std::allocator<std::_Container_proxy>::allocator<std::_Container_proxy><NavGraphNode<Trigger<Raven_Bot> *> >
PUBLIC	?deallocate@?$_Default_allocator_traits@V?$allocator@U?$_List_node@VNavGraphEdge@@PAX@std@@@std@@@std@@SAXAAV?$allocator@U?$_List_node@VNavGraphEdge@@PAX@std@@@2@QAU?$_List_node@VNavGraphEdge@@PAX@2@I@Z ; std::_Default_allocator_traits<std::allocator<std::_List_node<NavGraphEdge,void *> > >::deallocate
PUBLIC	??1?$_List_alloc@U?$_List_base_types@VNavGraphEdge@@V?$allocator@VNavGraphEdge@@@std@@@std@@@std@@QAE@XZ ; std::_List_alloc<std::_List_base_types<NavGraphEdge,std::allocator<NavGraphEdge> > >::~_List_alloc<std::_List_base_types<NavGraphEdge,std::allocator<NavGraphEdge> > >
PUBLIC	?_Free_proxy@?$_List_alloc@U?$_List_base_types@VNavGraphEdge@@V?$allocator@VNavGraphEdge@@@std@@@std@@@std@@QAEXXZ ; std::_List_alloc<std::_List_base_types<NavGraphEdge,std::allocator<NavGraphEdge> > >::_Free_proxy
PUBLIC	?_Getpfirst@?$_List_alloc@U?$_List_base_types@VNavGraphEdge@@V?$allocator@VNavGraphEdge@@@std@@@std@@@std@@QBEPAPAU_Iterator_base12@2@XZ ; std::_List_alloc<std::_List_base_types<NavGraphEdge,std::allocator<NavGraphEdge> > >::_Getpfirst
PUBLIC	?_Myproxy@?$_List_alloc@U?$_List_base_types@VNavGraphEdge@@V?$allocator@VNavGraphEdge@@@std@@@std@@@std@@QAEAAPAU_Container_proxy@2@XZ ; std::_List_alloc<std::_List_base_types<NavGraphEdge,std::allocator<NavGraphEdge> > >::_Myproxy
PUBLIC	?_Freeheadnode@?$_List_alloc@U?$_List_base_types@VNavGraphEdge@@V?$allocator@VNavGraphEdge@@@std@@@std@@@std@@QAEXPAU?$_List_node@VNavGraphEdge@@PAX@2@@Z ; std::_List_alloc<std::_List_base_types<NavGraphEdge,std::allocator<NavGraphEdge> > >::_Freeheadnode
PUBLIC	?_Orphan_all@?$_List_alloc@U?$_List_base_types@VNavGraphEdge@@V?$allocator@VNavGraphEdge@@@std@@@std@@@std@@QAEXXZ ; std::_List_alloc<std::_List_base_types<NavGraphEdge,std::allocator<NavGraphEdge> > >::_Orphan_all
PUBLIC	?_Getal@?$_List_alloc@U?$_List_base_types@VNavGraphEdge@@V?$allocator@VNavGraphEdge@@@std@@@std@@@std@@QAEAAV?$allocator@U?$_List_node@VNavGraphEdge@@PAX@std@@@2@XZ ; std::_List_alloc<std::_List_base_types<NavGraphEdge,std::allocator<NavGraphEdge> > >::_Getal
PUBLIC	?_Get_data@?$_List_alloc@U?$_List_base_types@VNavGraphEdge@@V?$allocator@VNavGraphEdge@@@std@@@std@@@std@@QAEAAV?$_List_val@U?$_List_simple_types@VNavGraphEdge@@@std@@@2@XZ ; std::_List_alloc<std::_List_base_types<NavGraphEdge,std::allocator<NavGraphEdge> > >::_Get_data
PUBLIC	?_Get_data@?$_List_alloc@U?$_List_base_types@VNavGraphEdge@@V?$allocator@VNavGraphEdge@@@std@@@std@@@std@@QBEABV?$_List_val@U?$_List_simple_types@VNavGraphEdge@@@std@@@2@XZ ; std::_List_alloc<std::_List_base_types<NavGraphEdge,std::allocator<NavGraphEdge> > >::_Get_data
PUBLIC	?_Myhead@?$_List_alloc@U?$_List_base_types@VNavGraphEdge@@V?$allocator@VNavGraphEdge@@@std@@@std@@@std@@QAEAAPAU?$_List_node@VNavGraphEdge@@PAX@2@XZ ; std::_List_alloc<std::_List_base_types<NavGraphEdge,std::allocator<NavGraphEdge> > >::_Myhead
PUBLIC	?_Mysize@?$_List_alloc@U?$_List_base_types@VNavGraphEdge@@V?$allocator@VNavGraphEdge@@@std@@@std@@@std@@QAEAAIXZ ; std::_List_alloc<std::_List_base_types<NavGraphEdge,std::allocator<NavGraphEdge> > >::_Mysize
PUBLIC	?_Get_first@?$_Compressed_pair@V?$allocator@U?$_List_node@VNavGraphEdge@@PAX@std@@@std@@V?$_List_val@U?$_List_simple_types@VNavGraphEdge@@@std@@@2@$00@std@@QAEAAV?$allocator@U?$_List_node@VNavGraphEdge@@PAX@std@@@2@XZ ; std::_Compressed_pair<std::allocator<std::_List_node<NavGraphEdge,void *> >,std::_List_val<std::_List_simple_types<NavGraphEdge> >,1>::_Get_first
PUBLIC	?_Get_second@?$_Compressed_pair@V?$allocator@U?$_List_node@VNavGraphEdge@@PAX@std@@@std@@V?$_List_val@U?$_List_simple_types@VNavGraphEdge@@@std@@@2@$00@std@@QAEAAV?$_List_val@U?$_List_simple_types@VNavGraphEdge@@@std@@@2@XZ ; std::_Compressed_pair<std::allocator<std::_List_node<NavGraphEdge,void *> >,std::_List_val<std::_List_simple_types<NavGraphEdge> >,1>::_Get_second
PUBLIC	?_Get_second@?$_Compressed_pair@V?$allocator@U?$_List_node@VNavGraphEdge@@PAX@std@@@std@@V?$_List_val@U?$_List_simple_types@VNavGraphEdge@@@std@@@2@$00@std@@QBEABV?$_List_val@U?$_List_simple_types@VNavGraphEdge@@@std@@@2@XZ ; std::_Compressed_pair<std::allocator<std::_List_node<NavGraphEdge,void *> >,std::_List_val<std::_List_simple_types<NavGraphEdge> >,1>::_Get_second
PUBLIC	?_Freenode@?$_List_buy@VNavGraphEdge@@V?$allocator@VNavGraphEdge@@@std@@@std@@QAEXPAU?$_List_node@VNavGraphEdge@@PAX@2@@Z ; std::_List_buy<NavGraphEdge,std::allocator<NavGraphEdge> >::_Freenode
PUBLIC	??1?$_List_buy@VNavGraphEdge@@V?$allocator@VNavGraphEdge@@@std@@@std@@QAE@XZ ; std::_List_buy<NavGraphEdge,std::allocator<NavGraphEdge> >::~_List_buy<NavGraphEdge,std::allocator<NavGraphEdge> >
PUBLIC	??1?$list@VNavGraphEdge@@V?$allocator@VNavGraphEdge@@@std@@@std@@QAE@XZ ; std::list<NavGraphEdge,std::allocator<NavGraphEdge> >::~list<NavGraphEdge,std::allocator<NavGraphEdge> >
PUBLIC	?clear@?$list@VNavGraphEdge@@V?$allocator@VNavGraphEdge@@@std@@@std@@QAEXXZ ; std::list<NavGraphEdge,std::allocator<NavGraphEdge> >::clear
PUBLIC	?_Tidy@?$list@VNavGraphEdge@@V?$allocator@VNavGraphEdge@@@std@@@std@@QAEXXZ ; std::list<NavGraphEdge,std::allocator<NavGraphEdge> >::_Tidy
PUBLIC	?_Orphan_ptr@?$list@VNavGraphEdge@@V?$allocator@VNavGraphEdge@@@std@@@std@@QAEXPAU?$_List_node@VNavGraphEdge@@PAX@2@@Z ; std::list<NavGraphEdge,std::allocator<NavGraphEdge> >::_Orphan_ptr
PUBLIC	??_G?$list@VNavGraphEdge@@V?$allocator@VNavGraphEdge@@@std@@@std@@QAEPAXI@Z ; std::list<NavGraphEdge,std::allocator<NavGraphEdge> >::`scalar deleting destructor'
PUBLIC	??$_Destroy_range@V?$allocator@V?$list@VNavGraphEdge@@V?$allocator@VNavGraphEdge@@@std@@@std@@@std@@@std@@YAXPAV?$list@VNavGraphEdge@@V?$allocator@VNavGraphEdge@@@std@@@0@0AAV?$allocator@V?$list@VNavGraphEdge@@V?$allocator@VNavGraphEdge@@@std@@@std@@@0@@Z ; std::_Destroy_range<std::allocator<std::list<NavGraphEdge,std::allocator<NavGraphEdge> > > >
PUBLIC	??$_Destroy_range@V?$allocator@V?$NavGraphNode@PAV?$Trigger@VRaven_Bot@@@@@@@std@@@std@@YAXPAV?$NavGraphNode@PAV?$Trigger@VRaven_Bot@@@@@@0AAV?$allocator@V?$NavGraphNode@PAV?$Trigger@VRaven_Bot@@@@@@@0@@Z ; std::_Destroy_range<std::allocator<NavGraphNode<Trigger<Raven_Bot> *> > >
PUBLIC	??$addressof@PAV?$Trigger@VRaven_Bot@@@@@std@@YAPAPAV?$Trigger@VRaven_Bot@@@@AAPAV1@@Z ; std::addressof<Trigger<Raven_Bot> *>
PUBLIC	??$destroy@PAV?$Trigger@VRaven_Bot@@@@@?$_Default_allocator_traits@V?$allocator@U?$_List_node@PAV?$Trigger@VRaven_Bot@@@@PAX@std@@@std@@@std@@SAXAAV?$allocator@U?$_List_node@PAV?$Trigger@VRaven_Bot@@@@PAX@std@@@1@QAPAV?$Trigger@VRaven_Bot@@@@@Z ; std::_Default_allocator_traits<std::allocator<std::_List_node<Trigger<Raven_Bot> *,void *> > >::destroy<Trigger<Raven_Bot> *>
PUBLIC	??$addressof@PAU?$_List_node@PAVRaven_Bot@@PAX@std@@@std@@YAPAPAU?$_List_node@PAVRaven_Bot@@PAX@0@AAPAU10@@Z ; std::addressof<std::_List_node<Raven_Bot *,void *> *>
PUBLIC	??$addressof@PAU?$_List_node@PAV?$Trigger@VRaven_Bot@@@@PAX@std@@@std@@YAPAPAU?$_List_node@PAV?$Trigger@VRaven_Bot@@@@PAX@0@AAPAU10@@Z ; std::addressof<std::_List_node<Trigger<Raven_Bot> *,void *> *>
PUBLIC	??$construct@PAU?$_List_node@PAV?$Trigger@VRaven_Bot@@@@PAX@std@@AAPAU12@@?$_Default_allocator_traits@V?$allocator@U?$_List_node@PAV?$Trigger@VRaven_Bot@@@@PAX@std@@@std@@@std@@SAXAAV?$allocator@U?$_List_node@PAV?$Trigger@VRaven_Bot@@@@PAX@std@@@1@QAPAU?$_List_node@PAV?$Trigger@VRaven_Bot@@@@PAX@1@AAPAU31@@Z ; std::_Default_allocator_traits<std::allocator<std::_List_node<Trigger<Raven_Bot> *,void *> > >::construct<std::_List_node<Trigger<Raven_Bot> *,void *> *,std::_List_node<Trigger<Raven_Bot> *,void *> * &>
PUBLIC	??$_Get_size_of_n@$0M@@std@@YAII@Z		; std::_Get_size_of_n<12>
PUBLIC	??$forward@ABQAV?$Trigger@VRaven_Bot@@@@@std@@YAABQAV?$Trigger@VRaven_Bot@@@@ABQAV1@@Z ; std::forward<Trigger<Raven_Bot> * const &>
PUBLIC	??$_Buynode@ABQAV?$Trigger@VRaven_Bot@@@@@?$_List_buy@PAV?$Trigger@VRaven_Bot@@@@V?$allocator@PAV?$Trigger@VRaven_Bot@@@@@std@@@std@@QAEPAU?$_List_node@PAV?$Trigger@VRaven_Bot@@@@PAX@1@PAU21@0ABQAV?$Trigger@VRaven_Bot@@@@@Z ; std::_List_buy<Trigger<Raven_Bot> *,std::allocator<Trigger<Raven_Bot> *> >::_Buynode<Trigger<Raven_Bot> * const &>
PUBLIC	??$destroy@PAU?$_List_node@PAVRaven_Bot@@PAX@std@@@?$_Default_allocator_traits@V?$allocator@U?$_List_node@PAVRaven_Bot@@PAX@std@@@std@@@std@@SAXAAV?$allocator@U?$_List_node@PAVRaven_Bot@@PAX@std@@@1@QAPAU?$_List_node@PAVRaven_Bot@@PAX@1@@Z ; std::_Default_allocator_traits<std::allocator<std::_List_node<Raven_Bot *,void *> > >::destroy<std::_List_node<Raven_Bot *,void *> *>
PUBLIC	??$_Allocate_manually_vector_aligned@U_Default_allocate_traits@std@@@std@@YAPAXI@Z ; std::_Allocate_manually_vector_aligned<std::_Default_allocate_traits>
PUBLIC	??$destroy@PAU?$_List_node@PAV?$Trigger@VRaven_Bot@@@@PAX@std@@@?$_Default_allocator_traits@V?$allocator@U?$_List_node@PAV?$Trigger@VRaven_Bot@@@@PAX@std@@@std@@@std@@SAXAAV?$allocator@U?$_List_node@PAV?$Trigger@VRaven_Bot@@@@PAX@std@@@1@QAPAU?$_List_node@PAV?$Trigger@VRaven_Bot@@@@PAX@1@@Z ; std::_Default_allocator_traits<std::allocator<std::_List_node<Trigger<Raven_Bot> *,void *> > >::destroy<std::_List_node<Trigger<Raven_Bot> *,void *> *>
PUBLIC	??$_Destroy_range1@V?$allocator@V?$list@VNavGraphEdge@@V?$allocator@VNavGraphEdge@@@std@@@std@@@std@@@std@@YAXPAV?$list@VNavGraphEdge@@V?$allocator@VNavGraphEdge@@@std@@@0@0AAV?$allocator@V?$list@VNavGraphEdge@@V?$allocator@VNavGraphEdge@@@std@@@std@@@0@U?$integral_constant@_N$0A@@0@@Z ; std::_Destroy_range1<std::allocator<std::list<NavGraphEdge,std::allocator<NavGraphEdge> > > >
PUBLIC	??$_Destroy_range1@V?$allocator@V?$NavGraphNode@PAV?$Trigger@VRaven_Bot@@@@@@@std@@@std@@YAXPAV?$NavGraphNode@PAV?$Trigger@VRaven_Bot@@@@@@0AAV?$allocator@V?$NavGraphNode@PAV?$Trigger@VRaven_Bot@@@@@@@0@U?$integral_constant@_N$0A@@0@@Z ; std::_Destroy_range1<std::allocator<NavGraphNode<Trigger<Raven_Bot> *> > >
PUBLIC	??$forward@AAPAU?$_List_node@PAV?$Trigger@VRaven_Bot@@@@PAX@std@@@std@@YAAAPAU?$_List_node@PAV?$Trigger@VRaven_Bot@@@@PAX@0@AAPAU10@@Z ; std::forward<std::_List_node<Trigger<Raven_Bot> *,void *> * &>
PUBLIC	??$construct@PAV?$Trigger@VRaven_Bot@@@@ABQAV1@@?$_Default_allocator_traits@V?$allocator@U?$_List_node@PAV?$Trigger@VRaven_Bot@@@@PAX@std@@@std@@@std@@SAXAAV?$allocator@U?$_List_node@PAV?$Trigger@VRaven_Bot@@@@PAX@std@@@1@QAPAV?$Trigger@VRaven_Bot@@@@ABQAV3@@Z ; std::_Default_allocator_traits<std::allocator<std::_List_node<Trigger<Raven_Bot> *,void *> > >::construct<Trigger<Raven_Bot> *,Trigger<Raven_Bot> * const &>
PUBLIC	??$_Unfancy@V?$list@VNavGraphEdge@@V?$allocator@VNavGraphEdge@@@std@@@std@@@std@@YAPAV?$list@VNavGraphEdge@@V?$allocator@VNavGraphEdge@@@std@@@0@PAV10@@Z ; std::_Unfancy<std::list<NavGraphEdge,std::allocator<NavGraphEdge> > >
PUBLIC	??$destroy@V?$list@VNavGraphEdge@@V?$allocator@VNavGraphEdge@@@std@@@std@@@?$_Default_allocator_traits@V?$allocator@V?$list@VNavGraphEdge@@V?$allocator@VNavGraphEdge@@@std@@@std@@@std@@@std@@SAXAAV?$allocator@V?$list@VNavGraphEdge@@V?$allocator@VNavGraphEdge@@@std@@@std@@@1@QAV?$list@VNavGraphEdge@@V?$allocator@VNavGraphEdge@@@std@@@1@@Z ; std::_Default_allocator_traits<std::allocator<std::list<NavGraphEdge,std::allocator<NavGraphEdge> > > >::destroy<std::list<NavGraphEdge,std::allocator<NavGraphEdge> > >
PUBLIC	??$_Unfancy@V?$NavGraphNode@PAV?$Trigger@VRaven_Bot@@@@@@@std@@YAPAV?$NavGraphNode@PAV?$Trigger@VRaven_Bot@@@@@@PAV1@@Z ; std::_Unfancy<NavGraphNode<Trigger<Raven_Bot> *> >
PUBLIC	??$destroy@V?$NavGraphNode@PAV?$Trigger@VRaven_Bot@@@@@@@?$_Default_allocator_traits@V?$allocator@V?$NavGraphNode@PAV?$Trigger@VRaven_Bot@@@@@@@std@@@std@@SAXAAV?$allocator@V?$NavGraphNode@PAV?$Trigger@VRaven_Bot@@@@@@@1@QAV?$NavGraphNode@PAV?$Trigger@VRaven_Bot@@@@@@@Z ; std::_Default_allocator_traits<std::allocator<NavGraphNode<Trigger<Raven_Bot> *> > >::destroy<NavGraphNode<Trigger<Raven_Bot> *> >
PUBLIC	??$_Freenode0@V?$allocator@U?$_List_node@VNavGraphEdge@@PAX@std@@@std@@@?$_List_node@VNavGraphEdge@@PAX@std@@SAXAAV?$allocator@U?$_List_node@VNavGraphEdge@@PAX@std@@@1@PAU01@@Z ; std::_List_node<NavGraphEdge,void *>::_Freenode0<std::allocator<std::_List_node<NavGraphEdge,void *> > >
PUBLIC	??$?0U?$_List_node@VNavGraphEdge@@PAX@std@@@?$allocator@U_Container_proxy@std@@@std@@QAE@ABV?$allocator@U?$_List_node@VNavGraphEdge@@PAX@std@@@1@@Z ; std::allocator<std::_Container_proxy>::allocator<std::_Container_proxy><std::_List_node<NavGraphEdge,void *> >
PUBLIC	??$addressof@VNavGraphEdge@@@std@@YAPAVNavGraphEdge@@AAV1@@Z ; std::addressof<NavGraphEdge>
PUBLIC	??$destroy@VNavGraphEdge@@@?$_Default_allocator_traits@V?$allocator@U?$_List_node@VNavGraphEdge@@PAX@std@@@std@@@std@@SAXAAV?$allocator@U?$_List_node@VNavGraphEdge@@PAX@std@@@1@QAVNavGraphEdge@@@Z ; std::_Default_allocator_traits<std::allocator<std::_List_node<NavGraphEdge,void *> > >::destroy<NavGraphEdge>
PUBLIC	??$addressof@PAU?$_List_node@VNavGraphEdge@@PAX@std@@@std@@YAPAPAU?$_List_node@VNavGraphEdge@@PAX@0@AAPAU10@@Z ; std::addressof<std::_List_node<NavGraphEdge,void *> *>
PUBLIC	??$destroy@PAU?$_List_node@VNavGraphEdge@@PAX@std@@@?$_Default_allocator_traits@V?$allocator@U?$_List_node@VNavGraphEdge@@PAX@std@@@std@@@std@@SAXAAV?$allocator@U?$_List_node@VNavGraphEdge@@PAX@std@@@1@QAPAU?$_List_node@VNavGraphEdge@@PAX@1@@Z ; std::_Default_allocator_traits<std::allocator<std::_List_node<NavGraphEdge,void *> > >::destroy<std::_List_node<NavGraphEdge,void *> *>
PUBLIC	??_C@_0BB@FCMFBGOM@invalid?5argument@		; `string'
PUBLIC	??_C@_02DKCKIIND@?$CFs@				; `string'
PUBLIC	??_C@_1CG@JNLFBNGN@?$AA?$CC?$AAi?$AAn?$AAv?$AAa?$AAl?$AAi?$AAd?$AA?5?$AAa?$AAr?$AAg?$AAu?$AAm?$AAe@ ; `string'
PUBLIC	??_C@_0GJ@CAJJPMGE@c?3?2program?5files?5?$CIx86?$CJ?2microsof@ ; `string'
PUBLIC	??_C@_1NC@ICJKIMIP@?$AAc?$AA?3?$AA?2?$AAp?$AAr?$AAo?$AAg?$AAr?$AAa?$AAm?$AA?5?$AAf?$AAi?$AAl?$AAe@ ; `string'
PUBLIC	??_C@_1EK@NIFDJFDG@?$AAs?$AAt?$AAd?$AA?3?$AA?3?$AA_?$AAA?$AAd?$AAj?$AAu?$AAs?$AAt?$AA_?$AAm?$AAa@ ; `string'
PUBLIC	??_7Team@@6B@					; Team::`vftable'
PUBLIC	??_C@_0BO@PFKOHNJC@vector?5subscript?5out?5of?5range@ ; `string'
PUBLIC	??_C@_0GH@PHBFPDPI@c?3?2program?5files?5?$CIx86?$CJ?2microsof@ ; `string'
PUBLIC	??_C@_1MO@GGNBFPEH@?$AAc?$AA?3?$AA?2?$AAp?$AAr?$AAo?$AAg?$AAr?$AAa?$AAm?$AA?5?$AAf?$AAi?$AAl?$AAe@ ; `string'
PUBLIC	??_C@_1EA@LEKOKFNB@?$AA?$CC?$AAv?$AAe?$AAc?$AAt?$AAo?$AAr?$AA?5?$AAs?$AAu?$AAb?$AAs?$AAc?$AAr?$AAi@ ; `string'
PUBLIC	?id@?$codecvt@DDU_Mbstatet@@@std@@2V0locale@2@A	; std::codecvt<char,char,_Mbstatet>::id
PUBLIC	?id@?$num_put@DV?$ostreambuf_iterator@DU?$char_traits@D@std@@@std@@@std@@2V0locale@2@A ; std::num_put<char,std::ostreambuf_iterator<char,std::char_traits<char> > >::id
PUBLIC	?id@?$numpunct@D@std@@2V0locale@2@A		; std::numpunct<char>::id
PUBLIC	?id@?$num_get@DV?$istreambuf_iterator@DU?$char_traits@D@std@@@std@@@std@@2V0locale@2@A ; std::num_get<char,std::istreambuf_iterator<char,std::char_traits<char> > >::id
PUBLIC	??_C@_0BB@MOGOBHAF@list?$DMT?$DO?5too?5long@	; `string'
PUBLIC	??_C@_1BDI@JCBOAGAM@?$AAs?$AAt?$AAd?$AA?3?$AA?3?$AAv?$AAe?$AAc?$AAt?$AAo?$AAr?$AA?$DM?$AAc?$AAl?$AAa@ ; `string'
PUBLIC	??_C@_1EO@GFNCMDLA@?$AAs?$AAt?$AAd?$AA?3?$AA?3?$AA_?$AAA?$AAl?$AAl?$AAo?$AAc?$AAa?$AAt?$AAe?$AA_@ ; `string'
PUBLIC	??_R4Team@@6B@					; Team::`RTTI Complete Object Locator'
PUBLIC	??_R0?AVTeam@@@8				; Team `RTTI Type Descriptor'
PUBLIC	??_R3Team@@8					; Team::`RTTI Class Hierarchy Descriptor'
PUBLIC	??_R2Team@@8					; Team::`RTTI Base Class Array'
PUBLIC	??_R1A@?0A@EA@Team@@8				; Team::`RTTI Base Class Descriptor at (0,-1,0,64)'
PUBLIC	__real@0010000000000000
PUBLIC	__real@00800000
PUBLIC	__real@7f7fffff
PUBLIC	__real@7fefffffffffffff
EXTRN	__purecall:PROC
EXTRN	??2@YAPAXI@Z:PROC				; operator new
EXTRN	??3@YAXPAXI@Z:PROC				; operator delete
EXTRN	__invalid_parameter:PROC
EXTRN	__CrtDbgReport:PROC
EXTRN	??0_Lockit@std@@QAE@H@Z:PROC			; std::_Lockit::_Lockit
EXTRN	??1_Lockit@std@@QAE@XZ:PROC			; std::_Lockit::~_Lockit
EXTRN	?_Xlength_error@std@@YAXPBD@Z:PROC		; std::_Xlength_error
EXTRN	__wassert:PROC
EXTRN	?Instance@EntityManager@@SAPAV1@XZ:PROC		; EntityManager::Instance
EXTRN	?RegisterEntity@EntityManager@@QAEXPAVBaseGameEntity@@@Z:PROC ; EntityManager::RegisterEntity
EXTRN	??_ETeam@@UAEPAXI@Z:PROC			; Team::`vector deleting destructor'
EXTRN	??0Trigger_TeamWeaponGiver@@QAE@UVector2D@@PAVRaven_Bot@@@Z:PROC ; Trigger_TeamWeaponGiver::Trigger_TeamWeaponGiver
EXTRN	@_RTC_CheckStackVars@8:PROC
EXTRN	@__security_check_cookie@4:PROC
EXTRN	__CxxThrowException@8:PROC
EXTRN	__RTC_CheckEsp:PROC
EXTRN	__RTC_InitBase:PROC
EXTRN	__RTC_Shutdown:PROC
EXTRN	___CxxFrameHandler3:PROC
EXTRN	??_7type_info@@6B@:QWORD			; type_info::`vftable'
EXTRN	___security_cookie:DWORD
EXTRN	__fltused:DWORD
_BSS	SEGMENT
?MaxInt@@3HB DD	01H DUP (?)				; MaxInt
	ALIGN	8

?MaxDouble@@3NB DQ 01H DUP (?)				; MaxDouble
?MinDouble@@3NB DQ 01H DUP (?)				; MinDouble
?MaxFloat@@3MB DD 01H DUP (?)				; MaxFloat
?MinFloat@@3MB DD 01H DUP (?)				; MinFloat
_BSS	ENDS
;	COMDAT ?id@?$codecvt@DDU_Mbstatet@@@std@@2V0locale@2@A
_BSS	SEGMENT
?id@?$codecvt@DDU_Mbstatet@@@std@@2V0locale@2@A DD 01H DUP (?) ; std::codecvt<char,char,_Mbstatet>::id
_BSS	ENDS
;	COMDAT ?id@?$num_put@DV?$ostreambuf_iterator@DU?$char_traits@D@std@@@std@@@std@@2V0locale@2@A
_BSS	SEGMENT
?id@?$num_put@DV?$ostreambuf_iterator@DU?$char_traits@D@std@@@std@@@std@@2V0locale@2@A DD 01H DUP (?) ; std::num_put<char,std::ostreambuf_iterator<char,std::char_traits<char> > >::id
_BSS	ENDS
;	COMDAT ?id@?$numpunct@D@std@@2V0locale@2@A
_BSS	SEGMENT
?id@?$numpunct@D@std@@2V0locale@2@A DD 01H DUP (?)	; std::numpunct<char>::id
_BSS	ENDS
;	COMDAT ?id@?$num_get@DV?$istreambuf_iterator@DU?$char_traits@D@std@@@std@@@std@@2V0locale@2@A
_BSS	SEGMENT
?id@?$num_get@DV?$istreambuf_iterator@DU?$char_traits@D@std@@@std@@@std@@2V0locale@2@A DD 01H DUP (?) ; std::num_get<char,std::istreambuf_iterator<char,std::char_traits<char> > >::id
_BSS	ENDS
CRT$XCU	SEGMENT
?MaxInt$initializer$@@3P6AXXZA DD FLAT:??__EMaxInt@@YAXXZ ; MaxInt$initializer$
CRT$XCU	ENDS
;	COMDAT __real@7fefffffffffffff
CONST	SEGMENT
__real@7fefffffffffffff DQ 07fefffffffffffffr	; 1.79769e+308
CONST	ENDS
;	COMDAT __real@7f7fffff
CONST	SEGMENT
__real@7f7fffff DD 07f7fffffr			; 3.40282e+38
CONST	ENDS
;	COMDAT __real@00800000
CONST	SEGMENT
__real@00800000 DD 000800000r			; 1.17549e-38
CONST	ENDS
;	COMDAT __real@0010000000000000
CONST	SEGMENT
__real@0010000000000000 DQ 00010000000000000r	; 2.22507e-308
CONST	ENDS
;	COMDAT rtc$TMZ
rtc$TMZ	SEGMENT
__RTC_Shutdown.rtc$TMZ DD FLAT:__RTC_Shutdown
rtc$TMZ	ENDS
;	COMDAT rtc$IMZ
rtc$IMZ	SEGMENT
__RTC_InitBase.rtc$IMZ DD FLAT:__RTC_InitBase
rtc$IMZ	ENDS
;	COMDAT ??_R1A@?0A@EA@Team@@8
rdata$r	SEGMENT
??_R1A@?0A@EA@Team@@8 DD FLAT:??_R0?AVTeam@@@8		; Team::`RTTI Base Class Descriptor at (0,-1,0,64)'
	DD	00H
	DD	00H
	DD	0ffffffffH
	DD	00H
	DD	040H
	DD	FLAT:??_R3Team@@8
rdata$r	ENDS
;	COMDAT ??_R2Team@@8
rdata$r	SEGMENT
??_R2Team@@8 DD	FLAT:??_R1A@?0A@EA@Team@@8		; Team::`RTTI Base Class Array'
rdata$r	ENDS
;	COMDAT ??_R3Team@@8
rdata$r	SEGMENT
??_R3Team@@8 DD	00H					; Team::`RTTI Class Hierarchy Descriptor'
	DD	00H
	DD	01H
	DD	FLAT:??_R2Team@@8
rdata$r	ENDS
;	COMDAT ??_R0?AVTeam@@@8
data$r	SEGMENT
??_R0?AVTeam@@@8 DD FLAT:??_7type_info@@6B@		; Team `RTTI Type Descriptor'
	DD	00H
	DB	'.?AVTeam@@', 00H
data$r	ENDS
;	COMDAT ??_R4Team@@6B@
rdata$r	SEGMENT
??_R4Team@@6B@ DD 00H					; Team::`RTTI Complete Object Locator'
	DD	00H
	DD	00H
	DD	FLAT:??_R0?AVTeam@@@8
	DD	FLAT:??_R3Team@@8
rdata$r	ENDS
;	COMDAT ??_C@_1EO@GFNCMDLA@?$AAs?$AAt?$AAd?$AA?3?$AA?3?$AA_?$AAA?$AAl?$AAl?$AAo?$AAc?$AAa?$AAt?$AAe?$AA_@
CONST	SEGMENT
??_C@_1EO@GFNCMDLA@?$AAs?$AAt?$AAd?$AA?3?$AA?3?$AA_?$AAA?$AAl?$AAl?$AAo?$AAc?$AAa?$AAt?$AAe?$AA_@ DB 's'
	DB	00H, 't', 00H, 'd', 00H, ':', 00H, ':', 00H, '_', 00H, 'A', 00H
	DB	'l', 00H, 'l', 00H, 'o', 00H, 'c', 00H, 'a', 00H, 't', 00H, 'e'
	DB	00H, '_', 00H, 'm', 00H, 'a', 00H, 'n', 00H, 'u', 00H, 'a', 00H
	DB	'l', 00H, 'l', 00H, 'y', 00H, '_', 00H, 'v', 00H, 'e', 00H, 'c'
	DB	00H, 't', 00H, 'o', 00H, 'r', 00H, '_', 00H, 'a', 00H, 'l', 00H
	DB	'i', 00H, 'g', 00H, 'n', 00H, 'e', 00H, 'd', 00H, 00H, 00H ; `string'
CONST	ENDS
;	COMDAT ??_C@_1BDI@JCBOAGAM@?$AAs?$AAt?$AAd?$AA?3?$AA?3?$AAv?$AAe?$AAc?$AAt?$AAo?$AAr?$AA?$DM?$AAc?$AAl?$AAa@
CONST	SEGMENT
??_C@_1BDI@JCBOAGAM@?$AAs?$AAt?$AAd?$AA?3?$AA?3?$AAv?$AAe?$AAc?$AAt?$AAo?$AAr?$AA?$DM?$AAc?$AAl?$AAa@ DB 's'
	DB	00H, 't', 00H, 'd', 00H, ':', 00H, ':', 00H, 'v', 00H, 'e', 00H
	DB	'c', 00H, 't', 00H, 'o', 00H, 'r', 00H, '<', 00H, 'c', 00H, 'l'
	DB	00H, 'a', 00H, 's', 00H, 's', 00H, ' ', 00H, 'N', 00H, 'a', 00H
	DB	'v', 00H, 'G', 00H, 'r', 00H, 'a', 00H, 'p', 00H, 'h', 00H, 'N'
	DB	00H, 'o', 00H, 'd', 00H, 'e', 00H, '<', 00H, 'c', 00H, 'l', 00H
	DB	'a', 00H, 's', 00H, 's', 00H, ' ', 00H, 'T', 00H, 'r', 00H, 'i'
	DB	00H, 'g', 00H, 'g', 00H, 'e', 00H, 'r', 00H, '<', 00H, 'c', 00H
	DB	'l', 00H, 'a', 00H, 's', 00H, 's', 00H, ' ', 00H, 'R', 00H, 'a'
	DB	00H, 'v', 00H, 'e', 00H, 'n', 00H, '_', 00H, 'B', 00H, 'o', 00H
	DB	't', 00H, '>', 00H, ' ', 00H, '*', 00H, '>', 00H, ',', 00H, 'c'
	DB	00H, 'l', 00H, 'a', 00H, 's', 00H, 's', 00H, ' ', 00H, 's', 00H
	DB	't', 00H, 'd', 00H, ':', 00H, ':', 00H, 'a', 00H, 'l', 00H, 'l'
	DB	00H, 'o', 00H, 'c', 00H, 'a', 00H, 't', 00H, 'o', 00H, 'r', 00H
	DB	'<', 00H, 'c', 00H, 'l', 00H, 'a', 00H, 's', 00H, 's', 00H, ' '
	DB	00H, 'N', 00H, 'a', 00H, 'v', 00H, 'G', 00H, 'r', 00H, 'a', 00H
	DB	'p', 00H, 'h', 00H, 'N', 00H, 'o', 00H, 'd', 00H, 'e', 00H, '<'
	DB	00H, 'c', 00H, 'l', 00H, 'a', 00H, 's', 00H, 's', 00H, ' ', 00H
	DB	'T', 00H, 'r', 00H, 'i', 00H, 'g', 00H, 'g', 00H, 'e', 00H, 'r'
	DB	00H, '<', 00H, 'c', 00H, 'l', 00H, 'a', 00H, 's', 00H, 's', 00H
	DB	' ', 00H, 'R', 00H, 'a', 00H, 'v', 00H, 'e', 00H, 'n', 00H, '_'
	DB	00H, 'B', 00H, 'o', 00H, 't', 00H, '>', 00H, ' ', 00H, '*', 00H
	DB	'>', 00H, ' ', 00H, '>', 00H, ' ', 00H, '>', 00H, ':', 00H, ':'
	DB	00H, 'o', 00H, 'p', 00H, 'e', 00H, 'r', 00H, 'a', 00H, 't', 00H
	DB	'o', 00H, 'r', 00H, ' ', 00H, '[', 00H, ']', 00H, 00H, 00H ; `string'
CONST	ENDS
;	COMDAT ??_C@_0BB@MOGOBHAF@list?$DMT?$DO?5too?5long@
CONST	SEGMENT
??_C@_0BB@MOGOBHAF@list?$DMT?$DO?5too?5long@ DB 'list<T> too long', 00H ; `string'
CONST	ENDS
;	COMDAT ??_C@_1EA@LEKOKFNB@?$AA?$CC?$AAv?$AAe?$AAc?$AAt?$AAo?$AAr?$AA?5?$AAs?$AAu?$AAb?$AAs?$AAc?$AAr?$AAi@
CONST	SEGMENT
??_C@_1EA@LEKOKFNB@?$AA?$CC?$AAv?$AAe?$AAc?$AAt?$AAo?$AAr?$AA?5?$AAs?$AAu?$AAb?$AAs?$AAc?$AAr?$AAi@ DB '"'
	DB	00H, 'v', 00H, 'e', 00H, 'c', 00H, 't', 00H, 'o', 00H, 'r', 00H
	DB	' ', 00H, 's', 00H, 'u', 00H, 'b', 00H, 's', 00H, 'c', 00H, 'r'
	DB	00H, 'i', 00H, 'p', 00H, 't', 00H, ' ', 00H, 'o', 00H, 'u', 00H
	DB	't', 00H, ' ', 00H, 'o', 00H, 'f', 00H, ' ', 00H, 'r', 00H, 'a'
	DB	00H, 'n', 00H, 'g', 00H, 'e', 00H, '"', 00H, 00H, 00H ; `string'
CONST	ENDS
;	COMDAT ??_C@_1MO@GGNBFPEH@?$AAc?$AA?3?$AA?2?$AAp?$AAr?$AAo?$AAg?$AAr?$AAa?$AAm?$AA?5?$AAf?$AAi?$AAl?$AAe@
CONST	SEGMENT
??_C@_1MO@GGNBFPEH@?$AAc?$AA?3?$AA?2?$AAp?$AAr?$AAo?$AAg?$AAr?$AAa?$AAm?$AA?5?$AAf?$AAi?$AAl?$AAe@ DB 'c'
	DB	00H, ':', 00H, '\', 00H, 'p', 00H, 'r', 00H, 'o', 00H, 'g', 00H
	DB	'r', 00H, 'a', 00H, 'm', 00H, ' ', 00H, 'f', 00H, 'i', 00H, 'l'
	DB	00H, 'e', 00H, 's', 00H, ' ', 00H, '(', 00H, 'x', 00H, '8', 00H
	DB	'6', 00H, ')', 00H, '\', 00H, 'm', 00H, 'i', 00H, 'c', 00H, 'r'
	DB	00H, 'o', 00H, 's', 00H, 'o', 00H, 'f', 00H, 't', 00H, ' ', 00H
	DB	'v', 00H, 'i', 00H, 's', 00H, 'u', 00H, 'a', 00H, 'l', 00H, ' '
	DB	00H, 's', 00H, 't', 00H, 'u', 00H, 'd', 00H, 'i', 00H, 'o', 00H
	DB	'\', 00H, '2', 00H, '0', 00H, '1', 00H, '7', 00H, '\', 00H, 'c'
	DB	00H, 'o', 00H, 'm', 00H, 'm', 00H, 'u', 00H, 'n', 00H, 'i', 00H
	DB	't', 00H, 'y', 00H, '\', 00H, 'v', 00H, 'c', 00H, '\', 00H, 't'
	DB	00H, 'o', 00H, 'o', 00H, 'l', 00H, 's', 00H, '\', 00H, 'm', 00H
	DB	's', 00H, 'v', 00H, 'c', 00H, '\', 00H, '1', 00H, '4', 00H, '.'
	DB	00H, '1', 00H, '5', 00H, '.', 00H, '2', 00H, '6', 00H, '7', 00H
	DB	'2', 00H, '6', 00H, '\', 00H, 'i', 00H, 'n', 00H, 'c', 00H, 'l'
	DB	00H, 'u', 00H, 'd', 00H, 'e', 00H, '\', 00H, 'v', 00H, 'e', 00H
	DB	'c', 00H, 't', 00H, 'o', 00H, 'r', 00H, 00H, 00H ; `string'
CONST	ENDS
;	COMDAT ??_C@_0GH@PHBFPDPI@c?3?2program?5files?5?$CIx86?$CJ?2microsof@
CONST	SEGMENT
??_C@_0GH@PHBFPDPI@c?3?2program?5files?5?$CIx86?$CJ?2microsof@ DB 'c:\pro'
	DB	'gram files (x86)\microsoft visual studio\2017\community\vc\to'
	DB	'ols\msvc\14.15.26726\include\vector', 00H	; `string'
CONST	ENDS
;	COMDAT ??_C@_0BO@PFKOHNJC@vector?5subscript?5out?5of?5range@
CONST	SEGMENT
??_C@_0BO@PFKOHNJC@vector?5subscript?5out?5of?5range@ DB 'vector subscrip'
	DB	't out of range', 00H			; `string'
CONST	ENDS
;	COMDAT ??_7Team@@6B@
CONST	SEGMENT
??_7Team@@6B@ DD FLAT:??_R4Team@@6B@			; Team::`vftable'
	DD	FLAT:??_ETeam@@UAEPAXI@Z
	DD	FLAT:__purecall
	DD	FLAT:__purecall
	DD	FLAT:?CheckDeadBot@Team@@UAEXPBVRaven_Bot@@@Z
	DD	FLAT:?NewWorldBot@Team@@UAEXPBVRaven_Bot@@@Z
CONST	ENDS
;	COMDAT ??_C@_1EK@NIFDJFDG@?$AAs?$AAt?$AAd?$AA?3?$AA?3?$AA_?$AAA?$AAd?$AAj?$AAu?$AAs?$AAt?$AA_?$AAm?$AAa@
CONST	SEGMENT
??_C@_1EK@NIFDJFDG@?$AAs?$AAt?$AAd?$AA?3?$AA?3?$AA_?$AAA?$AAd?$AAj?$AAu?$AAs?$AAt?$AA_?$AAm?$AAa@ DB 's'
	DB	00H, 't', 00H, 'd', 00H, ':', 00H, ':', 00H, '_', 00H, 'A', 00H
	DB	'd', 00H, 'j', 00H, 'u', 00H, 's', 00H, 't', 00H, '_', 00H, 'm'
	DB	00H, 'a', 00H, 'n', 00H, 'u', 00H, 'a', 00H, 'l', 00H, 'l', 00H
	DB	'y', 00H, '_', 00H, 'v', 00H, 'e', 00H, 'c', 00H, 't', 00H, 'o'
	DB	00H, 'r', 00H, '_', 00H, 'a', 00H, 'l', 00H, 'i', 00H, 'g', 00H
	DB	'n', 00H, 'e', 00H, 'd', 00H, 00H, 00H	; `string'
CONST	ENDS
;	COMDAT ??_C@_1NC@ICJKIMIP@?$AAc?$AA?3?$AA?2?$AAp?$AAr?$AAo?$AAg?$AAr?$AAa?$AAm?$AA?5?$AAf?$AAi?$AAl?$AAe@
CONST	SEGMENT
??_C@_1NC@ICJKIMIP@?$AAc?$AA?3?$AA?2?$AAp?$AAr?$AAo?$AAg?$AAr?$AAa?$AAm?$AA?5?$AAf?$AAi?$AAl?$AAe@ DB 'c'
	DB	00H, ':', 00H, '\', 00H, 'p', 00H, 'r', 00H, 'o', 00H, 'g', 00H
	DB	'r', 00H, 'a', 00H, 'm', 00H, ' ', 00H, 'f', 00H, 'i', 00H, 'l'
	DB	00H, 'e', 00H, 's', 00H, ' ', 00H, '(', 00H, 'x', 00H, '8', 00H
	DB	'6', 00H, ')', 00H, '\', 00H, 'm', 00H, 'i', 00H, 'c', 00H, 'r'
	DB	00H, 'o', 00H, 's', 00H, 'o', 00H, 'f', 00H, 't', 00H, ' ', 00H
	DB	'v', 00H, 'i', 00H, 's', 00H, 'u', 00H, 'a', 00H, 'l', 00H, ' '
	DB	00H, 's', 00H, 't', 00H, 'u', 00H, 'd', 00H, 'i', 00H, 'o', 00H
	DB	'\', 00H, '2', 00H, '0', 00H, '1', 00H, '7', 00H, '\', 00H, 'c'
	DB	00H, 'o', 00H, 'm', 00H, 'm', 00H, 'u', 00H, 'n', 00H, 'i', 00H
	DB	't', 00H, 'y', 00H, '\', 00H, 'v', 00H, 'c', 00H, '\', 00H, 't'
	DB	00H, 'o', 00H, 'o', 00H, 'l', 00H, 's', 00H, '\', 00H, 'm', 00H
	DB	's', 00H, 'v', 00H, 'c', 00H, '\', 00H, '1', 00H, '4', 00H, '.'
	DB	00H, '1', 00H, '5', 00H, '.', 00H, '2', 00H, '6', 00H, '7', 00H
	DB	'2', 00H, '6', 00H, '\', 00H, 'i', 00H, 'n', 00H, 'c', 00H, 'l'
	DB	00H, 'u', 00H, 'd', 00H, 'e', 00H, '\', 00H, 'x', 00H, 'm', 00H
	DB	'e', 00H, 'm', 00H, 'o', 00H, 'r', 00H, 'y', 00H, '0', 00H, 00H
	DB	00H						; `string'
CONST	ENDS
;	COMDAT ??_C@_0GJ@CAJJPMGE@c?3?2program?5files?5?$CIx86?$CJ?2microsof@
CONST	SEGMENT
??_C@_0GJ@CAJJPMGE@c?3?2program?5files?5?$CIx86?$CJ?2microsof@ DB 'c:\pro'
	DB	'gram files (x86)\microsoft visual studio\2017\community\vc\to'
	DB	'ols\msvc\14.15.26726\include\xmemory0', 00H	; `string'
CONST	ENDS
;	COMDAT ??_C@_1CG@JNLFBNGN@?$AA?$CC?$AAi?$AAn?$AAv?$AAa?$AAl?$AAi?$AAd?$AA?5?$AAa?$AAr?$AAg?$AAu?$AAm?$AAe@
CONST	SEGMENT
??_C@_1CG@JNLFBNGN@?$AA?$CC?$AAi?$AAn?$AAv?$AAa?$AAl?$AAi?$AAd?$AA?5?$AAa?$AAr?$AAg?$AAu?$AAm?$AAe@ DB '"'
	DB	00H, 'i', 00H, 'n', 00H, 'v', 00H, 'a', 00H, 'l', 00H, 'i', 00H
	DB	'd', 00H, ' ', 00H, 'a', 00H, 'r', 00H, 'g', 00H, 'u', 00H, 'm'
	DB	00H, 'e', 00H, 'n', 00H, 't', 00H, '"', 00H, 00H, 00H ; `string'
CONST	ENDS
;	COMDAT ??_C@_02DKCKIIND@?$CFs@
CONST	SEGMENT
??_C@_02DKCKIIND@?$CFs@ DB '%s', 00H			; `string'
CONST	ENDS
;	COMDAT ??_C@_0BB@FCMFBGOM@invalid?5argument@
CONST	SEGMENT
??_C@_0BB@FCMFBGOM@invalid?5argument@ DB 'invalid argument', 00H ; `string'
CONST	ENDS
;	COMDAT xdata$x
xdata$x	SEGMENT
__ehfuncinfo$??$_Freenode0@V?$allocator@U?$_List_node@VNavGraphEdge@@PAX@std@@@std@@@?$_List_node@VNavGraphEdge@@PAX@std@@SAXAAV?$allocator@U?$_List_node@VNavGraphEdge@@PAX@std@@@1@PAU01@@Z DD 019930522H
	DD	00H
	DD	00H
	DD	2 DUP(00H)
	DD	2 DUP(00H)
	DD	00H
	DD	05H
xdata$x	ENDS
;	COMDAT xdata$x
xdata$x	SEGMENT
__catchsym$??$_Buynode@ABQAV?$Trigger@VRaven_Bot@@@@@?$_List_buy@PAV?$Trigger@VRaven_Bot@@@@V?$allocator@PAV?$Trigger@VRaven_Bot@@@@@std@@@std@@QAEPAU?$_List_node@PAV?$Trigger@VRaven_Bot@@@@PAX@1@PAU21@0ABQAV?$Trigger@VRaven_Bot@@@@@Z$2 DD 040H
	DD	00H
	DD	00H
	DD	FLAT:__catch$??$_Buynode@ABQAV?$Trigger@VRaven_Bot@@@@@?$_List_buy@PAV?$Trigger@VRaven_Bot@@@@V?$allocator@PAV?$Trigger@VRaven_Bot@@@@@std@@@std@@QAEPAU?$_List_node@PAV?$Trigger@VRaven_Bot@@@@PAX@1@PAU21@0ABQAV?$Trigger@VRaven_Bot@@@@@Z$0
__unwindtable$??$_Buynode@ABQAV?$Trigger@VRaven_Bot@@@@@?$_List_buy@PAV?$Trigger@VRaven_Bot@@@@V?$allocator@PAV?$Trigger@VRaven_Bot@@@@@std@@@std@@QAEPAU?$_List_node@PAV?$Trigger@VRaven_Bot@@@@PAX@1@PAU21@0ABQAV?$Trigger@VRaven_Bot@@@@@Z DD 0ffffffffH
	DD	00H
	DD	0ffffffffH
	DD	00H
__tryblocktable$??$_Buynode@ABQAV?$Trigger@VRaven_Bot@@@@@?$_List_buy@PAV?$Trigger@VRaven_Bot@@@@V?$allocator@PAV?$Trigger@VRaven_Bot@@@@@std@@@std@@QAEPAU?$_List_node@PAV?$Trigger@VRaven_Bot@@@@PAX@1@PAU21@0ABQAV?$Trigger@VRaven_Bot@@@@@Z DD 00H
	DD	00H
	DD	01H
	DD	01H
	DD	FLAT:__catchsym$??$_Buynode@ABQAV?$Trigger@VRaven_Bot@@@@@?$_List_buy@PAV?$Trigger@VRaven_Bot@@@@V?$allocator@PAV?$Trigger@VRaven_Bot@@@@@std@@@std@@QAEPAU?$_List_node@PAV?$Trigger@VRaven_Bot@@@@PAX@1@PAU21@0ABQAV?$Trigger@VRaven_Bot@@@@@Z$2
__ehfuncinfo$??$_Buynode@ABQAV?$Trigger@VRaven_Bot@@@@@?$_List_buy@PAV?$Trigger@VRaven_Bot@@@@V?$allocator@PAV?$Trigger@VRaven_Bot@@@@@std@@@std@@QAEPAU?$_List_node@PAV?$Trigger@VRaven_Bot@@@@PAX@1@PAU21@0ABQAV?$Trigger@VRaven_Bot@@@@@Z DD 019930522H
	DD	02H
	DD	FLAT:__unwindtable$??$_Buynode@ABQAV?$Trigger@VRaven_Bot@@@@@?$_List_buy@PAV?$Trigger@VRaven_Bot@@@@V?$allocator@PAV?$Trigger@VRaven_Bot@@@@@std@@@std@@QAEPAU?$_List_node@PAV?$Trigger@VRaven_Bot@@@@PAX@1@PAU21@0ABQAV?$Trigger@VRaven_Bot@@@@@Z
	DD	01H
	DD	FLAT:__tryblocktable$??$_Buynode@ABQAV?$Trigger@VRaven_Bot@@@@@?$_List_buy@PAV?$Trigger@VRaven_Bot@@@@V?$allocator@PAV?$Trigger@VRaven_Bot@@@@@std@@@std@@QAEPAU?$_List_node@PAV?$Trigger@VRaven_Bot@@@@PAX@1@PAU21@0ABQAV?$Trigger@VRaven_Bot@@@@@Z
	DD	2 DUP(00H)
	DD	00H
	DD	01H
xdata$x	ENDS
;	COMDAT xdata$x
xdata$x	SEGMENT
__unwindtable$?_Orphan_ptr@?$list@VNavGraphEdge@@V?$allocator@VNavGraphEdge@@@std@@@std@@QAEXPAU?$_List_node@VNavGraphEdge@@PAX@2@@Z DD 0ffffffffH
	DD	FLAT:__unwindfunclet$?_Orphan_ptr@?$list@VNavGraphEdge@@V?$allocator@VNavGraphEdge@@@std@@@std@@QAEXPAU?$_List_node@VNavGraphEdge@@PAX@2@@Z$0
__ehfuncinfo$?_Orphan_ptr@?$list@VNavGraphEdge@@V?$allocator@VNavGraphEdge@@@std@@@std@@QAEXPAU?$_List_node@VNavGraphEdge@@PAX@2@@Z DD 019930522H
	DD	01H
	DD	FLAT:__unwindtable$?_Orphan_ptr@?$list@VNavGraphEdge@@V?$allocator@VNavGraphEdge@@@std@@@std@@QAEXPAU?$_List_node@VNavGraphEdge@@PAX@2@@Z
	DD	2 DUP(00H)
	DD	2 DUP(00H)
	DD	00H
	DD	01H
xdata$x	ENDS
;	COMDAT xdata$x
xdata$x	SEGMENT
__ehfuncinfo$?clear@?$list@VNavGraphEdge@@V?$allocator@VNavGraphEdge@@@std@@@std@@QAEXXZ DD 019930522H
	DD	00H
	DD	00H
	DD	2 DUP(00H)
	DD	2 DUP(00H)
	DD	00H
	DD	05H
xdata$x	ENDS
;	COMDAT xdata$x
xdata$x	SEGMENT
__ehfuncinfo$??1?$list@VNavGraphEdge@@V?$allocator@VNavGraphEdge@@@std@@@std@@QAE@XZ DD 019930522H
	DD	00H
	DD	00H
	DD	2 DUP(00H)
	DD	2 DUP(00H)
	DD	00H
	DD	05H
xdata$x	ENDS
;	COMDAT xdata$x
xdata$x	SEGMENT
__ehfuncinfo$??1?$_List_alloc@U?$_List_base_types@VNavGraphEdge@@V?$allocator@VNavGraphEdge@@@std@@@std@@@std@@QAE@XZ DD 019930522H
	DD	00H
	DD	00H
	DD	2 DUP(00H)
	DD	2 DUP(00H)
	DD	00H
	DD	05H
xdata$x	ENDS
;	COMDAT xdata$x
xdata$x	SEGMENT
__ehfuncinfo$??$_Freenode0@V?$allocator@U?$_List_node@PAV?$Trigger@VRaven_Bot@@@@PAX@std@@@std@@@?$_List_node@PAV?$Trigger@VRaven_Bot@@@@PAX@std@@SAXAAV?$allocator@U?$_List_node@PAV?$Trigger@VRaven_Bot@@@@PAX@std@@@1@PAU01@@Z DD 019930522H
	DD	00H
	DD	00H
	DD	2 DUP(00H)
	DD	2 DUP(00H)
	DD	00H
	DD	05H
xdata$x	ENDS
;	COMDAT xdata$x
xdata$x	SEGMENT
__ehfuncinfo$??$_Freenode0@V?$allocator@U?$_List_node@PAVRaven_Bot@@PAX@std@@@std@@@?$_List_node@PAVRaven_Bot@@PAX@std@@SAXAAV?$allocator@U?$_List_node@PAVRaven_Bot@@PAX@std@@@1@PAU01@@Z DD 019930522H
	DD	00H
	DD	00H
	DD	2 DUP(00H)
	DD	2 DUP(00H)
	DD	00H
	DD	05H
xdata$x	ENDS
xdata$x	SEGMENT
__unwindtable$?AddDroppedWeapon@Team@@QAEXHUVector2D@@V?$SparseGraph@V?$NavGraphNode@PAV?$Trigger@VRaven_Bot@@@@@@VNavGraphEdge@@@@PAVRaven_Bot@@@Z DD 0ffffffffH
	DD	FLAT:__unwindfunclet$?AddDroppedWeapon@Team@@QAEXHUVector2D@@V?$SparseGraph@V?$NavGraphNode@PAV?$Trigger@VRaven_Bot@@@@@@VNavGraphEdge@@@@PAVRaven_Bot@@@Z$0
	DD	00H
	DD	FLAT:__unwindfunclet$?AddDroppedWeapon@Team@@QAEXHUVector2D@@V?$SparseGraph@V?$NavGraphNode@PAV?$Trigger@VRaven_Bot@@@@@@VNavGraphEdge@@@@PAVRaven_Bot@@@Z$1
__ehfuncinfo$?AddDroppedWeapon@Team@@QAEXHUVector2D@@V?$SparseGraph@V?$NavGraphNode@PAV?$Trigger@VRaven_Bot@@@@@@VNavGraphEdge@@@@PAVRaven_Bot@@@Z DD 019930522H
	DD	02H
	DD	FLAT:__unwindtable$?AddDroppedWeapon@Team@@QAEXHUVector2D@@V?$SparseGraph@V?$NavGraphNode@PAV?$Trigger@VRaven_Bot@@@@@@VNavGraphEdge@@@@PAVRaven_Bot@@@Z
	DD	2 DUP(00H)
	DD	2 DUP(00H)
	DD	00H
	DD	01H
xdata$x	ENDS
;	COMDAT xdata$x
xdata$x	SEGMENT
__unwindtable$?_Orphan_ptr@?$list@PAVRaven_Bot@@V?$allocator@PAVRaven_Bot@@@std@@@std@@QAEXPAU?$_List_node@PAVRaven_Bot@@PAX@2@@Z DD 0ffffffffH
	DD	FLAT:__unwindfunclet$?_Orphan_ptr@?$list@PAVRaven_Bot@@V?$allocator@PAVRaven_Bot@@@std@@@std@@QAEXPAU?$_List_node@PAVRaven_Bot@@PAX@2@@Z$0
__ehfuncinfo$?_Orphan_ptr@?$list@PAVRaven_Bot@@V?$allocator@PAVRaven_Bot@@@std@@@std@@QAEXPAU?$_List_node@PAVRaven_Bot@@PAX@2@@Z DD 019930522H
	DD	01H
	DD	FLAT:__unwindtable$?_Orphan_ptr@?$list@PAVRaven_Bot@@V?$allocator@PAVRaven_Bot@@@std@@@std@@QAEXPAU?$_List_node@PAVRaven_Bot@@PAX@2@@Z
	DD	2 DUP(00H)
	DD	2 DUP(00H)
	DD	00H
	DD	01H
xdata$x	ENDS
;	COMDAT xdata$x
xdata$x	SEGMENT
__ehfuncinfo$?clear@?$list@PAVRaven_Bot@@V?$allocator@PAVRaven_Bot@@@std@@@std@@QAEXXZ DD 019930522H
	DD	00H
	DD	00H
	DD	2 DUP(00H)
	DD	2 DUP(00H)
	DD	00H
	DD	05H
xdata$x	ENDS
;	COMDAT xdata$x
xdata$x	SEGMENT
__ehfuncinfo$??1?$list@PAVRaven_Bot@@V?$allocator@PAVRaven_Bot@@@std@@@std@@QAE@XZ DD 019930522H
	DD	00H
	DD	00H
	DD	2 DUP(00H)
	DD	2 DUP(00H)
	DD	00H
	DD	05H
xdata$x	ENDS
;	COMDAT xdata$x
xdata$x	SEGMENT
__ehfuncinfo$??1?$_List_alloc@U?$_List_base_types@PAVRaven_Bot@@V?$allocator@PAVRaven_Bot@@@std@@@std@@@std@@QAE@XZ DD 019930522H
	DD	00H
	DD	00H
	DD	2 DUP(00H)
	DD	2 DUP(00H)
	DD	00H
	DD	05H
xdata$x	ENDS
;	COMDAT xdata$x
xdata$x	SEGMENT
__unwindtable$?_Orphan_ptr@?$list@PAV?$Trigger@VRaven_Bot@@@@V?$allocator@PAV?$Trigger@VRaven_Bot@@@@@std@@@std@@QAEXPAU?$_List_node@PAV?$Trigger@VRaven_Bot@@@@PAX@2@@Z DD 0ffffffffH
	DD	FLAT:__unwindfunclet$?_Orphan_ptr@?$list@PAV?$Trigger@VRaven_Bot@@@@V?$allocator@PAV?$Trigger@VRaven_Bot@@@@@std@@@std@@QAEXPAU?$_List_node@PAV?$Trigger@VRaven_Bot@@@@PAX@2@@Z$0
__ehfuncinfo$?_Orphan_ptr@?$list@PAV?$Trigger@VRaven_Bot@@@@V?$allocator@PAV?$Trigger@VRaven_Bot@@@@@std@@@std@@QAEXPAU?$_List_node@PAV?$Trigger@VRaven_Bot@@@@PAX@2@@Z DD 019930522H
	DD	01H
	DD	FLAT:__unwindtable$?_Orphan_ptr@?$list@PAV?$Trigger@VRaven_Bot@@@@V?$allocator@PAV?$Trigger@VRaven_Bot@@@@@std@@@std@@QAEXPAU?$_List_node@PAV?$Trigger@VRaven_Bot@@@@PAX@2@@Z
	DD	2 DUP(00H)
	DD	2 DUP(00H)
	DD	00H
	DD	01H
xdata$x	ENDS
;	COMDAT xdata$x
xdata$x	SEGMENT
__ehfuncinfo$?clear@?$list@PAV?$Trigger@VRaven_Bot@@@@V?$allocator@PAV?$Trigger@VRaven_Bot@@@@@std@@@std@@QAEXXZ DD 019930522H
	DD	00H
	DD	00H
	DD	2 DUP(00H)
	DD	2 DUP(00H)
	DD	00H
	DD	05H
xdata$x	ENDS
;	COMDAT xdata$x
xdata$x	SEGMENT
__ehfuncinfo$??1?$list@PAV?$Trigger@VRaven_Bot@@@@V?$allocator@PAV?$Trigger@VRaven_Bot@@@@@std@@@std@@QAE@XZ DD 019930522H
	DD	00H
	DD	00H
	DD	2 DUP(00H)
	DD	2 DUP(00H)
	DD	00H
	DD	05H
xdata$x	ENDS
;	COMDAT xdata$x
xdata$x	SEGMENT
__catchsym$?_Buynode0@?$_List_alloc@U?$_List_base_types@PAV?$Trigger@VRaven_Bot@@@@V?$allocator@PAV?$Trigger@VRaven_Bot@@@@@std@@@std@@@std@@QAEPAU?$_List_node@PAV?$Trigger@VRaven_Bot@@@@PAX@2@PAU32@0@Z$2 DD 040H
	DD	00H
	DD	00H
	DD	FLAT:__catch$?_Buynode0@?$_List_alloc@U?$_List_base_types@PAV?$Trigger@VRaven_Bot@@@@V?$allocator@PAV?$Trigger@VRaven_Bot@@@@@std@@@std@@@std@@QAEPAU?$_List_node@PAV?$Trigger@VRaven_Bot@@@@PAX@2@PAU32@0@Z$0
__unwindtable$?_Buynode0@?$_List_alloc@U?$_List_base_types@PAV?$Trigger@VRaven_Bot@@@@V?$allocator@PAV?$Trigger@VRaven_Bot@@@@@std@@@std@@@std@@QAEPAU?$_List_node@PAV?$Trigger@VRaven_Bot@@@@PAX@2@PAU32@0@Z DD 0ffffffffH
	DD	00H
	DD	0ffffffffH
	DD	00H
__tryblocktable$?_Buynode0@?$_List_alloc@U?$_List_base_types@PAV?$Trigger@VRaven_Bot@@@@V?$allocator@PAV?$Trigger@VRaven_Bot@@@@@std@@@std@@@std@@QAEPAU?$_List_node@PAV?$Trigger@VRaven_Bot@@@@PAX@2@PAU32@0@Z DD 00H
	DD	00H
	DD	01H
	DD	01H
	DD	FLAT:__catchsym$?_Buynode0@?$_List_alloc@U?$_List_base_types@PAV?$Trigger@VRaven_Bot@@@@V?$allocator@PAV?$Trigger@VRaven_Bot@@@@@std@@@std@@@std@@QAEPAU?$_List_node@PAV?$Trigger@VRaven_Bot@@@@PAX@2@PAU32@0@Z$2
__ehfuncinfo$?_Buynode0@?$_List_alloc@U?$_List_base_types@PAV?$Trigger@VRaven_Bot@@@@V?$allocator@PAV?$Trigger@VRaven_Bot@@@@@std@@@std@@@std@@QAEPAU?$_List_node@PAV?$Trigger@VRaven_Bot@@@@PAX@2@PAU32@0@Z DD 019930522H
	DD	02H
	DD	FLAT:__unwindtable$?_Buynode0@?$_List_alloc@U?$_List_base_types@PAV?$Trigger@VRaven_Bot@@@@V?$allocator@PAV?$Trigger@VRaven_Bot@@@@@std@@@std@@@std@@QAEPAU?$_List_node@PAV?$Trigger@VRaven_Bot@@@@PAX@2@PAU32@0@Z
	DD	01H
	DD	FLAT:__tryblocktable$?_Buynode0@?$_List_alloc@U?$_List_base_types@PAV?$Trigger@VRaven_Bot@@@@V?$allocator@PAV?$Trigger@VRaven_Bot@@@@@std@@@std@@@std@@QAEPAU?$_List_node@PAV?$Trigger@VRaven_Bot@@@@PAX@2@PAU32@0@Z
	DD	2 DUP(00H)
	DD	00H
	DD	01H
xdata$x	ENDS
;	COMDAT xdata$x
xdata$x	SEGMENT
__ehfuncinfo$??1?$_List_alloc@U?$_List_base_types@PAV?$Trigger@VRaven_Bot@@@@V?$allocator@PAV?$Trigger@VRaven_Bot@@@@@std@@@std@@@std@@QAE@XZ DD 019930522H
	DD	00H
	DD	00H
	DD	2 DUP(00H)
	DD	2 DUP(00H)
	DD	00H
	DD	05H
xdata$x	ENDS
;	COMDAT xdata$x
xdata$x	SEGMENT
__ehfuncinfo$??1?$vector@V?$list@VNavGraphEdge@@V?$allocator@VNavGraphEdge@@@std@@@std@@V?$allocator@V?$list@VNavGraphEdge@@V?$allocator@VNavGraphEdge@@@std@@@std@@@2@@std@@QAE@XZ DD 019930522H
	DD	00H
	DD	00H
	DD	2 DUP(00H)
	DD	2 DUP(00H)
	DD	00H
	DD	05H
xdata$x	ENDS
;	COMDAT xdata$x
xdata$x	SEGMENT
__ehfuncinfo$??1?$_Vector_alloc@U?$_Vec_base_types@V?$list@VNavGraphEdge@@V?$allocator@VNavGraphEdge@@@std@@@std@@V?$allocator@V?$list@VNavGraphEdge@@V?$allocator@VNavGraphEdge@@@std@@@std@@@2@@std@@@std@@QAE@XZ DD 019930522H
	DD	00H
	DD	00H
	DD	2 DUP(00H)
	DD	2 DUP(00H)
	DD	00H
	DD	05H
xdata$x	ENDS
;	COMDAT xdata$x
xdata$x	SEGMENT
__ehfuncinfo$??1?$vector@V?$NavGraphNode@PAV?$Trigger@VRaven_Bot@@@@@@V?$allocator@V?$NavGraphNode@PAV?$Trigger@VRaven_Bot@@@@@@@std@@@std@@QAE@XZ DD 019930522H
	DD	00H
	DD	00H
	DD	2 DUP(00H)
	DD	2 DUP(00H)
	DD	00H
	DD	05H
xdata$x	ENDS
;	COMDAT xdata$x
xdata$x	SEGMENT
__ehfuncinfo$??1?$_Vector_alloc@U?$_Vec_base_types@V?$NavGraphNode@PAV?$Trigger@VRaven_Bot@@@@@@V?$allocator@V?$NavGraphNode@PAV?$Trigger@VRaven_Bot@@@@@@@std@@@std@@@std@@QAE@XZ DD 019930522H
	DD	00H
	DD	00H
	DD	2 DUP(00H)
	DD	2 DUP(00H)
	DD	00H
	DD	05H
xdata$x	ENDS
;	COMDAT xdata$x
xdata$x	SEGMENT
__ehfuncinfo$?_Orphan_all@_Container_base12@std@@QAEXXZ DD 019930522H
	DD	00H
	DD	00H
	DD	2 DUP(00H)
	DD	2 DUP(00H)
	DD	00H
	DD	05H
xdata$x	ENDS
CRT$XCU	SEGMENT
?MaxDouble$initializer$@@3P6AXXZA DD FLAT:??__EMaxDouble@@YAXXZ ; MaxDouble$initializer$
CRT$XCU	ENDS
CRT$XCU	SEGMENT
?MinDouble$initializer$@@3P6AXXZA DD FLAT:??__EMinDouble@@YAXXZ ; MinDouble$initializer$
CRT$XCU	ENDS
CRT$XCU	SEGMENT
?MaxFloat$initializer$@@3P6AXXZA DD FLAT:??__EMaxFloat@@YAXXZ ; MaxFloat$initializer$
CRT$XCU	ENDS
CRT$XCU	SEGMENT
?MinFloat$initializer$@@3P6AXXZA DD FLAT:??__EMinFloat@@YAXXZ ; MinFloat$initializer$
CRT$XCU	ENDS
;	COMDAT CRT$XCU
CRT$XCU	SEGMENT
??id$initializer$@?$num_put@DV?$ostreambuf_iterator@DU?$char_traits@D@std@@@std@@@std@@2P6AXXZA@@3P6AXXZA DD FLAT:??__E?id@?$num_put@DV?$ostreambuf_iterator@DU?$char_traits@D@std@@@std@@@std@@2V0locale@2@A@@YAXXZ ; ??id$initializer$@?$num_put@DV?$ostreambuf_iterator@DU?$char_traits@D@std@@@std@@@std@@2P6AXXZA@@3P6AXXZA
CRT$XCU	ENDS
;	COMDAT CRT$XCU
CRT$XCU	SEGMENT
??id$initializer$@?$codecvt@DDU_Mbstatet@@@std@@2P6AXXZA@@3P6AXXZA DD FLAT:??__E?id@?$codecvt@DDU_Mbstatet@@@std@@2V0locale@2@A@@YAXXZ ; ??id$initializer$@?$codecvt@DDU_Mbstatet@@@std@@2P6AXXZA@@3P6AXXZA
CRT$XCU	ENDS
;	COMDAT CRT$XCU
CRT$XCU	SEGMENT
??id$initializer$@?$numpunct@D@std@@2P6AXXZA@@3P6AXXZA DD FLAT:??__E?id@?$numpunct@D@std@@2V0locale@2@A@@YAXXZ ; ??id$initializer$@?$numpunct@D@std@@2P6AXXZA@@3P6AXXZA
CRT$XCU	ENDS
;	COMDAT CRT$XCU
CRT$XCU	SEGMENT
??id$initializer$@?$num_get@DV?$istreambuf_iterator@DU?$char_traits@D@std@@@std@@@std@@2P6AXXZA@@3P6AXXZA DD FLAT:??__E?id@?$num_get@DV?$istreambuf_iterator@DU?$char_traits@D@std@@@std@@@std@@2V0locale@2@A@@YAXXZ ; ??id$initializer$@?$num_get@DV?$istreambuf_iterator@DU?$char_traits@D@std@@@std@@@std@@2P6AXXZA@@3P6AXXZA
CRT$XCU	ENDS
; Function compile flags: /Odtp /RTCsu
; File c:\program files (x86)\microsoft visual studio\2017\community\vc\tools\msvc\14.15.26726\include\xmemory0
;	COMDAT ??$destroy@PAU?$_List_node@VNavGraphEdge@@PAX@std@@@?$_Default_allocator_traits@V?$allocator@U?$_List_node@VNavGraphEdge@@PAX@std@@@std@@@std@@SAXAAV?$allocator@U?$_List_node@VNavGraphEdge@@PAX@std@@@1@QAPAU?$_List_node@VNavGraphEdge@@PAX@1@@Z
_TEXT	SEGMENT
___formal$ = 8						; size = 4
__Ptr$ = 12						; size = 4
??$destroy@PAU?$_List_node@VNavGraphEdge@@PAX@std@@@?$_Default_allocator_traits@V?$allocator@U?$_List_node@VNavGraphEdge@@PAX@std@@@std@@@std@@SAXAAV?$allocator@U?$_List_node@VNavGraphEdge@@PAX@std@@@1@QAPAU?$_List_node@VNavGraphEdge@@PAX@1@@Z PROC ; std::_Default_allocator_traits<std::allocator<std::_List_node<NavGraphEdge,void *> > >::destroy<std::_List_node<NavGraphEdge,void *> *>, COMDAT

; 886  : 		{	// destroy object at _Ptr

	push	ebp
	mov	ebp, esp

; 887  : 		_Ptr->~_Uty();
; 888  : 		}

	pop	ebp
	ret	0
??$destroy@PAU?$_List_node@VNavGraphEdge@@PAX@std@@@?$_Default_allocator_traits@V?$allocator@U?$_List_node@VNavGraphEdge@@PAX@std@@@std@@@std@@SAXAAV?$allocator@U?$_List_node@VNavGraphEdge@@PAX@std@@@1@QAPAU?$_List_node@VNavGraphEdge@@PAX@1@@Z ENDP ; std::_Default_allocator_traits<std::allocator<std::_List_node<NavGraphEdge,void *> > >::destroy<std::_List_node<NavGraphEdge,void *> *>
_TEXT	ENDS
; Function compile flags: /Odtp /RTCsu
; File c:\program files (x86)\microsoft visual studio\2017\community\vc\tools\msvc\14.15.26726\include\xstddef
;	COMDAT ??$addressof@PAU?$_List_node@VNavGraphEdge@@PAX@std@@@std@@YAPAPAU?$_List_node@VNavGraphEdge@@PAX@0@AAPAU10@@Z
_TEXT	SEGMENT
__Val$ = 8						; size = 4
??$addressof@PAU?$_List_node@VNavGraphEdge@@PAX@std@@@std@@YAPAPAU?$_List_node@VNavGraphEdge@@PAX@0@AAPAU10@@Z PROC ; std::addressof<std::_List_node<NavGraphEdge,void *> *>, COMDAT

; 329  : 	{	// return address of _Val

	push	ebp
	mov	ebp, esp

; 330  : 	return (__builtin_addressof(_Val));

	mov	eax, DWORD PTR __Val$[ebp]

; 331  : 	}

	pop	ebp
	ret	0
??$addressof@PAU?$_List_node@VNavGraphEdge@@PAX@std@@@std@@YAPAPAU?$_List_node@VNavGraphEdge@@PAX@0@AAPAU10@@Z ENDP ; std::addressof<std::_List_node<NavGraphEdge,void *> *>
_TEXT	ENDS
; Function compile flags: /Odtp /RTCsu
; File c:\program files (x86)\microsoft visual studio\2017\community\vc\tools\msvc\14.15.26726\include\xmemory0
;	COMDAT ??$destroy@VNavGraphEdge@@@?$_Default_allocator_traits@V?$allocator@U?$_List_node@VNavGraphEdge@@PAX@std@@@std@@@std@@SAXAAV?$allocator@U?$_List_node@VNavGraphEdge@@PAX@std@@@1@QAVNavGraphEdge@@@Z
_TEXT	SEGMENT
___formal$ = 8						; size = 4
__Ptr$ = 12						; size = 4
??$destroy@VNavGraphEdge@@@?$_Default_allocator_traits@V?$allocator@U?$_List_node@VNavGraphEdge@@PAX@std@@@std@@@std@@SAXAAV?$allocator@U?$_List_node@VNavGraphEdge@@PAX@std@@@1@QAVNavGraphEdge@@@Z PROC ; std::_Default_allocator_traits<std::allocator<std::_List_node<NavGraphEdge,void *> > >::destroy<NavGraphEdge>, COMDAT

; 886  : 		{	// destroy object at _Ptr

	push	ebp
	mov	ebp, esp
	push	esi

; 887  : 		_Ptr->~_Uty();

	mov	esi, esp
	push	0
	mov	eax, DWORD PTR __Ptr$[ebp]
	mov	edx, DWORD PTR [eax]
	mov	ecx, DWORD PTR __Ptr$[ebp]
	mov	eax, DWORD PTR [edx]
	call	eax
	cmp	esi, esp
	call	__RTC_CheckEsp

; 888  : 		}

	pop	esi
	cmp	ebp, esp
	call	__RTC_CheckEsp
	pop	ebp
	ret	0
??$destroy@VNavGraphEdge@@@?$_Default_allocator_traits@V?$allocator@U?$_List_node@VNavGraphEdge@@PAX@std@@@std@@@std@@SAXAAV?$allocator@U?$_List_node@VNavGraphEdge@@PAX@std@@@1@QAVNavGraphEdge@@@Z ENDP ; std::_Default_allocator_traits<std::allocator<std::_List_node<NavGraphEdge,void *> > >::destroy<NavGraphEdge>
_TEXT	ENDS
; Function compile flags: /Odtp /RTCsu
; File c:\program files (x86)\microsoft visual studio\2017\community\vc\tools\msvc\14.15.26726\include\xstddef
;	COMDAT ??$addressof@VNavGraphEdge@@@std@@YAPAVNavGraphEdge@@AAV1@@Z
_TEXT	SEGMENT
__Val$ = 8						; size = 4
??$addressof@VNavGraphEdge@@@std@@YAPAVNavGraphEdge@@AAV1@@Z PROC ; std::addressof<NavGraphEdge>, COMDAT

; 329  : 	{	// return address of _Val

	push	ebp
	mov	ebp, esp

; 330  : 	return (__builtin_addressof(_Val));

	mov	eax, DWORD PTR __Val$[ebp]

; 331  : 	}

	pop	ebp
	ret	0
??$addressof@VNavGraphEdge@@@std@@YAPAVNavGraphEdge@@AAV1@@Z ENDP ; std::addressof<NavGraphEdge>
_TEXT	ENDS
; Function compile flags: /Odtp /RTCsu
; File c:\program files (x86)\microsoft visual studio\2017\community\vc\tools\msvc\14.15.26726\include\xmemory0
;	COMDAT ??$?0U?$_List_node@VNavGraphEdge@@PAX@std@@@?$allocator@U_Container_proxy@std@@@std@@QAE@ABV?$allocator@U?$_List_node@VNavGraphEdge@@PAX@std@@@1@@Z
_TEXT	SEGMENT
_this$ = -4						; size = 4
___formal$ = 8						; size = 4
??$?0U?$_List_node@VNavGraphEdge@@PAX@std@@@?$allocator@U_Container_proxy@std@@@std@@QAE@ABV?$allocator@U?$_List_node@VNavGraphEdge@@PAX@std@@@1@@Z PROC ; std::allocator<std::_Container_proxy>::allocator<std::_Container_proxy><std::_List_node<NavGraphEdge,void *> >, COMDAT
; _this$ = ecx

; 986  : 		{	// construct from a related allocator (do nothing)

	push	ebp
	mov	ebp, esp
	push	ecx
	mov	DWORD PTR [ebp-4], -858993460		; ccccccccH
	mov	DWORD PTR _this$[ebp], ecx

; 987  : 		}

	mov	eax, DWORD PTR _this$[ebp]
	mov	esp, ebp
	pop	ebp
	ret	4
??$?0U?$_List_node@VNavGraphEdge@@PAX@std@@@?$allocator@U_Container_proxy@std@@@std@@QAE@ABV?$allocator@U?$_List_node@VNavGraphEdge@@PAX@std@@@1@@Z ENDP ; std::allocator<std::_Container_proxy>::allocator<std::_Container_proxy><std::_List_node<NavGraphEdge,void *> >
_TEXT	ENDS
; Function compile flags: /Odtp /RTCsu
; File c:\program files (x86)\microsoft visual studio\2017\community\vc\tools\msvc\14.15.26726\include\list
;	COMDAT ??$_Freenode0@V?$allocator@U?$_List_node@VNavGraphEdge@@PAX@std@@@std@@@?$_List_node@VNavGraphEdge@@PAX@std@@SAXAAV?$allocator@U?$_List_node@VNavGraphEdge@@PAX@std@@@1@PAU01@@Z
_TEXT	SEGMENT
__Node_alloc$ = -17					; size = 1
__$EHRec$ = -12						; size = 12
__Al$ = 8						; size = 4
__Ptr$ = 12						; size = 4
??$_Freenode0@V?$allocator@U?$_List_node@VNavGraphEdge@@PAX@std@@@std@@@?$_List_node@VNavGraphEdge@@PAX@std@@SAXAAV?$allocator@U?$_List_node@VNavGraphEdge@@PAX@std@@@1@PAU01@@Z PROC ; std::_List_node<NavGraphEdge,void *>::_Freenode0<std::allocator<std::_List_node<NavGraphEdge,void *> > >, COMDAT

; 368  : 			{

	push	ebp
	mov	ebp, esp
	push	-1
	push	__ehhandler$??$_Freenode0@V?$allocator@U?$_List_node@VNavGraphEdge@@PAX@std@@@std@@@?$_List_node@VNavGraphEdge@@PAX@std@@SAXAAV?$allocator@U?$_List_node@VNavGraphEdge@@PAX@std@@@1@PAU01@@Z
	mov	eax, DWORD PTR fs:0
	push	eax
	sub	esp, 12					; 0000000cH
	mov	DWORD PTR [ebp-24], -858993460		; ccccccccH
	mov	DWORD PTR [ebp-20], -858993460		; ccccccccH
	mov	DWORD PTR [ebp-16], -858993460		; ccccccccH
	mov	eax, DWORD PTR ___security_cookie
	xor	eax, ebp
	push	eax
	lea	eax, DWORD PTR __$EHRec$[ebp]
	mov	DWORD PTR fs:0, eax

; 369  : 			using _Alnode = _Rebind_alloc_t<_Alloc, _List_node>;
; 370  : 			using _Alnode_traits = allocator_traits<_Alnode>;
; 371  : 			_Alnode _Node_alloc(_Al);
; 372  : 			_Alnode_traits::destroy(_Node_alloc, _STD addressof(_Ptr->_Next));

	mov	eax, DWORD PTR __Ptr$[ebp]
	push	eax
	call	??$addressof@PAU?$_List_node@VNavGraphEdge@@PAX@std@@@std@@YAPAPAU?$_List_node@VNavGraphEdge@@PAX@0@AAPAU10@@Z ; std::addressof<std::_List_node<NavGraphEdge,void *> *>
	add	esp, 4
	push	eax
	lea	ecx, DWORD PTR __Node_alloc$[ebp]
	push	ecx
	call	??$destroy@PAU?$_List_node@VNavGraphEdge@@PAX@std@@@?$_Default_allocator_traits@V?$allocator@U?$_List_node@VNavGraphEdge@@PAX@std@@@std@@@std@@SAXAAV?$allocator@U?$_List_node@VNavGraphEdge@@PAX@std@@@1@QAPAU?$_List_node@VNavGraphEdge@@PAX@1@@Z ; std::_Default_allocator_traits<std::allocator<std::_List_node<NavGraphEdge,void *> > >::destroy<std::_List_node<NavGraphEdge,void *> *>
	add	esp, 8

; 373  : 			_Alnode_traits::destroy(_Node_alloc, _STD addressof(_Ptr->_Prev));

	mov	edx, DWORD PTR __Ptr$[ebp]
	add	edx, 4
	push	edx
	call	??$addressof@PAU?$_List_node@VNavGraphEdge@@PAX@std@@@std@@YAPAPAU?$_List_node@VNavGraphEdge@@PAX@0@AAPAU10@@Z ; std::addressof<std::_List_node<NavGraphEdge,void *> *>
	add	esp, 4
	push	eax
	lea	eax, DWORD PTR __Node_alloc$[ebp]
	push	eax
	call	??$destroy@PAU?$_List_node@VNavGraphEdge@@PAX@std@@@?$_Default_allocator_traits@V?$allocator@U?$_List_node@VNavGraphEdge@@PAX@std@@@std@@@std@@SAXAAV?$allocator@U?$_List_node@VNavGraphEdge@@PAX@std@@@1@QAPAU?$_List_node@VNavGraphEdge@@PAX@1@@Z ; std::_Default_allocator_traits<std::allocator<std::_List_node<NavGraphEdge,void *> > >::destroy<std::_List_node<NavGraphEdge,void *> *>
	add	esp, 8

; 374  : 			_Alnode_traits::deallocate(_Node_alloc, _Ptr, 1);

	push	1
	mov	ecx, DWORD PTR __Ptr$[ebp]
	push	ecx
	lea	edx, DWORD PTR __Node_alloc$[ebp]
	push	edx
	call	?deallocate@?$_Default_allocator_traits@V?$allocator@U?$_List_node@VNavGraphEdge@@PAX@std@@@std@@@std@@SAXAAV?$allocator@U?$_List_node@VNavGraphEdge@@PAX@std@@@2@QAU?$_List_node@VNavGraphEdge@@PAX@2@I@Z ; std::_Default_allocator_traits<std::allocator<std::_List_node<NavGraphEdge,void *> > >::deallocate
	add	esp, 12					; 0000000cH

; 375  : 			}

	push	edx
	mov	ecx, ebp
	push	eax
	lea	edx, DWORD PTR $LN6@Freenode0
	call	@_RTC_CheckStackVars@8
	pop	eax
	pop	edx
	mov	ecx, DWORD PTR __$EHRec$[ebp]
	mov	DWORD PTR fs:0, ecx
	pop	ecx
	add	esp, 24					; 00000018H
	cmp	ebp, esp
	call	__RTC_CheckEsp
	mov	esp, ebp
	pop	ebp
	ret	0
	npad	1
$LN6@Freenode0:
	DD	1
	DD	$LN5@Freenode0
$LN5@Freenode0:
	DD	-17					; ffffffefH
	DD	1
	DD	$LN3@Freenode0
$LN3@Freenode0:
	DB	95					; 0000005fH
	DB	78					; 0000004eH
	DB	111					; 0000006fH
	DB	100					; 00000064H
	DB	101					; 00000065H
	DB	95					; 0000005fH
	DB	97					; 00000061H
	DB	108					; 0000006cH
	DB	108					; 0000006cH
	DB	111					; 0000006fH
	DB	99					; 00000063H
	DB	0
_TEXT	ENDS
;	COMDAT text$x
text$x	SEGMENT
__ehhandler$??$_Freenode0@V?$allocator@U?$_List_node@VNavGraphEdge@@PAX@std@@@std@@@?$_List_node@VNavGraphEdge@@PAX@std@@SAXAAV?$allocator@U?$_List_node@VNavGraphEdge@@PAX@std@@@1@PAU01@@Z:
	mov	edx, DWORD PTR [esp+8]
	lea	eax, DWORD PTR [edx+12]
	mov	ecx, DWORD PTR [edx-16]
	xor	ecx, eax
	call	@__security_check_cookie@4
	mov	eax, OFFSET __ehfuncinfo$??$_Freenode0@V?$allocator@U?$_List_node@VNavGraphEdge@@PAX@std@@@std@@@?$_List_node@VNavGraphEdge@@PAX@std@@SAXAAV?$allocator@U?$_List_node@VNavGraphEdge@@PAX@std@@@1@PAU01@@Z
	jmp	___CxxFrameHandler3
text$x	ENDS
??$_Freenode0@V?$allocator@U?$_List_node@VNavGraphEdge@@PAX@std@@@std@@@?$_List_node@VNavGraphEdge@@PAX@std@@SAXAAV?$allocator@U?$_List_node@VNavGraphEdge@@PAX@std@@@1@PAU01@@Z ENDP ; std::_List_node<NavGraphEdge,void *>::_Freenode0<std::allocator<std::_List_node<NavGraphEdge,void *> > >
; Function compile flags: /Odtp /RTCsu
; File c:\program files (x86)\microsoft visual studio\2017\community\vc\tools\msvc\14.15.26726\include\xlocnum
;	COMDAT ??__E?id@?$num_get@DV?$istreambuf_iterator@DU?$char_traits@D@std@@@std@@@std@@2V0locale@2@A@@YAXXZ
text$di	SEGMENT
??__E?id@?$num_get@DV?$istreambuf_iterator@DU?$char_traits@D@std@@@std@@@std@@2V0locale@2@A@@YAXXZ PROC ; `dynamic initializer for 'std::num_get<char,std::istreambuf_iterator<char,std::char_traits<char> > >::id'', COMDAT

; 1404 : 	__PURE_APPDOMAIN_GLOBAL locale::id num_get<_Elem, _InIt>::id;

	push	ebp
	mov	ebp, esp
	push	0
	mov	ecx, OFFSET ?id@?$num_get@DV?$istreambuf_iterator@DU?$char_traits@D@std@@@std@@@std@@2V0locale@2@A ; std::num_get<char,std::istreambuf_iterator<char,std::char_traits<char> > >::id
	call	??0id@locale@std@@QAE@I@Z		; std::locale::id::id
	cmp	ebp, esp
	call	__RTC_CheckEsp
	pop	ebp
	ret	0
??__E?id@?$num_get@DV?$istreambuf_iterator@DU?$char_traits@D@std@@@std@@@std@@2V0locale@2@A@@YAXXZ ENDP ; `dynamic initializer for 'std::num_get<char,std::istreambuf_iterator<char,std::char_traits<char> > >::id''
text$di	ENDS
; Function compile flags: /Odtp /RTCsu
; File c:\program files (x86)\microsoft visual studio\2017\community\vc\tools\msvc\14.15.26726\include\xmemory0
;	COMDAT ??$destroy@V?$NavGraphNode@PAV?$Trigger@VRaven_Bot@@@@@@@?$_Default_allocator_traits@V?$allocator@V?$NavGraphNode@PAV?$Trigger@VRaven_Bot@@@@@@@std@@@std@@SAXAAV?$allocator@V?$NavGraphNode@PAV?$Trigger@VRaven_Bot@@@@@@@1@QAV?$NavGraphNode@PAV?$Trigger@VRaven_Bot@@@@@@@Z
_TEXT	SEGMENT
___formal$ = 8						; size = 4
__Ptr$ = 12						; size = 4
??$destroy@V?$NavGraphNode@PAV?$Trigger@VRaven_Bot@@@@@@@?$_Default_allocator_traits@V?$allocator@V?$NavGraphNode@PAV?$Trigger@VRaven_Bot@@@@@@@std@@@std@@SAXAAV?$allocator@V?$NavGraphNode@PAV?$Trigger@VRaven_Bot@@@@@@@1@QAV?$NavGraphNode@PAV?$Trigger@VRaven_Bot@@@@@@@Z PROC ; std::_Default_allocator_traits<std::allocator<NavGraphNode<Trigger<Raven_Bot> *> > >::destroy<NavGraphNode<Trigger<Raven_Bot> *> >, COMDAT

; 886  : 		{	// destroy object at _Ptr

	push	ebp
	mov	ebp, esp
	push	esi

; 887  : 		_Ptr->~_Uty();

	mov	esi, esp
	push	0
	mov	eax, DWORD PTR __Ptr$[ebp]
	mov	edx, DWORD PTR [eax]
	mov	ecx, DWORD PTR __Ptr$[ebp]
	mov	eax, DWORD PTR [edx]
	call	eax
	cmp	esi, esp
	call	__RTC_CheckEsp

; 888  : 		}

	pop	esi
	cmp	ebp, esp
	call	__RTC_CheckEsp
	pop	ebp
	ret	0
??$destroy@V?$NavGraphNode@PAV?$Trigger@VRaven_Bot@@@@@@@?$_Default_allocator_traits@V?$allocator@V?$NavGraphNode@PAV?$Trigger@VRaven_Bot@@@@@@@std@@@std@@SAXAAV?$allocator@V?$NavGraphNode@PAV?$Trigger@VRaven_Bot@@@@@@@1@QAV?$NavGraphNode@PAV?$Trigger@VRaven_Bot@@@@@@@Z ENDP ; std::_Default_allocator_traits<std::allocator<NavGraphNode<Trigger<Raven_Bot> *> > >::destroy<NavGraphNode<Trigger<Raven_Bot> *> >
_TEXT	ENDS
; Function compile flags: /Odtp /RTCsu
; File c:\program files (x86)\microsoft visual studio\2017\community\vc\tools\msvc\14.15.26726\include\xstddef
;	COMDAT ??$_Unfancy@V?$NavGraphNode@PAV?$Trigger@VRaven_Bot@@@@@@@std@@YAPAV?$NavGraphNode@PAV?$Trigger@VRaven_Bot@@@@@@PAV1@@Z
_TEXT	SEGMENT
__Ptr$ = 8						; size = 4
??$_Unfancy@V?$NavGraphNode@PAV?$Trigger@VRaven_Bot@@@@@@@std@@YAPAV?$NavGraphNode@PAV?$Trigger@VRaven_Bot@@@@@@PAV1@@Z PROC ; std::_Unfancy<NavGraphNode<Trigger<Raven_Bot> *> >, COMDAT

; 345  : 	{	// do nothing for plain pointers

	push	ebp
	mov	ebp, esp

; 346  : 	return (_Ptr);

	mov	eax, DWORD PTR __Ptr$[ebp]

; 347  : 	}

	pop	ebp
	ret	0
??$_Unfancy@V?$NavGraphNode@PAV?$Trigger@VRaven_Bot@@@@@@@std@@YAPAV?$NavGraphNode@PAV?$Trigger@VRaven_Bot@@@@@@PAV1@@Z ENDP ; std::_Unfancy<NavGraphNode<Trigger<Raven_Bot> *> >
_TEXT	ENDS
; Function compile flags: /Odtp /RTCsu
; File c:\program files (x86)\microsoft visual studio\2017\community\vc\tools\msvc\14.15.26726\include\xmemory0
;	COMDAT ??$destroy@V?$list@VNavGraphEdge@@V?$allocator@VNavGraphEdge@@@std@@@std@@@?$_Default_allocator_traits@V?$allocator@V?$list@VNavGraphEdge@@V?$allocator@VNavGraphEdge@@@std@@@std@@@std@@@std@@SAXAAV?$allocator@V?$list@VNavGraphEdge@@V?$allocator@VNavGraphEdge@@@std@@@std@@@1@QAV?$list@VNavGraphEdge@@V?$allocator@VNavGraphEdge@@@std@@@1@@Z
_TEXT	SEGMENT
___formal$ = 8						; size = 4
__Ptr$ = 12						; size = 4
??$destroy@V?$list@VNavGraphEdge@@V?$allocator@VNavGraphEdge@@@std@@@std@@@?$_Default_allocator_traits@V?$allocator@V?$list@VNavGraphEdge@@V?$allocator@VNavGraphEdge@@@std@@@std@@@std@@@std@@SAXAAV?$allocator@V?$list@VNavGraphEdge@@V?$allocator@VNavGraphEdge@@@std@@@std@@@1@QAV?$list@VNavGraphEdge@@V?$allocator@VNavGraphEdge@@@std@@@1@@Z PROC ; std::_Default_allocator_traits<std::allocator<std::list<NavGraphEdge,std::allocator<NavGraphEdge> > > >::destroy<std::list<NavGraphEdge,std::allocator<NavGraphEdge> > >, COMDAT

; 886  : 		{	// destroy object at _Ptr

	push	ebp
	mov	ebp, esp

; 887  : 		_Ptr->~_Uty();

	push	0
	mov	ecx, DWORD PTR __Ptr$[ebp]
	call	??_G?$list@VNavGraphEdge@@V?$allocator@VNavGraphEdge@@@std@@@std@@QAEPAXI@Z

; 888  : 		}

	cmp	ebp, esp
	call	__RTC_CheckEsp
	pop	ebp
	ret	0
??$destroy@V?$list@VNavGraphEdge@@V?$allocator@VNavGraphEdge@@@std@@@std@@@?$_Default_allocator_traits@V?$allocator@V?$list@VNavGraphEdge@@V?$allocator@VNavGraphEdge@@@std@@@std@@@std@@@std@@SAXAAV?$allocator@V?$list@VNavGraphEdge@@V?$allocator@VNavGraphEdge@@@std@@@std@@@1@QAV?$list@VNavGraphEdge@@V?$allocator@VNavGraphEdge@@@std@@@1@@Z ENDP ; std::_Default_allocator_traits<std::allocator<std::list<NavGraphEdge,std::allocator<NavGraphEdge> > > >::destroy<std::list<NavGraphEdge,std::allocator<NavGraphEdge> > >
_TEXT	ENDS
; Function compile flags: /Odtp /RTCsu
; File c:\program files (x86)\microsoft visual studio\2017\community\vc\tools\msvc\14.15.26726\include\xstddef
;	COMDAT ??$_Unfancy@V?$list@VNavGraphEdge@@V?$allocator@VNavGraphEdge@@@std@@@std@@@std@@YAPAV?$list@VNavGraphEdge@@V?$allocator@VNavGraphEdge@@@std@@@0@PAV10@@Z
_TEXT	SEGMENT
__Ptr$ = 8						; size = 4
??$_Unfancy@V?$list@VNavGraphEdge@@V?$allocator@VNavGraphEdge@@@std@@@std@@@std@@YAPAV?$list@VNavGraphEdge@@V?$allocator@VNavGraphEdge@@@std@@@0@PAV10@@Z PROC ; std::_Unfancy<std::list<NavGraphEdge,std::allocator<NavGraphEdge> > >, COMDAT

; 345  : 	{	// do nothing for plain pointers

	push	ebp
	mov	ebp, esp

; 346  : 	return (_Ptr);

	mov	eax, DWORD PTR __Ptr$[ebp]

; 347  : 	}

	pop	ebp
	ret	0
??$_Unfancy@V?$list@VNavGraphEdge@@V?$allocator@VNavGraphEdge@@@std@@@std@@@std@@YAPAV?$list@VNavGraphEdge@@V?$allocator@VNavGraphEdge@@@std@@@0@PAV10@@Z ENDP ; std::_Unfancy<std::list<NavGraphEdge,std::allocator<NavGraphEdge> > >
_TEXT	ENDS
; Function compile flags: /Odtp /RTCsu
; File c:\program files (x86)\microsoft visual studio\2017\community\vc\tools\msvc\14.15.26726\include\xmemory0
;	COMDAT ??$construct@PAV?$Trigger@VRaven_Bot@@@@ABQAV1@@?$_Default_allocator_traits@V?$allocator@U?$_List_node@PAV?$Trigger@VRaven_Bot@@@@PAX@std@@@std@@@std@@SAXAAV?$allocator@U?$_List_node@PAV?$Trigger@VRaven_Bot@@@@PAX@std@@@1@QAPAV?$Trigger@VRaven_Bot@@@@ABQAV3@@Z
_TEXT	SEGMENT
$T1 = -4						; size = 4
___formal$ = 8						; size = 4
__Ptr$ = 12						; size = 4
_<_Args_0>$ = 16					; size = 4
??$construct@PAV?$Trigger@VRaven_Bot@@@@ABQAV1@@?$_Default_allocator_traits@V?$allocator@U?$_List_node@PAV?$Trigger@VRaven_Bot@@@@PAX@std@@@std@@@std@@SAXAAV?$allocator@U?$_List_node@PAV?$Trigger@VRaven_Bot@@@@PAX@std@@@1@QAPAV?$Trigger@VRaven_Bot@@@@ABQAV3@@Z PROC ; std::_Default_allocator_traits<std::allocator<std::_List_node<Trigger<Raven_Bot> *,void *> > >::construct<Trigger<Raven_Bot> *,Trigger<Raven_Bot> * const &>, COMDAT

; 879  : 		{	// construct _Objty(_Types...) at _Ptr

	push	ebp
	mov	ebp, esp
	push	ecx
	mov	DWORD PTR [ebp-4], -858993460		; ccccccccH

; 880  : 		::new (const_cast<void *>(static_cast<const volatile void *>(_Ptr)))

	mov	eax, DWORD PTR __Ptr$[ebp]
	push	eax
	push	4
	call	??2@YAPAXIPAX@Z				; operator new
	add	esp, 8
	mov	DWORD PTR $T1[ebp], eax
	mov	ecx, DWORD PTR _<_Args_0>$[ebp]
	push	ecx
	call	??$forward@ABQAV?$Trigger@VRaven_Bot@@@@@std@@YAABQAV?$Trigger@VRaven_Bot@@@@ABQAV1@@Z ; std::forward<Trigger<Raven_Bot> * const &>
	add	esp, 4
	mov	edx, DWORD PTR $T1[ebp]
	mov	eax, DWORD PTR [eax]
	mov	DWORD PTR [edx], eax

; 881  : 			_Objty(_STD forward<_Types>(_Args)...);
; 882  : 		}

	add	esp, 4
	cmp	ebp, esp
	call	__RTC_CheckEsp
	mov	esp, ebp
	pop	ebp
	ret	0
??$construct@PAV?$Trigger@VRaven_Bot@@@@ABQAV1@@?$_Default_allocator_traits@V?$allocator@U?$_List_node@PAV?$Trigger@VRaven_Bot@@@@PAX@std@@@std@@@std@@SAXAAV?$allocator@U?$_List_node@PAV?$Trigger@VRaven_Bot@@@@PAX@std@@@1@QAPAV?$Trigger@VRaven_Bot@@@@ABQAV3@@Z ENDP ; std::_Default_allocator_traits<std::allocator<std::_List_node<Trigger<Raven_Bot> *,void *> > >::construct<Trigger<Raven_Bot> *,Trigger<Raven_Bot> * const &>
_TEXT	ENDS
; Function compile flags: /Odtp /RTCsu
; File c:\program files (x86)\microsoft visual studio\2017\community\vc\tools\msvc\14.15.26726\include\xlocnum
;	COMDAT ??__E?id@?$numpunct@D@std@@2V0locale@2@A@@YAXXZ
text$di	SEGMENT
??__E?id@?$numpunct@D@std@@2V0locale@2@A@@YAXXZ PROC	; `dynamic initializer for 'std::numpunct<char>::id'', COMDAT

; 297  : 	__PURE_APPDOMAIN_GLOBAL locale::id numpunct<_Elem>::id;

	push	ebp
	mov	ebp, esp
	push	0
	mov	ecx, OFFSET ?id@?$numpunct@D@std@@2V0locale@2@A ; std::numpunct<char>::id
	call	??0id@locale@std@@QAE@I@Z		; std::locale::id::id
	cmp	ebp, esp
	call	__RTC_CheckEsp
	pop	ebp
	ret	0
??__E?id@?$numpunct@D@std@@2V0locale@2@A@@YAXXZ ENDP	; `dynamic initializer for 'std::numpunct<char>::id''
text$di	ENDS
; Function compile flags: /Odtp /RTCsu
; File c:\program files (x86)\microsoft visual studio\2017\community\vc\tools\msvc\14.15.26726\include\xlocale
;	COMDAT ??__E?id@?$codecvt@DDU_Mbstatet@@@std@@2V0locale@2@A@@YAXXZ
text$di	SEGMENT
??__E?id@?$codecvt@DDU_Mbstatet@@@std@@2V0locale@2@A@@YAXXZ PROC ; `dynamic initializer for 'std::codecvt<char,char,_Mbstatet>::id'', COMDAT

; 955  : 	__PURE_APPDOMAIN_GLOBAL locale::id codecvt<_Elem, _Byte, _Statype>::id;

	push	ebp
	mov	ebp, esp
	push	0
	mov	ecx, OFFSET ?id@?$codecvt@DDU_Mbstatet@@@std@@2V0locale@2@A ; std::codecvt<char,char,_Mbstatet>::id
	call	??0id@locale@std@@QAE@I@Z		; std::locale::id::id
	cmp	ebp, esp
	call	__RTC_CheckEsp
	pop	ebp
	ret	0
??__E?id@?$codecvt@DDU_Mbstatet@@@std@@2V0locale@2@A@@YAXXZ ENDP ; `dynamic initializer for 'std::codecvt<char,char,_Mbstatet>::id''
text$di	ENDS
; Function compile flags: /Odtp /RTCsu
; File c:\program files (x86)\microsoft visual studio\2017\community\vc\tools\msvc\14.15.26726\include\xlocnum
;	COMDAT ??__E?id@?$num_put@DV?$ostreambuf_iterator@DU?$char_traits@D@std@@@std@@@std@@2V0locale@2@A@@YAXXZ
text$di	SEGMENT
??__E?id@?$num_put@DV?$ostreambuf_iterator@DU?$char_traits@D@std@@@std@@@std@@2V0locale@2@A@@YAXXZ PROC ; `dynamic initializer for 'std::num_put<char,std::ostreambuf_iterator<char,std::char_traits<char> > >::id'', COMDAT

; 1843 : 	__PURE_APPDOMAIN_GLOBAL locale::id num_put<_Elem, _OutIt>::id;

	push	ebp
	mov	ebp, esp
	push	0
	mov	ecx, OFFSET ?id@?$num_put@DV?$ostreambuf_iterator@DU?$char_traits@D@std@@@std@@@std@@2V0locale@2@A ; std::num_put<char,std::ostreambuf_iterator<char,std::char_traits<char> > >::id
	call	??0id@locale@std@@QAE@I@Z		; std::locale::id::id
	cmp	ebp, esp
	call	__RTC_CheckEsp
	pop	ebp
	ret	0
??__E?id@?$num_put@DV?$ostreambuf_iterator@DU?$char_traits@D@std@@@std@@@std@@2V0locale@2@A@@YAXXZ ENDP ; `dynamic initializer for 'std::num_put<char,std::ostreambuf_iterator<char,std::char_traits<char> > >::id''
text$di	ENDS
; Function compile flags: /Odtp /RTCsu
; File c:\program files (x86)\microsoft visual studio\2017\community\vc\tools\msvc\14.15.26726\include\type_traits
;	COMDAT ??$forward@AAPAU?$_List_node@PAV?$Trigger@VRaven_Bot@@@@PAX@std@@@std@@YAAAPAU?$_List_node@PAV?$Trigger@VRaven_Bot@@@@PAX@0@AAPAU10@@Z
_TEXT	SEGMENT
__Arg$ = 8						; size = 4
??$forward@AAPAU?$_List_node@PAV?$Trigger@VRaven_Bot@@@@PAX@std@@@std@@YAAAPAU?$_List_node@PAV?$Trigger@VRaven_Bot@@@@PAX@0@AAPAU10@@Z PROC ; std::forward<std::_List_node<Trigger<Raven_Bot> *,void *> * &>, COMDAT

; 1573 : 	{	// forward an lvalue as either an lvalue or an rvalue

	push	ebp
	mov	ebp, esp

; 1574 : 	return (static_cast<_Ty&&>(_Arg));

	mov	eax, DWORD PTR __Arg$[ebp]

; 1575 : 	}

	pop	ebp
	ret	0
??$forward@AAPAU?$_List_node@PAV?$Trigger@VRaven_Bot@@@@PAX@std@@@std@@YAAAPAU?$_List_node@PAV?$Trigger@VRaven_Bot@@@@PAX@0@AAPAU10@@Z ENDP ; std::forward<std::_List_node<Trigger<Raven_Bot> *,void *> * &>
_TEXT	ENDS
; Function compile flags: /Odtp /RTCsu
; File c:\program files (x86)\microsoft visual studio\2017\community\vc\tools\msvc\14.15.26726\include\xmemory0
;	COMDAT ??$_Destroy_range1@V?$allocator@V?$NavGraphNode@PAV?$Trigger@VRaven_Bot@@@@@@@std@@@std@@YAXPAV?$NavGraphNode@PAV?$Trigger@VRaven_Bot@@@@@@0AAV?$allocator@V?$NavGraphNode@PAV?$Trigger@VRaven_Bot@@@@@@@0@U?$integral_constant@_N$0A@@0@@Z
_TEXT	SEGMENT
__First$ = 8						; size = 4
__Last$ = 12						; size = 4
__Al$ = 16						; size = 4
___formal$ = 20						; size = 1
??$_Destroy_range1@V?$allocator@V?$NavGraphNode@PAV?$Trigger@VRaven_Bot@@@@@@@std@@@std@@YAXPAV?$NavGraphNode@PAV?$Trigger@VRaven_Bot@@@@@@0AAV?$allocator@V?$NavGraphNode@PAV?$Trigger@VRaven_Bot@@@@@@@0@U?$integral_constant@_N$0A@@0@@Z PROC ; std::_Destroy_range1<std::allocator<NavGraphNode<Trigger<Raven_Bot> *> > >, COMDAT

; 1133 : 	{	// destroy [_First, _Last), no special optimization

	push	ebp
	mov	ebp, esp

; 1134 : 	for (; _First != _Last; ++_First)

	jmp	SHORT $LN4@Destroy_ra
$LN2@Destroy_ra:
	mov	eax, DWORD PTR __First$[ebp]
	add	eax, 32					; 00000020H
	mov	DWORD PTR __First$[ebp], eax
$LN4@Destroy_ra:
	mov	ecx, DWORD PTR __First$[ebp]
	cmp	ecx, DWORD PTR __Last$[ebp]
	je	SHORT $LN1@Destroy_ra

; 1135 : 		{
; 1136 : 		allocator_traits<_Alloc>::destroy(_Al, _Unfancy(_First));

	mov	edx, DWORD PTR __First$[ebp]
	push	edx
	call	??$_Unfancy@V?$NavGraphNode@PAV?$Trigger@VRaven_Bot@@@@@@@std@@YAPAV?$NavGraphNode@PAV?$Trigger@VRaven_Bot@@@@@@PAV1@@Z ; std::_Unfancy<NavGraphNode<Trigger<Raven_Bot> *> >
	add	esp, 4
	push	eax
	mov	eax, DWORD PTR __Al$[ebp]
	push	eax
	call	??$destroy@V?$NavGraphNode@PAV?$Trigger@VRaven_Bot@@@@@@@?$_Default_allocator_traits@V?$allocator@V?$NavGraphNode@PAV?$Trigger@VRaven_Bot@@@@@@@std@@@std@@SAXAAV?$allocator@V?$NavGraphNode@PAV?$Trigger@VRaven_Bot@@@@@@@1@QAV?$NavGraphNode@PAV?$Trigger@VRaven_Bot@@@@@@@Z ; std::_Default_allocator_traits<std::allocator<NavGraphNode<Trigger<Raven_Bot> *> > >::destroy<NavGraphNode<Trigger<Raven_Bot> *> >
	add	esp, 8

; 1137 : 		}

	jmp	SHORT $LN2@Destroy_ra
$LN1@Destroy_ra:

; 1138 : 	}

	cmp	ebp, esp
	call	__RTC_CheckEsp
	pop	ebp
	ret	0
??$_Destroy_range1@V?$allocator@V?$NavGraphNode@PAV?$Trigger@VRaven_Bot@@@@@@@std@@@std@@YAXPAV?$NavGraphNode@PAV?$Trigger@VRaven_Bot@@@@@@0AAV?$allocator@V?$NavGraphNode@PAV?$Trigger@VRaven_Bot@@@@@@@0@U?$integral_constant@_N$0A@@0@@Z ENDP ; std::_Destroy_range1<std::allocator<NavGraphNode<Trigger<Raven_Bot> *> > >
_TEXT	ENDS
; Function compile flags: /Odtp /RTCsu
; File c:\program files (x86)\microsoft visual studio\2017\community\vc\tools\msvc\14.15.26726\include\xmemory0
;	COMDAT ??$_Destroy_range1@V?$allocator@V?$list@VNavGraphEdge@@V?$allocator@VNavGraphEdge@@@std@@@std@@@std@@@std@@YAXPAV?$list@VNavGraphEdge@@V?$allocator@VNavGraphEdge@@@std@@@0@0AAV?$allocator@V?$list@VNavGraphEdge@@V?$allocator@VNavGraphEdge@@@std@@@std@@@0@U?$integral_constant@_N$0A@@0@@Z
_TEXT	SEGMENT
__First$ = 8						; size = 4
__Last$ = 12						; size = 4
__Al$ = 16						; size = 4
___formal$ = 20						; size = 1
??$_Destroy_range1@V?$allocator@V?$list@VNavGraphEdge@@V?$allocator@VNavGraphEdge@@@std@@@std@@@std@@@std@@YAXPAV?$list@VNavGraphEdge@@V?$allocator@VNavGraphEdge@@@std@@@0@0AAV?$allocator@V?$list@VNavGraphEdge@@V?$allocator@VNavGraphEdge@@@std@@@std@@@0@U?$integral_constant@_N$0A@@0@@Z PROC ; std::_Destroy_range1<std::allocator<std::list<NavGraphEdge,std::allocator<NavGraphEdge> > > >, COMDAT

; 1133 : 	{	// destroy [_First, _Last), no special optimization

	push	ebp
	mov	ebp, esp

; 1134 : 	for (; _First != _Last; ++_First)

	jmp	SHORT $LN4@Destroy_ra
$LN2@Destroy_ra:
	mov	eax, DWORD PTR __First$[ebp]
	add	eax, 12					; 0000000cH
	mov	DWORD PTR __First$[ebp], eax
$LN4@Destroy_ra:
	mov	ecx, DWORD PTR __First$[ebp]
	cmp	ecx, DWORD PTR __Last$[ebp]
	je	SHORT $LN1@Destroy_ra

; 1135 : 		{
; 1136 : 		allocator_traits<_Alloc>::destroy(_Al, _Unfancy(_First));

	mov	edx, DWORD PTR __First$[ebp]
	push	edx
	call	??$_Unfancy@V?$list@VNavGraphEdge@@V?$allocator@VNavGraphEdge@@@std@@@std@@@std@@YAPAV?$list@VNavGraphEdge@@V?$allocator@VNavGraphEdge@@@std@@@0@PAV10@@Z ; std::_Unfancy<std::list<NavGraphEdge,std::allocator<NavGraphEdge> > >
	add	esp, 4
	push	eax
	mov	eax, DWORD PTR __Al$[ebp]
	push	eax
	call	??$destroy@V?$list@VNavGraphEdge@@V?$allocator@VNavGraphEdge@@@std@@@std@@@?$_Default_allocator_traits@V?$allocator@V?$list@VNavGraphEdge@@V?$allocator@VNavGraphEdge@@@std@@@std@@@std@@@std@@SAXAAV?$allocator@V?$list@VNavGraphEdge@@V?$allocator@VNavGraphEdge@@@std@@@std@@@1@QAV?$list@VNavGraphEdge@@V?$allocator@VNavGraphEdge@@@std@@@1@@Z ; std::_Default_allocator_traits<std::allocator<std::list<NavGraphEdge,std::allocator<NavGraphEdge> > > >::destroy<std::list<NavGraphEdge,std::allocator<NavGraphEdge> > >
	add	esp, 8

; 1137 : 		}

	jmp	SHORT $LN2@Destroy_ra
$LN1@Destroy_ra:

; 1138 : 	}

	cmp	ebp, esp
	call	__RTC_CheckEsp
	pop	ebp
	ret	0
??$_Destroy_range1@V?$allocator@V?$list@VNavGraphEdge@@V?$allocator@VNavGraphEdge@@@std@@@std@@@std@@@std@@YAXPAV?$list@VNavGraphEdge@@V?$allocator@VNavGraphEdge@@@std@@@0@0AAV?$allocator@V?$list@VNavGraphEdge@@V?$allocator@VNavGraphEdge@@@std@@@std@@@0@U?$integral_constant@_N$0A@@0@@Z ENDP ; std::_Destroy_range1<std::allocator<std::list<NavGraphEdge,std::allocator<NavGraphEdge> > > >
_TEXT	ENDS
; Function compile flags: /Odtp /RTCsu
; File c:\program files (x86)\microsoft visual studio\2017\community\vc\tools\msvc\14.15.26726\include\xmemory0
;	COMDAT ??$destroy@PAU?$_List_node@PAV?$Trigger@VRaven_Bot@@@@PAX@std@@@?$_Default_allocator_traits@V?$allocator@U?$_List_node@PAV?$Trigger@VRaven_Bot@@@@PAX@std@@@std@@@std@@SAXAAV?$allocator@U?$_List_node@PAV?$Trigger@VRaven_Bot@@@@PAX@std@@@1@QAPAU?$_List_node@PAV?$Trigger@VRaven_Bot@@@@PAX@1@@Z
_TEXT	SEGMENT
___formal$ = 8						; size = 4
__Ptr$ = 12						; size = 4
??$destroy@PAU?$_List_node@PAV?$Trigger@VRaven_Bot@@@@PAX@std@@@?$_Default_allocator_traits@V?$allocator@U?$_List_node@PAV?$Trigger@VRaven_Bot@@@@PAX@std@@@std@@@std@@SAXAAV?$allocator@U?$_List_node@PAV?$Trigger@VRaven_Bot@@@@PAX@std@@@1@QAPAU?$_List_node@PAV?$Trigger@VRaven_Bot@@@@PAX@1@@Z PROC ; std::_Default_allocator_traits<std::allocator<std::_List_node<Trigger<Raven_Bot> *,void *> > >::destroy<std::_List_node<Trigger<Raven_Bot> *,void *> *>, COMDAT

; 886  : 		{	// destroy object at _Ptr

	push	ebp
	mov	ebp, esp

; 887  : 		_Ptr->~_Uty();
; 888  : 		}

	pop	ebp
	ret	0
??$destroy@PAU?$_List_node@PAV?$Trigger@VRaven_Bot@@@@PAX@std@@@?$_Default_allocator_traits@V?$allocator@U?$_List_node@PAV?$Trigger@VRaven_Bot@@@@PAX@std@@@std@@@std@@SAXAAV?$allocator@U?$_List_node@PAV?$Trigger@VRaven_Bot@@@@PAX@std@@@1@QAPAU?$_List_node@PAV?$Trigger@VRaven_Bot@@@@PAX@1@@Z ENDP ; std::_Default_allocator_traits<std::allocator<std::_List_node<Trigger<Raven_Bot> *,void *> > >::destroy<std::_List_node<Trigger<Raven_Bot> *,void *> *>
_TEXT	ENDS
; Function compile flags: /Odtp /RTCsu
; File c:\program files (x86)\microsoft visual studio\2017\community\vc\tools\msvc\14.15.26726\include\xmemory0
;	COMDAT ??$_Allocate_manually_vector_aligned@U_Default_allocate_traits@std@@@std@@YAPAXI@Z
_TEXT	SEGMENT
__Ptr$ = -12						; size = 4
__Ptr_container$ = -8					; size = 4
__Block_size$ = -4					; size = 4
__Bytes$ = 8						; size = 4
??$_Allocate_manually_vector_aligned@U_Default_allocate_traits@std@@@std@@YAPAXI@Z PROC ; std::_Allocate_manually_vector_aligned<std::_Default_allocate_traits>, COMDAT

; 92   : 	{	// allocate _Bytes manually aligned to at least _Big_allocation_alignment

	push	ebp
	mov	ebp, esp
	sub	esp, 12					; 0000000cH
	mov	DWORD PTR [ebp-12], -858993460		; ccccccccH
	mov	DWORD PTR [ebp-8], -858993460		; ccccccccH
	mov	DWORD PTR [ebp-4], -858993460		; ccccccccH

; 93   : 	size_t _Block_size = _Non_user_size + _Bytes;

	mov	eax, DWORD PTR __Bytes$[ebp]
	add	eax, 39					; 00000027H
	mov	DWORD PTR __Block_size$[ebp], eax

; 94   : 	if (_Block_size <= _Bytes)

	mov	ecx, DWORD PTR __Block_size$[ebp]
	cmp	ecx, DWORD PTR __Bytes$[ebp]
	ja	SHORT $LN8@Allocate_m

; 95   : 		{	// add overflow, try allocating all of memory and assume the
; 96   : 			// allocation function will throw bad_alloc
; 97   : 		_Block_size = static_cast<size_t>(-1);

	mov	DWORD PTR __Block_size$[ebp], -1
$LN8@Allocate_m:

; 98   : 		}
; 99   : 
; 100  : 	const uintptr_t _Ptr_container = reinterpret_cast<uintptr_t>(_Traits::_Allocate(_Block_size));

	mov	edx, DWORD PTR __Block_size$[ebp]
	push	edx
	call	?_Allocate@_Default_allocate_traits@std@@SAPAXI@Z ; std::_Default_allocate_traits::_Allocate
	add	esp, 4
	mov	DWORD PTR __Ptr_container$[ebp], eax
$LN4@Allocate_m:

; 101  : 	_STL_VERIFY(_Ptr_container != 0, "invalid argument");	// validate even in release since we're doing p[-1]

	cmp	DWORD PTR __Ptr_container$[ebp], 0
	je	SHORT $LN7@Allocate_m
	jmp	SHORT $LN2@Allocate_m
$LN7@Allocate_m:
	push	OFFSET ??_C@_0BB@FCMFBGOM@invalid?5argument@
	push	OFFSET ??_C@_02DKCKIIND@?$CFs@
	push	0
	push	101					; 00000065H
	push	OFFSET ??_C@_0GJ@CAJJPMGE@c?3?2program?5files?5?$CIx86?$CJ?2microsof@
	push	2
	call	__CrtDbgReport
	add	esp, 24					; 00000018H
	cmp	eax, 1
	jne	SHORT $LN12@Allocate_m
	int	3
$LN12@Allocate_m:
	push	0
	push	101					; 00000065H
	push	OFFSET ??_C@_1NC@ICJKIMIP@?$AAc?$AA?3?$AA?2?$AAp?$AAr?$AAo?$AAg?$AAr?$AAa?$AAm?$AA?5?$AAf?$AAi?$AAl?$AAe@
	push	OFFSET ??_C@_1EO@GFNCMDLA@?$AAs?$AAt?$AAd?$AA?3?$AA?3?$AA_?$AAA?$AAl?$AAl?$AAo?$AAc?$AAa?$AAt?$AAe?$AA_@
	push	OFFSET ??_C@_1CG@JNLFBNGN@?$AA?$CC?$AAi?$AAn?$AAv?$AAa?$AAl?$AAi?$AAd?$AA?5?$AAa?$AAr?$AAg?$AAu?$AAm?$AAe@
	call	__invalid_parameter
	add	esp, 20					; 00000014H
	xor	ecx, ecx
	jne	SHORT $LN7@Allocate_m
$LN2@Allocate_m:
	xor	edx, edx
	jne	SHORT $LN4@Allocate_m

; 102  : 	void * const _Ptr = reinterpret_cast<void *>((_Ptr_container + _Non_user_size)
; 103  : 		& ~(_Big_allocation_alignment - 1));

	mov	eax, DWORD PTR __Ptr_container$[ebp]
	add	eax, 39					; 00000027H
	and	eax, -32				; ffffffe0H
	mov	DWORD PTR __Ptr$[ebp], eax

; 104  : 	static_cast<uintptr_t *>(_Ptr)[-1] = _Ptr_container;

	mov	ecx, 4
	imul	edx, ecx, -1
	mov	eax, DWORD PTR __Ptr$[ebp]
	mov	ecx, DWORD PTR __Ptr_container$[ebp]
	mov	DWORD PTR [eax+edx], ecx

; 105  : 
; 106  :   #ifdef _DEBUG
; 107  : 	static_cast<uintptr_t *>(_Ptr)[-2] = _Big_allocation_sentinel;

	mov	edx, 4
	imul	eax, edx, -2
	mov	ecx, DWORD PTR __Ptr$[ebp]
	mov	DWORD PTR [ecx+eax], -84215046		; fafafafaH

; 108  :   #endif /* _DEBUG */
; 109  : 	return (_Ptr);

	mov	eax, DWORD PTR __Ptr$[ebp]

; 110  : 	}

	add	esp, 12					; 0000000cH
	cmp	ebp, esp
	call	__RTC_CheckEsp
	mov	esp, ebp
	pop	ebp
	ret	0
??$_Allocate_manually_vector_aligned@U_Default_allocate_traits@std@@@std@@YAPAXI@Z ENDP ; std::_Allocate_manually_vector_aligned<std::_Default_allocate_traits>
_TEXT	ENDS
; Function compile flags: /Odtp /RTCsu
; File c:\program files (x86)\microsoft visual studio\2017\community\vc\tools\msvc\14.15.26726\include\xmemory0
;	COMDAT ??$destroy@PAU?$_List_node@PAVRaven_Bot@@PAX@std@@@?$_Default_allocator_traits@V?$allocator@U?$_List_node@PAVRaven_Bot@@PAX@std@@@std@@@std@@SAXAAV?$allocator@U?$_List_node@PAVRaven_Bot@@PAX@std@@@1@QAPAU?$_List_node@PAVRaven_Bot@@PAX@1@@Z
_TEXT	SEGMENT
___formal$ = 8						; size = 4
__Ptr$ = 12						; size = 4
??$destroy@PAU?$_List_node@PAVRaven_Bot@@PAX@std@@@?$_Default_allocator_traits@V?$allocator@U?$_List_node@PAVRaven_Bot@@PAX@std@@@std@@@std@@SAXAAV?$allocator@U?$_List_node@PAVRaven_Bot@@PAX@std@@@1@QAPAU?$_List_node@PAVRaven_Bot@@PAX@1@@Z PROC ; std::_Default_allocator_traits<std::allocator<std::_List_node<Raven_Bot *,void *> > >::destroy<std::_List_node<Raven_Bot *,void *> *>, COMDAT

; 886  : 		{	// destroy object at _Ptr

	push	ebp
	mov	ebp, esp

; 887  : 		_Ptr->~_Uty();
; 888  : 		}

	pop	ebp
	ret	0
??$destroy@PAU?$_List_node@PAVRaven_Bot@@PAX@std@@@?$_Default_allocator_traits@V?$allocator@U?$_List_node@PAVRaven_Bot@@PAX@std@@@std@@@std@@SAXAAV?$allocator@U?$_List_node@PAVRaven_Bot@@PAX@std@@@1@QAPAU?$_List_node@PAVRaven_Bot@@PAX@1@@Z ENDP ; std::_Default_allocator_traits<std::allocator<std::_List_node<Raven_Bot *,void *> > >::destroy<std::_List_node<Raven_Bot *,void *> *>
_TEXT	ENDS
; Function compile flags: /Odtp /RTCsu
; File c:\program files (x86)\microsoft visual studio\2017\community\vc\tools\msvc\14.15.26726\include\list
;	COMDAT ??$_Buynode@ABQAV?$Trigger@VRaven_Bot@@@@@?$_List_buy@PAV?$Trigger@VRaven_Bot@@@@V?$allocator@PAV?$Trigger@VRaven_Bot@@@@@std@@@std@@QAEPAU?$_List_node@PAV?$Trigger@VRaven_Bot@@@@PAX@1@PAU21@0ABQAV?$Trigger@VRaven_Bot@@@@@Z
_TEXT	SEGMENT
__Al$ = -28						; size = 4
__Pnode$ = -24						; size = 4
_this$ = -20						; size = 4
__$EHRec$ = -16						; size = 16
__Next$ = 8						; size = 4
__Prev$ = 12						; size = 4
_<_Val_0>$ = 16						; size = 4
??$_Buynode@ABQAV?$Trigger@VRaven_Bot@@@@@?$_List_buy@PAV?$Trigger@VRaven_Bot@@@@V?$allocator@PAV?$Trigger@VRaven_Bot@@@@@std@@@std@@QAEPAU?$_List_node@PAV?$Trigger@VRaven_Bot@@@@PAX@1@PAU21@0ABQAV?$Trigger@VRaven_Bot@@@@@Z PROC ; std::_List_buy<Trigger<Raven_Bot> *,std::allocator<Trigger<Raven_Bot> *> >::_Buynode<Trigger<Raven_Bot> * const &>, COMDAT
; _this$ = ecx

; 711  : 		{	// allocate a node and set links and value

	push	ebp
	mov	ebp, esp
	push	-1
	push	__ehhandler$??$_Buynode@ABQAV?$Trigger@VRaven_Bot@@@@@?$_List_buy@PAV?$Trigger@VRaven_Bot@@@@V?$allocator@PAV?$Trigger@VRaven_Bot@@@@@std@@@std@@QAEPAU?$_List_node@PAV?$Trigger@VRaven_Bot@@@@PAX@1@PAU21@0ABQAV?$Trigger@VRaven_Bot@@@@@Z
	mov	eax, DWORD PTR fs:0
	push	eax
	push	ecx
	sub	esp, 12					; 0000000cH
	push	ebx
	push	esi
	push	edi
	mov	DWORD PTR [ebp-28], -858993460		; ccccccccH
	mov	DWORD PTR [ebp-24], -858993460		; ccccccccH
	mov	DWORD PTR [ebp-20], -858993460		; ccccccccH
	mov	eax, DWORD PTR ___security_cookie
	xor	eax, ebp
	push	eax
	lea	eax, DWORD PTR __$EHRec$[ebp+4]
	mov	DWORD PTR fs:0, eax
	mov	DWORD PTR __$EHRec$[ebp], esp
	mov	DWORD PTR _this$[ebp], ecx

; 712  : 		_Nodeptr _Pnode = this->_Buynode0(_Next, _Prev);

	mov	eax, DWORD PTR __Prev$[ebp]
	push	eax
	mov	ecx, DWORD PTR __Next$[ebp]
	push	ecx
	mov	ecx, DWORD PTR _this$[ebp]
	call	?_Buynode0@?$_List_alloc@U?$_List_base_types@PAV?$Trigger@VRaven_Bot@@@@V?$allocator@PAV?$Trigger@VRaven_Bot@@@@@std@@@std@@@std@@QAEPAU?$_List_node@PAV?$Trigger@VRaven_Bot@@@@PAX@2@PAU32@0@Z ; std::_List_alloc<std::_List_base_types<Trigger<Raven_Bot> *,std::allocator<Trigger<Raven_Bot> *> > >::_Buynode0
	mov	DWORD PTR __Pnode$[ebp], eax

; 713  : 		_Alnode& _Al = this->_Getal();

	mov	ecx, DWORD PTR _this$[ebp]
	call	?_Getal@?$_List_alloc@U?$_List_base_types@PAV?$Trigger@VRaven_Bot@@@@V?$allocator@PAV?$Trigger@VRaven_Bot@@@@@std@@@std@@@std@@QAEAAV?$allocator@U?$_List_node@PAV?$Trigger@VRaven_Bot@@@@PAX@std@@@2@XZ ; std::_List_alloc<std::_List_base_types<Trigger<Raven_Bot> *,std::allocator<Trigger<Raven_Bot> *> > >::_Getal
	mov	DWORD PTR __Al$[ebp], eax

; 714  : 
; 715  : 		_TRY_BEGIN

	mov	DWORD PTR __$EHRec$[ebp+12], 0

; 716  : 		_Alnode_traits::construct(_Al,

	mov	edx, DWORD PTR _<_Val_0>$[ebp]
	push	edx
	call	??$forward@ABQAV?$Trigger@VRaven_Bot@@@@@std@@YAABQAV?$Trigger@VRaven_Bot@@@@ABQAV1@@Z ; std::forward<Trigger<Raven_Bot> * const &>
	add	esp, 4
	push	eax
	mov	eax, DWORD PTR __Pnode$[ebp]
	add	eax, 8
	push	eax
	call	??$addressof@PAV?$Trigger@VRaven_Bot@@@@@std@@YAPAPAV?$Trigger@VRaven_Bot@@@@AAPAV1@@Z ; std::addressof<Trigger<Raven_Bot> *>
	add	esp, 4
	push	eax
	mov	ecx, DWORD PTR __Al$[ebp]
	push	ecx
	call	??$construct@PAV?$Trigger@VRaven_Bot@@@@ABQAV1@@?$_Default_allocator_traits@V?$allocator@U?$_List_node@PAV?$Trigger@VRaven_Bot@@@@PAX@std@@@std@@@std@@SAXAAV?$allocator@U?$_List_node@PAV?$Trigger@VRaven_Bot@@@@PAX@std@@@1@QAPAV?$Trigger@VRaven_Bot@@@@ABQAV3@@Z ; std::_Default_allocator_traits<std::allocator<std::_List_node<Trigger<Raven_Bot> *,void *> > >::construct<Trigger<Raven_Bot> *,Trigger<Raven_Bot> * const &>
	add	esp, 12					; 0000000cH
	jmp	SHORT $LN4@Buynode
__catch$??$_Buynode@ABQAV?$Trigger@VRaven_Bot@@@@@?$_List_buy@PAV?$Trigger@VRaven_Bot@@@@V?$allocator@PAV?$Trigger@VRaven_Bot@@@@@std@@@std@@QAEPAU?$_List_node@PAV?$Trigger@VRaven_Bot@@@@PAX@1@PAU21@0ABQAV?$Trigger@VRaven_Bot@@@@@Z$0:

; 717  : 			_STD addressof(_Pnode->_Myval),
; 718  : 			_STD forward<_Valty>(_Val)...);
; 719  : 		_CATCH_ALL
; 720  : 		_Al.deallocate(_Pnode, 1);

	push	1
	mov	edx, DWORD PTR __Pnode$[ebp]
	push	edx
	mov	ecx, DWORD PTR __Al$[ebp]
	call	?deallocate@?$allocator@U?$_List_node@PAV?$Trigger@VRaven_Bot@@@@PAX@std@@@std@@QAEXQAU?$_List_node@PAV?$Trigger@VRaven_Bot@@@@PAX@2@I@Z ; std::allocator<std::_List_node<Trigger<Raven_Bot> *,void *> >::deallocate

; 721  : 		_RERAISE;

	push	0
	push	0
	call	__CxxThrowException@8

; 722  : 		_CATCH_END

	mov	eax, $LN7@Buynode
	ret	0
$LN4@Buynode:
	mov	DWORD PTR __$EHRec$[ebp+12], -1
	jmp	SHORT __tryend$??$_Buynode@ABQAV?$Trigger@VRaven_Bot@@@@@?$_List_buy@PAV?$Trigger@VRaven_Bot@@@@V?$allocator@PAV?$Trigger@VRaven_Bot@@@@@std@@@std@@QAEPAU?$_List_node@PAV?$Trigger@VRaven_Bot@@@@PAX@1@PAU21@0ABQAV?$Trigger@VRaven_Bot@@@@@Z$1
$LN7@Buynode:
	mov	DWORD PTR __$EHRec$[ebp+12], -1
__tryend$??$_Buynode@ABQAV?$Trigger@VRaven_Bot@@@@@?$_List_buy@PAV?$Trigger@VRaven_Bot@@@@V?$allocator@PAV?$Trigger@VRaven_Bot@@@@@std@@@std@@QAEPAU?$_List_node@PAV?$Trigger@VRaven_Bot@@@@PAX@1@PAU21@0ABQAV?$Trigger@VRaven_Bot@@@@@Z$1:

; 723  : 
; 724  : 		return (_Pnode);

	mov	eax, DWORD PTR __Pnode$[ebp]
$LN3@Buynode:

; 725  : 		}

	mov	ecx, DWORD PTR __$EHRec$[ebp+4]
	mov	DWORD PTR fs:0, ecx
	pop	ecx
	pop	edi
	pop	esi
	pop	ebx
	add	esp, 28					; 0000001cH
	cmp	ebp, esp
	call	__RTC_CheckEsp
	mov	esp, ebp
	pop	ebp
	ret	12					; 0000000cH
_TEXT	ENDS
;	COMDAT text$x
text$x	SEGMENT
__ehhandler$??$_Buynode@ABQAV?$Trigger@VRaven_Bot@@@@@?$_List_buy@PAV?$Trigger@VRaven_Bot@@@@V?$allocator@PAV?$Trigger@VRaven_Bot@@@@@std@@@std@@QAEPAU?$_List_node@PAV?$Trigger@VRaven_Bot@@@@PAX@1@PAU21@0ABQAV?$Trigger@VRaven_Bot@@@@@Z:
	mov	edx, DWORD PTR [esp+8]
	lea	eax, DWORD PTR [edx+12]
	mov	ecx, DWORD PTR [edx-32]
	xor	ecx, eax
	call	@__security_check_cookie@4
	mov	eax, OFFSET __ehfuncinfo$??$_Buynode@ABQAV?$Trigger@VRaven_Bot@@@@@?$_List_buy@PAV?$Trigger@VRaven_Bot@@@@V?$allocator@PAV?$Trigger@VRaven_Bot@@@@@std@@@std@@QAEPAU?$_List_node@PAV?$Trigger@VRaven_Bot@@@@PAX@1@PAU21@0ABQAV?$Trigger@VRaven_Bot@@@@@Z
	jmp	___CxxFrameHandler3
text$x	ENDS
??$_Buynode@ABQAV?$Trigger@VRaven_Bot@@@@@?$_List_buy@PAV?$Trigger@VRaven_Bot@@@@V?$allocator@PAV?$Trigger@VRaven_Bot@@@@@std@@@std@@QAEPAU?$_List_node@PAV?$Trigger@VRaven_Bot@@@@PAX@1@PAU21@0ABQAV?$Trigger@VRaven_Bot@@@@@Z ENDP ; std::_List_buy<Trigger<Raven_Bot> *,std::allocator<Trigger<Raven_Bot> *> >::_Buynode<Trigger<Raven_Bot> * const &>
; Function compile flags: /Odtp /RTCsu
; File c:\program files (x86)\microsoft visual studio\2017\community\vc\tools\msvc\14.15.26726\include\type_traits
;	COMDAT ??$forward@ABQAV?$Trigger@VRaven_Bot@@@@@std@@YAABQAV?$Trigger@VRaven_Bot@@@@ABQAV1@@Z
_TEXT	SEGMENT
__Arg$ = 8						; size = 4
??$forward@ABQAV?$Trigger@VRaven_Bot@@@@@std@@YAABQAV?$Trigger@VRaven_Bot@@@@ABQAV1@@Z PROC ; std::forward<Trigger<Raven_Bot> * const &>, COMDAT

; 1573 : 	{	// forward an lvalue as either an lvalue or an rvalue

	push	ebp
	mov	ebp, esp

; 1574 : 	return (static_cast<_Ty&&>(_Arg));

	mov	eax, DWORD PTR __Arg$[ebp]

; 1575 : 	}

	pop	ebp
	ret	0
??$forward@ABQAV?$Trigger@VRaven_Bot@@@@@std@@YAABQAV?$Trigger@VRaven_Bot@@@@ABQAV1@@Z ENDP ; std::forward<Trigger<Raven_Bot> * const &>
_TEXT	ENDS
; Function compile flags: /Odtp /RTCsu
; File c:\program files (x86)\microsoft visual studio\2017\community\vc\tools\msvc\14.15.26726\include\xmemory0
;	COMDAT ??$_Get_size_of_n@$0M@@std@@YAII@Z
_TEXT	SEGMENT
__Result$ = -8						; size = 4
__Max_possible$ = -4					; size = 4
__Count$ = 8						; size = 4
??$_Get_size_of_n@$0M@@std@@YAII@Z PROC			; std::_Get_size_of_n<12>, COMDAT

; 23   : 	{	// gets the size of _Count copies of a type sized _Ty_size

	push	ebp
	mov	ebp, esp
	sub	esp, 8
	mov	DWORD PTR [ebp-8], -858993460		; ccccccccH
	mov	DWORD PTR [ebp-4], -858993460		; ccccccccH

; 24   : 	constexpr size_t _Max_possible = static_cast<size_t>(-1) / _Ty_size;

	mov	DWORD PTR __Max_possible$[ebp], 357913941 ; 15555555H

; 25   : 	size_t _Result = _Count * _Ty_size;

	imul	eax, DWORD PTR __Count$[ebp], 12
	mov	DWORD PTR __Result$[ebp], eax

; 26   : 	if (_Max_possible < _Count)

	cmp	DWORD PTR __Count$[ebp], 357913941	; 15555555H
	jbe	SHORT $LN2@Get_size_o

; 27   : 		{	// multiply overflow, try allocating all of memory and assume the
; 28   : 			// allocation function will throw bad_alloc
; 29   : 		_Result = static_cast<size_t>(-1);

	mov	DWORD PTR __Result$[ebp], -1
$LN2@Get_size_o:

; 30   : 		}
; 31   : 
; 32   : 	return (_Result);

	mov	eax, DWORD PTR __Result$[ebp]

; 33   : 	}

	mov	esp, ebp
	pop	ebp
	ret	0
??$_Get_size_of_n@$0M@@std@@YAII@Z ENDP			; std::_Get_size_of_n<12>
_TEXT	ENDS
; Function compile flags: /Odtp /RTCsu
; File c:\program files (x86)\microsoft visual studio\2017\community\vc\tools\msvc\14.15.26726\include\xmemory0
;	COMDAT ??$construct@PAU?$_List_node@PAV?$Trigger@VRaven_Bot@@@@PAX@std@@AAPAU12@@?$_Default_allocator_traits@V?$allocator@U?$_List_node@PAV?$Trigger@VRaven_Bot@@@@PAX@std@@@std@@@std@@SAXAAV?$allocator@U?$_List_node@PAV?$Trigger@VRaven_Bot@@@@PAX@std@@@1@QAPAU?$_List_node@PAV?$Trigger@VRaven_Bot@@@@PAX@1@AAPAU31@@Z
_TEXT	SEGMENT
$T1 = -4						; size = 4
___formal$ = 8						; size = 4
__Ptr$ = 12						; size = 4
_<_Args_0>$ = 16					; size = 4
??$construct@PAU?$_List_node@PAV?$Trigger@VRaven_Bot@@@@PAX@std@@AAPAU12@@?$_Default_allocator_traits@V?$allocator@U?$_List_node@PAV?$Trigger@VRaven_Bot@@@@PAX@std@@@std@@@std@@SAXAAV?$allocator@U?$_List_node@PAV?$Trigger@VRaven_Bot@@@@PAX@std@@@1@QAPAU?$_List_node@PAV?$Trigger@VRaven_Bot@@@@PAX@1@AAPAU31@@Z PROC ; std::_Default_allocator_traits<std::allocator<std::_List_node<Trigger<Raven_Bot> *,void *> > >::construct<std::_List_node<Trigger<Raven_Bot> *,void *> *,std::_List_node<Trigger<Raven_Bot> *,void *> * &>, COMDAT

; 879  : 		{	// construct _Objty(_Types...) at _Ptr

	push	ebp
	mov	ebp, esp
	push	ecx
	mov	DWORD PTR [ebp-4], -858993460		; ccccccccH

; 880  : 		::new (const_cast<void *>(static_cast<const volatile void *>(_Ptr)))

	mov	eax, DWORD PTR __Ptr$[ebp]
	push	eax
	push	4
	call	??2@YAPAXIPAX@Z				; operator new
	add	esp, 8
	mov	DWORD PTR $T1[ebp], eax
	mov	ecx, DWORD PTR _<_Args_0>$[ebp]
	push	ecx
	call	??$forward@AAPAU?$_List_node@PAV?$Trigger@VRaven_Bot@@@@PAX@std@@@std@@YAAAPAU?$_List_node@PAV?$Trigger@VRaven_Bot@@@@PAX@0@AAPAU10@@Z ; std::forward<std::_List_node<Trigger<Raven_Bot> *,void *> * &>
	add	esp, 4
	mov	edx, DWORD PTR $T1[ebp]
	mov	eax, DWORD PTR [eax]
	mov	DWORD PTR [edx], eax

; 881  : 			_Objty(_STD forward<_Types>(_Args)...);
; 882  : 		}

	add	esp, 4
	cmp	ebp, esp
	call	__RTC_CheckEsp
	mov	esp, ebp
	pop	ebp
	ret	0
??$construct@PAU?$_List_node@PAV?$Trigger@VRaven_Bot@@@@PAX@std@@AAPAU12@@?$_Default_allocator_traits@V?$allocator@U?$_List_node@PAV?$Trigger@VRaven_Bot@@@@PAX@std@@@std@@@std@@SAXAAV?$allocator@U?$_List_node@PAV?$Trigger@VRaven_Bot@@@@PAX@std@@@1@QAPAU?$_List_node@PAV?$Trigger@VRaven_Bot@@@@PAX@1@AAPAU31@@Z ENDP ; std::_Default_allocator_traits<std::allocator<std::_List_node<Trigger<Raven_Bot> *,void *> > >::construct<std::_List_node<Trigger<Raven_Bot> *,void *> *,std::_List_node<Trigger<Raven_Bot> *,void *> * &>
_TEXT	ENDS
; Function compile flags: /Odtp /RTCsu
; File c:\program files (x86)\microsoft visual studio\2017\community\vc\tools\msvc\14.15.26726\include\xstddef
;	COMDAT ??$addressof@PAU?$_List_node@PAV?$Trigger@VRaven_Bot@@@@PAX@std@@@std@@YAPAPAU?$_List_node@PAV?$Trigger@VRaven_Bot@@@@PAX@0@AAPAU10@@Z
_TEXT	SEGMENT
__Val$ = 8						; size = 4
??$addressof@PAU?$_List_node@PAV?$Trigger@VRaven_Bot@@@@PAX@std@@@std@@YAPAPAU?$_List_node@PAV?$Trigger@VRaven_Bot@@@@PAX@0@AAPAU10@@Z PROC ; std::addressof<std::_List_node<Trigger<Raven_Bot> *,void *> *>, COMDAT

; 329  : 	{	// return address of _Val

	push	ebp
	mov	ebp, esp

; 330  : 	return (__builtin_addressof(_Val));

	mov	eax, DWORD PTR __Val$[ebp]

; 331  : 	}

	pop	ebp
	ret	0
??$addressof@PAU?$_List_node@PAV?$Trigger@VRaven_Bot@@@@PAX@std@@@std@@YAPAPAU?$_List_node@PAV?$Trigger@VRaven_Bot@@@@PAX@0@AAPAU10@@Z ENDP ; std::addressof<std::_List_node<Trigger<Raven_Bot> *,void *> *>
_TEXT	ENDS
; Function compile flags: /Odtp /RTCsu
; File c:\program files (x86)\microsoft visual studio\2017\community\vc\tools\msvc\14.15.26726\include\xstddef
;	COMDAT ??$addressof@PAU?$_List_node@PAVRaven_Bot@@PAX@std@@@std@@YAPAPAU?$_List_node@PAVRaven_Bot@@PAX@0@AAPAU10@@Z
_TEXT	SEGMENT
__Val$ = 8						; size = 4
??$addressof@PAU?$_List_node@PAVRaven_Bot@@PAX@std@@@std@@YAPAPAU?$_List_node@PAVRaven_Bot@@PAX@0@AAPAU10@@Z PROC ; std::addressof<std::_List_node<Raven_Bot *,void *> *>, COMDAT

; 329  : 	{	// return address of _Val

	push	ebp
	mov	ebp, esp

; 330  : 	return (__builtin_addressof(_Val));

	mov	eax, DWORD PTR __Val$[ebp]

; 331  : 	}

	pop	ebp
	ret	0
??$addressof@PAU?$_List_node@PAVRaven_Bot@@PAX@std@@@std@@YAPAPAU?$_List_node@PAVRaven_Bot@@PAX@0@AAPAU10@@Z ENDP ; std::addressof<std::_List_node<Raven_Bot *,void *> *>
_TEXT	ENDS
; Function compile flags: /Odtp /RTCsu
; File c:\program files (x86)\microsoft visual studio\2017\community\vc\tools\msvc\14.15.26726\include\xmemory0
;	COMDAT ??$destroy@PAV?$Trigger@VRaven_Bot@@@@@?$_Default_allocator_traits@V?$allocator@U?$_List_node@PAV?$Trigger@VRaven_Bot@@@@PAX@std@@@std@@@std@@SAXAAV?$allocator@U?$_List_node@PAV?$Trigger@VRaven_Bot@@@@PAX@std@@@1@QAPAV?$Trigger@VRaven_Bot@@@@@Z
_TEXT	SEGMENT
___formal$ = 8						; size = 4
__Ptr$ = 12						; size = 4
??$destroy@PAV?$Trigger@VRaven_Bot@@@@@?$_Default_allocator_traits@V?$allocator@U?$_List_node@PAV?$Trigger@VRaven_Bot@@@@PAX@std@@@std@@@std@@SAXAAV?$allocator@U?$_List_node@PAV?$Trigger@VRaven_Bot@@@@PAX@std@@@1@QAPAV?$Trigger@VRaven_Bot@@@@@Z PROC ; std::_Default_allocator_traits<std::allocator<std::_List_node<Trigger<Raven_Bot> *,void *> > >::destroy<Trigger<Raven_Bot> *>, COMDAT

; 886  : 		{	// destroy object at _Ptr

	push	ebp
	mov	ebp, esp

; 887  : 		_Ptr->~_Uty();
; 888  : 		}

	pop	ebp
	ret	0
??$destroy@PAV?$Trigger@VRaven_Bot@@@@@?$_Default_allocator_traits@V?$allocator@U?$_List_node@PAV?$Trigger@VRaven_Bot@@@@PAX@std@@@std@@@std@@SAXAAV?$allocator@U?$_List_node@PAV?$Trigger@VRaven_Bot@@@@PAX@std@@@1@QAPAV?$Trigger@VRaven_Bot@@@@@Z ENDP ; std::_Default_allocator_traits<std::allocator<std::_List_node<Trigger<Raven_Bot> *,void *> > >::destroy<Trigger<Raven_Bot> *>
_TEXT	ENDS
; Function compile flags: /Odtp /RTCsu
; File c:\program files (x86)\microsoft visual studio\2017\community\vc\tools\msvc\14.15.26726\include\xstddef
;	COMDAT ??$addressof@PAV?$Trigger@VRaven_Bot@@@@@std@@YAPAPAV?$Trigger@VRaven_Bot@@@@AAPAV1@@Z
_TEXT	SEGMENT
__Val$ = 8						; size = 4
??$addressof@PAV?$Trigger@VRaven_Bot@@@@@std@@YAPAPAV?$Trigger@VRaven_Bot@@@@AAPAV1@@Z PROC ; std::addressof<Trigger<Raven_Bot> *>, COMDAT

; 329  : 	{	// return address of _Val

	push	ebp
	mov	ebp, esp

; 330  : 	return (__builtin_addressof(_Val));

	mov	eax, DWORD PTR __Val$[ebp]

; 331  : 	}

	pop	ebp
	ret	0
??$addressof@PAV?$Trigger@VRaven_Bot@@@@@std@@YAPAPAV?$Trigger@VRaven_Bot@@@@AAPAV1@@Z ENDP ; std::addressof<Trigger<Raven_Bot> *>
_TEXT	ENDS
; Function compile flags: /Odtp /RTCsu
; File c:\program files (x86)\microsoft visual studio\2017\community\vc\tools\msvc\14.15.26726\include\xmemory0
;	COMDAT ??$_Destroy_range@V?$allocator@V?$NavGraphNode@PAV?$Trigger@VRaven_Bot@@@@@@@std@@@std@@YAXPAV?$NavGraphNode@PAV?$Trigger@VRaven_Bot@@@@@@0AAV?$allocator@V?$NavGraphNode@PAV?$Trigger@VRaven_Bot@@@@@@@0@@Z
_TEXT	SEGMENT
$T1 = -1						; size = 1
__First$ = 8						; size = 4
__Last$ = 12						; size = 4
__Al$ = 16						; size = 4
??$_Destroy_range@V?$allocator@V?$NavGraphNode@PAV?$Trigger@VRaven_Bot@@@@@@@std@@@std@@YAXPAV?$NavGraphNode@PAV?$Trigger@VRaven_Bot@@@@@@0AAV?$allocator@V?$NavGraphNode@PAV?$Trigger@VRaven_Bot@@@@@@@0@@Z PROC ; std::_Destroy_range<std::allocator<NavGraphNode<Trigger<Raven_Bot> *> > >, COMDAT

; 1154 : 	{	// destroy [_First, _Last), choose optimization

	push	ebp
	mov	ebp, esp
	push	ecx
	mov	DWORD PTR [ebp-4], -858993460		; ccccccccH

; 1155 : 		// note that this is an optimization for debug mode codegen;
; 1156 : 		// in release mode the BE removes all of this
; 1157 : 	using _Val = typename _Alloc::value_type;
; 1158 : 	_Destroy_range1(_First, _Last, _Al, bool_constant<conjunction_v<

	xor	eax, eax
	mov	BYTE PTR $T1[ebp], al
	movzx	ecx, BYTE PTR $T1[ebp]
	push	ecx
	mov	edx, DWORD PTR __Al$[ebp]
	push	edx
	mov	eax, DWORD PTR __Last$[ebp]
	push	eax
	mov	ecx, DWORD PTR __First$[ebp]
	push	ecx
	call	??$_Destroy_range1@V?$allocator@V?$NavGraphNode@PAV?$Trigger@VRaven_Bot@@@@@@@std@@@std@@YAXPAV?$NavGraphNode@PAV?$Trigger@VRaven_Bot@@@@@@0AAV?$allocator@V?$NavGraphNode@PAV?$Trigger@VRaven_Bot@@@@@@@0@U?$integral_constant@_N$0A@@0@@Z ; std::_Destroy_range1<std::allocator<NavGraphNode<Trigger<Raven_Bot> *> > >
	add	esp, 16					; 00000010H

; 1159 : 		is_trivially_destructible<_Val>,
; 1160 : 		_Uses_default_destroy<_Alloc, _Val *>>>{});
; 1161 : 	}

	add	esp, 4
	cmp	ebp, esp
	call	__RTC_CheckEsp
	mov	esp, ebp
	pop	ebp
	ret	0
??$_Destroy_range@V?$allocator@V?$NavGraphNode@PAV?$Trigger@VRaven_Bot@@@@@@@std@@@std@@YAXPAV?$NavGraphNode@PAV?$Trigger@VRaven_Bot@@@@@@0AAV?$allocator@V?$NavGraphNode@PAV?$Trigger@VRaven_Bot@@@@@@@0@@Z ENDP ; std::_Destroy_range<std::allocator<NavGraphNode<Trigger<Raven_Bot> *> > >
_TEXT	ENDS
; Function compile flags: /Odtp /RTCsu
; File c:\program files (x86)\microsoft visual studio\2017\community\vc\tools\msvc\14.15.26726\include\xmemory0
;	COMDAT ??$_Destroy_range@V?$allocator@V?$list@VNavGraphEdge@@V?$allocator@VNavGraphEdge@@@std@@@std@@@std@@@std@@YAXPAV?$list@VNavGraphEdge@@V?$allocator@VNavGraphEdge@@@std@@@0@0AAV?$allocator@V?$list@VNavGraphEdge@@V?$allocator@VNavGraphEdge@@@std@@@std@@@0@@Z
_TEXT	SEGMENT
$T1 = -1						; size = 1
__First$ = 8						; size = 4
__Last$ = 12						; size = 4
__Al$ = 16						; size = 4
??$_Destroy_range@V?$allocator@V?$list@VNavGraphEdge@@V?$allocator@VNavGraphEdge@@@std@@@std@@@std@@@std@@YAXPAV?$list@VNavGraphEdge@@V?$allocator@VNavGraphEdge@@@std@@@0@0AAV?$allocator@V?$list@VNavGraphEdge@@V?$allocator@VNavGraphEdge@@@std@@@std@@@0@@Z PROC ; std::_Destroy_range<std::allocator<std::list<NavGraphEdge,std::allocator<NavGraphEdge> > > >, COMDAT

; 1154 : 	{	// destroy [_First, _Last), choose optimization

	push	ebp
	mov	ebp, esp
	push	ecx
	mov	DWORD PTR [ebp-4], -858993460		; ccccccccH

; 1155 : 		// note that this is an optimization for debug mode codegen;
; 1156 : 		// in release mode the BE removes all of this
; 1157 : 	using _Val = typename _Alloc::value_type;
; 1158 : 	_Destroy_range1(_First, _Last, _Al, bool_constant<conjunction_v<

	xor	eax, eax
	mov	BYTE PTR $T1[ebp], al
	movzx	ecx, BYTE PTR $T1[ebp]
	push	ecx
	mov	edx, DWORD PTR __Al$[ebp]
	push	edx
	mov	eax, DWORD PTR __Last$[ebp]
	push	eax
	mov	ecx, DWORD PTR __First$[ebp]
	push	ecx
	call	??$_Destroy_range1@V?$allocator@V?$list@VNavGraphEdge@@V?$allocator@VNavGraphEdge@@@std@@@std@@@std@@@std@@YAXPAV?$list@VNavGraphEdge@@V?$allocator@VNavGraphEdge@@@std@@@0@0AAV?$allocator@V?$list@VNavGraphEdge@@V?$allocator@VNavGraphEdge@@@std@@@std@@@0@U?$integral_constant@_N$0A@@0@@Z ; std::_Destroy_range1<std::allocator<std::list<NavGraphEdge,std::allocator<NavGraphEdge> > > >
	add	esp, 16					; 00000010H

; 1159 : 		is_trivially_destructible<_Val>,
; 1160 : 		_Uses_default_destroy<_Alloc, _Val *>>>{});
; 1161 : 	}

	add	esp, 4
	cmp	ebp, esp
	call	__RTC_CheckEsp
	mov	esp, ebp
	pop	ebp
	ret	0
??$_Destroy_range@V?$allocator@V?$list@VNavGraphEdge@@V?$allocator@VNavGraphEdge@@@std@@@std@@@std@@@std@@YAXPAV?$list@VNavGraphEdge@@V?$allocator@VNavGraphEdge@@@std@@@0@0AAV?$allocator@V?$list@VNavGraphEdge@@V?$allocator@VNavGraphEdge@@@std@@@std@@@0@@Z ENDP ; std::_Destroy_range<std::allocator<std::list<NavGraphEdge,std::allocator<NavGraphEdge> > > >
_TEXT	ENDS
; Function compile flags: /Odtp /RTCsu
;	COMDAT ??_G?$list@VNavGraphEdge@@V?$allocator@VNavGraphEdge@@@std@@@std@@QAEPAXI@Z
_TEXT	SEGMENT
_this$ = -4						; size = 4
___flags$ = 8						; size = 4
??_G?$list@VNavGraphEdge@@V?$allocator@VNavGraphEdge@@@std@@@std@@QAEPAXI@Z PROC ; std::list<NavGraphEdge,std::allocator<NavGraphEdge> >::`scalar deleting destructor', COMDAT
; _this$ = ecx
	push	ebp
	mov	ebp, esp
	push	ecx
	mov	DWORD PTR [ebp-4], -858993460		; ccccccccH
	mov	DWORD PTR _this$[ebp], ecx
	mov	ecx, DWORD PTR _this$[ebp]
	call	??1?$list@VNavGraphEdge@@V?$allocator@VNavGraphEdge@@@std@@@std@@QAE@XZ ; std::list<NavGraphEdge,std::allocator<NavGraphEdge> >::~list<NavGraphEdge,std::allocator<NavGraphEdge> >
	mov	eax, DWORD PTR ___flags$[ebp]
	and	eax, 1
	je	SHORT $LN2@scalar
	push	12					; 0000000cH
	mov	ecx, DWORD PTR _this$[ebp]
	push	ecx
	call	??3@YAXPAXI@Z				; operator delete
	add	esp, 8
$LN2@scalar:
	mov	eax, DWORD PTR _this$[ebp]
	add	esp, 4
	cmp	ebp, esp
	call	__RTC_CheckEsp
	mov	esp, ebp
	pop	ebp
	ret	4
??_G?$list@VNavGraphEdge@@V?$allocator@VNavGraphEdge@@@std@@@std@@QAEPAXI@Z ENDP ; std::list<NavGraphEdge,std::allocator<NavGraphEdge> >::`scalar deleting destructor'
_TEXT	ENDS
; Function compile flags: /Odtp /RTCsu
; File c:\program files (x86)\microsoft visual studio\2017\community\vc\tools\msvc\14.15.26726\include\list
;	COMDAT ?_Orphan_ptr@?$list@VNavGraphEdge@@V?$allocator@VNavGraphEdge@@@std@@@std@@QAEXPAU?$_List_node@VNavGraphEdge@@PAX@2@@Z
_TEXT	SEGMENT
__Pnext$ = -32						; size = 4
__Lock$ = -24						; size = 4
_this$ = -16						; size = 4
__$EHRec$ = -12						; size = 12
__Ptr$ = 8						; size = 4
?_Orphan_ptr@?$list@VNavGraphEdge@@V?$allocator@VNavGraphEdge@@@std@@@std@@QAEXPAU?$_List_node@VNavGraphEdge@@PAX@2@@Z PROC ; std::list<NavGraphEdge,std::allocator<NavGraphEdge> >::_Orphan_ptr, COMDAT
; _this$ = ecx

; 1804 : 		{	// orphan iterators with specified node pointers

	push	ebp
	mov	ebp, esp
	push	-1
	push	__ehhandler$?_Orphan_ptr@?$list@VNavGraphEdge@@V?$allocator@VNavGraphEdge@@@std@@@std@@QAEXPAU?$_List_node@VNavGraphEdge@@PAX@2@@Z
	mov	eax, DWORD PTR fs:0
	push	eax
	sub	esp, 20					; 00000014H
	push	esi
	mov	eax, -858993460				; ccccccccH
	mov	DWORD PTR [ebp-32], eax
	mov	DWORD PTR [ebp-28], eax
	mov	DWORD PTR [ebp-24], eax
	mov	DWORD PTR [ebp-20], eax
	mov	DWORD PTR [ebp-16], eax
	mov	eax, DWORD PTR ___security_cookie
	xor	eax, ebp
	push	eax
	lea	eax, DWORD PTR __$EHRec$[ebp]
	mov	DWORD PTR fs:0, eax
	mov	DWORD PTR _this$[ebp], ecx

; 1805 : 		_Lockit _Lock(_LOCK_DEBUG);

	push	3
	lea	ecx, DWORD PTR __Lock$[ebp]
	call	??0_Lockit@std@@QAE@H@Z			; std::_Lockit::_Lockit
	mov	DWORD PTR __$EHRec$[ebp+8], 0

; 1806 : 		const_iterator **_Pnext = (const_iterator **)this->_Getpfirst();

	mov	ecx, DWORD PTR _this$[ebp]
	call	?_Getpfirst@?$_List_alloc@U?$_List_base_types@VNavGraphEdge@@V?$allocator@VNavGraphEdge@@@std@@@std@@@std@@QBEPAPAU_Iterator_base12@2@XZ ; std::_List_alloc<std::_List_base_types<NavGraphEdge,std::allocator<NavGraphEdge> > >::_Getpfirst
	mov	DWORD PTR __Pnext$[ebp], eax

; 1807 : 		if (_Pnext != nullptr)

	cmp	DWORD PTR __Pnext$[ebp], 0
	je	SHORT $LN4@Orphan_ptr
$LN2@Orphan_ptr:

; 1808 : 			while (*_Pnext != nullptr)

	mov	eax, DWORD PTR __Pnext$[ebp]
	cmp	DWORD PTR [eax], 0
	je	SHORT $LN4@Orphan_ptr

; 1809 : 				{	// test an iterator
; 1810 : 				if ((*_Pnext)->_Ptr == this->_Myhead()
; 1811 : 					|| (_Ptr != nullptr && (*_Pnext)->_Ptr != _Ptr))

	mov	ecx, DWORD PTR __Pnext$[ebp]
	mov	esi, DWORD PTR [ecx]
	mov	ecx, DWORD PTR _this$[ebp]
	call	?_Myhead@?$_List_alloc@U?$_List_base_types@VNavGraphEdge@@V?$allocator@VNavGraphEdge@@@std@@@std@@@std@@QAEAAPAU?$_List_node@VNavGraphEdge@@PAX@2@XZ ; std::_List_alloc<std::_List_base_types<NavGraphEdge,std::allocator<NavGraphEdge> > >::_Myhead
	mov	edx, DWORD PTR [esi+8]
	cmp	edx, DWORD PTR [eax]
	je	SHORT $LN7@Orphan_ptr
	cmp	DWORD PTR __Ptr$[ebp], 0
	je	SHORT $LN5@Orphan_ptr
	mov	eax, DWORD PTR __Pnext$[ebp]
	mov	ecx, DWORD PTR [eax]
	mov	edx, DWORD PTR [ecx+8]
	cmp	edx, DWORD PTR __Ptr$[ebp]
	je	SHORT $LN5@Orphan_ptr
$LN7@Orphan_ptr:

; 1812 : 					_Pnext = (const_iterator **)(*_Pnext)->_Getpnext();

	mov	eax, DWORD PTR __Pnext$[ebp]
	mov	ecx, DWORD PTR [eax]
	call	?_Getpnext@_Iterator_base12@std@@QAEPAPAU12@XZ ; std::_Iterator_base12::_Getpnext
	mov	DWORD PTR __Pnext$[ebp], eax

; 1813 : 				else

	jmp	SHORT $LN6@Orphan_ptr
$LN5@Orphan_ptr:

; 1814 : 					{	// orphan the iterator
; 1815 : 					(*_Pnext)->_Clrcont();

	mov	ecx, DWORD PTR __Pnext$[ebp]
	mov	ecx, DWORD PTR [ecx]
	call	?_Clrcont@_Iterator_base12@std@@QAEXXZ	; std::_Iterator_base12::_Clrcont

; 1816 : 					*_Pnext = *(const_iterator **)(*_Pnext)->_Getpnext();

	mov	edx, DWORD PTR __Pnext$[ebp]
	mov	ecx, DWORD PTR [edx]
	call	?_Getpnext@_Iterator_base12@std@@QAEPAPAU12@XZ ; std::_Iterator_base12::_Getpnext
	mov	ecx, DWORD PTR __Pnext$[ebp]
	mov	edx, DWORD PTR [eax]
	mov	DWORD PTR [ecx], edx
$LN6@Orphan_ptr:

; 1817 : 					}
; 1818 : 				}

	jmp	SHORT $LN2@Orphan_ptr
$LN4@Orphan_ptr:

; 1819 : 		}

	mov	DWORD PTR __$EHRec$[ebp+8], -1
	lea	ecx, DWORD PTR __Lock$[ebp]
	call	??1_Lockit@std@@QAE@XZ			; std::_Lockit::~_Lockit
	push	edx
	mov	ecx, ebp
	push	eax
	lea	edx, DWORD PTR $LN13@Orphan_ptr
	call	@_RTC_CheckStackVars@8
	pop	eax
	pop	edx
	mov	ecx, DWORD PTR __$EHRec$[ebp]
	mov	DWORD PTR fs:0, ecx
	pop	ecx
	pop	esi
	add	esp, 32					; 00000020H
	cmp	ebp, esp
	call	__RTC_CheckEsp
	mov	esp, ebp
	pop	ebp
	ret	4
	npad	2
$LN13@Orphan_ptr:
	DD	1
	DD	$LN12@Orphan_ptr
$LN12@Orphan_ptr:
	DD	-24					; ffffffe8H
	DD	4
	DD	$LN10@Orphan_ptr
$LN10@Orphan_ptr:
	DB	95					; 0000005fH
	DB	76					; 0000004cH
	DB	111					; 0000006fH
	DB	99					; 00000063H
	DB	107					; 0000006bH
	DB	0
_TEXT	ENDS
;	COMDAT text$x
text$x	SEGMENT
__unwindfunclet$?_Orphan_ptr@?$list@VNavGraphEdge@@V?$allocator@VNavGraphEdge@@@std@@@std@@QAEXPAU?$_List_node@VNavGraphEdge@@PAX@2@@Z$0:
	lea	ecx, DWORD PTR __Lock$[ebp]
	jmp	??1_Lockit@std@@QAE@XZ			; std::_Lockit::~_Lockit
__ehhandler$?_Orphan_ptr@?$list@VNavGraphEdge@@V?$allocator@VNavGraphEdge@@@std@@@std@@QAEXPAU?$_List_node@VNavGraphEdge@@PAX@2@@Z:
	mov	edx, DWORD PTR [esp+8]
	lea	eax, DWORD PTR [edx+12]
	mov	ecx, DWORD PTR [edx-28]
	xor	ecx, eax
	call	@__security_check_cookie@4
	mov	eax, OFFSET __ehfuncinfo$?_Orphan_ptr@?$list@VNavGraphEdge@@V?$allocator@VNavGraphEdge@@@std@@@std@@QAEXPAU?$_List_node@VNavGraphEdge@@PAX@2@@Z
	jmp	___CxxFrameHandler3
text$x	ENDS
?_Orphan_ptr@?$list@VNavGraphEdge@@V?$allocator@VNavGraphEdge@@@std@@@std@@QAEXPAU?$_List_node@VNavGraphEdge@@PAX@2@@Z ENDP ; std::list<NavGraphEdge,std::allocator<NavGraphEdge> >::_Orphan_ptr
; Function compile flags: /Odtp /RTCsu
; File c:\program files (x86)\microsoft visual studio\2017\community\vc\tools\msvc\14.15.26726\include\list
;	COMDAT ?_Tidy@?$list@VNavGraphEdge@@V?$allocator@VNavGraphEdge@@@std@@@std@@QAEXXZ
_TEXT	SEGMENT
_this$ = -4						; size = 4
?_Tidy@?$list@VNavGraphEdge@@V?$allocator@VNavGraphEdge@@@std@@@std@@QAEXXZ PROC ; std::list<NavGraphEdge,std::allocator<NavGraphEdge> >::_Tidy, COMDAT
; _this$ = ecx

; 1773 : 		{	// free all storage

	push	ebp
	mov	ebp, esp
	push	ecx
	mov	DWORD PTR [ebp-4], -858993460		; ccccccccH
	mov	DWORD PTR _this$[ebp], ecx

; 1774 : 		clear();

	mov	ecx, DWORD PTR _this$[ebp]
	call	?clear@?$list@VNavGraphEdge@@V?$allocator@VNavGraphEdge@@@std@@@std@@QAEXXZ ; std::list<NavGraphEdge,std::allocator<NavGraphEdge> >::clear

; 1775 : 		}

	add	esp, 4
	cmp	ebp, esp
	call	__RTC_CheckEsp
	mov	esp, ebp
	pop	ebp
	ret	0
?_Tidy@?$list@VNavGraphEdge@@V?$allocator@VNavGraphEdge@@@std@@@std@@QAEXXZ ENDP ; std::list<NavGraphEdge,std::allocator<NavGraphEdge> >::_Tidy
_TEXT	ENDS
; Function compile flags: /Odtp /RTCsu
; File c:\program files (x86)\microsoft visual studio\2017\community\vc\tools\msvc\14.15.26726\include\list
;	COMDAT ?clear@?$list@VNavGraphEdge@@V?$allocator@VNavGraphEdge@@@std@@@std@@QAEXXZ
_TEXT	SEGMENT
__Pnext$2 = -24						; size = 4
__Pnode$ = -20						; size = 4
_this$ = -16						; size = 4
__$EHRec$ = -12						; size = 12
?clear@?$list@VNavGraphEdge@@V?$allocator@VNavGraphEdge@@@std@@@std@@QAEXXZ PROC ; std::list<NavGraphEdge,std::allocator<NavGraphEdge> >::clear, COMDAT
; _this$ = ecx

; 1381 : 		{	// erase all

	push	ebp
	mov	ebp, esp
	push	-1
	push	__ehhandler$?clear@?$list@VNavGraphEdge@@V?$allocator@VNavGraphEdge@@@std@@@std@@QAEXXZ
	mov	eax, DWORD PTR fs:0
	push	eax
	sub	esp, 12					; 0000000cH
	push	esi
	mov	DWORD PTR [ebp-24], -858993460		; ccccccccH
	mov	DWORD PTR [ebp-20], -858993460		; ccccccccH
	mov	DWORD PTR [ebp-16], -858993460		; ccccccccH
	mov	eax, DWORD PTR ___security_cookie
	xor	eax, ebp
	push	eax
	lea	eax, DWORD PTR __$EHRec$[ebp]
	mov	DWORD PTR fs:0, eax
	mov	DWORD PTR _this$[ebp], ecx

; 1382 :  #if _ITERATOR_DEBUG_LEVEL == 2
; 1383 : 		this->_Orphan_ptr(nullptr);

	push	0
	mov	ecx, DWORD PTR _this$[ebp]
	call	?_Orphan_ptr@?$list@VNavGraphEdge@@V?$allocator@VNavGraphEdge@@@std@@@std@@QAEXPAU?$_List_node@VNavGraphEdge@@PAX@2@@Z ; std::list<NavGraphEdge,std::allocator<NavGraphEdge> >::_Orphan_ptr

; 1384 :  #endif /* _ITERATOR_DEBUG_LEVEL == 2 */
; 1385 : 		_Nodeptr _Pnode = this->_Myhead()->_Next;

	mov	ecx, DWORD PTR _this$[ebp]
	call	?_Myhead@?$_List_alloc@U?$_List_base_types@VNavGraphEdge@@V?$allocator@VNavGraphEdge@@@std@@@std@@@std@@QAEAAPAU?$_List_node@VNavGraphEdge@@PAX@2@XZ ; std::_List_alloc<std::_List_base_types<NavGraphEdge,std::allocator<NavGraphEdge> > >::_Myhead
	mov	eax, DWORD PTR [eax]
	mov	ecx, DWORD PTR [eax]
	mov	DWORD PTR __Pnode$[ebp], ecx

; 1386 : 		this->_Myhead()->_Next = this->_Myhead();

	mov	ecx, DWORD PTR _this$[ebp]
	call	?_Myhead@?$_List_alloc@U?$_List_base_types@VNavGraphEdge@@V?$allocator@VNavGraphEdge@@@std@@@std@@@std@@QAEAAPAU?$_List_node@VNavGraphEdge@@PAX@2@XZ ; std::_List_alloc<std::_List_base_types<NavGraphEdge,std::allocator<NavGraphEdge> > >::_Myhead
	mov	esi, eax
	mov	ecx, DWORD PTR _this$[ebp]
	call	?_Myhead@?$_List_alloc@U?$_List_base_types@VNavGraphEdge@@V?$allocator@VNavGraphEdge@@@std@@@std@@@std@@QAEAAPAU?$_List_node@VNavGraphEdge@@PAX@2@XZ ; std::_List_alloc<std::_List_base_types<NavGraphEdge,std::allocator<NavGraphEdge> > >::_Myhead
	mov	edx, DWORD PTR [eax]
	mov	eax, DWORD PTR [esi]
	mov	DWORD PTR [edx], eax

; 1387 : 		this->_Myhead()->_Prev = this->_Myhead();

	mov	ecx, DWORD PTR _this$[ebp]
	call	?_Myhead@?$_List_alloc@U?$_List_base_types@VNavGraphEdge@@V?$allocator@VNavGraphEdge@@@std@@@std@@@std@@QAEAAPAU?$_List_node@VNavGraphEdge@@PAX@2@XZ ; std::_List_alloc<std::_List_base_types<NavGraphEdge,std::allocator<NavGraphEdge> > >::_Myhead
	mov	esi, eax
	mov	ecx, DWORD PTR _this$[ebp]
	call	?_Myhead@?$_List_alloc@U?$_List_base_types@VNavGraphEdge@@V?$allocator@VNavGraphEdge@@@std@@@std@@@std@@QAEAAPAU?$_List_node@VNavGraphEdge@@PAX@2@XZ ; std::_List_alloc<std::_List_base_types<NavGraphEdge,std::allocator<NavGraphEdge> > >::_Myhead
	mov	ecx, DWORD PTR [eax]
	mov	edx, DWORD PTR [esi]
	mov	DWORD PTR [ecx+4], edx

; 1388 : 		this->_Mysize() = 0;

	mov	ecx, DWORD PTR _this$[ebp]
	call	?_Mysize@?$_List_alloc@U?$_List_base_types@VNavGraphEdge@@V?$allocator@VNavGraphEdge@@@std@@@std@@@std@@QAEAAIXZ ; std::_List_alloc<std::_List_base_types<NavGraphEdge,std::allocator<NavGraphEdge> > >::_Mysize
	mov	DWORD PTR [eax], 0

; 1389 : 
; 1390 : 		for (_Nodeptr _Pnext; _Pnode != this->_Myhead(); _Pnode = _Pnext)

	jmp	SHORT $LN4@clear
$LN2@clear:
	mov	eax, DWORD PTR __Pnext$2[ebp]
	mov	DWORD PTR __Pnode$[ebp], eax
$LN4@clear:
	mov	ecx, DWORD PTR _this$[ebp]
	call	?_Myhead@?$_List_alloc@U?$_List_base_types@VNavGraphEdge@@V?$allocator@VNavGraphEdge@@@std@@@std@@@std@@QAEAAPAU?$_List_node@VNavGraphEdge@@PAX@2@XZ ; std::_List_alloc<std::_List_base_types<NavGraphEdge,std::allocator<NavGraphEdge> > >::_Myhead
	mov	ecx, DWORD PTR __Pnode$[ebp]
	cmp	ecx, DWORD PTR [eax]
	je	SHORT $LN5@clear

; 1391 : 			{	// delete an element
; 1392 : 			_Pnext = _Pnode->_Next;

	mov	edx, DWORD PTR __Pnode$[ebp]
	mov	eax, DWORD PTR [edx]
	mov	DWORD PTR __Pnext$2[ebp], eax

; 1393 : 			this->_Freenode(_Pnode);

	mov	ecx, DWORD PTR __Pnode$[ebp]
	push	ecx
	mov	ecx, DWORD PTR _this$[ebp]
	call	?_Freenode@?$_List_buy@VNavGraphEdge@@V?$allocator@VNavGraphEdge@@@std@@@std@@QAEXPAU?$_List_node@VNavGraphEdge@@PAX@2@@Z ; std::_List_buy<NavGraphEdge,std::allocator<NavGraphEdge> >::_Freenode

; 1394 : 			}

	jmp	SHORT $LN2@clear
$LN5@clear:

; 1395 : 		}

	mov	ecx, DWORD PTR __$EHRec$[ebp]
	mov	DWORD PTR fs:0, ecx
	pop	ecx
	pop	esi
	add	esp, 24					; 00000018H
	cmp	ebp, esp
	call	__RTC_CheckEsp
	mov	esp, ebp
	pop	ebp
	ret	0
_TEXT	ENDS
;	COMDAT text$x
text$x	SEGMENT
__ehhandler$?clear@?$list@VNavGraphEdge@@V?$allocator@VNavGraphEdge@@@std@@@std@@QAEXXZ:
	mov	edx, DWORD PTR [esp+8]
	lea	eax, DWORD PTR [edx+12]
	mov	ecx, DWORD PTR [edx-20]
	xor	ecx, eax
	call	@__security_check_cookie@4
	mov	eax, OFFSET __ehfuncinfo$?clear@?$list@VNavGraphEdge@@V?$allocator@VNavGraphEdge@@@std@@@std@@QAEXXZ
	jmp	___CxxFrameHandler3
text$x	ENDS
?clear@?$list@VNavGraphEdge@@V?$allocator@VNavGraphEdge@@@std@@@std@@QAEXXZ ENDP ; std::list<NavGraphEdge,std::allocator<NavGraphEdge> >::clear
; Function compile flags: /Odtp /RTCsu
; File c:\program files (x86)\microsoft visual studio\2017\community\vc\tools\msvc\14.15.26726\include\list
;	COMDAT ??1?$list@VNavGraphEdge@@V?$allocator@VNavGraphEdge@@@std@@@std@@QAE@XZ
_TEXT	SEGMENT
_this$ = -16						; size = 4
__$EHRec$ = -12						; size = 12
??1?$list@VNavGraphEdge@@V?$allocator@VNavGraphEdge@@@std@@@std@@QAE@XZ PROC ; std::list<NavGraphEdge,std::allocator<NavGraphEdge> >::~list<NavGraphEdge,std::allocator<NavGraphEdge> >, COMDAT
; _this$ = ecx

; 981  : 		{	// destroy the object

	push	ebp
	mov	ebp, esp
	push	-1
	push	__ehhandler$??1?$list@VNavGraphEdge@@V?$allocator@VNavGraphEdge@@@std@@@std@@QAE@XZ
	mov	eax, DWORD PTR fs:0
	push	eax
	push	ecx
	mov	DWORD PTR [ebp-16], -858993460		; ccccccccH
	mov	eax, DWORD PTR ___security_cookie
	xor	eax, ebp
	push	eax
	lea	eax, DWORD PTR __$EHRec$[ebp]
	mov	DWORD PTR fs:0, eax
	mov	DWORD PTR _this$[ebp], ecx

; 982  : 		_Tidy();

	mov	ecx, DWORD PTR _this$[ebp]
	call	?_Tidy@?$list@VNavGraphEdge@@V?$allocator@VNavGraphEdge@@@std@@@std@@QAEXXZ ; std::list<NavGraphEdge,std::allocator<NavGraphEdge> >::_Tidy

; 983  : 		}

	mov	ecx, DWORD PTR _this$[ebp]
	call	??1?$_List_buy@VNavGraphEdge@@V?$allocator@VNavGraphEdge@@@std@@@std@@QAE@XZ
	mov	ecx, DWORD PTR __$EHRec$[ebp]
	mov	DWORD PTR fs:0, ecx
	pop	ecx
	add	esp, 16					; 00000010H
	cmp	ebp, esp
	call	__RTC_CheckEsp
	mov	esp, ebp
	pop	ebp
	ret	0
_TEXT	ENDS
;	COMDAT text$x
text$x	SEGMENT
__ehhandler$??1?$list@VNavGraphEdge@@V?$allocator@VNavGraphEdge@@@std@@@std@@QAE@XZ:
	mov	edx, DWORD PTR [esp+8]
	lea	eax, DWORD PTR [edx+12]
	mov	ecx, DWORD PTR [edx-8]
	xor	ecx, eax
	call	@__security_check_cookie@4
	mov	eax, OFFSET __ehfuncinfo$??1?$list@VNavGraphEdge@@V?$allocator@VNavGraphEdge@@@std@@@std@@QAE@XZ
	jmp	___CxxFrameHandler3
text$x	ENDS
??1?$list@VNavGraphEdge@@V?$allocator@VNavGraphEdge@@@std@@@std@@QAE@XZ ENDP ; std::list<NavGraphEdge,std::allocator<NavGraphEdge> >::~list<NavGraphEdge,std::allocator<NavGraphEdge> >
; Function compile flags: /Odtp /RTCsu
;	COMDAT ??1?$_List_buy@VNavGraphEdge@@V?$allocator@VNavGraphEdge@@@std@@@std@@QAE@XZ
_TEXT	SEGMENT
_this$ = -4						; size = 4
??1?$_List_buy@VNavGraphEdge@@V?$allocator@VNavGraphEdge@@@std@@@std@@QAE@XZ PROC ; std::_List_buy<NavGraphEdge,std::allocator<NavGraphEdge> >::~_List_buy<NavGraphEdge,std::allocator<NavGraphEdge> >, COMDAT
; _this$ = ecx
	push	ebp
	mov	ebp, esp
	push	ecx
	mov	DWORD PTR [ebp-4], -858993460		; ccccccccH
	mov	DWORD PTR _this$[ebp], ecx
	mov	ecx, DWORD PTR _this$[ebp]
	call	??1?$_List_alloc@U?$_List_base_types@VNavGraphEdge@@V?$allocator@VNavGraphEdge@@@std@@@std@@@std@@QAE@XZ ; std::_List_alloc<std::_List_base_types<NavGraphEdge,std::allocator<NavGraphEdge> > >::~_List_alloc<std::_List_base_types<NavGraphEdge,std::allocator<NavGraphEdge> > >
	add	esp, 4
	cmp	ebp, esp
	call	__RTC_CheckEsp
	mov	esp, ebp
	pop	ebp
	ret	0
??1?$_List_buy@VNavGraphEdge@@V?$allocator@VNavGraphEdge@@@std@@@std@@QAE@XZ ENDP ; std::_List_buy<NavGraphEdge,std::allocator<NavGraphEdge> >::~_List_buy<NavGraphEdge,std::allocator<NavGraphEdge> >
_TEXT	ENDS
; Function compile flags: /Odtp /RTCsu
; File c:\program files (x86)\microsoft visual studio\2017\community\vc\tools\msvc\14.15.26726\include\list
;	COMDAT ?_Freenode@?$_List_buy@VNavGraphEdge@@V?$allocator@VNavGraphEdge@@@std@@@std@@QAEXPAU?$_List_node@VNavGraphEdge@@PAX@2@@Z
_TEXT	SEGMENT
__Al$ = -8						; size = 4
_this$ = -4						; size = 4
__Pnode$ = 8						; size = 4
?_Freenode@?$_List_buy@VNavGraphEdge@@V?$allocator@VNavGraphEdge@@@std@@@std@@QAEXPAU?$_List_node@VNavGraphEdge@@PAX@2@@Z PROC ; std::_List_buy<NavGraphEdge,std::allocator<NavGraphEdge> >::_Freenode, COMDAT
; _this$ = ecx

; 728  : 		{	// give node back

	push	ebp
	mov	ebp, esp
	sub	esp, 8
	mov	DWORD PTR [ebp-8], -858993460		; ccccccccH
	mov	DWORD PTR [ebp-4], -858993460		; ccccccccH
	mov	DWORD PTR _this$[ebp], ecx

; 729  : 		_Alnode& _Al = this->_Getal();

	mov	ecx, DWORD PTR _this$[ebp]
	call	?_Getal@?$_List_alloc@U?$_List_base_types@VNavGraphEdge@@V?$allocator@VNavGraphEdge@@@std@@@std@@@std@@QAEAAV?$allocator@U?$_List_node@VNavGraphEdge@@PAX@std@@@2@XZ ; std::_List_alloc<std::_List_base_types<NavGraphEdge,std::allocator<NavGraphEdge> > >::_Getal
	mov	DWORD PTR __Al$[ebp], eax

; 730  : 		_Alnode_traits::destroy(_Al, _STD addressof(_Pnode->_Myval));

	mov	eax, DWORD PTR __Pnode$[ebp]
	add	eax, 8
	push	eax
	call	??$addressof@VNavGraphEdge@@@std@@YAPAVNavGraphEdge@@AAV1@@Z ; std::addressof<NavGraphEdge>
	add	esp, 4
	push	eax
	mov	ecx, DWORD PTR __Al$[ebp]
	push	ecx
	call	??$destroy@VNavGraphEdge@@@?$_Default_allocator_traits@V?$allocator@U?$_List_node@VNavGraphEdge@@PAX@std@@@std@@@std@@SAXAAV?$allocator@U?$_List_node@VNavGraphEdge@@PAX@std@@@1@QAVNavGraphEdge@@@Z ; std::_Default_allocator_traits<std::allocator<std::_List_node<NavGraphEdge,void *> > >::destroy<NavGraphEdge>
	add	esp, 8

; 731  : 		_Node::_Freenode0(_Al, _Pnode);

	mov	edx, DWORD PTR __Pnode$[ebp]
	push	edx
	mov	eax, DWORD PTR __Al$[ebp]
	push	eax
	call	??$_Freenode0@V?$allocator@U?$_List_node@VNavGraphEdge@@PAX@std@@@std@@@?$_List_node@VNavGraphEdge@@PAX@std@@SAXAAV?$allocator@U?$_List_node@VNavGraphEdge@@PAX@std@@@1@PAU01@@Z ; std::_List_node<NavGraphEdge,void *>::_Freenode0<std::allocator<std::_List_node<NavGraphEdge,void *> > >
	add	esp, 8

; 732  : 		}

	add	esp, 8
	cmp	ebp, esp
	call	__RTC_CheckEsp
	mov	esp, ebp
	pop	ebp
	ret	4
?_Freenode@?$_List_buy@VNavGraphEdge@@V?$allocator@VNavGraphEdge@@@std@@@std@@QAEXPAU?$_List_node@VNavGraphEdge@@PAX@2@@Z ENDP ; std::_List_buy<NavGraphEdge,std::allocator<NavGraphEdge> >::_Freenode
_TEXT	ENDS
; Function compile flags: /Odtp /RTCsu
; File c:\program files (x86)\microsoft visual studio\2017\community\vc\tools\msvc\14.15.26726\include\xutility
;	COMDAT ?_Get_second@?$_Compressed_pair@V?$allocator@U?$_List_node@VNavGraphEdge@@PAX@std@@@std@@V?$_List_val@U?$_List_simple_types@VNavGraphEdge@@@std@@@2@$00@std@@QBEABV?$_List_val@U?$_List_simple_types@VNavGraphEdge@@@std@@@2@XZ
_TEXT	SEGMENT
_this$ = -4						; size = 4
?_Get_second@?$_Compressed_pair@V?$allocator@U?$_List_node@VNavGraphEdge@@PAX@std@@@std@@V?$_List_val@U?$_List_simple_types@VNavGraphEdge@@@std@@@2@$00@std@@QBEABV?$_List_val@U?$_List_simple_types@VNavGraphEdge@@@std@@@2@XZ PROC ; std::_Compressed_pair<std::allocator<std::_List_node<NavGraphEdge,void *> >,std::_List_val<std::_List_simple_types<NavGraphEdge> >,1>::_Get_second, COMDAT
; _this$ = ecx

; 306  : 		{	// return const reference to second

	push	ebp
	mov	ebp, esp
	push	ecx
	mov	DWORD PTR [ebp-4], -858993460		; ccccccccH
	mov	DWORD PTR _this$[ebp], ecx

; 307  : 		return (_Myval2);

	mov	eax, DWORD PTR _this$[ebp]

; 308  : 		}

	mov	esp, ebp
	pop	ebp
	ret	0
?_Get_second@?$_Compressed_pair@V?$allocator@U?$_List_node@VNavGraphEdge@@PAX@std@@@std@@V?$_List_val@U?$_List_simple_types@VNavGraphEdge@@@std@@@2@$00@std@@QBEABV?$_List_val@U?$_List_simple_types@VNavGraphEdge@@@std@@@2@XZ ENDP ; std::_Compressed_pair<std::allocator<std::_List_node<NavGraphEdge,void *> >,std::_List_val<std::_List_simple_types<NavGraphEdge> >,1>::_Get_second
_TEXT	ENDS
; Function compile flags: /Odtp /RTCsu
; File c:\program files (x86)\microsoft visual studio\2017\community\vc\tools\msvc\14.15.26726\include\xutility
;	COMDAT ?_Get_second@?$_Compressed_pair@V?$allocator@U?$_List_node@VNavGraphEdge@@PAX@std@@@std@@V?$_List_val@U?$_List_simple_types@VNavGraphEdge@@@std@@@2@$00@std@@QAEAAV?$_List_val@U?$_List_simple_types@VNavGraphEdge@@@std@@@2@XZ
_TEXT	SEGMENT
_this$ = -4						; size = 4
?_Get_second@?$_Compressed_pair@V?$allocator@U?$_List_node@VNavGraphEdge@@PAX@std@@@std@@V?$_List_val@U?$_List_simple_types@VNavGraphEdge@@@std@@@2@$00@std@@QAEAAV?$_List_val@U?$_List_simple_types@VNavGraphEdge@@@std@@@2@XZ PROC ; std::_Compressed_pair<std::allocator<std::_List_node<NavGraphEdge,void *> >,std::_List_val<std::_List_simple_types<NavGraphEdge> >,1>::_Get_second, COMDAT
; _this$ = ecx

; 301  : 		{	// return reference to second

	push	ebp
	mov	ebp, esp
	push	ecx
	mov	DWORD PTR [ebp-4], -858993460		; ccccccccH
	mov	DWORD PTR _this$[ebp], ecx

; 302  : 		return (_Myval2);

	mov	eax, DWORD PTR _this$[ebp]

; 303  : 		}

	mov	esp, ebp
	pop	ebp
	ret	0
?_Get_second@?$_Compressed_pair@V?$allocator@U?$_List_node@VNavGraphEdge@@PAX@std@@@std@@V?$_List_val@U?$_List_simple_types@VNavGraphEdge@@@std@@@2@$00@std@@QAEAAV?$_List_val@U?$_List_simple_types@VNavGraphEdge@@@std@@@2@XZ ENDP ; std::_Compressed_pair<std::allocator<std::_List_node<NavGraphEdge,void *> >,std::_List_val<std::_List_simple_types<NavGraphEdge> >,1>::_Get_second
_TEXT	ENDS
; Function compile flags: /Odtp /RTCsu
; File c:\program files (x86)\microsoft visual studio\2017\community\vc\tools\msvc\14.15.26726\include\xutility
;	COMDAT ?_Get_first@?$_Compressed_pair@V?$allocator@U?$_List_node@VNavGraphEdge@@PAX@std@@@std@@V?$_List_val@U?$_List_simple_types@VNavGraphEdge@@@std@@@2@$00@std@@QAEAAV?$allocator@U?$_List_node@VNavGraphEdge@@PAX@std@@@2@XZ
_TEXT	SEGMENT
_this$ = -4						; size = 4
?_Get_first@?$_Compressed_pair@V?$allocator@U?$_List_node@VNavGraphEdge@@PAX@std@@@std@@V?$_List_val@U?$_List_simple_types@VNavGraphEdge@@@std@@@2@$00@std@@QAEAAV?$allocator@U?$_List_node@VNavGraphEdge@@PAX@std@@@2@XZ PROC ; std::_Compressed_pair<std::allocator<std::_List_node<NavGraphEdge,void *> >,std::_List_val<std::_List_simple_types<NavGraphEdge> >,1>::_Get_first, COMDAT
; _this$ = ecx

; 291  : 		{	// return reference to first

	push	ebp
	mov	ebp, esp
	push	ecx
	mov	DWORD PTR [ebp-4], -858993460		; ccccccccH
	mov	DWORD PTR _this$[ebp], ecx

; 292  : 		return (*this);

	mov	eax, DWORD PTR _this$[ebp]

; 293  : 		}

	mov	esp, ebp
	pop	ebp
	ret	0
?_Get_first@?$_Compressed_pair@V?$allocator@U?$_List_node@VNavGraphEdge@@PAX@std@@@std@@V?$_List_val@U?$_List_simple_types@VNavGraphEdge@@@std@@@2@$00@std@@QAEAAV?$allocator@U?$_List_node@VNavGraphEdge@@PAX@std@@@2@XZ ENDP ; std::_Compressed_pair<std::allocator<std::_List_node<NavGraphEdge,void *> >,std::_List_val<std::_List_simple_types<NavGraphEdge> >,1>::_Get_first
_TEXT	ENDS
; Function compile flags: /Odtp /RTCsu
; File c:\program files (x86)\microsoft visual studio\2017\community\vc\tools\msvc\14.15.26726\include\list
;	COMDAT ?_Mysize@?$_List_alloc@U?$_List_base_types@VNavGraphEdge@@V?$allocator@VNavGraphEdge@@@std@@@std@@@std@@QAEAAIXZ
_TEXT	SEGMENT
_this$ = -4						; size = 4
?_Mysize@?$_List_alloc@U?$_List_base_types@VNavGraphEdge@@V?$allocator@VNavGraphEdge@@@std@@@std@@@std@@QAEAAIXZ PROC ; std::_List_alloc<std::_List_base_types<NavGraphEdge,std::allocator<NavGraphEdge> > >::_Mysize, COMDAT
; _this$ = ecx

; 671  : 		{	// return reference to _Mysize

	push	ebp
	mov	ebp, esp
	push	ecx
	mov	DWORD PTR [ebp-4], -858993460		; ccccccccH
	mov	DWORD PTR _this$[ebp], ecx

; 672  : 		return (_Get_data()._Mysize);

	mov	ecx, DWORD PTR _this$[ebp]
	call	?_Get_data@?$_List_alloc@U?$_List_base_types@VNavGraphEdge@@V?$allocator@VNavGraphEdge@@@std@@@std@@@std@@QAEAAV?$_List_val@U?$_List_simple_types@VNavGraphEdge@@@std@@@2@XZ ; std::_List_alloc<std::_List_base_types<NavGraphEdge,std::allocator<NavGraphEdge> > >::_Get_data
	add	eax, 8

; 673  : 		}

	add	esp, 4
	cmp	ebp, esp
	call	__RTC_CheckEsp
	mov	esp, ebp
	pop	ebp
	ret	0
?_Mysize@?$_List_alloc@U?$_List_base_types@VNavGraphEdge@@V?$allocator@VNavGraphEdge@@@std@@@std@@@std@@QAEAAIXZ ENDP ; std::_List_alloc<std::_List_base_types<NavGraphEdge,std::allocator<NavGraphEdge> > >::_Mysize
_TEXT	ENDS
; Function compile flags: /Odtp /RTCsu
; File c:\program files (x86)\microsoft visual studio\2017\community\vc\tools\msvc\14.15.26726\include\list
;	COMDAT ?_Myhead@?$_List_alloc@U?$_List_base_types@VNavGraphEdge@@V?$allocator@VNavGraphEdge@@@std@@@std@@@std@@QAEAAPAU?$_List_node@VNavGraphEdge@@PAX@2@XZ
_TEXT	SEGMENT
_this$ = -4						; size = 4
?_Myhead@?$_List_alloc@U?$_List_base_types@VNavGraphEdge@@V?$allocator@VNavGraphEdge@@@std@@@std@@@std@@QAEAAPAU?$_List_node@VNavGraphEdge@@PAX@2@XZ PROC ; std::_List_alloc<std::_List_base_types<NavGraphEdge,std::allocator<NavGraphEdge> > >::_Myhead, COMDAT
; _this$ = ecx

; 661  : 		{	// return reference to _Myhead

	push	ebp
	mov	ebp, esp
	push	ecx
	mov	DWORD PTR [ebp-4], -858993460		; ccccccccH
	mov	DWORD PTR _this$[ebp], ecx

; 662  : 		return (_Get_data()._Myhead);

	mov	ecx, DWORD PTR _this$[ebp]
	call	?_Get_data@?$_List_alloc@U?$_List_base_types@VNavGraphEdge@@V?$allocator@VNavGraphEdge@@@std@@@std@@@std@@QAEAAV?$_List_val@U?$_List_simple_types@VNavGraphEdge@@@std@@@2@XZ ; std::_List_alloc<std::_List_base_types<NavGraphEdge,std::allocator<NavGraphEdge> > >::_Get_data
	add	eax, 4

; 663  : 		}

	add	esp, 4
	cmp	ebp, esp
	call	__RTC_CheckEsp
	mov	esp, ebp
	pop	ebp
	ret	0
?_Myhead@?$_List_alloc@U?$_List_base_types@VNavGraphEdge@@V?$allocator@VNavGraphEdge@@@std@@@std@@@std@@QAEAAPAU?$_List_node@VNavGraphEdge@@PAX@2@XZ ENDP ; std::_List_alloc<std::_List_base_types<NavGraphEdge,std::allocator<NavGraphEdge> > >::_Myhead
_TEXT	ENDS
; Function compile flags: /Odtp /RTCsu
; File c:\program files (x86)\microsoft visual studio\2017\community\vc\tools\msvc\14.15.26726\include\list
;	COMDAT ?_Get_data@?$_List_alloc@U?$_List_base_types@VNavGraphEdge@@V?$allocator@VNavGraphEdge@@@std@@@std@@@std@@QBEABV?$_List_val@U?$_List_simple_types@VNavGraphEdge@@@std@@@2@XZ
_TEXT	SEGMENT
_this$ = -4						; size = 4
?_Get_data@?$_List_alloc@U?$_List_base_types@VNavGraphEdge@@V?$allocator@VNavGraphEdge@@@std@@@std@@@std@@QBEABV?$_List_val@U?$_List_simple_types@VNavGraphEdge@@@std@@@2@XZ PROC ; std::_List_alloc<std::_List_base_types<NavGraphEdge,std::allocator<NavGraphEdge> > >::_Get_data, COMDAT
; _this$ = ecx

; 656  : 		{	// return const reference to _List_val

	push	ebp
	mov	ebp, esp
	push	ecx
	mov	DWORD PTR [ebp-4], -858993460		; ccccccccH
	mov	DWORD PTR _this$[ebp], ecx

; 657  : 		return (_Mypair._Get_second());

	mov	ecx, DWORD PTR _this$[ebp]
	call	?_Get_second@?$_Compressed_pair@V?$allocator@U?$_List_node@VNavGraphEdge@@PAX@std@@@std@@V?$_List_val@U?$_List_simple_types@VNavGraphEdge@@@std@@@2@$00@std@@QBEABV?$_List_val@U?$_List_simple_types@VNavGraphEdge@@@std@@@2@XZ ; std::_Compressed_pair<std::allocator<std::_List_node<NavGraphEdge,void *> >,std::_List_val<std::_List_simple_types<NavGraphEdge> >,1>::_Get_second

; 658  : 		}

	add	esp, 4
	cmp	ebp, esp
	call	__RTC_CheckEsp
	mov	esp, ebp
	pop	ebp
	ret	0
?_Get_data@?$_List_alloc@U?$_List_base_types@VNavGraphEdge@@V?$allocator@VNavGraphEdge@@@std@@@std@@@std@@QBEABV?$_List_val@U?$_List_simple_types@VNavGraphEdge@@@std@@@2@XZ ENDP ; std::_List_alloc<std::_List_base_types<NavGraphEdge,std::allocator<NavGraphEdge> > >::_Get_data
_TEXT	ENDS
; Function compile flags: /Odtp /RTCsu
; File c:\program files (x86)\microsoft visual studio\2017\community\vc\tools\msvc\14.15.26726\include\list
;	COMDAT ?_Get_data@?$_List_alloc@U?$_List_base_types@VNavGraphEdge@@V?$allocator@VNavGraphEdge@@@std@@@std@@@std@@QAEAAV?$_List_val@U?$_List_simple_types@VNavGraphEdge@@@std@@@2@XZ
_TEXT	SEGMENT
_this$ = -4						; size = 4
?_Get_data@?$_List_alloc@U?$_List_base_types@VNavGraphEdge@@V?$allocator@VNavGraphEdge@@@std@@@std@@@std@@QAEAAV?$_List_val@U?$_List_simple_types@VNavGraphEdge@@@std@@@2@XZ PROC ; std::_List_alloc<std::_List_base_types<NavGraphEdge,std::allocator<NavGraphEdge> > >::_Get_data, COMDAT
; _this$ = ecx

; 651  : 		{	// return reference to _List_val

	push	ebp
	mov	ebp, esp
	push	ecx
	mov	DWORD PTR [ebp-4], -858993460		; ccccccccH
	mov	DWORD PTR _this$[ebp], ecx

; 652  : 		return (_Mypair._Get_second());

	mov	ecx, DWORD PTR _this$[ebp]
	call	?_Get_second@?$_Compressed_pair@V?$allocator@U?$_List_node@VNavGraphEdge@@PAX@std@@@std@@V?$_List_val@U?$_List_simple_types@VNavGraphEdge@@@std@@@2@$00@std@@QAEAAV?$_List_val@U?$_List_simple_types@VNavGraphEdge@@@std@@@2@XZ ; std::_Compressed_pair<std::allocator<std::_List_node<NavGraphEdge,void *> >,std::_List_val<std::_List_simple_types<NavGraphEdge> >,1>::_Get_second

; 653  : 		}

	add	esp, 4
	cmp	ebp, esp
	call	__RTC_CheckEsp
	mov	esp, ebp
	pop	ebp
	ret	0
?_Get_data@?$_List_alloc@U?$_List_base_types@VNavGraphEdge@@V?$allocator@VNavGraphEdge@@@std@@@std@@@std@@QAEAAV?$_List_val@U?$_List_simple_types@VNavGraphEdge@@@std@@@2@XZ ENDP ; std::_List_alloc<std::_List_base_types<NavGraphEdge,std::allocator<NavGraphEdge> > >::_Get_data
_TEXT	ENDS
; Function compile flags: /Odtp /RTCsu
; File c:\program files (x86)\microsoft visual studio\2017\community\vc\tools\msvc\14.15.26726\include\list
;	COMDAT ?_Getal@?$_List_alloc@U?$_List_base_types@VNavGraphEdge@@V?$allocator@VNavGraphEdge@@@std@@@std@@@std@@QAEAAV?$allocator@U?$_List_node@VNavGraphEdge@@PAX@std@@@2@XZ
_TEXT	SEGMENT
_this$ = -4						; size = 4
?_Getal@?$_List_alloc@U?$_List_base_types@VNavGraphEdge@@V?$allocator@VNavGraphEdge@@@std@@@std@@@std@@QAEAAV?$allocator@U?$_List_node@VNavGraphEdge@@PAX@std@@@2@XZ PROC ; std::_List_alloc<std::_List_base_types<NavGraphEdge,std::allocator<NavGraphEdge> > >::_Getal, COMDAT
; _this$ = ecx

; 641  : 		{	// return reference to allocator

	push	ebp
	mov	ebp, esp
	push	ecx
	mov	DWORD PTR [ebp-4], -858993460		; ccccccccH
	mov	DWORD PTR _this$[ebp], ecx

; 642  : 		return (_Mypair._Get_first());

	mov	ecx, DWORD PTR _this$[ebp]
	call	?_Get_first@?$_Compressed_pair@V?$allocator@U?$_List_node@VNavGraphEdge@@PAX@std@@@std@@V?$_List_val@U?$_List_simple_types@VNavGraphEdge@@@std@@@2@$00@std@@QAEAAV?$allocator@U?$_List_node@VNavGraphEdge@@PAX@std@@@2@XZ ; std::_Compressed_pair<std::allocator<std::_List_node<NavGraphEdge,void *> >,std::_List_val<std::_List_simple_types<NavGraphEdge> >,1>::_Get_first

; 643  : 		}

	add	esp, 4
	cmp	ebp, esp
	call	__RTC_CheckEsp
	mov	esp, ebp
	pop	ebp
	ret	0
?_Getal@?$_List_alloc@U?$_List_base_types@VNavGraphEdge@@V?$allocator@VNavGraphEdge@@@std@@@std@@@std@@QAEAAV?$allocator@U?$_List_node@VNavGraphEdge@@PAX@std@@@2@XZ ENDP ; std::_List_alloc<std::_List_base_types<NavGraphEdge,std::allocator<NavGraphEdge> > >::_Getal
_TEXT	ENDS
; Function compile flags: /Odtp /RTCsu
; File c:\program files (x86)\microsoft visual studio\2017\community\vc\tools\msvc\14.15.26726\include\list
;	COMDAT ?_Orphan_all@?$_List_alloc@U?$_List_base_types@VNavGraphEdge@@V?$allocator@VNavGraphEdge@@@std@@@std@@@std@@QAEXXZ
_TEXT	SEGMENT
_this$ = -4						; size = 4
?_Orphan_all@?$_List_alloc@U?$_List_base_types@VNavGraphEdge@@V?$allocator@VNavGraphEdge@@@std@@@std@@@std@@QAEXXZ PROC ; std::_List_alloc<std::_List_base_types<NavGraphEdge,std::allocator<NavGraphEdge> > >::_Orphan_all, COMDAT
; _this$ = ecx

; 631  : 		{	// orphan all iterators

	push	ebp
	mov	ebp, esp
	push	ecx
	mov	DWORD PTR [ebp-4], -858993460		; ccccccccH
	mov	DWORD PTR _this$[ebp], ecx

; 632  : 		_Get_data()._Orphan_all();

	mov	ecx, DWORD PTR _this$[ebp]
	call	?_Get_data@?$_List_alloc@U?$_List_base_types@VNavGraphEdge@@V?$allocator@VNavGraphEdge@@@std@@@std@@@std@@QAEAAV?$_List_val@U?$_List_simple_types@VNavGraphEdge@@@std@@@2@XZ ; std::_List_alloc<std::_List_base_types<NavGraphEdge,std::allocator<NavGraphEdge> > >::_Get_data
	mov	ecx, eax
	call	?_Orphan_all@_Container_base12@std@@QAEXXZ ; std::_Container_base12::_Orphan_all

; 633  : 		}

	add	esp, 4
	cmp	ebp, esp
	call	__RTC_CheckEsp
	mov	esp, ebp
	pop	ebp
	ret	0
?_Orphan_all@?$_List_alloc@U?$_List_base_types@VNavGraphEdge@@V?$allocator@VNavGraphEdge@@@std@@@std@@@std@@QAEXXZ ENDP ; std::_List_alloc<std::_List_base_types<NavGraphEdge,std::allocator<NavGraphEdge> > >::_Orphan_all
_TEXT	ENDS
; Function compile flags: /Odtp /RTCsu
; File c:\program files (x86)\microsoft visual studio\2017\community\vc\tools\msvc\14.15.26726\include\list
;	COMDAT ?_Freeheadnode@?$_List_alloc@U?$_List_base_types@VNavGraphEdge@@V?$allocator@VNavGraphEdge@@@std@@@std@@@std@@QAEXPAU?$_List_node@VNavGraphEdge@@PAX@2@@Z
_TEXT	SEGMENT
_this$ = -4						; size = 4
__Pnode$ = 8						; size = 4
?_Freeheadnode@?$_List_alloc@U?$_List_base_types@VNavGraphEdge@@V?$allocator@VNavGraphEdge@@@std@@@std@@@std@@QAEXPAU?$_List_node@VNavGraphEdge@@PAX@2@@Z PROC ; std::_List_alloc<std::_List_base_types<NavGraphEdge,std::allocator<NavGraphEdge> > >::_Freeheadnode, COMDAT
; _this$ = ecx

; 604  : 		{	// free head node using current allocator

	push	ebp
	mov	ebp, esp
	push	ecx
	mov	DWORD PTR [ebp-4], -858993460		; ccccccccH
	mov	DWORD PTR _this$[ebp], ecx

; 605  : 		_Node::_Freenode0(_Getal(), _Pnode);

	mov	eax, DWORD PTR __Pnode$[ebp]
	push	eax
	mov	ecx, DWORD PTR _this$[ebp]
	call	?_Getal@?$_List_alloc@U?$_List_base_types@VNavGraphEdge@@V?$allocator@VNavGraphEdge@@@std@@@std@@@std@@QAEAAV?$allocator@U?$_List_node@VNavGraphEdge@@PAX@std@@@2@XZ ; std::_List_alloc<std::_List_base_types<NavGraphEdge,std::allocator<NavGraphEdge> > >::_Getal
	push	eax
	call	??$_Freenode0@V?$allocator@U?$_List_node@VNavGraphEdge@@PAX@std@@@std@@@?$_List_node@VNavGraphEdge@@PAX@std@@SAXAAV?$allocator@U?$_List_node@VNavGraphEdge@@PAX@std@@@1@PAU01@@Z ; std::_List_node<NavGraphEdge,void *>::_Freenode0<std::allocator<std::_List_node<NavGraphEdge,void *> > >
	add	esp, 8

; 606  : 		}

	add	esp, 4
	cmp	ebp, esp
	call	__RTC_CheckEsp
	mov	esp, ebp
	pop	ebp
	ret	4
?_Freeheadnode@?$_List_alloc@U?$_List_base_types@VNavGraphEdge@@V?$allocator@VNavGraphEdge@@@std@@@std@@@std@@QAEXPAU?$_List_node@VNavGraphEdge@@PAX@2@@Z ENDP ; std::_List_alloc<std::_List_base_types<NavGraphEdge,std::allocator<NavGraphEdge> > >::_Freeheadnode
_TEXT	ENDS
; Function compile flags: /Odtp /RTCsu
; File c:\program files (x86)\microsoft visual studio\2017\community\vc\tools\msvc\14.15.26726\include\list
;	COMDAT ?_Myproxy@?$_List_alloc@U?$_List_base_types@VNavGraphEdge@@V?$allocator@VNavGraphEdge@@@std@@@std@@@std@@QAEAAPAU_Container_proxy@2@XZ
_TEXT	SEGMENT
_this$ = -4						; size = 4
?_Myproxy@?$_List_alloc@U?$_List_base_types@VNavGraphEdge@@V?$allocator@VNavGraphEdge@@@std@@@std@@@std@@QAEAAPAU_Container_proxy@2@XZ PROC ; std::_List_alloc<std::_List_base_types<NavGraphEdge,std::allocator<NavGraphEdge> > >::_Myproxy, COMDAT
; _this$ = ecx

; 548  : 		{	// return reference to _Myproxy

	push	ebp
	mov	ebp, esp
	push	ecx
	mov	DWORD PTR [ebp-4], -858993460		; ccccccccH
	mov	DWORD PTR _this$[ebp], ecx

; 549  : 		return (_Get_data()._Myproxy);

	mov	ecx, DWORD PTR _this$[ebp]
	call	?_Get_data@?$_List_alloc@U?$_List_base_types@VNavGraphEdge@@V?$allocator@VNavGraphEdge@@@std@@@std@@@std@@QAEAAV?$_List_val@U?$_List_simple_types@VNavGraphEdge@@@std@@@2@XZ ; std::_List_alloc<std::_List_base_types<NavGraphEdge,std::allocator<NavGraphEdge> > >::_Get_data

; 550  : 		}

	add	esp, 4
	cmp	ebp, esp
	call	__RTC_CheckEsp
	mov	esp, ebp
	pop	ebp
	ret	0
?_Myproxy@?$_List_alloc@U?$_List_base_types@VNavGraphEdge@@V?$allocator@VNavGraphEdge@@@std@@@std@@@std@@QAEAAPAU_Container_proxy@2@XZ ENDP ; std::_List_alloc<std::_List_base_types<NavGraphEdge,std::allocator<NavGraphEdge> > >::_Myproxy
_TEXT	ENDS
; Function compile flags: /Odtp /RTCsu
; File c:\program files (x86)\microsoft visual studio\2017\community\vc\tools\msvc\14.15.26726\include\list
;	COMDAT ?_Getpfirst@?$_List_alloc@U?$_List_base_types@VNavGraphEdge@@V?$allocator@VNavGraphEdge@@@std@@@std@@@std@@QBEPAPAU_Iterator_base12@2@XZ
_TEXT	SEGMENT
_this$ = -4						; size = 4
?_Getpfirst@?$_List_alloc@U?$_List_base_types@VNavGraphEdge@@V?$allocator@VNavGraphEdge@@@std@@@std@@@std@@QBEPAPAU_Iterator_base12@2@XZ PROC ; std::_List_alloc<std::_List_base_types<NavGraphEdge,std::allocator<NavGraphEdge> > >::_Getpfirst, COMDAT
; _this$ = ecx

; 543  : 		{	// get address of iterator chain

	push	ebp
	mov	ebp, esp
	push	ecx
	mov	DWORD PTR [ebp-4], -858993460		; ccccccccH
	mov	DWORD PTR _this$[ebp], ecx

; 544  : 		return (_Get_data()._Getpfirst());

	mov	ecx, DWORD PTR _this$[ebp]
	call	?_Get_data@?$_List_alloc@U?$_List_base_types@VNavGraphEdge@@V?$allocator@VNavGraphEdge@@@std@@@std@@@std@@QBEABV?$_List_val@U?$_List_simple_types@VNavGraphEdge@@@std@@@2@XZ ; std::_List_alloc<std::_List_base_types<NavGraphEdge,std::allocator<NavGraphEdge> > >::_Get_data
	mov	ecx, eax
	call	?_Getpfirst@_Container_base12@std@@QBEPAPAU_Iterator_base12@2@XZ ; std::_Container_base12::_Getpfirst

; 545  : 		}

	add	esp, 4
	cmp	ebp, esp
	call	__RTC_CheckEsp
	mov	esp, ebp
	pop	ebp
	ret	0
?_Getpfirst@?$_List_alloc@U?$_List_base_types@VNavGraphEdge@@V?$allocator@VNavGraphEdge@@@std@@@std@@@std@@QBEPAPAU_Iterator_base12@2@XZ ENDP ; std::_List_alloc<std::_List_base_types<NavGraphEdge,std::allocator<NavGraphEdge> > >::_Getpfirst
_TEXT	ENDS
; Function compile flags: /Odtp /RTCsu
; File c:\program files (x86)\microsoft visual studio\2017\community\vc\tools\msvc\14.15.26726\include\list
;	COMDAT ?_Free_proxy@?$_List_alloc@U?$_List_base_types@VNavGraphEdge@@V?$allocator@VNavGraphEdge@@@std@@@std@@@std@@QAEXXZ
_TEXT	SEGMENT
__Proxy_allocator$ = -9					; size = 1
_this$ = -4						; size = 4
?_Free_proxy@?$_List_alloc@U?$_List_base_types@VNavGraphEdge@@V?$allocator@VNavGraphEdge@@@std@@@std@@@std@@QAEXXZ PROC ; std::_List_alloc<std::_List_base_types<NavGraphEdge,std::allocator<NavGraphEdge> > >::_Free_proxy, COMDAT
; _this$ = ecx

; 534  : 		{	// destroy proxy

	push	ebp
	mov	ebp, esp
	sub	esp, 16					; 00000010H
	mov	eax, -858993460				; ccccccccH
	mov	DWORD PTR [ebp-16], eax
	mov	DWORD PTR [ebp-12], eax
	mov	DWORD PTR [ebp-8], eax
	mov	DWORD PTR [ebp-4], eax
	mov	DWORD PTR _this$[ebp], ecx

; 535  : 		_Alproxy _Proxy_allocator(_Getal());

	mov	ecx, DWORD PTR _this$[ebp]
	call	?_Getal@?$_List_alloc@U?$_List_base_types@VNavGraphEdge@@V?$allocator@VNavGraphEdge@@@std@@@std@@@std@@QAEAAV?$allocator@U?$_List_node@VNavGraphEdge@@PAX@std@@@2@XZ ; std::_List_alloc<std::_List_base_types<NavGraphEdge,std::allocator<NavGraphEdge> > >::_Getal
	push	eax
	lea	ecx, DWORD PTR __Proxy_allocator$[ebp]
	call	??$?0U?$_List_node@VNavGraphEdge@@PAX@std@@@?$allocator@U_Container_proxy@std@@@std@@QAE@ABV?$allocator@U?$_List_node@VNavGraphEdge@@PAX@std@@@1@@Z ; std::allocator<std::_Container_proxy>::allocator<std::_Container_proxy><std::_List_node<NavGraphEdge,void *> >

; 536  : 		_Orphan_all();

	mov	ecx, DWORD PTR _this$[ebp]
	call	?_Orphan_all@?$_List_alloc@U?$_List_base_types@VNavGraphEdge@@V?$allocator@VNavGraphEdge@@@std@@@std@@@std@@QAEXXZ ; std::_List_alloc<std::_List_base_types<NavGraphEdge,std::allocator<NavGraphEdge> > >::_Orphan_all

; 537  : 		_Alproxy_traits::destroy(_Proxy_allocator, _Myproxy());

	mov	ecx, DWORD PTR _this$[ebp]
	call	?_Myproxy@?$_List_alloc@U?$_List_base_types@VNavGraphEdge@@V?$allocator@VNavGraphEdge@@@std@@@std@@@std@@QAEAAPAU_Container_proxy@2@XZ ; std::_List_alloc<std::_List_base_types<NavGraphEdge,std::allocator<NavGraphEdge> > >::_Myproxy
	mov	eax, DWORD PTR [eax]
	push	eax
	lea	ecx, DWORD PTR __Proxy_allocator$[ebp]
	push	ecx
	call	??$destroy@U_Container_proxy@std@@@?$_Default_allocator_traits@V?$allocator@U_Container_proxy@std@@@std@@@std@@SAXAAV?$allocator@U_Container_proxy@std@@@1@QAU_Container_proxy@1@@Z ; std::_Default_allocator_traits<std::allocator<std::_Container_proxy> >::destroy<std::_Container_proxy>
	add	esp, 8

; 538  : 		_Deallocate_plain(_Proxy_allocator, _Myproxy());

	mov	ecx, DWORD PTR _this$[ebp]
	call	?_Myproxy@?$_List_alloc@U?$_List_base_types@VNavGraphEdge@@V?$allocator@VNavGraphEdge@@@std@@@std@@@std@@QAEAAPAU_Container_proxy@2@XZ ; std::_List_alloc<std::_List_base_types<NavGraphEdge,std::allocator<NavGraphEdge> > >::_Myproxy
	mov	edx, DWORD PTR [eax]
	push	edx
	lea	eax, DWORD PTR __Proxy_allocator$[ebp]
	push	eax
	call	??$_Deallocate_plain@V?$allocator@U_Container_proxy@std@@@std@@$0A@@std@@YAXAAV?$allocator@U_Container_proxy@std@@@0@QAU_Container_proxy@0@@Z ; std::_Deallocate_plain<std::allocator<std::_Container_proxy>,0>
	add	esp, 8

; 539  : 		_Myproxy() = nullptr;

	mov	ecx, DWORD PTR _this$[ebp]
	call	?_Myproxy@?$_List_alloc@U?$_List_base_types@VNavGraphEdge@@V?$allocator@VNavGraphEdge@@@std@@@std@@@std@@QAEAAPAU_Container_proxy@2@XZ ; std::_List_alloc<std::_List_base_types<NavGraphEdge,std::allocator<NavGraphEdge> > >::_Myproxy
	mov	DWORD PTR [eax], 0

; 540  : 		}

	push	edx
	mov	ecx, ebp
	push	eax
	lea	edx, DWORD PTR $LN5@Free_proxy
	call	@_RTC_CheckStackVars@8
	pop	eax
	pop	edx
	add	esp, 16					; 00000010H
	cmp	ebp, esp
	call	__RTC_CheckEsp
	mov	esp, ebp
	pop	ebp
	ret	0
	npad	2
$LN5@Free_proxy:
	DD	1
	DD	$LN4@Free_proxy
$LN4@Free_proxy:
	DD	-9					; fffffff7H
	DD	1
	DD	$LN3@Free_proxy
$LN3@Free_proxy:
	DB	95					; 0000005fH
	DB	80					; 00000050H
	DB	114					; 00000072H
	DB	111					; 0000006fH
	DB	120					; 00000078H
	DB	121					; 00000079H
	DB	95					; 0000005fH
	DB	97					; 00000061H
	DB	108					; 0000006cH
	DB	108					; 0000006cH
	DB	111					; 0000006fH
	DB	99					; 00000063H
	DB	97					; 00000061H
	DB	116					; 00000074H
	DB	111					; 0000006fH
	DB	114					; 00000072H
	DB	0
?_Free_proxy@?$_List_alloc@U?$_List_base_types@VNavGraphEdge@@V?$allocator@VNavGraphEdge@@@std@@@std@@@std@@QAEXXZ ENDP ; std::_List_alloc<std::_List_base_types<NavGraphEdge,std::allocator<NavGraphEdge> > >::_Free_proxy
_TEXT	ENDS
; Function compile flags: /Odtp /RTCsu
; File c:\program files (x86)\microsoft visual studio\2017\community\vc\tools\msvc\14.15.26726\include\list
;	COMDAT ??1?$_List_alloc@U?$_List_base_types@VNavGraphEdge@@V?$allocator@VNavGraphEdge@@@std@@@std@@@std@@QAE@XZ
_TEXT	SEGMENT
_this$ = -16						; size = 4
__$EHRec$ = -12						; size = 12
??1?$_List_alloc@U?$_List_base_types@VNavGraphEdge@@V?$allocator@VNavGraphEdge@@@std@@@std@@@std@@QAE@XZ PROC ; std::_List_alloc<std::_List_base_types<NavGraphEdge,std::allocator<NavGraphEdge> > >::~_List_alloc<std::_List_base_types<NavGraphEdge,std::allocator<NavGraphEdge> > >, COMDAT
; _this$ = ecx

; 520  : 		{	// destroy proxy

	push	ebp
	mov	ebp, esp
	push	-1
	push	__ehhandler$??1?$_List_alloc@U?$_List_base_types@VNavGraphEdge@@V?$allocator@VNavGraphEdge@@@std@@@std@@@std@@QAE@XZ
	mov	eax, DWORD PTR fs:0
	push	eax
	push	ecx
	mov	DWORD PTR [ebp-16], -858993460		; ccccccccH
	mov	eax, DWORD PTR ___security_cookie
	xor	eax, ebp
	push	eax
	lea	eax, DWORD PTR __$EHRec$[ebp]
	mov	DWORD PTR fs:0, eax
	mov	DWORD PTR _this$[ebp], ecx

; 521  : 		_Freeheadnode(_Myhead());

	mov	ecx, DWORD PTR _this$[ebp]
	call	?_Myhead@?$_List_alloc@U?$_List_base_types@VNavGraphEdge@@V?$allocator@VNavGraphEdge@@@std@@@std@@@std@@QAEAAPAU?$_List_node@VNavGraphEdge@@PAX@2@XZ ; std::_List_alloc<std::_List_base_types<NavGraphEdge,std::allocator<NavGraphEdge> > >::_Myhead
	mov	eax, DWORD PTR [eax]
	push	eax
	mov	ecx, DWORD PTR _this$[ebp]
	call	?_Freeheadnode@?$_List_alloc@U?$_List_base_types@VNavGraphEdge@@V?$allocator@VNavGraphEdge@@@std@@@std@@@std@@QAEXPAU?$_List_node@VNavGraphEdge@@PAX@2@@Z ; std::_List_alloc<std::_List_base_types<NavGraphEdge,std::allocator<NavGraphEdge> > >::_Freeheadnode

; 522  : 		_Free_proxy();

	mov	ecx, DWORD PTR _this$[ebp]
	call	?_Free_proxy@?$_List_alloc@U?$_List_base_types@VNavGraphEdge@@V?$allocator@VNavGraphEdge@@@std@@@std@@@std@@QAEXXZ ; std::_List_alloc<std::_List_base_types<NavGraphEdge,std::allocator<NavGraphEdge> > >::_Free_proxy

; 523  : 		}

	mov	ecx, DWORD PTR __$EHRec$[ebp]
	mov	DWORD PTR fs:0, ecx
	pop	ecx
	add	esp, 16					; 00000010H
	cmp	ebp, esp
	call	__RTC_CheckEsp
	mov	esp, ebp
	pop	ebp
	ret	0
_TEXT	ENDS
;	COMDAT text$x
text$x	SEGMENT
__ehhandler$??1?$_List_alloc@U?$_List_base_types@VNavGraphEdge@@V?$allocator@VNavGraphEdge@@@std@@@std@@@std@@QAE@XZ:
	mov	edx, DWORD PTR [esp+8]
	lea	eax, DWORD PTR [edx+12]
	mov	ecx, DWORD PTR [edx-8]
	xor	ecx, eax
	call	@__security_check_cookie@4
	mov	eax, OFFSET __ehfuncinfo$??1?$_List_alloc@U?$_List_base_types@VNavGraphEdge@@V?$allocator@VNavGraphEdge@@@std@@@std@@@std@@QAE@XZ
	jmp	___CxxFrameHandler3
text$x	ENDS
??1?$_List_alloc@U?$_List_base_types@VNavGraphEdge@@V?$allocator@VNavGraphEdge@@@std@@@std@@@std@@QAE@XZ ENDP ; std::_List_alloc<std::_List_base_types<NavGraphEdge,std::allocator<NavGraphEdge> > >::~_List_alloc<std::_List_base_types<NavGraphEdge,std::allocator<NavGraphEdge> > >
; Function compile flags: /Odtp /RTCsu
; File c:\program files (x86)\microsoft visual studio\2017\community\vc\tools\msvc\14.15.26726\include\xmemory0
;	COMDAT ?deallocate@?$_Default_allocator_traits@V?$allocator@U?$_List_node@VNavGraphEdge@@PAX@std@@@std@@@std@@SAXAAV?$allocator@U?$_List_node@VNavGraphEdge@@PAX@std@@@2@QAU?$_List_node@VNavGraphEdge@@PAX@2@I@Z
_TEXT	SEGMENT
___formal$ = 8						; size = 4
__Ptr$ = 12						; size = 4
__Count$ = 16						; size = 4
?deallocate@?$_Default_allocator_traits@V?$allocator@U?$_List_node@VNavGraphEdge@@PAX@std@@@std@@@std@@SAXAAV?$allocator@U?$_List_node@VNavGraphEdge@@PAX@std@@@2@QAU?$_List_node@VNavGraphEdge@@PAX@2@I@Z PROC ; std::_Default_allocator_traits<std::allocator<std::_List_node<NavGraphEdge,void *> > >::deallocate, COMDAT

; 871  : 		{	// deallocate _Count elements at _Ptr

	push	ebp
	mov	ebp, esp

; 872  : 		// no overflow check on the following multiply; we assume _Allocate did that check
; 873  : 		_Deallocate<_New_alignof<value_type>>(_Ptr, sizeof(value_type) * _Count);

	imul	eax, DWORD PTR __Count$[ebp], 40
	push	eax
	mov	ecx, DWORD PTR __Ptr$[ebp]
	push	ecx
	call	??$_Deallocate@$07$0A@@std@@YAXPAXI@Z	; std::_Deallocate<8,0>
	add	esp, 8

; 874  : 		}

	cmp	ebp, esp
	call	__RTC_CheckEsp
	pop	ebp
	ret	0
?deallocate@?$_Default_allocator_traits@V?$allocator@U?$_List_node@VNavGraphEdge@@PAX@std@@@std@@@std@@SAXAAV?$allocator@U?$_List_node@VNavGraphEdge@@PAX@std@@@2@QAU?$_List_node@VNavGraphEdge@@PAX@2@I@Z ENDP ; std::_Default_allocator_traits<std::allocator<std::_List_node<NavGraphEdge,void *> > >::deallocate
_TEXT	ENDS
; Function compile flags: /Odtp /RTCsu
; File c:\program files (x86)\microsoft visual studio\2017\community\vc\tools\msvc\14.15.26726\include\xmemory0
;	COMDAT ??$?0V?$NavGraphNode@PAV?$Trigger@VRaven_Bot@@@@@@@?$allocator@U_Container_proxy@std@@@std@@QAE@ABV?$allocator@V?$NavGraphNode@PAV?$Trigger@VRaven_Bot@@@@@@@1@@Z
_TEXT	SEGMENT
_this$ = -4						; size = 4
___formal$ = 8						; size = 4
??$?0V?$NavGraphNode@PAV?$Trigger@VRaven_Bot@@@@@@@?$allocator@U_Container_proxy@std@@@std@@QAE@ABV?$allocator@V?$NavGraphNode@PAV?$Trigger@VRaven_Bot@@@@@@@1@@Z PROC ; std::allocator<std::_Container_proxy>::allocator<std::_Container_proxy><NavGraphNode<Trigger<Raven_Bot> *> >, COMDAT
; _this$ = ecx

; 986  : 		{	// construct from a related allocator (do nothing)

	push	ebp
	mov	ebp, esp
	push	ecx
	mov	DWORD PTR [ebp-4], -858993460		; ccccccccH
	mov	DWORD PTR _this$[ebp], ecx

; 987  : 		}

	mov	eax, DWORD PTR _this$[ebp]
	mov	esp, ebp
	pop	ebp
	ret	4
??$?0V?$NavGraphNode@PAV?$Trigger@VRaven_Bot@@@@@@@?$allocator@U_Container_proxy@std@@@std@@QAE@ABV?$allocator@V?$NavGraphNode@PAV?$Trigger@VRaven_Bot@@@@@@@1@@Z ENDP ; std::allocator<std::_Container_proxy>::allocator<std::_Container_proxy><NavGraphNode<Trigger<Raven_Bot> *> >
_TEXT	ENDS
; Function compile flags: /Odtp /RTCsu
; File c:\program files (x86)\microsoft visual studio\2017\community\vc\tools\msvc\14.15.26726\include\xmemory0
;	COMDAT ??$?0V?$list@VNavGraphEdge@@V?$allocator@VNavGraphEdge@@@std@@@std@@@?$allocator@U_Container_proxy@std@@@std@@QAE@ABV?$allocator@V?$list@VNavGraphEdge@@V?$allocator@VNavGraphEdge@@@std@@@std@@@1@@Z
_TEXT	SEGMENT
_this$ = -4						; size = 4
___formal$ = 8						; size = 4
??$?0V?$list@VNavGraphEdge@@V?$allocator@VNavGraphEdge@@@std@@@std@@@?$allocator@U_Container_proxy@std@@@std@@QAE@ABV?$allocator@V?$list@VNavGraphEdge@@V?$allocator@VNavGraphEdge@@@std@@@std@@@1@@Z PROC ; std::allocator<std::_Container_proxy>::allocator<std::_Container_proxy><std::list<NavGraphEdge,std::allocator<NavGraphEdge> > >, COMDAT
; _this$ = ecx

; 986  : 		{	// construct from a related allocator (do nothing)

	push	ebp
	mov	ebp, esp
	push	ecx
	mov	DWORD PTR [ebp-4], -858993460		; ccccccccH
	mov	DWORD PTR _this$[ebp], ecx

; 987  : 		}

	mov	eax, DWORD PTR _this$[ebp]
	mov	esp, ebp
	pop	ebp
	ret	4
??$?0V?$list@VNavGraphEdge@@V?$allocator@VNavGraphEdge@@@std@@@std@@@?$allocator@U_Container_proxy@std@@@std@@QAE@ABV?$allocator@V?$list@VNavGraphEdge@@V?$allocator@VNavGraphEdge@@@std@@@std@@@1@@Z ENDP ; std::allocator<std::_Container_proxy>::allocator<std::_Container_proxy><std::list<NavGraphEdge,std::allocator<NavGraphEdge> > >
_TEXT	ENDS
; Function compile flags: /Odtp /RTCsu
; File c:\program files (x86)\microsoft visual studio\2017\community\vc\tools\msvc\14.15.26726\include\xmemory0
;	COMDAT ??$?0U?$_List_node@PAV?$Trigger@VRaven_Bot@@@@PAX@std@@@?$allocator@U_Container_proxy@std@@@std@@QAE@ABV?$allocator@U?$_List_node@PAV?$Trigger@VRaven_Bot@@@@PAX@std@@@1@@Z
_TEXT	SEGMENT
_this$ = -4						; size = 4
___formal$ = 8						; size = 4
??$?0U?$_List_node@PAV?$Trigger@VRaven_Bot@@@@PAX@std@@@?$allocator@U_Container_proxy@std@@@std@@QAE@ABV?$allocator@U?$_List_node@PAV?$Trigger@VRaven_Bot@@@@PAX@std@@@1@@Z PROC ; std::allocator<std::_Container_proxy>::allocator<std::_Container_proxy><std::_List_node<Trigger<Raven_Bot> *,void *> >, COMDAT
; _this$ = ecx

; 986  : 		{	// construct from a related allocator (do nothing)

	push	ebp
	mov	ebp, esp
	push	ecx
	mov	DWORD PTR [ebp-4], -858993460		; ccccccccH
	mov	DWORD PTR _this$[ebp], ecx

; 987  : 		}

	mov	eax, DWORD PTR _this$[ebp]
	mov	esp, ebp
	pop	ebp
	ret	4
??$?0U?$_List_node@PAV?$Trigger@VRaven_Bot@@@@PAX@std@@@?$allocator@U_Container_proxy@std@@@std@@QAE@ABV?$allocator@U?$_List_node@PAV?$Trigger@VRaven_Bot@@@@PAX@std@@@1@@Z ENDP ; std::allocator<std::_Container_proxy>::allocator<std::_Container_proxy><std::_List_node<Trigger<Raven_Bot> *,void *> >
_TEXT	ENDS
; Function compile flags: /Odtp /RTCsu
; File c:\program files (x86)\microsoft visual studio\2017\community\vc\tools\msvc\14.15.26726\include\list
;	COMDAT ??$_Freenode0@V?$allocator@U?$_List_node@PAV?$Trigger@VRaven_Bot@@@@PAX@std@@@std@@@?$_List_node@PAV?$Trigger@VRaven_Bot@@@@PAX@std@@SAXAAV?$allocator@U?$_List_node@PAV?$Trigger@VRaven_Bot@@@@PAX@std@@@1@PAU01@@Z
_TEXT	SEGMENT
__Node_alloc$ = -17					; size = 1
__$EHRec$ = -12						; size = 12
__Al$ = 8						; size = 4
__Ptr$ = 12						; size = 4
??$_Freenode0@V?$allocator@U?$_List_node@PAV?$Trigger@VRaven_Bot@@@@PAX@std@@@std@@@?$_List_node@PAV?$Trigger@VRaven_Bot@@@@PAX@std@@SAXAAV?$allocator@U?$_List_node@PAV?$Trigger@VRaven_Bot@@@@PAX@std@@@1@PAU01@@Z PROC ; std::_List_node<Trigger<Raven_Bot> *,void *>::_Freenode0<std::allocator<std::_List_node<Trigger<Raven_Bot> *,void *> > >, COMDAT

; 368  : 			{

	push	ebp
	mov	ebp, esp
	push	-1
	push	__ehhandler$??$_Freenode0@V?$allocator@U?$_List_node@PAV?$Trigger@VRaven_Bot@@@@PAX@std@@@std@@@?$_List_node@PAV?$Trigger@VRaven_Bot@@@@PAX@std@@SAXAAV?$allocator@U?$_List_node@PAV?$Trigger@VRaven_Bot@@@@PAX@std@@@1@PAU01@@Z
	mov	eax, DWORD PTR fs:0
	push	eax
	sub	esp, 12					; 0000000cH
	mov	DWORD PTR [ebp-24], -858993460		; ccccccccH
	mov	DWORD PTR [ebp-20], -858993460		; ccccccccH
	mov	DWORD PTR [ebp-16], -858993460		; ccccccccH
	mov	eax, DWORD PTR ___security_cookie
	xor	eax, ebp
	push	eax
	lea	eax, DWORD PTR __$EHRec$[ebp]
	mov	DWORD PTR fs:0, eax

; 369  : 			using _Alnode = _Rebind_alloc_t<_Alloc, _List_node>;
; 370  : 			using _Alnode_traits = allocator_traits<_Alnode>;
; 371  : 			_Alnode _Node_alloc(_Al);
; 372  : 			_Alnode_traits::destroy(_Node_alloc, _STD addressof(_Ptr->_Next));

	mov	eax, DWORD PTR __Ptr$[ebp]
	push	eax
	call	??$addressof@PAU?$_List_node@PAV?$Trigger@VRaven_Bot@@@@PAX@std@@@std@@YAPAPAU?$_List_node@PAV?$Trigger@VRaven_Bot@@@@PAX@0@AAPAU10@@Z ; std::addressof<std::_List_node<Trigger<Raven_Bot> *,void *> *>
	add	esp, 4
	push	eax
	lea	ecx, DWORD PTR __Node_alloc$[ebp]
	push	ecx
	call	??$destroy@PAU?$_List_node@PAV?$Trigger@VRaven_Bot@@@@PAX@std@@@?$_Default_allocator_traits@V?$allocator@U?$_List_node@PAV?$Trigger@VRaven_Bot@@@@PAX@std@@@std@@@std@@SAXAAV?$allocator@U?$_List_node@PAV?$Trigger@VRaven_Bot@@@@PAX@std@@@1@QAPAU?$_List_node@PAV?$Trigger@VRaven_Bot@@@@PAX@1@@Z ; std::_Default_allocator_traits<std::allocator<std::_List_node<Trigger<Raven_Bot> *,void *> > >::destroy<std::_List_node<Trigger<Raven_Bot> *,void *> *>
	add	esp, 8

; 373  : 			_Alnode_traits::destroy(_Node_alloc, _STD addressof(_Ptr->_Prev));

	mov	edx, DWORD PTR __Ptr$[ebp]
	add	edx, 4
	push	edx
	call	??$addressof@PAU?$_List_node@PAV?$Trigger@VRaven_Bot@@@@PAX@std@@@std@@YAPAPAU?$_List_node@PAV?$Trigger@VRaven_Bot@@@@PAX@0@AAPAU10@@Z ; std::addressof<std::_List_node<Trigger<Raven_Bot> *,void *> *>
	add	esp, 4
	push	eax
	lea	eax, DWORD PTR __Node_alloc$[ebp]
	push	eax
	call	??$destroy@PAU?$_List_node@PAV?$Trigger@VRaven_Bot@@@@PAX@std@@@?$_Default_allocator_traits@V?$allocator@U?$_List_node@PAV?$Trigger@VRaven_Bot@@@@PAX@std@@@std@@@std@@SAXAAV?$allocator@U?$_List_node@PAV?$Trigger@VRaven_Bot@@@@PAX@std@@@1@QAPAU?$_List_node@PAV?$Trigger@VRaven_Bot@@@@PAX@1@@Z ; std::_Default_allocator_traits<std::allocator<std::_List_node<Trigger<Raven_Bot> *,void *> > >::destroy<std::_List_node<Trigger<Raven_Bot> *,void *> *>
	add	esp, 8

; 374  : 			_Alnode_traits::deallocate(_Node_alloc, _Ptr, 1);

	push	1
	mov	ecx, DWORD PTR __Ptr$[ebp]
	push	ecx
	lea	edx, DWORD PTR __Node_alloc$[ebp]
	push	edx
	call	?deallocate@?$_Default_allocator_traits@V?$allocator@U?$_List_node@PAV?$Trigger@VRaven_Bot@@@@PAX@std@@@std@@@std@@SAXAAV?$allocator@U?$_List_node@PAV?$Trigger@VRaven_Bot@@@@PAX@std@@@2@QAU?$_List_node@PAV?$Trigger@VRaven_Bot@@@@PAX@2@I@Z ; std::_Default_allocator_traits<std::allocator<std::_List_node<Trigger<Raven_Bot> *,void *> > >::deallocate
	add	esp, 12					; 0000000cH

; 375  : 			}

	push	edx
	mov	ecx, ebp
	push	eax
	lea	edx, DWORD PTR $LN6@Freenode0
	call	@_RTC_CheckStackVars@8
	pop	eax
	pop	edx
	mov	ecx, DWORD PTR __$EHRec$[ebp]
	mov	DWORD PTR fs:0, ecx
	pop	ecx
	add	esp, 24					; 00000018H
	cmp	ebp, esp
	call	__RTC_CheckEsp
	mov	esp, ebp
	pop	ebp
	ret	0
	npad	1
$LN6@Freenode0:
	DD	1
	DD	$LN5@Freenode0
$LN5@Freenode0:
	DD	-17					; ffffffefH
	DD	1
	DD	$LN3@Freenode0
$LN3@Freenode0:
	DB	95					; 0000005fH
	DB	78					; 0000004eH
	DB	111					; 0000006fH
	DB	100					; 00000064H
	DB	101					; 00000065H
	DB	95					; 0000005fH
	DB	97					; 00000061H
	DB	108					; 0000006cH
	DB	108					; 0000006cH
	DB	111					; 0000006fH
	DB	99					; 00000063H
	DB	0
_TEXT	ENDS
;	COMDAT text$x
text$x	SEGMENT
__ehhandler$??$_Freenode0@V?$allocator@U?$_List_node@PAV?$Trigger@VRaven_Bot@@@@PAX@std@@@std@@@?$_List_node@PAV?$Trigger@VRaven_Bot@@@@PAX@std@@SAXAAV?$allocator@U?$_List_node@PAV?$Trigger@VRaven_Bot@@@@PAX@std@@@1@PAU01@@Z:
	mov	edx, DWORD PTR [esp+8]
	lea	eax, DWORD PTR [edx+12]
	mov	ecx, DWORD PTR [edx-16]
	xor	ecx, eax
	call	@__security_check_cookie@4
	mov	eax, OFFSET __ehfuncinfo$??$_Freenode0@V?$allocator@U?$_List_node@PAV?$Trigger@VRaven_Bot@@@@PAX@std@@@std@@@?$_List_node@PAV?$Trigger@VRaven_Bot@@@@PAX@std@@SAXAAV?$allocator@U?$_List_node@PAV?$Trigger@VRaven_Bot@@@@PAX@std@@@1@PAU01@@Z
	jmp	___CxxFrameHandler3
text$x	ENDS
??$_Freenode0@V?$allocator@U?$_List_node@PAV?$Trigger@VRaven_Bot@@@@PAX@std@@@std@@@?$_List_node@PAV?$Trigger@VRaven_Bot@@@@PAX@std@@SAXAAV?$allocator@U?$_List_node@PAV?$Trigger@VRaven_Bot@@@@PAX@std@@@1@PAU01@@Z ENDP ; std::_List_node<Trigger<Raven_Bot> *,void *>::_Freenode0<std::allocator<std::_List_node<Trigger<Raven_Bot> *,void *> > >
; Function compile flags: /Odtp /RTCsu
; File c:\program files (x86)\microsoft visual studio\2017\community\vc\tools\msvc\14.15.26726\include\xmemory0
;	COMDAT ??$_Deallocate_plain@V?$allocator@U_Container_proxy@std@@@std@@$0A@@std@@YAXAAV?$allocator@U_Container_proxy@std@@@0@QAU_Container_proxy@0@@Z
_TEXT	SEGMENT
__Al$ = 8						; size = 4
__Ptr$ = 12						; size = 4
??$_Deallocate_plain@V?$allocator@U_Container_proxy@std@@@std@@$0A@@std@@YAXAAV?$allocator@U_Container_proxy@std@@@0@QAU_Container_proxy@0@@Z PROC ; std::_Deallocate_plain<std::allocator<std::_Container_proxy>,0>, COMDAT

; 1212 : 	{	// deallocate a plain pointer using an allocator, non-fancy pointers special case

	push	ebp
	mov	ebp, esp

; 1213 : 	allocator_traits<_Alloc>::deallocate(_Al, _Ptr, 1);

	push	1
	mov	eax, DWORD PTR __Ptr$[ebp]
	push	eax
	mov	ecx, DWORD PTR __Al$[ebp]
	push	ecx
	call	?deallocate@?$_Default_allocator_traits@V?$allocator@U_Container_proxy@std@@@std@@@std@@SAXAAV?$allocator@U_Container_proxy@std@@@2@QAU_Container_proxy@2@I@Z ; std::_Default_allocator_traits<std::allocator<std::_Container_proxy> >::deallocate
	add	esp, 12					; 0000000cH

; 1214 : 	}

	cmp	ebp, esp
	call	__RTC_CheckEsp
	pop	ebp
	ret	0
??$_Deallocate_plain@V?$allocator@U_Container_proxy@std@@@std@@$0A@@std@@YAXAAV?$allocator@U_Container_proxy@std@@@0@QAU_Container_proxy@0@@Z ENDP ; std::_Deallocate_plain<std::allocator<std::_Container_proxy>,0>
_TEXT	ENDS
; Function compile flags: /Odtp /RTCsu
; File c:\program files (x86)\microsoft visual studio\2017\community\vc\tools\msvc\14.15.26726\include\xmemory0
;	COMDAT ??$destroy@U_Container_proxy@std@@@?$_Default_allocator_traits@V?$allocator@U_Container_proxy@std@@@std@@@std@@SAXAAV?$allocator@U_Container_proxy@std@@@1@QAU_Container_proxy@1@@Z
_TEXT	SEGMENT
___formal$ = 8						; size = 4
__Ptr$ = 12						; size = 4
??$destroy@U_Container_proxy@std@@@?$_Default_allocator_traits@V?$allocator@U_Container_proxy@std@@@std@@@std@@SAXAAV?$allocator@U_Container_proxy@std@@@1@QAU_Container_proxy@1@@Z PROC ; std::_Default_allocator_traits<std::allocator<std::_Container_proxy> >::destroy<std::_Container_proxy>, COMDAT

; 886  : 		{	// destroy object at _Ptr

	push	ebp
	mov	ebp, esp

; 887  : 		_Ptr->~_Uty();
; 888  : 		}

	pop	ebp
	ret	0
??$destroy@U_Container_proxy@std@@@?$_Default_allocator_traits@V?$allocator@U_Container_proxy@std@@@std@@@std@@SAXAAV?$allocator@U_Container_proxy@std@@@1@QAU_Container_proxy@1@@Z ENDP ; std::_Default_allocator_traits<std::allocator<std::_Container_proxy> >::destroy<std::_Container_proxy>
_TEXT	ENDS
; Function compile flags: /Odtp /RTCsu
; File c:\program files (x86)\microsoft visual studio\2017\community\vc\tools\msvc\14.15.26726\include\xmemory0
;	COMDAT ?deallocate@?$_Default_allocator_traits@V?$allocator@U_Container_proxy@std@@@std@@@std@@SAXAAV?$allocator@U_Container_proxy@std@@@2@QAU_Container_proxy@2@I@Z
_TEXT	SEGMENT
___formal$ = 8						; size = 4
__Ptr$ = 12						; size = 4
__Count$ = 16						; size = 4
?deallocate@?$_Default_allocator_traits@V?$allocator@U_Container_proxy@std@@@std@@@std@@SAXAAV?$allocator@U_Container_proxy@std@@@2@QAU_Container_proxy@2@I@Z PROC ; std::_Default_allocator_traits<std::allocator<std::_Container_proxy> >::deallocate, COMDAT

; 871  : 		{	// deallocate _Count elements at _Ptr

	push	ebp
	mov	ebp, esp

; 872  : 		// no overflow check on the following multiply; we assume _Allocate did that check
; 873  : 		_Deallocate<_New_alignof<value_type>>(_Ptr, sizeof(value_type) * _Count);

	mov	eax, DWORD PTR __Count$[ebp]
	shl	eax, 3
	push	eax
	mov	ecx, DWORD PTR __Ptr$[ebp]
	push	ecx
	call	??$_Deallocate@$07$0A@@std@@YAXPAXI@Z	; std::_Deallocate<8,0>
	add	esp, 8

; 874  : 		}

	cmp	ebp, esp
	call	__RTC_CheckEsp
	pop	ebp
	ret	0
?deallocate@?$_Default_allocator_traits@V?$allocator@U_Container_proxy@std@@@std@@@std@@SAXAAV?$allocator@U_Container_proxy@std@@@2@QAU_Container_proxy@2@I@Z ENDP ; std::_Default_allocator_traits<std::allocator<std::_Container_proxy> >::deallocate
_TEXT	ENDS
; Function compile flags: /Odtp /RTCsu
; File c:\program files (x86)\microsoft visual studio\2017\community\vc\tools\msvc\14.15.26726\include\xmemory0
;	COMDAT ??$?0U?$_List_node@PAVRaven_Bot@@PAX@std@@@?$allocator@U_Container_proxy@std@@@std@@QAE@ABV?$allocator@U?$_List_node@PAVRaven_Bot@@PAX@std@@@1@@Z
_TEXT	SEGMENT
_this$ = -4						; size = 4
___formal$ = 8						; size = 4
??$?0U?$_List_node@PAVRaven_Bot@@PAX@std@@@?$allocator@U_Container_proxy@std@@@std@@QAE@ABV?$allocator@U?$_List_node@PAVRaven_Bot@@PAX@std@@@1@@Z PROC ; std::allocator<std::_Container_proxy>::allocator<std::_Container_proxy><std::_List_node<Raven_Bot *,void *> >, COMDAT
; _this$ = ecx

; 986  : 		{	// construct from a related allocator (do nothing)

	push	ebp
	mov	ebp, esp
	push	ecx
	mov	DWORD PTR [ebp-4], -858993460		; ccccccccH
	mov	DWORD PTR _this$[ebp], ecx

; 987  : 		}

	mov	eax, DWORD PTR _this$[ebp]
	mov	esp, ebp
	pop	ebp
	ret	4
??$?0U?$_List_node@PAVRaven_Bot@@PAX@std@@@?$allocator@U_Container_proxy@std@@@std@@QAE@ABV?$allocator@U?$_List_node@PAVRaven_Bot@@PAX@std@@@1@@Z ENDP ; std::allocator<std::_Container_proxy>::allocator<std::_Container_proxy><std::_List_node<Raven_Bot *,void *> >
_TEXT	ENDS
; Function compile flags: /Odtp /RTCsu
; File c:\program files (x86)\microsoft visual studio\2017\community\vc\tools\msvc\14.15.26726\include\xmemory0
;	COMDAT ??$_Deallocate@$07$0A@@std@@YAXPAXI@Z
_TEXT	SEGMENT
__Ptr$ = 8						; size = 4
__Bytes$ = 12						; size = 4
??$_Deallocate@$07$0A@@std@@YAXPAXI@Z PROC		; std::_Deallocate<8,0>, COMDAT

; 199  : 	{	// deallocate storage allocated by _Allocate when !_HAS_ALIGNED_NEW || _Align <= __STDCPP_DEFAULT_NEW_ALIGNMENT__

	push	ebp
	mov	ebp, esp

; 200  :  #if defined(_M_IX86) || defined(_M_X64)
; 201  : 	if (_Bytes >= _Big_allocation_threshold)

	cmp	DWORD PTR __Bytes$[ebp], 4096		; 00001000H
	jb	SHORT $LN2@Deallocate

; 202  : 		{	// boost the alignment of big allocations to help autovectorization
; 203  : 		_Adjust_manually_vector_aligned(_Ptr, _Bytes);

	lea	eax, DWORD PTR __Bytes$[ebp]
	push	eax
	lea	ecx, DWORD PTR __Ptr$[ebp]
	push	ecx
	call	?_Adjust_manually_vector_aligned@std@@YAXAAPAXAAI@Z ; std::_Adjust_manually_vector_aligned
	add	esp, 8
$LN2@Deallocate:

; 204  : 		}
; 205  :  #endif /* defined(_M_IX86) || defined(_M_X64) */
; 206  : 
; 207  : 	::operator delete(_Ptr, _Bytes);

	mov	edx, DWORD PTR __Bytes$[ebp]
	push	edx
	mov	eax, DWORD PTR __Ptr$[ebp]
	push	eax
	call	??3@YAXPAXI@Z				; operator delete
	add	esp, 8

; 208  : 	}

	cmp	ebp, esp
	call	__RTC_CheckEsp
	pop	ebp
	ret	0
??$_Deallocate@$07$0A@@std@@YAXPAXI@Z ENDP		; std::_Deallocate<8,0>
_TEXT	ENDS
; Function compile flags: /Odtp /RTCsu
; File c:\program files (x86)\microsoft visual studio\2017\community\vc\tools\msvc\14.15.26726\include\xmemory0
;	COMDAT ??$_Allocate@$07U_Default_allocate_traits@std@@$0A@@std@@YAPAXI@Z
_TEXT	SEGMENT
__Bytes$ = 8						; size = 4
??$_Allocate@$07U_Default_allocate_traits@std@@$0A@@std@@YAPAXI@Z PROC ; std::_Allocate<8,std::_Default_allocate_traits,0>, COMDAT

; 180  : 	{	// allocate _Bytes when !_HAS_ALIGNED_NEW || _Align <= __STDCPP_DEFAULT_NEW_ALIGNMENT__

	push	ebp
	mov	ebp, esp

; 181  :  #if defined(_M_IX86) || defined(_M_X64)
; 182  : 	if (_Bytes >= _Big_allocation_threshold)

	cmp	DWORD PTR __Bytes$[ebp], 4096		; 00001000H
	jb	SHORT $LN2@Allocate

; 183  : 		{	// boost the alignment of big allocations to help autovectorization
; 184  : 		return (_Allocate_manually_vector_aligned<_Traits>(_Bytes));

	mov	eax, DWORD PTR __Bytes$[ebp]
	push	eax
	call	??$_Allocate_manually_vector_aligned@U_Default_allocate_traits@std@@@std@@YAPAXI@Z ; std::_Allocate_manually_vector_aligned<std::_Default_allocate_traits>
	add	esp, 4
	jmp	SHORT $LN1@Allocate
$LN2@Allocate:

; 185  : 		}
; 186  :  #endif /* defined(_M_IX86) || defined(_M_X64) */
; 187  : 
; 188  : 	if (_Bytes != 0)

	cmp	DWORD PTR __Bytes$[ebp], 0
	je	SHORT $LN3@Allocate

; 189  : 		{
; 190  : 		return (_Traits::_Allocate(_Bytes));

	mov	ecx, DWORD PTR __Bytes$[ebp]
	push	ecx
	call	?_Allocate@_Default_allocate_traits@std@@SAPAXI@Z ; std::_Default_allocate_traits::_Allocate
	add	esp, 4
	jmp	SHORT $LN1@Allocate
$LN3@Allocate:

; 191  : 		}
; 192  : 
; 193  : 	return (nullptr);

	xor	eax, eax
$LN1@Allocate:

; 194  : 	}

	cmp	ebp, esp
	call	__RTC_CheckEsp
	pop	ebp
	ret	0
??$_Allocate@$07U_Default_allocate_traits@std@@$0A@@std@@YAPAXI@Z ENDP ; std::_Allocate<8,std::_Default_allocate_traits,0>
_TEXT	ENDS
; Function compile flags: /Odtp /RTCsu
; File c:\program files (x86)\microsoft visual studio\2017\community\vc\tools\msvc\14.15.26726\include\list
;	COMDAT ??$_Freenode0@V?$allocator@U?$_List_node@PAVRaven_Bot@@PAX@std@@@std@@@?$_List_node@PAVRaven_Bot@@PAX@std@@SAXAAV?$allocator@U?$_List_node@PAVRaven_Bot@@PAX@std@@@1@PAU01@@Z
_TEXT	SEGMENT
__Node_alloc$ = -17					; size = 1
__$EHRec$ = -12						; size = 12
__Al$ = 8						; size = 4
__Ptr$ = 12						; size = 4
??$_Freenode0@V?$allocator@U?$_List_node@PAVRaven_Bot@@PAX@std@@@std@@@?$_List_node@PAVRaven_Bot@@PAX@std@@SAXAAV?$allocator@U?$_List_node@PAVRaven_Bot@@PAX@std@@@1@PAU01@@Z PROC ; std::_List_node<Raven_Bot *,void *>::_Freenode0<std::allocator<std::_List_node<Raven_Bot *,void *> > >, COMDAT

; 368  : 			{

	push	ebp
	mov	ebp, esp
	push	-1
	push	__ehhandler$??$_Freenode0@V?$allocator@U?$_List_node@PAVRaven_Bot@@PAX@std@@@std@@@?$_List_node@PAVRaven_Bot@@PAX@std@@SAXAAV?$allocator@U?$_List_node@PAVRaven_Bot@@PAX@std@@@1@PAU01@@Z
	mov	eax, DWORD PTR fs:0
	push	eax
	sub	esp, 12					; 0000000cH
	mov	DWORD PTR [ebp-24], -858993460		; ccccccccH
	mov	DWORD PTR [ebp-20], -858993460		; ccccccccH
	mov	DWORD PTR [ebp-16], -858993460		; ccccccccH
	mov	eax, DWORD PTR ___security_cookie
	xor	eax, ebp
	push	eax
	lea	eax, DWORD PTR __$EHRec$[ebp]
	mov	DWORD PTR fs:0, eax

; 369  : 			using _Alnode = _Rebind_alloc_t<_Alloc, _List_node>;
; 370  : 			using _Alnode_traits = allocator_traits<_Alnode>;
; 371  : 			_Alnode _Node_alloc(_Al);
; 372  : 			_Alnode_traits::destroy(_Node_alloc, _STD addressof(_Ptr->_Next));

	mov	eax, DWORD PTR __Ptr$[ebp]
	push	eax
	call	??$addressof@PAU?$_List_node@PAVRaven_Bot@@PAX@std@@@std@@YAPAPAU?$_List_node@PAVRaven_Bot@@PAX@0@AAPAU10@@Z ; std::addressof<std::_List_node<Raven_Bot *,void *> *>
	add	esp, 4
	push	eax
	lea	ecx, DWORD PTR __Node_alloc$[ebp]
	push	ecx
	call	??$destroy@PAU?$_List_node@PAVRaven_Bot@@PAX@std@@@?$_Default_allocator_traits@V?$allocator@U?$_List_node@PAVRaven_Bot@@PAX@std@@@std@@@std@@SAXAAV?$allocator@U?$_List_node@PAVRaven_Bot@@PAX@std@@@1@QAPAU?$_List_node@PAVRaven_Bot@@PAX@1@@Z ; std::_Default_allocator_traits<std::allocator<std::_List_node<Raven_Bot *,void *> > >::destroy<std::_List_node<Raven_Bot *,void *> *>
	add	esp, 8

; 373  : 			_Alnode_traits::destroy(_Node_alloc, _STD addressof(_Ptr->_Prev));

	mov	edx, DWORD PTR __Ptr$[ebp]
	add	edx, 4
	push	edx
	call	??$addressof@PAU?$_List_node@PAVRaven_Bot@@PAX@std@@@std@@YAPAPAU?$_List_node@PAVRaven_Bot@@PAX@0@AAPAU10@@Z ; std::addressof<std::_List_node<Raven_Bot *,void *> *>
	add	esp, 4
	push	eax
	lea	eax, DWORD PTR __Node_alloc$[ebp]
	push	eax
	call	??$destroy@PAU?$_List_node@PAVRaven_Bot@@PAX@std@@@?$_Default_allocator_traits@V?$allocator@U?$_List_node@PAVRaven_Bot@@PAX@std@@@std@@@std@@SAXAAV?$allocator@U?$_List_node@PAVRaven_Bot@@PAX@std@@@1@QAPAU?$_List_node@PAVRaven_Bot@@PAX@1@@Z ; std::_Default_allocator_traits<std::allocator<std::_List_node<Raven_Bot *,void *> > >::destroy<std::_List_node<Raven_Bot *,void *> *>
	add	esp, 8

; 374  : 			_Alnode_traits::deallocate(_Node_alloc, _Ptr, 1);

	push	1
	mov	ecx, DWORD PTR __Ptr$[ebp]
	push	ecx
	lea	edx, DWORD PTR __Node_alloc$[ebp]
	push	edx
	call	?deallocate@?$_Default_allocator_traits@V?$allocator@U?$_List_node@PAVRaven_Bot@@PAX@std@@@std@@@std@@SAXAAV?$allocator@U?$_List_node@PAVRaven_Bot@@PAX@std@@@2@QAU?$_List_node@PAVRaven_Bot@@PAX@2@I@Z ; std::_Default_allocator_traits<std::allocator<std::_List_node<Raven_Bot *,void *> > >::deallocate
	add	esp, 12					; 0000000cH

; 375  : 			}

	push	edx
	mov	ecx, ebp
	push	eax
	lea	edx, DWORD PTR $LN6@Freenode0
	call	@_RTC_CheckStackVars@8
	pop	eax
	pop	edx
	mov	ecx, DWORD PTR __$EHRec$[ebp]
	mov	DWORD PTR fs:0, ecx
	pop	ecx
	add	esp, 24					; 00000018H
	cmp	ebp, esp
	call	__RTC_CheckEsp
	mov	esp, ebp
	pop	ebp
	ret	0
	npad	1
$LN6@Freenode0:
	DD	1
	DD	$LN5@Freenode0
$LN5@Freenode0:
	DD	-17					; ffffffefH
	DD	1
	DD	$LN3@Freenode0
$LN3@Freenode0:
	DB	95					; 0000005fH
	DB	78					; 0000004eH
	DB	111					; 0000006fH
	DB	100					; 00000064H
	DB	101					; 00000065H
	DB	95					; 0000005fH
	DB	97					; 00000061H
	DB	108					; 0000006cH
	DB	108					; 0000006cH
	DB	111					; 0000006fH
	DB	99					; 00000063H
	DB	0
_TEXT	ENDS
;	COMDAT text$x
text$x	SEGMENT
__ehhandler$??$_Freenode0@V?$allocator@U?$_List_node@PAVRaven_Bot@@PAX@std@@@std@@@?$_List_node@PAVRaven_Bot@@PAX@std@@SAXAAV?$allocator@U?$_List_node@PAVRaven_Bot@@PAX@std@@@1@PAU01@@Z:
	mov	edx, DWORD PTR [esp+8]
	lea	eax, DWORD PTR [edx+12]
	mov	ecx, DWORD PTR [edx-16]
	xor	ecx, eax
	call	@__security_check_cookie@4
	mov	eax, OFFSET __ehfuncinfo$??$_Freenode0@V?$allocator@U?$_List_node@PAVRaven_Bot@@PAX@std@@@std@@@?$_List_node@PAVRaven_Bot@@PAX@std@@SAXAAV?$allocator@U?$_List_node@PAVRaven_Bot@@PAX@std@@@1@PAU01@@Z
	jmp	___CxxFrameHandler3
text$x	ENDS
??$_Freenode0@V?$allocator@U?$_List_node@PAVRaven_Bot@@PAX@std@@@std@@@?$_List_node@PAVRaven_Bot@@PAX@std@@SAXAAV?$allocator@U?$_List_node@PAVRaven_Bot@@PAX@std@@@1@PAU01@@Z ENDP ; std::_List_node<Raven_Bot *,void *>::_Freenode0<std::allocator<std::_List_node<Raven_Bot *,void *> > >
; Function compile flags: /Odtp /RTCsu
; File c:\program files (x86)\microsoft visual studio\2017\community\vc\tools\msvc\14.15.26726\include\xmemory0
;	COMDAT ??$destroy@PAVRaven_Bot@@@?$_Default_allocator_traits@V?$allocator@U?$_List_node@PAVRaven_Bot@@PAX@std@@@std@@@std@@SAXAAV?$allocator@U?$_List_node@PAVRaven_Bot@@PAX@std@@@1@QAPAVRaven_Bot@@@Z
_TEXT	SEGMENT
___formal$ = 8						; size = 4
__Ptr$ = 12						; size = 4
??$destroy@PAVRaven_Bot@@@?$_Default_allocator_traits@V?$allocator@U?$_List_node@PAVRaven_Bot@@PAX@std@@@std@@@std@@SAXAAV?$allocator@U?$_List_node@PAVRaven_Bot@@PAX@std@@@1@QAPAVRaven_Bot@@@Z PROC ; std::_Default_allocator_traits<std::allocator<std::_List_node<Raven_Bot *,void *> > >::destroy<Raven_Bot *>, COMDAT

; 886  : 		{	// destroy object at _Ptr

	push	ebp
	mov	ebp, esp

; 887  : 		_Ptr->~_Uty();
; 888  : 		}

	pop	ebp
	ret	0
??$destroy@PAVRaven_Bot@@@?$_Default_allocator_traits@V?$allocator@U?$_List_node@PAVRaven_Bot@@PAX@std@@@std@@@std@@SAXAAV?$allocator@U?$_List_node@PAVRaven_Bot@@PAX@std@@@1@QAPAVRaven_Bot@@@Z ENDP ; std::_Default_allocator_traits<std::allocator<std::_List_node<Raven_Bot *,void *> > >::destroy<Raven_Bot *>
_TEXT	ENDS
; Function compile flags: /Odtp /RTCsu
; File c:\program files (x86)\microsoft visual studio\2017\community\vc\tools\msvc\14.15.26726\include\xstddef
;	COMDAT ??$addressof@PAVRaven_Bot@@@std@@YAPAPAVRaven_Bot@@AAPAV1@@Z
_TEXT	SEGMENT
__Val$ = 8						; size = 4
??$addressof@PAVRaven_Bot@@@std@@YAPAPAVRaven_Bot@@AAPAV1@@Z PROC ; std::addressof<Raven_Bot *>, COMDAT

; 329  : 	{	// return address of _Val

	push	ebp
	mov	ebp, esp

; 330  : 	return (__builtin_addressof(_Val));

	mov	eax, DWORD PTR __Val$[ebp]

; 331  : 	}

	pop	ebp
	ret	0
??$addressof@PAVRaven_Bot@@@std@@YAPAPAVRaven_Bot@@AAPAV1@@Z ENDP ; std::addressof<Raven_Bot *>
_TEXT	ENDS
; Function compile flags: /Odtp /RTCsu
; File c:\program files (x86)\microsoft visual studio\2017\community\vc\tools\msvc\14.15.26726\include\list
;	COMDAT ??$_Insert@ABQAV?$Trigger@VRaven_Bot@@@@@?$list@PAV?$Trigger@VRaven_Bot@@@@V?$allocator@PAV?$Trigger@VRaven_Bot@@@@@std@@@std@@QAEXV?$_List_unchecked_const_iterator@V?$_List_val@U?$_List_simple_types@PAV?$Trigger@VRaven_Bot@@@@@std@@@std@@U_Iterator_base0@2@@1@ABQAV?$Trigger@VRaven_Bot@@@@@Z
_TEXT	SEGMENT
__Newnode$ = -16					; size = 4
__Leftnode$ = -12					; size = 4
__Rightnode$ = -8					; size = 4
_this$ = -4						; size = 4
__Where$ = 8						; size = 4
_<_Val_0>$ = 12						; size = 4
??$_Insert@ABQAV?$Trigger@VRaven_Bot@@@@@?$list@PAV?$Trigger@VRaven_Bot@@@@V?$allocator@PAV?$Trigger@VRaven_Bot@@@@@std@@@std@@QAEXV?$_List_unchecked_const_iterator@V?$_List_val@U?$_List_simple_types@PAV?$Trigger@VRaven_Bot@@@@@std@@@std@@U_Iterator_base0@2@@1@ABQAV?$Trigger@VRaven_Bot@@@@@Z PROC ; std::list<Trigger<Raven_Bot> *,std::allocator<Trigger<Raven_Bot> *> >::_Insert<Trigger<Raven_Bot> * const &>, COMDAT
; _this$ = ecx

; 947  : 		{	// insert element at _Where

	push	ebp
	mov	ebp, esp
	sub	esp, 16					; 00000010H
	mov	eax, -858993460				; ccccccccH
	mov	DWORD PTR [ebp-16], eax
	mov	DWORD PTR [ebp-12], eax
	mov	DWORD PTR [ebp-8], eax
	mov	DWORD PTR [ebp-4], eax
	mov	DWORD PTR _this$[ebp], ecx

; 948  : 		const _Nodeptr _Rightnode = _Where._Ptr;

	mov	eax, DWORD PTR __Where$[ebp]
	mov	DWORD PTR __Rightnode$[ebp], eax

; 949  : 		const _Nodeptr _Leftnode = _Rightnode->_Prev;

	mov	ecx, DWORD PTR __Rightnode$[ebp]
	mov	edx, DWORD PTR [ecx+4]
	mov	DWORD PTR __Leftnode$[ebp], edx

; 950  : 		const _Nodeptr _Newnode = this->_Buynode(_Rightnode, _Leftnode, _STD forward<_Valty>(_Val)...);

	mov	eax, DWORD PTR _<_Val_0>$[ebp]
	push	eax
	call	??$forward@ABQAV?$Trigger@VRaven_Bot@@@@@std@@YAABQAV?$Trigger@VRaven_Bot@@@@ABQAV1@@Z ; std::forward<Trigger<Raven_Bot> * const &>
	add	esp, 4
	push	eax
	mov	ecx, DWORD PTR __Leftnode$[ebp]
	push	ecx
	mov	edx, DWORD PTR __Rightnode$[ebp]
	push	edx
	mov	ecx, DWORD PTR _this$[ebp]
	call	??$_Buynode@ABQAV?$Trigger@VRaven_Bot@@@@@?$_List_buy@PAV?$Trigger@VRaven_Bot@@@@V?$allocator@PAV?$Trigger@VRaven_Bot@@@@@std@@@std@@QAEPAU?$_List_node@PAV?$Trigger@VRaven_Bot@@@@PAX@1@PAU21@0ABQAV?$Trigger@VRaven_Bot@@@@@Z ; std::_List_buy<Trigger<Raven_Bot> *,std::allocator<Trigger<Raven_Bot> *> >::_Buynode<Trigger<Raven_Bot> * const &>
	mov	DWORD PTR __Newnode$[ebp], eax

; 951  : 		_Incsize(1);

	push	1
	mov	ecx, DWORD PTR _this$[ebp]
	call	?_Incsize@?$list@PAV?$Trigger@VRaven_Bot@@@@V?$allocator@PAV?$Trigger@VRaven_Bot@@@@@std@@@std@@QAEXI@Z ; std::list<Trigger<Raven_Bot> *,std::allocator<Trigger<Raven_Bot> *> >::_Incsize

; 952  : 		_Rightnode->_Prev = _Newnode;

	mov	eax, DWORD PTR __Rightnode$[ebp]
	mov	ecx, DWORD PTR __Newnode$[ebp]
	mov	DWORD PTR [eax+4], ecx

; 953  : 		_Leftnode->_Next = _Newnode;

	mov	edx, DWORD PTR __Leftnode$[ebp]
	mov	eax, DWORD PTR __Newnode$[ebp]
	mov	DWORD PTR [edx], eax

; 954  : 		}

	add	esp, 16					; 00000010H
	cmp	ebp, esp
	call	__RTC_CheckEsp
	mov	esp, ebp
	pop	ebp
	ret	8
??$_Insert@ABQAV?$Trigger@VRaven_Bot@@@@@?$list@PAV?$Trigger@VRaven_Bot@@@@V?$allocator@PAV?$Trigger@VRaven_Bot@@@@@std@@@std@@QAEXV?$_List_unchecked_const_iterator@V?$_List_val@U?$_List_simple_types@PAV?$Trigger@VRaven_Bot@@@@@std@@@std@@U_Iterator_base0@2@@1@ABQAV?$Trigger@VRaven_Bot@@@@@Z ENDP ; std::list<Trigger<Raven_Bot> *,std::allocator<Trigger<Raven_Bot> *> >::_Insert<Trigger<Raven_Bot> * const &>
_TEXT	ENDS
; Function compile flags: /Odtp /RTCsu
; File c:\program files (x86)\microsoft visual studio\2017\community\vc\tools\msvc\14.15.26726\include\list
;	COMDAT ??0?$_List_unchecked_iterator@V?$_List_val@U?$_List_simple_types@PAV?$Trigger@VRaven_Bot@@@@@std@@@std@@@std@@QAE@PAU?$_List_node@PAV?$Trigger@VRaven_Bot@@@@PAX@1@PBV?$_List_val@U?$_List_simple_types@PAV?$Trigger@VRaven_Bot@@@@@std@@@1@@Z
_TEXT	SEGMENT
_this$ = -4						; size = 4
__Pnode$ = 8						; size = 4
__Plist$ = 12						; size = 4
??0?$_List_unchecked_iterator@V?$_List_val@U?$_List_simple_types@PAV?$Trigger@VRaven_Bot@@@@@std@@@std@@@std@@QAE@PAU?$_List_node@PAV?$Trigger@VRaven_Bot@@@@PAX@1@PBV?$_List_val@U?$_List_simple_types@PAV?$Trigger@VRaven_Bot@@@@@std@@@1@@Z PROC ; std::_List_unchecked_iterator<std::_List_val<std::_List_simple_types<Trigger<Raven_Bot> *> > >::_List_unchecked_iterator<std::_List_val<std::_List_simple_types<Trigger<Raven_Bot> *> > >, COMDAT
; _this$ = ecx

; 117  : 		{	// construct with node pointer _Pnode

	push	ebp
	mov	ebp, esp
	push	ecx
	mov	DWORD PTR [ebp-4], -858993460		; ccccccccH
	mov	DWORD PTR _this$[ebp], ecx

; 116  : 		: _Mybase(_Pnode, _Plist)

	mov	eax, DWORD PTR __Plist$[ebp]
	push	eax
	mov	ecx, DWORD PTR __Pnode$[ebp]
	push	ecx
	mov	ecx, DWORD PTR _this$[ebp]
	call	??0?$_List_unchecked_const_iterator@V?$_List_val@U?$_List_simple_types@PAV?$Trigger@VRaven_Bot@@@@@std@@@std@@U_Iterator_base0@2@@std@@QAE@PAU?$_List_node@PAV?$Trigger@VRaven_Bot@@@@PAX@1@PBV?$_List_val@U?$_List_simple_types@PAV?$Trigger@VRaven_Bot@@@@@std@@@1@@Z ; std::_List_unchecked_const_iterator<std::_List_val<std::_List_simple_types<Trigger<Raven_Bot> *> >,std::_Iterator_base0>::_List_unchecked_const_iterator<std::_List_val<std::_List_simple_types<Trigger<Raven_Bot> *> >,std::_Iterator_base0>

; 118  : 		}

	mov	eax, DWORD PTR _this$[ebp]
	add	esp, 4
	cmp	ebp, esp
	call	__RTC_CheckEsp
	mov	esp, ebp
	pop	ebp
	ret	8
??0?$_List_unchecked_iterator@V?$_List_val@U?$_List_simple_types@PAV?$Trigger@VRaven_Bot@@@@@std@@@std@@@std@@QAE@PAU?$_List_node@PAV?$Trigger@VRaven_Bot@@@@PAX@1@PBV?$_List_val@U?$_List_simple_types@PAV?$Trigger@VRaven_Bot@@@@@std@@@1@@Z ENDP ; std::_List_unchecked_iterator<std::_List_val<std::_List_simple_types<Trigger<Raven_Bot> *> > >::_List_unchecked_iterator<std::_List_val<std::_List_simple_types<Trigger<Raven_Bot> *> > >
_TEXT	ENDS
; Function compile flags: /Odtp /RTCsu
; File c:\program files (x86)\microsoft visual studio\2017\community\vc\tools\msvc\14.15.26726\include\list
;	COMDAT ??0?$_List_unchecked_const_iterator@V?$_List_val@U?$_List_simple_types@PAV?$Trigger@VRaven_Bot@@@@@std@@@std@@U_Iterator_base0@2@@std@@QAE@PAU?$_List_node@PAV?$Trigger@VRaven_Bot@@@@PAX@1@PBV?$_List_val@U?$_List_simple_types@PAV?$Trigger@VRaven_Bot@@@@@std@@@1@@Z
_TEXT	SEGMENT
_this$ = -4						; size = 4
__Pnode$ = 8						; size = 4
__Plist$ = 12						; size = 4
??0?$_List_unchecked_const_iterator@V?$_List_val@U?$_List_simple_types@PAV?$Trigger@VRaven_Bot@@@@@std@@@std@@U_Iterator_base0@2@@std@@QAE@PAU?$_List_node@PAV?$Trigger@VRaven_Bot@@@@PAX@1@PBV?$_List_val@U?$_List_simple_types@PAV?$Trigger@VRaven_Bot@@@@@std@@@1@@Z PROC ; std::_List_unchecked_const_iterator<std::_List_val<std::_List_simple_types<Trigger<Raven_Bot> *> >,std::_Iterator_base0>::_List_unchecked_const_iterator<std::_List_val<std::_List_simple_types<Trigger<Raven_Bot> *> >,std::_Iterator_base0>, COMDAT
; _this$ = ecx

; 43   : 		{	// construct with node pointer _Pnode

	push	ebp
	mov	ebp, esp
	push	ecx
	mov	DWORD PTR [ebp-4], -858993460		; ccccccccH
	mov	DWORD PTR _this$[ebp], ecx

; 42   : 		: _Ptr(_Pnode)

	mov	eax, DWORD PTR _this$[ebp]
	mov	ecx, DWORD PTR __Pnode$[ebp]
	mov	DWORD PTR [eax], ecx

; 44   : 		this->_Adopt(_Plist);

	mov	edx, DWORD PTR __Plist$[ebp]
	push	edx
	mov	ecx, DWORD PTR _this$[ebp]
	call	?_Adopt@_Iterator_base0@std@@QAEXPBX@Z	; std::_Iterator_base0::_Adopt

; 45   : 		}

	mov	eax, DWORD PTR _this$[ebp]
	add	esp, 4
	cmp	ebp, esp
	call	__RTC_CheckEsp
	mov	esp, ebp
	pop	ebp
	ret	8
??0?$_List_unchecked_const_iterator@V?$_List_val@U?$_List_simple_types@PAV?$Trigger@VRaven_Bot@@@@@std@@@std@@U_Iterator_base0@2@@std@@QAE@PAU?$_List_node@PAV?$Trigger@VRaven_Bot@@@@PAX@1@PBV?$_List_val@U?$_List_simple_types@PAV?$Trigger@VRaven_Bot@@@@@std@@@1@@Z ENDP ; std::_List_unchecked_const_iterator<std::_List_val<std::_List_simple_types<Trigger<Raven_Bot> *> >,std::_Iterator_base0>::_List_unchecked_const_iterator<std::_List_val<std::_List_simple_types<Trigger<Raven_Bot> *> >,std::_Iterator_base0>
_TEXT	ENDS
; Function compile flags: /Odtp /RTCsu
; File c:\users\utilisateur\documents\github\8iar125-projetraven\vs2015\common\graph\graphnodetypes.h
;	COMDAT ?SetExtraInfo@?$NavGraphNode@PAV?$Trigger@VRaven_Bot@@@@@@QAEXPAV?$Trigger@VRaven_Bot@@@@@Z
_TEXT	SEGMENT
_this$ = -4						; size = 4
_info$ = 8						; size = 4
?SetExtraInfo@?$NavGraphNode@PAV?$Trigger@VRaven_Bot@@@@@@QAEXPAV?$Trigger@VRaven_Bot@@@@@Z PROC ; NavGraphNode<Trigger<Raven_Bot> *>::SetExtraInfo, COMDAT
; _this$ = ecx

; 98   :   void       SetExtraInfo(extra_info info){m_ExtraInfo = info;}

	push	ebp
	mov	ebp, esp
	push	ecx
	mov	DWORD PTR [ebp-4], -858993460		; ccccccccH
	mov	DWORD PTR _this$[ebp], ecx
	mov	eax, DWORD PTR _this$[ebp]
	mov	ecx, DWORD PTR _info$[ebp]
	mov	DWORD PTR [eax+24], ecx
	mov	esp, ebp
	pop	ebp
	ret	4
?SetExtraInfo@?$NavGraphNode@PAV?$Trigger@VRaven_Bot@@@@@@QAEXPAV?$Trigger@VRaven_Bot@@@@@Z ENDP ; NavGraphNode<Trigger<Raven_Bot> *>::SetExtraInfo
_TEXT	ENDS
; Function compile flags: /Odtp /RTCsu
; File c:\users\utilisateur\documents\github\8iar125-projetraven\vs2015\common\triggers\trigger.h
;	COMDAT ?GraphNodeIndex@?$Trigger@VRaven_Bot@@@@QBEHXZ
_TEXT	SEGMENT
_this$ = -4						; size = 4
?GraphNodeIndex@?$Trigger@VRaven_Bot@@@@QBEHXZ PROC	; Trigger<Raven_Bot>::GraphNodeIndex, COMDAT
; _this$ = ecx

; 78   :   int  GraphNodeIndex()const{return m_iGraphNodeIndex;}

	push	ebp
	mov	ebp, esp
	push	ecx
	mov	DWORD PTR [ebp-4], -858993460		; ccccccccH
	mov	DWORD PTR _this$[ebp], ecx
	mov	eax, DWORD PTR _this$[ebp]
	mov	eax, DWORD PTR [eax+72]
	mov	esp, ebp
	pop	ebp
	ret	0
?GraphNodeIndex@?$Trigger@VRaven_Bot@@@@QBEHXZ ENDP	; Trigger<Raven_Bot>::GraphNodeIndex
_TEXT	ENDS
; Function compile flags: /Odtp /RTCsu
;	COMDAT ??_GTeam@@UAEPAXI@Z
_TEXT	SEGMENT
_this$ = -4						; size = 4
___flags$ = 8						; size = 4
??_GTeam@@UAEPAXI@Z PROC				; Team::`scalar deleting destructor', COMDAT
; _this$ = ecx
	push	ebp
	mov	ebp, esp
	push	ecx
	mov	DWORD PTR [ebp-4], -858993460		; ccccccccH
	mov	DWORD PTR _this$[ebp], ecx
	mov	ecx, DWORD PTR _this$[ebp]
	call	??1Team@@UAE@XZ				; Team::~Team
	mov	eax, DWORD PTR ___flags$[ebp]
	and	eax, 1
	je	SHORT $LN2@scalar
	push	28					; 0000001cH
	mov	ecx, DWORD PTR _this$[ebp]
	push	ecx
	call	??3@YAXPAXI@Z				; operator delete
	add	esp, 8
$LN2@scalar:
	mov	eax, DWORD PTR _this$[ebp]
	add	esp, 4
	cmp	ebp, esp
	call	__RTC_CheckEsp
	mov	esp, ebp
	pop	ebp
	ret	4
??_GTeam@@UAEPAXI@Z ENDP				; Team::`scalar deleting destructor'
_TEXT	ENDS
; Function compile flags: /Odtp /RTCsu
; File c:\users\utilisateur\documents\github\8iar125-projetraven\vs2015\buckland_chapter7 to 10_raven\team.h
;	COMDAT ?NewWorldBot@Team@@UAEXPBVRaven_Bot@@@Z
_TEXT	SEGMENT
_this$ = -4						; size = 4
_bot$ = 8						; size = 4
?NewWorldBot@Team@@UAEXPBVRaven_Bot@@@Z PROC		; Team::NewWorldBot, COMDAT
; _this$ = ecx

; 34   : 	virtual void NewWorldBot(const Raven_Bot* bot){}

	push	ebp
	mov	ebp, esp
	push	ecx
	mov	DWORD PTR [ebp-4], -858993460		; ccccccccH
	mov	DWORD PTR _this$[ebp], ecx
	mov	esp, ebp
	pop	ebp
	ret	4
?NewWorldBot@Team@@UAEXPBVRaven_Bot@@@Z ENDP		; Team::NewWorldBot
_TEXT	ENDS
; Function compile flags: /Odtp /RTCsu
; File c:\users\utilisateur\documents\github\8iar125-projetraven\vs2015\buckland_chapter7 to 10_raven\team.h
;	COMDAT ?CheckDeadBot@Team@@UAEXPBVRaven_Bot@@@Z
_TEXT	SEGMENT
_this$ = -4						; size = 4
_bot$ = 8						; size = 4
?CheckDeadBot@Team@@UAEXPBVRaven_Bot@@@Z PROC		; Team::CheckDeadBot, COMDAT
; _this$ = ecx

; 33   : 	virtual void CheckDeadBot(const Raven_Bot* bot){}

	push	ebp
	mov	ebp, esp
	push	ecx
	mov	DWORD PTR [ebp-4], -858993460		; ccccccccH
	mov	DWORD PTR _this$[ebp], ecx
	mov	esp, ebp
	pop	ebp
	ret	4
?CheckDeadBot@Team@@UAEXPBVRaven_Bot@@@Z ENDP		; Team::CheckDeadBot
_TEXT	ENDS
; Function compile flags: /Odtp /RTCsu
; File c:\users\utilisateur\documents\github\8iar125-projetraven\vs2015\buckland_chapter7 to 10_raven\team.cpp
_TEXT	SEGMENT
_this$ = -4						; size = 4
_bot$ = 8						; size = 4
?BotInTeam@Team@@QBE_NPBVRaven_Bot@@@Z PROC		; Team::BotInTeam
; _this$ = ecx

; 5    : {

	push	ebp
	mov	ebp, esp
	push	ecx
	mov	DWORD PTR [ebp-4], -858993460		; ccccccccH
	mov	DWORD PTR _this$[ebp], ecx

; 6    : 	if (bot->GetTeam() == this) {

	mov	ecx, DWORD PTR _bot$[ebp]
	call	?GetTeam@Raven_Bot@@QBEPAVTeam@@XZ	; Raven_Bot::GetTeam
	cmp	eax, DWORD PTR _this$[ebp]
	jne	SHORT $LN2@BotInTeam

; 7    : 		return true;

	mov	al, 1
	jmp	SHORT $LN1@BotInTeam
$LN2@BotInTeam:

; 8    : 	}
; 9    : 	return false;

	xor	al, al
$LN1@BotInTeam:

; 10   : }

	add	esp, 4
	cmp	ebp, esp
	call	__RTC_CheckEsp
	mov	esp, ebp
	pop	ebp
	ret	4
?BotInTeam@Team@@QBE_NPBVRaven_Bot@@@Z ENDP		; Team::BotInTeam
_TEXT	ENDS
; Function compile flags: /Odtp /RTCsu
; File c:\users\utilisateur\documents\github\8iar125-projetraven\vs2015\buckland_chapter7 to 10_raven\team.cpp
_TEXT	SEGMENT
tv78 = -40						; size = 4
$T2 = -36						; size = 4
$T3 = -32						; size = 4
$T4 = -28						; size = 4
_node$ = -24						; size = 4
_wg$ = -20						; size = 4
_this$ = -16						; size = 4
__$EHRec$ = -12						; size = 12
_weaponType$ = 8					; size = 4
_pos$ = 12						; size = 16
_navGraph$ = 28						; size = 40
_pBot$ = 68						; size = 4
?AddDroppedWeapon@Team@@QAEXHUVector2D@@V?$SparseGraph@V?$NavGraphNode@PAV?$Trigger@VRaven_Bot@@@@@@VNavGraphEdge@@@@PAVRaven_Bot@@@Z PROC ; Team::AddDroppedWeapon
; _this$ = ecx

; 13   : {

	push	ebp
	mov	ebp, esp
	push	-1
	push	__ehhandler$?AddDroppedWeapon@Team@@QAEXHUVector2D@@V?$SparseGraph@V?$NavGraphNode@PAV?$Trigger@VRaven_Bot@@@@@@VNavGraphEdge@@@@PAVRaven_Bot@@@Z
	mov	eax, DWORD PTR fs:0
	push	eax
	sub	esp, 28					; 0000001cH
	mov	eax, -858993460				; ccccccccH
	mov	DWORD PTR [ebp-40], eax
	mov	DWORD PTR [ebp-36], eax
	mov	DWORD PTR [ebp-32], eax
	mov	DWORD PTR [ebp-28], eax
	mov	DWORD PTR [ebp-24], eax
	mov	DWORD PTR [ebp-20], eax
	mov	DWORD PTR [ebp-16], eax
	mov	eax, DWORD PTR ___security_cookie
	xor	eax, ebp
	push	eax
	lea	eax, DWORD PTR __$EHRec$[ebp]
	mov	DWORD PTR fs:0, eax
	mov	DWORD PTR _this$[ebp], ecx
	mov	DWORD PTR __$EHRec$[ebp+8], 0

; 14   : 	Trigger_TeamWeaponGiver *wg = new Trigger_TeamWeaponGiver(pos, pBot);

	push	128					; 00000080H
	call	??2@YAPAXI@Z				; operator new
	add	esp, 4
	mov	DWORD PTR $T3[ebp], eax
	mov	BYTE PTR __$EHRec$[ebp+8], 1
	cmp	DWORD PTR $T3[ebp], 0
	je	SHORT $LN3@AddDropped
	mov	eax, DWORD PTR _pBot$[ebp]
	push	eax
	sub	esp, 16					; 00000010H
	mov	ecx, esp
	mov	edx, DWORD PTR _pos$[ebp]
	mov	DWORD PTR [ecx], edx
	mov	eax, DWORD PTR _pos$[ebp+4]
	mov	DWORD PTR [ecx+4], eax
	mov	edx, DWORD PTR _pos$[ebp+8]
	mov	DWORD PTR [ecx+8], edx
	mov	eax, DWORD PTR _pos$[ebp+12]
	mov	DWORD PTR [ecx+12], eax
	mov	ecx, DWORD PTR $T3[ebp]
	call	??0Trigger_TeamWeaponGiver@@QAE@UVector2D@@PAVRaven_Bot@@@Z ; Trigger_TeamWeaponGiver::Trigger_TeamWeaponGiver
	mov	DWORD PTR tv78[ebp], eax
	jmp	SHORT $LN4@AddDropped
$LN3@AddDropped:
	mov	DWORD PTR tv78[ebp], 0
$LN4@AddDropped:
	mov	ecx, DWORD PTR tv78[ebp]
	mov	DWORD PTR $T4[ebp], ecx
	mov	BYTE PTR __$EHRec$[ebp+8], 0
	mov	edx, DWORD PTR $T4[ebp]
	mov	DWORD PTR _wg$[ebp], edx

; 15   : 
; 16   : 	wg->SetEntityType(weaponType);

	mov	eax, DWORD PTR _weaponType$[ebp]
	push	eax
	mov	ecx, DWORD PTR _wg$[ebp]
	call	?SetEntityType@BaseGameEntity@@QAEXH@Z	; BaseGameEntity::SetEntityType

; 17   : 
; 18   : 	//add it to the appropriate vectors
; 19   : 	m_DroppedWeapons.push_back(wg);

	mov	ecx, DWORD PTR _wg$[ebp]
	mov	DWORD PTR $T2[ebp], ecx
	lea	edx, DWORD PTR $T2[ebp]
	push	edx
	mov	ecx, DWORD PTR _this$[ebp]
	add	ecx, 16					; 00000010H
	call	?push_back@?$list@PAV?$Trigger@VRaven_Bot@@@@V?$allocator@PAV?$Trigger@VRaven_Bot@@@@@std@@@std@@QAEXABQAV?$Trigger@VRaven_Bot@@@@@Z ; std::list<Trigger<Raven_Bot> *,std::allocator<Trigger<Raven_Bot> *> >::push_back

; 20   : 
; 21   : 	//let the corresponding navgraph node point to this object
; 22   : 	NavGraph::NodeType& node = navGraph.GetNode(wg->GraphNodeIndex());

	mov	ecx, DWORD PTR _wg$[ebp]
	call	?GraphNodeIndex@?$Trigger@VRaven_Bot@@@@QBEHXZ ; Trigger<Raven_Bot>::GraphNodeIndex
	push	eax
	lea	ecx, DWORD PTR _navGraph$[ebp]
	call	?GetNode@?$SparseGraph@V?$NavGraphNode@PAV?$Trigger@VRaven_Bot@@@@@@VNavGraphEdge@@@@QAEAAV?$NavGraphNode@PAV?$Trigger@VRaven_Bot@@@@@@H@Z ; SparseGraph<NavGraphNode<Trigger<Raven_Bot> *>,NavGraphEdge>::GetNode
	mov	DWORD PTR _node$[ebp], eax

; 23   : 
; 24   : 	node.SetExtraInfo(wg);

	mov	eax, DWORD PTR _wg$[ebp]
	push	eax
	mov	ecx, DWORD PTR _node$[ebp]
	call	?SetExtraInfo@?$NavGraphNode@PAV?$Trigger@VRaven_Bot@@@@@@QAEXPAV?$Trigger@VRaven_Bot@@@@@Z ; NavGraphNode<Trigger<Raven_Bot> *>::SetExtraInfo

; 25   : 
; 26   : 	//register the entity 
; 27   : 	EntityMgr->RegisterEntity(wg);

	mov	ecx, DWORD PTR _wg$[ebp]
	push	ecx
	call	?Instance@EntityManager@@SAPAV1@XZ	; EntityManager::Instance
	mov	ecx, eax
	call	?RegisterEntity@EntityManager@@QAEXPAVBaseGameEntity@@@Z ; EntityManager::RegisterEntity

; 28   : }

	mov	DWORD PTR __$EHRec$[ebp+8], -1
	lea	ecx, DWORD PTR _navGraph$[ebp]
	call	??1?$SparseGraph@V?$NavGraphNode@PAV?$Trigger@VRaven_Bot@@@@@@VNavGraphEdge@@@@QAE@XZ
	mov	ecx, DWORD PTR __$EHRec$[ebp]
	mov	DWORD PTR fs:0, ecx
	pop	ecx
	add	esp, 40					; 00000028H
	cmp	ebp, esp
	call	__RTC_CheckEsp
	mov	esp, ebp
	pop	ebp
	ret	64					; 00000040H
_TEXT	ENDS
text$x	SEGMENT
__unwindfunclet$?AddDroppedWeapon@Team@@QAEXHUVector2D@@V?$SparseGraph@V?$NavGraphNode@PAV?$Trigger@VRaven_Bot@@@@@@VNavGraphEdge@@@@PAVRaven_Bot@@@Z$0:
	lea	ecx, DWORD PTR _navGraph$[ebp]
	jmp	??1?$SparseGraph@V?$NavGraphNode@PAV?$Trigger@VRaven_Bot@@@@@@VNavGraphEdge@@@@QAE@XZ
__unwindfunclet$?AddDroppedWeapon@Team@@QAEXHUVector2D@@V?$SparseGraph@V?$NavGraphNode@PAV?$Trigger@VRaven_Bot@@@@@@VNavGraphEdge@@@@PAVRaven_Bot@@@Z$1:
	push	128					; 00000080H
	mov	eax, DWORD PTR $T3[ebp]
	push	eax
	call	??3@YAXPAXI@Z				; operator delete
	add	esp, 8
	ret	0
__ehhandler$?AddDroppedWeapon@Team@@QAEXHUVector2D@@V?$SparseGraph@V?$NavGraphNode@PAV?$Trigger@VRaven_Bot@@@@@@VNavGraphEdge@@@@PAVRaven_Bot@@@Z:
	mov	edx, DWORD PTR [esp+8]
	lea	eax, DWORD PTR [edx+12]
	mov	ecx, DWORD PTR [edx-32]
	xor	ecx, eax
	call	@__security_check_cookie@4
	mov	eax, OFFSET __ehfuncinfo$?AddDroppedWeapon@Team@@QAEXHUVector2D@@V?$SparseGraph@V?$NavGraphNode@PAV?$Trigger@VRaven_Bot@@@@@@VNavGraphEdge@@@@PAVRaven_Bot@@@Z
	jmp	___CxxFrameHandler3
text$x	ENDS
?AddDroppedWeapon@Team@@QAEXHUVector2D@@V?$SparseGraph@V?$NavGraphNode@PAV?$Trigger@VRaven_Bot@@@@@@VNavGraphEdge@@@@PAVRaven_Bot@@@Z ENDP ; Team::AddDroppedWeapon
; Function compile flags: /Odtp /RTCsu
; File c:\users\utilisateur\documents\github\8iar125-projetraven\vs2015\buckland_chapter7 to 10_raven\team.cpp
_TEXT	SEGMENT
_this$ = -4						; size = 4
??1Team@@UAE@XZ PROC					; Team::~Team
; _this$ = ecx

; 31   : {

	push	ebp
	mov	ebp, esp
	push	ecx
	mov	DWORD PTR [ebp-4], -858993460		; ccccccccH
	mov	DWORD PTR _this$[ebp], ecx
	mov	eax, DWORD PTR _this$[ebp]
	mov	DWORD PTR [eax], OFFSET ??_7Team@@6B@

; 32   : 	m_teamBots.clear();

	mov	ecx, DWORD PTR _this$[ebp]
	add	ecx, 4
	call	?clear@?$list@PAVRaven_Bot@@V?$allocator@PAVRaven_Bot@@@std@@@std@@QAEXXZ ; std::list<Raven_Bot *,std::allocator<Raven_Bot *> >::clear

; 33   : }

	mov	ecx, DWORD PTR _this$[ebp]
	add	ecx, 16					; 00000010H
	call	??1?$list@PAV?$Trigger@VRaven_Bot@@@@V?$allocator@PAV?$Trigger@VRaven_Bot@@@@@std@@@std@@QAE@XZ ; std::list<Trigger<Raven_Bot> *,std::allocator<Trigger<Raven_Bot> *> >::~list<Trigger<Raven_Bot> *,std::allocator<Trigger<Raven_Bot> *> >
	mov	ecx, DWORD PTR _this$[ebp]
	add	ecx, 4
	call	??1?$list@PAVRaven_Bot@@V?$allocator@PAVRaven_Bot@@@std@@@std@@QAE@XZ ; std::list<Raven_Bot *,std::allocator<Raven_Bot *> >::~list<Raven_Bot *,std::allocator<Raven_Bot *> >
	add	esp, 4
	cmp	ebp, esp
	call	__RTC_CheckEsp
	mov	esp, ebp
	pop	ebp
	ret	0
??1Team@@UAE@XZ ENDP					; Team::~Team
_TEXT	ENDS
; Function compile flags: /Odtp /RTCsu
; File c:\program files (x86)\microsoft visual studio\2017\community\vc\tools\msvc\14.15.26726\include\list
;	COMDAT ?_Orphan_ptr@?$list@PAVRaven_Bot@@V?$allocator@PAVRaven_Bot@@@std@@@std@@QAEXPAU?$_List_node@PAVRaven_Bot@@PAX@2@@Z
_TEXT	SEGMENT
__Pnext$ = -32						; size = 4
__Lock$ = -24						; size = 4
_this$ = -16						; size = 4
__$EHRec$ = -12						; size = 12
__Ptr$ = 8						; size = 4
?_Orphan_ptr@?$list@PAVRaven_Bot@@V?$allocator@PAVRaven_Bot@@@std@@@std@@QAEXPAU?$_List_node@PAVRaven_Bot@@PAX@2@@Z PROC ; std::list<Raven_Bot *,std::allocator<Raven_Bot *> >::_Orphan_ptr, COMDAT
; _this$ = ecx

; 1804 : 		{	// orphan iterators with specified node pointers

	push	ebp
	mov	ebp, esp
	push	-1
	push	__ehhandler$?_Orphan_ptr@?$list@PAVRaven_Bot@@V?$allocator@PAVRaven_Bot@@@std@@@std@@QAEXPAU?$_List_node@PAVRaven_Bot@@PAX@2@@Z
	mov	eax, DWORD PTR fs:0
	push	eax
	sub	esp, 20					; 00000014H
	push	esi
	mov	eax, -858993460				; ccccccccH
	mov	DWORD PTR [ebp-32], eax
	mov	DWORD PTR [ebp-28], eax
	mov	DWORD PTR [ebp-24], eax
	mov	DWORD PTR [ebp-20], eax
	mov	DWORD PTR [ebp-16], eax
	mov	eax, DWORD PTR ___security_cookie
	xor	eax, ebp
	push	eax
	lea	eax, DWORD PTR __$EHRec$[ebp]
	mov	DWORD PTR fs:0, eax
	mov	DWORD PTR _this$[ebp], ecx

; 1805 : 		_Lockit _Lock(_LOCK_DEBUG);

	push	3
	lea	ecx, DWORD PTR __Lock$[ebp]
	call	??0_Lockit@std@@QAE@H@Z			; std::_Lockit::_Lockit
	mov	DWORD PTR __$EHRec$[ebp+8], 0

; 1806 : 		const_iterator **_Pnext = (const_iterator **)this->_Getpfirst();

	mov	ecx, DWORD PTR _this$[ebp]
	call	?_Getpfirst@?$_List_alloc@U?$_List_base_types@PAVRaven_Bot@@V?$allocator@PAVRaven_Bot@@@std@@@std@@@std@@QBEPAPAU_Iterator_base12@2@XZ ; std::_List_alloc<std::_List_base_types<Raven_Bot *,std::allocator<Raven_Bot *> > >::_Getpfirst
	mov	DWORD PTR __Pnext$[ebp], eax

; 1807 : 		if (_Pnext != nullptr)

	cmp	DWORD PTR __Pnext$[ebp], 0
	je	SHORT $LN4@Orphan_ptr
$LN2@Orphan_ptr:

; 1808 : 			while (*_Pnext != nullptr)

	mov	eax, DWORD PTR __Pnext$[ebp]
	cmp	DWORD PTR [eax], 0
	je	SHORT $LN4@Orphan_ptr

; 1809 : 				{	// test an iterator
; 1810 : 				if ((*_Pnext)->_Ptr == this->_Myhead()
; 1811 : 					|| (_Ptr != nullptr && (*_Pnext)->_Ptr != _Ptr))

	mov	ecx, DWORD PTR __Pnext$[ebp]
	mov	esi, DWORD PTR [ecx]
	mov	ecx, DWORD PTR _this$[ebp]
	call	?_Myhead@?$_List_alloc@U?$_List_base_types@PAVRaven_Bot@@V?$allocator@PAVRaven_Bot@@@std@@@std@@@std@@QAEAAPAU?$_List_node@PAVRaven_Bot@@PAX@2@XZ ; std::_List_alloc<std::_List_base_types<Raven_Bot *,std::allocator<Raven_Bot *> > >::_Myhead
	mov	edx, DWORD PTR [esi+8]
	cmp	edx, DWORD PTR [eax]
	je	SHORT $LN7@Orphan_ptr
	cmp	DWORD PTR __Ptr$[ebp], 0
	je	SHORT $LN5@Orphan_ptr
	mov	eax, DWORD PTR __Pnext$[ebp]
	mov	ecx, DWORD PTR [eax]
	mov	edx, DWORD PTR [ecx+8]
	cmp	edx, DWORD PTR __Ptr$[ebp]
	je	SHORT $LN5@Orphan_ptr
$LN7@Orphan_ptr:

; 1812 : 					_Pnext = (const_iterator **)(*_Pnext)->_Getpnext();

	mov	eax, DWORD PTR __Pnext$[ebp]
	mov	ecx, DWORD PTR [eax]
	call	?_Getpnext@_Iterator_base12@std@@QAEPAPAU12@XZ ; std::_Iterator_base12::_Getpnext
	mov	DWORD PTR __Pnext$[ebp], eax

; 1813 : 				else

	jmp	SHORT $LN6@Orphan_ptr
$LN5@Orphan_ptr:

; 1814 : 					{	// orphan the iterator
; 1815 : 					(*_Pnext)->_Clrcont();

	mov	ecx, DWORD PTR __Pnext$[ebp]
	mov	ecx, DWORD PTR [ecx]
	call	?_Clrcont@_Iterator_base12@std@@QAEXXZ	; std::_Iterator_base12::_Clrcont

; 1816 : 					*_Pnext = *(const_iterator **)(*_Pnext)->_Getpnext();

	mov	edx, DWORD PTR __Pnext$[ebp]
	mov	ecx, DWORD PTR [edx]
	call	?_Getpnext@_Iterator_base12@std@@QAEPAPAU12@XZ ; std::_Iterator_base12::_Getpnext
	mov	ecx, DWORD PTR __Pnext$[ebp]
	mov	edx, DWORD PTR [eax]
	mov	DWORD PTR [ecx], edx
$LN6@Orphan_ptr:

; 1817 : 					}
; 1818 : 				}

	jmp	SHORT $LN2@Orphan_ptr
$LN4@Orphan_ptr:

; 1819 : 		}

	mov	DWORD PTR __$EHRec$[ebp+8], -1
	lea	ecx, DWORD PTR __Lock$[ebp]
	call	??1_Lockit@std@@QAE@XZ			; std::_Lockit::~_Lockit
	push	edx
	mov	ecx, ebp
	push	eax
	lea	edx, DWORD PTR $LN13@Orphan_ptr
	call	@_RTC_CheckStackVars@8
	pop	eax
	pop	edx
	mov	ecx, DWORD PTR __$EHRec$[ebp]
	mov	DWORD PTR fs:0, ecx
	pop	ecx
	pop	esi
	add	esp, 32					; 00000020H
	cmp	ebp, esp
	call	__RTC_CheckEsp
	mov	esp, ebp
	pop	ebp
	ret	4
	npad	2
$LN13@Orphan_ptr:
	DD	1
	DD	$LN12@Orphan_ptr
$LN12@Orphan_ptr:
	DD	-24					; ffffffe8H
	DD	4
	DD	$LN10@Orphan_ptr
$LN10@Orphan_ptr:
	DB	95					; 0000005fH
	DB	76					; 0000004cH
	DB	111					; 0000006fH
	DB	99					; 00000063H
	DB	107					; 0000006bH
	DB	0
_TEXT	ENDS
;	COMDAT text$x
text$x	SEGMENT
__unwindfunclet$?_Orphan_ptr@?$list@PAVRaven_Bot@@V?$allocator@PAVRaven_Bot@@@std@@@std@@QAEXPAU?$_List_node@PAVRaven_Bot@@PAX@2@@Z$0:
	lea	ecx, DWORD PTR __Lock$[ebp]
	jmp	??1_Lockit@std@@QAE@XZ			; std::_Lockit::~_Lockit
__ehhandler$?_Orphan_ptr@?$list@PAVRaven_Bot@@V?$allocator@PAVRaven_Bot@@@std@@@std@@QAEXPAU?$_List_node@PAVRaven_Bot@@PAX@2@@Z:
	mov	edx, DWORD PTR [esp+8]
	lea	eax, DWORD PTR [edx+12]
	mov	ecx, DWORD PTR [edx-28]
	xor	ecx, eax
	call	@__security_check_cookie@4
	mov	eax, OFFSET __ehfuncinfo$?_Orphan_ptr@?$list@PAVRaven_Bot@@V?$allocator@PAVRaven_Bot@@@std@@@std@@QAEXPAU?$_List_node@PAVRaven_Bot@@PAX@2@@Z
	jmp	___CxxFrameHandler3
text$x	ENDS
?_Orphan_ptr@?$list@PAVRaven_Bot@@V?$allocator@PAVRaven_Bot@@@std@@@std@@QAEXPAU?$_List_node@PAVRaven_Bot@@PAX@2@@Z ENDP ; std::list<Raven_Bot *,std::allocator<Raven_Bot *> >::_Orphan_ptr
; Function compile flags: /Odtp /RTCsu
; File c:\program files (x86)\microsoft visual studio\2017\community\vc\tools\msvc\14.15.26726\include\list
;	COMDAT ?_Tidy@?$list@PAVRaven_Bot@@V?$allocator@PAVRaven_Bot@@@std@@@std@@QAEXXZ
_TEXT	SEGMENT
_this$ = -4						; size = 4
?_Tidy@?$list@PAVRaven_Bot@@V?$allocator@PAVRaven_Bot@@@std@@@std@@QAEXXZ PROC ; std::list<Raven_Bot *,std::allocator<Raven_Bot *> >::_Tidy, COMDAT
; _this$ = ecx

; 1773 : 		{	// free all storage

	push	ebp
	mov	ebp, esp
	push	ecx
	mov	DWORD PTR [ebp-4], -858993460		; ccccccccH
	mov	DWORD PTR _this$[ebp], ecx

; 1774 : 		clear();

	mov	ecx, DWORD PTR _this$[ebp]
	call	?clear@?$list@PAVRaven_Bot@@V?$allocator@PAVRaven_Bot@@@std@@@std@@QAEXXZ ; std::list<Raven_Bot *,std::allocator<Raven_Bot *> >::clear

; 1775 : 		}

	add	esp, 4
	cmp	ebp, esp
	call	__RTC_CheckEsp
	mov	esp, ebp
	pop	ebp
	ret	0
?_Tidy@?$list@PAVRaven_Bot@@V?$allocator@PAVRaven_Bot@@@std@@@std@@QAEXXZ ENDP ; std::list<Raven_Bot *,std::allocator<Raven_Bot *> >::_Tidy
_TEXT	ENDS
; Function compile flags: /Odtp /RTCsu
; File c:\program files (x86)\microsoft visual studio\2017\community\vc\tools\msvc\14.15.26726\include\list
;	COMDAT ?clear@?$list@PAVRaven_Bot@@V?$allocator@PAVRaven_Bot@@@std@@@std@@QAEXXZ
_TEXT	SEGMENT
__Pnext$2 = -24						; size = 4
__Pnode$ = -20						; size = 4
_this$ = -16						; size = 4
__$EHRec$ = -12						; size = 12
?clear@?$list@PAVRaven_Bot@@V?$allocator@PAVRaven_Bot@@@std@@@std@@QAEXXZ PROC ; std::list<Raven_Bot *,std::allocator<Raven_Bot *> >::clear, COMDAT
; _this$ = ecx

; 1381 : 		{	// erase all

	push	ebp
	mov	ebp, esp
	push	-1
	push	__ehhandler$?clear@?$list@PAVRaven_Bot@@V?$allocator@PAVRaven_Bot@@@std@@@std@@QAEXXZ
	mov	eax, DWORD PTR fs:0
	push	eax
	sub	esp, 12					; 0000000cH
	push	esi
	mov	DWORD PTR [ebp-24], -858993460		; ccccccccH
	mov	DWORD PTR [ebp-20], -858993460		; ccccccccH
	mov	DWORD PTR [ebp-16], -858993460		; ccccccccH
	mov	eax, DWORD PTR ___security_cookie
	xor	eax, ebp
	push	eax
	lea	eax, DWORD PTR __$EHRec$[ebp]
	mov	DWORD PTR fs:0, eax
	mov	DWORD PTR _this$[ebp], ecx

; 1382 :  #if _ITERATOR_DEBUG_LEVEL == 2
; 1383 : 		this->_Orphan_ptr(nullptr);

	push	0
	mov	ecx, DWORD PTR _this$[ebp]
	call	?_Orphan_ptr@?$list@PAVRaven_Bot@@V?$allocator@PAVRaven_Bot@@@std@@@std@@QAEXPAU?$_List_node@PAVRaven_Bot@@PAX@2@@Z ; std::list<Raven_Bot *,std::allocator<Raven_Bot *> >::_Orphan_ptr

; 1384 :  #endif /* _ITERATOR_DEBUG_LEVEL == 2 */
; 1385 : 		_Nodeptr _Pnode = this->_Myhead()->_Next;

	mov	ecx, DWORD PTR _this$[ebp]
	call	?_Myhead@?$_List_alloc@U?$_List_base_types@PAVRaven_Bot@@V?$allocator@PAVRaven_Bot@@@std@@@std@@@std@@QAEAAPAU?$_List_node@PAVRaven_Bot@@PAX@2@XZ ; std::_List_alloc<std::_List_base_types<Raven_Bot *,std::allocator<Raven_Bot *> > >::_Myhead
	mov	eax, DWORD PTR [eax]
	mov	ecx, DWORD PTR [eax]
	mov	DWORD PTR __Pnode$[ebp], ecx

; 1386 : 		this->_Myhead()->_Next = this->_Myhead();

	mov	ecx, DWORD PTR _this$[ebp]
	call	?_Myhead@?$_List_alloc@U?$_List_base_types@PAVRaven_Bot@@V?$allocator@PAVRaven_Bot@@@std@@@std@@@std@@QAEAAPAU?$_List_node@PAVRaven_Bot@@PAX@2@XZ ; std::_List_alloc<std::_List_base_types<Raven_Bot *,std::allocator<Raven_Bot *> > >::_Myhead
	mov	esi, eax
	mov	ecx, DWORD PTR _this$[ebp]
	call	?_Myhead@?$_List_alloc@U?$_List_base_types@PAVRaven_Bot@@V?$allocator@PAVRaven_Bot@@@std@@@std@@@std@@QAEAAPAU?$_List_node@PAVRaven_Bot@@PAX@2@XZ ; std::_List_alloc<std::_List_base_types<Raven_Bot *,std::allocator<Raven_Bot *> > >::_Myhead
	mov	edx, DWORD PTR [eax]
	mov	eax, DWORD PTR [esi]
	mov	DWORD PTR [edx], eax

; 1387 : 		this->_Myhead()->_Prev = this->_Myhead();

	mov	ecx, DWORD PTR _this$[ebp]
	call	?_Myhead@?$_List_alloc@U?$_List_base_types@PAVRaven_Bot@@V?$allocator@PAVRaven_Bot@@@std@@@std@@@std@@QAEAAPAU?$_List_node@PAVRaven_Bot@@PAX@2@XZ ; std::_List_alloc<std::_List_base_types<Raven_Bot *,std::allocator<Raven_Bot *> > >::_Myhead
	mov	esi, eax
	mov	ecx, DWORD PTR _this$[ebp]
	call	?_Myhead@?$_List_alloc@U?$_List_base_types@PAVRaven_Bot@@V?$allocator@PAVRaven_Bot@@@std@@@std@@@std@@QAEAAPAU?$_List_node@PAVRaven_Bot@@PAX@2@XZ ; std::_List_alloc<std::_List_base_types<Raven_Bot *,std::allocator<Raven_Bot *> > >::_Myhead
	mov	ecx, DWORD PTR [eax]
	mov	edx, DWORD PTR [esi]
	mov	DWORD PTR [ecx+4], edx

; 1388 : 		this->_Mysize() = 0;

	mov	ecx, DWORD PTR _this$[ebp]
	call	?_Mysize@?$_List_alloc@U?$_List_base_types@PAVRaven_Bot@@V?$allocator@PAVRaven_Bot@@@std@@@std@@@std@@QAEAAIXZ ; std::_List_alloc<std::_List_base_types<Raven_Bot *,std::allocator<Raven_Bot *> > >::_Mysize
	mov	DWORD PTR [eax], 0

; 1389 : 
; 1390 : 		for (_Nodeptr _Pnext; _Pnode != this->_Myhead(); _Pnode = _Pnext)

	jmp	SHORT $LN4@clear
$LN2@clear:
	mov	eax, DWORD PTR __Pnext$2[ebp]
	mov	DWORD PTR __Pnode$[ebp], eax
$LN4@clear:
	mov	ecx, DWORD PTR _this$[ebp]
	call	?_Myhead@?$_List_alloc@U?$_List_base_types@PAVRaven_Bot@@V?$allocator@PAVRaven_Bot@@@std@@@std@@@std@@QAEAAPAU?$_List_node@PAVRaven_Bot@@PAX@2@XZ ; std::_List_alloc<std::_List_base_types<Raven_Bot *,std::allocator<Raven_Bot *> > >::_Myhead
	mov	ecx, DWORD PTR __Pnode$[ebp]
	cmp	ecx, DWORD PTR [eax]
	je	SHORT $LN5@clear

; 1391 : 			{	// delete an element
; 1392 : 			_Pnext = _Pnode->_Next;

	mov	edx, DWORD PTR __Pnode$[ebp]
	mov	eax, DWORD PTR [edx]
	mov	DWORD PTR __Pnext$2[ebp], eax

; 1393 : 			this->_Freenode(_Pnode);

	mov	ecx, DWORD PTR __Pnode$[ebp]
	push	ecx
	mov	ecx, DWORD PTR _this$[ebp]
	call	?_Freenode@?$_List_buy@PAVRaven_Bot@@V?$allocator@PAVRaven_Bot@@@std@@@std@@QAEXPAU?$_List_node@PAVRaven_Bot@@PAX@2@@Z ; std::_List_buy<Raven_Bot *,std::allocator<Raven_Bot *> >::_Freenode

; 1394 : 			}

	jmp	SHORT $LN2@clear
$LN5@clear:

; 1395 : 		}

	mov	ecx, DWORD PTR __$EHRec$[ebp]
	mov	DWORD PTR fs:0, ecx
	pop	ecx
	pop	esi
	add	esp, 24					; 00000018H
	cmp	ebp, esp
	call	__RTC_CheckEsp
	mov	esp, ebp
	pop	ebp
	ret	0
_TEXT	ENDS
;	COMDAT text$x
text$x	SEGMENT
__ehhandler$?clear@?$list@PAVRaven_Bot@@V?$allocator@PAVRaven_Bot@@@std@@@std@@QAEXXZ:
	mov	edx, DWORD PTR [esp+8]
	lea	eax, DWORD PTR [edx+12]
	mov	ecx, DWORD PTR [edx-20]
	xor	ecx, eax
	call	@__security_check_cookie@4
	mov	eax, OFFSET __ehfuncinfo$?clear@?$list@PAVRaven_Bot@@V?$allocator@PAVRaven_Bot@@@std@@@std@@QAEXXZ
	jmp	___CxxFrameHandler3
text$x	ENDS
?clear@?$list@PAVRaven_Bot@@V?$allocator@PAVRaven_Bot@@@std@@@std@@QAEXXZ ENDP ; std::list<Raven_Bot *,std::allocator<Raven_Bot *> >::clear
; Function compile flags: /Odtp /RTCsu
; File c:\program files (x86)\microsoft visual studio\2017\community\vc\tools\msvc\14.15.26726\include\list
;	COMDAT ??1?$list@PAVRaven_Bot@@V?$allocator@PAVRaven_Bot@@@std@@@std@@QAE@XZ
_TEXT	SEGMENT
_this$ = -16						; size = 4
__$EHRec$ = -12						; size = 12
??1?$list@PAVRaven_Bot@@V?$allocator@PAVRaven_Bot@@@std@@@std@@QAE@XZ PROC ; std::list<Raven_Bot *,std::allocator<Raven_Bot *> >::~list<Raven_Bot *,std::allocator<Raven_Bot *> >, COMDAT
; _this$ = ecx

; 981  : 		{	// destroy the object

	push	ebp
	mov	ebp, esp
	push	-1
	push	__ehhandler$??1?$list@PAVRaven_Bot@@V?$allocator@PAVRaven_Bot@@@std@@@std@@QAE@XZ
	mov	eax, DWORD PTR fs:0
	push	eax
	push	ecx
	mov	DWORD PTR [ebp-16], -858993460		; ccccccccH
	mov	eax, DWORD PTR ___security_cookie
	xor	eax, ebp
	push	eax
	lea	eax, DWORD PTR __$EHRec$[ebp]
	mov	DWORD PTR fs:0, eax
	mov	DWORD PTR _this$[ebp], ecx

; 982  : 		_Tidy();

	mov	ecx, DWORD PTR _this$[ebp]
	call	?_Tidy@?$list@PAVRaven_Bot@@V?$allocator@PAVRaven_Bot@@@std@@@std@@QAEXXZ ; std::list<Raven_Bot *,std::allocator<Raven_Bot *> >::_Tidy

; 983  : 		}

	mov	ecx, DWORD PTR _this$[ebp]
	call	??1?$_List_buy@PAVRaven_Bot@@V?$allocator@PAVRaven_Bot@@@std@@@std@@QAE@XZ
	mov	ecx, DWORD PTR __$EHRec$[ebp]
	mov	DWORD PTR fs:0, ecx
	pop	ecx
	add	esp, 16					; 00000010H
	cmp	ebp, esp
	call	__RTC_CheckEsp
	mov	esp, ebp
	pop	ebp
	ret	0
_TEXT	ENDS
;	COMDAT text$x
text$x	SEGMENT
__ehhandler$??1?$list@PAVRaven_Bot@@V?$allocator@PAVRaven_Bot@@@std@@@std@@QAE@XZ:
	mov	edx, DWORD PTR [esp+8]
	lea	eax, DWORD PTR [edx+12]
	mov	ecx, DWORD PTR [edx-8]
	xor	ecx, eax
	call	@__security_check_cookie@4
	mov	eax, OFFSET __ehfuncinfo$??1?$list@PAVRaven_Bot@@V?$allocator@PAVRaven_Bot@@@std@@@std@@QAE@XZ
	jmp	___CxxFrameHandler3
text$x	ENDS
??1?$list@PAVRaven_Bot@@V?$allocator@PAVRaven_Bot@@@std@@@std@@QAE@XZ ENDP ; std::list<Raven_Bot *,std::allocator<Raven_Bot *> >::~list<Raven_Bot *,std::allocator<Raven_Bot *> >
; Function compile flags: /Odtp /RTCsu
;	COMDAT ??1?$_List_buy@PAVRaven_Bot@@V?$allocator@PAVRaven_Bot@@@std@@@std@@QAE@XZ
_TEXT	SEGMENT
_this$ = -4						; size = 4
??1?$_List_buy@PAVRaven_Bot@@V?$allocator@PAVRaven_Bot@@@std@@@std@@QAE@XZ PROC ; std::_List_buy<Raven_Bot *,std::allocator<Raven_Bot *> >::~_List_buy<Raven_Bot *,std::allocator<Raven_Bot *> >, COMDAT
; _this$ = ecx
	push	ebp
	mov	ebp, esp
	push	ecx
	mov	DWORD PTR [ebp-4], -858993460		; ccccccccH
	mov	DWORD PTR _this$[ebp], ecx
	mov	ecx, DWORD PTR _this$[ebp]
	call	??1?$_List_alloc@U?$_List_base_types@PAVRaven_Bot@@V?$allocator@PAVRaven_Bot@@@std@@@std@@@std@@QAE@XZ ; std::_List_alloc<std::_List_base_types<Raven_Bot *,std::allocator<Raven_Bot *> > >::~_List_alloc<std::_List_base_types<Raven_Bot *,std::allocator<Raven_Bot *> > >
	add	esp, 4
	cmp	ebp, esp
	call	__RTC_CheckEsp
	mov	esp, ebp
	pop	ebp
	ret	0
??1?$_List_buy@PAVRaven_Bot@@V?$allocator@PAVRaven_Bot@@@std@@@std@@QAE@XZ ENDP ; std::_List_buy<Raven_Bot *,std::allocator<Raven_Bot *> >::~_List_buy<Raven_Bot *,std::allocator<Raven_Bot *> >
_TEXT	ENDS
; Function compile flags: /Odtp /RTCsu
; File c:\program files (x86)\microsoft visual studio\2017\community\vc\tools\msvc\14.15.26726\include\list
;	COMDAT ?_Freenode@?$_List_buy@PAVRaven_Bot@@V?$allocator@PAVRaven_Bot@@@std@@@std@@QAEXPAU?$_List_node@PAVRaven_Bot@@PAX@2@@Z
_TEXT	SEGMENT
__Al$ = -8						; size = 4
_this$ = -4						; size = 4
__Pnode$ = 8						; size = 4
?_Freenode@?$_List_buy@PAVRaven_Bot@@V?$allocator@PAVRaven_Bot@@@std@@@std@@QAEXPAU?$_List_node@PAVRaven_Bot@@PAX@2@@Z PROC ; std::_List_buy<Raven_Bot *,std::allocator<Raven_Bot *> >::_Freenode, COMDAT
; _this$ = ecx

; 728  : 		{	// give node back

	push	ebp
	mov	ebp, esp
	sub	esp, 8
	mov	DWORD PTR [ebp-8], -858993460		; ccccccccH
	mov	DWORD PTR [ebp-4], -858993460		; ccccccccH
	mov	DWORD PTR _this$[ebp], ecx

; 729  : 		_Alnode& _Al = this->_Getal();

	mov	ecx, DWORD PTR _this$[ebp]
	call	?_Getal@?$_List_alloc@U?$_List_base_types@PAVRaven_Bot@@V?$allocator@PAVRaven_Bot@@@std@@@std@@@std@@QAEAAV?$allocator@U?$_List_node@PAVRaven_Bot@@PAX@std@@@2@XZ ; std::_List_alloc<std::_List_base_types<Raven_Bot *,std::allocator<Raven_Bot *> > >::_Getal
	mov	DWORD PTR __Al$[ebp], eax

; 730  : 		_Alnode_traits::destroy(_Al, _STD addressof(_Pnode->_Myval));

	mov	eax, DWORD PTR __Pnode$[ebp]
	add	eax, 8
	push	eax
	call	??$addressof@PAVRaven_Bot@@@std@@YAPAPAVRaven_Bot@@AAPAV1@@Z ; std::addressof<Raven_Bot *>
	add	esp, 4
	push	eax
	mov	ecx, DWORD PTR __Al$[ebp]
	push	ecx
	call	??$destroy@PAVRaven_Bot@@@?$_Default_allocator_traits@V?$allocator@U?$_List_node@PAVRaven_Bot@@PAX@std@@@std@@@std@@SAXAAV?$allocator@U?$_List_node@PAVRaven_Bot@@PAX@std@@@1@QAPAVRaven_Bot@@@Z ; std::_Default_allocator_traits<std::allocator<std::_List_node<Raven_Bot *,void *> > >::destroy<Raven_Bot *>
	add	esp, 8

; 731  : 		_Node::_Freenode0(_Al, _Pnode);

	mov	edx, DWORD PTR __Pnode$[ebp]
	push	edx
	mov	eax, DWORD PTR __Al$[ebp]
	push	eax
	call	??$_Freenode0@V?$allocator@U?$_List_node@PAVRaven_Bot@@PAX@std@@@std@@@?$_List_node@PAVRaven_Bot@@PAX@std@@SAXAAV?$allocator@U?$_List_node@PAVRaven_Bot@@PAX@std@@@1@PAU01@@Z ; std::_List_node<Raven_Bot *,void *>::_Freenode0<std::allocator<std::_List_node<Raven_Bot *,void *> > >
	add	esp, 8

; 732  : 		}

	add	esp, 8
	cmp	ebp, esp
	call	__RTC_CheckEsp
	mov	esp, ebp
	pop	ebp
	ret	4
?_Freenode@?$_List_buy@PAVRaven_Bot@@V?$allocator@PAVRaven_Bot@@@std@@@std@@QAEXPAU?$_List_node@PAVRaven_Bot@@PAX@2@@Z ENDP ; std::_List_buy<Raven_Bot *,std::allocator<Raven_Bot *> >::_Freenode
_TEXT	ENDS
; Function compile flags: /Odtp /RTCsu
; File c:\program files (x86)\microsoft visual studio\2017\community\vc\tools\msvc\14.15.26726\include\xutility
;	COMDAT ?_Get_second@?$_Compressed_pair@V?$allocator@U?$_List_node@PAVRaven_Bot@@PAX@std@@@std@@V?$_List_val@U?$_List_simple_types@PAVRaven_Bot@@@std@@@2@$00@std@@QBEABV?$_List_val@U?$_List_simple_types@PAVRaven_Bot@@@std@@@2@XZ
_TEXT	SEGMENT
_this$ = -4						; size = 4
?_Get_second@?$_Compressed_pair@V?$allocator@U?$_List_node@PAVRaven_Bot@@PAX@std@@@std@@V?$_List_val@U?$_List_simple_types@PAVRaven_Bot@@@std@@@2@$00@std@@QBEABV?$_List_val@U?$_List_simple_types@PAVRaven_Bot@@@std@@@2@XZ PROC ; std::_Compressed_pair<std::allocator<std::_List_node<Raven_Bot *,void *> >,std::_List_val<std::_List_simple_types<Raven_Bot *> >,1>::_Get_second, COMDAT
; _this$ = ecx

; 306  : 		{	// return const reference to second

	push	ebp
	mov	ebp, esp
	push	ecx
	mov	DWORD PTR [ebp-4], -858993460		; ccccccccH
	mov	DWORD PTR _this$[ebp], ecx

; 307  : 		return (_Myval2);

	mov	eax, DWORD PTR _this$[ebp]

; 308  : 		}

	mov	esp, ebp
	pop	ebp
	ret	0
?_Get_second@?$_Compressed_pair@V?$allocator@U?$_List_node@PAVRaven_Bot@@PAX@std@@@std@@V?$_List_val@U?$_List_simple_types@PAVRaven_Bot@@@std@@@2@$00@std@@QBEABV?$_List_val@U?$_List_simple_types@PAVRaven_Bot@@@std@@@2@XZ ENDP ; std::_Compressed_pair<std::allocator<std::_List_node<Raven_Bot *,void *> >,std::_List_val<std::_List_simple_types<Raven_Bot *> >,1>::_Get_second
_TEXT	ENDS
; Function compile flags: /Odtp /RTCsu
; File c:\program files (x86)\microsoft visual studio\2017\community\vc\tools\msvc\14.15.26726\include\xutility
;	COMDAT ?_Get_second@?$_Compressed_pair@V?$allocator@U?$_List_node@PAVRaven_Bot@@PAX@std@@@std@@V?$_List_val@U?$_List_simple_types@PAVRaven_Bot@@@std@@@2@$00@std@@QAEAAV?$_List_val@U?$_List_simple_types@PAVRaven_Bot@@@std@@@2@XZ
_TEXT	SEGMENT
_this$ = -4						; size = 4
?_Get_second@?$_Compressed_pair@V?$allocator@U?$_List_node@PAVRaven_Bot@@PAX@std@@@std@@V?$_List_val@U?$_List_simple_types@PAVRaven_Bot@@@std@@@2@$00@std@@QAEAAV?$_List_val@U?$_List_simple_types@PAVRaven_Bot@@@std@@@2@XZ PROC ; std::_Compressed_pair<std::allocator<std::_List_node<Raven_Bot *,void *> >,std::_List_val<std::_List_simple_types<Raven_Bot *> >,1>::_Get_second, COMDAT
; _this$ = ecx

; 301  : 		{	// return reference to second

	push	ebp
	mov	ebp, esp
	push	ecx
	mov	DWORD PTR [ebp-4], -858993460		; ccccccccH
	mov	DWORD PTR _this$[ebp], ecx

; 302  : 		return (_Myval2);

	mov	eax, DWORD PTR _this$[ebp]

; 303  : 		}

	mov	esp, ebp
	pop	ebp
	ret	0
?_Get_second@?$_Compressed_pair@V?$allocator@U?$_List_node@PAVRaven_Bot@@PAX@std@@@std@@V?$_List_val@U?$_List_simple_types@PAVRaven_Bot@@@std@@@2@$00@std@@QAEAAV?$_List_val@U?$_List_simple_types@PAVRaven_Bot@@@std@@@2@XZ ENDP ; std::_Compressed_pair<std::allocator<std::_List_node<Raven_Bot *,void *> >,std::_List_val<std::_List_simple_types<Raven_Bot *> >,1>::_Get_second
_TEXT	ENDS
; Function compile flags: /Odtp /RTCsu
; File c:\program files (x86)\microsoft visual studio\2017\community\vc\tools\msvc\14.15.26726\include\xutility
;	COMDAT ?_Get_first@?$_Compressed_pair@V?$allocator@U?$_List_node@PAVRaven_Bot@@PAX@std@@@std@@V?$_List_val@U?$_List_simple_types@PAVRaven_Bot@@@std@@@2@$00@std@@QAEAAV?$allocator@U?$_List_node@PAVRaven_Bot@@PAX@std@@@2@XZ
_TEXT	SEGMENT
_this$ = -4						; size = 4
?_Get_first@?$_Compressed_pair@V?$allocator@U?$_List_node@PAVRaven_Bot@@PAX@std@@@std@@V?$_List_val@U?$_List_simple_types@PAVRaven_Bot@@@std@@@2@$00@std@@QAEAAV?$allocator@U?$_List_node@PAVRaven_Bot@@PAX@std@@@2@XZ PROC ; std::_Compressed_pair<std::allocator<std::_List_node<Raven_Bot *,void *> >,std::_List_val<std::_List_simple_types<Raven_Bot *> >,1>::_Get_first, COMDAT
; _this$ = ecx

; 291  : 		{	// return reference to first

	push	ebp
	mov	ebp, esp
	push	ecx
	mov	DWORD PTR [ebp-4], -858993460		; ccccccccH
	mov	DWORD PTR _this$[ebp], ecx

; 292  : 		return (*this);

	mov	eax, DWORD PTR _this$[ebp]

; 293  : 		}

	mov	esp, ebp
	pop	ebp
	ret	0
?_Get_first@?$_Compressed_pair@V?$allocator@U?$_List_node@PAVRaven_Bot@@PAX@std@@@std@@V?$_List_val@U?$_List_simple_types@PAVRaven_Bot@@@std@@@2@$00@std@@QAEAAV?$allocator@U?$_List_node@PAVRaven_Bot@@PAX@std@@@2@XZ ENDP ; std::_Compressed_pair<std::allocator<std::_List_node<Raven_Bot *,void *> >,std::_List_val<std::_List_simple_types<Raven_Bot *> >,1>::_Get_first
_TEXT	ENDS
; Function compile flags: /Odtp /RTCsu
; File c:\program files (x86)\microsoft visual studio\2017\community\vc\tools\msvc\14.15.26726\include\list
;	COMDAT ?_Mysize@?$_List_alloc@U?$_List_base_types@PAVRaven_Bot@@V?$allocator@PAVRaven_Bot@@@std@@@std@@@std@@QAEAAIXZ
_TEXT	SEGMENT
_this$ = -4						; size = 4
